ARM GAS  C:\Users\ingan\AppData\Local\Temp\ccGH6SF0.s 			page 1


   1              		.syntax unified
   2              		.cpu cortex-m3
   3              		.fpu softvfp
   4              		.eabi_attribute 20, 1
   5              		.eabi_attribute 21, 1
   6              		.eabi_attribute 23, 3
   7              		.eabi_attribute 24, 1
   8              		.eabi_attribute 25, 1
   9              		.eabi_attribute 26, 1
  10              		.eabi_attribute 30, 1
  11              		.eabi_attribute 34, 1
  12              		.eabi_attribute 18, 4
  13              		.thumb
  14              		.syntax unified
  15              		.file	"main.c"
  16              		.text
  17              	.Ltext0:
  18              		.cfi_sections	.debug_frame
  19              		.section	.text.sampleRateIRQ,"ax",%progbits
  20              		.align	2
  21              		.global	sampleRateIRQ
  22              		.thumb
  23              		.thumb_func
  24              		.type	sampleRateIRQ, %function
  25              	sampleRateIRQ:
  26              	.LFB64:
  27              		.file 1 "main.c"
   1:main.c        **** /* ========================================
   2:main.c        ****  *
   3:main.c        ****  * Copyright YOUR COMPANY, THE YEAR
   4:main.c        ****  * All Rights Reserved
   5:main.c        ****  * UNPUBLISHED, LICENSED SOFTWARE.
   6:main.c        ****  *
   7:main.c        ****  * CONFIDENTIAL AND PROPRIETARY INFORMATION
   8:main.c        ****  * WHICH IS THE PROPERTY OF your company.
   9:main.c        ****  *
  10:main.c        ****  * ========================================
  11:main.c        **** */
  12:main.c        **** #include "project.h"
  13:main.c        **** #include "stdio.h"
  14:main.c        **** #include "tty_utils.h"
  15:main.c        **** #include "utils.h"
  16:main.c        **** #include "usb_uart.h"
  17:main.c        **** 
  18:main.c        **** #define INIT_BUF        8
  19:main.c        **** #define GET16(a,b)      (a + (b << 8));
  20:main.c        **** 
  21:main.c        **** extern uint8_t rx_flag;
  22:main.c        **** extern uint16_t count;
  23:main.c        **** extern uint8_t buffer[USBUART_BUFFER_SIZE][BUF_LEN];
  24:main.c        **** //extern uint8_t buffer;
  25:main.c        **** extern uint8_t *pitem;
  26:main.c        **** extern uint8_t *pplay;
  27:main.c        **** 
  28:main.c        **** uint8_t isrFlag = 0;
  29:main.c        **** 
  30:main.c        **** void ym2612_write_step (uint8_t data);
ARM GAS  C:\Users\ingan\AppData\Local\Temp\ccGH6SF0.s 			page 2


  31:main.c        **** void ym2612_write(uint8_t reg, uint8_t data, uint8_t port);
  32:main.c        **** void sn76489_write(uint8_t data);
  33:main.c        **** void ym2612_reset();
  34:main.c        **** void ym2612_init (void);
  35:main.c        **** void SilenceAllChannels();
  36:main.c        **** void init_hardware(void);
  37:main.c        **** 
  38:main.c        **** CY_ISR(sampleRateIRQ){
  28              		.loc 1 38 0
  29              		.cfi_startproc
  30              		@ args = 0, pretend = 0, frame = 0
  31              		@ frame_needed = 0, uses_anonymous_args = 0
  32              		@ link register save eliminated.
  39:main.c        ****     isrFlag = 1;
  33              		.loc 1 39 0
  34 0000 0122     		movs	r2, #1
  35 0002 014B     		ldr	r3, .L2
  36 0004 1A70     		strb	r2, [r3]
  37 0006 7047     		bx	lr
  38              	.L3:
  39              		.align	2
  40              	.L2:
  41 0008 00000000 		.word	.LANCHOR0
  42              		.cfi_endproc
  43              	.LFE64:
  44              		.size	sampleRateIRQ, .-sampleRateIRQ
  45              		.section	.text.ym2612_write_step,"ax",%progbits
  46              		.align	2
  47              		.global	ym2612_write_step
  48              		.thumb
  49              		.thumb_func
  50              		.type	ym2612_write_step, %function
  51              	ym2612_write_step:
  52              	.LFB67:
  40:main.c        **** }
  41:main.c        **** 
  42:main.c        **** int main(void) {
  43:main.c        ****     
  44:main.c        ****     uint32_t test = 0;
  45:main.c        ****     uint16_t waitData = 0;
  46:main.c        ****     //uint8_t noWait = 0;
  47:main.c        ****     uint8_t start_flag = 0;
  48:main.c        **** 
  49:main.c        ****     init_hardware();
  50:main.c        ****     isr_1_StartEx(sampleRateIRQ);
  51:main.c        ****     while (0u == USBUART_CDCIsReady());
  52:main.c        ****     USBUART_PutString("\0");
  53:main.c        **** 
  54:main.c        ****     for(;;)
  55:main.c        ****     {
  56:main.c        ****         // initial buffering of INIT_BUF samples
  57:main.c        ****         if (pitem > pplay + INIT_BUF)
  58:main.c        ****         {
  59:main.c        ****             start_flag = 1;
  60:main.c        ****         }
  61:main.c        ****         
  62:main.c        ****         if ((start_flag == 1) && (isrFlag == 1))
ARM GAS  C:\Users\ingan\AppData\Local\Temp\ccGH6SF0.s 			page 3


  63:main.c        ****         {     
  64:main.c        ****             if (waitData == 0)
  65:main.c        ****             {
  66:main.c        ****                         
  67:main.c        ****                 switch (*pplay) {
  68:main.c        ****                     
  69:main.c        ****                     case 0x50: // 0x50 	dd 	PSG (SN76489/SN76496) write value dd
  70:main.c        ****                         
  71:main.c        ****                         sn76489_write(*(pplay + 1));
  72:main.c        ****                         break;
  73:main.c        ****                     
  74:main.c        ****                     case 0x52: // 0x52 	aa dd  YM2612 port 0, write value dd to register aa
  75:main.c        ****                     case 0x53: // 0x53 	aa dd  YM2612 port 1, write value dd to register aa
  76:main.c        ****                         
  77:main.c        ****                         ym2612_write(*(pplay + 1), *(pplay + 2), *pplay & 0x01);
  78:main.c        ****                         break;
  79:main.c        ****                     
  80:main.c        ****                     case 0x61: // 0x61 	nn nn 	Wait n samples, n can range from 0 to 65535 (approx 
  81:main.c        ****                         waitData = GET16(*(pplay + 1), *(pplay + 2));
  82:main.c        ****                         if (waitData == 0)
  83:main.c        ****                         {
  84:main.c        ****                             //noWait = 1;
  85:main.c        ****                             continue;
  86:main.c        ****                         }
  87:main.c        ****                         //else
  88:main.c        ****                         //{
  89:main.c        ****                         //    waitData--;
  90:main.c        ****                         //}
  91:main.c        ****                         break;
  92:main.c        ****                     
  93:main.c        ****                     case 0x62: // wait 735 samples (60th of a second), a shortcut for 0x61 0xdf 0x0
  94:main.c        ****                         waitData = 735 - 1;
  95:main.c        ****                         break;
  96:main.c        ****                     
  97:main.c        ****                     case 0x63: // wait 882 samples (50th of a second), a shortcut for 0x61 0x72 0x0
  98:main.c        ****                         waitData = 882 - 1;
  99:main.c        ****                         break;
 100:main.c        ****                         
 101:main.c        ****                     case  0x70:
 102:main.c        ****                     case  0x71:
 103:main.c        ****                     case  0x72:
 104:main.c        ****                     case  0x73:
 105:main.c        ****                     case  0x74:
 106:main.c        ****                     case  0x75:
 107:main.c        ****                     case  0x76:
 108:main.c        ****                     case  0x77:
 109:main.c        ****                     case  0x78:
 110:main.c        ****                     case  0x79:
 111:main.c        ****                     case  0x7A:
 112:main.c        ****                     case  0x7B:   
 113:main.c        ****                     case  0x7C:
 114:main.c        ****                     case  0x7D:
 115:main.c        ****                     case  0x7E:
 116:main.c        ****                     case  0x7F: // 0x7n 	wait n+1 samples, n can range from 0 to 15.               
 117:main.c        ****                         waitData = *pplay & 0x0f; // this is actually (n+1)
 118:main.c        ****                         break;
 119:main.c        ****                     
ARM GAS  C:\Users\ingan\AppData\Local\Temp\ccGH6SF0.s 			page 4


 120:main.c        ****                     case 0x80:
 121:main.c        ****                     case 0x81:
 122:main.c        ****                     case 0x82:
 123:main.c        ****                     case 0x83:
 124:main.c        ****                     case 0x84:
 125:main.c        ****                     case 0x85:
 126:main.c        ****                     case 0x86:
 127:main.c        ****                     case 0x87:
 128:main.c        ****                     case 0x88:
 129:main.c        ****                     case 0x89:
 130:main.c        ****                     case 0x8a:
 131:main.c        ****                     case 0x8b:
 132:main.c        ****                     case 0x8c:
 133:main.c        ****                     case 0x8d:
 134:main.c        ****                     case 0x8e:
 135:main.c        ****                     case 0x8f: // 0x8n      YM2612 port 0 address 2A write from the data bank, then
 136:main.c        **** 
 137:main.c        ****                         ym2612_write(0x2a, *(pplay + 1), 0x00);
 138:main.c        ****                         waitData = (*pplay & 0x0f);
 139:main.c        ****                         if (waitData == 0)
 140:main.c        ****                         {
 141:main.c        ****                             //noWait = 1; // if 0x80, don't wait for the next ISR (repeat parser lo
 142:main.c        ****                             continue;
 143:main.c        ****                         }
 144:main.c        ****                         //else
 145:main.c        ****                         //{
 146:main.c        ****                         //    waitData--; // else wait n samples
 147:main.c        ****                         //}
 148:main.c        ****                         break;
 149:main.c        ****                     
 150:main.c        ****                     case 0x66: // EOF
 151:main.c        ****                         
 152:main.c        ****                         start_flag = 0;
 153:main.c        ****                         break;
 154:main.c        ****                         
 155:main.c        ****                     default: break;
 156:main.c        ****                 }
 157:main.c        ****                 
 158:main.c        ****                 // increment circular buffer ptr
 159:main.c        ****                 pplay = (pitem > pplay) ? &buffer[0][0] + (((uint8_t)pplay + USBUART_BUFFER_SIZE) %
 160:main.c        ****             }
 161:main.c        ****             else
 162:main.c        ****             {
 163:main.c        ****                 waitData--;
 164:main.c        ****             }
 165:main.c        ****             
 166:main.c        ****             // check for noWait flag
 167:main.c        ****             //if (noWait != 1)
 168:main.c        ****             //{
 169:main.c        ****                 isrFlag = 0;
 170:main.c        ****                 pplay = (uint8_t *) (((int)pplay + 1) % BUF_LEN);
 171:main.c        ****                 test += count;
 172:main.c        ****             //}
 173:main.c        ****             //else
 174:main.c        ****             //{
 175:main.c        ****             //    noWait = 0;
 176:main.c        ****             //}
ARM GAS  C:\Users\ingan\AppData\Local\Temp\ccGH6SF0.s 			page 5


 177:main.c        ****             
 178:main.c        ****         }
 179:main.c        ****         
 180:main.c        ****         // check for incoming data from USB CDC
 181:main.c        ****         if (rx_flag == 1)
 182:main.c        ****         {
 183:main.c        ****             count = USBUART_GetAll(pitem);
 184:main.c        ****             pitem = (pitem >= pplay) ? (uint8_t *) &buffer[0][0] + (((uint8_t) pitem + USBUART_BUFF
 185:main.c        ****             rx_flag = 0;
 186:main.c        ****         }
 187:main.c        ****     }  
 188:main.c        **** }
 189:main.c        **** 
 190:main.c        **** void init_hardware(void) 
 191:main.c        **** {
 192:main.c        ****     SilenceAllChannels();
 193:main.c        ****     CyGlobalIntEnable; /* Enable global interrupts. */
 194:main.c        **** 
 195:main.c        ****     tty_init() ;
 196:main.c        **** }
 197:main.c        **** 
 198:main.c        **** void ym2612_write_step (uint8_t data)
 199:main.c        **** {
  53              		.loc 1 199 0
  54              		.cfi_startproc
  55              		@ args = 0, pretend = 0, frame = 0
  56              		@ frame_needed = 0, uses_anonymous_args = 0
  57              	.LVL0:
  58 0000 10B5     		push	{r4, lr}
  59              		.cfi_def_cfa_offset 8
  60              		.cfi_offset 4, -8
  61              		.cfi_offset 14, -4
  62 0002 0446     		mov	r4, r0
 200:main.c        ****   // CS Pin low
 201:main.c        ****   YM_CS_Write(0);
  63              		.loc 1 201 0
  64 0004 0020     		movs	r0, #0
  65              	.LVL1:
  66 0006 FFF7FEFF 		bl	YM_CS_Write
  67              	.LVL2:
 202:main.c        ****   // DATA to bus
 203:main.c        ****   YM_Data_Write(data);
  68              		.loc 1 203 0
  69 000a 2046     		mov	r0, r4
  70 000c FFF7FEFF 		bl	YM_Data_Write
  71              	.LVL3:
 204:main.c        ****   // WR data
 205:main.c        ****   YM_WR_Write(0);
  72              		.loc 1 205 0
  73 0010 0020     		movs	r0, #0
  74 0012 FFF7FEFF 		bl	YM_WR_Write
  75              	.LVL4:
 206:main.c        ****   YM_RD_Write(1);
  76              		.loc 1 206 0
  77 0016 0120     		movs	r0, #1
  78 0018 FFF7FEFF 		bl	YM_RD_Write
  79              	.LVL5:
ARM GAS  C:\Users\ingan\AppData\Local\Temp\ccGH6SF0.s 			page 6


 207:main.c        ****   //CyDelayCycles(1);
 208:main.c        ****   CyDelayUs(3);
  80              		.loc 1 208 0
  81 001c 0320     		movs	r0, #3
  82 001e FFF7FEFF 		bl	CyDelayUs
  83              	.LVL6:
 209:main.c        ****   YM_WR_Write(1);
  84              		.loc 1 209 0
  85 0022 0120     		movs	r0, #1
  86 0024 FFF7FEFF 		bl	YM_WR_Write
  87              	.LVL7:
 210:main.c        ****   YM_RD_Write(0);
  88              		.loc 1 210 0
  89 0028 0020     		movs	r0, #0
  90 002a FFF7FEFF 		bl	YM_RD_Write
  91              	.LVL8:
 211:main.c        ****   // CS Pin high
 212:main.c        ****   YM_CS_Write(1);
  92              		.loc 1 212 0
  93 002e 0120     		movs	r0, #1
  94 0030 FFF7FEFF 		bl	YM_CS_Write
  95              	.LVL9:
 213:main.c        ****   CyDelayUs(3);
  96              		.loc 1 213 0
  97 0034 0320     		movs	r0, #3
  98 0036 FFF7FEFF 		bl	CyDelayUs
  99              	.LVL10:
 100 003a 10BD     		pop	{r4, pc}
 101              		.cfi_endproc
 102              	.LFE67:
 103              		.size	ym2612_write_step, .-ym2612_write_step
 104              		.section	.text.ym2612_write,"ax",%progbits
 105              		.align	2
 106              		.global	ym2612_write
 107              		.thumb
 108              		.thumb_func
 109              		.type	ym2612_write, %function
 110              	ym2612_write:
 111              	.LFB68:
 214:main.c        ****   //CyDelayCycles(1);
 215:main.c        **** }
 216:main.c        **** 
 217:main.c        **** void ym2612_write(uint8_t reg, uint8_t data, uint8_t port)
 218:main.c        **** {
 112              		.loc 1 218 0
 113              		.cfi_startproc
 114              		@ args = 0, pretend = 0, frame = 0
 115              		@ frame_needed = 0, uses_anonymous_args = 0
 116              	.LVL11:
 117 0000 38B5     		push	{r3, r4, r5, lr}
 118              		.cfi_def_cfa_offset 16
 119              		.cfi_offset 3, -16
 120              		.cfi_offset 4, -12
 121              		.cfi_offset 5, -8
 122              		.cfi_offset 14, -4
 123 0002 0546     		mov	r5, r0
 124 0004 0C46     		mov	r4, r1
ARM GAS  C:\Users\ingan\AppData\Local\Temp\ccGH6SF0.s 			page 7


 219:main.c        ****   // A1 selects part0 (channels 1-3) or part1 (channels 1-6)
 220:main.c        ****   YM_A1_Write(port);
 125              		.loc 1 220 0
 126 0006 1046     		mov	r0, r2
 127              	.LVL12:
 128 0008 FFF7FEFF 		bl	YM_A1_Write
 129              	.LVL13:
 221:main.c        ****   YM_A0_Write(0);
 130              		.loc 1 221 0
 131 000c 0020     		movs	r0, #0
 132 000e FFF7FEFF 		bl	YM_A0_Write
 133              	.LVL14:
 222:main.c        ****   // write register selection
 223:main.c        ****   ym2612_write_step(reg);
 134              		.loc 1 223 0
 135 0012 2846     		mov	r0, r5
 136 0014 FFF7FEFF 		bl	ym2612_write_step
 137              	.LVL15:
 224:main.c        ****   // data part 0 (channels 1-3)
 225:main.c        ****   // A1 low, A0 high
 226:main.c        ****   YM_A0_Write(1);
 138              		.loc 1 226 0
 139 0018 0120     		movs	r0, #1
 140 001a FFF7FEFF 		bl	YM_A0_Write
 141              	.LVL16:
 227:main.c        ****   ym2612_write_step(data);
 142              		.loc 1 227 0
 143 001e 2046     		mov	r0, r4
 144 0020 FFF7FEFF 		bl	ym2612_write_step
 145              	.LVL17:
 146 0024 38BD     		pop	{r3, r4, r5, pc}
 147              		.cfi_endproc
 148              	.LFE68:
 149              		.size	ym2612_write, .-ym2612_write
 150 0026 00BF     		.section	.text.sn76489_write,"ax",%progbits
 151              		.align	2
 152              		.global	sn76489_write
 153              		.thumb
 154              		.thumb_func
 155              		.type	sn76489_write, %function
 156              	sn76489_write:
 157              	.LFB69:
 228:main.c        **** }
 229:main.c        **** 
 230:main.c        **** void sn76489_write(uint8_t data)
 231:main.c        **** {
 158              		.loc 1 231 0
 159              		.cfi_startproc
 160              		@ args = 0, pretend = 0, frame = 0
 161              		@ frame_needed = 0, uses_anonymous_args = 0
 162              	.LVL18:
 163 0000 10B5     		push	{r4, lr}
 164              		.cfi_def_cfa_offset 8
 165              		.cfi_offset 4, -8
 166              		.cfi_offset 14, -4
 167 0002 0446     		mov	r4, r0
 232:main.c        ****   //data = flip_byte(data);  
ARM GAS  C:\Users\ingan\AppData\Local\Temp\ccGH6SF0.s 			page 8


 233:main.c        ****   SN_WE_Write(1);
 168              		.loc 1 233 0
 169 0004 0120     		movs	r0, #1
 170              	.LVL19:
 171 0006 FFF7FEFF 		bl	SN_WE_Write
 172              	.LVL20:
 234:main.c        ****   YM_Data_Write(data);
 173              		.loc 1 234 0
 174 000a 2046     		mov	r0, r4
 175 000c FFF7FEFF 		bl	YM_Data_Write
 176              	.LVL21:
 235:main.c        ****   SN_WE_Write(0);
 177              		.loc 1 235 0
 178 0010 0020     		movs	r0, #0
 179 0012 FFF7FEFF 		bl	SN_WE_Write
 180              	.LVL22:
 236:main.c        ****   //CyDelayCycles(1);
 237:main.c        ****   CyDelayUs(10);
 181              		.loc 1 237 0
 182 0016 0A20     		movs	r0, #10
 183 0018 FFF7FEFF 		bl	CyDelayUs
 184              	.LVL23:
 238:main.c        ****   SN_WE_Write(1);
 185              		.loc 1 238 0
 186 001c 0120     		movs	r0, #1
 187 001e FFF7FEFF 		bl	SN_WE_Write
 188              	.LVL24:
 189 0022 10BD     		pop	{r4, pc}
 190              		.cfi_endproc
 191              	.LFE69:
 192              		.size	sn76489_write, .-sn76489_write
 193              		.section	.text.ym2612_reset,"ax",%progbits
 194              		.align	2
 195              		.global	ym2612_reset
 196              		.thumb
 197              		.thumb_func
 198              		.type	ym2612_reset, %function
 199              	ym2612_reset:
 200              	.LFB70:
 239:main.c        **** }
 240:main.c        **** 
 241:main.c        **** void ym2612_reset()
 242:main.c        **** {
 201              		.loc 1 242 0
 202              		.cfi_startproc
 203              		@ args = 0, pretend = 0, frame = 0
 204              		@ frame_needed = 0, uses_anonymous_args = 0
 205 0000 08B5     		push	{r3, lr}
 206              		.cfi_def_cfa_offset 8
 207              		.cfi_offset 3, -8
 208              		.cfi_offset 14, -4
 243:main.c        ****   //YM_IC_Write(0);
 244:main.c        ****   //CyDelayUs(1);
 245:main.c        ****   //YM_IC_Write(1);
 246:main.c        ****   YM_IC_Write(0);
 209              		.loc 1 246 0
 210 0002 0020     		movs	r0, #0
ARM GAS  C:\Users\ingan\AppData\Local\Temp\ccGH6SF0.s 			page 9


 211 0004 FFF7FEFF 		bl	YM_IC_Write
 212              	.LVL25:
 247:main.c        ****   CyDelay(10);
 213              		.loc 1 247 0
 214 0008 0A20     		movs	r0, #10
 215 000a FFF7FEFF 		bl	CyDelay
 216              	.LVL26:
 248:main.c        ****   YM_IC_Write(1);
 217              		.loc 1 248 0
 218 000e 0120     		movs	r0, #1
 219 0010 FFF7FEFF 		bl	YM_IC_Write
 220              	.LVL27:
 249:main.c        ****   CyDelay(10);  
 221              		.loc 1 249 0
 222 0014 0A20     		movs	r0, #10
 223 0016 FFF7FEFF 		bl	CyDelay
 224              	.LVL28:
 225 001a 08BD     		pop	{r3, pc}
 226              		.cfi_endproc
 227              	.LFE70:
 228              		.size	ym2612_reset, .-ym2612_reset
 229              		.section	.text.ym2612_init,"ax",%progbits
 230              		.align	2
 231              		.global	ym2612_init
 232              		.thumb
 233              		.thumb_func
 234              		.type	ym2612_init, %function
 235              	ym2612_init:
 236              	.LFB71:
 250:main.c        ****   // Silence channel-0 to channel-6
 251:main.c        ****   //for (uint8_t ch = 0; ch <= 6; ++ch)
 252:main.c        ****   //  ym2612_write(0x28, ch, 0);
 253:main.c        **** }
 254:main.c        **** 
 255:main.c        **** void ym2612_init (void)
 256:main.c        **** {
 237              		.loc 1 256 0
 238              		.cfi_startproc
 239              		@ args = 0, pretend = 0, frame = 0
 240              		@ frame_needed = 0, uses_anonymous_args = 0
 241 0000 08B5     		push	{r3, lr}
 242              		.cfi_def_cfa_offset 8
 243              		.cfi_offset 3, -8
 244              		.cfi_offset 14, -4
 257:main.c        ****   YM_CS_Write(1);
 245              		.loc 1 257 0
 246 0002 0120     		movs	r0, #1
 247 0004 FFF7FEFF 		bl	YM_CS_Write
 248              	.LVL29:
 258:main.c        ****   YM_WR_Write(1);
 249              		.loc 1 258 0
 250 0008 0120     		movs	r0, #1
 251 000a FFF7FEFF 		bl	YM_WR_Write
 252              	.LVL30:
 259:main.c        ****   YM_RD_Write(1);
 253              		.loc 1 259 0
 254 000e 0120     		movs	r0, #1
ARM GAS  C:\Users\ingan\AppData\Local\Temp\ccGH6SF0.s 			page 10


 255 0010 FFF7FEFF 		bl	YM_RD_Write
 256              	.LVL31:
 260:main.c        ****   YM_IC_Write(1);
 257              		.loc 1 260 0
 258 0014 0120     		movs	r0, #1
 259 0016 FFF7FEFF 		bl	YM_IC_Write
 260              	.LVL32:
 261:main.c        ****   YM_A0_Write(0);
 261              		.loc 1 261 0
 262 001a 0020     		movs	r0, #0
 263 001c FFF7FEFF 		bl	YM_A0_Write
 264              	.LVL33:
 262:main.c        ****   YM_A1_Write(0);
 265              		.loc 1 262 0
 266 0020 0020     		movs	r0, #0
 267 0022 FFF7FEFF 		bl	YM_A1_Write
 268              	.LVL34:
 263:main.c        ****   YM_Data_Write(0xff);
 269              		.loc 1 263 0
 270 0026 FF20     		movs	r0, #255
 271 0028 FFF7FEFF 		bl	YM_Data_Write
 272              	.LVL35:
 273 002c 08BD     		pop	{r3, pc}
 274              		.cfi_endproc
 275              	.LFE71:
 276              		.size	ym2612_init, .-ym2612_init
 277 002e 00BF     		.section	.text.SilenceAllChannels,"ax",%progbits
 278              		.align	2
 279              		.global	SilenceAllChannels
 280              		.thumb
 281              		.thumb_func
 282              		.type	SilenceAllChannels, %function
 283              	SilenceAllChannels:
 284              	.LFB72:
 264:main.c        **** }
 265:main.c        **** 
 266:main.c        **** void SilenceAllChannels()
 267:main.c        **** {  
 285              		.loc 1 267 0
 286              		.cfi_startproc
 287              		@ args = 0, pretend = 0, frame = 0
 288              		@ frame_needed = 0, uses_anonymous_args = 0
 289 0000 08B5     		push	{r3, lr}
 290              		.cfi_def_cfa_offset 8
 291              		.cfi_offset 3, -8
 292              		.cfi_offset 14, -4
 268:main.c        ****   sn76489_write(0x9f);
 293              		.loc 1 268 0
 294 0002 9F20     		movs	r0, #159
 295 0004 FFF7FEFF 		bl	sn76489_write
 296              	.LVL36:
 269:main.c        ****   sn76489_write(0xbf);
 297              		.loc 1 269 0
 298 0008 BF20     		movs	r0, #191
 299 000a FFF7FEFF 		bl	sn76489_write
 300              	.LVL37:
 270:main.c        ****   sn76489_write(0xdf);
ARM GAS  C:\Users\ingan\AppData\Local\Temp\ccGH6SF0.s 			page 11


 301              		.loc 1 270 0
 302 000e DF20     		movs	r0, #223
 303 0010 FFF7FEFF 		bl	sn76489_write
 304              	.LVL38:
 271:main.c        ****   sn76489_write(0xff);
 305              		.loc 1 271 0
 306 0014 FF20     		movs	r0, #255
 307 0016 FFF7FEFF 		bl	sn76489_write
 308              	.LVL39:
 272:main.c        **** 
 273:main.c        ****   ym2612_init();
 309              		.loc 1 273 0
 310 001a FFF7FEFF 		bl	ym2612_init
 311              	.LVL40:
 274:main.c        ****   ym2612_reset();
 312              		.loc 1 274 0
 313 001e FFF7FEFF 		bl	ym2612_reset
 314              	.LVL41:
 315 0022 08BD     		pop	{r3, pc}
 316              		.cfi_endproc
 317              	.LFE72:
 318              		.size	SilenceAllChannels, .-SilenceAllChannels
 319              		.section	.text.init_hardware,"ax",%progbits
 320              		.align	2
 321              		.global	init_hardware
 322              		.thumb
 323              		.thumb_func
 324              		.type	init_hardware, %function
 325              	init_hardware:
 326              	.LFB66:
 191:main.c        ****     SilenceAllChannels();
 327              		.loc 1 191 0
 328              		.cfi_startproc
 329              		@ args = 0, pretend = 0, frame = 0
 330              		@ frame_needed = 0, uses_anonymous_args = 0
 331 0000 08B5     		push	{r3, lr}
 332              		.cfi_def_cfa_offset 8
 333              		.cfi_offset 3, -8
 334              		.cfi_offset 14, -4
 192:main.c        ****     CyGlobalIntEnable; /* Enable global interrupts. */
 335              		.loc 1 192 0
 336 0002 FFF7FEFF 		bl	SilenceAllChannels
 337              	.LVL42:
 193:main.c        **** 
 338              		.loc 1 193 0
 339              		.syntax unified
 340              	@ 193 "main.c" 1
 341 0006 62B6     		CPSIE   i
 342              	@ 0 "" 2
 195:main.c        **** }
 343              		.loc 1 195 0
 344              		.thumb
 345              		.syntax unified
 346 0008 FFF7FEFF 		bl	tty_init
 347              	.LVL43:
 348 000c 08BD     		pop	{r3, pc}
 349              		.cfi_endproc
ARM GAS  C:\Users\ingan\AppData\Local\Temp\ccGH6SF0.s 			page 12


 350              	.LFE66:
 351              		.size	init_hardware, .-init_hardware
 352 000e 00BF     		.section	.text.main,"ax",%progbits
 353              		.align	2
 354              		.global	main
 355              		.thumb
 356              		.thumb_func
 357              		.type	main, %function
 358              	main:
 359              	.LFB65:
  42:main.c        ****     
 360              		.loc 1 42 0
 361              		.cfi_startproc
 362              		@ args = 0, pretend = 0, frame = 0
 363              		@ frame_needed = 0, uses_anonymous_args = 0
 364 0000 70B5     		push	{r4, r5, r6, lr}
 365              		.cfi_def_cfa_offset 16
 366              		.cfi_offset 4, -16
 367              		.cfi_offset 5, -12
 368              		.cfi_offset 6, -8
 369              		.cfi_offset 14, -4
 370              	.LVL44:
  49:main.c        ****     isr_1_StartEx(sampleRateIRQ);
 371              		.loc 1 49 0
 372 0002 FFF7FEFF 		bl	init_hardware
 373              	.LVL45:
  50:main.c        ****     while (0u == USBUART_CDCIsReady());
 374              		.loc 1 50 0
 375 0006 5A48     		ldr	r0, .L42
 376 0008 FFF7FEFF 		bl	isr_1_StartEx
 377              	.LVL46:
 378              	.L19:
  51:main.c        ****     USBUART_PutString("\0");
 379              		.loc 1 51 0 discriminator 1
 380 000c FFF7FEFF 		bl	USBUART_CDCIsReady
 381              	.LVL47:
 382 0010 0028     		cmp	r0, #0
 383 0012 FBD0     		beq	.L19
  52:main.c        **** 
 384              		.loc 1 52 0
 385 0014 5748     		ldr	r0, .L42+4
 386 0016 FFF7FEFF 		bl	USBUART_PutString
 387              	.LVL48:
  47:main.c        **** 
 388              		.loc 1 47 0
 389 001a 0024     		movs	r4, #0
  45:main.c        ****     //uint8_t noWait = 0;
 390              		.loc 1 45 0
 391 001c 2546     		mov	r5, r4
 392              	.LVL49:
 393              	.L20:
  57:main.c        ****         {
 394              		.loc 1 57 0
 395 001e 564B     		ldr	r3, .L42+8
 396 0020 1B68     		ldr	r3, [r3]
 397 0022 03F10801 		add	r1, r3, #8
 398 0026 554A     		ldr	r2, .L42+12
ARM GAS  C:\Users\ingan\AppData\Local\Temp\ccGH6SF0.s 			page 13


 399 0028 1268     		ldr	r2, [r2]
 400 002a 9142     		cmp	r1, r2
 401 002c 00D2     		bcs	.L21
  59:main.c        ****         }
 402              		.loc 1 59 0
 403 002e 0124     		movs	r4, #1
 404              	.LVL50:
 405              	.L21:
  62:main.c        ****         {     
 406              		.loc 1 62 0
 407 0030 002C     		cmp	r4, #0
 408 0032 7BD0     		beq	.L22
  62:main.c        ****         {     
 409              		.loc 1 62 0 is_stmt 0 discriminator 1
 410 0034 524A     		ldr	r2, .L42+16
 411 0036 1278     		ldrb	r2, [r2]	@ zero_extendqisi2
 412 0038 012A     		cmp	r2, #1
 413 003a 77D1     		bne	.L22
  64:main.c        ****             {
 414              		.loc 1 64 0 is_stmt 1
 415 003c 002D     		cmp	r5, #0
 416 003e 64D1     		bne	.L23
  67:main.c        ****                     
 417              		.loc 1 67 0
 418 0040 1A78     		ldrb	r2, [r3]	@ zero_extendqisi2
 419 0042 A2F15001 		sub	r1, r2, #80
 420 0046 3F29     		cmp	r1, #63
 421 0048 4AD8     		bhi	.L29
 422 004a DFE801F0 		tbb	[pc, r1]
 423              	.L26:
 424 004e 20       		.byte	(.L25-.L26)/2
 425 004f 49       		.byte	(.L29-.L26)/2
 426 0050 24       		.byte	(.L27-.L26)/2
 427 0051 24       		.byte	(.L27-.L26)/2
 428 0052 49       		.byte	(.L29-.L26)/2
 429 0053 49       		.byte	(.L29-.L26)/2
 430 0054 49       		.byte	(.L29-.L26)/2
 431 0055 49       		.byte	(.L29-.L26)/2
 432 0056 49       		.byte	(.L29-.L26)/2
 433 0057 49       		.byte	(.L29-.L26)/2
 434 0058 49       		.byte	(.L29-.L26)/2
 435 0059 49       		.byte	(.L29-.L26)/2
 436 005a 49       		.byte	(.L29-.L26)/2
 437 005b 49       		.byte	(.L29-.L26)/2
 438 005c 49       		.byte	(.L29-.L26)/2
 439 005d 49       		.byte	(.L29-.L26)/2
 440 005e 49       		.byte	(.L29-.L26)/2
 441 005f 2B       		.byte	(.L28-.L26)/2
 442 0060 47       		.byte	(.L40-.L26)/2
 443 0061 33       		.byte	(.L30-.L26)/2
 444 0062 49       		.byte	(.L29-.L26)/2
 445 0063 49       		.byte	(.L29-.L26)/2
 446 0064 45       		.byte	(.L31-.L26)/2
 447 0065 49       		.byte	(.L29-.L26)/2
 448 0066 49       		.byte	(.L29-.L26)/2
 449 0067 49       		.byte	(.L29-.L26)/2
 450 0068 49       		.byte	(.L29-.L26)/2
ARM GAS  C:\Users\ingan\AppData\Local\Temp\ccGH6SF0.s 			page 14


 451 0069 49       		.byte	(.L29-.L26)/2
 452 006a 49       		.byte	(.L29-.L26)/2
 453 006b 49       		.byte	(.L29-.L26)/2
 454 006c 49       		.byte	(.L29-.L26)/2
 455 006d 49       		.byte	(.L29-.L26)/2
 456 006e 36       		.byte	(.L32-.L26)/2
 457 006f 36       		.byte	(.L32-.L26)/2
 458 0070 36       		.byte	(.L32-.L26)/2
 459 0071 36       		.byte	(.L32-.L26)/2
 460 0072 36       		.byte	(.L32-.L26)/2
 461 0073 36       		.byte	(.L32-.L26)/2
 462 0074 36       		.byte	(.L32-.L26)/2
 463 0075 36       		.byte	(.L32-.L26)/2
 464 0076 36       		.byte	(.L32-.L26)/2
 465 0077 36       		.byte	(.L32-.L26)/2
 466 0078 36       		.byte	(.L32-.L26)/2
 467 0079 36       		.byte	(.L32-.L26)/2
 468 007a 36       		.byte	(.L32-.L26)/2
 469 007b 36       		.byte	(.L32-.L26)/2
 470 007c 36       		.byte	(.L32-.L26)/2
 471 007d 36       		.byte	(.L32-.L26)/2
 472 007e 39       		.byte	(.L33-.L26)/2
 473 007f 39       		.byte	(.L33-.L26)/2
 474 0080 39       		.byte	(.L33-.L26)/2
 475 0081 39       		.byte	(.L33-.L26)/2
 476 0082 39       		.byte	(.L33-.L26)/2
 477 0083 39       		.byte	(.L33-.L26)/2
 478 0084 39       		.byte	(.L33-.L26)/2
 479 0085 39       		.byte	(.L33-.L26)/2
 480 0086 39       		.byte	(.L33-.L26)/2
 481 0087 39       		.byte	(.L33-.L26)/2
 482 0088 39       		.byte	(.L33-.L26)/2
 483 0089 39       		.byte	(.L33-.L26)/2
 484 008a 39       		.byte	(.L33-.L26)/2
 485 008b 39       		.byte	(.L33-.L26)/2
 486 008c 39       		.byte	(.L33-.L26)/2
 487 008d 39       		.byte	(.L33-.L26)/2
 488              		.p2align 1
 489              	.L25:
  71:main.c        ****                         break;
 490              		.loc 1 71 0
 491 008e 5878     		ldrb	r0, [r3, #1]	@ zero_extendqisi2
 492 0090 FFF7FEFF 		bl	sn76489_write
 493              	.LVL51:
  72:main.c        ****                     
 494              		.loc 1 72 0
 495 0094 24E0     		b	.L29
 496              	.L27:
  77:main.c        ****                         break;
 497              		.loc 1 77 0
 498 0096 02F00102 		and	r2, r2, #1
 499 009a 9978     		ldrb	r1, [r3, #2]	@ zero_extendqisi2
 500 009c 5878     		ldrb	r0, [r3, #1]	@ zero_extendqisi2
 501 009e FFF7FEFF 		bl	ym2612_write
 502              	.LVL52:
  78:main.c        ****                     
 503              		.loc 1 78 0
ARM GAS  C:\Users\ingan\AppData\Local\Temp\ccGH6SF0.s 			page 15


 504 00a2 1DE0     		b	.L29
 505              	.L28:
  81:main.c        ****                         if (waitData == 0)
 506              		.loc 1 81 0
 507 00a4 5A78     		ldrb	r2, [r3, #1]	@ zero_extendqisi2
 508 00a6 9D78     		ldrb	r5, [r3, #2]	@ zero_extendqisi2
 509              	.LVL53:
 510 00a8 02EB0525 		add	r5, r2, r5, lsl #8
 511 00ac ADB2     		uxth	r5, r5
 512              	.LVL54:
  82:main.c        ****                         {
 513              		.loc 1 82 0
 514 00ae 002D     		cmp	r5, #0
 515 00b0 B5D0     		beq	.L20
 516 00b2 15E0     		b	.L29
 517              	.L30:
 518              	.LVL55:
  98:main.c        ****                         break;
 519              		.loc 1 98 0
 520 00b4 40F27135 		movw	r5, #881
  99:main.c        ****                         
 521              		.loc 1 99 0
 522 00b8 12E0     		b	.L29
 523              	.LVL56:
 524              	.L32:
 117:main.c        ****                         break;
 525              		.loc 1 117 0
 526 00ba 02F00F05 		and	r5, r2, #15
 527              	.LVL57:
 118:main.c        ****                     
 528              		.loc 1 118 0
 529 00be 0FE0     		b	.L29
 530              	.L33:
 137:main.c        ****                         waitData = (*pplay & 0x0f);
 531              		.loc 1 137 0
 532 00c0 0022     		movs	r2, #0
 533 00c2 5978     		ldrb	r1, [r3, #1]	@ zero_extendqisi2
 534 00c4 2A20     		movs	r0, #42
 535 00c6 FFF7FEFF 		bl	ym2612_write
 536              	.LVL58:
 138:main.c        ****                         if (waitData == 0)
 537              		.loc 1 138 0
 538 00ca 2B4B     		ldr	r3, .L42+8
 539 00cc 1B68     		ldr	r3, [r3]
 540 00ce 1D78     		ldrb	r5, [r3]	@ zero_extendqisi2
 541              	.LVL59:
 139:main.c        ****                         {
 542              		.loc 1 139 0
 543 00d0 15F00F05 		ands	r5, r5, #15
 544              	.LVL60:
 545 00d4 A3D0     		beq	.L20
 546 00d6 03E0     		b	.L29
 547              	.LVL61:
 548              	.L31:
 152:main.c        ****                         break;
 549              		.loc 1 152 0
 550 00d8 0024     		movs	r4, #0
ARM GAS  C:\Users\ingan\AppData\Local\Temp\ccGH6SF0.s 			page 16


 153:main.c        ****                         
 551              		.loc 1 153 0
 552 00da 01E0     		b	.L29
 553              	.LVL62:
 554              	.L40:
  94:main.c        ****                         break;
 555              		.loc 1 94 0
 556 00dc 40F2DE25 		movw	r5, #734
 557              	.LVL63:
 558              	.L29:
 159:main.c        ****             }
 559              		.loc 1 159 0
 560 00e0 264B     		ldr	r3, .L42+12
 561 00e2 1A68     		ldr	r2, [r3]
 562 00e4 244B     		ldr	r3, .L42+8
 563 00e6 1B68     		ldr	r3, [r3]
 564 00e8 9A42     		cmp	r2, r3
 565 00ea 0BD9     		bls	.L35
 159:main.c        ****             }
 566              		.loc 1 159 0 is_stmt 0 discriminator 1
 567 00ec DBB2     		uxtb	r3, r3
 568 00ee DA1C     		adds	r2, r3, #3
 569 00f0 244B     		ldr	r3, .L42+20
 570 00f2 A3FB0213 		umull	r1, r3, r3, r2
 571 00f6 5909     		lsrs	r1, r3, #5
 572 00f8 01EB4103 		add	r3, r1, r1, lsl #1
 573 00fc 1901     		lsls	r1, r3, #4
 574 00fe 511A     		subs	r1, r2, r1
 575 0100 214B     		ldr	r3, .L42+24
 576 0102 0B44     		add	r3, r3, r1
 577              	.L35:
 159:main.c        ****             }
 578              		.loc 1 159 0 discriminator 4
 579 0104 1C4A     		ldr	r2, .L42+8
 580 0106 1360     		str	r3, [r2]
 581 0108 01E0     		b	.L36
 582              	.L23:
 163:main.c        ****             }
 583              		.loc 1 163 0 is_stmt 1
 584 010a 013D     		subs	r5, r5, #1
 585              	.LVL64:
 586 010c ADB2     		uxth	r5, r5
 587              	.LVL65:
 588              	.L36:
 169:main.c        ****                 pplay = (uint8_t *) (((int)pplay + 1) % BUF_LEN);
 589              		.loc 1 169 0
 590 010e 0022     		movs	r2, #0
 591 0110 1B4B     		ldr	r3, .L42+16
 592 0112 1A70     		strb	r2, [r3]
 170:main.c        ****                 test += count;
 593              		.loc 1 170 0
 594 0114 184B     		ldr	r3, .L42+8
 595 0116 1B68     		ldr	r3, [r3]
 596 0118 0133     		adds	r3, r3, #1
 597 011a 1C4A     		ldr	r2, .L42+28
 598 011c 1340     		ands	r3, r3, r2
 599 011e 03D5     		bpl	.L37
ARM GAS  C:\Users\ingan\AppData\Local\Temp\ccGH6SF0.s 			page 17


 600 0120 013B     		subs	r3, r3, #1
 601 0122 63F00F03 		orn	r3, r3, #15
 602 0126 0133     		adds	r3, r3, #1
 603              	.L37:
 604 0128 134A     		ldr	r2, .L42+8
 605 012a 1360     		str	r3, [r2]
 606              	.L22:
 181:main.c        ****         {
 607              		.loc 1 181 0
 608 012c 184B     		ldr	r3, .L42+32
 609 012e 1B78     		ldrb	r3, [r3]	@ zero_extendqisi2
 610 0130 012B     		cmp	r3, #1
 611 0132 7FF474AF 		bne	.L20
 183:main.c        ****             pitem = (pitem >= pplay) ? (uint8_t *) &buffer[0][0] + (((uint8_t) pitem + USBUART_BUFF
 612              		.loc 1 183 0
 613 0136 114E     		ldr	r6, .L42+12
 614 0138 3068     		ldr	r0, [r6]
 615 013a FFF7FEFF 		bl	USBUART_GetAll
 616              	.LVL66:
 617 013e 154B     		ldr	r3, .L42+36
 618 0140 1880     		strh	r0, [r3]	@ movhi
 184:main.c        ****             rx_flag = 0;
 619              		.loc 1 184 0
 620 0142 3368     		ldr	r3, [r6]
 621 0144 0C4A     		ldr	r2, .L42+8
 622 0146 1268     		ldr	r2, [r2]
 623 0148 9342     		cmp	r3, r2
 624 014a 0BD3     		bcc	.L38
 184:main.c        ****             rx_flag = 0;
 625              		.loc 1 184 0 is_stmt 0 discriminator 1
 626 014c DBB2     		uxtb	r3, r3
 627 014e DA1C     		adds	r2, r3, #3
 628 0150 0C4B     		ldr	r3, .L42+20
 629 0152 A3FB0213 		umull	r1, r3, r3, r2
 630 0156 5909     		lsrs	r1, r3, #5
 631 0158 01EB4103 		add	r3, r1, r1, lsl #1
 632 015c 1901     		lsls	r1, r3, #4
 633 015e 511A     		subs	r1, r2, r1
 634 0160 094B     		ldr	r3, .L42+24
 635 0162 0B44     		add	r3, r3, r1
 636              	.L38:
 184:main.c        ****             rx_flag = 0;
 637              		.loc 1 184 0 discriminator 4
 638 0164 054A     		ldr	r2, .L42+12
 639 0166 1360     		str	r3, [r2]
 185:main.c        ****         }
 640              		.loc 1 185 0 is_stmt 1 discriminator 4
 641 0168 0022     		movs	r2, #0
 642 016a 094B     		ldr	r3, .L42+32
 643 016c 1A70     		strb	r2, [r3]
 644 016e 56E7     		b	.L20
 645              	.L43:
 646              		.align	2
 647              	.L42:
 648 0170 00000000 		.word	sampleRateIRQ
 649 0174 00000000 		.word	.LANCHOR1
 650 0178 00000000 		.word	pplay
ARM GAS  C:\Users\ingan\AppData\Local\Temp\ccGH6SF0.s 			page 18


 651 017c 00000000 		.word	pitem
 652 0180 00000000 		.word	.LANCHOR0
 653 0184 ABAAAAAA 		.word	-1431655765
 654 0188 00000000 		.word	buffer
 655 018c 0F000080 		.word	-2147483633
 656 0190 00000000 		.word	rx_flag
 657 0194 00000000 		.word	count
 658              		.cfi_endproc
 659              	.LFE65:
 660              		.size	main, .-main
 661              		.global	isrFlag
 662              		.section	.rodata
 663              		.align	2
 664              		.set	.LANCHOR1,. + 0
 665              	.LC0:
 666 0000 0000     		.ascii	"\000\000"
 667              		.bss
 668              		.set	.LANCHOR0,. + 0
 669              		.type	isrFlag, %object
 670              		.size	isrFlag, 1
 671              	isrFlag:
 672 0000 00       		.space	1
 673              		.text
 674              	.Letext0:
 675              		.file 2 "c:\\program files (x86)\\cypress\\psoc creator\\4.2\\psoc creator\\import\\gnu\\arm\\5.4.
 676              		.file 3 "c:\\program files (x86)\\cypress\\psoc creator\\4.2\\psoc creator\\import\\gnu\\arm\\5.4.
 677              		.file 4 "Generated_Source\\PSoC5/core_cm3.h"
 678              		.file 5 "Generated_Source\\PSoC5/YM_CS.h"
 679              		.file 6 "Generated_Source\\PSoC5/YM_Data.h"
 680              		.file 7 "Generated_Source\\PSoC5/YM_WR.h"
 681              		.file 8 "Generated_Source\\PSoC5/YM_RD.h"
 682              		.file 9 "Generated_Source\\PSoC5/CyLib.h"
 683              		.file 10 "Generated_Source\\PSoC5/YM_A1.h"
 684              		.file 11 "Generated_Source\\PSoC5/YM_A0.h"
 685              		.file 12 "Generated_Source\\PSoC5/SN_WE.h"
 686              		.file 13 "Generated_Source\\PSoC5/YM_IC.h"
 687              		.file 14 "tty_utils.h"
 688              		.file 15 "Generated_Source\\PSoC5/isr_1.h"
 689              		.file 16 "Generated_Source\\PSoC5/USBUART_cdc.h"