ARM GAS  C:\Users\ingan\AppData\Local\Temp\ccS3j9Gb.s 			page 1


   1              		.syntax unified
   2              		.cpu cortex-m3
   3              		.fpu softvfp
   4              		.eabi_attribute 20, 1
   5              		.eabi_attribute 21, 1
   6              		.eabi_attribute 23, 3
   7              		.eabi_attribute 24, 1
   8              		.eabi_attribute 25, 1
   9              		.eabi_attribute 26, 1
  10              		.eabi_attribute 30, 1
  11              		.eabi_attribute 34, 1
  12              		.eabi_attribute 18, 4
  13              		.thumb
  14              		.syntax unified
  15              		.file	"tty_utils.c"
  16              		.text
  17              	.Ltext0:
  18              		.cfi_sections	.debug_frame
  19              		.section	.text.print,"ax",%progbits
  20              		.align	2
  21              		.global	print
  22              		.thumb
  23              		.thumb_func
  24              		.type	print, %function
  25              	print:
  26              	.LFB67:
  27              		.file 1 "tty_utils.c"
   1:tty_utils.c   **** /*  tty_utils has had traditional UART implimentation with
   2:tty_utils.c   **** *   tty_rx_isr connected to the UART interrupt output port
   3:tty_utils.c   **** *   Now all commented out. 
   4:tty_utils.c   **** *
   5:tty_utils.c   **** *   Do NOT remove the UART code commented out.
   6:tty_utils.c   **** */
   7:tty_utils.c   **** #include "project.h"
   8:tty_utils.c   **** #include "stdio.h"
   9:tty_utils.c   **** #include "tty_utils.h"
  10:tty_utils.c   **** #include "usb_uart.h"
  11:tty_utils.c   **** 
  12:tty_utils.c   **** #define TAB   '\t'
  13:tty_utils.c   **** #define SPACE ' ' 
  14:tty_utils.c   **** #define CR    '\r'
  15:tty_utils.c   **** #define LF    '\n'
  16:tty_utils.c   **** #define BS    '\b'
  17:tty_utils.c   **** 
  18:tty_utils.c   **** #define RX_BUF_LEN  128
  19:tty_utils.c   **** 
  20:tty_utils.c   **** volatile char rx_buf[RX_BUF_LEN] ;
  21:tty_utils.c   **** volatile int  rx_write_index = 0 ;
  22:tty_utils.c   **** int           rx_read_index  = 0 ;
  23:tty_utils.c   **** int           str_buf_index  = 0 ;
  24:tty_utils.c   **** char          str[STR_BUF_LEN + 1] ;
  25:tty_utils.c   **** 
  26:tty_utils.c   **** static inline int is_delimiter(char c)
  27:tty_utils.c   **** {
  28:tty_utils.c   ****     return((c == TAB)||(c == SPACE)||(c == CR)||(c == LF)) ;
  29:tty_utils.c   **** }
  30:tty_utils.c   **** 
ARM GAS  C:\Users\ingan\AppData\Local\Temp\ccS3j9Gb.s 			page 2


  31:tty_utils.c   **** static inline int is_eol(char c)
  32:tty_utils.c   **** {
  33:tty_utils.c   ****     return((c == CR) || (c == LF)) ;
  34:tty_utils.c   **** }
  35:tty_utils.c   **** 
  36:tty_utils.c   **** static inline int is_backspace(char c)
  37:tty_utils.c   **** {
  38:tty_utils.c   ****     return(c == BS) ;
  39:tty_utils.c   **** }
  40:tty_utils.c   **** 
  41:tty_utils.c   **** void print(char *str)
  42:tty_utils.c   **** {
  28              		.loc 1 42 0
  29              		.cfi_startproc
  30              		@ args = 0, pretend = 0, frame = 0
  31              		@ frame_needed = 0, uses_anonymous_args = 0
  32              	.LVL0:
  33 0000 08B5     		push	{r3, lr}
  34              		.cfi_def_cfa_offset 8
  35              		.cfi_offset 3, -8
  36              		.cfi_offset 14, -4
  43:tty_utils.c   **** //    UART_PutString(str) ; /* for PSoC 5LP */
  44:tty_utils.c   ****     usbuart_putstring(str);
  37              		.loc 1 44 0
  38 0002 FFF7FEFF 		bl	usbuart_putstring
  39              	.LVL1:
  40 0006 08BD     		pop	{r3, pc}
  41              		.cfi_endproc
  42              	.LFE67:
  43              		.size	print, .-print
  44              		.section	.text.printc,"ax",%progbits
  45              		.align	2
  46              		.global	printc
  47              		.thumb
  48              		.thumb_func
  49              		.type	printc, %function
  50              	printc:
  51              	.LFB68:
  45:tty_utils.c   **** }
  46:tty_utils.c   **** 
  47:tty_utils.c   **** void printc(char c)
  48:tty_utils.c   **** {
  52              		.loc 1 48 0
  53              		.cfi_startproc
  54              		@ args = 0, pretend = 0, frame = 0
  55              		@ frame_needed = 0, uses_anonymous_args = 0
  56              	.LVL2:
  57 0000 08B5     		push	{r3, lr}
  58              		.cfi_def_cfa_offset 8
  59              		.cfi_offset 3, -8
  60              		.cfi_offset 14, -4
  49:tty_utils.c   **** //    UART_PutChar(c) ;
  50:tty_utils.c   ****     usbuart_putchar(c);
  61              		.loc 1 50 0
  62 0002 FFF7FEFF 		bl	usbuart_putchar
  63              	.LVL3:
  64 0006 08BD     		pop	{r3, pc}
ARM GAS  C:\Users\ingan\AppData\Local\Temp\ccS3j9Gb.s 			page 3


  65              		.cfi_endproc
  66              	.LFE68:
  67              		.size	printc, .-printc
  68              		.section	.text.print_eol,"ax",%progbits
  69              		.align	2
  70              		.global	print_eol
  71              		.thumb
  72              		.thumb_func
  73              		.type	print_eol, %function
  74              	print_eol:
  75              	.LFB69:
  51:tty_utils.c   **** }
  52:tty_utils.c   **** 
  53:tty_utils.c   **** void print_eol(void) 
  54:tty_utils.c   **** {
  76              		.loc 1 54 0
  77              		.cfi_startproc
  78              		@ args = 0, pretend = 0, frame = 0
  79              		@ frame_needed = 0, uses_anonymous_args = 0
  80 0000 08B5     		push	{r3, lr}
  81              		.cfi_def_cfa_offset 8
  82              		.cfi_offset 3, -8
  83              		.cfi_offset 14, -4
  55:tty_utils.c   **** //    UART_PutChar(CR) ;
  56:tty_utils.c   **** //    UART_PutChar(LF) ;
  57:tty_utils.c   ****     usbuart_puteol();
  84              		.loc 1 57 0
  85 0002 FFF7FEFF 		bl	usbuart_puteol
  86              	.LVL4:
  87 0006 08BD     		pop	{r3, pc}
  88              		.cfi_endproc
  89              	.LFE69:
  90              		.size	print_eol, .-print_eol
  91              		.section	.text.tty_rx_isr,"ax",%progbits
  92              		.align	2
  93              		.global	tty_rx_isr
  94              		.thumb
  95              		.thumb_func
  96              		.type	tty_rx_isr, %function
  97              	tty_rx_isr:
  98              	.LFB70:
  58:tty_utils.c   **** }
  59:tty_utils.c   **** 
  60:tty_utils.c   **** CY_ISR(tty_rx_isr)
  61:tty_utils.c   **** {
  99              		.loc 1 61 0
 100              		.cfi_startproc
 101              		@ args = 0, pretend = 0, frame = 0
 102              		@ frame_needed = 0, uses_anonymous_args = 0
 103              		@ link register save eliminated.
 104 0000 7047     		bx	lr
 105              		.cfi_endproc
 106              	.LFE70:
 107              		.size	tty_rx_isr, .-tty_rx_isr
 108 0002 00BF     		.section	.text.println,"ax",%progbits
 109              		.align	2
 110              		.global	println
ARM GAS  C:\Users\ingan\AppData\Local\Temp\ccS3j9Gb.s 			page 4


 111              		.thumb
 112              		.thumb_func
 113              		.type	println, %function
 114              	println:
 115              	.LFB71:
  62:tty_utils.c   **** //    if (UART_GetRxBufferSize()) {
  63:tty_utils.c   **** //        rx_buf[rx_write_index] = UART_GetByte() ;
  64:tty_utils.c   **** //        rx_write_index = (rx_write_index + 1) % RX_BUF_LEN ;
  65:tty_utils.c   **** //    }
  66:tty_utils.c   **** //    tty_rx_int_ClearPending() ;
  67:tty_utils.c   **** }
  68:tty_utils.c   **** 
  69:tty_utils.c   **** void println(char *str) 
  70:tty_utils.c   **** {
 116              		.loc 1 70 0
 117              		.cfi_startproc
 118              		@ args = 0, pretend = 0, frame = 0
 119              		@ frame_needed = 0, uses_anonymous_args = 0
 120              	.LVL5:
 121              		.loc 1 70 0
 122 0000 08B5     		push	{r3, lr}
 123              		.cfi_def_cfa_offset 8
 124              		.cfi_offset 3, -8
 125              		.cfi_offset 14, -4
  71:tty_utils.c   **** //    UART_PutString(str) ;
  72:tty_utils.c   ****     usbuart_putstring(str);
 126              		.loc 1 72 0
 127 0002 FFF7FEFF 		bl	usbuart_putstring
 128              	.LVL6:
  73:tty_utils.c   ****     print_eol() ;
 129              		.loc 1 73 0
 130 0006 FFF7FEFF 		bl	print_eol
 131              	.LVL7:
 132 000a 08BD     		pop	{r3, pc}
 133              		.cfi_endproc
 134              	.LFE71:
 135              		.size	println, .-println
 136              		.section	.text.cls,"ax",%progbits
 137              		.align	2
 138              		.global	cls
 139              		.thumb
 140              		.thumb_func
 141              		.type	cls, %function
 142              	cls:
 143              	.LFB72:
  74:tty_utils.c   **** }
  75:tty_utils.c   **** 
  76:tty_utils.c   **** void cls(void)
  77:tty_utils.c   **** {
 144              		.loc 1 77 0
 145              		.cfi_startproc
 146              		@ args = 0, pretend = 0, frame = 0
 147              		@ frame_needed = 0, uses_anonymous_args = 0
 148 0000 08B5     		push	{r3, lr}
 149              		.cfi_def_cfa_offset 8
 150              		.cfi_offset 3, -8
 151              		.cfi_offset 14, -4
ARM GAS  C:\Users\ingan\AppData\Local\Temp\ccS3j9Gb.s 			page 5


  78:tty_utils.c   ****     print("\033c") ; /* reset */
 152              		.loc 1 78 0
 153 0002 0648     		ldr	r0, .L12
 154 0004 FFF7FEFF 		bl	print
 155              	.LVL8:
  79:tty_utils.c   ****     CyDelay(20) ;
 156              		.loc 1 79 0
 157 0008 1420     		movs	r0, #20
 158 000a FFF7FEFF 		bl	CyDelay
 159              	.LVL9:
  80:tty_utils.c   ****     print("\033[2J") ; /* clear screen */
 160              		.loc 1 80 0
 161 000e 0448     		ldr	r0, .L12+4
 162 0010 FFF7FEFF 		bl	print
 163              	.LVL10:
  81:tty_utils.c   ****     CyDelay(20) ;
 164              		.loc 1 81 0
 165 0014 1420     		movs	r0, #20
 166 0016 FFF7FEFF 		bl	CyDelay
 167              	.LVL11:
 168 001a 08BD     		pop	{r3, pc}
 169              	.L13:
 170              		.align	2
 171              	.L12:
 172 001c 00000000 		.word	.LC0
 173 0020 04000000 		.word	.LC1
 174              		.cfi_endproc
 175              	.LFE72:
 176              		.size	cls, .-cls
 177              		.section	.text.splash,"ax",%progbits
 178              		.align	2
 179              		.global	splash
 180              		.thumb
 181              		.thumb_func
 182              		.type	splash, %function
 183              	splash:
 184              	.LFB73:
  82:tty_utils.c   **** }
  83:tty_utils.c   **** 
  84:tty_utils.c   **** void splash(char *prog_name) 
  85:tty_utils.c   **** {
 185              		.loc 1 85 0
 186              		.cfi_startproc
 187              		@ args = 0, pretend = 0, frame = 0
 188              		@ frame_needed = 0, uses_anonymous_args = 0
 189              	.LVL12:
 190 0000 10B5     		push	{r4, lr}
 191              		.cfi_def_cfa_offset 8
 192              		.cfi_offset 4, -8
 193              		.cfi_offset 14, -4
 194 0002 0446     		mov	r4, r0
  86:tty_utils.c   ****     cls() ;
 195              		.loc 1 86 0
 196 0004 FFF7FEFF 		bl	cls
 197              	.LVL13:
  87:tty_utils.c   ****     if (prog_name && *prog_name) {
 198              		.loc 1 87 0
ARM GAS  C:\Users\ingan\AppData\Local\Temp\ccS3j9Gb.s 			page 6


 199 0008 24B1     		cbz	r4, .L15
 200              		.loc 1 87 0 is_stmt 0 discriminator 1
 201 000a 2378     		ldrb	r3, [r4]	@ zero_extendqisi2
 202 000c 13B1     		cbz	r3, .L15
  88:tty_utils.c   ****         print(prog_name) ;
 203              		.loc 1 88 0 is_stmt 1
 204 000e 2046     		mov	r0, r4
 205 0010 FFF7FEFF 		bl	print
 206              	.LVL14:
 207              	.L15:
  89:tty_utils.c   ****     } 
  90:tty_utils.c   ****     print(" (") ;
 208              		.loc 1 90 0
 209 0014 0848     		ldr	r0, .L17
 210 0016 FFF7FEFF 		bl	print
 211              	.LVL15:
  91:tty_utils.c   ****     print(__DATE__) ;
 212              		.loc 1 91 0
 213 001a 0848     		ldr	r0, .L17+4
 214 001c FFF7FEFF 		bl	print
 215              	.LVL16:
  92:tty_utils.c   ****     print(" ") ;
 216              		.loc 1 92 0
 217 0020 0748     		ldr	r0, .L17+8
 218 0022 FFF7FEFF 		bl	print
 219              	.LVL17:
  93:tty_utils.c   ****     print(__TIME__) ;
 220              		.loc 1 93 0
 221 0026 0748     		ldr	r0, .L17+12
 222 0028 FFF7FEFF 		bl	print
 223              	.LVL18:
  94:tty_utils.c   ****     print(")\n") ;
 224              		.loc 1 94 0
 225 002c 0648     		ldr	r0, .L17+16
 226 002e FFF7FEFF 		bl	print
 227              	.LVL19:
  95:tty_utils.c   ****     print_eol();
 228              		.loc 1 95 0
 229 0032 FFF7FEFF 		bl	print_eol
 230              	.LVL20:
 231 0036 10BD     		pop	{r4, pc}
 232              	.LVL21:
 233              	.L18:
 234              		.align	2
 235              	.L17:
 236 0038 0C000000 		.word	.LC2
 237 003c 10000000 		.word	.LC3
 238 0040 1C000000 		.word	.LC4
 239 0044 20000000 		.word	.LC5
 240 0048 2C000000 		.word	.LC6
 241              		.cfi_endproc
 242              	.LFE73:
 243              		.size	splash, .-splash
 244              		.section	.text.prompt,"ax",%progbits
 245              		.align	2
 246              		.global	prompt
 247              		.thumb
ARM GAS  C:\Users\ingan\AppData\Local\Temp\ccS3j9Gb.s 			page 7


 248              		.thumb_func
 249              		.type	prompt, %function
 250              	prompt:
 251              	.LFB74:
  96:tty_utils.c   **** }
  97:tty_utils.c   **** 
  98:tty_utils.c   **** void prompt(char *str)
  99:tty_utils.c   **** {
 252              		.loc 1 99 0
 253              		.cfi_startproc
 254              		@ args = 0, pretend = 0, frame = 0
 255              		@ frame_needed = 0, uses_anonymous_args = 0
 256              	.LVL22:
 257 0000 08B5     		push	{r3, lr}
 258              		.cfi_def_cfa_offset 8
 259              		.cfi_offset 3, -8
 260              		.cfi_offset 14, -4
 100:tty_utils.c   ****     if (str && *str) {
 261              		.loc 1 100 0
 262 0002 20B1     		cbz	r0, .L20
 263              		.loc 1 100 0 is_stmt 0 discriminator 1
 264 0004 0278     		ldrb	r2, [r0]	@ zero_extendqisi2
 265 0006 12B1     		cbz	r2, .L20
 101:tty_utils.c   ****         print(str) ;
 266              		.loc 1 101 0 is_stmt 1
 267 0008 FFF7FEFF 		bl	print
 268              	.LVL23:
 269 000c 08BD     		pop	{r3, pc}
 270              	.LVL24:
 271              	.L20:
 102:tty_utils.c   ****     } else {
 103:tty_utils.c   ****         print("> ") ;
 272              		.loc 1 103 0
 273 000e 0248     		ldr	r0, .L23
 274              	.LVL25:
 275 0010 FFF7FEFF 		bl	print
 276              	.LVL26:
 277 0014 08BD     		pop	{r3, pc}
 278              	.L24:
 279 0016 00BF     		.align	2
 280              	.L23:
 281 0018 30000000 		.word	.LC7
 282              		.cfi_endproc
 283              	.LFE74:
 284              		.size	prompt, .-prompt
 285              		.section	.text.tty_init,"ax",%progbits
 286              		.align	2
 287              		.global	tty_init
 288              		.thumb
 289              		.thumb_func
 290              		.type	tty_init, %function
 291              	tty_init:
 292              	.LFB75:
 104:tty_utils.c   ****     }
 105:tty_utils.c   **** }
 106:tty_utils.c   **** 
 107:tty_utils.c   **** void tty_init(void)
ARM GAS  C:\Users\ingan\AppData\Local\Temp\ccS3j9Gb.s 			page 8


 108:tty_utils.c   **** {
 293              		.loc 1 108 0
 294              		.cfi_startproc
 295              		@ args = 0, pretend = 0, frame = 0
 296              		@ frame_needed = 0, uses_anonymous_args = 0
 297 0000 08B5     		push	{r3, lr}
 298              		.cfi_def_cfa_offset 8
 299              		.cfi_offset 3, -8
 300              		.cfi_offset 14, -4
 109:tty_utils.c   **** //    tty_rx_int_ClearPending() ;
 110:tty_utils.c   **** //    tty_rx_int_StartEx(tty_rx_isr) ;
 111:tty_utils.c   **** //    UART_Start() ;
 112:tty_utils.c   ****     usbuart_init();
 301              		.loc 1 112 0
 302 0002 FFF7FEFF 		bl	usbuart_init
 303              	.LVL27:
 304 0006 08BD     		pop	{r3, pc}
 305              		.cfi_endproc
 306              	.LFE75:
 307              		.size	tty_init, .-tty_init
 308              		.section	.text.get_string,"ax",%progbits
 309              		.align	2
 310              		.global	get_string
 311              		.thumb
 312              		.thumb_func
 313              		.type	get_string, %function
 314              	get_string:
 315              	.LFB76:
 113:tty_utils.c   **** }
 114:tty_utils.c   **** 
 115:tty_utils.c   **** int get_string(void)
 116:tty_utils.c   **** {
 316              		.loc 1 116 0
 317              		.cfi_startproc
 318              		@ args = 0, pretend = 0, frame = 0
 319              		@ frame_needed = 0, uses_anonymous_args = 0
 320              	.LVL28:
 117:tty_utils.c   ****     int result = 0 ;
 118:tty_utils.c   ****     uint8_t c ;
 119:tty_utils.c   ****     
 120:tty_utils.c   ****     if (rx_read_index != rx_write_index) {
 321              		.loc 1 120 0
 322 0000 2D4B     		ldr	r3, .L43
 323 0002 1A68     		ldr	r2, [r3]
 324 0004 5B68     		ldr	r3, [r3, #4]
 325 0006 9A42     		cmp	r2, r3
 326 0008 54D0     		beq	.L34
 116:tty_utils.c   ****     int result = 0 ;
 327              		.loc 1 116 0
 328 000a 10B5     		push	{r4, lr}
 329              		.cfi_def_cfa_offset 8
 330              		.cfi_offset 4, -8
 331              		.cfi_offset 14, -4
 121:tty_utils.c   ****         c = rx_buf[rx_read_index] ;
 332              		.loc 1 121 0
 333 000c 2B4B     		ldr	r3, .L43+4
 334 000e 9C5C     		ldrb	r4, [r3, r2]	@ zero_extendqisi2
ARM GAS  C:\Users\ingan\AppData\Local\Temp\ccS3j9Gb.s 			page 9


 335 0010 E4B2     		uxtb	r4, r4
 336              	.LVL29:
 337              	.LBB10:
 338              	.LBB11:
  28:tty_utils.c   **** }
 339              		.loc 1 28 0
 340 0012 092C     		cmp	r4, #9
 341 0014 07D0     		beq	.L35
 342 0016 202C     		cmp	r4, #32
 343 0018 07D0     		beq	.L36
 344 001a 0D2C     		cmp	r4, #13
 345 001c 07D0     		beq	.L37
 346 001e 0A2C     		cmp	r4, #10
 347 0020 07D1     		bne	.L38
 348 0022 0123     		movs	r3, #1
 349 0024 06E0     		b	.L29
 350              	.L35:
 351 0026 0123     		movs	r3, #1
 352 0028 04E0     		b	.L29
 353              	.L36:
 354 002a 0123     		movs	r3, #1
 355 002c 02E0     		b	.L29
 356              	.L37:
 357 002e 0123     		movs	r3, #1
 358 0030 00E0     		b	.L29
 359              	.L38:
 360 0032 0023     		movs	r3, #0
 361              	.L29:
 362              	.LVL30:
 363              	.LBE11:
 364              	.LBE10:
 122:tty_utils.c   ****         if (is_delimiter(c)) {
 365              		.loc 1 122 0
 366 0034 4BB1     		cbz	r3, .L30
 123:tty_utils.c   ****             printc(c) ;
 367              		.loc 1 123 0
 368 0036 2046     		mov	r0, r4
 369 0038 FFF7FEFF 		bl	printc
 370              	.LVL31:
 124:tty_utils.c   ****             str[str_buf_index] = (char)NULL ;
 371              		.loc 1 124 0
 372 003c 1E4B     		ldr	r3, .L43
 373 003e 9868     		ldr	r0, [r3, #8]
 374 0040 0022     		movs	r2, #0
 375 0042 1F49     		ldr	r1, .L43+8
 376 0044 0A54     		strb	r2, [r1, r0]
 377              	.LVL32:
 125:tty_utils.c   ****             result = str_buf_index ;
 126:tty_utils.c   ****             str_buf_index = 0 ;
 378              		.loc 1 126 0
 379 0046 9A60     		str	r2, [r3, #8]
 380 0048 26E0     		b	.L31
 381              	.LVL33:
 382              	.L30:
 127:tty_utils.c   ****         } else if (is_backspace(c)) {
 383              		.loc 1 127 0
 384 004a 082C     		cmp	r4, #8
ARM GAS  C:\Users\ingan\AppData\Local\Temp\ccS3j9Gb.s 			page 10


 385 004c 0ED1     		bne	.L32
 128:tty_utils.c   ****             if (str_buf_index > 0) {
 386              		.loc 1 128 0
 387 004e 1A4B     		ldr	r3, .L43
 388 0050 9B68     		ldr	r3, [r3, #8]
 389 0052 002B     		cmp	r3, #0
 390 0054 1DDD     		ble	.L39
 129:tty_utils.c   ****                 str_buf_index-- ;
 391              		.loc 1 129 0
 392 0056 013B     		subs	r3, r3, #1
 393 0058 174A     		ldr	r2, .L43
 394 005a 9360     		str	r3, [r2, #8]
 130:tty_utils.c   ****                 str[str_buf_index] = 0 ;
 395              		.loc 1 130 0
 396 005c 0024     		movs	r4, #0
 397              	.LVL34:
 398 005e 184A     		ldr	r2, .L43+8
 399 0060 D454     		strb	r4, [r2, r3]
 131:tty_utils.c   ****                 print("\b \b") ; // BS, SPACE, BS               
 400              		.loc 1 131 0
 401 0062 1848     		ldr	r0, .L43+12
 402 0064 FFF7FEFF 		bl	print
 403              	.LVL35:
 117:tty_utils.c   ****     uint8_t c ;
 404              		.loc 1 117 0
 405 0068 2046     		mov	r0, r4
 406 006a 15E0     		b	.L31
 407              	.LVL36:
 408              	.L32:
 132:tty_utils.c   ****             }
 133:tty_utils.c   ****         } else {
 134:tty_utils.c   ****             printc(c) ;
 409              		.loc 1 134 0
 410 006c 2046     		mov	r0, r4
 411 006e FFF7FEFF 		bl	printc
 412              	.LVL37:
 135:tty_utils.c   ****             str[str_buf_index++] = c ;
 413              		.loc 1 135 0
 414 0072 1149     		ldr	r1, .L43
 415 0074 8A68     		ldr	r2, [r1, #8]
 416 0076 531C     		adds	r3, r2, #1
 417 0078 8B60     		str	r3, [r1, #8]
 418 007a 1149     		ldr	r1, .L43+8
 419 007c 8C54     		strb	r4, [r1, r2]
 136:tty_utils.c   ****             if (str_buf_index >= STR_BUF_LEN) {
 420              		.loc 1 136 0
 421 007e 3F2B     		cmp	r3, #63
 422 0080 09DD     		ble	.L40
 137:tty_utils.c   ****                 str[STR_BUF_LEN] = (char)NULL ;
 423              		.loc 1 137 0
 424 0082 0023     		movs	r3, #0
 425 0084 81F84030 		strb	r3, [r1, #64]
 138:tty_utils.c   ****                 str_buf_index = 0 ;
 426              		.loc 1 138 0
 427 0088 0B4A     		ldr	r2, .L43
 428 008a 9360     		str	r3, [r2, #8]
 429              	.LVL38:
ARM GAS  C:\Users\ingan\AppData\Local\Temp\ccS3j9Gb.s 			page 11


 139:tty_utils.c   ****                 result = -1 ; /* str buf overflow */
 430              		.loc 1 139 0
 431 008c 4FF0FF30 		mov	r0, #-1
 432 0090 02E0     		b	.L31
 433              	.LVL39:
 434              	.L39:
 117:tty_utils.c   ****     uint8_t c ;
 435              		.loc 1 117 0
 436 0092 0020     		movs	r0, #0
 437 0094 00E0     		b	.L31
 438              	.L40:
 439 0096 0020     		movs	r0, #0
 440              	.LVL40:
 441              	.L31:
 140:tty_utils.c   ****             }
 141:tty_utils.c   ****         }
 142:tty_utils.c   ****         rx_read_index = (rx_read_index + 1) % RX_BUF_LEN ;
 442              		.loc 1 142 0
 443 0098 074B     		ldr	r3, .L43
 444 009a 1A68     		ldr	r2, [r3]
 445 009c 0132     		adds	r2, r2, #1
 446 009e 0A4B     		ldr	r3, .L43+16
 447 00a0 1340     		ands	r3, r3, r2
 448 00a2 002B     		cmp	r3, #0
 449 00a4 03DA     		bge	.L33
 450 00a6 013B     		subs	r3, r3, #1
 451 00a8 63F07F03 		orn	r3, r3, #127
 452 00ac 0133     		adds	r3, r3, #1
 453              	.L33:
 454 00ae 024A     		ldr	r2, .L43
 455 00b0 1360     		str	r3, [r2]
 456 00b2 10BD     		pop	{r4, pc}
 457              	.LVL41:
 458              	.L34:
 459              		.cfi_def_cfa_offset 0
 460              		.cfi_restore 4
 461              		.cfi_restore 14
 117:tty_utils.c   ****     uint8_t c ;
 462              		.loc 1 117 0
 463 00b4 0020     		movs	r0, #0
 464 00b6 7047     		bx	lr
 465              	.L44:
 466              		.align	2
 467              	.L43:
 468 00b8 00000000 		.word	.LANCHOR0
 469 00bc 00000000 		.word	rx_buf
 470 00c0 00000000 		.word	str
 471 00c4 34000000 		.word	.LC8
 472 00c8 7F000080 		.word	-2147483521
 473              		.cfi_endproc
 474              	.LFE76:
 475              		.size	get_string, .-get_string
 476              		.section	.text.get_line,"ax",%progbits
 477              		.align	2
 478              		.global	get_line
 479              		.thumb
 480              		.thumb_func
ARM GAS  C:\Users\ingan\AppData\Local\Temp\ccS3j9Gb.s 			page 12


 481              		.type	get_line, %function
 482              	get_line:
 483              	.LFB77:
 143:tty_utils.c   ****     }
 144:tty_utils.c   ****     return( result ) ;
 145:tty_utils.c   **** }
 146:tty_utils.c   **** 
 147:tty_utils.c   **** int get_line(void)
 148:tty_utils.c   **** {
 484              		.loc 1 148 0
 485              		.cfi_startproc
 486              		@ args = 0, pretend = 0, frame = 0
 487              		@ frame_needed = 0, uses_anonymous_args = 0
 488              	.LVL42:
 149:tty_utils.c   ****     int result = 0 ;
 150:tty_utils.c   ****     uint8_t c ;
 151:tty_utils.c   ****     
 152:tty_utils.c   ****     if (rx_read_index != rx_write_index) {
 489              		.loc 1 152 0
 490 0000 294B     		ldr	r3, .L59
 491 0002 1A68     		ldr	r2, [r3]
 492 0004 5B68     		ldr	r3, [r3, #4]
 493 0006 9A42     		cmp	r2, r3
 494 0008 4CD0     		beq	.L52
 148:tty_utils.c   ****     int result = 0 ;
 495              		.loc 1 148 0
 496 000a 10B5     		push	{r4, lr}
 497              		.cfi_def_cfa_offset 8
 498              		.cfi_offset 4, -8
 499              		.cfi_offset 14, -4
 153:tty_utils.c   ****         c = rx_buf[rx_read_index] ;
 500              		.loc 1 153 0
 501 000c 274B     		ldr	r3, .L59+4
 502 000e 9C5C     		ldrb	r4, [r3, r2]	@ zero_extendqisi2
 503 0010 E4B2     		uxtb	r4, r4
 504              	.LVL43:
 505              	.LBB12:
 506              	.LBB13:
  33:tty_utils.c   **** }
 507              		.loc 1 33 0
 508 0012 0D2C     		cmp	r4, #13
 509 0014 03D0     		beq	.L53
 510 0016 0A2C     		cmp	r4, #10
 511 0018 03D1     		bne	.L54
 512 001a 0123     		movs	r3, #1
 513 001c 02E0     		b	.L47
 514              	.L53:
 515 001e 0123     		movs	r3, #1
 516 0020 00E0     		b	.L47
 517              	.L54:
 518 0022 0023     		movs	r3, #0
 519              	.L47:
 520              	.LVL44:
 521              	.LBE13:
 522              	.LBE12:
 154:tty_utils.c   ****         if (is_eol(c)) {
 523              		.loc 1 154 0
ARM GAS  C:\Users\ingan\AppData\Local\Temp\ccS3j9Gb.s 			page 13


 524 0024 4BB1     		cbz	r3, .L48
 155:tty_utils.c   ****             printc(c) ;
 525              		.loc 1 155 0
 526 0026 2046     		mov	r0, r4
 527 0028 FFF7FEFF 		bl	printc
 528              	.LVL45:
 156:tty_utils.c   ****             str[str_buf_index] = (char)NULL ;
 529              		.loc 1 156 0
 530 002c 1E4B     		ldr	r3, .L59
 531 002e 9868     		ldr	r0, [r3, #8]
 532 0030 0022     		movs	r2, #0
 533 0032 1F49     		ldr	r1, .L59+8
 534 0034 0A54     		strb	r2, [r1, r0]
 535              	.LVL46:
 157:tty_utils.c   ****             result = str_buf_index ;
 158:tty_utils.c   ****             str_buf_index = 0 ;
 536              		.loc 1 158 0
 537 0036 9A60     		str	r2, [r3, #8]
 538 0038 26E0     		b	.L49
 539              	.LVL47:
 540              	.L48:
 159:tty_utils.c   ****         } else if (is_backspace(c)) {
 541              		.loc 1 159 0
 542 003a 082C     		cmp	r4, #8
 543 003c 0ED1     		bne	.L50
 160:tty_utils.c   ****             if (str_buf_index > 0) {
 544              		.loc 1 160 0
 545 003e 1A4B     		ldr	r3, .L59
 546 0040 9B68     		ldr	r3, [r3, #8]
 547 0042 002B     		cmp	r3, #0
 548 0044 1DDD     		ble	.L55
 161:tty_utils.c   ****                 str_buf_index-- ;
 549              		.loc 1 161 0
 550 0046 013B     		subs	r3, r3, #1
 551 0048 174A     		ldr	r2, .L59
 552 004a 9360     		str	r3, [r2, #8]
 162:tty_utils.c   ****                 str[str_buf_index] = 0 ;
 553              		.loc 1 162 0
 554 004c 0024     		movs	r4, #0
 555              	.LVL48:
 556 004e 184A     		ldr	r2, .L59+8
 557 0050 D454     		strb	r4, [r2, r3]
 163:tty_utils.c   ****                 print("\b \b") ;
 558              		.loc 1 163 0
 559 0052 1848     		ldr	r0, .L59+12
 560 0054 FFF7FEFF 		bl	print
 561              	.LVL49:
 149:tty_utils.c   ****     uint8_t c ;
 562              		.loc 1 149 0
 563 0058 2046     		mov	r0, r4
 564 005a 15E0     		b	.L49
 565              	.LVL50:
 566              	.L50:
 164:tty_utils.c   ****             }
 165:tty_utils.c   ****         } else {
 166:tty_utils.c   ****             printc(c) ;
 567              		.loc 1 166 0
ARM GAS  C:\Users\ingan\AppData\Local\Temp\ccS3j9Gb.s 			page 14


 568 005c 2046     		mov	r0, r4
 569 005e FFF7FEFF 		bl	printc
 570              	.LVL51:
 167:tty_utils.c   ****             str[str_buf_index++] = c ;
 571              		.loc 1 167 0
 572 0062 1149     		ldr	r1, .L59
 573 0064 8A68     		ldr	r2, [r1, #8]
 574 0066 531C     		adds	r3, r2, #1
 575 0068 8B60     		str	r3, [r1, #8]
 576 006a 1149     		ldr	r1, .L59+8
 577 006c 8C54     		strb	r4, [r1, r2]
 168:tty_utils.c   ****             if (str_buf_index >= STR_BUF_LEN) {
 578              		.loc 1 168 0
 579 006e 3F2B     		cmp	r3, #63
 580 0070 09DD     		ble	.L56
 169:tty_utils.c   ****                 str[STR_BUF_LEN] = (char)NULL ;
 581              		.loc 1 169 0
 582 0072 0023     		movs	r3, #0
 583 0074 81F84030 		strb	r3, [r1, #64]
 170:tty_utils.c   ****                 str_buf_index = 0 ;
 584              		.loc 1 170 0
 585 0078 0B4A     		ldr	r2, .L59
 586 007a 9360     		str	r3, [r2, #8]
 587              	.LVL52:
 171:tty_utils.c   ****                 result = -1 ; /* str buf overflow */
 588              		.loc 1 171 0
 589 007c 4FF0FF30 		mov	r0, #-1
 590 0080 02E0     		b	.L49
 591              	.LVL53:
 592              	.L55:
 149:tty_utils.c   ****     uint8_t c ;
 593              		.loc 1 149 0
 594 0082 0020     		movs	r0, #0
 595 0084 00E0     		b	.L49
 596              	.L56:
 597 0086 0020     		movs	r0, #0
 598              	.LVL54:
 599              	.L49:
 172:tty_utils.c   ****             }
 173:tty_utils.c   ****         }
 174:tty_utils.c   ****         rx_read_index = (rx_read_index + 1) % RX_BUF_LEN ;
 600              		.loc 1 174 0
 601 0088 074B     		ldr	r3, .L59
 602 008a 1A68     		ldr	r2, [r3]
 603 008c 0132     		adds	r2, r2, #1
 604 008e 0A4B     		ldr	r3, .L59+16
 605 0090 1340     		ands	r3, r3, r2
 606 0092 002B     		cmp	r3, #0
 607 0094 03DA     		bge	.L51
 608 0096 013B     		subs	r3, r3, #1
 609 0098 63F07F03 		orn	r3, r3, #127
 610 009c 0133     		adds	r3, r3, #1
 611              	.L51:
 612 009e 024A     		ldr	r2, .L59
 613 00a0 1360     		str	r3, [r2]
 614 00a2 10BD     		pop	{r4, pc}
 615              	.LVL55:
ARM GAS  C:\Users\ingan\AppData\Local\Temp\ccS3j9Gb.s 			page 15


 616              	.L52:
 617              		.cfi_def_cfa_offset 0
 618              		.cfi_restore 4
 619              		.cfi_restore 14
 149:tty_utils.c   ****     uint8_t c ;
 620              		.loc 1 149 0
 621 00a4 0020     		movs	r0, #0
 622 00a6 7047     		bx	lr
 623              	.L60:
 624              		.align	2
 625              	.L59:
 626 00a8 00000000 		.word	.LANCHOR0
 627 00ac 00000000 		.word	rx_buf
 628 00b0 00000000 		.word	str
 629 00b4 34000000 		.word	.LC8
 630 00b8 7F000080 		.word	-2147483521
 631              		.cfi_endproc
 632              	.LFE77:
 633              		.size	get_line, .-get_line
 634              		.section	.text.write_to_rx_buffer,"ax",%progbits
 635              		.align	2
 636              		.global	write_to_rx_buffer
 637              		.thumb
 638              		.thumb_func
 639              		.type	write_to_rx_buffer, %function
 640              	write_to_rx_buffer:
 641              	.LFB78:
 175:tty_utils.c   ****     }
 176:tty_utils.c   ****     return( result ) ;
 177:tty_utils.c   **** }
 178:tty_utils.c   **** 
 179:tty_utils.c   **** // Write to rx buffer call back function for usbuart
 180:tty_utils.c   **** void write_to_rx_buffer(uint8_t *buffer)
 181:tty_utils.c   **** {
 642              		.loc 1 181 0
 643              		.cfi_startproc
 644              		@ args = 0, pretend = 0, frame = 0
 645              		@ frame_needed = 0, uses_anonymous_args = 0
 646              		@ link register save eliminated.
 647              	.LVL56:
 182:tty_utils.c   ****     rx_buf[rx_write_index] = *buffer;
 648              		.loc 1 182 0
 649 0000 084B     		ldr	r3, .L63
 650 0002 5A68     		ldr	r2, [r3, #4]
 651 0004 0078     		ldrb	r0, [r0]	@ zero_extendqisi2
 652              	.LVL57:
 653 0006 0849     		ldr	r1, .L63+4
 654 0008 8854     		strb	r0, [r1, r2]
 183:tty_utils.c   ****     rx_write_index = (rx_write_index + 1) % RX_BUF_LEN ;
 655              		.loc 1 183 0
 656 000a 5A68     		ldr	r2, [r3, #4]
 657 000c 0132     		adds	r2, r2, #1
 658 000e 074B     		ldr	r3, .L63+8
 659 0010 1340     		ands	r3, r3, r2
 660 0012 002B     		cmp	r3, #0
 661 0014 03DA     		bge	.L62
 662 0016 013B     		subs	r3, r3, #1
ARM GAS  C:\Users\ingan\AppData\Local\Temp\ccS3j9Gb.s 			page 16


 663 0018 63F07F03 		orn	r3, r3, #127
 664 001c 0133     		adds	r3, r3, #1
 665              	.L62:
 666 001e 014A     		ldr	r2, .L63
 667 0020 5360     		str	r3, [r2, #4]
 668 0022 7047     		bx	lr
 669              	.L64:
 670              		.align	2
 671              	.L63:
 672 0024 00000000 		.word	.LANCHOR0
 673 0028 00000000 		.word	rx_buf
 674 002c 7F000080 		.word	-2147483521
 675              		.cfi_endproc
 676              	.LFE78:
 677              		.size	write_to_rx_buffer, .-write_to_rx_buffer
 678              		.comm	str,65,4
 679              		.global	str_buf_index
 680              		.global	rx_read_index
 681              		.global	rx_write_index
 682              		.comm	rx_buf,128,4
 683              		.section	.rodata.str1.4,"aMS",%progbits,1
 684              		.align	2
 685              	.LC0:
 686 0000 1B6300   		.ascii	"\033c\000"
 687 0003 00       		.space	1
 688              	.LC1:
 689 0004 1B5B324A 		.ascii	"\033[2J\000"
 689      00
 690 0009 000000   		.space	3
 691              	.LC2:
 692 000c 202800   		.ascii	" (\000"
 693 000f 00       		.space	1
 694              	.LC3:
 695 0010 4E6F7620 		.ascii	"Nov 29 2023\000"
 695      32392032 
 695      30323300 
 696              	.LC4:
 697 001c 2000     		.ascii	" \000"
 698 001e 0000     		.space	2
 699              	.LC5:
 700 0020 31383A31 		.ascii	"18:19:18\000"
 700      393A3138 
 700      00
 701 0029 000000   		.space	3
 702              	.LC6:
 703 002c 290A00   		.ascii	")\012\000"
 704 002f 00       		.space	1
 705              	.LC7:
 706 0030 3E2000   		.ascii	"> \000"
 707 0033 00       		.space	1
 708              	.LC8:
 709 0034 08200800 		.ascii	"\010 \010\000"
 710              		.bss
 711              		.align	2
 712              		.set	.LANCHOR0,. + 0
 713              		.type	rx_read_index, %object
 714              		.size	rx_read_index, 4
ARM GAS  C:\Users\ingan\AppData\Local\Temp\ccS3j9Gb.s 			page 17


 715              	rx_read_index:
 716 0000 00000000 		.space	4
 717              		.type	rx_write_index, %object
 718              		.size	rx_write_index, 4
 719              	rx_write_index:
 720 0004 00000000 		.space	4
 721              		.type	str_buf_index, %object
 722              		.size	str_buf_index, 4
 723              	str_buf_index:
 724 0008 00000000 		.space	4
 725              		.text
 726              	.Letext0:
 727              		.file 2 "c:\\program files (x86)\\cypress\\psoc creator\\4.2\\psoc creator\\import\\gnu\\arm\\5.4.
 728              		.file 3 "c:\\program files (x86)\\cypress\\psoc creator\\4.2\\psoc creator\\import\\gnu\\arm\\5.4.
 729              		.file 4 "Generated_Source\\PSoC5/core_cm3.h"
 730              		.file 5 "usb_uart.h"
 731              		.file 6 "Generated_Source\\PSoC5/CyLib.h"