ARM GAS  C:\Users\ingan\AppData\Local\Temp\ccBvtOnT.s 			page 1


   1              		.syntax unified
   2              		.cpu cortex-m3
   3              		.fpu softvfp
   4              		.eabi_attribute 20, 1
   5              		.eabi_attribute 21, 1
   6              		.eabi_attribute 23, 3
   7              		.eabi_attribute 24, 1
   8              		.eabi_attribute 25, 1
   9              		.eabi_attribute 26, 1
  10              		.eabi_attribute 30, 1
  11              		.eabi_attribute 34, 1
  12              		.eabi_attribute 18, 4
  13              		.thumb
  14              		.syntax unified
  15              		.file	"func_list.c"
  16              		.text
  17              	.Ltext0:
  18              		.cfi_sections	.debug_frame
  19              		.section	.text.get_func,"ax",%progbits
  20              		.align	2
  21              		.global	get_func
  22              		.thumb
  23              		.thumb_func
  24              		.type	get_func, %function
  25              	get_func:
  26              	.LFB64:
  27              		.file 1 "func_list.c"
   1:func_list.c   **** #include "project.h"
   2:func_list.c   **** #include "stdio.h"
   3:func_list.c   **** #include "tty_utils.h"
   4:func_list.c   **** #include "func_list.h"
   5:func_list.c   **** 
   6:func_list.c   **** func_ptr get_func(f_list_type *list, char *str)
   7:func_list.c   **** {
  28              		.loc 1 7 0
  29              		.cfi_startproc
  30              		@ args = 0, pretend = 0, frame = 24
  31              		@ frame_needed = 0, uses_anonymous_args = 0
  32              	.LVL0:
  33 0000 70B5     		push	{r4, r5, r6, lr}
  34              		.cfi_def_cfa_offset 16
  35              		.cfi_offset 4, -16
  36              		.cfi_offset 5, -12
  37              		.cfi_offset 6, -8
  38              		.cfi_offset 14, -4
  39 0002 86B0     		sub	sp, sp, #24
  40              		.cfi_def_cfa_offset 40
  41 0004 0546     		mov	r5, r0
  42 0006 0846     		mov	r0, r1
  43              	.LVL1:
   8:func_list.c   ****     int      i ;
   9:func_list.c   ****     func_ptr ptr = 0 ;
  10:func_list.c   ****     char cmd[CMD_LENGTH+1] ;
  11:func_list.c   ****     
  12:func_list.c   ****     sscanf(str, "%s", cmd) ;
  44              		.loc 1 12 0
  45 0008 01AA     		add	r2, sp, #4
ARM GAS  C:\Users\ingan\AppData\Local\Temp\ccBvtOnT.s 			page 2


  46 000a 0A49     		ldr	r1, .L6
  47              	.LVL2:
  48 000c FFF7FEFF 		bl	sscanf
  49              	.LVL3:
  13:func_list.c   ****     for (i = 0 ; list[i].name ; i++ ) {
  50              		.loc 1 13 0
  51 0010 0024     		movs	r4, #0
  52 0012 04E0     		b	.L2
  53              	.LVL4:
  54              	.L4:
  14:func_list.c   ****         if (strcmp(list[i].name, cmd) == 0) {
  55              		.loc 1 14 0
  56 0014 01A9     		add	r1, sp, #4
  57 0016 FFF7FEFF 		bl	strcmp
  58              	.LVL5:
  59 001a 38B1     		cbz	r0, .L3
  13:func_list.c   ****     for (i = 0 ; list[i].name ; i++ ) {
  60              		.loc 1 13 0 discriminator 2
  61 001c 0134     		adds	r4, r4, #1
  62              	.LVL6:
  63              	.L2:
  13:func_list.c   ****     for (i = 0 ; list[i].name ; i++ ) {
  64              		.loc 1 13 0 is_stmt 0 discriminator 1
  65 001e 04EB4402 		add	r2, r4, r4, lsl #1
  66 0022 9300     		lsls	r3, r2, #2
  67 0024 EE18     		adds	r6, r5, r3
  68 0026 E858     		ldr	r0, [r5, r3]
  69 0028 0028     		cmp	r0, #0
  70 002a F3D1     		bne	.L4
  71              	.L3:
  72              	.LVL7:
  15:func_list.c   ****             break ;
  16:func_list.c   ****         }
  17:func_list.c   ****     }
  18:func_list.c   ****     ptr = list[i].func ;
  19:func_list.c   ****     
  20:func_list.c   ****     return( ptr ) ;
  21:func_list.c   **** }
  73              		.loc 1 21 0 is_stmt 1
  74 002c 7068     		ldr	r0, [r6, #4]
  75 002e 06B0     		add	sp, sp, #24
  76              		.cfi_def_cfa_offset 16
  77              		@ sp needed
  78 0030 70BD     		pop	{r4, r5, r6, pc}
  79              	.LVL8:
  80              	.L7:
  81 0032 00BF     		.align	2
  82              	.L6:
  83 0034 00000000 		.word	.LC0
  84              		.cfi_endproc
  85              	.LFE64:
  86              		.size	get_func, .-get_func
  87              		.section	.text.show_help,"ax",%progbits
  88              		.align	2
  89              		.global	show_help
  90              		.thumb
  91              		.thumb_func
ARM GAS  C:\Users\ingan\AppData\Local\Temp\ccBvtOnT.s 			page 3


  92              		.type	show_help, %function
  93              	show_help:
  94              	.LFB65:
  22:func_list.c   **** 
  23:func_list.c   **** void show_help(f_list_type *list)
  24:func_list.c   **** {
  95              		.loc 1 24 0
  96              		.cfi_startproc
  97              		@ args = 0, pretend = 0, frame = 0
  98              		@ frame_needed = 0, uses_anonymous_args = 0
  99              	.LVL9:
 100 0000 70B5     		push	{r4, r5, r6, lr}
 101              		.cfi_def_cfa_offset 16
 102              		.cfi_offset 4, -16
 103              		.cfi_offset 5, -12
 104              		.cfi_offset 6, -8
 105              		.cfi_offset 14, -4
 106 0002 0546     		mov	r5, r0
  25:func_list.c   ****     int i ;
  26:func_list.c   ****     
  27:func_list.c   ****     print("=== command ===\n\r") ;
 107              		.loc 1 27 0
 108 0004 0D48     		ldr	r0, .L12
 109              	.LVL10:
 110 0006 FFF7FEFF 		bl	print
 111              	.LVL11:
  28:func_list.c   ****     for (i = 0 ; list[i].name ; i++ ) {
 112              		.loc 1 28 0
 113 000a 0024     		movs	r4, #0
 114 000c 0BE0     		b	.L9
 115              	.LVL12:
 116              	.L10:
  29:func_list.c   ****         print(list[i].name) ;
 117              		.loc 1 29 0 discriminator 3
 118 000e FFF7FEFF 		bl	print
 119              	.LVL13:
  30:func_list.c   ****         print(" : ") ;
 120              		.loc 1 30 0 discriminator 3
 121 0012 0B48     		ldr	r0, .L12+4
 122 0014 FFF7FEFF 		bl	print
 123              	.LVL14:
  31:func_list.c   ****         print(list[i].description) ;
 124              		.loc 1 31 0 discriminator 3
 125 0018 B068     		ldr	r0, [r6, #8]
 126 001a FFF7FEFF 		bl	print
 127              	.LVL15:
  32:func_list.c   ****         print("\n\r") ;
 128              		.loc 1 32 0 discriminator 3
 129 001e 0948     		ldr	r0, .L12+8
 130 0020 FFF7FEFF 		bl	print
 131              	.LVL16:
  28:func_list.c   ****         print(list[i].name) ;
 132              		.loc 1 28 0 discriminator 3
 133 0024 0134     		adds	r4, r4, #1
 134              	.LVL17:
 135              	.L9:
  28:func_list.c   ****         print(list[i].name) ;
ARM GAS  C:\Users\ingan\AppData\Local\Temp\ccBvtOnT.s 			page 4


 136              		.loc 1 28 0 is_stmt 0 discriminator 1
 137 0026 04EB4402 		add	r2, r4, r4, lsl #1
 138 002a 9300     		lsls	r3, r2, #2
 139 002c EE18     		adds	r6, r5, r3
 140 002e E858     		ldr	r0, [r5, r3]
 141 0030 0028     		cmp	r0, #0
 142 0032 ECD1     		bne	.L10
  33:func_list.c   ****     }
  34:func_list.c   ****     print("===============\n\r") ;    
 143              		.loc 1 34 0 is_stmt 1
 144 0034 0448     		ldr	r0, .L12+12
 145 0036 FFF7FEFF 		bl	print
 146              	.LVL18:
 147 003a 70BD     		pop	{r4, r5, r6, pc}
 148              	.LVL19:
 149              	.L13:
 150              		.align	2
 151              	.L12:
 152 003c 04000000 		.word	.LC1
 153 0040 18000000 		.word	.LC2
 154 0044 1C000000 		.word	.LC3
 155 0048 20000000 		.word	.LC4
 156              		.cfi_endproc
 157              	.LFE65:
 158              		.size	show_help, .-show_help
 159              		.section	.rodata.str1.4,"aMS",%progbits,1
 160              		.align	2
 161              	.LC0:
 162 0000 257300   		.ascii	"%s\000"
 163 0003 00       		.space	1
 164              	.LC1:
 165 0004 3D3D3D20 		.ascii	"=== command ===\012\015\000"
 165      636F6D6D 
 165      616E6420 
 165      3D3D3D0A 
 165      0D00
 166 0016 0000     		.space	2
 167              	.LC2:
 168 0018 203A2000 		.ascii	" : \000"
 169              	.LC3:
 170 001c 0A0D00   		.ascii	"\012\015\000"
 171 001f 00       		.space	1
 172              	.LC4:
 173 0020 3D3D3D3D 		.ascii	"===============\012\015\000"
 173      3D3D3D3D 
 173      3D3D3D3D 
 173      3D3D3D0A 
 173      0D00
 174              		.text
 175              	.Letext0:
 176              		.file 2 "c:\\program files (x86)\\cypress\\psoc creator\\4.2\\psoc creator\\import\\gnu\\arm\\5.4.
 177              		.file 3 "c:\\program files (x86)\\cypress\\psoc creator\\4.2\\psoc creator\\import\\gnu\\arm\\5.4.
 178              		.file 4 "func_list.h"
 179              		.file 5 "c:\\program files (x86)\\cypress\\psoc creator\\4.2\\psoc creator\\import\\gnu\\arm\\5.4.
 180              		.file 6 "c:\\program files (x86)\\cypress\\psoc creator\\4.2\\psoc creator\\import\\gnu\\arm\\5.4.
 181              		.file 7 "tty_utils.h"
 182              		.file 8 "Generated_Source\\PSoC5/core_cm3.h"
ARM GAS  C:\Users\ingan\AppData\Local\Temp\ccBvtOnT.s 			page 5

