ARM GAS  C:\Users\ingan\AppData\Local\Temp\ccvIVUx2.s 			page 1


   1              		.syntax unified
   2              		.cpu cortex-m3
   3              		.fpu softvfp
   4              		.eabi_attribute 20, 1
   5              		.eabi_attribute 21, 1
   6              		.eabi_attribute 23, 3
   7              		.eabi_attribute 24, 1
   8              		.eabi_attribute 25, 1
   9              		.eabi_attribute 26, 1
  10              		.eabi_attribute 30, 1
  11              		.eabi_attribute 34, 1
  12              		.eabi_attribute 18, 4
  13              		.thumb
  14              		.syntax unified
  15              		.file	"main.c"
  16              		.text
  17              	.Ltext0:
  18              		.cfi_sections	.debug_frame
  19              		.section	.text.sampleRateIRQ,"ax",%progbits
  20              		.align	2
  21              		.global	sampleRateIRQ
  22              		.thumb
  23              		.thumb_func
  24              		.type	sampleRateIRQ, %function
  25              	sampleRateIRQ:
  26              	.LFB64:
  27              		.file 1 "main.c"
   1:main.c        **** /* ========================================
   2:main.c        ****  *
   3:main.c        ****  * Copyright YOUR COMPANY, THE YEAR
   4:main.c        ****  * All Rights Reserved
   5:main.c        ****  * UNPUBLISHED, LICENSED SOFTWARE.
   6:main.c        ****  *
   7:main.c        ****  * CONFIDENTIAL AND PROPRIETARY INFORMATION
   8:main.c        ****  * WHICH IS THE PROPERTY OF your company.
   9:main.c        ****  *
  10:main.c        ****  * ========================================
  11:main.c        **** */
  12:main.c        **** #include "project.h"
  13:main.c        **** #include "stdio.h"
  14:main.c        **** #include "tty_utils.h"
  15:main.c        **** #include "utils.h"
  16:main.c        **** #include "usb_uart.h"
  17:main.c        **** 
  18:main.c        **** #define BUF_CMDS    2
  19:main.c        **** //#define SYSTICK_MAXVAL 0x00FFFFFF //max allowed SysTick counter value for 24bit
  20:main.c        **** #define GET16(x) *x + (*(x+1) << 8);
  21:main.c        **** #define GPIO_CLEAR(pin) pin##_DR &= ~pin##_MASK; \
  22:main.c        ****     volatile_reg_val_0 = pin##_DR
  23:main.c        **** #define GPIO_SET(pin) pin##_DR |= pin##_MASK; \
  24:main.c        ****     volatile_reg_val_1 = pin##_DR;
  25:main.c        **** #define FILL_CURRENT_BUF(i) bufPtr = buffer[i]; \
  26:main.c        ****     while (!rx_flag); \
  27:main.c        ****     count_incoming = USBUART_GetAll(bufPtr); \
  28:main.c        ****     count_vgm = count_incoming; \
  29:main.c        ****     rx_flag = 0
  30:main.c        **** 
ARM GAS  C:\Users\ingan\AppData\Local\Temp\ccvIVUx2.s 			page 2


  31:main.c        **** extern uint8_t rx_flag;
  32:main.c        **** //extern uint16_t count;
  33:main.c        **** //extern uint8_t goFlag;
  34:main.c        **** uint8_t buffer[BUF_CMDS][USBUART_BUFFER_SIZE];
  35:main.c        **** uint8_t isrFlag = 0;
  36:main.c        **** 
  37:main.c        **** volatile uint32 volatile_reg_val_1;
  38:main.c        **** volatile uint32 volatile_reg_val_0;
  39:main.c        **** 
  40:main.c        **** void ym2612_write_step (uint8_t data);
  41:main.c        **** void ym2612_write(uint8_t reg, uint8_t data, uint8_t port);
  42:main.c        **** void sn76489_write(uint8_t data);
  43:main.c        **** void ym2612_reset();
  44:main.c        **** void ym2612_init (void);
  45:main.c        **** void SilenceAllChannels();
  46:main.c        **** void init_hardware(void);
  47:main.c        **** 
  48:main.c        **** CY_ISR(sampleRateIRQ){
  28              		.loc 1 48 0
  29              		.cfi_startproc
  30              		@ args = 0, pretend = 0, frame = 0
  31              		@ frame_needed = 0, uses_anonymous_args = 0
  32              		@ link register save eliminated.
  49:main.c        ****     isrFlag = 1;
  33              		.loc 1 49 0
  34 0000 0122     		movs	r2, #1
  35 0002 014B     		ldr	r3, .L2
  36 0004 1A70     		strb	r2, [r3]
  37 0006 7047     		bx	lr
  38              	.L3:
  39              		.align	2
  40              	.L2:
  41 0008 00000000 		.word	.LANCHOR0
  42              		.cfi_endproc
  43              	.LFE64:
  44              		.size	sampleRateIRQ, .-sampleRateIRQ
  45              		.section	.text.ym2612_write_step,"ax",%progbits
  46              		.align	2
  47              		.global	ym2612_write_step
  48              		.thumb
  49              		.thumb_func
  50              		.type	ym2612_write_step, %function
  51              	ym2612_write_step:
  52              	.LFB67:
  50:main.c        **** }
  51:main.c        **** 
  52:main.c        **** int main(void) {
  53:main.c        **** 
  54:main.c        ****     uint8_t* bufPtr;
  55:main.c        ****     uint8_t* VGMPtr;
  56:main.c        ****     uint8_t i = 0, j = 0, k = 0;
  57:main.c        ****     uint16_t WaitTime = 0;
  58:main.c        ****     //uint32_t test = 0;
  59:main.c        ****     uint8_t noWait = 0;
  60:main.c        ****     //uint8_t count_vgm[BUF_CMDS];
  61:main.c        ****     uint8_t count_incoming[BUF_CMDS];
  62:main.c        ****     uint8_t incomingFlag = 0;
ARM GAS  C:\Users\ingan\AppData\Local\Temp\ccvIVUx2.s 			page 3


  63:main.c        ****     //uint32 SysCntVal; // The value of SysTick counter
  64:main.c        ****     
  65:main.c        ****     init_hardware();
  66:main.c        ****     isr_1_StartEx(sampleRateIRQ);
  67:main.c        ****     //splash("USBFS-UART demo") ;
  68:main.c        ****     //cls();
  69:main.c        ****     //print("\033c") ; /* reset */
  70:main.c        ****     //CyDelay(20) ;
  71:main.c        ****     while (0u == USBUART_CDCIsReady())
  72:main.c        ****     {
  73:main.c        ****     }
  74:main.c        ****     USBUART_PutString("\0");
  75:main.c        ****     // fill buffers
  76:main.c        ****     for (k = 0; k < BUF_CMDS; k++)
  77:main.c        ****     {
  78:main.c        ****         bufPtr = buffer[k];
  79:main.c        ****         while (!rx_flag);
  80:main.c        ****         count_incoming[k] = USBUART_GetAll(bufPtr);
  81:main.c        ****         //count_vgm = count_incoming;
  82:main.c        ****         rx_flag = 0;
  83:main.c        ****     }
  84:main.c        **** 
  85:main.c        ****     i = 0; // start playback from 1st buffer
  86:main.c        ****     bufPtr = buffer[0];
  87:main.c        ****     VGMPtr = buffer[0];
  88:main.c        ****     
  89:main.c        ****     for(;;)
  90:main.c        ****     { 
  91:main.c        ****         if (isrFlag == 1)
  92:main.c        ****         {
  93:main.c        ****             if (WaitTime != 0)
  94:main.c        ****             {
  95:main.c        ****                 WaitTime--;
  96:main.c        ****                 isrFlag = 0;
  97:main.c        ****                 continue;
  98:main.c        ****             }
  99:main.c        ****             
 100:main.c        ****             switch (VGMPtr[j]) // VGM commands parsing
 101:main.c        ****             {
 102:main.c        ****             case 0x4F:
 103:main.c        ****                 j += 2;
 104:main.c        ****                 break;
 105:main.c        **** 
 106:main.c        ****             case 0x50:
 107:main.c        ****                 sn76489_write(VGMPtr[j + 1]);
 108:main.c        ****                 j += 2;            
 109:main.c        ****                 WaitTime = 0;
 110:main.c        ****                 break;
 111:main.c        **** 
 112:main.c        ****             case 0x52:
 113:main.c        ****             case 0x53:
 114:main.c        ****                 ym2612_write(VGMPtr[j + 1], VGMPtr[j + 2], VGMPtr[j] & 0x01);
 115:main.c        ****                 j += 3;
 116:main.c        ****                 WaitTime = 0;
 117:main.c        ****                 break;
 118:main.c        **** 
 119:main.c        ****             case 0x61:
ARM GAS  C:\Users\ingan\AppData\Local\Temp\ccvIVUx2.s 			page 4


 120:main.c        ****                 WaitTime = GET16(&VGMPtr[j + 1]);
 121:main.c        ****                 j += 3;
 122:main.c        ****                 if (WaitTime == 0)
 123:main.c        ****                 {
 124:main.c        ****                     noWait = 1;
 125:main.c        ****                 }
 126:main.c        ****                 else
 127:main.c        ****                 {
 128:main.c        ****                     WaitTime--;    
 129:main.c        ****                 }
 130:main.c        ****                 break;
 131:main.c        ****             
 132:main.c        ****             case 0x62:
 133:main.c        ****                 j++;
 134:main.c        ****                 WaitTime = 735 - 1;
 135:main.c        ****                 break;
 136:main.c        **** 
 137:main.c        ****             case 0x63:
 138:main.c        ****                 j++;
 139:main.c        ****                 WaitTime = 882 - 1;
 140:main.c        ****                 break;
 141:main.c        **** 
 142:main.c        ****             case 0x70:
 143:main.c        ****             case 0x71:
 144:main.c        ****             case 0x72:
 145:main.c        ****             case 0x73:
 146:main.c        ****             case 0x74:
 147:main.c        ****             case 0x75:
 148:main.c        ****             case 0x76:
 149:main.c        ****             case 0x77:
 150:main.c        ****             case 0x78:
 151:main.c        ****             case 0x79:
 152:main.c        ****             case 0x7A:
 153:main.c        ****             case 0x7B:
 154:main.c        ****             case 0x7C:
 155:main.c        ****             case 0x7D:
 156:main.c        ****             case 0x7E:
 157:main.c        ****             case 0x7F:
 158:main.c        ****                 // WARNING: this is different from VGM specs
 159:main.c        ****                 WaitTime = (VGMPtr[j] & 0x0F);
 160:main.c        ****                 j++;
 161:main.c        ****                 if (WaitTime == 0)
 162:main.c        ****                 {
 163:main.c        ****                     noWait = 1;
 164:main.c        ****                 }
 165:main.c        ****                 else
 166:main.c        ****                 {
 167:main.c        ****                     WaitTime--;    
 168:main.c        ****                 }
 169:main.c        ****                 break;
 170:main.c        ****             
 171:main.c        ****             case 0x80:
 172:main.c        ****             case 0x81:
 173:main.c        ****             case 0x82:
 174:main.c        ****             case 0x83:
 175:main.c        ****             case 0x84:
 176:main.c        ****             case 0x85:
ARM GAS  C:\Users\ingan\AppData\Local\Temp\ccvIVUx2.s 			page 5


 177:main.c        ****             case 0x86:
 178:main.c        ****             case 0x87:
 179:main.c        ****             case 0x88:
 180:main.c        ****             case 0x89:
 181:main.c        ****             case 0x8A:
 182:main.c        ****             case 0x8B:
 183:main.c        ****             case 0x8C:
 184:main.c        ****             case 0x8D:
 185:main.c        ****             case 0x8E:
 186:main.c        ****             case 0x8F:
 187:main.c        ****                 //SysTick_Config(SYSTICK_MAXVAL); //reset counter set to max value, 1-time, will no
 188:main.c        ****                 ym2612_write(0x2a, VGMPtr[j + 1], 0x00);
 189:main.c        ****                 //SysCntVal = SYSTICK_MAXVAL - (SysTick->VAL); //get elapsed ticks (min offset 3 ti
 190:main.c        ****                 WaitTime = VGMPtr[j] & 0x0F;
 191:main.c        ****                 j += 2;
 192:main.c        ****                 
 193:main.c        ****                 if (WaitTime == 0)
 194:main.c        ****                 {
 195:main.c        ****                     noWait = 1;
 196:main.c        ****                 }
 197:main.c        ****                 else
 198:main.c        ****                 {
 199:main.c        ****                     WaitTime--;    
 200:main.c        ****                 }
 201:main.c        ****                 /*
 202:main.c        ****                 if (WaitTime == 0 || WaitTime == 1)
 203:main.c        ****                 {
 204:main.c        ****                     WaitTime = 0;
 205:main.c        ****                 }
 206:main.c        ****                 else
 207:main.c        ****                 {
 208:main.c        ****                     WaitTime--;
 209:main.c        ****                 }
 210:main.c        ****                 noWait = 1;*/
 211:main.c        ****                 break;
 212:main.c        **** 
 213:main.c        ****             case 11:
 214:main.c        ****                 SilenceAllChannels();
 215:main.c        ****                 break;
 216:main.c        ****                        
 217:main.c        ****             default:
 218:main.c        ****                 break;
 219:main.c        ****             }
 220:main.c        ****             
 221:main.c        ****             if (incomingFlag == 1)
 222:main.c        ****             {
 223:main.c        ****                 if (USBUART_OUT_BUFFER_FULL != USBUART_GetEPState(3))
 224:main.c        ****                 {
 225:main.c        ****                     USBUART_EnableOutEP(3);
 226:main.c        ****                     incomingFlag = 0;
 227:main.c        ****                 }
 228:main.c        ****             }
 229:main.c        ****             
 230:main.c        ****             // buffer end
 231:main.c        ****             if (j >= count_incoming[i] - 1)
 232:main.c        ****             {   
 233:main.c        ****                 VGMPtr = buffer[(i + 1) % BUF_CMDS]; // change buffer and...
ARM GAS  C:\Users\ingan\AppData\Local\Temp\ccvIVUx2.s 			page 6


 234:main.c        ****                 // ... get incoming data from USB
 235:main.c        ****                 while (!rx_flag);
 236:main.c        ****                 //count_vgm = count_incoming;
 237:main.c        ****                 //count_incoming = USBUART_GetAll(bufPtr);
 238:main.c        ****                 count_incoming[i] = USBUART_ReadOutEP(3, bufPtr, 64);
 239:main.c        ****                 incomingFlag = 1;
 240:main.c        ****                 rx_flag = 0;
 241:main.c        ****                 bufPtr = VGMPtr;
 242:main.c        ****                 i = (i + 1) % BUF_CMDS;
 243:main.c        ****                 j = 0;
 244:main.c        ****                 /*
 245:main.c        ****                 VGMPtr = buffer[(i + 1) % 2]; // change buffer and...
 246:main.c        ****                 // ... get incoming data from USB
 247:main.c        ****                 while (!rx_flag);
 248:main.c        ****                 count_vgm = count_incoming;
 249:main.c        ****                 count_incoming = USBUART_GetAll(bufPtr);
 250:main.c        ****                 rx_flag = 0;
 251:main.c        ****                 i = (i + 1) % 2;
 252:main.c        ****                 bufPtr = buffer[i];
 253:main.c        ****                 j = 0;
 254:main.c        ****                 */
 255:main.c        ****             }
 256:main.c        ****             
 257:main.c        ****             if (noWait == 1)
 258:main.c        ****             {
 259:main.c        ****                 noWait = 0;
 260:main.c        ****             }
 261:main.c        ****             else
 262:main.c        ****             {
 263:main.c        ****                 isrFlag = 0;
 264:main.c        ****             }
 265:main.c        ****         }
 266:main.c        ****     }  
 267:main.c        **** }
 268:main.c        **** 
 269:main.c        **** void init_hardware(void) 
 270:main.c        **** {
 271:main.c        ****     SilenceAllChannels();
 272:main.c        ****     CyGlobalIntEnable; /* Enable global interrupts. */
 273:main.c        **** 
 274:main.c        ****     tty_init() ;
 275:main.c        **** }
 276:main.c        **** 
 277:main.c        **** /*
 278:main.c        **** void ym2612_write_step (uint8_t data)
 279:main.c        **** {
 280:main.c        ****   // CS Pin low
 281:main.c        ****   YM_CS_Write(0);
 282:main.c        ****   // DATA to bus
 283:main.c        ****   YM_Data_Write(data);
 284:main.c        ****   // WR data
 285:main.c        ****   YM_WR_Write(0);
 286:main.c        ****   YM_RD_Write(1);
 287:main.c        ****   //CyDelayCycles(1);
 288:main.c        ****   CyDelayUs(1);
 289:main.c        ****   YM_WR_Write(1);
 290:main.c        ****   YM_RD_Write(0);
ARM GAS  C:\Users\ingan\AppData\Local\Temp\ccvIVUx2.s 			page 7


 291:main.c        ****   // CS Pin high
 292:main.c        ****   YM_CS_Write(1);
 293:main.c        ****   CyDelayUs(1);
 294:main.c        ****   //CyDelayCycles(1);
 295:main.c        **** }*/
 296:main.c        **** 
 297:main.c        **** void ym2612_write_step(uint8_t data)
 298:main.c        **** {
  53              		.loc 1 298 0
  54              		.cfi_startproc
  55              		@ args = 0, pretend = 0, frame = 0
  56              		@ frame_needed = 0, uses_anonymous_args = 0
  57              	.LVL0:
  58 0000 F8B5     		push	{r3, r4, r5, r6, r7, lr}
  59              		.cfi_def_cfa_offset 24
  60              		.cfi_offset 3, -24
  61              		.cfi_offset 4, -20
  62              		.cfi_offset 5, -16
  63              		.cfi_offset 6, -12
  64              		.cfi_offset 7, -8
  65              		.cfi_offset 14, -4
 299:main.c        ****   // CS Pin low
 300:main.c        ****   GPIO_CLEAR(YM_CS);
  66              		.loc 1 300 0
  67 0002 1B4C     		ldr	r4, .L6
  68 0004 2378     		ldrb	r3, [r4]	@ zero_extendqisi2
  69 0006 03F0F703 		and	r3, r3, #247
  70 000a 2370     		strb	r3, [r4]
  71 000c 2378     		ldrb	r3, [r4]	@ zero_extendqisi2
  72 000e DBB2     		uxtb	r3, r3
  73 0010 184F     		ldr	r7, .L6+4
  74 0012 3B60     		str	r3, [r7]
 301:main.c        ****   // DATA to bus
 302:main.c        ****   //YM_Data_Write(data);
 303:main.c        ****   YM_Data_DR = data;
  75              		.loc 1 303 0
  76 0014 184B     		ldr	r3, .L6+8
  77 0016 1870     		strb	r0, [r3]
 304:main.c        ****   // WR data
 305:main.c        ****   GPIO_CLEAR(YM_WR);
  78              		.loc 1 305 0
  79 0018 2378     		ldrb	r3, [r4]	@ zero_extendqisi2
  80 001a 03F0FB03 		and	r3, r3, #251
  81 001e 2370     		strb	r3, [r4]
  82 0020 2378     		ldrb	r3, [r4]	@ zero_extendqisi2
  83 0022 DBB2     		uxtb	r3, r3
  84 0024 3B60     		str	r3, [r7]
 306:main.c        ****   GPIO_SET(YM_RD);
  85              		.loc 1 306 0
  86 0026 154D     		ldr	r5, .L6+12
  87 0028 2B78     		ldrb	r3, [r5]	@ zero_extendqisi2
  88 002a 43F00203 		orr	r3, r3, #2
  89 002e 2B70     		strb	r3, [r5]
  90 0030 2B78     		ldrb	r3, [r5]	@ zero_extendqisi2
  91 0032 DBB2     		uxtb	r3, r3
  92 0034 124E     		ldr	r6, .L6+16
  93 0036 3360     		str	r3, [r6]
ARM GAS  C:\Users\ingan\AppData\Local\Temp\ccvIVUx2.s 			page 8


 307:main.c        ****   //CyDelayCycles(1);
 308:main.c        ****   CyDelayUs(1);
  94              		.loc 1 308 0
  95 0038 0120     		movs	r0, #1
  96              	.LVL1:
  97 003a FFF7FEFF 		bl	CyDelayUs
  98              	.LVL2:
 309:main.c        ****   GPIO_SET(YM_WR);
  99              		.loc 1 309 0
 100 003e 2378     		ldrb	r3, [r4]	@ zero_extendqisi2
 101 0040 43F00403 		orr	r3, r3, #4
 102 0044 2370     		strb	r3, [r4]
 103 0046 2378     		ldrb	r3, [r4]	@ zero_extendqisi2
 104 0048 DBB2     		uxtb	r3, r3
 105 004a 3360     		str	r3, [r6]
 310:main.c        ****   GPIO_CLEAR(YM_RD);
 106              		.loc 1 310 0
 107 004c 2B78     		ldrb	r3, [r5]	@ zero_extendqisi2
 108 004e 03F0FD03 		and	r3, r3, #253
 109 0052 2B70     		strb	r3, [r5]
 110 0054 2B78     		ldrb	r3, [r5]	@ zero_extendqisi2
 111 0056 DBB2     		uxtb	r3, r3
 112 0058 3B60     		str	r3, [r7]
 311:main.c        ****   // CS Pin high
 312:main.c        ****   GPIO_SET(YM_CS);
 113              		.loc 1 312 0
 114 005a 2378     		ldrb	r3, [r4]	@ zero_extendqisi2
 115 005c 43F00803 		orr	r3, r3, #8
 116 0060 2370     		strb	r3, [r4]
 117 0062 2378     		ldrb	r3, [r4]	@ zero_extendqisi2
 118 0064 DBB2     		uxtb	r3, r3
 119 0066 3360     		str	r3, [r6]
 313:main.c        ****   CyDelayUs(1);
 120              		.loc 1 313 0
 121 0068 0120     		movs	r0, #1
 122 006a FFF7FEFF 		bl	CyDelayUs
 123              	.LVL3:
 124 006e F8BD     		pop	{r3, r4, r5, r6, r7, pc}
 125              	.L7:
 126              		.align	2
 127              	.L6:
 128 0070 C0510040 		.word	1073762752
 129 0074 00000000 		.word	volatile_reg_val_0
 130 0078 20510040 		.word	1073762592
 131 007c F0510040 		.word	1073762800
 132 0080 00000000 		.word	volatile_reg_val_1
 133              		.cfi_endproc
 134              	.LFE67:
 135              		.size	ym2612_write_step, .-ym2612_write_step
 136              		.section	.text.ym2612_write,"ax",%progbits
 137              		.align	2
 138              		.global	ym2612_write
 139              		.thumb
 140              		.thumb_func
 141              		.type	ym2612_write, %function
 142              	ym2612_write:
 143              	.LFB68:
ARM GAS  C:\Users\ingan\AppData\Local\Temp\ccvIVUx2.s 			page 9


 314:main.c        ****   //CyDelayCycles(1);
 315:main.c        ****     
 316:main.c        **** }
 317:main.c        **** 
 318:main.c        **** /*void ym2612_write(uint8_t reg, uint8_t data, uint8_t port)
 319:main.c        **** {
 320:main.c        ****   // A1 selects part0 (channels 1-3) or part1 (channels 1-6)
 321:main.c        ****   YM_A1_Write(port);
 322:main.c        ****   YM_A0_Write(0);
 323:main.c        ****   // write register selection
 324:main.c        ****   ym2612_write_step(reg);
 325:main.c        ****   // data part 0 (channels 1-3)
 326:main.c        ****   // A1 low, A0 high
 327:main.c        ****   YM_A0_Write(1);
 328:main.c        ****   ym2612_write_step(data);
 329:main.c        **** }*/
 330:main.c        **** 
 331:main.c        **** void ym2612_write(uint8_t reg, uint8_t data, uint8_t port)
 332:main.c        **** {
 144              		.loc 1 332 0
 145              		.cfi_startproc
 146              		@ args = 0, pretend = 0, frame = 0
 147              		@ frame_needed = 0, uses_anonymous_args = 0
 148              	.LVL4:
 149 0000 2DE9F843 		push	{r3, r4, r5, r6, r7, r8, r9, lr}
 150              		.cfi_def_cfa_offset 32
 151              		.cfi_offset 3, -32
 152              		.cfi_offset 4, -28
 153              		.cfi_offset 5, -24
 154              		.cfi_offset 6, -20
 155              		.cfi_offset 7, -16
 156              		.cfi_offset 8, -12
 157              		.cfi_offset 9, -8
 158              		.cfi_offset 14, -4
 159 0004 8946     		mov	r9, r1
 333:main.c        ****   // A1 selects part0 (channels 1-3) or part1 (channels 1-6)
 334:main.c        ****   if (port == 1)
 160              		.loc 1 334 0
 161 0006 012A     		cmp	r2, #1
 162 0008 09D1     		bne	.L9
 335:main.c        ****   {
 336:main.c        ****     GPIO_SET(YM_A1);
 163              		.loc 1 336 0
 164 000a 464B     		ldr	r3, .L12
 165 000c 1A78     		ldrb	r2, [r3]	@ zero_extendqisi2
 166              	.LVL5:
 167 000e 42F00102 		orr	r2, r2, #1
 168 0012 1A70     		strb	r2, [r3]
 169 0014 1B78     		ldrb	r3, [r3]	@ zero_extendqisi2
 170 0016 DBB2     		uxtb	r3, r3
 171 0018 434A     		ldr	r2, .L12+4
 172 001a 1360     		str	r3, [r2]
 173 001c 08E0     		b	.L10
 174              	.LVL6:
 175              	.L9:
 337:main.c        ****   }
 338:main.c        ****   else
ARM GAS  C:\Users\ingan\AppData\Local\Temp\ccvIVUx2.s 			page 10


 339:main.c        ****   {
 340:main.c        ****     GPIO_CLEAR(YM_A1);
 176              		.loc 1 340 0
 177 001e 414B     		ldr	r3, .L12
 178 0020 1A78     		ldrb	r2, [r3]	@ zero_extendqisi2
 179              	.LVL7:
 180 0022 02F0FE02 		and	r2, r2, #254
 181 0026 1A70     		strb	r2, [r3]
 182 0028 1B78     		ldrb	r3, [r3]	@ zero_extendqisi2
 183 002a DBB2     		uxtb	r3, r3
 184 002c 3F4A     		ldr	r2, .L12+8
 185 002e 1360     		str	r3, [r2]
 186              	.L10:
 341:main.c        ****   }
 342:main.c        ****   GPIO_CLEAR(YM_A0);
 187              		.loc 1 342 0
 188 0030 3F4C     		ldr	r4, .L12+12
 189 0032 2378     		ldrb	r3, [r4]	@ zero_extendqisi2
 190 0034 03F0FE03 		and	r3, r3, #254
 191 0038 2370     		strb	r3, [r4]
 192 003a 2378     		ldrb	r3, [r4]	@ zero_extendqisi2
 193 003c DBB2     		uxtb	r3, r3
 194 003e 3B4F     		ldr	r7, .L12+8
 195 0040 3B60     		str	r3, [r7]
 343:main.c        ****   // ****** write register begin ******
 344:main.c        ****   //ym2612_write_step(reg);
 345:main.c        ****     // CS Pin low
 346:main.c        ****   GPIO_CLEAR(YM_CS);
 196              		.loc 1 346 0
 197 0042 2378     		ldrb	r3, [r4]	@ zero_extendqisi2
 198 0044 03F0F703 		and	r3, r3, #247
 199 0048 2370     		strb	r3, [r4]
 200 004a 2378     		ldrb	r3, [r4]	@ zero_extendqisi2
 201 004c DBB2     		uxtb	r3, r3
 202 004e 3B60     		str	r3, [r7]
 347:main.c        ****   // DATA to bus
 348:main.c        ****   //YM_Data_Write(data);
 349:main.c        ****   YM_Data_DR = reg;
 203              		.loc 1 349 0
 204 0050 DFF8E080 		ldr	r8, .L12+16
 205 0054 88F80000 		strb	r0, [r8]
 350:main.c        ****   // WR data
 351:main.c        ****   GPIO_CLEAR(YM_WR);
 206              		.loc 1 351 0
 207 0058 2378     		ldrb	r3, [r4]	@ zero_extendqisi2
 208 005a 03F0FB03 		and	r3, r3, #251
 209 005e 2370     		strb	r3, [r4]
 210 0060 2378     		ldrb	r3, [r4]	@ zero_extendqisi2
 211 0062 DBB2     		uxtb	r3, r3
 212 0064 3B60     		str	r3, [r7]
 352:main.c        ****   GPIO_SET(YM_RD);
 213              		.loc 1 352 0
 214 0066 2F4D     		ldr	r5, .L12
 215 0068 2B78     		ldrb	r3, [r5]	@ zero_extendqisi2
 216 006a 43F00203 		orr	r3, r3, #2
 217 006e 2B70     		strb	r3, [r5]
 218 0070 2B78     		ldrb	r3, [r5]	@ zero_extendqisi2
ARM GAS  C:\Users\ingan\AppData\Local\Temp\ccvIVUx2.s 			page 11


 219 0072 DBB2     		uxtb	r3, r3
 220 0074 2C4E     		ldr	r6, .L12+4
 221 0076 3360     		str	r3, [r6]
 353:main.c        ****   CyDelayCycles(1);
 222              		.loc 1 353 0
 223 0078 0120     		movs	r0, #1
 224              	.LVL8:
 225 007a FFF7FEFF 		bl	CyDelayCycles
 226              	.LVL9:
 354:main.c        ****   //CyDelayUs(1);
 355:main.c        ****   GPIO_SET(YM_WR);
 227              		.loc 1 355 0
 228 007e 2378     		ldrb	r3, [r4]	@ zero_extendqisi2
 229 0080 43F00403 		orr	r3, r3, #4
 230 0084 2370     		strb	r3, [r4]
 231 0086 2378     		ldrb	r3, [r4]	@ zero_extendqisi2
 232 0088 DBB2     		uxtb	r3, r3
 233 008a 3360     		str	r3, [r6]
 356:main.c        ****   GPIO_CLEAR(YM_RD);
 234              		.loc 1 356 0
 235 008c 2B78     		ldrb	r3, [r5]	@ zero_extendqisi2
 236 008e 03F0FD03 		and	r3, r3, #253
 237 0092 2B70     		strb	r3, [r5]
 238 0094 2B78     		ldrb	r3, [r5]	@ zero_extendqisi2
 239 0096 DBB2     		uxtb	r3, r3
 240 0098 3B60     		str	r3, [r7]
 357:main.c        ****   // CS Pin high
 358:main.c        ****   GPIO_SET(YM_CS);
 241              		.loc 1 358 0
 242 009a 2378     		ldrb	r3, [r4]	@ zero_extendqisi2
 243 009c 43F00803 		orr	r3, r3, #8
 244 00a0 2370     		strb	r3, [r4]
 245 00a2 2378     		ldrb	r3, [r4]	@ zero_extendqisi2
 246 00a4 DBB2     		uxtb	r3, r3
 247 00a6 3360     		str	r3, [r6]
 359:main.c        ****   //CyDelayUs(1);
 360:main.c        ****   CyDelayCycles(1);
 248              		.loc 1 360 0
 249 00a8 0120     		movs	r0, #1
 250 00aa FFF7FEFF 		bl	CyDelayCycles
 251              	.LVL10:
 361:main.c        ****   // ****** write register end ******
 362:main.c        ****   // data part 0 (channels 1-3)
 363:main.c        ****   // A1 low, A0 high
 364:main.c        ****   GPIO_SET(YM_A0);
 252              		.loc 1 364 0
 253 00ae 2378     		ldrb	r3, [r4]	@ zero_extendqisi2
 254 00b0 43F00103 		orr	r3, r3, #1
 255 00b4 2370     		strb	r3, [r4]
 256 00b6 2378     		ldrb	r3, [r4]	@ zero_extendqisi2
 257 00b8 DBB2     		uxtb	r3, r3
 258 00ba 3360     		str	r3, [r6]
 365:main.c        ****   // ****** write register begin ******
 366:main.c        ****   //ym2612_write_step(data);
 367:main.c        ****     // CS Pin low
 368:main.c        ****   GPIO_CLEAR(YM_CS);
 259              		.loc 1 368 0
ARM GAS  C:\Users\ingan\AppData\Local\Temp\ccvIVUx2.s 			page 12


 260 00bc 2378     		ldrb	r3, [r4]	@ zero_extendqisi2
 261 00be 03F0F703 		and	r3, r3, #247
 262 00c2 2370     		strb	r3, [r4]
 263 00c4 2378     		ldrb	r3, [r4]	@ zero_extendqisi2
 264 00c6 DBB2     		uxtb	r3, r3
 265 00c8 3B60     		str	r3, [r7]
 369:main.c        ****   // DATA to bus
 370:main.c        ****   //YM_Data_Write(data);
 371:main.c        ****   YM_Data_DR = data;
 266              		.loc 1 371 0
 267 00ca 88F80090 		strb	r9, [r8]
 372:main.c        ****   // WR data
 373:main.c        ****   GPIO_CLEAR(YM_WR);
 268              		.loc 1 373 0
 269 00ce 2378     		ldrb	r3, [r4]	@ zero_extendqisi2
 270 00d0 03F0FB03 		and	r3, r3, #251
 271 00d4 2370     		strb	r3, [r4]
 272 00d6 2378     		ldrb	r3, [r4]	@ zero_extendqisi2
 273 00d8 DBB2     		uxtb	r3, r3
 274 00da 3B60     		str	r3, [r7]
 374:main.c        ****   GPIO_SET(YM_RD);
 275              		.loc 1 374 0
 276 00dc 2B78     		ldrb	r3, [r5]	@ zero_extendqisi2
 277 00de 43F00203 		orr	r3, r3, #2
 278 00e2 2B70     		strb	r3, [r5]
 279 00e4 2B78     		ldrb	r3, [r5]	@ zero_extendqisi2
 280 00e6 DBB2     		uxtb	r3, r3
 281 00e8 3360     		str	r3, [r6]
 375:main.c        ****   CyDelayCycles(1);
 282              		.loc 1 375 0
 283 00ea 0120     		movs	r0, #1
 284 00ec FFF7FEFF 		bl	CyDelayCycles
 285              	.LVL11:
 376:main.c        ****   //CyDelayUs(1);
 377:main.c        ****   GPIO_SET(YM_WR);
 286              		.loc 1 377 0
 287 00f0 2378     		ldrb	r3, [r4]	@ zero_extendqisi2
 288 00f2 43F00403 		orr	r3, r3, #4
 289 00f6 2370     		strb	r3, [r4]
 290 00f8 2378     		ldrb	r3, [r4]	@ zero_extendqisi2
 291 00fa DBB2     		uxtb	r3, r3
 292 00fc 3360     		str	r3, [r6]
 378:main.c        ****   GPIO_CLEAR(YM_RD);
 293              		.loc 1 378 0
 294 00fe 2B78     		ldrb	r3, [r5]	@ zero_extendqisi2
 295 0100 03F0FD03 		and	r3, r3, #253
 296 0104 2B70     		strb	r3, [r5]
 297 0106 2B78     		ldrb	r3, [r5]	@ zero_extendqisi2
 298 0108 DBB2     		uxtb	r3, r3
 299 010a 3B60     		str	r3, [r7]
 379:main.c        ****   // CS Pin high
 380:main.c        ****   GPIO_SET(YM_CS);
 300              		.loc 1 380 0
 301 010c 2378     		ldrb	r3, [r4]	@ zero_extendqisi2
 302 010e 43F00803 		orr	r3, r3, #8
 303 0112 2370     		strb	r3, [r4]
 304 0114 2378     		ldrb	r3, [r4]	@ zero_extendqisi2
ARM GAS  C:\Users\ingan\AppData\Local\Temp\ccvIVUx2.s 			page 13


 305 0116 DBB2     		uxtb	r3, r3
 306 0118 3360     		str	r3, [r6]
 381:main.c        ****   //CyDelayUs(1);
 382:main.c        ****   CyDelayCycles(1);
 307              		.loc 1 382 0
 308 011a 0120     		movs	r0, #1
 309 011c FFF7FEFF 		bl	CyDelayCycles
 310              	.LVL12:
 311 0120 BDE8F883 		pop	{r3, r4, r5, r6, r7, r8, r9, pc}
 312              	.L13:
 313              		.align	2
 314              	.L12:
 315 0124 F0510040 		.word	1073762800
 316 0128 00000000 		.word	volatile_reg_val_1
 317 012c 00000000 		.word	volatile_reg_val_0
 318 0130 C0510040 		.word	1073762752
 319 0134 20510040 		.word	1073762592
 320              		.cfi_endproc
 321              	.LFE68:
 322              		.size	ym2612_write, .-ym2612_write
 323              		.section	.text.sn76489_write,"ax",%progbits
 324              		.align	2
 325              		.global	sn76489_write
 326              		.thumb
 327              		.thumb_func
 328              		.type	sn76489_write, %function
 329              	sn76489_write:
 330              	.LFB69:
 383:main.c        ****   // ****** write register end ******
 384:main.c        **** }
 385:main.c        **** 
 386:main.c        **** /*
 387:main.c        **** void sn76489_write(uint8_t data)
 388:main.c        **** {
 389:main.c        ****   //data = flip_byte(data);  
 390:main.c        ****   SN_WE_Write(1);
 391:main.c        ****   YM_Data_Write(data);
 392:main.c        ****   SN_WE_Write(0);
 393:main.c        ****   //CyDelayCycles(1);
 394:main.c        ****   CyDelayUs(10);
 395:main.c        ****   SN_WE_Write(1);
 396:main.c        **** }
 397:main.c        **** */
 398:main.c        **** 
 399:main.c        **** void sn76489_write(uint8_t data)
 400:main.c        **** {
 331              		.loc 1 400 0
 332              		.cfi_startproc
 333              		@ args = 0, pretend = 0, frame = 0
 334              		@ frame_needed = 0, uses_anonymous_args = 0
 335              	.LVL13:
 336 0000 38B5     		push	{r3, r4, r5, lr}
 337              		.cfi_def_cfa_offset 16
 338              		.cfi_offset 3, -16
 339              		.cfi_offset 4, -12
 340              		.cfi_offset 5, -8
 341              		.cfi_offset 14, -4
ARM GAS  C:\Users\ingan\AppData\Local\Temp\ccvIVUx2.s 			page 14


 401:main.c        ****   //data = flip_byte(data);  
 402:main.c        ****   GPIO_SET(SN_WE);
 342              		.loc 1 402 0
 343 0002 0F4C     		ldr	r4, .L16
 344 0004 2378     		ldrb	r3, [r4]	@ zero_extendqisi2
 345 0006 43F08003 		orr	r3, r3, #128
 346 000a 2370     		strb	r3, [r4]
 347 000c 2378     		ldrb	r3, [r4]	@ zero_extendqisi2
 348 000e DBB2     		uxtb	r3, r3
 349 0010 0C4D     		ldr	r5, .L16+4
 350 0012 2B60     		str	r3, [r5]
 403:main.c        ****   YM_Data_DR = data;
 351              		.loc 1 403 0
 352 0014 0C4B     		ldr	r3, .L16+8
 353 0016 1870     		strb	r0, [r3]
 404:main.c        ****   GPIO_CLEAR(SN_WE);
 354              		.loc 1 404 0
 355 0018 2378     		ldrb	r3, [r4]	@ zero_extendqisi2
 356 001a 03F07F03 		and	r3, r3, #127
 357 001e 2370     		strb	r3, [r4]
 358 0020 2378     		ldrb	r3, [r4]	@ zero_extendqisi2
 359 0022 DBB2     		uxtb	r3, r3
 360 0024 094A     		ldr	r2, .L16+12
 361 0026 1360     		str	r3, [r2]
 405:main.c        ****   //CyDelayCycles(1);
 406:main.c        ****   CyDelayUs(10);
 362              		.loc 1 406 0
 363 0028 0A20     		movs	r0, #10
 364              	.LVL14:
 365 002a FFF7FEFF 		bl	CyDelayUs
 366              	.LVL15:
 407:main.c        ****   GPIO_SET(SN_WE);
 367              		.loc 1 407 0
 368 002e 2378     		ldrb	r3, [r4]	@ zero_extendqisi2
 369 0030 43F08003 		orr	r3, r3, #128
 370 0034 2370     		strb	r3, [r4]
 371 0036 2378     		ldrb	r3, [r4]	@ zero_extendqisi2
 372 0038 DBB2     		uxtb	r3, r3
 373 003a 2B60     		str	r3, [r5]
 374 003c 38BD     		pop	{r3, r4, r5, pc}
 375              	.L17:
 376 003e 00BF     		.align	2
 377              	.L16:
 378 0040 00510040 		.word	1073762560
 379 0044 00000000 		.word	volatile_reg_val_1
 380 0048 20510040 		.word	1073762592
 381 004c 00000000 		.word	volatile_reg_val_0
 382              		.cfi_endproc
 383              	.LFE69:
 384              		.size	sn76489_write, .-sn76489_write
 385              		.section	.text.ym2612_reset,"ax",%progbits
 386              		.align	2
 387              		.global	ym2612_reset
 388              		.thumb
 389              		.thumb_func
 390              		.type	ym2612_reset, %function
 391              	ym2612_reset:
ARM GAS  C:\Users\ingan\AppData\Local\Temp\ccvIVUx2.s 			page 15


 392              	.LFB70:
 408:main.c        **** }
 409:main.c        **** 
 410:main.c        **** void ym2612_reset()
 411:main.c        **** {
 393              		.loc 1 411 0
 394              		.cfi_startproc
 395              		@ args = 0, pretend = 0, frame = 0
 396              		@ frame_needed = 0, uses_anonymous_args = 0
 397 0000 10B5     		push	{r4, lr}
 398              		.cfi_def_cfa_offset 8
 399              		.cfi_offset 4, -8
 400              		.cfi_offset 14, -4
 412:main.c        ****   //YM_IC_Write(0);
 413:main.c        ****   //CyDelayUs(1);
 414:main.c        ****   //YM_IC_Write(1);
 415:main.c        ****   YM_IC_Write(0);
 401              		.loc 1 415 0
 402 0002 0020     		movs	r0, #0
 403 0004 FFF7FEFF 		bl	YM_IC_Write
 404              	.LVL16:
 416:main.c        ****   CyDelay(10);
 405              		.loc 1 416 0
 406 0008 0A20     		movs	r0, #10
 407 000a FFF7FEFF 		bl	CyDelay
 408              	.LVL17:
 417:main.c        ****   YM_IC_Write(1);
 409              		.loc 1 417 0
 410 000e 0120     		movs	r0, #1
 411 0010 FFF7FEFF 		bl	YM_IC_Write
 412              	.LVL18:
 418:main.c        ****   CyDelay(10);  
 413              		.loc 1 418 0
 414 0014 0A20     		movs	r0, #10
 415 0016 FFF7FEFF 		bl	CyDelay
 416              	.LVL19:
 417              	.LBB2:
 419:main.c        ****   // Silence channel-0 to channel-6
 420:main.c        ****   for (uint8_t ch = 0; ch <= 6; ++ch)
 418              		.loc 1 420 0
 419 001a 0024     		movs	r4, #0
 420 001c 06E0     		b	.L19
 421              	.LVL20:
 422              	.L20:
 421:main.c        ****   {
 422:main.c        ****     ym2612_write(0x28, ch, 0);
 423              		.loc 1 422 0 discriminator 3
 424 001e 0022     		movs	r2, #0
 425 0020 2146     		mov	r1, r4
 426 0022 2820     		movs	r0, #40
 427 0024 FFF7FEFF 		bl	ym2612_write
 428              	.LVL21:
 420:main.c        ****   {
 429              		.loc 1 420 0 discriminator 3
 430 0028 0134     		adds	r4, r4, #1
 431              	.LVL22:
 432 002a E4B2     		uxtb	r4, r4
ARM GAS  C:\Users\ingan\AppData\Local\Temp\ccvIVUx2.s 			page 16


 433              	.LVL23:
 434              	.L19:
 420:main.c        ****   {
 435              		.loc 1 420 0 is_stmt 0 discriminator 1
 436 002c 062C     		cmp	r4, #6
 437 002e F6D9     		bls	.L20
 438              	.LBE2:
 423:main.c        ****   }
 424:main.c        **** }
 439              		.loc 1 424 0 is_stmt 1
 440 0030 10BD     		pop	{r4, pc}
 441              		.cfi_endproc
 442              	.LFE70:
 443              		.size	ym2612_reset, .-ym2612_reset
 444 0032 00BF     		.section	.text.ym2612_init,"ax",%progbits
 445              		.align	2
 446              		.global	ym2612_init
 447              		.thumb
 448              		.thumb_func
 449              		.type	ym2612_init, %function
 450              	ym2612_init:
 451              	.LFB71:
 425:main.c        **** 
 426:main.c        **** void ym2612_init (void)
 427:main.c        **** {
 452              		.loc 1 427 0
 453              		.cfi_startproc
 454              		@ args = 0, pretend = 0, frame = 0
 455              		@ frame_needed = 0, uses_anonymous_args = 0
 456 0000 08B5     		push	{r3, lr}
 457              		.cfi_def_cfa_offset 8
 458              		.cfi_offset 3, -8
 459              		.cfi_offset 14, -4
 428:main.c        ****   YM_CS_Write(1);
 460              		.loc 1 428 0
 461 0002 0120     		movs	r0, #1
 462 0004 FFF7FEFF 		bl	YM_CS_Write
 463              	.LVL24:
 429:main.c        ****   YM_WR_Write(1);
 464              		.loc 1 429 0
 465 0008 0120     		movs	r0, #1
 466 000a FFF7FEFF 		bl	YM_WR_Write
 467              	.LVL25:
 430:main.c        ****   YM_RD_Write(1);
 468              		.loc 1 430 0
 469 000e 0120     		movs	r0, #1
 470 0010 FFF7FEFF 		bl	YM_RD_Write
 471              	.LVL26:
 431:main.c        ****   YM_IC_Write(1);
 472              		.loc 1 431 0
 473 0014 0120     		movs	r0, #1
 474 0016 FFF7FEFF 		bl	YM_IC_Write
 475              	.LVL27:
 432:main.c        ****   YM_A0_Write(0);
 476              		.loc 1 432 0
 477 001a 0020     		movs	r0, #0
 478 001c FFF7FEFF 		bl	YM_A0_Write
ARM GAS  C:\Users\ingan\AppData\Local\Temp\ccvIVUx2.s 			page 17


 479              	.LVL28:
 433:main.c        ****   YM_A1_Write(0);
 480              		.loc 1 433 0
 481 0020 0020     		movs	r0, #0
 482 0022 FFF7FEFF 		bl	YM_A1_Write
 483              	.LVL29:
 434:main.c        ****   YM_Data_Write(0xff);
 484              		.loc 1 434 0
 485 0026 FF20     		movs	r0, #255
 486 0028 FFF7FEFF 		bl	YM_Data_Write
 487              	.LVL30:
 488 002c 08BD     		pop	{r3, pc}
 489              		.cfi_endproc
 490              	.LFE71:
 491              		.size	ym2612_init, .-ym2612_init
 492 002e 00BF     		.section	.text.SilenceAllChannels,"ax",%progbits
 493              		.align	2
 494              		.global	SilenceAllChannels
 495              		.thumb
 496              		.thumb_func
 497              		.type	SilenceAllChannels, %function
 498              	SilenceAllChannels:
 499              	.LFB72:
 435:main.c        **** }
 436:main.c        **** 
 437:main.c        **** void SilenceAllChannels()
 438:main.c        **** {  
 500              		.loc 1 438 0
 501              		.cfi_startproc
 502              		@ args = 0, pretend = 0, frame = 0
 503              		@ frame_needed = 0, uses_anonymous_args = 0
 504 0000 08B5     		push	{r3, lr}
 505              		.cfi_def_cfa_offset 8
 506              		.cfi_offset 3, -8
 507              		.cfi_offset 14, -4
 439:main.c        ****   sn76489_write(0x9f);
 508              		.loc 1 439 0
 509 0002 9F20     		movs	r0, #159
 510 0004 FFF7FEFF 		bl	sn76489_write
 511              	.LVL31:
 440:main.c        ****   sn76489_write(0xbf);
 512              		.loc 1 440 0
 513 0008 BF20     		movs	r0, #191
 514 000a FFF7FEFF 		bl	sn76489_write
 515              	.LVL32:
 441:main.c        ****   sn76489_write(0xdf);
 516              		.loc 1 441 0
 517 000e DF20     		movs	r0, #223
 518 0010 FFF7FEFF 		bl	sn76489_write
 519              	.LVL33:
 442:main.c        ****   sn76489_write(0xff);
 520              		.loc 1 442 0
 521 0014 FF20     		movs	r0, #255
 522 0016 FFF7FEFF 		bl	sn76489_write
 523              	.LVL34:
 443:main.c        **** 
 444:main.c        ****   ym2612_init();
ARM GAS  C:\Users\ingan\AppData\Local\Temp\ccvIVUx2.s 			page 18


 524              		.loc 1 444 0
 525 001a FFF7FEFF 		bl	ym2612_init
 526              	.LVL35:
 445:main.c        ****   ym2612_reset();
 527              		.loc 1 445 0
 528 001e FFF7FEFF 		bl	ym2612_reset
 529              	.LVL36:
 530 0022 08BD     		pop	{r3, pc}
 531              		.cfi_endproc
 532              	.LFE72:
 533              		.size	SilenceAllChannels, .-SilenceAllChannels
 534              		.section	.text.init_hardware,"ax",%progbits
 535              		.align	2
 536              		.global	init_hardware
 537              		.thumb
 538              		.thumb_func
 539              		.type	init_hardware, %function
 540              	init_hardware:
 541              	.LFB66:
 270:main.c        ****     SilenceAllChannels();
 542              		.loc 1 270 0
 543              		.cfi_startproc
 544              		@ args = 0, pretend = 0, frame = 0
 545              		@ frame_needed = 0, uses_anonymous_args = 0
 546 0000 08B5     		push	{r3, lr}
 547              		.cfi_def_cfa_offset 8
 548              		.cfi_offset 3, -8
 549              		.cfi_offset 14, -4
 271:main.c        ****     CyGlobalIntEnable; /* Enable global interrupts. */
 550              		.loc 1 271 0
 551 0002 FFF7FEFF 		bl	SilenceAllChannels
 552              	.LVL37:
 272:main.c        **** 
 553              		.loc 1 272 0
 554              		.syntax unified
 555              	@ 272 "main.c" 1
 556 0006 62B6     		CPSIE   i
 557              	@ 0 "" 2
 274:main.c        **** }
 558              		.loc 1 274 0
 559              		.thumb
 560              		.syntax unified
 561 0008 FFF7FEFF 		bl	tty_init
 562              	.LVL38:
 563 000c 08BD     		pop	{r3, pc}
 564              		.cfi_endproc
 565              	.LFE66:
 566              		.size	init_hardware, .-init_hardware
 567 000e 00BF     		.section	.text.main,"ax",%progbits
 568              		.align	2
 569              		.global	main
 570              		.thumb
 571              		.thumb_func
 572              		.type	main, %function
 573              	main:
 574              	.LFB65:
  52:main.c        **** 
ARM GAS  C:\Users\ingan\AppData\Local\Temp\ccvIVUx2.s 			page 19


 575              		.loc 1 52 0
 576              		.cfi_startproc
 577              		@ args = 0, pretend = 0, frame = 8
 578              		@ frame_needed = 0, uses_anonymous_args = 0
 579 0000 2DE9F04F 		push	{r4, r5, r6, r7, r8, r9, r10, fp, lr}
 580              		.cfi_def_cfa_offset 36
 581              		.cfi_offset 4, -36
 582              		.cfi_offset 5, -32
 583              		.cfi_offset 6, -28
 584              		.cfi_offset 7, -24
 585              		.cfi_offset 8, -20
 586              		.cfi_offset 9, -16
 587              		.cfi_offset 10, -12
 588              		.cfi_offset 11, -8
 589              		.cfi_offset 14, -4
 590 0004 83B0     		sub	sp, sp, #12
 591              		.cfi_def_cfa_offset 48
 592              	.LVL39:
  65:main.c        ****     isr_1_StartEx(sampleRateIRQ);
 593              		.loc 1 65 0
 594 0006 FFF7FEFF 		bl	init_hardware
 595              	.LVL40:
  66:main.c        ****     //splash("USBFS-UART demo") ;
 596              		.loc 1 66 0
 597 000a 7248     		ldr	r0, .L61
 598 000c FFF7FEFF 		bl	isr_1_StartEx
 599              	.LVL41:
 600              	.L29:
  71:main.c        ****     {
 601              		.loc 1 71 0 discriminator 1
 602 0010 FFF7FEFF 		bl	USBUART_CDCIsReady
 603              	.LVL42:
 604 0014 0028     		cmp	r0, #0
 605 0016 FBD0     		beq	.L29
  74:main.c        ****     // fill buffers
 606              		.loc 1 74 0
 607 0018 6F48     		ldr	r0, .L61+4
 608 001a FFF7FEFF 		bl	USBUART_PutString
 609              	.LVL43:
  76:main.c        ****     {
 610              		.loc 1 76 0
 611 001e 0024     		movs	r4, #0
 612 0020 12E0     		b	.L30
 613              	.LVL44:
 614              	.L32:
  78:main.c        ****         while (!rx_flag);
 615              		.loc 1 78 0
 616 0022 2546     		mov	r5, r4
 617 0024 6D48     		ldr	r0, .L61+8
 618 0026 00EB8410 		add	r0, r0, r4, lsl #6
 619              	.LVL45:
 620              	.L31:
  79:main.c        ****         count_incoming[k] = USBUART_GetAll(bufPtr);
 621              		.loc 1 79 0 discriminator 1
 622 002a 6D4B     		ldr	r3, .L61+12
 623 002c 1B78     		ldrb	r3, [r3]	@ zero_extendqisi2
 624 002e 002B     		cmp	r3, #0
ARM GAS  C:\Users\ingan\AppData\Local\Temp\ccvIVUx2.s 			page 20


 625 0030 FBD0     		beq	.L31
  80:main.c        ****         //count_vgm = count_incoming;
 626              		.loc 1 80 0 discriminator 2
 627 0032 FFF7FEFF 		bl	USBUART_GetAll
 628              	.LVL46:
 629 0036 02AB     		add	r3, sp, #8
 630 0038 1D44     		add	r5, r5, r3
 631 003a 05F8040C 		strb	r0, [r5, #-4]
  82:main.c        ****     }
 632              		.loc 1 82 0 discriminator 2
 633 003e 0022     		movs	r2, #0
 634 0040 674B     		ldr	r3, .L61+12
 635 0042 1A70     		strb	r2, [r3]
  76:main.c        ****     {
 636              		.loc 1 76 0 discriminator 2
 637 0044 0134     		adds	r4, r4, #1
 638              	.LVL47:
 639 0046 E4B2     		uxtb	r4, r4
 640              	.LVL48:
 641              	.L30:
  76:main.c        ****     {
 642              		.loc 1 76 0 is_stmt 0 discriminator 1
 643 0048 012C     		cmp	r4, #1
 644 004a EAD9     		bls	.L32
 645 004c 4FF00008 		mov	r8, #0
 646 0050 C146     		mov	r9, r8
 647 0052 4546     		mov	r5, r8
 648 0054 4446     		mov	r4, r8
 649              	.LVL49:
 650 0056 4746     		mov	r7, r8
 651 0058 604E     		ldr	r6, .L61+8
 652 005a B246     		mov	r10, r6
 653 005c 01E0     		b	.L34
 654              	.LVL50:
 655              	.L57:
 259:main.c        ****             }
 656              		.loc 1 259 0 is_stmt 1
 657 005e 4FF00009 		mov	r9, #0
 658              	.LVL51:
 659              	.L34:
  91:main.c        ****         {
 660              		.loc 1 91 0
 661 0062 604B     		ldr	r3, .L61+16
 662 0064 1B78     		ldrb	r3, [r3]	@ zero_extendqisi2
 663 0066 012B     		cmp	r3, #1
 664 0068 FBD1     		bne	.L34
  93:main.c        ****             {
 665              		.loc 1 93 0
 666 006a 2DB1     		cbz	r5, .L35
  95:main.c        ****                 isrFlag = 0;
 667              		.loc 1 95 0
 668 006c 013D     		subs	r5, r5, #1
 669              	.LVL52:
 670 006e ADB2     		uxth	r5, r5
 671              	.LVL53:
  96:main.c        ****                 continue;
 672              		.loc 1 96 0
ARM GAS  C:\Users\ingan\AppData\Local\Temp\ccvIVUx2.s 			page 21


 673 0070 0022     		movs	r2, #0
 674 0072 5C4B     		ldr	r3, .L61+16
 675 0074 1A70     		strb	r2, [r3]
  97:main.c        ****             }
 676              		.loc 1 97 0
 677 0076 F4E7     		b	.L34
 678              	.L35:
 100:main.c        ****             {
 679              		.loc 1 100 0
 680 0078 2346     		mov	r3, r4
 681 007a 06EB040B 		add	fp, r6, r4
 682 007e 325D     		ldrb	r2, [r6, r4]	@ zero_extendqisi2
 683 0080 612A     		cmp	r2, #97
 684 0082 2ED0     		beq	.L38
 685 0084 0CD8     		bhi	.L39
 686 0086 502A     		cmp	r2, #80
 687 0088 19D0     		beq	.L40
 688 008a 04D8     		bhi	.L41
 689 008c 0B2A     		cmp	r2, #11
 690 008e 57D0     		beq	.L42
 691 0090 4F2A     		cmp	r2, #79
 692 0092 11D0     		beq	.L43
 693 0094 5FE0     		b	.L37
 694              	.L41:
 695 0096 A2F15201 		sub	r1, r2, #82
 696 009a 0129     		cmp	r1, #1
 697 009c 16D9     		bls	.L58
 698 009e 5AE0     		b	.L37
 699              	.L39:
 700 00a0 7F2A     		cmp	r2, #127
 701 00a2 06D8     		bhi	.L45
 702 00a4 702A     		cmp	r2, #112
 703 00a6 33D2     		bcs	.L46
 704 00a8 622A     		cmp	r2, #98
 705 00aa 27D0     		beq	.L47
 706 00ac 632A     		cmp	r2, #99
 707 00ae 2AD0     		beq	.L48
 708 00b0 51E0     		b	.L37
 709              	.L45:
 710 00b2 8F2A     		cmp	r2, #143
 711 00b4 34D9     		bls	.L59
 712 00b6 4EE0     		b	.L37
 713              	.L43:
 103:main.c        ****                 break;
 714              		.loc 1 103 0
 715 00b8 0234     		adds	r4, r4, #2
 716              	.LVL54:
 717 00ba E4B2     		uxtb	r4, r4
 718              	.LVL55:
 104:main.c        **** 
 719              		.loc 1 104 0
 720 00bc 4BE0     		b	.L37
 721              	.L40:
 107:main.c        ****                 j += 2;            
 722              		.loc 1 107 0
 723 00be 0133     		adds	r3, r3, #1
 724 00c0 F05C     		ldrb	r0, [r6, r3]	@ zero_extendqisi2
ARM GAS  C:\Users\ingan\AppData\Local\Temp\ccvIVUx2.s 			page 22


 725 00c2 FFF7FEFF 		bl	sn76489_write
 726              	.LVL56:
 108:main.c        ****                 WaitTime = 0;
 727              		.loc 1 108 0
 728 00c6 0234     		adds	r4, r4, #2
 729              	.LVL57:
 730 00c8 E4B2     		uxtb	r4, r4
 731              	.LVL58:
 110:main.c        **** 
 732              		.loc 1 110 0
 733 00ca 44E0     		b	.L37
 734              	.LVL59:
 735              	.L58:
 114:main.c        ****                 j += 3;
 736              		.loc 1 114 0
 737 00cc 601C     		adds	r0, r4, #1
 738 00ce 0233     		adds	r3, r3, #2
 739 00d0 02F00102 		and	r2, r2, #1
 740 00d4 F15C     		ldrb	r1, [r6, r3]	@ zero_extendqisi2
 741 00d6 305C     		ldrb	r0, [r6, r0]	@ zero_extendqisi2
 742 00d8 FFF7FEFF 		bl	ym2612_write
 743              	.LVL60:
 115:main.c        ****                 WaitTime = 0;
 744              		.loc 1 115 0
 745 00dc 0334     		adds	r4, r4, #3
 746              	.LVL61:
 747 00de E4B2     		uxtb	r4, r4
 748              	.LVL62:
 117:main.c        **** 
 749              		.loc 1 117 0
 750 00e0 39E0     		b	.L37
 751              	.LVL63:
 752              	.L38:
 120:main.c        ****                 j += 3;
 753              		.loc 1 120 0
 754 00e2 631C     		adds	r3, r4, #1
 755 00e4 F35C     		ldrb	r3, [r6, r3]	@ zero_extendqisi2
 756 00e6 A21C     		adds	r2, r4, #2
 757 00e8 B55C     		ldrb	r5, [r6, r2]	@ zero_extendqisi2
 758              	.LVL64:
 759 00ea 03EB0525 		add	r5, r3, r5, lsl #8
 760 00ee ADB2     		uxth	r5, r5
 761              	.LVL65:
 121:main.c        ****                 if (WaitTime == 0)
 762              		.loc 1 121 0
 763 00f0 0334     		adds	r4, r4, #3
 764              	.LVL66:
 765 00f2 E4B2     		uxtb	r4, r4
 766              	.LVL67:
 122:main.c        ****                 {
 767              		.loc 1 122 0
 768 00f4 3DB3     		cbz	r5, .L54
 128:main.c        ****                 }
 769              		.loc 1 128 0
 770 00f6 013D     		subs	r5, r5, #1
 771              	.LVL68:
 772 00f8 ADB2     		uxth	r5, r5
ARM GAS  C:\Users\ingan\AppData\Local\Temp\ccvIVUx2.s 			page 23


 773              	.LVL69:
 774 00fa 2CE0     		b	.L37
 775              	.L47:
 133:main.c        ****                 WaitTime = 735 - 1;
 776              		.loc 1 133 0
 777 00fc 0134     		adds	r4, r4, #1
 778              	.LVL70:
 779 00fe E4B2     		uxtb	r4, r4
 780              	.LVL71:
 134:main.c        ****                 break;
 781              		.loc 1 134 0
 782 0100 40F2DE25 		movw	r5, #734
 135:main.c        **** 
 783              		.loc 1 135 0
 784 0104 27E0     		b	.L37
 785              	.LVL72:
 786              	.L48:
 138:main.c        ****                 WaitTime = 882 - 1;
 787              		.loc 1 138 0
 788 0106 0134     		adds	r4, r4, #1
 789              	.LVL73:
 790 0108 E4B2     		uxtb	r4, r4
 791              	.LVL74:
 139:main.c        ****                 break;
 792              		.loc 1 139 0
 793 010a 40F27135 		movw	r5, #881
 140:main.c        **** 
 794              		.loc 1 140 0
 795 010e 22E0     		b	.L37
 796              	.LVL75:
 797              	.L46:
 160:main.c        ****                 if (WaitTime == 0)
 798              		.loc 1 160 0
 799 0110 0134     		adds	r4, r4, #1
 800              	.LVL76:
 801 0112 E4B2     		uxtb	r4, r4
 802              	.LVL77:
 161:main.c        ****                 {
 803              		.loc 1 161 0
 804 0114 12F00F05 		ands	r5, r2, #15
 805 0118 18D0     		beq	.L55
 167:main.c        ****                 }
 806              		.loc 1 167 0
 807 011a 013D     		subs	r5, r5, #1
 808 011c ADB2     		uxth	r5, r5
 809              	.LVL78:
 810 011e 1AE0     		b	.L37
 811              	.L59:
 188:main.c        ****                 //SysCntVal = SYSTICK_MAXVAL - (SysTick->VAL); //get elapsed ticks (min offset 3 ti
 812              		.loc 1 188 0
 813 0120 0133     		adds	r3, r3, #1
 814 0122 0022     		movs	r2, #0
 815 0124 F15C     		ldrb	r1, [r6, r3]	@ zero_extendqisi2
 816 0126 2A20     		movs	r0, #42
 817 0128 FFF7FEFF 		bl	ym2612_write
 818              	.LVL79:
 190:main.c        ****                 j += 2;
ARM GAS  C:\Users\ingan\AppData\Local\Temp\ccvIVUx2.s 			page 24


 819              		.loc 1 190 0
 820 012c 9BF80050 		ldrb	r5, [fp]	@ zero_extendqisi2
 821              	.LVL80:
 191:main.c        ****                 
 822              		.loc 1 191 0
 823 0130 0234     		adds	r4, r4, #2
 824              	.LVL81:
 825 0132 E4B2     		uxtb	r4, r4
 826              	.LVL82:
 193:main.c        ****                 {
 827              		.loc 1 193 0
 828 0134 15F00F05 		ands	r5, r5, #15
 829              	.LVL83:
 830 0138 0BD0     		beq	.L56
 199:main.c        ****                 }
 831              		.loc 1 199 0
 832 013a 013D     		subs	r5, r5, #1
 833 013c ADB2     		uxth	r5, r5
 834              	.LVL84:
 835 013e 0AE0     		b	.L37
 836              	.L42:
 214:main.c        ****                 break;
 837              		.loc 1 214 0
 838 0140 FFF7FEFF 		bl	SilenceAllChannels
 839              	.LVL85:
 215:main.c        ****                        
 840              		.loc 1 215 0
 841 0144 07E0     		b	.L37
 842              	.L54:
 124:main.c        ****                 }
 843              		.loc 1 124 0
 844 0146 4FF00109 		mov	r9, #1
 845              	.LVL86:
 846 014a 04E0     		b	.L37
 847              	.LVL87:
 848              	.L55:
 163:main.c        ****                 }
 849              		.loc 1 163 0
 850 014c 4FF00109 		mov	r9, #1
 851              	.LVL88:
 852 0150 01E0     		b	.L37
 853              	.LVL89:
 854              	.L56:
 195:main.c        ****                 }
 855              		.loc 1 195 0
 856 0152 4FF00109 		mov	r9, #1
 857              	.LVL90:
 858              	.L37:
 221:main.c        ****             {
 859              		.loc 1 221 0
 860 0156 B8F1000F 		cmp	r8, #0
 861 015a 09D0     		beq	.L50
 223:main.c        ****                 {
 862              		.loc 1 223 0
 863 015c 0320     		movs	r0, #3
 864 015e FFF7FEFF 		bl	USBUART_GetEPState
 865              	.LVL91:
ARM GAS  C:\Users\ingan\AppData\Local\Temp\ccvIVUx2.s 			page 25


 866 0162 0128     		cmp	r0, #1
 867 0164 04D0     		beq	.L50
 225:main.c        ****                     incomingFlag = 0;
 868              		.loc 1 225 0
 869 0166 0320     		movs	r0, #3
 870 0168 FFF7FEFF 		bl	USBUART_EnableOutEP
 871              	.LVL92:
 226:main.c        ****                 }
 872              		.loc 1 226 0
 873 016c 4FF00008 		mov	r8, #0
 874              	.LVL93:
 875              	.L50:
 231:main.c        ****             {   
 876              		.loc 1 231 0
 877 0170 BB46     		mov	fp, r7
 878 0172 02AB     		add	r3, sp, #8
 879 0174 3B44     		add	r3, r3, r7
 880 0176 13F8043C 		ldrb	r3, [r3, #-4]	@ zero_extendqisi2
 881 017a 013B     		subs	r3, r3, #1
 882 017c 9C42     		cmp	r4, r3
 883 017e 20DB     		blt	.L51
 233:main.c        ****                 // ... get incoming data from USB
 884              		.loc 1 233 0
 885 0180 0137     		adds	r7, r7, #1
 886              	.LVL94:
 887 0182 194E     		ldr	r6, .L61+20
 888              	.LVL95:
 889 0184 17EA0603 		ands	r3, r7, r6
 890 0188 03D5     		bpl	.L52
 891 018a 013B     		subs	r3, r3, #1
 892 018c 63F00103 		orn	r3, r3, #1
 893 0190 0133     		adds	r3, r3, #1
 894              	.L52:
 895 0192 1F46     		mov	r7, r3
 896 0194 114E     		ldr	r6, .L61+8
 897 0196 06EB8316 		add	r6, r6, r3, lsl #6
 898              	.LVL96:
 899              	.L53:
 235:main.c        ****                 //count_vgm = count_incoming;
 900              		.loc 1 235 0 discriminator 1
 901 019a 114B     		ldr	r3, .L61+12
 902 019c 1B78     		ldrb	r3, [r3]	@ zero_extendqisi2
 903 019e 002B     		cmp	r3, #0
 904 01a0 FBD0     		beq	.L53
 238:main.c        ****                 incomingFlag = 1;
 905              		.loc 1 238 0
 906 01a2 4022     		movs	r2, #64
 907 01a4 5146     		mov	r1, r10
 908 01a6 0320     		movs	r0, #3
 909 01a8 FFF7FEFF 		bl	USBUART_ReadOutEP
 910              	.LVL97:
 911 01ac 02AB     		add	r3, sp, #8
 912 01ae 9B44     		add	fp, fp, r3
 913 01b0 0BF8040C 		strb	r0, [fp, #-4]
 914              	.LVL98:
 240:main.c        ****                 bufPtr = VGMPtr;
 915              		.loc 1 240 0
ARM GAS  C:\Users\ingan\AppData\Local\Temp\ccvIVUx2.s 			page 26


 916 01b4 0024     		movs	r4, #0
 917              	.LVL99:
 918 01b6 0A4B     		ldr	r3, .L61+12
 919 01b8 1C70     		strb	r4, [r3]
 920              	.LVL100:
 242:main.c        ****                 j = 0;
 921              		.loc 1 242 0
 922 01ba FFB2     		uxtb	r7, r7
 923              	.LVL101:
 241:main.c        ****                 i = (i + 1) % BUF_CMDS;
 924              		.loc 1 241 0
 925 01bc B246     		mov	r10, r6
 239:main.c        ****                 rx_flag = 0;
 926              		.loc 1 239 0
 927 01be 4FF00108 		mov	r8, #1
 928              	.LVL102:
 929              	.L51:
 257:main.c        ****             {
 930              		.loc 1 257 0
 931 01c2 B9F1000F 		cmp	r9, #0
 932 01c6 7FF44AAF 		bne	.L57
 263:main.c        ****             }
 933              		.loc 1 263 0
 934 01ca 0022     		movs	r2, #0
 935 01cc 054B     		ldr	r3, .L61+16
 936 01ce 1A70     		strb	r2, [r3]
 937 01d0 47E7     		b	.L34
 938              	.L62:
 939 01d2 00BF     		.align	2
 940              	.L61:
 941 01d4 00000000 		.word	sampleRateIRQ
 942 01d8 00000000 		.word	.LANCHOR1
 943 01dc 00000000 		.word	buffer
 944 01e0 00000000 		.word	rx_flag
 945 01e4 00000000 		.word	.LANCHOR0
 946 01e8 01000080 		.word	-2147483647
 947              		.cfi_endproc
 948              	.LFE65:
 949              		.size	main, .-main
 950              		.comm	volatile_reg_val_0,4,4
 951              		.comm	volatile_reg_val_1,4,4
 952              		.global	isrFlag
 953              		.comm	buffer,128,4
 954              		.section	.rodata
 955              		.align	2
 956              		.set	.LANCHOR1,. + 0
 957              	.LC0:
 958 0000 0000     		.ascii	"\000\000"
 959              		.bss
 960              		.set	.LANCHOR0,. + 0
 961              		.type	isrFlag, %object
 962              		.size	isrFlag, 1
 963              	isrFlag:
 964 0000 00       		.space	1
 965              		.text
 966              	.Letext0:
 967              		.file 2 "c:\\program files (x86)\\cypress\\psoc creator\\4.2\\psoc creator\\import\\gnu\\arm\\5.4.
ARM GAS  C:\Users\ingan\AppData\Local\Temp\ccvIVUx2.s 			page 27


 968              		.file 3 "c:\\program files (x86)\\cypress\\psoc creator\\4.2\\psoc creator\\import\\gnu\\arm\\5.4.
 969              		.file 4 "Generated_Source\\PSoC5/cytypes.h"
 970              		.file 5 "Generated_Source\\PSoC5/core_cm3.h"
 971              		.file 6 "Generated_Source\\PSoC5/CyLib.h"
 972              		.file 7 "Generated_Source\\PSoC5/YM_IC.h"
 973              		.file 8 "Generated_Source\\PSoC5/YM_CS.h"
 974              		.file 9 "Generated_Source\\PSoC5/YM_WR.h"
 975              		.file 10 "Generated_Source\\PSoC5/YM_RD.h"
 976              		.file 11 "Generated_Source\\PSoC5/YM_A0.h"
 977              		.file 12 "Generated_Source\\PSoC5/YM_A1.h"
 978              		.file 13 "Generated_Source\\PSoC5/YM_Data.h"
 979              		.file 14 "tty_utils.h"
 980              		.file 15 "Generated_Source\\PSoC5/isr_1.h"
 981              		.file 16 "Generated_Source\\PSoC5/USBUART_cdc.h"
 982              		.file 17 "Generated_Source\\PSoC5/USBUART.h"