ARM GAS  C:\Users\ingan\AppData\Local\Temp\ccZDnRts.s 			page 1


   1              		.syntax unified
   2              		.cpu cortex-m3
   3              		.fpu softvfp
   4              		.eabi_attribute 20, 1
   5              		.eabi_attribute 21, 1
   6              		.eabi_attribute 23, 3
   7              		.eabi_attribute 24, 1
   8              		.eabi_attribute 25, 1
   9              		.eabi_attribute 26, 1
  10              		.eabi_attribute 30, 1
  11              		.eabi_attribute 34, 1
  12              		.eabi_attribute 18, 4
  13              		.thumb
  14              		.syntax unified
  15              		.file	"usb_uart.c"
  16              		.text
  17              	.Ltext0:
  18              		.cfi_sections	.debug_frame
  19              		.section	.text.usbuart_init,"ax",%progbits
  20              		.align	2
  21              		.global	usbuart_init
  22              		.thumb
  23              		.thumb_func
  24              		.type	usbuart_init, %function
  25              	usbuart_init:
  26              	.LFB64:
  27              		.file 1 "usb_uart.c"
   1:usb_uart.c    **** /*
   2:usb_uart.c    **** *   This is an implementation of the USBFS CDC - USBUART using 
   3:usb_uart.c    **** *   endpoint interrupts with no additional self defined clock 
   4:usb_uart.c    **** *   interrupt to check USBUART buffer. 
   5:usb_uart.c    **** *   In topdesign, the USBFS has been selected in 
   6:usb_uart.c    **** *   Descriptor root:Device Descriptor:Device Class as 0x02 CDC 
   7:usb_uart.c    **** *   In Descriptor root, endpoint buffer management is 
   8:usb_uart.c    **** *   defined as manual(static allocation), EP 2 direction as IN, 
   9:usb_uart.c    **** *   but is a send point, EP3 direction as out, but a receive point. All settings
  10:usb_uart.c    **** *   are default when select Device Class as 0x02 CDC
  11:usb_uart.c    **** *   THESE IMPLEMENTIONS ARE EXPERIMENTAL, MAY DEPENDED ON THE DEVICE FAMILY
  12:usb_uart.c    **** */
  13:usb_uart.c    **** #include "project.h"
  14:usb_uart.c    **** #include "stdio.h"
  15:usb_uart.c    **** #include "usb_uart.h"
  16:usb_uart.c    **** #include "usbuart.h"
  17:usb_uart.c    **** #include "tty_utils.h"
  18:usb_uart.c    **** 
  19:usb_uart.c    **** //uint16_t count;
  20:usb_uart.c    **** //uint8_t buffer[2][USBUART_BUFFER_SIZE];
  21:usb_uart.c    **** //uint8_t* bufPtr = buffer[0];
  22:usb_uart.c    **** volatile uint8_t rx_flag = 0;
  23:usb_uart.c    **** //uint8_t goFlag = 0;
  24:usb_uart.c    **** //uint8_t received[1000];
  25:usb_uart.c    **** //uint8_t *ptr = received;
  26:usb_uart.c    **** //uint8_t received[64];
  27:usb_uart.c    **** 
  28:usb_uart.c    **** char* EP3 = "USBUart EP 3 ISR Exit Callback ";
  29:usb_uart.c    **** char* EP1 = "USBUart EP 1 ISR Exit Callback ";
  30:usb_uart.c    **** 
ARM GAS  C:\Users\ingan\AppData\Local\Temp\ccZDnRts.s 			page 2


  31:usb_uart.c    **** void usbuart_init(void)
  32:usb_uart.c    **** {
  28              		.loc 1 32 0
  29              		.cfi_startproc
  30              		@ args = 0, pretend = 0, frame = 0
  31              		@ frame_needed = 0, uses_anonymous_args = 0
  32 0000 08B5     		push	{r3, lr}
  33              		.cfi_def_cfa_offset 8
  34              		.cfi_offset 3, -8
  35              		.cfi_offset 14, -4
  33:usb_uart.c    ****     /* Start USBFS operation with 5-V operation. */
  34:usb_uart.c    ****     USBUART_Start(USBFS_DEVICE, USBUART_5V_OPERATION);
  36              		.loc 1 34 0
  37 0002 0121     		movs	r1, #1
  38 0004 0020     		movs	r0, #0
  39 0006 FFF7FEFF 		bl	USBUART_Start
  40              	.LVL0:
  35:usb_uart.c    ****     /* Host can send double SET_INTERFACE request. */
  36:usb_uart.c    ****     if (0u != USBUART_IsConfigurationChanged())
  41              		.loc 1 36 0
  42 000a FFF7FEFF 		bl	USBUART_IsConfigurationChanged
  43              	.LVL1:
  44 000e 20B1     		cbz	r0, .L1
  37:usb_uart.c    ****     {
  38:usb_uart.c    ****         /* Initialize IN endpoints when device is configured. */
  39:usb_uart.c    ****         if (0u != USBUART_GetConfiguration())
  45              		.loc 1 39 0
  46 0010 FFF7FEFF 		bl	USBUART_GetConfiguration
  47              	.LVL2:
  48 0014 08B1     		cbz	r0, .L1
  40:usb_uart.c    ****         {
  41:usb_uart.c    ****             /* Enumeration is done, enable OUT endpoint to receive data 
  42:usb_uart.c    ****              * from host. */
  43:usb_uart.c    ****             USBUART_CDC_Init();
  49              		.loc 1 43 0
  50 0016 FFF7FEFF 		bl	USBUART_CDC_Init
  51              	.LVL3:
  52              	.L1:
  53 001a 08BD     		pop	{r3, pc}
  54              		.cfi_endproc
  55              	.LFE64:
  56              		.size	usbuart_init, .-usbuart_init
  57              		.section	.text.USBUART_EP_2_ISR_EntryCallback,"ax",%progbits
  58              		.align	2
  59              		.global	USBUART_EP_2_ISR_EntryCallback
  60              		.thumb
  61              		.thumb_func
  62              		.type	USBUART_EP_2_ISR_EntryCallback, %function
  63              	USBUART_EP_2_ISR_EntryCallback:
  64              	.LFB65:
  44:usb_uart.c    ****         }
  45:usb_uart.c    ****     }
  46:usb_uart.c    **** }
  47:usb_uart.c    **** /*
  48:usb_uart.c    **** *   After tryouts of the usbfs endpoints, for CDC, these are the interrupts that were
  49:usb_uart.c    **** *   enabled by "system" in generated code. And for EP 2 is a sending endpoint, EP 3 is 
  50:usb_uart.c    **** *   a receiving endpoint.
ARM GAS  C:\Users\ingan\AppData\Local\Temp\ccZDnRts.s 			page 3


  51:usb_uart.c    **** */
  52:usb_uart.c    **** /*
  53:usb_uart.c    **** *   In cyapicallbacks.h defined enabling of USBUART_EP_2_ISR_EntryCallback,
  54:usb_uart.c    **** *   this is the call back function
  55:usb_uart.c    **** */
  56:usb_uart.c    **** void USBUART_EP_2_ISR_EntryCallback(void)
  57:usb_uart.c    **** {
  65              		.loc 1 57 0
  66              		.cfi_startproc
  67              		@ args = 0, pretend = 0, frame = 0
  68              		@ frame_needed = 0, uses_anonymous_args = 0
  69 0000 08B5     		push	{r3, lr}
  70              		.cfi_def_cfa_offset 8
  71              		.cfi_offset 3, -8
  72              		.cfi_offset 14, -4
  58:usb_uart.c    ****     if (0u != USBUART_IsConfigurationChanged())
  73              		.loc 1 58 0
  74 0002 FFF7FEFF 		bl	USBUART_IsConfigurationChanged
  75              	.LVL4:
  76 0006 20B1     		cbz	r0, .L4
  59:usb_uart.c    ****     {
  60:usb_uart.c    ****         /* Initialize IN endpoints when device is configured. */
  61:usb_uart.c    ****         if (0u != USBUART_GetConfiguration())
  77              		.loc 1 61 0
  78 0008 FFF7FEFF 		bl	USBUART_GetConfiguration
  79              	.LVL5:
  80 000c 08B1     		cbz	r0, .L4
  62:usb_uart.c    ****         {
  63:usb_uart.c    ****             /* Enumeration is done, enable OUT endpoint to receive data 
  64:usb_uart.c    ****              * from host. */
  65:usb_uart.c    ****             USBUART_CDC_Init();
  81              		.loc 1 65 0
  82 000e FFF7FEFF 		bl	USBUART_CDC_Init
  83              	.LVL6:
  84              	.L4:
  85 0012 08BD     		pop	{r3, pc}
  86              		.cfi_endproc
  87              	.LFE65:
  88              		.size	USBUART_EP_2_ISR_EntryCallback, .-USBUART_EP_2_ISR_EntryCallback
  89              		.section	.text.USBUART_EP_3_ISR_ExitCallback,"ax",%progbits
  90              		.align	2
  91              		.global	USBUART_EP_3_ISR_ExitCallback
  92              		.thumb
  93              		.thumb_func
  94              		.type	USBUART_EP_3_ISR_ExitCallback, %function
  95              	USBUART_EP_3_ISR_ExitCallback:
  96              	.LFB66:
  66:usb_uart.c    ****         }
  67:usb_uart.c    ****     }
  68:usb_uart.c    **** }
  69:usb_uart.c    **** 
  70:usb_uart.c    **** /*
  71:usb_uart.c    **** *   In cyapicallbacks.h defined enabling of USBUART_EP_3_ISR_ExitCallback,
  72:usb_uart.c    **** *   this is the call back function
  73:usb_uart.c    **** */
  74:usb_uart.c    **** void USBUART_EP_3_ISR_ExitCallback(void)
  75:usb_uart.c    **** {
ARM GAS  C:\Users\ingan\AppData\Local\Temp\ccZDnRts.s 			page 4


  97              		.loc 1 75 0
  98              		.cfi_startproc
  99              		@ args = 0, pretend = 0, frame = 0
 100              		@ frame_needed = 0, uses_anonymous_args = 0
 101 0000 08B5     		push	{r3, lr}
 102              		.cfi_def_cfa_offset 8
 103              		.cfi_offset 3, -8
 104              		.cfi_offset 14, -4
  76:usb_uart.c    ****     /* Service USB CDC when device is configured. */
  77:usb_uart.c    ****     if (0u != USBUART_GetConfiguration())
 105              		.loc 1 77 0
 106 0002 FFF7FEFF 		bl	USBUART_GetConfiguration
 107              	.LVL7:
 108 0006 28B1     		cbz	r0, .L7
  78:usb_uart.c    ****     {
  79:usb_uart.c    ****         /* Check for input data from host. */
  80:usb_uart.c    ****         if (0u != USBUART_DataIsReady())
 109              		.loc 1 80 0
 110 0008 FFF7FEFF 		bl	USBUART_DataIsReady
 111              	.LVL8:
 112 000c 10B1     		cbz	r0, .L7
  81:usb_uart.c    ****         {
  82:usb_uart.c    ****                 /* Read received data and re-enable OUT endpoint. */
  83:usb_uart.c    ****                 //count = USBUART_GetAll(bufPtr);
  84:usb_uart.c    ****                 rx_flag = 1;
 113              		.loc 1 84 0
 114 000e 0122     		movs	r2, #1
 115 0010 014B     		ldr	r3, .L10
 116 0012 1A70     		strb	r2, [r3]
 117              	.L7:
 118 0014 08BD     		pop	{r3, pc}
 119              	.L11:
 120 0016 00BF     		.align	2
 121              	.L10:
 122 0018 00000000 		.word	.LANCHOR0
 123              		.cfi_endproc
 124              	.LFE66:
 125              		.size	USBUART_EP_3_ISR_ExitCallback, .-USBUART_EP_3_ISR_ExitCallback
 126              		.section	.text.usbuart_putstring,"ax",%progbits
 127              		.align	2
 128              		.global	usbuart_putstring
 129              		.thumb
 130              		.thumb_func
 131              		.type	usbuart_putstring, %function
 132              	usbuart_putstring:
 133              	.LFB67:
  85:usb_uart.c    ****         }
  86:usb_uart.c    ****     }
  87:usb_uart.c    **** }
  88:usb_uart.c    **** 
  89:usb_uart.c    **** void usbuart_putstring(char *str)
  90:usb_uart.c    **** {
 134              		.loc 1 90 0
 135              		.cfi_startproc
 136              		@ args = 0, pretend = 0, frame = 0
 137              		@ frame_needed = 0, uses_anonymous_args = 0
 138              	.LVL9:
ARM GAS  C:\Users\ingan\AppData\Local\Temp\ccZDnRts.s 			page 5


 139 0000 10B5     		push	{r4, lr}
 140              		.cfi_def_cfa_offset 8
 141              		.cfi_offset 4, -8
 142              		.cfi_offset 14, -4
 143 0002 0446     		mov	r4, r0
 144              	.LVL10:
 145              	.L13:
  91:usb_uart.c    ****     /* Wait until component is ready to send data to host. */
  92:usb_uart.c    ****     while (0u == USBUART_CDCIsReady())
 146              		.loc 1 92 0 discriminator 1
 147 0004 FFF7FEFF 		bl	USBUART_CDCIsReady
 148              	.LVL11:
 149 0008 0028     		cmp	r0, #0
 150 000a FBD0     		beq	.L13
  93:usb_uart.c    ****     {
  94:usb_uart.c    ****     }
  95:usb_uart.c    ****     USBUART_PutString(str);
 151              		.loc 1 95 0
 152 000c 2046     		mov	r0, r4
 153 000e FFF7FEFF 		bl	USBUART_PutString
 154              	.LVL12:
 155 0012 10BD     		pop	{r4, pc}
 156              		.cfi_endproc
 157              	.LFE67:
 158              		.size	usbuart_putstring, .-usbuart_putstring
 159              		.section	.text.usbuart_puteol,"ax",%progbits
 160              		.align	2
 161              		.global	usbuart_puteol
 162              		.thumb
 163              		.thumb_func
 164              		.type	usbuart_puteol, %function
 165              	usbuart_puteol:
 166              	.LFB68:
  96:usb_uart.c    **** }
  97:usb_uart.c    **** 
  98:usb_uart.c    **** void usbuart_puteol(void)
  99:usb_uart.c    **** {
 167              		.loc 1 99 0
 168              		.cfi_startproc
 169              		@ args = 0, pretend = 0, frame = 0
 170              		@ frame_needed = 0, uses_anonymous_args = 0
 171 0000 08B5     		push	{r3, lr}
 172              		.cfi_def_cfa_offset 8
 173              		.cfi_offset 3, -8
 174              		.cfi_offset 14, -4
 175              	.L16:
 100:usb_uart.c    ****     /* Wait until component is ready to send data to host. */
 101:usb_uart.c    ****     while (0u == USBUART_CDCIsReady())
 176              		.loc 1 101 0 discriminator 1
 177 0002 FFF7FEFF 		bl	USBUART_CDCIsReady
 178              	.LVL13:
 179 0006 0028     		cmp	r0, #0
 180 0008 FBD0     		beq	.L16
 102:usb_uart.c    ****     {
 103:usb_uart.c    ****     }
 104:usb_uart.c    ****     USBUART_PutCRLF() ;
 181              		.loc 1 104 0
ARM GAS  C:\Users\ingan\AppData\Local\Temp\ccZDnRts.s 			page 6


 182 000a FFF7FEFF 		bl	USBUART_PutCRLF
 183              	.LVL14:
 184 000e 08BD     		pop	{r3, pc}
 185              		.cfi_endproc
 186              	.LFE68:
 187              		.size	usbuart_puteol, .-usbuart_puteol
 188              		.section	.text.usbuart_putchar,"ax",%progbits
 189              		.align	2
 190              		.global	usbuart_putchar
 191              		.thumb
 192              		.thumb_func
 193              		.type	usbuart_putchar, %function
 194              	usbuart_putchar:
 195              	.LFB69:
 105:usb_uart.c    **** }
 106:usb_uart.c    **** 
 107:usb_uart.c    **** void usbuart_putchar(char c)
 108:usb_uart.c    **** {
 196              		.loc 1 108 0
 197              		.cfi_startproc
 198              		@ args = 0, pretend = 0, frame = 0
 199              		@ frame_needed = 0, uses_anonymous_args = 0
 200              	.LVL15:
 201 0000 10B5     		push	{r4, lr}
 202              		.cfi_def_cfa_offset 8
 203              		.cfi_offset 4, -8
 204              		.cfi_offset 14, -4
 205 0002 0446     		mov	r4, r0
 206              	.LVL16:
 207              	.L19:
 109:usb_uart.c    ****     /* Wait until component is ready to send data to host. */
 110:usb_uart.c    ****     while (0u == USBUART_CDCIsReady())
 208              		.loc 1 110 0 discriminator 1
 209 0004 FFF7FEFF 		bl	USBUART_CDCIsReady
 210              	.LVL17:
 211 0008 0028     		cmp	r0, #0
 212 000a FBD0     		beq	.L19
 111:usb_uart.c    ****     {
 112:usb_uart.c    ****     }
 113:usb_uart.c    ****     USBUART_PutChar(c);
 213              		.loc 1 113 0
 214 000c 2046     		mov	r0, r4
 215 000e FFF7FEFF 		bl	USBUART_PutChar
 216              	.LVL18:
 217 0012 10BD     		pop	{r4, pc}
 218              		.cfi_endproc
 219              	.LFE69:
 220              		.size	usbuart_putchar, .-usbuart_putchar
 221              		.global	EP1
 222              		.global	EP3
 223              		.global	rx_flag
 224              		.data
 225              		.align	2
 226              		.type	EP1, %object
 227              		.size	EP1, 4
 228              	EP1:
 229 0000 00000000 		.word	.LC0
ARM GAS  C:\Users\ingan\AppData\Local\Temp\ccZDnRts.s 			page 7


 230              		.type	EP3, %object
 231              		.size	EP3, 4
 232              	EP3:
 233 0004 20000000 		.word	.LC1
 234              		.section	.rodata.str1.4,"aMS",%progbits,1
 235              		.align	2
 236              	.LC0:
 237 0000 55534255 		.ascii	"USBUart EP 1 ISR Exit Callback \000"
 237      61727420 
 237      45502031 
 237      20495352 
 237      20457869 
 238              	.LC1:
 239 0020 55534255 		.ascii	"USBUart EP 3 ISR Exit Callback \000"
 239      61727420 
 239      45502033 
 239      20495352 
 239      20457869 
 240              		.bss
 241              		.set	.LANCHOR0,. + 0
 242              		.type	rx_flag, %object
 243              		.size	rx_flag, 1
 244              	rx_flag:
 245 0000 00       		.space	1
 246              		.text
 247              	.Letext0:
 248              		.file 2 "c:\\program files (x86)\\cypress\\psoc creator\\4.2\\psoc creator\\import\\gnu\\arm\\5.4.
 249              		.file 3 "c:\\program files (x86)\\cypress\\psoc creator\\4.2\\psoc creator\\import\\gnu\\arm\\5.4.
 250              		.file 4 "Generated_Source\\PSoC5/core_cm3.h"
 251              		.file 5 "Generated_Source\\PSoC5/USBUART.h"
 252              		.file 6 "Generated_Source\\PSoC5/USBUART_cdc.h"