ARM GAS  C:\Users\ingan\AppData\Local\Temp\ccPtKCQI.s 			page 1


   1              		.syntax unified
   2              		.cpu cortex-m3
   3              		.fpu softvfp
   4              		.eabi_attribute 20, 1
   5              		.eabi_attribute 21, 1
   6              		.eabi_attribute 23, 3
   7              		.eabi_attribute 24, 1
   8              		.eabi_attribute 25, 1
   9              		.eabi_attribute 26, 1
  10              		.eabi_attribute 30, 1
  11              		.eabi_attribute 34, 1
  12              		.eabi_attribute 18, 4
  13              		.thumb
  14              		.syntax unified
  15              		.file	"USBUART_std.c"
  16              		.text
  17              	.Ltext0:
  18              		.cfi_sections	.debug_frame
  19              		.section	.text.USBUART_ReadDieID,"ax",%progbits
  20              		.align	2
  21              		.global	USBUART_ReadDieID
  22              		.thumb
  23              		.thumb_func
  24              		.type	USBUART_ReadDieID, %function
  25              	USBUART_ReadDieID:
  26              	.LFB1:
  27              		.file 1 "Generated_Source\\PSoC5\\USBUART_std.c"
   1:Generated_Source\PSoC5/USBUART_std.c **** /***************************************************************************//**
   2:Generated_Source\PSoC5/USBUART_std.c **** * \file USBUART_std.c
   3:Generated_Source\PSoC5/USBUART_std.c **** * \version 3.20
   4:Generated_Source\PSoC5/USBUART_std.c **** *
   5:Generated_Source\PSoC5/USBUART_std.c **** * \brief
   6:Generated_Source\PSoC5/USBUART_std.c **** *  This file contains the USB Standard request handler.
   7:Generated_Source\PSoC5/USBUART_std.c **** *
   8:Generated_Source\PSoC5/USBUART_std.c **** ********************************************************************************
   9:Generated_Source\PSoC5/USBUART_std.c **** * \copyright
  10:Generated_Source\PSoC5/USBUART_std.c **** * Copyright 2008-2016, Cypress Semiconductor Corporation.  All rights reserved.
  11:Generated_Source\PSoC5/USBUART_std.c **** * You may use this file only in accordance with the license, terms, conditions,
  12:Generated_Source\PSoC5/USBUART_std.c **** * disclaimers, and limitations in the end user license agreement accompanying
  13:Generated_Source\PSoC5/USBUART_std.c **** * the software package with which this file was provided.
  14:Generated_Source\PSoC5/USBUART_std.c **** *******************************************************************************/
  15:Generated_Source\PSoC5/USBUART_std.c **** 
  16:Generated_Source\PSoC5/USBUART_std.c **** #include "USBUART_pvt.h"
  17:Generated_Source\PSoC5/USBUART_std.c **** 
  18:Generated_Source\PSoC5/USBUART_std.c **** /***************************************
  19:Generated_Source\PSoC5/USBUART_std.c **** *   Static data allocation
  20:Generated_Source\PSoC5/USBUART_std.c **** ***************************************/
  21:Generated_Source\PSoC5/USBUART_std.c **** 
  22:Generated_Source\PSoC5/USBUART_std.c **** #if defined(USBUART_ENABLE_FWSN_STRING)
  23:Generated_Source\PSoC5/USBUART_std.c ****     static volatile uint8* USBUART_fwSerialNumberStringDescriptor;
  24:Generated_Source\PSoC5/USBUART_std.c ****     static volatile uint8  USBUART_snStringConfirm = USBUART_FALSE;
  25:Generated_Source\PSoC5/USBUART_std.c **** #endif  /* (USBUART_ENABLE_FWSN_STRING) */
  26:Generated_Source\PSoC5/USBUART_std.c **** 
  27:Generated_Source\PSoC5/USBUART_std.c **** #if defined(USBUART_ENABLE_FWSN_STRING)
  28:Generated_Source\PSoC5/USBUART_std.c ****     /***************************************************************************
  29:Generated_Source\PSoC5/USBUART_std.c ****     * Function Name: USBUART_SerialNumString
  30:Generated_Source\PSoC5/USBUART_std.c ****     ************************************************************************//**
ARM GAS  C:\Users\ingan\AppData\Local\Temp\ccPtKCQI.s 			page 2


  31:Generated_Source\PSoC5/USBUART_std.c ****     *
  32:Generated_Source\PSoC5/USBUART_std.c ****     *  This function is available only when the User Call Back option in the 
  33:Generated_Source\PSoC5/USBUART_std.c ****     *  Serial Number String descriptor properties is selected. Application 
  34:Generated_Source\PSoC5/USBUART_std.c ****     *  firmware can provide the source of the USB device serial number string 
  35:Generated_Source\PSoC5/USBUART_std.c ****     *  descriptor during run time. The default string is used if the application 
  36:Generated_Source\PSoC5/USBUART_std.c ****     *  firmware does not use this function or sets the wrong string descriptor.
  37:Generated_Source\PSoC5/USBUART_std.c ****     *
  38:Generated_Source\PSoC5/USBUART_std.c ****     *  \param snString:  Pointer to the user-defined string descriptor. The 
  39:Generated_Source\PSoC5/USBUART_std.c ****     *  string descriptor should meet the Universal Serial Bus Specification 
  40:Generated_Source\PSoC5/USBUART_std.c ****     *  revision 2.0 chapter 9.6.7
  41:Generated_Source\PSoC5/USBUART_std.c ****     *  Offset|Size|Value|Description
  42:Generated_Source\PSoC5/USBUART_std.c ****     *  ------|----|------|---------------------------------
  43:Generated_Source\PSoC5/USBUART_std.c ****     *  0     |1   |N     |Size of this descriptor in bytes
  44:Generated_Source\PSoC5/USBUART_std.c ****     *  1     |1   |0x03  |STRING Descriptor Type
  45:Generated_Source\PSoC5/USBUART_std.c ****     *  2     |N-2 |Number|UNICODE encoded string
  46:Generated_Source\PSoC5/USBUART_std.c ****     *  
  47:Generated_Source\PSoC5/USBUART_std.c ****     * *For example:* uint8 snString[16]={0x0E,0x03,'F',0,'W',0,'S',0,'N',0,'0',0,'1',0};
  48:Generated_Source\PSoC5/USBUART_std.c ****     *
  49:Generated_Source\PSoC5/USBUART_std.c ****     * \reentrant
  50:Generated_Source\PSoC5/USBUART_std.c ****     *  No.
  51:Generated_Source\PSoC5/USBUART_std.c ****     *
  52:Generated_Source\PSoC5/USBUART_std.c ****     ***************************************************************************/
  53:Generated_Source\PSoC5/USBUART_std.c ****     void  USBUART_SerialNumString(uint8 snString[]) 
  54:Generated_Source\PSoC5/USBUART_std.c ****     {
  55:Generated_Source\PSoC5/USBUART_std.c ****         USBUART_snStringConfirm = USBUART_FALSE;
  56:Generated_Source\PSoC5/USBUART_std.c ****         
  57:Generated_Source\PSoC5/USBUART_std.c ****         if (snString != NULL)
  58:Generated_Source\PSoC5/USBUART_std.c ****         {
  59:Generated_Source\PSoC5/USBUART_std.c ****             /* Check descriptor validation */
  60:Generated_Source\PSoC5/USBUART_std.c ****             if ((snString[0u] > 1u) && (snString[1u] == USBUART_DESCR_STRING))
  61:Generated_Source\PSoC5/USBUART_std.c ****             {
  62:Generated_Source\PSoC5/USBUART_std.c ****                 USBUART_fwSerialNumberStringDescriptor = snString;
  63:Generated_Source\PSoC5/USBUART_std.c ****                 USBUART_snStringConfirm = USBUART_TRUE;
  64:Generated_Source\PSoC5/USBUART_std.c ****             }
  65:Generated_Source\PSoC5/USBUART_std.c ****         }
  66:Generated_Source\PSoC5/USBUART_std.c ****     }
  67:Generated_Source\PSoC5/USBUART_std.c **** #endif  /* USBUART_ENABLE_FWSN_STRING */
  68:Generated_Source\PSoC5/USBUART_std.c **** 
  69:Generated_Source\PSoC5/USBUART_std.c **** 
  70:Generated_Source\PSoC5/USBUART_std.c **** /*******************************************************************************
  71:Generated_Source\PSoC5/USBUART_std.c **** * Function Name: USBUART_HandleStandardRqst
  72:Generated_Source\PSoC5/USBUART_std.c **** ****************************************************************************//**
  73:Generated_Source\PSoC5/USBUART_std.c **** *
  74:Generated_Source\PSoC5/USBUART_std.c **** *  This Routine dispatches standard requests
  75:Generated_Source\PSoC5/USBUART_std.c **** *
  76:Generated_Source\PSoC5/USBUART_std.c **** *
  77:Generated_Source\PSoC5/USBUART_std.c **** * \return
  78:Generated_Source\PSoC5/USBUART_std.c **** *  TRUE if request handled.
  79:Generated_Source\PSoC5/USBUART_std.c **** *
  80:Generated_Source\PSoC5/USBUART_std.c **** * \reentrant
  81:Generated_Source\PSoC5/USBUART_std.c **** *  No.
  82:Generated_Source\PSoC5/USBUART_std.c **** *
  83:Generated_Source\PSoC5/USBUART_std.c **** *******************************************************************************/
  84:Generated_Source\PSoC5/USBUART_std.c **** uint8 USBUART_HandleStandardRqst(void) 
  85:Generated_Source\PSoC5/USBUART_std.c **** {
  86:Generated_Source\PSoC5/USBUART_std.c ****     uint8 requestHandled = USBUART_FALSE;
  87:Generated_Source\PSoC5/USBUART_std.c ****     uint8 interfaceNumber;
ARM GAS  C:\Users\ingan\AppData\Local\Temp\ccPtKCQI.s 			page 3


  88:Generated_Source\PSoC5/USBUART_std.c ****     uint8 configurationN;
  89:Generated_Source\PSoC5/USBUART_std.c ****     uint8 bmRequestType = USBUART_bmRequestTypeReg;
  90:Generated_Source\PSoC5/USBUART_std.c **** 
  91:Generated_Source\PSoC5/USBUART_std.c **** #if defined(USBUART_ENABLE_STRINGS)
  92:Generated_Source\PSoC5/USBUART_std.c ****     volatile uint8 *pStr = 0u;
  93:Generated_Source\PSoC5/USBUART_std.c ****     #if defined(USBUART_ENABLE_DESCRIPTOR_STRINGS)
  94:Generated_Source\PSoC5/USBUART_std.c ****         uint8 nStr;
  95:Generated_Source\PSoC5/USBUART_std.c ****         uint8 descrLength;
  96:Generated_Source\PSoC5/USBUART_std.c ****     #endif /* (USBUART_ENABLE_DESCRIPTOR_STRINGS) */
  97:Generated_Source\PSoC5/USBUART_std.c **** #endif /* (USBUART_ENABLE_STRINGS) */
  98:Generated_Source\PSoC5/USBUART_std.c ****     
  99:Generated_Source\PSoC5/USBUART_std.c ****     static volatile uint8 USBUART_tBuffer[USBUART_STATUS_LENGTH_MAX];
 100:Generated_Source\PSoC5/USBUART_std.c ****     const T_USBUART_LUT CYCODE *pTmp;
 101:Generated_Source\PSoC5/USBUART_std.c **** 
 102:Generated_Source\PSoC5/USBUART_std.c ****     USBUART_currentTD.count = 0u;
 103:Generated_Source\PSoC5/USBUART_std.c **** 
 104:Generated_Source\PSoC5/USBUART_std.c ****     if (USBUART_RQST_DIR_D2H == (bmRequestType & USBUART_RQST_DIR_MASK))
 105:Generated_Source\PSoC5/USBUART_std.c ****     {
 106:Generated_Source\PSoC5/USBUART_std.c ****         /* Control Read */
 107:Generated_Source\PSoC5/USBUART_std.c ****         switch (USBUART_bRequestReg)
 108:Generated_Source\PSoC5/USBUART_std.c ****         {
 109:Generated_Source\PSoC5/USBUART_std.c ****             case USBUART_GET_DESCRIPTOR:
 110:Generated_Source\PSoC5/USBUART_std.c ****                 if (USBUART_DESCR_DEVICE ==USBUART_wValueHiReg)
 111:Generated_Source\PSoC5/USBUART_std.c ****                 {
 112:Generated_Source\PSoC5/USBUART_std.c ****                     pTmp = USBUART_GetDeviceTablePtr();
 113:Generated_Source\PSoC5/USBUART_std.c ****                     USBUART_currentTD.pData = (volatile uint8 *)pTmp->p_list;
 114:Generated_Source\PSoC5/USBUART_std.c ****                     USBUART_currentTD.count = USBUART_DEVICE_DESCR_LENGTH;
 115:Generated_Source\PSoC5/USBUART_std.c ****                     
 116:Generated_Source\PSoC5/USBUART_std.c ****                     requestHandled  = USBUART_InitControlRead();
 117:Generated_Source\PSoC5/USBUART_std.c ****                 }
 118:Generated_Source\PSoC5/USBUART_std.c ****                 else if (USBUART_DESCR_CONFIG == USBUART_wValueHiReg)
 119:Generated_Source\PSoC5/USBUART_std.c ****                 {
 120:Generated_Source\PSoC5/USBUART_std.c ****                     pTmp = USBUART_GetConfigTablePtr((uint8) USBUART_wValueLoReg);
 121:Generated_Source\PSoC5/USBUART_std.c ****                     
 122:Generated_Source\PSoC5/USBUART_std.c ****                     /* Verify that requested descriptor exists */
 123:Generated_Source\PSoC5/USBUART_std.c ****                     if (pTmp != NULL)
 124:Generated_Source\PSoC5/USBUART_std.c ****                     {
 125:Generated_Source\PSoC5/USBUART_std.c ****                         USBUART_currentTD.pData = (volatile uint8 *)pTmp->p_list;
 126:Generated_Source\PSoC5/USBUART_std.c ****                         USBUART_currentTD.count = (uint16)((uint16)(USBUART_currentTD.pData)[USBUAR
 127:Generated_Source\PSoC5/USBUART_std.c ****                                                                             (USBUART_currentTD.pDat
 128:Generated_Source\PSoC5/USBUART_std.c ****                         requestHandled  = USBUART_InitControlRead();
 129:Generated_Source\PSoC5/USBUART_std.c ****                     }
 130:Generated_Source\PSoC5/USBUART_std.c ****                 }
 131:Generated_Source\PSoC5/USBUART_std.c ****                 
 132:Generated_Source\PSoC5/USBUART_std.c ****             #if(USBUART_BOS_ENABLE)
 133:Generated_Source\PSoC5/USBUART_std.c ****                 else if (USBUART_DESCR_BOS == USBUART_wValueHiReg)
 134:Generated_Source\PSoC5/USBUART_std.c ****                 {
 135:Generated_Source\PSoC5/USBUART_std.c ****                     pTmp = USBUART_GetBOSPtr();
 136:Generated_Source\PSoC5/USBUART_std.c ****                     
 137:Generated_Source\PSoC5/USBUART_std.c ****                     /* Verify that requested descriptor exists */
 138:Generated_Source\PSoC5/USBUART_std.c ****                     if (pTmp != NULL)
 139:Generated_Source\PSoC5/USBUART_std.c ****                     {
 140:Generated_Source\PSoC5/USBUART_std.c ****                         USBUART_currentTD.pData = (volatile uint8 *)pTmp;
 141:Generated_Source\PSoC5/USBUART_std.c ****                         USBUART_currentTD.count = ((uint16)((uint16)(USBUART_currentTD.pData)[USBUA
 142:Generated_Source\PSoC5/USBUART_std.c ****                                                                              (USBUART_currentTD.pDa
 143:Generated_Source\PSoC5/USBUART_std.c ****                         requestHandled  = USBUART_InitControlRead();
 144:Generated_Source\PSoC5/USBUART_std.c ****                     }
ARM GAS  C:\Users\ingan\AppData\Local\Temp\ccPtKCQI.s 			page 4


 145:Generated_Source\PSoC5/USBUART_std.c ****                 }
 146:Generated_Source\PSoC5/USBUART_std.c ****             #endif /*(USBUART_BOS_ENABLE)*/
 147:Generated_Source\PSoC5/USBUART_std.c ****             
 148:Generated_Source\PSoC5/USBUART_std.c ****             #if defined(USBUART_ENABLE_STRINGS)
 149:Generated_Source\PSoC5/USBUART_std.c ****                 else if (USBUART_DESCR_STRING == USBUART_wValueHiReg)
 150:Generated_Source\PSoC5/USBUART_std.c ****                 {
 151:Generated_Source\PSoC5/USBUART_std.c ****                 /* Descriptor Strings */
 152:Generated_Source\PSoC5/USBUART_std.c ****                 #if defined(USBUART_ENABLE_DESCRIPTOR_STRINGS)
 153:Generated_Source\PSoC5/USBUART_std.c ****                     nStr = 0u;
 154:Generated_Source\PSoC5/USBUART_std.c ****                     pStr = (volatile uint8 *) &USBUART_STRING_DESCRIPTORS[0u];
 155:Generated_Source\PSoC5/USBUART_std.c ****                     
 156:Generated_Source\PSoC5/USBUART_std.c ****                     while ((USBUART_wValueLoReg > nStr) && (*pStr != 0u))
 157:Generated_Source\PSoC5/USBUART_std.c ****                     {
 158:Generated_Source\PSoC5/USBUART_std.c ****                         /* Read descriptor length from 1st byte */
 159:Generated_Source\PSoC5/USBUART_std.c ****                         descrLength = *pStr;
 160:Generated_Source\PSoC5/USBUART_std.c ****                         /* Move to next string descriptor */
 161:Generated_Source\PSoC5/USBUART_std.c ****                         pStr = &pStr[descrLength];
 162:Generated_Source\PSoC5/USBUART_std.c ****                         nStr++;
 163:Generated_Source\PSoC5/USBUART_std.c ****                     }
 164:Generated_Source\PSoC5/USBUART_std.c ****                 #endif /* (USBUART_ENABLE_DESCRIPTOR_STRINGS) */
 165:Generated_Source\PSoC5/USBUART_std.c ****                 
 166:Generated_Source\PSoC5/USBUART_std.c ****                 /* Microsoft OS String */
 167:Generated_Source\PSoC5/USBUART_std.c ****                 #if defined(USBUART_ENABLE_MSOS_STRING)
 168:Generated_Source\PSoC5/USBUART_std.c ****                     if (USBUART_STRING_MSOS == USBUART_wValueLoReg)
 169:Generated_Source\PSoC5/USBUART_std.c ****                     {
 170:Generated_Source\PSoC5/USBUART_std.c ****                         pStr = (volatile uint8 *)& USBUART_MSOS_DESCRIPTOR[0u];
 171:Generated_Source\PSoC5/USBUART_std.c ****                     }
 172:Generated_Source\PSoC5/USBUART_std.c ****                 #endif /* (USBUART_ENABLE_MSOS_STRING) */
 173:Generated_Source\PSoC5/USBUART_std.c ****                 
 174:Generated_Source\PSoC5/USBUART_std.c ****                 /* SN string */
 175:Generated_Source\PSoC5/USBUART_std.c ****                 #if defined(USBUART_ENABLE_SN_STRING)
 176:Generated_Source\PSoC5/USBUART_std.c ****                     if ((USBUART_wValueLoReg != 0u) && 
 177:Generated_Source\PSoC5/USBUART_std.c ****                         (USBUART_wValueLoReg == USBUART_DEVICE0_DESCR[USBUART_DEVICE_DESCR_SN_SHIFT
 178:Generated_Source\PSoC5/USBUART_std.c ****                     {
 179:Generated_Source\PSoC5/USBUART_std.c ****                     #if defined(USBUART_ENABLE_IDSN_STRING)
 180:Generated_Source\PSoC5/USBUART_std.c ****                         /* Read DIE ID and generate string descriptor in RAM */
 181:Generated_Source\PSoC5/USBUART_std.c ****                         USBUART_ReadDieID(USBUART_idSerialNumberStringDescriptor);
 182:Generated_Source\PSoC5/USBUART_std.c ****                         pStr = USBUART_idSerialNumberStringDescriptor;
 183:Generated_Source\PSoC5/USBUART_std.c ****                     #elif defined(USBUART_ENABLE_FWSN_STRING)
 184:Generated_Source\PSoC5/USBUART_std.c ****                         
 185:Generated_Source\PSoC5/USBUART_std.c ****                         if(USBUART_snStringConfirm != USBUART_FALSE)
 186:Generated_Source\PSoC5/USBUART_std.c ****                         {
 187:Generated_Source\PSoC5/USBUART_std.c ****                             pStr = USBUART_fwSerialNumberStringDescriptor;
 188:Generated_Source\PSoC5/USBUART_std.c ****                         }
 189:Generated_Source\PSoC5/USBUART_std.c ****                         else
 190:Generated_Source\PSoC5/USBUART_std.c ****                         {
 191:Generated_Source\PSoC5/USBUART_std.c ****                             pStr = (volatile uint8 *)&USBUART_SN_STRING_DESCRIPTOR[0u];
 192:Generated_Source\PSoC5/USBUART_std.c ****                         }
 193:Generated_Source\PSoC5/USBUART_std.c ****                     #else
 194:Generated_Source\PSoC5/USBUART_std.c ****                         pStr = (volatile uint8 *)&USBUART_SN_STRING_DESCRIPTOR[0u];
 195:Generated_Source\PSoC5/USBUART_std.c ****                     #endif  /* (USBUART_ENABLE_IDSN_STRING) */
 196:Generated_Source\PSoC5/USBUART_std.c ****                     }
 197:Generated_Source\PSoC5/USBUART_std.c ****                 #endif /* (USBUART_ENABLE_SN_STRING) */
 198:Generated_Source\PSoC5/USBUART_std.c ****                 
 199:Generated_Source\PSoC5/USBUART_std.c ****                     if (*pStr != 0u)
 200:Generated_Source\PSoC5/USBUART_std.c ****                     {
 201:Generated_Source\PSoC5/USBUART_std.c ****                         USBUART_currentTD.count = *pStr;
ARM GAS  C:\Users\ingan\AppData\Local\Temp\ccPtKCQI.s 			page 5


 202:Generated_Source\PSoC5/USBUART_std.c ****                         USBUART_currentTD.pData = pStr;
 203:Generated_Source\PSoC5/USBUART_std.c ****                         requestHandled  = USBUART_InitControlRead();
 204:Generated_Source\PSoC5/USBUART_std.c ****                     }
 205:Generated_Source\PSoC5/USBUART_std.c ****                 }
 206:Generated_Source\PSoC5/USBUART_std.c ****             #endif /*  USBUART_ENABLE_STRINGS */
 207:Generated_Source\PSoC5/USBUART_std.c ****                 else
 208:Generated_Source\PSoC5/USBUART_std.c ****                 {
 209:Generated_Source\PSoC5/USBUART_std.c ****                     requestHandled = USBUART_DispatchClassRqst();
 210:Generated_Source\PSoC5/USBUART_std.c ****                 }
 211:Generated_Source\PSoC5/USBUART_std.c ****                 break;
 212:Generated_Source\PSoC5/USBUART_std.c ****                 
 213:Generated_Source\PSoC5/USBUART_std.c ****             case USBUART_GET_STATUS:
 214:Generated_Source\PSoC5/USBUART_std.c ****                 switch (bmRequestType & USBUART_RQST_RCPT_MASK)
 215:Generated_Source\PSoC5/USBUART_std.c ****                 {
 216:Generated_Source\PSoC5/USBUART_std.c ****                     case USBUART_RQST_RCPT_EP:
 217:Generated_Source\PSoC5/USBUART_std.c ****                         USBUART_currentTD.count = USBUART_EP_STATUS_LENGTH;
 218:Generated_Source\PSoC5/USBUART_std.c ****                         USBUART_tBuffer[0u]     = USBUART_EP[USBUART_wIndexLoReg & USBUART_DIR_UNUS
 219:Generated_Source\PSoC5/USBUART_std.c ****                         USBUART_tBuffer[1u]     = 0u;
 220:Generated_Source\PSoC5/USBUART_std.c ****                         USBUART_currentTD.pData = &USBUART_tBuffer[0u];
 221:Generated_Source\PSoC5/USBUART_std.c ****                         
 222:Generated_Source\PSoC5/USBUART_std.c ****                         requestHandled  = USBUART_InitControlRead();
 223:Generated_Source\PSoC5/USBUART_std.c ****                         break;
 224:Generated_Source\PSoC5/USBUART_std.c ****                     case USBUART_RQST_RCPT_DEV:
 225:Generated_Source\PSoC5/USBUART_std.c ****                         USBUART_currentTD.count = USBUART_DEVICE_STATUS_LENGTH;
 226:Generated_Source\PSoC5/USBUART_std.c ****                         USBUART_tBuffer[0u]     = USBUART_deviceStatus;
 227:Generated_Source\PSoC5/USBUART_std.c ****                         USBUART_tBuffer[1u]     = 0u;
 228:Generated_Source\PSoC5/USBUART_std.c ****                         USBUART_currentTD.pData = &USBUART_tBuffer[0u];
 229:Generated_Source\PSoC5/USBUART_std.c ****                         
 230:Generated_Source\PSoC5/USBUART_std.c ****                         requestHandled  = USBUART_InitControlRead();
 231:Generated_Source\PSoC5/USBUART_std.c ****                         break;
 232:Generated_Source\PSoC5/USBUART_std.c ****                     default:    /* requestHandled is initialized as FALSE by default */
 233:Generated_Source\PSoC5/USBUART_std.c ****                         break;
 234:Generated_Source\PSoC5/USBUART_std.c ****                 }
 235:Generated_Source\PSoC5/USBUART_std.c ****                 break;
 236:Generated_Source\PSoC5/USBUART_std.c ****                 
 237:Generated_Source\PSoC5/USBUART_std.c ****             case USBUART_GET_CONFIGURATION:
 238:Generated_Source\PSoC5/USBUART_std.c ****                 USBUART_currentTD.count = 1u;
 239:Generated_Source\PSoC5/USBUART_std.c ****                 USBUART_currentTD.pData = (volatile uint8 *) &USBUART_configuration;
 240:Generated_Source\PSoC5/USBUART_std.c ****                 requestHandled  = USBUART_InitControlRead();
 241:Generated_Source\PSoC5/USBUART_std.c ****                 break;
 242:Generated_Source\PSoC5/USBUART_std.c ****                 
 243:Generated_Source\PSoC5/USBUART_std.c ****             case USBUART_GET_INTERFACE:
 244:Generated_Source\PSoC5/USBUART_std.c ****                 USBUART_currentTD.count = 1u;
 245:Generated_Source\PSoC5/USBUART_std.c ****                 USBUART_currentTD.pData = (volatile uint8 *) &USBUART_interfaceSetting[USBUART_wInd
 246:Generated_Source\PSoC5/USBUART_std.c ****                 requestHandled  = USBUART_InitControlRead();
 247:Generated_Source\PSoC5/USBUART_std.c ****                 break;
 248:Generated_Source\PSoC5/USBUART_std.c ****                 
 249:Generated_Source\PSoC5/USBUART_std.c ****             default: /* requestHandled is initialized as FALSE by default */
 250:Generated_Source\PSoC5/USBUART_std.c ****                 break;
 251:Generated_Source\PSoC5/USBUART_std.c ****         }
 252:Generated_Source\PSoC5/USBUART_std.c ****     }
 253:Generated_Source\PSoC5/USBUART_std.c ****     else
 254:Generated_Source\PSoC5/USBUART_std.c ****     {
 255:Generated_Source\PSoC5/USBUART_std.c ****         /* Control Write */
 256:Generated_Source\PSoC5/USBUART_std.c ****         switch (USBUART_bRequestReg)
 257:Generated_Source\PSoC5/USBUART_std.c ****         {
 258:Generated_Source\PSoC5/USBUART_std.c ****             case USBUART_SET_ADDRESS:
ARM GAS  C:\Users\ingan\AppData\Local\Temp\ccPtKCQI.s 			page 6


 259:Generated_Source\PSoC5/USBUART_std.c ****                 /* Store address to be set in USBUART_NoDataControlStatusStage(). */
 260:Generated_Source\PSoC5/USBUART_std.c ****                 USBUART_deviceAddress = (uint8) USBUART_wValueLoReg;
 261:Generated_Source\PSoC5/USBUART_std.c ****                 requestHandled = USBUART_InitNoDataControlTransfer();
 262:Generated_Source\PSoC5/USBUART_std.c ****                 break;
 263:Generated_Source\PSoC5/USBUART_std.c ****                 
 264:Generated_Source\PSoC5/USBUART_std.c ****             case USBUART_SET_CONFIGURATION:
 265:Generated_Source\PSoC5/USBUART_std.c ****                 configurationN = USBUART_wValueLoReg;
 266:Generated_Source\PSoC5/USBUART_std.c ****                 
 267:Generated_Source\PSoC5/USBUART_std.c ****                 /* Verify that configuration descriptor exists */
 268:Generated_Source\PSoC5/USBUART_std.c ****                 if(configurationN > 0u)
 269:Generated_Source\PSoC5/USBUART_std.c ****                 {
 270:Generated_Source\PSoC5/USBUART_std.c ****                     pTmp = USBUART_GetConfigTablePtr((uint8) configurationN - 1u);
 271:Generated_Source\PSoC5/USBUART_std.c ****                 }
 272:Generated_Source\PSoC5/USBUART_std.c ****                 
 273:Generated_Source\PSoC5/USBUART_std.c ****                 /* Responds with a Request Error when configuration number is invalid */
 274:Generated_Source\PSoC5/USBUART_std.c ****                 if (((configurationN > 0u) && (pTmp != NULL)) || (configurationN == 0u))
 275:Generated_Source\PSoC5/USBUART_std.c ****                 {
 276:Generated_Source\PSoC5/USBUART_std.c ****                     /* Set new configuration if it has been changed */
 277:Generated_Source\PSoC5/USBUART_std.c ****                     if(configurationN != USBUART_configuration)
 278:Generated_Source\PSoC5/USBUART_std.c ****                     {
 279:Generated_Source\PSoC5/USBUART_std.c ****                         USBUART_configuration = (uint8) configurationN;
 280:Generated_Source\PSoC5/USBUART_std.c ****                         USBUART_configurationChanged = USBUART_TRUE;
 281:Generated_Source\PSoC5/USBUART_std.c ****                         USBUART_Config(USBUART_TRUE);
 282:Generated_Source\PSoC5/USBUART_std.c ****                     }
 283:Generated_Source\PSoC5/USBUART_std.c ****                     requestHandled = USBUART_InitNoDataControlTransfer();
 284:Generated_Source\PSoC5/USBUART_std.c ****                 }
 285:Generated_Source\PSoC5/USBUART_std.c ****                 break;
 286:Generated_Source\PSoC5/USBUART_std.c ****                 
 287:Generated_Source\PSoC5/USBUART_std.c ****             case USBUART_SET_INTERFACE:
 288:Generated_Source\PSoC5/USBUART_std.c ****                 if (0u != USBUART_ValidateAlternateSetting())
 289:Generated_Source\PSoC5/USBUART_std.c ****                 {
 290:Generated_Source\PSoC5/USBUART_std.c ****                     /* Get interface number from the request. */
 291:Generated_Source\PSoC5/USBUART_std.c ****                     interfaceNumber = USBUART_wIndexLoReg;
 292:Generated_Source\PSoC5/USBUART_std.c ****                     USBUART_interfaceNumber = (uint8) USBUART_wIndexLoReg;
 293:Generated_Source\PSoC5/USBUART_std.c ****                      
 294:Generated_Source\PSoC5/USBUART_std.c ****                     /* Check if alternate settings is changed for interface. */
 295:Generated_Source\PSoC5/USBUART_std.c ****                     if (USBUART_interfaceSettingLast[interfaceNumber] != USBUART_interfaceSetting[i
 296:Generated_Source\PSoC5/USBUART_std.c ****                     {
 297:Generated_Source\PSoC5/USBUART_std.c ****                         USBUART_configurationChanged = USBUART_TRUE;
 298:Generated_Source\PSoC5/USBUART_std.c ****                     
 299:Generated_Source\PSoC5/USBUART_std.c ****                         /* Change alternate setting for the endpoints. */
 300:Generated_Source\PSoC5/USBUART_std.c ****                     #if (USBUART_EP_MANAGEMENT_MANUAL && USBUART_EP_ALLOC_DYNAMIC)
 301:Generated_Source\PSoC5/USBUART_std.c ****                         USBUART_Config(USBUART_FALSE);
 302:Generated_Source\PSoC5/USBUART_std.c ****                     #else
 303:Generated_Source\PSoC5/USBUART_std.c ****                         USBUART_ConfigAltChanged();
 304:Generated_Source\PSoC5/USBUART_std.c ****                     #endif /* (USBUART_EP_MANAGEMENT_MANUAL && USBUART_EP_ALLOC_DYNAMIC) */
 305:Generated_Source\PSoC5/USBUART_std.c ****                     }
 306:Generated_Source\PSoC5/USBUART_std.c ****                     
 307:Generated_Source\PSoC5/USBUART_std.c ****                     requestHandled = USBUART_InitNoDataControlTransfer();
 308:Generated_Source\PSoC5/USBUART_std.c ****                 }
 309:Generated_Source\PSoC5/USBUART_std.c ****                 break;
 310:Generated_Source\PSoC5/USBUART_std.c ****                 
 311:Generated_Source\PSoC5/USBUART_std.c ****             case USBUART_CLEAR_FEATURE:
 312:Generated_Source\PSoC5/USBUART_std.c ****                 switch (bmRequestType & USBUART_RQST_RCPT_MASK)
 313:Generated_Source\PSoC5/USBUART_std.c ****                 {
 314:Generated_Source\PSoC5/USBUART_std.c ****                     case USBUART_RQST_RCPT_EP:
 315:Generated_Source\PSoC5/USBUART_std.c ****                         if (USBUART_wValueLoReg == USBUART_ENDPOINT_HALT)
ARM GAS  C:\Users\ingan\AppData\Local\Temp\ccPtKCQI.s 			page 7


 316:Generated_Source\PSoC5/USBUART_std.c ****                         {
 317:Generated_Source\PSoC5/USBUART_std.c ****                             requestHandled = USBUART_ClearEndpointHalt();
 318:Generated_Source\PSoC5/USBUART_std.c ****                         }
 319:Generated_Source\PSoC5/USBUART_std.c ****                         break;
 320:Generated_Source\PSoC5/USBUART_std.c ****                     case USBUART_RQST_RCPT_DEV:
 321:Generated_Source\PSoC5/USBUART_std.c ****                         /* Clear device REMOTE_WAKEUP */
 322:Generated_Source\PSoC5/USBUART_std.c ****                         if (USBUART_wValueLoReg == USBUART_DEVICE_REMOTE_WAKEUP)
 323:Generated_Source\PSoC5/USBUART_std.c ****                         {
 324:Generated_Source\PSoC5/USBUART_std.c ****                             USBUART_deviceStatus &= (uint8)~USBUART_DEVICE_STATUS_REMOTE_WAKEUP;
 325:Generated_Source\PSoC5/USBUART_std.c ****                             requestHandled = USBUART_InitNoDataControlTransfer();
 326:Generated_Source\PSoC5/USBUART_std.c ****                         }
 327:Generated_Source\PSoC5/USBUART_std.c ****                         break;
 328:Generated_Source\PSoC5/USBUART_std.c ****                     case USBUART_RQST_RCPT_IFC:
 329:Generated_Source\PSoC5/USBUART_std.c ****                         /* Validate interfaceNumber */
 330:Generated_Source\PSoC5/USBUART_std.c ****                         if (USBUART_wIndexLoReg < USBUART_MAX_INTERFACES_NUMBER)
 331:Generated_Source\PSoC5/USBUART_std.c ****                         {
 332:Generated_Source\PSoC5/USBUART_std.c ****                             USBUART_interfaceStatus[USBUART_wIndexLoReg] &= (uint8) ~USBUART_wValue
 333:Generated_Source\PSoC5/USBUART_std.c ****                             requestHandled = USBUART_InitNoDataControlTransfer();
 334:Generated_Source\PSoC5/USBUART_std.c ****                         }
 335:Generated_Source\PSoC5/USBUART_std.c ****                         break;
 336:Generated_Source\PSoC5/USBUART_std.c ****                     default:    /* requestHandled is initialized as FALSE by default */
 337:Generated_Source\PSoC5/USBUART_std.c ****                         break;
 338:Generated_Source\PSoC5/USBUART_std.c ****                 }
 339:Generated_Source\PSoC5/USBUART_std.c ****                 break;
 340:Generated_Source\PSoC5/USBUART_std.c ****                 
 341:Generated_Source\PSoC5/USBUART_std.c ****             case USBUART_SET_FEATURE:
 342:Generated_Source\PSoC5/USBUART_std.c ****                 switch (bmRequestType & USBUART_RQST_RCPT_MASK)
 343:Generated_Source\PSoC5/USBUART_std.c ****                 {
 344:Generated_Source\PSoC5/USBUART_std.c ****                     case USBUART_RQST_RCPT_EP:
 345:Generated_Source\PSoC5/USBUART_std.c ****                         if (USBUART_wValueLoReg == USBUART_ENDPOINT_HALT)
 346:Generated_Source\PSoC5/USBUART_std.c ****                         {
 347:Generated_Source\PSoC5/USBUART_std.c ****                             requestHandled = USBUART_SetEndpointHalt();
 348:Generated_Source\PSoC5/USBUART_std.c ****                         }
 349:Generated_Source\PSoC5/USBUART_std.c ****                         break;
 350:Generated_Source\PSoC5/USBUART_std.c ****                         
 351:Generated_Source\PSoC5/USBUART_std.c ****                     case USBUART_RQST_RCPT_DEV:
 352:Generated_Source\PSoC5/USBUART_std.c ****                         /* Set device REMOTE_WAKEUP */
 353:Generated_Source\PSoC5/USBUART_std.c ****                         if (USBUART_wValueLoReg == USBUART_DEVICE_REMOTE_WAKEUP)
 354:Generated_Source\PSoC5/USBUART_std.c ****                         {
 355:Generated_Source\PSoC5/USBUART_std.c ****                             USBUART_deviceStatus |= USBUART_DEVICE_STATUS_REMOTE_WAKEUP;
 356:Generated_Source\PSoC5/USBUART_std.c ****                             requestHandled = USBUART_InitNoDataControlTransfer();
 357:Generated_Source\PSoC5/USBUART_std.c ****                         }
 358:Generated_Source\PSoC5/USBUART_std.c ****                         break;
 359:Generated_Source\PSoC5/USBUART_std.c ****                         
 360:Generated_Source\PSoC5/USBUART_std.c ****                     case USBUART_RQST_RCPT_IFC:
 361:Generated_Source\PSoC5/USBUART_std.c ****                         /* Validate interfaceNumber */
 362:Generated_Source\PSoC5/USBUART_std.c ****                         if (USBUART_wIndexLoReg < USBUART_MAX_INTERFACES_NUMBER)
 363:Generated_Source\PSoC5/USBUART_std.c ****                         {
 364:Generated_Source\PSoC5/USBUART_std.c ****                             USBUART_interfaceStatus[USBUART_wIndexLoReg] &= (uint8) ~USBUART_wValue
 365:Generated_Source\PSoC5/USBUART_std.c ****                             requestHandled = USBUART_InitNoDataControlTransfer();
 366:Generated_Source\PSoC5/USBUART_std.c ****                         }
 367:Generated_Source\PSoC5/USBUART_std.c ****                         break;
 368:Generated_Source\PSoC5/USBUART_std.c ****                     
 369:Generated_Source\PSoC5/USBUART_std.c ****                     default:    /* requestHandled is initialized as FALSE by default */
 370:Generated_Source\PSoC5/USBUART_std.c ****                         break;
 371:Generated_Source\PSoC5/USBUART_std.c ****                 }
 372:Generated_Source\PSoC5/USBUART_std.c ****                 break;
ARM GAS  C:\Users\ingan\AppData\Local\Temp\ccPtKCQI.s 			page 8


 373:Generated_Source\PSoC5/USBUART_std.c ****                 
 374:Generated_Source\PSoC5/USBUART_std.c ****             default:    /* requestHandled is initialized as FALSE by default */
 375:Generated_Source\PSoC5/USBUART_std.c ****                 break;
 376:Generated_Source\PSoC5/USBUART_std.c ****         }
 377:Generated_Source\PSoC5/USBUART_std.c ****     }
 378:Generated_Source\PSoC5/USBUART_std.c ****     
 379:Generated_Source\PSoC5/USBUART_std.c ****     return (requestHandled);
 380:Generated_Source\PSoC5/USBUART_std.c **** }
 381:Generated_Source\PSoC5/USBUART_std.c **** 
 382:Generated_Source\PSoC5/USBUART_std.c **** 
 383:Generated_Source\PSoC5/USBUART_std.c **** #if defined(USBUART_ENABLE_IDSN_STRING)
 384:Generated_Source\PSoC5/USBUART_std.c ****     /***************************************************************************
 385:Generated_Source\PSoC5/USBUART_std.c ****     * Function Name: USBUART_ReadDieID
 386:Generated_Source\PSoC5/USBUART_std.c ****     ************************************************************************//**
 387:Generated_Source\PSoC5/USBUART_std.c ****     *
 388:Generated_Source\PSoC5/USBUART_std.c ****     *  This routine read Die ID and generate Serial Number string descriptor.
 389:Generated_Source\PSoC5/USBUART_std.c ****     *
 390:Generated_Source\PSoC5/USBUART_std.c ****     *  \param descr:  pointer on string descriptor. This string size has to be equal or
 391:Generated_Source\PSoC5/USBUART_std.c ****     *          greater than USBUART_IDSN_DESCR_LENGTH.
 392:Generated_Source\PSoC5/USBUART_std.c ****     *
 393:Generated_Source\PSoC5/USBUART_std.c ****     *
 394:Generated_Source\PSoC5/USBUART_std.c ****     * \reentrant
 395:Generated_Source\PSoC5/USBUART_std.c ****     *  No.
 396:Generated_Source\PSoC5/USBUART_std.c ****     *
 397:Generated_Source\PSoC5/USBUART_std.c ****     ***************************************************************************/
 398:Generated_Source\PSoC5/USBUART_std.c ****     void USBUART_ReadDieID(uint8 descr[]) 
 399:Generated_Source\PSoC5/USBUART_std.c ****     {
  28              		.loc 1 399 0
  29              		.cfi_startproc
  30              		@ args = 0, pretend = 0, frame = 32
  31              		@ frame_needed = 0, uses_anonymous_args = 0
  32              	.LVL0:
  33 0000 70B5     		push	{r4, r5, r6, lr}
  34              		.cfi_def_cfa_offset 16
  35              		.cfi_offset 4, -16
  36              		.cfi_offset 5, -12
  37              		.cfi_offset 6, -8
  38              		.cfi_offset 14, -4
  39 0002 88B0     		sub	sp, sp, #32
  40              		.cfi_def_cfa_offset 48
  41 0004 0546     		mov	r5, r0
 400:Generated_Source\PSoC5/USBUART_std.c ****         const char8 CYCODE hex[] = "0123456789ABCDEF";
  42              		.loc 1 400 0
  43 0006 03AC     		add	r4, sp, #12
  44 0008 174E     		ldr	r6, .L6
  45 000a 0FCE     		ldmia	r6!, {r0, r1, r2, r3}
  46              	.LVL1:
  47 000c 0FC4     		stmia	r4!, {r0, r1, r2, r3}
  48 000e 3368     		ldr	r3, [r6]
  49 0010 2370     		strb	r3, [r4]
  50              	.LVL2:
 401:Generated_Source\PSoC5/USBUART_std.c ****         uint8 i;
 402:Generated_Source\PSoC5/USBUART_std.c ****         uint8 j = 0u;
 403:Generated_Source\PSoC5/USBUART_std.c ****         uint8 uniqueId[8u];
 404:Generated_Source\PSoC5/USBUART_std.c **** 
 405:Generated_Source\PSoC5/USBUART_std.c ****         if (NULL != descr)
  51              		.loc 1 405 0
ARM GAS  C:\Users\ingan\AppData\Local\Temp\ccPtKCQI.s 			page 9


  52 0012 35B3     		cbz	r5, .L1
 406:Generated_Source\PSoC5/USBUART_std.c ****         {
 407:Generated_Source\PSoC5/USBUART_std.c ****             /* Initialize descriptor header. */
 408:Generated_Source\PSoC5/USBUART_std.c ****             descr[0u] = USBUART_IDSN_DESCR_LENGTH;
  53              		.loc 1 408 0
  54 0014 2223     		movs	r3, #34
  55 0016 2B70     		strb	r3, [r5]
 409:Generated_Source\PSoC5/USBUART_std.c ****             descr[1u] = USBUART_DESCR_STRING;
  56              		.loc 1 409 0
  57 0018 0323     		movs	r3, #3
  58 001a 6B70     		strb	r3, [r5, #1]
 410:Generated_Source\PSoC5/USBUART_std.c ****             
 411:Generated_Source\PSoC5/USBUART_std.c ****             /* Unique ID size is 8 bytes. */
 412:Generated_Source\PSoC5/USBUART_std.c ****             CyGetUniqueId((uint32 *) uniqueId);
  59              		.loc 1 412 0
  60 001c 01A8     		add	r0, sp, #4
  61 001e FFF7FEFF 		bl	CyGetUniqueId
  62              	.LVL3:
 402:Generated_Source\PSoC5/USBUART_std.c ****         uint8 uniqueId[8u];
  63              		.loc 1 402 0
  64 0022 0024     		movs	r4, #0
 413:Generated_Source\PSoC5/USBUART_std.c **** 
 414:Generated_Source\PSoC5/USBUART_std.c ****             /* Fill descriptor with unique device ID. */
 415:Generated_Source\PSoC5/USBUART_std.c ****             for (i = 2u; i < USBUART_IDSN_DESCR_LENGTH; i += 4u)
  65              		.loc 1 415 0
  66 0024 0223     		movs	r3, #2
  67 0026 1AE0     		b	.L3
  68              	.LVL4:
  69              	.L4:
 416:Generated_Source\PSoC5/USBUART_std.c ****             {
 417:Generated_Source\PSoC5/USBUART_std.c ****                 descr[i]      = (uint8) hex[(uniqueId[j] >> 4u)];
  70              		.loc 1 417 0 discriminator 3
  71 0028 08AA     		add	r2, sp, #32
  72 002a 2244     		add	r2, r2, r4
  73 002c 12F81C2C 		ldrb	r2, [r2, #-28]	@ zero_extendqisi2
  74 0030 08A9     		add	r1, sp, #32
  75 0032 01EB1211 		add	r1, r1, r2, lsr #4
  76 0036 11F8141C 		ldrb	r1, [r1, #-20]	@ zero_extendqisi2
  77 003a E954     		strb	r1, [r5, r3]
 418:Generated_Source\PSoC5/USBUART_std.c ****                 descr[i + 1u] = 0u;
  78              		.loc 1 418 0 discriminator 3
  79 003c 581C     		adds	r0, r3, #1
  80 003e 0021     		movs	r1, #0
  81 0040 2954     		strb	r1, [r5, r0]
 419:Generated_Source\PSoC5/USBUART_std.c ****                 descr[i + 2u] = (uint8) hex[(uniqueId[j] & 0x0Fu)];
  82              		.loc 1 419 0 discriminator 3
  83 0042 981C     		adds	r0, r3, #2
  84 0044 02F00F02 		and	r2, r2, #15
  85 0048 08AE     		add	r6, sp, #32
  86 004a 3244     		add	r2, r2, r6
  87 004c 12F8142C 		ldrb	r2, [r2, #-20]	@ zero_extendqisi2
  88 0050 2A54     		strb	r2, [r5, r0]
 420:Generated_Source\PSoC5/USBUART_std.c ****                 descr[i + 3u] = 0u;
  89              		.loc 1 420 0 discriminator 3
  90 0052 DA1C     		adds	r2, r3, #3
  91 0054 A954     		strb	r1, [r5, r2]
 421:Generated_Source\PSoC5/USBUART_std.c ****                 ++j;
ARM GAS  C:\Users\ingan\AppData\Local\Temp\ccPtKCQI.s 			page 10


  92              		.loc 1 421 0 discriminator 3
  93 0056 0134     		adds	r4, r4, #1
  94              	.LVL5:
  95 0058 E4B2     		uxtb	r4, r4
  96              	.LVL6:
 415:Generated_Source\PSoC5/USBUART_std.c ****             {
  97              		.loc 1 415 0 discriminator 3
  98 005a 0433     		adds	r3, r3, #4
  99              	.LVL7:
 100 005c DBB2     		uxtb	r3, r3
 101              	.LVL8:
 102              	.L3:
 415:Generated_Source\PSoC5/USBUART_std.c ****             {
 103              		.loc 1 415 0 is_stmt 0 discriminator 1
 104 005e 212B     		cmp	r3, #33
 105 0060 E2D9     		bls	.L4
 106              	.LVL9:
 107              	.L1:
 422:Generated_Source\PSoC5/USBUART_std.c ****             }
 423:Generated_Source\PSoC5/USBUART_std.c ****         }
 424:Generated_Source\PSoC5/USBUART_std.c ****     }
 108              		.loc 1 424 0 is_stmt 1
 109 0062 08B0     		add	sp, sp, #32
 110              		.cfi_def_cfa_offset 16
 111              		@ sp needed
 112 0064 70BD     		pop	{r4, r5, r6, pc}
 113              	.LVL10:
 114              	.L7:
 115 0066 00BF     		.align	2
 116              	.L6:
 117 0068 00000000 		.word	.LC0
 118              		.cfi_endproc
 119              	.LFE1:
 120              		.size	USBUART_ReadDieID, .-USBUART_ReadDieID
 121              		.section	.text.USBUART_ConfigReg,"ax",%progbits
 122              		.align	2
 123              		.global	USBUART_ConfigReg
 124              		.thumb
 125              		.thumb_func
 126              		.type	USBUART_ConfigReg, %function
 127              	USBUART_ConfigReg:
 128              	.LFB2:
 425:Generated_Source\PSoC5/USBUART_std.c **** #endif /* (USBUART_ENABLE_IDSN_STRING) */
 426:Generated_Source\PSoC5/USBUART_std.c **** 
 427:Generated_Source\PSoC5/USBUART_std.c **** 
 428:Generated_Source\PSoC5/USBUART_std.c **** /*******************************************************************************
 429:Generated_Source\PSoC5/USBUART_std.c **** * Function Name: USBUART_ConfigReg
 430:Generated_Source\PSoC5/USBUART_std.c **** ****************************************************************************//**
 431:Generated_Source\PSoC5/USBUART_std.c **** *
 432:Generated_Source\PSoC5/USBUART_std.c **** *  This routine configures hardware registers from the variables.
 433:Generated_Source\PSoC5/USBUART_std.c **** *  It is called from USBUART_Config() function and from RestoreConfig
 434:Generated_Source\PSoC5/USBUART_std.c **** *  after Wakeup.
 435:Generated_Source\PSoC5/USBUART_std.c **** *
 436:Generated_Source\PSoC5/USBUART_std.c **** *******************************************************************************/
 437:Generated_Source\PSoC5/USBUART_std.c **** void USBUART_ConfigReg(void) 
 438:Generated_Source\PSoC5/USBUART_std.c **** {
 129              		.loc 1 438 0
ARM GAS  C:\Users\ingan\AppData\Local\Temp\ccPtKCQI.s 			page 11


 130              		.cfi_startproc
 131              		@ args = 0, pretend = 0, frame = 0
 132              		@ frame_needed = 0, uses_anonymous_args = 0
 133              		@ link register save eliminated.
 134 0000 30B4     		push	{r4, r5}
 135              		.cfi_def_cfa_offset 8
 136              		.cfi_offset 4, -8
 137              		.cfi_offset 5, -4
 138              	.LVL11:
 439:Generated_Source\PSoC5/USBUART_std.c ****     uint8 ep;
 440:Generated_Source\PSoC5/USBUART_std.c **** 
 441:Generated_Source\PSoC5/USBUART_std.c **** #if (USBUART_EP_MANAGEMENT_DMA_AUTO)
 442:Generated_Source\PSoC5/USBUART_std.c ****     uint8 epType = 0u;
 443:Generated_Source\PSoC5/USBUART_std.c **** #endif /* (USBUART_EP_MANAGEMENT_DMA_AUTO) */
 444:Generated_Source\PSoC5/USBUART_std.c **** 
 445:Generated_Source\PSoC5/USBUART_std.c ****     /* Go thought all endpoints and set hardware configuration */
 446:Generated_Source\PSoC5/USBUART_std.c ****     for (ep = USBUART_EP1; ep < USBUART_MAX_EP; ++ep)
 139              		.loc 1 446 0
 140 0002 0123     		movs	r3, #1
 141 0004 41E0     		b	.L9
 142              	.LVL12:
 143              	.L13:
 447:Generated_Source\PSoC5/USBUART_std.c ****     {
 448:Generated_Source\PSoC5/USBUART_std.c ****         USBUART_ARB_EP_BASE.arbEp[ep].epCfg = USBUART_ARB_EPX_CFG_DEFAULT;
 144              		.loc 1 448 0
 145 0006 1946     		mov	r1, r3
 146 0008 2348     		ldr	r0, .L15
 147 000a 1A01     		lsls	r2, r3, #4
 148 000c 8418     		adds	r4, r0, r2
 149 000e 0C25     		movs	r5, #12
 150 0010 8554     		strb	r5, [r0, r2]
 449:Generated_Source\PSoC5/USBUART_std.c ****         
 450:Generated_Source\PSoC5/USBUART_std.c ****     #if (USBUART_EP_MANAGEMENT_DMA)
 451:Generated_Source\PSoC5/USBUART_std.c ****         /* Enable arbiter endpoint interrupt sources */
 452:Generated_Source\PSoC5/USBUART_std.c ****         USBUART_ARB_EP_BASE.arbEp[ep].epIntEn = USBUART_ARB_EPX_INT_MASK;
 151              		.loc 1 452 0
 152 0012 1F22     		movs	r2, #31
 153 0014 6270     		strb	r2, [r4, #1]
 453:Generated_Source\PSoC5/USBUART_std.c ****     #endif /* (USBUART_EP_MANAGEMENT_DMA) */
 454:Generated_Source\PSoC5/USBUART_std.c ****     
 455:Generated_Source\PSoC5/USBUART_std.c ****         if (USBUART_EP[ep].epMode != USBUART_MODE_DISABLE)
 154              		.loc 1 455 0
 155 0016 03EB4300 		add	r0, r3, r3, lsl #1
 156 001a 8200     		lsls	r2, r0, #2
 157 001c 1F48     		ldr	r0, .L15+4
 158 001e 0244     		add	r2, r2, r0
 159 0020 5279     		ldrb	r2, [r2, #5]	@ zero_extendqisi2
 160 0022 12F0FF0F 		tst	r2, #255
 161 0026 13D0     		beq	.L10
 456:Generated_Source\PSoC5/USBUART_std.c ****         {
 457:Generated_Source\PSoC5/USBUART_std.c ****             if (0u != (USBUART_EP[ep].addr & USBUART_DIR_IN))
 162              		.loc 1 457 0
 163 0028 03EB4300 		add	r0, r3, r3, lsl #1
 164 002c 8200     		lsls	r2, r0, #2
 165 002e 1B48     		ldr	r0, .L15+4
 166 0030 0244     		add	r2, r2, r0
 167 0032 1279     		ldrb	r2, [r2, #4]	@ zero_extendqisi2
ARM GAS  C:\Users\ingan\AppData\Local\Temp\ccPtKCQI.s 			page 12


 168 0034 12F0800F 		tst	r2, #128
 169 0038 04D0     		beq	.L11
 458:Generated_Source\PSoC5/USBUART_std.c ****             {
 459:Generated_Source\PSoC5/USBUART_std.c ****                 USBUART_SIE_EP_BASE.sieEp[ep].epCr0 = USBUART_MODE_NAK_IN;
 170              		.loc 1 459 0
 171 003a 1801     		lsls	r0, r3, #4
 172 003c 184A     		ldr	r2, .L15+8
 173 003e 0244     		add	r2, r2, r0
 174 0040 9570     		strb	r5, [r2, #2]
 175 0042 0AE0     		b	.L12
 176              	.L11:
 460:Generated_Source\PSoC5/USBUART_std.c ****                 
 461:Generated_Source\PSoC5/USBUART_std.c ****             #if (USBUART_EP_MANAGEMENT_DMA_AUTO && CY_PSOC4)
 462:Generated_Source\PSoC5/USBUART_std.c ****                 /* Clear DMA_TERMIN for IN endpoint. */
 463:Generated_Source\PSoC5/USBUART_std.c ****                 USBUART_ARB_EP_BASE.arbEp[ep].epIntEn &= (uint32) ~USBUART_ARB_EPX_INT_DMA_TERMIN;
 464:Generated_Source\PSoC5/USBUART_std.c ****             #endif /* (USBUART_EP_MANAGEMENT_DMA_AUTO && CY_PSOC4) */
 465:Generated_Source\PSoC5/USBUART_std.c ****             }
 466:Generated_Source\PSoC5/USBUART_std.c ****             else
 467:Generated_Source\PSoC5/USBUART_std.c ****             {
 468:Generated_Source\PSoC5/USBUART_std.c ****                 USBUART_SIE_EP_BASE.sieEp[ep].epCr0 = USBUART_MODE_NAK_OUT;
 177              		.loc 1 468 0
 178 0044 1801     		lsls	r0, r3, #4
 179 0046 164A     		ldr	r2, .L15+8
 180 0048 0244     		add	r2, r2, r0
 181 004a 0820     		movs	r0, #8
 182 004c 9070     		strb	r0, [r2, #2]
 183 004e 04E0     		b	.L12
 184              	.L10:
 469:Generated_Source\PSoC5/USBUART_std.c **** 
 470:Generated_Source\PSoC5/USBUART_std.c ****             #if (USBUART_EP_MANAGEMENT_DMA_AUTO)
 471:Generated_Source\PSoC5/USBUART_std.c ****                 /* (CY_PSOC4): DMA_TERMIN for OUT endpoint is set above. */
 472:Generated_Source\PSoC5/USBUART_std.c ****                 
 473:Generated_Source\PSoC5/USBUART_std.c ****                 /* Prepare endpoint type mask. */
 474:Generated_Source\PSoC5/USBUART_std.c ****                 epType |= (uint8) (0x01u << (ep - USBUART_EP1));
 475:Generated_Source\PSoC5/USBUART_std.c ****             #endif /* (USBUART_EP_MANAGEMENT_DMA_AUTO) */
 476:Generated_Source\PSoC5/USBUART_std.c ****             }
 477:Generated_Source\PSoC5/USBUART_std.c ****         }
 478:Generated_Source\PSoC5/USBUART_std.c ****         else
 479:Generated_Source\PSoC5/USBUART_std.c ****         {
 480:Generated_Source\PSoC5/USBUART_std.c ****             USBUART_SIE_EP_BASE.sieEp[ep].epCr0 = USBUART_MODE_STALL_DATA_EP;
 185              		.loc 1 480 0
 186 0050 1801     		lsls	r0, r3, #4
 187 0052 134A     		ldr	r2, .L15+8
 188 0054 0244     		add	r2, r2, r0
 189 0056 8020     		movs	r0, #128
 190 0058 9070     		strb	r0, [r2, #2]
 191              	.L12:
 481:Generated_Source\PSoC5/USBUART_std.c ****         }
 482:Generated_Source\PSoC5/USBUART_std.c ****         
 483:Generated_Source\PSoC5/USBUART_std.c ****     #if (!USBUART_EP_MANAGEMENT_DMA_AUTO)
 484:Generated_Source\PSoC5/USBUART_std.c ****         #if (CY_PSOC4)
 485:Generated_Source\PSoC5/USBUART_std.c ****             USBUART_ARB_EP16_BASE.arbEp[ep].rwRa16  = (uint32) USBUART_EP[ep].buffOffset;
 486:Generated_Source\PSoC5/USBUART_std.c ****             USBUART_ARB_EP16_BASE.arbEp[ep].rwWa16  = (uint32) USBUART_EP[ep].buffOffset;
 487:Generated_Source\PSoC5/USBUART_std.c ****         #else
 488:Generated_Source\PSoC5/USBUART_std.c ****             USBUART_ARB_EP_BASE.arbEp[ep].rwRa    = LO8(USBUART_EP[ep].buffOffset);
 192              		.loc 1 488 0 discriminator 2
 193 005a 4800     		lsls	r0, r1, #1
ARM GAS  C:\Users\ingan\AppData\Local\Temp\ccPtKCQI.s 			page 13


 194 005c 0844     		add	r0, r0, r1
 195 005e 8200     		lsls	r2, r0, #2
 196 0060 0E48     		ldr	r0, .L15+4
 197 0062 0244     		add	r2, r2, r0
 198 0064 D488     		ldrh	r4, [r2, #6]
 199 0066 E4B2     		uxtb	r4, r4
 200 0068 0801     		lsls	r0, r1, #4
 201 006a 0B49     		ldr	r1, .L15
 202 006c 0144     		add	r1, r1, r0
 203 006e 8C71     		strb	r4, [r1, #6]
 489:Generated_Source\PSoC5/USBUART_std.c ****             USBUART_ARB_EP_BASE.arbEp[ep].rwRaMsb = HI8(USBUART_EP[ep].buffOffset);
 204              		.loc 1 489 0 discriminator 2
 205 0070 D088     		ldrh	r0, [r2, #6]
 206 0072 C0F30720 		ubfx	r0, r0, #8, #8
 207 0076 C871     		strb	r0, [r1, #7]
 490:Generated_Source\PSoC5/USBUART_std.c ****             USBUART_ARB_EP_BASE.arbEp[ep].rwWa    = LO8(USBUART_EP[ep].buffOffset);
 208              		.loc 1 490 0 discriminator 2
 209 0078 D088     		ldrh	r0, [r2, #6]
 210 007a C0B2     		uxtb	r0, r0
 211 007c 0871     		strb	r0, [r1, #4]
 491:Generated_Source\PSoC5/USBUART_std.c ****             USBUART_ARB_EP_BASE.arbEp[ep].rwWaMsb = HI8(USBUART_EP[ep].buffOffset);
 212              		.loc 1 491 0 discriminator 2
 213 007e D288     		ldrh	r2, [r2, #6]
 214 0080 C2F30722 		ubfx	r2, r2, #8, #8
 215 0084 4A71     		strb	r2, [r1, #5]
 446:Generated_Source\PSoC5/USBUART_std.c ****     {
 216              		.loc 1 446 0 discriminator 2
 217 0086 0133     		adds	r3, r3, #1
 218              	.LVL13:
 219 0088 DBB2     		uxtb	r3, r3
 220              	.LVL14:
 221              	.L9:
 446:Generated_Source\PSoC5/USBUART_std.c ****     {
 222              		.loc 1 446 0 is_stmt 0 discriminator 1
 223 008a 082B     		cmp	r3, #8
 224 008c BBD9     		bls	.L13
 492:Generated_Source\PSoC5/USBUART_std.c ****         #endif /* (CY_PSOC4) */
 493:Generated_Source\PSoC5/USBUART_std.c ****     #endif /* (!USBUART_EP_MANAGEMENT_DMA_AUTO) */
 494:Generated_Source\PSoC5/USBUART_std.c ****     }
 495:Generated_Source\PSoC5/USBUART_std.c **** 
 496:Generated_Source\PSoC5/USBUART_std.c **** #if (USBUART_EP_MANAGEMENT_DMA_AUTO)
 497:Generated_Source\PSoC5/USBUART_std.c ****      /* BUF_SIZE depend on DMA_THRESS value:0x55-32 bytes  0x44-16 bytes 0x33-8 bytes 0x22-4 bytes 
 498:Generated_Source\PSoC5/USBUART_std.c ****     USBUART_BUF_SIZE_REG = USBUART_DMA_BUF_SIZE;
 499:Generated_Source\PSoC5/USBUART_std.c **** 
 500:Generated_Source\PSoC5/USBUART_std.c ****     /* Configure DMA burst threshold */
 501:Generated_Source\PSoC5/USBUART_std.c **** #if (CY_PSOC4)
 502:Generated_Source\PSoC5/USBUART_std.c ****     USBUART_DMA_THRES16_REG   = USBUART_DMA_BYTES_PER_BURST;
 503:Generated_Source\PSoC5/USBUART_std.c **** #else
 504:Generated_Source\PSoC5/USBUART_std.c ****     USBUART_DMA_THRES_REG     = USBUART_DMA_BYTES_PER_BURST;
 505:Generated_Source\PSoC5/USBUART_std.c ****     USBUART_DMA_THRES_MSB_REG = 0u;
 506:Generated_Source\PSoC5/USBUART_std.c **** #endif /* (CY_PSOC4) */
 507:Generated_Source\PSoC5/USBUART_std.c ****     USBUART_EP_ACTIVE_REG = USBUART_DEFAULT_ARB_INT_EN;
 508:Generated_Source\PSoC5/USBUART_std.c ****     USBUART_EP_TYPE_REG   = epType;
 509:Generated_Source\PSoC5/USBUART_std.c ****     
 510:Generated_Source\PSoC5/USBUART_std.c ****     /* Cfg_cmp bit set to 1 once configuration is complete. */
 511:Generated_Source\PSoC5/USBUART_std.c ****     /* Lock arbiter configtuation */
 512:Generated_Source\PSoC5/USBUART_std.c ****     USBUART_ARB_CFG_REG |= (uint8)  USBUART_ARB_CFG_CFG_CMP;
ARM GAS  C:\Users\ingan\AppData\Local\Temp\ccPtKCQI.s 			page 14


 513:Generated_Source\PSoC5/USBUART_std.c ****     /* Cfg_cmp bit set to 0 during configuration of PFSUSB Registers. */
 514:Generated_Source\PSoC5/USBUART_std.c ****     USBUART_ARB_CFG_REG &= (uint8) ~USBUART_ARB_CFG_CFG_CMP;
 515:Generated_Source\PSoC5/USBUART_std.c **** 
 516:Generated_Source\PSoC5/USBUART_std.c **** #endif /* (USBUART_EP_MANAGEMENT_DMA_AUTO) */
 517:Generated_Source\PSoC5/USBUART_std.c **** 
 518:Generated_Source\PSoC5/USBUART_std.c ****     /* Enable interrupt SIE interurpt source from EP0-EP1 */
 519:Generated_Source\PSoC5/USBUART_std.c ****     USBUART_SIE_EP_INT_EN_REG = (uint8) USBUART_DEFAULT_SIE_EP_INT_EN;
 225              		.loc 1 519 0 is_stmt 1
 226 008e FF22     		movs	r2, #255
 227 0090 044B     		ldr	r3, .L15+12
 228              	.LVL15:
 229 0092 1A70     		strb	r2, [r3]
 520:Generated_Source\PSoC5/USBUART_std.c **** }
 230              		.loc 1 520 0
 231 0094 30BC     		pop	{r4, r5}
 232              		.cfi_restore 5
 233              		.cfi_restore 4
 234              		.cfi_def_cfa_offset 0
 235 0096 7047     		bx	lr
 236              	.L16:
 237              		.align	2
 238              	.L15:
 239 0098 70600040 		.word	1073766512
 240 009c 00000000 		.word	USBUART_EP
 241 00a0 FC5F0040 		.word	1073766396
 242 00a4 0A600040 		.word	1073766410
 243              		.cfi_endproc
 244              	.LFE2:
 245              		.size	USBUART_ConfigReg, .-USBUART_ConfigReg
 246              		.section	.text.USBUART_EpStateInit,"ax",%progbits
 247              		.align	2
 248              		.global	USBUART_EpStateInit
 249              		.thumb
 250              		.thumb_func
 251              		.type	USBUART_EpStateInit, %function
 252              	USBUART_EpStateInit:
 253              	.LFB3:
 521:Generated_Source\PSoC5/USBUART_std.c **** 
 522:Generated_Source\PSoC5/USBUART_std.c **** 
 523:Generated_Source\PSoC5/USBUART_std.c **** /*******************************************************************************
 524:Generated_Source\PSoC5/USBUART_std.c **** * Function Name: USBUART_EpStateInit
 525:Generated_Source\PSoC5/USBUART_std.c **** ****************************************************************************//**
 526:Generated_Source\PSoC5/USBUART_std.c **** *
 527:Generated_Source\PSoC5/USBUART_std.c **** *  This routine initialize state of Data end points based of its type: 
 528:Generated_Source\PSoC5/USBUART_std.c **** *   IN  - USBUART_IN_BUFFER_EMPTY (USBUART_EVENT_PENDING)
 529:Generated_Source\PSoC5/USBUART_std.c **** *   OUT - USBUART_OUT_BUFFER_EMPTY (USBUART_NO_EVENT_PENDING)
 530:Generated_Source\PSoC5/USBUART_std.c **** *
 531:Generated_Source\PSoC5/USBUART_std.c **** *******************************************************************************/
 532:Generated_Source\PSoC5/USBUART_std.c **** void USBUART_EpStateInit(void) 
 533:Generated_Source\PSoC5/USBUART_std.c **** {
 254              		.loc 1 533 0
 255              		.cfi_startproc
 256              		@ args = 0, pretend = 0, frame = 0
 257              		@ frame_needed = 0, uses_anonymous_args = 0
 258              		@ link register save eliminated.
 259              	.LVL16:
 534:Generated_Source\PSoC5/USBUART_std.c ****     uint8 i;
ARM GAS  C:\Users\ingan\AppData\Local\Temp\ccPtKCQI.s 			page 15


 535:Generated_Source\PSoC5/USBUART_std.c **** 
 536:Generated_Source\PSoC5/USBUART_std.c ****     for (i = USBUART_EP1; i < USBUART_MAX_EP; i++)
 260              		.loc 1 536 0
 261 0000 0123     		movs	r3, #1
 262 0002 19E0     		b	.L18
 263              	.LVL17:
 264              	.L21:
 537:Generated_Source\PSoC5/USBUART_std.c ****     { 
 538:Generated_Source\PSoC5/USBUART_std.c ****         if (0u != (USBUART_EP[i].addr & USBUART_DIR_IN))
 265              		.loc 1 538 0
 266 0004 03EB4301 		add	r1, r3, r3, lsl #1
 267 0008 8A00     		lsls	r2, r1, #2
 268 000a 0D49     		ldr	r1, .L22
 269 000c 0A44     		add	r2, r2, r1
 270 000e 1279     		ldrb	r2, [r2, #4]	@ zero_extendqisi2
 271 0010 12F0800F 		tst	r2, #128
 272 0014 07D0     		beq	.L19
 539:Generated_Source\PSoC5/USBUART_std.c ****         {
 540:Generated_Source\PSoC5/USBUART_std.c ****             /* IN Endpoint */
 541:Generated_Source\PSoC5/USBUART_std.c ****             USBUART_EP[i].apiEpState = USBUART_EVENT_PENDING;
 273              		.loc 1 541 0
 274 0016 03EB4301 		add	r1, r3, r3, lsl #1
 275 001a 8A00     		lsls	r2, r1, #2
 276 001c 0849     		ldr	r1, .L22
 277 001e 0A44     		add	r2, r2, r1
 278 0020 0121     		movs	r1, #1
 279 0022 5170     		strb	r1, [r2, #1]
 280 0024 06E0     		b	.L20
 281              	.L19:
 542:Generated_Source\PSoC5/USBUART_std.c ****         }
 543:Generated_Source\PSoC5/USBUART_std.c ****         else
 544:Generated_Source\PSoC5/USBUART_std.c ****         {
 545:Generated_Source\PSoC5/USBUART_std.c ****             /* OUT Endpoint */
 546:Generated_Source\PSoC5/USBUART_std.c ****             USBUART_EP[i].apiEpState = USBUART_NO_EVENT_PENDING;
 282              		.loc 1 546 0
 283 0026 03EB4301 		add	r1, r3, r3, lsl #1
 284 002a 8A00     		lsls	r2, r1, #2
 285 002c 0449     		ldr	r1, .L22
 286 002e 0A44     		add	r2, r2, r1
 287 0030 0021     		movs	r1, #0
 288 0032 5170     		strb	r1, [r2, #1]
 289              	.L20:
 536:Generated_Source\PSoC5/USBUART_std.c ****     { 
 290              		.loc 1 536 0 discriminator 2
 291 0034 0133     		adds	r3, r3, #1
 292              	.LVL18:
 293 0036 DBB2     		uxtb	r3, r3
 294              	.LVL19:
 295              	.L18:
 536:Generated_Source\PSoC5/USBUART_std.c ****     { 
 296              		.loc 1 536 0 is_stmt 0 discriminator 1
 297 0038 082B     		cmp	r3, #8
 298 003a E3D9     		bls	.L21
 547:Generated_Source\PSoC5/USBUART_std.c ****         }
 548:Generated_Source\PSoC5/USBUART_std.c ****     }
 549:Generated_Source\PSoC5/USBUART_std.c ****                     
 550:Generated_Source\PSoC5/USBUART_std.c **** }
ARM GAS  C:\Users\ingan\AppData\Local\Temp\ccPtKCQI.s 			page 16


 299              		.loc 1 550 0 is_stmt 1
 300 003c 7047     		bx	lr
 301              	.L23:
 302 003e 00BF     		.align	2
 303              	.L22:
 304 0040 00000000 		.word	USBUART_EP
 305              		.cfi_endproc
 306              	.LFE3:
 307              		.size	USBUART_EpStateInit, .-USBUART_EpStateInit
 308              		.section	.text.USBUART_GetConfigTablePtr,"ax",%progbits
 309              		.align	2
 310              		.global	USBUART_GetConfigTablePtr
 311              		.thumb
 312              		.thumb_func
 313              		.type	USBUART_GetConfigTablePtr, %function
 314              	USBUART_GetConfigTablePtr:
 315              	.LFB6:
 551:Generated_Source\PSoC5/USBUART_std.c **** 
 552:Generated_Source\PSoC5/USBUART_std.c **** 
 553:Generated_Source\PSoC5/USBUART_std.c **** /*******************************************************************************
 554:Generated_Source\PSoC5/USBUART_std.c **** * Function Name: USBUART_Config
 555:Generated_Source\PSoC5/USBUART_std.c **** ****************************************************************************//**
 556:Generated_Source\PSoC5/USBUART_std.c **** *
 557:Generated_Source\PSoC5/USBUART_std.c **** *  This routine configures endpoints for the entire configuration by scanning
 558:Generated_Source\PSoC5/USBUART_std.c **** *  the configuration descriptor.
 559:Generated_Source\PSoC5/USBUART_std.c **** *
 560:Generated_Source\PSoC5/USBUART_std.c **** *  \param clearAltSetting: It configures the bAlternateSetting 0 for each interface.
 561:Generated_Source\PSoC5/USBUART_std.c **** *
 562:Generated_Source\PSoC5/USBUART_std.c **** * USBUART_interfaceClass - Initialized class array for each interface.
 563:Generated_Source\PSoC5/USBUART_std.c **** *   It is used for handling Class specific requests depend on interface class.
 564:Generated_Source\PSoC5/USBUART_std.c **** *   Different classes in multiple Alternate settings does not supported.
 565:Generated_Source\PSoC5/USBUART_std.c **** *
 566:Generated_Source\PSoC5/USBUART_std.c **** * \reentrant
 567:Generated_Source\PSoC5/USBUART_std.c **** *  No.
 568:Generated_Source\PSoC5/USBUART_std.c **** *
 569:Generated_Source\PSoC5/USBUART_std.c **** *******************************************************************************/
 570:Generated_Source\PSoC5/USBUART_std.c **** void USBUART_Config(uint8 clearAltSetting) 
 571:Generated_Source\PSoC5/USBUART_std.c **** {
 572:Generated_Source\PSoC5/USBUART_std.c ****     uint8 ep;
 573:Generated_Source\PSoC5/USBUART_std.c ****     uint8 curEp;
 574:Generated_Source\PSoC5/USBUART_std.c ****     uint8 i;
 575:Generated_Source\PSoC5/USBUART_std.c ****     uint8 epType;
 576:Generated_Source\PSoC5/USBUART_std.c ****     const uint8 *pDescr;
 577:Generated_Source\PSoC5/USBUART_std.c ****     
 578:Generated_Source\PSoC5/USBUART_std.c ****     #if (!USBUART_EP_MANAGEMENT_DMA_AUTO)
 579:Generated_Source\PSoC5/USBUART_std.c ****         uint16 buffCount = 0u;
 580:Generated_Source\PSoC5/USBUART_std.c ****     #endif /* (!USBUART_EP_MANAGEMENT_DMA_AUTO) */
 581:Generated_Source\PSoC5/USBUART_std.c **** 
 582:Generated_Source\PSoC5/USBUART_std.c ****     const T_USBUART_LUT CYCODE *pTmp;
 583:Generated_Source\PSoC5/USBUART_std.c ****     const T_USBUART_EP_SETTINGS_BLOCK CYCODE *pEP;
 584:Generated_Source\PSoC5/USBUART_std.c **** 
 585:Generated_Source\PSoC5/USBUART_std.c ****     /* Clear endpoints settings */
 586:Generated_Source\PSoC5/USBUART_std.c ****     for (ep = 0u; ep < USBUART_MAX_EP; ++ep)
 587:Generated_Source\PSoC5/USBUART_std.c ****     {
 588:Generated_Source\PSoC5/USBUART_std.c ****         USBUART_EP[ep].attrib     = 0u;
 589:Generated_Source\PSoC5/USBUART_std.c ****         USBUART_EP[ep].hwEpState  = 0u;
 590:Generated_Source\PSoC5/USBUART_std.c ****         USBUART_EP[ep].epToggle   = 0u;
ARM GAS  C:\Users\ingan\AppData\Local\Temp\ccPtKCQI.s 			page 17


 591:Generated_Source\PSoC5/USBUART_std.c ****         USBUART_EP[ep].bufferSize = 0u;
 592:Generated_Source\PSoC5/USBUART_std.c ****         USBUART_EP[ep].interface  = 0u;
 593:Generated_Source\PSoC5/USBUART_std.c ****         USBUART_EP[ep].apiEpState = USBUART_NO_EVENT_PENDING;
 594:Generated_Source\PSoC5/USBUART_std.c ****         USBUART_EP[ep].epMode     = USBUART_MODE_DISABLE;   
 595:Generated_Source\PSoC5/USBUART_std.c ****     }
 596:Generated_Source\PSoC5/USBUART_std.c **** 
 597:Generated_Source\PSoC5/USBUART_std.c ****     /* Clear Alternate settings for all interfaces. */
 598:Generated_Source\PSoC5/USBUART_std.c ****     if (0u != clearAltSetting)
 599:Generated_Source\PSoC5/USBUART_std.c ****     {
 600:Generated_Source\PSoC5/USBUART_std.c ****         for (i = 0u; i < USBUART_MAX_INTERFACES_NUMBER; ++i)
 601:Generated_Source\PSoC5/USBUART_std.c ****         {
 602:Generated_Source\PSoC5/USBUART_std.c ****             USBUART_interfaceSetting[i]     = 0u;
 603:Generated_Source\PSoC5/USBUART_std.c ****             USBUART_interfaceSettingLast[i] = 0u;
 604:Generated_Source\PSoC5/USBUART_std.c ****         }
 605:Generated_Source\PSoC5/USBUART_std.c ****     }
 606:Generated_Source\PSoC5/USBUART_std.c **** 
 607:Generated_Source\PSoC5/USBUART_std.c ****     /* Init Endpoints and Device Status if configured */
 608:Generated_Source\PSoC5/USBUART_std.c ****     if (USBUART_configuration > 0u)
 609:Generated_Source\PSoC5/USBUART_std.c ****     {
 610:Generated_Source\PSoC5/USBUART_std.c ****         #if defined(USBUART_ENABLE_CDC_CLASS)
 611:Generated_Source\PSoC5/USBUART_std.c ****             uint8 cdcComNums = 0u;
 612:Generated_Source\PSoC5/USBUART_std.c ****         #endif  /* (USBUART_ENABLE_CDC_CLASS) */  
 613:Generated_Source\PSoC5/USBUART_std.c **** 
 614:Generated_Source\PSoC5/USBUART_std.c ****         pTmp = USBUART_GetConfigTablePtr(USBUART_configuration - 1u);
 615:Generated_Source\PSoC5/USBUART_std.c ****         
 616:Generated_Source\PSoC5/USBUART_std.c ****         /* Set Power status for current configuration */
 617:Generated_Source\PSoC5/USBUART_std.c ****         pDescr = (const uint8 *)pTmp->p_list;
 618:Generated_Source\PSoC5/USBUART_std.c ****         if ((pDescr[USBUART_CONFIG_DESCR_ATTRIB] & USBUART_CONFIG_DESCR_ATTRIB_SELF_POWERED) != 0u)
 619:Generated_Source\PSoC5/USBUART_std.c ****         {
 620:Generated_Source\PSoC5/USBUART_std.c ****             USBUART_deviceStatus |= (uint8)  USBUART_DEVICE_STATUS_SELF_POWERED;
 621:Generated_Source\PSoC5/USBUART_std.c ****         }
 622:Generated_Source\PSoC5/USBUART_std.c ****         else
 623:Generated_Source\PSoC5/USBUART_std.c ****         {
 624:Generated_Source\PSoC5/USBUART_std.c ****             USBUART_deviceStatus &= (uint8) ~USBUART_DEVICE_STATUS_SELF_POWERED;
 625:Generated_Source\PSoC5/USBUART_std.c ****         }
 626:Generated_Source\PSoC5/USBUART_std.c ****         
 627:Generated_Source\PSoC5/USBUART_std.c ****         /* Move to next element */
 628:Generated_Source\PSoC5/USBUART_std.c ****         pTmp = &pTmp[1u];
 629:Generated_Source\PSoC5/USBUART_std.c ****         ep = pTmp->c;  /* For this table, c is the number of endpoints configurations  */
 630:Generated_Source\PSoC5/USBUART_std.c **** 
 631:Generated_Source\PSoC5/USBUART_std.c ****         #if (USBUART_EP_MANAGEMENT_MANUAL && USBUART_EP_ALLOC_DYNAMIC)
 632:Generated_Source\PSoC5/USBUART_std.c ****             /* Configure for dynamic EP memory allocation */
 633:Generated_Source\PSoC5/USBUART_std.c ****             /* p_list points the endpoint setting table. */
 634:Generated_Source\PSoC5/USBUART_std.c ****             pEP = (T_USBUART_EP_SETTINGS_BLOCK *) pTmp->p_list;
 635:Generated_Source\PSoC5/USBUART_std.c ****             
 636:Generated_Source\PSoC5/USBUART_std.c ****             for (i = 0u; i < ep; i++)
 637:Generated_Source\PSoC5/USBUART_std.c ****             {     
 638:Generated_Source\PSoC5/USBUART_std.c ****                 /* Compare current Alternate setting with EP Alt */
 639:Generated_Source\PSoC5/USBUART_std.c ****                 if (USBUART_interfaceSetting[pEP->interface] == pEP->altSetting)
 640:Generated_Source\PSoC5/USBUART_std.c ****                 {                                                          
 641:Generated_Source\PSoC5/USBUART_std.c ****                     curEp  = pEP->addr & USBUART_DIR_UNUSED;
 642:Generated_Source\PSoC5/USBUART_std.c ****                     epType = pEP->attributes & USBUART_EP_TYPE_MASK;
 643:Generated_Source\PSoC5/USBUART_std.c ****                     
 644:Generated_Source\PSoC5/USBUART_std.c ****                     USBUART_EP[curEp].addr       = pEP->addr;
 645:Generated_Source\PSoC5/USBUART_std.c ****                     USBUART_EP[curEp].attrib     = pEP->attributes;
 646:Generated_Source\PSoC5/USBUART_std.c ****                     USBUART_EP[curEp].bufferSize = pEP->bufferSize;
 647:Generated_Source\PSoC5/USBUART_std.c **** 
ARM GAS  C:\Users\ingan\AppData\Local\Temp\ccPtKCQI.s 			page 18


 648:Generated_Source\PSoC5/USBUART_std.c ****                     if (0u != (pEP->addr & USBUART_DIR_IN))
 649:Generated_Source\PSoC5/USBUART_std.c ****                     {
 650:Generated_Source\PSoC5/USBUART_std.c ****                         /* IN Endpoint */
 651:Generated_Source\PSoC5/USBUART_std.c ****                         USBUART_EP[curEp].epMode     = USBUART_GET_ACTIVE_IN_EP_CR0_MODE(epType);
 652:Generated_Source\PSoC5/USBUART_std.c ****                         USBUART_EP[curEp].apiEpState = USBUART_EVENT_PENDING;
 653:Generated_Source\PSoC5/USBUART_std.c ****                     
 654:Generated_Source\PSoC5/USBUART_std.c ****                     #if (defined(USBUART_ENABLE_MIDI_STREAMING) && (USBUART_MIDI_IN_BUFF_SIZE > 0))
 655:Generated_Source\PSoC5/USBUART_std.c ****                         if ((pEP->bMisc == USBUART_CLASS_AUDIO) && (epType == USBUART_EP_TYPE_BULK)
 656:Generated_Source\PSoC5/USBUART_std.c ****                         {
 657:Generated_Source\PSoC5/USBUART_std.c ****                             USBUART_midi_in_ep = curEp;
 658:Generated_Source\PSoC5/USBUART_std.c ****                         }
 659:Generated_Source\PSoC5/USBUART_std.c ****                     #endif  /* (USBUART_ENABLE_MIDI_STREAMING) */
 660:Generated_Source\PSoC5/USBUART_std.c ****                     }
 661:Generated_Source\PSoC5/USBUART_std.c ****                     else
 662:Generated_Source\PSoC5/USBUART_std.c ****                     {
 663:Generated_Source\PSoC5/USBUART_std.c ****                         /* OUT Endpoint */
 664:Generated_Source\PSoC5/USBUART_std.c ****                         USBUART_EP[curEp].epMode     = USBUART_GET_ACTIVE_OUT_EP_CR0_MODE(epType);
 665:Generated_Source\PSoC5/USBUART_std.c ****                         USBUART_EP[curEp].apiEpState = USBUART_NO_EVENT_PENDING;
 666:Generated_Source\PSoC5/USBUART_std.c ****                         
 667:Generated_Source\PSoC5/USBUART_std.c ****                     #if (defined(USBUART_ENABLE_MIDI_STREAMING) && (USBUART_MIDI_OUT_BUFF_SIZE > 0)
 668:Generated_Source\PSoC5/USBUART_std.c ****                         if ((pEP->bMisc == USBUART_CLASS_AUDIO) && (epType == USBUART_EP_TYPE_BULK)
 669:Generated_Source\PSoC5/USBUART_std.c ****                         {
 670:Generated_Source\PSoC5/USBUART_std.c ****                             USBUART_midi_out_ep = curEp;
 671:Generated_Source\PSoC5/USBUART_std.c ****                         }
 672:Generated_Source\PSoC5/USBUART_std.c ****                     #endif  /* (USBUART_ENABLE_MIDI_STREAMING) */
 673:Generated_Source\PSoC5/USBUART_std.c ****                     }
 674:Generated_Source\PSoC5/USBUART_std.c **** 
 675:Generated_Source\PSoC5/USBUART_std.c ****                 #if(defined (USBUART_ENABLE_CDC_CLASS))
 676:Generated_Source\PSoC5/USBUART_std.c ****                     if((pEP->bMisc == USBUART_CLASS_CDC_DATA) ||(pEP->bMisc == USBUART_CLASS_CDC))
 677:Generated_Source\PSoC5/USBUART_std.c ****                     {
 678:Generated_Source\PSoC5/USBUART_std.c ****                         cdcComNums = USBUART_Cdc_EpInit(pEP, curEp, cdcComNums);
 679:Generated_Source\PSoC5/USBUART_std.c ****                     }
 680:Generated_Source\PSoC5/USBUART_std.c ****                 #endif  /* (USBUART_ENABLE_CDC_CLASS) */
 681:Generated_Source\PSoC5/USBUART_std.c ****                 }
 682:Generated_Source\PSoC5/USBUART_std.c ****                 
 683:Generated_Source\PSoC5/USBUART_std.c ****                 pEP = &pEP[1u];
 684:Generated_Source\PSoC5/USBUART_std.c ****             }
 685:Generated_Source\PSoC5/USBUART_std.c ****             
 686:Generated_Source\PSoC5/USBUART_std.c ****         #else
 687:Generated_Source\PSoC5/USBUART_std.c ****             for (i = USBUART_EP1; i < USBUART_MAX_EP; ++i)
 688:Generated_Source\PSoC5/USBUART_std.c ****             {
 689:Generated_Source\PSoC5/USBUART_std.c ****                 /* p_list points the endpoint setting table. */
 690:Generated_Source\PSoC5/USBUART_std.c ****                 pEP = (const T_USBUART_EP_SETTINGS_BLOCK CYCODE *) pTmp->p_list;
 691:Generated_Source\PSoC5/USBUART_std.c ****                 /* Find max length for each EP and select it (length could be different in differen
 692:Generated_Source\PSoC5/USBUART_std.c ****                 /* but other settings should be correct with regards to Interface alt Setting */
 693:Generated_Source\PSoC5/USBUART_std.c ****                 
 694:Generated_Source\PSoC5/USBUART_std.c ****                 for (curEp = 0u; curEp < ep; ++curEp)
 695:Generated_Source\PSoC5/USBUART_std.c ****                 {
 696:Generated_Source\PSoC5/USBUART_std.c ****                     if (i == (pEP->addr & USBUART_DIR_UNUSED))
 697:Generated_Source\PSoC5/USBUART_std.c ****                     {
 698:Generated_Source\PSoC5/USBUART_std.c ****                         /* Compare endpoint buffers size with current size to find greater. */
 699:Generated_Source\PSoC5/USBUART_std.c ****                         if (USBUART_EP[i].bufferSize < pEP->bufferSize)
 700:Generated_Source\PSoC5/USBUART_std.c ****                         {
 701:Generated_Source\PSoC5/USBUART_std.c ****                             USBUART_EP[i].bufferSize = pEP->bufferSize;
 702:Generated_Source\PSoC5/USBUART_std.c ****                         }
 703:Generated_Source\PSoC5/USBUART_std.c ****                         
 704:Generated_Source\PSoC5/USBUART_std.c ****                         /* Compare current Alternate setting with EP Alt */
ARM GAS  C:\Users\ingan\AppData\Local\Temp\ccPtKCQI.s 			page 19


 705:Generated_Source\PSoC5/USBUART_std.c ****                         if (USBUART_interfaceSetting[pEP->interface] == pEP->altSetting)
 706:Generated_Source\PSoC5/USBUART_std.c ****                         {                            
 707:Generated_Source\PSoC5/USBUART_std.c ****                             USBUART_EP[i].addr = pEP->addr;
 708:Generated_Source\PSoC5/USBUART_std.c ****                             USBUART_EP[i].attrib = pEP->attributes;
 709:Generated_Source\PSoC5/USBUART_std.c ****                             
 710:Generated_Source\PSoC5/USBUART_std.c ****                             epType = pEP->attributes & USBUART_EP_TYPE_MASK;
 711:Generated_Source\PSoC5/USBUART_std.c ****                             
 712:Generated_Source\PSoC5/USBUART_std.c ****                             if (0u != (pEP->addr & USBUART_DIR_IN))
 713:Generated_Source\PSoC5/USBUART_std.c ****                             {
 714:Generated_Source\PSoC5/USBUART_std.c ****                                 /* IN Endpoint */
 715:Generated_Source\PSoC5/USBUART_std.c ****                                 USBUART_EP[i].epMode     = USBUART_GET_ACTIVE_IN_EP_CR0_MODE(epType
 716:Generated_Source\PSoC5/USBUART_std.c ****                                 USBUART_EP[i].apiEpState = USBUART_EVENT_PENDING;
 717:Generated_Source\PSoC5/USBUART_std.c ****                                 
 718:Generated_Source\PSoC5/USBUART_std.c ****                             #if (defined(USBUART_ENABLE_MIDI_STREAMING) && (USBUART_MIDI_IN_BUFF_SI
 719:Generated_Source\PSoC5/USBUART_std.c ****                                 if ((pEP->bMisc == USBUART_CLASS_AUDIO) && (epType == USBUART_EP_TY
 720:Generated_Source\PSoC5/USBUART_std.c ****                                 {
 721:Generated_Source\PSoC5/USBUART_std.c ****                                     USBUART_midi_in_ep = i;
 722:Generated_Source\PSoC5/USBUART_std.c ****                                 }
 723:Generated_Source\PSoC5/USBUART_std.c ****                             #endif  /* (USBUART_ENABLE_MIDI_STREAMING) */
 724:Generated_Source\PSoC5/USBUART_std.c ****                             }
 725:Generated_Source\PSoC5/USBUART_std.c ****                             else
 726:Generated_Source\PSoC5/USBUART_std.c ****                             {
 727:Generated_Source\PSoC5/USBUART_std.c ****                                 /* OUT Endpoint */
 728:Generated_Source\PSoC5/USBUART_std.c ****                                 USBUART_EP[i].epMode     = USBUART_GET_ACTIVE_OUT_EP_CR0_MODE(epTyp
 729:Generated_Source\PSoC5/USBUART_std.c ****                                 USBUART_EP[i].apiEpState = USBUART_NO_EVENT_PENDING;
 730:Generated_Source\PSoC5/USBUART_std.c ****                                 
 731:Generated_Source\PSoC5/USBUART_std.c ****                             #if (defined(USBUART_ENABLE_MIDI_STREAMING) && (USBUART_MIDI_OUT_BUFF_S
 732:Generated_Source\PSoC5/USBUART_std.c ****                                 if ((pEP->bMisc == USBUART_CLASS_AUDIO) && (epType == USBUART_EP_TY
 733:Generated_Source\PSoC5/USBUART_std.c ****                                 {
 734:Generated_Source\PSoC5/USBUART_std.c ****                                     USBUART_midi_out_ep = i;
 735:Generated_Source\PSoC5/USBUART_std.c ****                                 }
 736:Generated_Source\PSoC5/USBUART_std.c ****                             #endif  /* (USBUART_ENABLE_MIDI_STREAMING) */
 737:Generated_Source\PSoC5/USBUART_std.c ****                             }
 738:Generated_Source\PSoC5/USBUART_std.c **** 
 739:Generated_Source\PSoC5/USBUART_std.c ****                         #if (defined(USBUART_ENABLE_CDC_CLASS))
 740:Generated_Source\PSoC5/USBUART_std.c ****                             if((pEP->bMisc == USBUART_CLASS_CDC_DATA) ||(pEP->bMisc == USBUART_CLAS
 741:Generated_Source\PSoC5/USBUART_std.c ****                             {
 742:Generated_Source\PSoC5/USBUART_std.c ****                                 cdcComNums = USBUART_Cdc_EpInit(pEP, i, cdcComNums);
 743:Generated_Source\PSoC5/USBUART_std.c ****                             }
 744:Generated_Source\PSoC5/USBUART_std.c ****                         #endif  /* (USBUART_ENABLE_CDC_CLASS) */
 745:Generated_Source\PSoC5/USBUART_std.c **** 
 746:Generated_Source\PSoC5/USBUART_std.c ****                             #if (USBUART_EP_MANAGEMENT_DMA_AUTO)
 747:Generated_Source\PSoC5/USBUART_std.c ****                                 break;  /* Use first EP setting in Auto memory management */
 748:Generated_Source\PSoC5/USBUART_std.c ****                             #endif /* (USBUART_EP_MANAGEMENT_DMA_AUTO) */
 749:Generated_Source\PSoC5/USBUART_std.c ****                         }
 750:Generated_Source\PSoC5/USBUART_std.c ****                     }
 751:Generated_Source\PSoC5/USBUART_std.c ****                     
 752:Generated_Source\PSoC5/USBUART_std.c ****                     pEP = &pEP[1u];
 753:Generated_Source\PSoC5/USBUART_std.c ****                 }
 754:Generated_Source\PSoC5/USBUART_std.c ****             }
 755:Generated_Source\PSoC5/USBUART_std.c ****         #endif /*  (USBUART_EP_MANAGEMENT_MANUAL && USBUART_EP_ALLOC_DYNAMIC) */
 756:Generated_Source\PSoC5/USBUART_std.c **** 
 757:Generated_Source\PSoC5/USBUART_std.c ****         /* Init class array for each interface and interface number for each EP.
 758:Generated_Source\PSoC5/USBUART_std.c ****         *  It is used for handling Class specific requests directed to either an
 759:Generated_Source\PSoC5/USBUART_std.c ****         *  interface or the endpoint.
 760:Generated_Source\PSoC5/USBUART_std.c ****         */
 761:Generated_Source\PSoC5/USBUART_std.c ****         /* p_list points the endpoint setting table. */
ARM GAS  C:\Users\ingan\AppData\Local\Temp\ccPtKCQI.s 			page 20


 762:Generated_Source\PSoC5/USBUART_std.c ****         pEP = (const T_USBUART_EP_SETTINGS_BLOCK CYCODE *) pTmp->p_list;
 763:Generated_Source\PSoC5/USBUART_std.c ****         for (i = 0u; i < ep; i++)
 764:Generated_Source\PSoC5/USBUART_std.c ****         {
 765:Generated_Source\PSoC5/USBUART_std.c ****             /* Configure interface number for each EP */
 766:Generated_Source\PSoC5/USBUART_std.c ****             USBUART_EP[pEP->addr & USBUART_DIR_UNUSED].interface = pEP->interface;
 767:Generated_Source\PSoC5/USBUART_std.c ****             pEP = &pEP[1u];
 768:Generated_Source\PSoC5/USBUART_std.c ****         }
 769:Generated_Source\PSoC5/USBUART_std.c ****         
 770:Generated_Source\PSoC5/USBUART_std.c ****         /* Init pointer on interface class table */
 771:Generated_Source\PSoC5/USBUART_std.c ****         USBUART_interfaceClass = USBUART_GetInterfaceClassTablePtr();
 772:Generated_Source\PSoC5/USBUART_std.c ****         
 773:Generated_Source\PSoC5/USBUART_std.c ****     /* Set the endpoint buffer addresses */
 774:Generated_Source\PSoC5/USBUART_std.c ****     #if (!USBUART_EP_MANAGEMENT_DMA_AUTO)
 775:Generated_Source\PSoC5/USBUART_std.c ****         buffCount = 0u;
 776:Generated_Source\PSoC5/USBUART_std.c ****         for (ep = USBUART_EP1; ep < USBUART_MAX_EP; ++ep)
 777:Generated_Source\PSoC5/USBUART_std.c ****         {
 778:Generated_Source\PSoC5/USBUART_std.c ****             USBUART_EP[ep].buffOffset = buffCount;        
 779:Generated_Source\PSoC5/USBUART_std.c ****             buffCount += USBUART_EP[ep].bufferSize;
 780:Generated_Source\PSoC5/USBUART_std.c ****             
 781:Generated_Source\PSoC5/USBUART_std.c ****         #if (USBUART_GEN_16BITS_EP_ACCESS)
 782:Generated_Source\PSoC5/USBUART_std.c ****             /* Align EP buffers to be event size to access 16-bits DR register. */
 783:Generated_Source\PSoC5/USBUART_std.c ****             buffCount += (0u != (buffCount & 0x01u)) ? 1u : 0u;
 784:Generated_Source\PSoC5/USBUART_std.c ****         #endif /* (USBUART_GEN_16BITS_EP_ACCESS) */            
 785:Generated_Source\PSoC5/USBUART_std.c ****         }
 786:Generated_Source\PSoC5/USBUART_std.c ****     #endif /* (!USBUART_EP_MANAGEMENT_DMA_AUTO) */
 787:Generated_Source\PSoC5/USBUART_std.c **** 
 788:Generated_Source\PSoC5/USBUART_std.c ****         /* Configure hardware registers */
 789:Generated_Source\PSoC5/USBUART_std.c ****         USBUART_ConfigReg();
 790:Generated_Source\PSoC5/USBUART_std.c ****     }
 791:Generated_Source\PSoC5/USBUART_std.c **** }
 792:Generated_Source\PSoC5/USBUART_std.c **** 
 793:Generated_Source\PSoC5/USBUART_std.c **** 
 794:Generated_Source\PSoC5/USBUART_std.c **** /*******************************************************************************
 795:Generated_Source\PSoC5/USBUART_std.c **** * Function Name: USBUART_ConfigAltChanged
 796:Generated_Source\PSoC5/USBUART_std.c **** ****************************************************************************//**
 797:Generated_Source\PSoC5/USBUART_std.c **** *
 798:Generated_Source\PSoC5/USBUART_std.c **** *  This routine update configuration for the required endpoints only.
 799:Generated_Source\PSoC5/USBUART_std.c **** *  It is called after SET_INTERFACE request when Static memory allocation used.
 800:Generated_Source\PSoC5/USBUART_std.c **** *
 801:Generated_Source\PSoC5/USBUART_std.c **** * \reentrant
 802:Generated_Source\PSoC5/USBUART_std.c **** *  No.
 803:Generated_Source\PSoC5/USBUART_std.c **** *
 804:Generated_Source\PSoC5/USBUART_std.c **** *******************************************************************************/
 805:Generated_Source\PSoC5/USBUART_std.c **** void USBUART_ConfigAltChanged(void) 
 806:Generated_Source\PSoC5/USBUART_std.c **** {
 807:Generated_Source\PSoC5/USBUART_std.c ****     uint8 ep;
 808:Generated_Source\PSoC5/USBUART_std.c ****     uint8 curEp;
 809:Generated_Source\PSoC5/USBUART_std.c ****     uint8 epType;
 810:Generated_Source\PSoC5/USBUART_std.c ****     uint8 i;
 811:Generated_Source\PSoC5/USBUART_std.c ****     uint8 interfaceNum;
 812:Generated_Source\PSoC5/USBUART_std.c **** 
 813:Generated_Source\PSoC5/USBUART_std.c ****     const T_USBUART_LUT CYCODE *pTmp;
 814:Generated_Source\PSoC5/USBUART_std.c ****     const T_USBUART_EP_SETTINGS_BLOCK CYCODE *pEP;
 815:Generated_Source\PSoC5/USBUART_std.c **** 
 816:Generated_Source\PSoC5/USBUART_std.c ****     /* Init Endpoints and Device Status if configured */
 817:Generated_Source\PSoC5/USBUART_std.c ****     if (USBUART_configuration > 0u)
 818:Generated_Source\PSoC5/USBUART_std.c ****     {
ARM GAS  C:\Users\ingan\AppData\Local\Temp\ccPtKCQI.s 			page 21


 819:Generated_Source\PSoC5/USBUART_std.c ****         /* Get number of endpoints configurations (ep). */
 820:Generated_Source\PSoC5/USBUART_std.c ****         pTmp = USBUART_GetConfigTablePtr(USBUART_configuration - 1u);
 821:Generated_Source\PSoC5/USBUART_std.c ****         pTmp = &pTmp[1u];
 822:Generated_Source\PSoC5/USBUART_std.c ****         ep = pTmp->c;
 823:Generated_Source\PSoC5/USBUART_std.c **** 
 824:Generated_Source\PSoC5/USBUART_std.c ****         /* Get pointer to endpoints setting table (pEP). */
 825:Generated_Source\PSoC5/USBUART_std.c ****         pEP = (const T_USBUART_EP_SETTINGS_BLOCK CYCODE *) pTmp->p_list;
 826:Generated_Source\PSoC5/USBUART_std.c ****         
 827:Generated_Source\PSoC5/USBUART_std.c ****         /* Look through all possible endpoint configurations. Find endpoints 
 828:Generated_Source\PSoC5/USBUART_std.c ****         * which belong to current interface and alternate settings for 
 829:Generated_Source\PSoC5/USBUART_std.c ****         * re-configuration.
 830:Generated_Source\PSoC5/USBUART_std.c ****         */
 831:Generated_Source\PSoC5/USBUART_std.c ****         interfaceNum = USBUART_interfaceNumber;
 832:Generated_Source\PSoC5/USBUART_std.c ****         for (i = 0u; i < ep; i++)
 833:Generated_Source\PSoC5/USBUART_std.c ****         {
 834:Generated_Source\PSoC5/USBUART_std.c ****             /* Find endpoints which belong to current interface and alternate settings. */
 835:Generated_Source\PSoC5/USBUART_std.c ****             if ((interfaceNum == pEP->interface) && 
 836:Generated_Source\PSoC5/USBUART_std.c ****                 (USBUART_interfaceSetting[interfaceNum] == pEP->altSetting))
 837:Generated_Source\PSoC5/USBUART_std.c ****             {
 838:Generated_Source\PSoC5/USBUART_std.c ****                 curEp  = ((uint8) pEP->addr & USBUART_DIR_UNUSED);
 839:Generated_Source\PSoC5/USBUART_std.c ****                 epType = ((uint8) pEP->attributes & USBUART_EP_TYPE_MASK);
 840:Generated_Source\PSoC5/USBUART_std.c ****                 
 841:Generated_Source\PSoC5/USBUART_std.c ****                 /* Change the SIE mode for the selected EP to NAK ALL */
 842:Generated_Source\PSoC5/USBUART_std.c ****                 USBUART_EP[curEp].epToggle   = 0u;
 843:Generated_Source\PSoC5/USBUART_std.c ****                 USBUART_EP[curEp].addr       = pEP->addr;
 844:Generated_Source\PSoC5/USBUART_std.c ****                 USBUART_EP[curEp].attrib     = pEP->attributes;
 845:Generated_Source\PSoC5/USBUART_std.c ****                 USBUART_EP[curEp].bufferSize = pEP->bufferSize;
 846:Generated_Source\PSoC5/USBUART_std.c **** 
 847:Generated_Source\PSoC5/USBUART_std.c ****                 if (0u != (pEP->addr & USBUART_DIR_IN))
 848:Generated_Source\PSoC5/USBUART_std.c ****                 {
 849:Generated_Source\PSoC5/USBUART_std.c ****                     /* IN Endpoint */
 850:Generated_Source\PSoC5/USBUART_std.c ****                     USBUART_EP[curEp].epMode     = USBUART_GET_ACTIVE_IN_EP_CR0_MODE(epType);
 851:Generated_Source\PSoC5/USBUART_std.c ****                     USBUART_EP[curEp].apiEpState = USBUART_EVENT_PENDING;
 852:Generated_Source\PSoC5/USBUART_std.c ****                 }
 853:Generated_Source\PSoC5/USBUART_std.c ****                 else
 854:Generated_Source\PSoC5/USBUART_std.c ****                 {
 855:Generated_Source\PSoC5/USBUART_std.c ****                     /* OUT Endpoint */
 856:Generated_Source\PSoC5/USBUART_std.c ****                     USBUART_EP[curEp].epMode     = USBUART_GET_ACTIVE_OUT_EP_CR0_MODE(epType);
 857:Generated_Source\PSoC5/USBUART_std.c ****                     USBUART_EP[curEp].apiEpState = USBUART_NO_EVENT_PENDING;
 858:Generated_Source\PSoC5/USBUART_std.c ****                 }
 859:Generated_Source\PSoC5/USBUART_std.c ****                 
 860:Generated_Source\PSoC5/USBUART_std.c ****                 /* Make SIE to NAK any endpoint requests */
 861:Generated_Source\PSoC5/USBUART_std.c ****                 USBUART_SIE_EP_BASE.sieEp[curEp].epCr0 = USBUART_MODE_NAK_IN_OUT;
 862:Generated_Source\PSoC5/USBUART_std.c **** 
 863:Generated_Source\PSoC5/USBUART_std.c ****             #if (USBUART_EP_MANAGEMENT_DMA_AUTO)
 864:Generated_Source\PSoC5/USBUART_std.c ****                 /* Clear IN data ready. */
 865:Generated_Source\PSoC5/USBUART_std.c ****                 USBUART_ARB_EP_BASE.arbEp[curEp].epCfg &= (uint8) ~USBUART_ARB_EPX_CFG_IN_DATA_RDY;
 866:Generated_Source\PSoC5/USBUART_std.c **** 
 867:Generated_Source\PSoC5/USBUART_std.c ****                 /* Select endpoint number of reconfiguration */
 868:Generated_Source\PSoC5/USBUART_std.c ****                 USBUART_DYN_RECONFIG_REG = (uint8) ((curEp - 1u) << USBUART_DYN_RECONFIG_EP_SHIFT);
 869:Generated_Source\PSoC5/USBUART_std.c ****                 
 870:Generated_Source\PSoC5/USBUART_std.c ****                 /* Request for dynamic re-configuration of endpoint. */
 871:Generated_Source\PSoC5/USBUART_std.c ****                 USBUART_DYN_RECONFIG_REG |= USBUART_DYN_RECONFIG_ENABLE;
 872:Generated_Source\PSoC5/USBUART_std.c ****                 
 873:Generated_Source\PSoC5/USBUART_std.c ****                 /* Wait until block is ready for re-configuration */
 874:Generated_Source\PSoC5/USBUART_std.c ****                 while (0u == (USBUART_DYN_RECONFIG_REG & USBUART_DYN_RECONFIG_RDY_STS))
 875:Generated_Source\PSoC5/USBUART_std.c ****                 {
ARM GAS  C:\Users\ingan\AppData\Local\Temp\ccPtKCQI.s 			page 22


 876:Generated_Source\PSoC5/USBUART_std.c ****                 }
 877:Generated_Source\PSoC5/USBUART_std.c ****                 
 878:Generated_Source\PSoC5/USBUART_std.c ****                 /* Once DYN_RECONFIG_RDY_STS bit is set, FW can change the EP configuration. */
 879:Generated_Source\PSoC5/USBUART_std.c ****                 /* Change EP Type with new direction */
 880:Generated_Source\PSoC5/USBUART_std.c ****                 if (0u != (pEP->addr & USBUART_DIR_IN))
 881:Generated_Source\PSoC5/USBUART_std.c ****                 {
 882:Generated_Source\PSoC5/USBUART_std.c ****                     /* Set endpoint type: 0 - IN and 1 - OUT. */
 883:Generated_Source\PSoC5/USBUART_std.c ****                     USBUART_EP_TYPE_REG &= (uint8) ~(uint8)((uint8) 0x01u << (curEp - 1u));
 884:Generated_Source\PSoC5/USBUART_std.c ****                     
 885:Generated_Source\PSoC5/USBUART_std.c ****                 #if (CY_PSOC4)
 886:Generated_Source\PSoC5/USBUART_std.c ****                     /* Clear DMA_TERMIN for IN endpoint */
 887:Generated_Source\PSoC5/USBUART_std.c ****                     USBUART_ARB_EP_BASE.arbEp[curEp].epIntEn &= (uint32) ~USBUART_ARB_EPX_INT_DMA_T
 888:Generated_Source\PSoC5/USBUART_std.c ****                 #endif /* (CY_PSOC4) */
 889:Generated_Source\PSoC5/USBUART_std.c ****                 }
 890:Generated_Source\PSoC5/USBUART_std.c ****                 else
 891:Generated_Source\PSoC5/USBUART_std.c ****                 {
 892:Generated_Source\PSoC5/USBUART_std.c ****                     /* Set endpoint type: 0 - IN and 1- OUT. */
 893:Generated_Source\PSoC5/USBUART_std.c ****                     USBUART_EP_TYPE_REG |= (uint8) ((uint8) 0x01u << (curEp - 1u));
 894:Generated_Source\PSoC5/USBUART_std.c ****                     
 895:Generated_Source\PSoC5/USBUART_std.c ****                 #if (CY_PSOC4)
 896:Generated_Source\PSoC5/USBUART_std.c ****                     /* Set DMA_TERMIN for OUT endpoint */
 897:Generated_Source\PSoC5/USBUART_std.c ****                     USBUART_ARB_EP_BASE.arbEp[curEp].epIntEn |= (uint32) USBUART_ARB_EPX_INT_DMA_TE
 898:Generated_Source\PSoC5/USBUART_std.c ****                 #endif /* (CY_PSOC4) */
 899:Generated_Source\PSoC5/USBUART_std.c ****                 }
 900:Generated_Source\PSoC5/USBUART_std.c ****                 
 901:Generated_Source\PSoC5/USBUART_std.c ****                 /* Complete dynamic re-configuration: all endpoint related status and signals 
 902:Generated_Source\PSoC5/USBUART_std.c ****                 * are set into the default state.
 903:Generated_Source\PSoC5/USBUART_std.c ****                 */
 904:Generated_Source\PSoC5/USBUART_std.c ****                 USBUART_DYN_RECONFIG_REG &= (uint8) ~USBUART_DYN_RECONFIG_ENABLE;
 905:Generated_Source\PSoC5/USBUART_std.c **** 
 906:Generated_Source\PSoC5/USBUART_std.c ****             #else
 907:Generated_Source\PSoC5/USBUART_std.c ****                 USBUART_SIE_EP_BASE.sieEp[curEp].epCnt0 = HI8(USBUART_EP[curEp].bufferSize);
 908:Generated_Source\PSoC5/USBUART_std.c ****                 USBUART_SIE_EP_BASE.sieEp[curEp].epCnt1 = LO8(USBUART_EP[curEp].bufferSize);
 909:Generated_Source\PSoC5/USBUART_std.c ****                 
 910:Generated_Source\PSoC5/USBUART_std.c ****                 #if (CY_PSOC4)
 911:Generated_Source\PSoC5/USBUART_std.c ****                     USBUART_ARB_EP16_BASE.arbEp[curEp].rwRa16  = (uint32) USBUART_EP[curEp].buffOff
 912:Generated_Source\PSoC5/USBUART_std.c ****                     USBUART_ARB_EP16_BASE.arbEp[curEp].rwWa16  = (uint32) USBUART_EP[curEp].buffOff
 913:Generated_Source\PSoC5/USBUART_std.c ****                 #else
 914:Generated_Source\PSoC5/USBUART_std.c ****                     USBUART_ARB_EP_BASE.arbEp[curEp].rwRa    = LO8(USBUART_EP[curEp].buffOffset);
 915:Generated_Source\PSoC5/USBUART_std.c ****                     USBUART_ARB_EP_BASE.arbEp[curEp].rwRaMsb = HI8(USBUART_EP[curEp].buffOffset);
 916:Generated_Source\PSoC5/USBUART_std.c ****                     USBUART_ARB_EP_BASE.arbEp[curEp].rwWa    = LO8(USBUART_EP[curEp].buffOffset);
 917:Generated_Source\PSoC5/USBUART_std.c ****                     USBUART_ARB_EP_BASE.arbEp[curEp].rwWaMsb = HI8(USBUART_EP[curEp].buffOffset);
 918:Generated_Source\PSoC5/USBUART_std.c ****                 #endif /* (CY_PSOC4) */                
 919:Generated_Source\PSoC5/USBUART_std.c ****             #endif /* (USBUART_EP_MANAGEMENT_DMA_AUTO) */
 920:Generated_Source\PSoC5/USBUART_std.c ****             }
 921:Generated_Source\PSoC5/USBUART_std.c ****             
 922:Generated_Source\PSoC5/USBUART_std.c ****             pEP = &pEP[1u]; /* Get next EP element */
 923:Generated_Source\PSoC5/USBUART_std.c ****         }
 924:Generated_Source\PSoC5/USBUART_std.c ****         
 925:Generated_Source\PSoC5/USBUART_std.c ****         /* The main loop has to re-enable DMA and OUT endpoint */
 926:Generated_Source\PSoC5/USBUART_std.c ****     }
 927:Generated_Source\PSoC5/USBUART_std.c **** }
 928:Generated_Source\PSoC5/USBUART_std.c **** 
 929:Generated_Source\PSoC5/USBUART_std.c **** 
 930:Generated_Source\PSoC5/USBUART_std.c **** /*******************************************************************************
 931:Generated_Source\PSoC5/USBUART_std.c **** * Function Name: USBUART_GetConfigTablePtr
 932:Generated_Source\PSoC5/USBUART_std.c **** ****************************************************************************//**
ARM GAS  C:\Users\ingan\AppData\Local\Temp\ccPtKCQI.s 			page 23


 933:Generated_Source\PSoC5/USBUART_std.c **** *
 934:Generated_Source\PSoC5/USBUART_std.c **** *  This routine returns a pointer a configuration table entry
 935:Generated_Source\PSoC5/USBUART_std.c **** *
 936:Generated_Source\PSoC5/USBUART_std.c **** *  \param confIndex:  Configuration Index
 937:Generated_Source\PSoC5/USBUART_std.c **** *
 938:Generated_Source\PSoC5/USBUART_std.c **** * \return
 939:Generated_Source\PSoC5/USBUART_std.c **** *  Device Descriptor pointer or NULL when descriptor does not exist.
 940:Generated_Source\PSoC5/USBUART_std.c **** *
 941:Generated_Source\PSoC5/USBUART_std.c **** *******************************************************************************/
 942:Generated_Source\PSoC5/USBUART_std.c **** const T_USBUART_LUT CYCODE *USBUART_GetConfigTablePtr(uint8 confIndex)
 943:Generated_Source\PSoC5/USBUART_std.c ****                                                         
 944:Generated_Source\PSoC5/USBUART_std.c **** {
 316              		.loc 1 944 0
 317              		.cfi_startproc
 318              		@ args = 0, pretend = 0, frame = 0
 319              		@ frame_needed = 0, uses_anonymous_args = 0
 320              		@ link register save eliminated.
 321              	.LVL20:
 945:Generated_Source\PSoC5/USBUART_std.c ****     /* Device Table */
 946:Generated_Source\PSoC5/USBUART_std.c ****     const T_USBUART_LUT CYCODE *pTmp;
 947:Generated_Source\PSoC5/USBUART_std.c **** 
 948:Generated_Source\PSoC5/USBUART_std.c ****     pTmp = (const T_USBUART_LUT CYCODE *) USBUART_TABLE[USBUART_device].p_list;
 322              		.loc 1 948 0
 323 0000 074B     		ldr	r3, .L27
 324 0002 1A78     		ldrb	r2, [r3]	@ zero_extendqisi2
 325 0004 074B     		ldr	r3, .L27+4
 326 0006 03EBC203 		add	r3, r3, r2, lsl #3
 327 000a 5B68     		ldr	r3, [r3, #4]
 328              	.LVL21:
 949:Generated_Source\PSoC5/USBUART_std.c **** 
 950:Generated_Source\PSoC5/USBUART_std.c ****     /* The first entry points to the Device Descriptor,
 951:Generated_Source\PSoC5/USBUART_std.c ****     *  the second entry point to the BOS Descriptor
 952:Generated_Source\PSoC5/USBUART_std.c ****     *  the rest configuration entries.
 953:Generated_Source\PSoC5/USBUART_std.c ****     *  Set pointer to the first Configuration Descriptor
 954:Generated_Source\PSoC5/USBUART_std.c ****     */
 955:Generated_Source\PSoC5/USBUART_std.c ****     pTmp = &pTmp[2u];
 956:Generated_Source\PSoC5/USBUART_std.c ****     /* For this table, c is the number of configuration descriptors  */
 957:Generated_Source\PSoC5/USBUART_std.c ****     if(confIndex >= pTmp->c)   /* Verify that required configuration descriptor exists */
 329              		.loc 1 957 0
 330 000c 1A7C     		ldrb	r2, [r3, #16]	@ zero_extendqisi2
 331 000e 8242     		cmp	r2, r0
 332 0010 04D9     		bls	.L26
 958:Generated_Source\PSoC5/USBUART_std.c ****     {
 959:Generated_Source\PSoC5/USBUART_std.c ****         pTmp = (const T_USBUART_LUT CYCODE *) NULL;
 960:Generated_Source\PSoC5/USBUART_std.c ****     }
 961:Generated_Source\PSoC5/USBUART_std.c ****     else
 962:Generated_Source\PSoC5/USBUART_std.c ****     {
 963:Generated_Source\PSoC5/USBUART_std.c ****         pTmp = (const T_USBUART_LUT CYCODE *) pTmp[confIndex].p_list;
 333              		.loc 1 963 0
 334 0012 C000     		lsls	r0, r0, #3
 335              	.LVL22:
 336 0014 1030     		adds	r0, r0, #16
 337 0016 1844     		add	r0, r0, r3
 338 0018 4068     		ldr	r0, [r0, #4]
 339              	.LVL23:
 340 001a 7047     		bx	lr
 341              	.LVL24:
ARM GAS  C:\Users\ingan\AppData\Local\Temp\ccPtKCQI.s 			page 24


 342              	.L26:
 959:Generated_Source\PSoC5/USBUART_std.c ****     }
 343              		.loc 1 959 0
 344 001c 0020     		movs	r0, #0
 345              	.LVL25:
 964:Generated_Source\PSoC5/USBUART_std.c ****     }
 965:Generated_Source\PSoC5/USBUART_std.c **** 
 966:Generated_Source\PSoC5/USBUART_std.c ****     return (pTmp);
 967:Generated_Source\PSoC5/USBUART_std.c **** }
 346              		.loc 1 967 0
 347 001e 7047     		bx	lr
 348              	.L28:
 349              		.align	2
 350              	.L27:
 351 0020 00000000 		.word	USBUART_device
 352 0024 00000000 		.word	USBUART_TABLE
 353              		.cfi_endproc
 354              	.LFE6:
 355              		.size	USBUART_GetConfigTablePtr, .-USBUART_GetConfigTablePtr
 356              		.section	.text.USBUART_ConfigAltChanged,"ax",%progbits
 357              		.align	2
 358              		.global	USBUART_ConfigAltChanged
 359              		.thumb
 360              		.thumb_func
 361              		.type	USBUART_ConfigAltChanged, %function
 362              	USBUART_ConfigAltChanged:
 363              	.LFB5:
 806:Generated_Source\PSoC5/USBUART_std.c ****     uint8 ep;
 364              		.loc 1 806 0
 365              		.cfi_startproc
 366              		@ args = 0, pretend = 0, frame = 0
 367              		@ frame_needed = 0, uses_anonymous_args = 0
 368 0000 F8B5     		push	{r3, r4, r5, r6, r7, lr}
 369              		.cfi_def_cfa_offset 24
 370              		.cfi_offset 3, -24
 371              		.cfi_offset 4, -20
 372              		.cfi_offset 5, -16
 373              		.cfi_offset 6, -12
 374              		.cfi_offset 7, -8
 375              		.cfi_offset 14, -4
 817:Generated_Source\PSoC5/USBUART_std.c ****     {
 376              		.loc 1 817 0
 377 0002 404B     		ldr	r3, .L41
 378 0004 1B78     		ldrb	r3, [r3]	@ zero_extendqisi2
 379 0006 13F0FF0F 		tst	r3, #255
 380 000a 79D0     		beq	.L29
 820:Generated_Source\PSoC5/USBUART_std.c ****         pTmp = &pTmp[1u];
 381              		.loc 1 820 0
 382 000c 3D4B     		ldr	r3, .L41
 383 000e 1878     		ldrb	r0, [r3]	@ zero_extendqisi2
 384 0010 0138     		subs	r0, r0, #1
 385 0012 C0B2     		uxtb	r0, r0
 386 0014 FFF7FEFF 		bl	USBUART_GetConfigTablePtr
 387              	.LVL26:
 822:Generated_Source\PSoC5/USBUART_std.c **** 
 388              		.loc 1 822 0
 389 0018 047A     		ldrb	r4, [r0, #8]	@ zero_extendqisi2
ARM GAS  C:\Users\ingan\AppData\Local\Temp\ccPtKCQI.s 			page 25


 390              	.LVL27:
 825:Generated_Source\PSoC5/USBUART_std.c ****         
 391              		.loc 1 825 0
 392 001a C268     		ldr	r2, [r0, #12]
 393              	.LVL28:
 831:Generated_Source\PSoC5/USBUART_std.c ****         for (i = 0u; i < ep; i++)
 394              		.loc 1 831 0
 395 001c 3A4B     		ldr	r3, .L41+4
 396 001e 1878     		ldrb	r0, [r3]	@ zero_extendqisi2
 397              	.LVL29:
 398 0020 C0B2     		uxtb	r0, r0
 399              	.LVL30:
 832:Generated_Source\PSoC5/USBUART_std.c ****         {
 400              		.loc 1 832 0
 401 0022 0023     		movs	r3, #0
 402 0024 6AE0     		b	.L31
 403              	.LVL31:
 404              	.L37:
 835:Generated_Source\PSoC5/USBUART_std.c ****                 (USBUART_interfaceSetting[interfaceNum] == pEP->altSetting))
 405              		.loc 1 835 0
 406 0026 1178     		ldrb	r1, [r2]	@ zero_extendqisi2
 407 0028 8842     		cmp	r0, r1
 408 002a 64D1     		bne	.L32
 836:Generated_Source\PSoC5/USBUART_std.c ****             {
 409              		.loc 1 836 0 discriminator 1
 410 002c 3749     		ldr	r1, .L41+8
 411 002e 095C     		ldrb	r1, [r1, r0]	@ zero_extendqisi2
 412 0030 C9B2     		uxtb	r1, r1
 413 0032 5578     		ldrb	r5, [r2, #1]	@ zero_extendqisi2
 835:Generated_Source\PSoC5/USBUART_std.c ****                 (USBUART_interfaceSetting[interfaceNum] == pEP->altSetting))
 414              		.loc 1 835 0 discriminator 1
 415 0034 A942     		cmp	r1, r5
 416 0036 5ED1     		bne	.L32
 838:Generated_Source\PSoC5/USBUART_std.c ****                 epType = ((uint8) pEP->attributes & USBUART_EP_TYPE_MASK);
 417              		.loc 1 838 0
 418 0038 9178     		ldrb	r1, [r2, #2]	@ zero_extendqisi2
 419 003a 01F07F01 		and	r1, r1, #127
 420              	.LVL32:
 839:Generated_Source\PSoC5/USBUART_std.c ****                 
 421              		.loc 1 839 0
 422 003e D678     		ldrb	r6, [r2, #3]	@ zero_extendqisi2
 423 0040 06F00306 		and	r6, r6, #3
 424              	.LVL33:
 842:Generated_Source\PSoC5/USBUART_std.c ****                 USBUART_EP[curEp].addr       = pEP->addr;
 425              		.loc 1 842 0
 426 0044 DFF8C8E0 		ldr	lr, .L41+12
 427 0048 4D00     		lsls	r5, r1, #1
 428 004a 0D44     		add	r5, r5, r1
 429 004c AF00     		lsls	r7, r5, #2
 430 004e 0EEB0705 		add	r5, lr, r7
 431 0052 4FF0000C 		mov	ip, #0
 432 0056 85F803C0 		strb	ip, [r5, #3]
 843:Generated_Source\PSoC5/USBUART_std.c ****                 USBUART_EP[curEp].attrib     = pEP->attributes;
 433              		.loc 1 843 0
 434 005a 92F802C0 		ldrb	ip, [r2, #2]	@ zero_extendqisi2
 435 005e 85F804C0 		strb	ip, [r5, #4]
 844:Generated_Source\PSoC5/USBUART_std.c ****                 USBUART_EP[curEp].bufferSize = pEP->bufferSize;
ARM GAS  C:\Users\ingan\AppData\Local\Temp\ccPtKCQI.s 			page 26


 436              		.loc 1 844 0
 437 0062 92F803C0 		ldrb	ip, [r2, #3]	@ zero_extendqisi2
 438 0066 0EF807C0 		strb	ip, [lr, r7]
 845:Generated_Source\PSoC5/USBUART_std.c **** 
 439              		.loc 1 845 0
 440 006a 9788     		ldrh	r7, [r2, #4]
 441 006c 2F81     		strh	r7, [r5, #8]	@ movhi
 847:Generated_Source\PSoC5/USBUART_std.c ****                 {
 442              		.loc 1 847 0
 443 006e 92F90250 		ldrsb	r5, [r2, #2]
 444 0072 002D     		cmp	r5, #0
 445 0074 0DDA     		bge	.L33
 850:Generated_Source\PSoC5/USBUART_std.c ****                     USBUART_EP[curEp].apiEpState = USBUART_EVENT_PENDING;
 446              		.loc 1 850 0
 447 0076 012E     		cmp	r6, #1
 448 0078 01D1     		bne	.L38
 449 007a 0727     		movs	r7, #7
 450 007c 00E0     		b	.L34
 451              	.L38:
 452 007e 0D27     		movs	r7, #13
 453              	.L34:
 850:Generated_Source\PSoC5/USBUART_std.c ****                     USBUART_EP[curEp].apiEpState = USBUART_EVENT_PENDING;
 454              		.loc 1 850 0 is_stmt 0 discriminator 4
 455 0080 4E00     		lsls	r6, r1, #1
 456              	.LVL34:
 457 0082 0E44     		add	r6, r6, r1
 458 0084 B500     		lsls	r5, r6, #2
 459 0086 224E     		ldr	r6, .L41+12
 460 0088 3544     		add	r5, r5, r6
 461 008a 6F71     		strb	r7, [r5, #5]
 851:Generated_Source\PSoC5/USBUART_std.c ****                 }
 462              		.loc 1 851 0 is_stmt 1 discriminator 4
 463 008c 0126     		movs	r6, #1
 464 008e 6E70     		strb	r6, [r5, #1]
 465 0090 0CE0     		b	.L35
 466              	.LVL35:
 467              	.L33:
 856:Generated_Source\PSoC5/USBUART_std.c ****                     USBUART_EP[curEp].apiEpState = USBUART_NO_EVENT_PENDING;
 468              		.loc 1 856 0
 469 0092 012E     		cmp	r6, #1
 470 0094 01D1     		bne	.L39
 471 0096 0527     		movs	r7, #5
 472 0098 00E0     		b	.L36
 473              	.L39:
 474 009a 0927     		movs	r7, #9
 475              	.L36:
 856:Generated_Source\PSoC5/USBUART_std.c ****                     USBUART_EP[curEp].apiEpState = USBUART_NO_EVENT_PENDING;
 476              		.loc 1 856 0 is_stmt 0 discriminator 4
 477 009c 4E00     		lsls	r6, r1, #1
 478              	.LVL36:
 479 009e 0E44     		add	r6, r6, r1
 480 00a0 B500     		lsls	r5, r6, #2
 481 00a2 1B4E     		ldr	r6, .L41+12
 482 00a4 3544     		add	r5, r5, r6
 483 00a6 6F71     		strb	r7, [r5, #5]
 857:Generated_Source\PSoC5/USBUART_std.c ****                 }
 484              		.loc 1 857 0 is_stmt 1 discriminator 4
ARM GAS  C:\Users\ingan\AppData\Local\Temp\ccPtKCQI.s 			page 27


 485 00a8 0026     		movs	r6, #0
 486 00aa 6E70     		strb	r6, [r5, #1]
 487              	.L35:
 861:Generated_Source\PSoC5/USBUART_std.c **** 
 488              		.loc 1 861 0
 489 00ac DFF868E0 		ldr	lr, .L41+20
 490 00b0 0F01     		lsls	r7, r1, #4
 491 00b2 0EEB0706 		add	r6, lr, r7
 492 00b6 0125     		movs	r5, #1
 493 00b8 B570     		strb	r5, [r6, #2]
 907:Generated_Source\PSoC5/USBUART_std.c ****                 USBUART_SIE_EP_BASE.sieEp[curEp].epCnt1 = LO8(USBUART_EP[curEp].bufferSize);
 494              		.loc 1 907 0
 495 00ba 01FA05F5 		lsl	r5, r1, r5
 496 00be 2944     		add	r1, r1, r5
 497              	.LVL37:
 498 00c0 8D00     		lsls	r5, r1, #2
 499 00c2 1349     		ldr	r1, .L41+12
 500 00c4 2944     		add	r1, r1, r5
 501 00c6 0D89     		ldrh	r5, [r1, #8]
 502 00c8 C5F30725 		ubfx	r5, r5, #8, #8
 503 00cc 0EF80750 		strb	r5, [lr, r7]
 908:Generated_Source\PSoC5/USBUART_std.c ****                 
 504              		.loc 1 908 0
 505 00d0 0D89     		ldrh	r5, [r1, #8]
 506 00d2 EDB2     		uxtb	r5, r5
 507 00d4 7570     		strb	r5, [r6, #1]
 914:Generated_Source\PSoC5/USBUART_std.c ****                     USBUART_ARB_EP_BASE.arbEp[curEp].rwRaMsb = HI8(USBUART_EP[curEp].buffOffset);
 508              		.loc 1 914 0
 509 00d6 CE88     		ldrh	r6, [r1, #6]
 510 00d8 F6B2     		uxtb	r6, r6
 511 00da 0E4D     		ldr	r5, .L41+16
 512 00dc 3D44     		add	r5, r5, r7
 513 00de AE71     		strb	r6, [r5, #6]
 915:Generated_Source\PSoC5/USBUART_std.c ****                     USBUART_ARB_EP_BASE.arbEp[curEp].rwWa    = LO8(USBUART_EP[curEp].buffOffset);
 514              		.loc 1 915 0
 515 00e0 CE88     		ldrh	r6, [r1, #6]
 516 00e2 C6F30726 		ubfx	r6, r6, #8, #8
 517 00e6 EE71     		strb	r6, [r5, #7]
 916:Generated_Source\PSoC5/USBUART_std.c ****                     USBUART_ARB_EP_BASE.arbEp[curEp].rwWaMsb = HI8(USBUART_EP[curEp].buffOffset);
 518              		.loc 1 916 0
 519 00e8 CE88     		ldrh	r6, [r1, #6]
 520 00ea F6B2     		uxtb	r6, r6
 521 00ec 2E71     		strb	r6, [r5, #4]
 917:Generated_Source\PSoC5/USBUART_std.c ****                 #endif /* (CY_PSOC4) */                
 522              		.loc 1 917 0
 523 00ee C988     		ldrh	r1, [r1, #6]
 524 00f0 C1F30721 		ubfx	r1, r1, #8, #8
 525 00f4 6971     		strb	r1, [r5, #5]
 526              	.L32:
 922:Generated_Source\PSoC5/USBUART_std.c ****         }
 527              		.loc 1 922 0 discriminator 2
 528 00f6 0832     		adds	r2, r2, #8
 529              	.LVL38:
 832:Generated_Source\PSoC5/USBUART_std.c ****         {
 530              		.loc 1 832 0 discriminator 2
 531 00f8 0133     		adds	r3, r3, #1
 532              	.LVL39:
ARM GAS  C:\Users\ingan\AppData\Local\Temp\ccPtKCQI.s 			page 28


 533 00fa DBB2     		uxtb	r3, r3
 534              	.LVL40:
 535              	.L31:
 832:Generated_Source\PSoC5/USBUART_std.c ****         {
 536              		.loc 1 832 0 is_stmt 0 discriminator 1
 537 00fc A342     		cmp	r3, r4
 538 00fe 92D3     		bcc	.L37
 539              	.LVL41:
 540              	.L29:
 541 0100 F8BD     		pop	{r3, r4, r5, r6, r7, pc}
 542              	.L42:
 543 0102 00BF     		.align	2
 544              	.L41:
 545 0104 00000000 		.word	USBUART_configuration
 546 0108 00000000 		.word	USBUART_interfaceNumber
 547 010c 00000000 		.word	USBUART_interfaceSetting
 548 0110 00000000 		.word	USBUART_EP
 549 0114 70600040 		.word	1073766512
 550 0118 FC5F0040 		.word	1073766396
 551              		.cfi_endproc
 552              	.LFE5:
 553              		.size	USBUART_ConfigAltChanged, .-USBUART_ConfigAltChanged
 554              		.section	.text.USBUART_GetDeviceTablePtr,"ax",%progbits
 555              		.align	2
 556              		.global	USBUART_GetDeviceTablePtr
 557              		.thumb
 558              		.thumb_func
 559              		.type	USBUART_GetDeviceTablePtr, %function
 560              	USBUART_GetDeviceTablePtr:
 561              	.LFB7:
 968:Generated_Source\PSoC5/USBUART_std.c **** 
 969:Generated_Source\PSoC5/USBUART_std.c **** 
 970:Generated_Source\PSoC5/USBUART_std.c **** #if (USBUART_BOS_ENABLE)
 971:Generated_Source\PSoC5/USBUART_std.c ****     /*******************************************************************************
 972:Generated_Source\PSoC5/USBUART_std.c ****     * Function Name: USBUART_GetBOSPtr
 973:Generated_Source\PSoC5/USBUART_std.c ****     ****************************************************************************//**
 974:Generated_Source\PSoC5/USBUART_std.c ****     *
 975:Generated_Source\PSoC5/USBUART_std.c ****     *  This routine returns a pointer a BOS table entry
 976:Generated_Source\PSoC5/USBUART_std.c ****     *
 977:Generated_Source\PSoC5/USBUART_std.c ****     *  
 978:Generated_Source\PSoC5/USBUART_std.c ****     *
 979:Generated_Source\PSoC5/USBUART_std.c ****     * \return
 980:Generated_Source\PSoC5/USBUART_std.c ****     *  BOS Descriptor pointer or NULL when descriptor does not exist.
 981:Generated_Source\PSoC5/USBUART_std.c ****     *
 982:Generated_Source\PSoC5/USBUART_std.c ****     *******************************************************************************/
 983:Generated_Source\PSoC5/USBUART_std.c ****     const T_USBUART_LUT CYCODE *USBUART_GetBOSPtr(void)
 984:Generated_Source\PSoC5/USBUART_std.c ****                                                             
 985:Generated_Source\PSoC5/USBUART_std.c ****     {
 986:Generated_Source\PSoC5/USBUART_std.c ****         /* Device Table */
 987:Generated_Source\PSoC5/USBUART_std.c ****         const T_USBUART_LUT CYCODE *pTmp;
 988:Generated_Source\PSoC5/USBUART_std.c **** 
 989:Generated_Source\PSoC5/USBUART_std.c ****         pTmp = (const T_USBUART_LUT CYCODE *) USBUART_TABLE[USBUART_device].p_list;
 990:Generated_Source\PSoC5/USBUART_std.c **** 
 991:Generated_Source\PSoC5/USBUART_std.c ****         /* The first entry points to the Device Descriptor,
 992:Generated_Source\PSoC5/USBUART_std.c ****         *  the second entry points to the BOS Descriptor
 993:Generated_Source\PSoC5/USBUART_std.c ****         */
 994:Generated_Source\PSoC5/USBUART_std.c ****         pTmp = &pTmp[1u];
ARM GAS  C:\Users\ingan\AppData\Local\Temp\ccPtKCQI.s 			page 29


 995:Generated_Source\PSoC5/USBUART_std.c ****         pTmp = (const T_USBUART_LUT CYCODE *) pTmp->p_list;
 996:Generated_Source\PSoC5/USBUART_std.c ****         return (pTmp);
 997:Generated_Source\PSoC5/USBUART_std.c ****     }
 998:Generated_Source\PSoC5/USBUART_std.c **** #endif /* (USBUART_BOS_ENABLE) */
 999:Generated_Source\PSoC5/USBUART_std.c **** 
1000:Generated_Source\PSoC5/USBUART_std.c **** 
1001:Generated_Source\PSoC5/USBUART_std.c **** /*******************************************************************************
1002:Generated_Source\PSoC5/USBUART_std.c **** * Function Name: USBUART_GetDeviceTablePtr
1003:Generated_Source\PSoC5/USBUART_std.c **** ****************************************************************************//**
1004:Generated_Source\PSoC5/USBUART_std.c **** *
1005:Generated_Source\PSoC5/USBUART_std.c **** *  This routine returns a pointer to the Device table
1006:Generated_Source\PSoC5/USBUART_std.c **** *
1007:Generated_Source\PSoC5/USBUART_std.c **** * \return
1008:Generated_Source\PSoC5/USBUART_std.c **** *  Device Table pointer
1009:Generated_Source\PSoC5/USBUART_std.c **** *
1010:Generated_Source\PSoC5/USBUART_std.c **** *******************************************************************************/
1011:Generated_Source\PSoC5/USBUART_std.c **** const T_USBUART_LUT CYCODE *USBUART_GetDeviceTablePtr(void)
1012:Generated_Source\PSoC5/USBUART_std.c ****                                                             
1013:Generated_Source\PSoC5/USBUART_std.c **** {
 562              		.loc 1 1013 0 is_stmt 1
 563              		.cfi_startproc
 564              		@ args = 0, pretend = 0, frame = 0
 565              		@ frame_needed = 0, uses_anonymous_args = 0
 566              		@ link register save eliminated.
1014:Generated_Source\PSoC5/USBUART_std.c ****     /* Device Table */
1015:Generated_Source\PSoC5/USBUART_std.c ****     return( (const T_USBUART_LUT CYCODE *) USBUART_TABLE[USBUART_device].p_list );
 567              		.loc 1 1015 0
 568 0000 034B     		ldr	r3, .L44
 569 0002 1A78     		ldrb	r2, [r3]	@ zero_extendqisi2
 570 0004 034B     		ldr	r3, .L44+4
 571 0006 03EBC203 		add	r3, r3, r2, lsl #3
1016:Generated_Source\PSoC5/USBUART_std.c **** }
 572              		.loc 1 1016 0
 573 000a 5868     		ldr	r0, [r3, #4]
 574 000c 7047     		bx	lr
 575              	.L45:
 576 000e 00BF     		.align	2
 577              	.L44:
 578 0010 00000000 		.word	USBUART_device
 579 0014 00000000 		.word	USBUART_TABLE
 580              		.cfi_endproc
 581              	.LFE7:
 582              		.size	USBUART_GetDeviceTablePtr, .-USBUART_GetDeviceTablePtr
 583              		.section	.text.USBUART_GetInterfaceClassTablePtr,"ax",%progbits
 584              		.align	2
 585              		.global	USBUART_GetInterfaceClassTablePtr
 586              		.thumb
 587              		.thumb_func
 588              		.type	USBUART_GetInterfaceClassTablePtr, %function
 589              	USBUART_GetInterfaceClassTablePtr:
 590              	.LFB8:
1017:Generated_Source\PSoC5/USBUART_std.c **** 
1018:Generated_Source\PSoC5/USBUART_std.c **** 
1019:Generated_Source\PSoC5/USBUART_std.c **** /*******************************************************************************
1020:Generated_Source\PSoC5/USBUART_std.c **** * Function Name: USB_GetInterfaceClassTablePtr
1021:Generated_Source\PSoC5/USBUART_std.c **** ****************************************************************************//**
1022:Generated_Source\PSoC5/USBUART_std.c **** *
ARM GAS  C:\Users\ingan\AppData\Local\Temp\ccPtKCQI.s 			page 30


1023:Generated_Source\PSoC5/USBUART_std.c **** *  This routine returns Interface Class table pointer, which contains
1024:Generated_Source\PSoC5/USBUART_std.c **** *  the relation between interface number and interface class.
1025:Generated_Source\PSoC5/USBUART_std.c **** *
1026:Generated_Source\PSoC5/USBUART_std.c **** * \return
1027:Generated_Source\PSoC5/USBUART_std.c **** *  Interface Class table pointer.
1028:Generated_Source\PSoC5/USBUART_std.c **** *
1029:Generated_Source\PSoC5/USBUART_std.c **** *******************************************************************************/
1030:Generated_Source\PSoC5/USBUART_std.c **** const uint8 CYCODE *USBUART_GetInterfaceClassTablePtr(void)
1031:Generated_Source\PSoC5/USBUART_std.c ****                                                         
1032:Generated_Source\PSoC5/USBUART_std.c **** {
 591              		.loc 1 1032 0
 592              		.cfi_startproc
 593              		@ args = 0, pretend = 0, frame = 0
 594              		@ frame_needed = 0, uses_anonymous_args = 0
 595 0000 08B5     		push	{r3, lr}
 596              		.cfi_def_cfa_offset 8
 597              		.cfi_offset 3, -8
 598              		.cfi_offset 14, -4
1033:Generated_Source\PSoC5/USBUART_std.c ****     const T_USBUART_LUT CYCODE *pTmp;
1034:Generated_Source\PSoC5/USBUART_std.c ****     const uint8 CYCODE *pInterfaceClass;
1035:Generated_Source\PSoC5/USBUART_std.c ****     uint8 currentInterfacesNum;
1036:Generated_Source\PSoC5/USBUART_std.c **** 
1037:Generated_Source\PSoC5/USBUART_std.c ****     pTmp = USBUART_GetConfigTablePtr(USBUART_configuration - 1u);
 599              		.loc 1 1037 0
 600 0002 084B     		ldr	r3, .L50
 601 0004 1878     		ldrb	r0, [r3]	@ zero_extendqisi2
 602 0006 0138     		subs	r0, r0, #1
 603 0008 C0B2     		uxtb	r0, r0
 604 000a FFF7FEFF 		bl	USBUART_GetConfigTablePtr
 605              	.LVL42:
1038:Generated_Source\PSoC5/USBUART_std.c ****     if (pTmp != NULL)
 606              		.loc 1 1038 0
 607 000e 30B1     		cbz	r0, .L48
1039:Generated_Source\PSoC5/USBUART_std.c ****     {
1040:Generated_Source\PSoC5/USBUART_std.c ****         currentInterfacesNum  = ((const uint8 *) pTmp->p_list)[USBUART_CONFIG_DESCR_NUM_INTERFACES]
 608              		.loc 1 1040 0
 609 0010 4268     		ldr	r2, [r0, #4]
 610 0012 1279     		ldrb	r2, [r2, #4]	@ zero_extendqisi2
 611              	.LVL43:
1041:Generated_Source\PSoC5/USBUART_std.c ****         /* Third entry in the LUT starts the Interface Table pointers */
1042:Generated_Source\PSoC5/USBUART_std.c ****         /* The INTERFACE_CLASS table is located after all interfaces */
1043:Generated_Source\PSoC5/USBUART_std.c ****         pTmp = &pTmp[currentInterfacesNum + 2u];
 612              		.loc 1 1043 0
 613 0014 0232     		adds	r2, r2, #2
 614              	.LVL44:
 615 0016 00EBC203 		add	r3, r0, r2, lsl #3
 616              	.LVL45:
1044:Generated_Source\PSoC5/USBUART_std.c ****         pInterfaceClass = (const uint8 CYCODE *) pTmp->p_list;
 617              		.loc 1 1044 0
 618 001a 5868     		ldr	r0, [r3, #4]
 619              	.LVL46:
 620 001c 08BD     		pop	{r3, pc}
 621              	.LVL47:
 622              	.L48:
1045:Generated_Source\PSoC5/USBUART_std.c ****     }
1046:Generated_Source\PSoC5/USBUART_std.c ****     else
1047:Generated_Source\PSoC5/USBUART_std.c ****     {
ARM GAS  C:\Users\ingan\AppData\Local\Temp\ccPtKCQI.s 			page 31


1048:Generated_Source\PSoC5/USBUART_std.c ****         pInterfaceClass = (const uint8 CYCODE *) NULL;
 623              		.loc 1 1048 0
 624 001e 0020     		movs	r0, #0
 625              	.LVL48:
1049:Generated_Source\PSoC5/USBUART_std.c ****     }
1050:Generated_Source\PSoC5/USBUART_std.c **** 
1051:Generated_Source\PSoC5/USBUART_std.c ****     return (pInterfaceClass);
1052:Generated_Source\PSoC5/USBUART_std.c **** }
 626              		.loc 1 1052 0
 627 0020 08BD     		pop	{r3, pc}
 628              	.L51:
 629 0022 00BF     		.align	2
 630              	.L50:
 631 0024 00000000 		.word	USBUART_configuration
 632              		.cfi_endproc
 633              	.LFE8:
 634              		.size	USBUART_GetInterfaceClassTablePtr, .-USBUART_GetInterfaceClassTablePtr
 635              		.section	.text.USBUART_Config,"ax",%progbits
 636              		.align	2
 637              		.global	USBUART_Config
 638              		.thumb
 639              		.thumb_func
 640              		.type	USBUART_Config, %function
 641              	USBUART_Config:
 642              	.LFB4:
 571:Generated_Source\PSoC5/USBUART_std.c ****     uint8 ep;
 643              		.loc 1 571 0
 644              		.cfi_startproc
 645              		@ args = 0, pretend = 0, frame = 0
 646              		@ frame_needed = 0, uses_anonymous_args = 0
 647              	.LVL49:
 648 0000 2DE9F047 		push	{r4, r5, r6, r7, r8, r9, r10, lr}
 649              		.cfi_def_cfa_offset 32
 650              		.cfi_offset 4, -32
 651              		.cfi_offset 5, -28
 652              		.cfi_offset 6, -24
 653              		.cfi_offset 7, -20
 654              		.cfi_offset 8, -16
 655              		.cfi_offset 9, -12
 656              		.cfi_offset 10, -8
 657              		.cfi_offset 14, -4
 658              	.LVL50:
 586:Generated_Source\PSoC5/USBUART_std.c ****     {
 659              		.loc 1 586 0
 660 0004 0023     		movs	r3, #0
 661 0006 10E0     		b	.L53
 662              	.LVL51:
 663              	.L54:
 588:Generated_Source\PSoC5/USBUART_std.c ****         USBUART_EP[ep].hwEpState  = 0u;
 664              		.loc 1 588 0 discriminator 3
 665 0008 724D     		ldr	r5, .L80
 666 000a 5900     		lsls	r1, r3, #1
 667 000c CA18     		adds	r2, r1, r3
 668 000e 9600     		lsls	r6, r2, #2
 669 0010 AC19     		adds	r4, r5, r6
 670 0012 0022     		movs	r2, #0
 671 0014 AA55     		strb	r2, [r5, r6]
ARM GAS  C:\Users\ingan\AppData\Local\Temp\ccPtKCQI.s 			page 32


 589:Generated_Source\PSoC5/USBUART_std.c ****         USBUART_EP[ep].epToggle   = 0u;
 672              		.loc 1 589 0 discriminator 3
 673 0016 A270     		strb	r2, [r4, #2]
 590:Generated_Source\PSoC5/USBUART_std.c ****         USBUART_EP[ep].bufferSize = 0u;
 674              		.loc 1 590 0 discriminator 3
 675 0018 E270     		strb	r2, [r4, #3]
 591:Generated_Source\PSoC5/USBUART_std.c ****         USBUART_EP[ep].interface  = 0u;
 676              		.loc 1 591 0 discriminator 3
 677 001a 2281     		strh	r2, [r4, #8]	@ movhi
 592:Generated_Source\PSoC5/USBUART_std.c ****         USBUART_EP[ep].apiEpState = USBUART_NO_EVENT_PENDING;
 678              		.loc 1 592 0 discriminator 3
 679 001c A272     		strb	r2, [r4, #10]
 593:Generated_Source\PSoC5/USBUART_std.c ****         USBUART_EP[ep].epMode     = USBUART_MODE_DISABLE;   
 680              		.loc 1 593 0 discriminator 3
 681 001e 6270     		strb	r2, [r4, #1]
 594:Generated_Source\PSoC5/USBUART_std.c ****     }
 682              		.loc 1 594 0 discriminator 3
 683 0020 3446     		mov	r4, r6
 684 0022 2C44     		add	r4, r4, r5
 685 0024 6271     		strb	r2, [r4, #5]
 586:Generated_Source\PSoC5/USBUART_std.c ****     {
 686              		.loc 1 586 0 discriminator 3
 687 0026 0133     		adds	r3, r3, #1
 688              	.LVL52:
 689 0028 DBB2     		uxtb	r3, r3
 690              	.LVL53:
 691              	.L53:
 586:Generated_Source\PSoC5/USBUART_std.c ****     {
 692              		.loc 1 586 0 is_stmt 0 discriminator 1
 693 002a 082B     		cmp	r3, #8
 694 002c ECD9     		bls	.L54
 598:Generated_Source\PSoC5/USBUART_std.c ****     {
 695              		.loc 1 598 0 is_stmt 1
 696 002e 40B9     		cbnz	r0, .L76
 697 0030 0AE0     		b	.L56
 698              	.LVL54:
 699              	.L57:
 602:Generated_Source\PSoC5/USBUART_std.c ****             USBUART_interfaceSettingLast[i] = 0u;
 700              		.loc 1 602 0 discriminator 3
 701 0032 0022     		movs	r2, #0
 702 0034 6849     		ldr	r1, .L80+4
 703 0036 CA54     		strb	r2, [r1, r3]
 603:Generated_Source\PSoC5/USBUART_std.c ****         }
 704              		.loc 1 603 0 discriminator 3
 705 0038 6849     		ldr	r1, .L80+8
 706 003a CA54     		strb	r2, [r1, r3]
 600:Generated_Source\PSoC5/USBUART_std.c ****         {
 707              		.loc 1 600 0 discriminator 3
 708 003c 0133     		adds	r3, r3, #1
 709              	.LVL55:
 710 003e DBB2     		uxtb	r3, r3
 711              	.LVL56:
 712 0040 00E0     		b	.L55
 713              	.LVL57:
 714              	.L76:
 715 0042 0023     		movs	r3, #0
 716              	.LVL58:
ARM GAS  C:\Users\ingan\AppData\Local\Temp\ccPtKCQI.s 			page 33


 717              	.L55:
 600:Generated_Source\PSoC5/USBUART_std.c ****         {
 718              		.loc 1 600 0 is_stmt 0 discriminator 1
 719 0044 012B     		cmp	r3, #1
 720 0046 F4D9     		bls	.L57
 721              	.LVL59:
 722              	.L56:
 608:Generated_Source\PSoC5/USBUART_std.c ****     {
 723              		.loc 1 608 0 is_stmt 1
 724 0048 654B     		ldr	r3, .L80+12
 725 004a 1B78     		ldrb	r3, [r3]	@ zero_extendqisi2
 726 004c 13F0FF0F 		tst	r3, #255
 727 0050 00F0BD80 		beq	.L52
 728              	.LVL60:
 729              	.LBB2:
 614:Generated_Source\PSoC5/USBUART_std.c ****         
 730              		.loc 1 614 0
 731 0054 624B     		ldr	r3, .L80+12
 732 0056 1878     		ldrb	r0, [r3]	@ zero_extendqisi2
 733              	.LVL61:
 734 0058 0138     		subs	r0, r0, #1
 735 005a C0B2     		uxtb	r0, r0
 736 005c FFF7FEFF 		bl	USBUART_GetConfigTablePtr
 737              	.LVL62:
 738 0060 8046     		mov	r8, r0
 739              	.LVL63:
 617:Generated_Source\PSoC5/USBUART_std.c ****         if ((pDescr[USBUART_CONFIG_DESCR_ATTRIB] & USBUART_CONFIG_DESCR_ATTRIB_SELF_POWERED) != 0u)
 740              		.loc 1 617 0
 741 0062 4368     		ldr	r3, [r0, #4]
 742              	.LVL64:
 618:Generated_Source\PSoC5/USBUART_std.c ****         {
 743              		.loc 1 618 0
 744 0064 DB79     		ldrb	r3, [r3, #7]	@ zero_extendqisi2
 745              	.LVL65:
 746 0066 13F0400F 		tst	r3, #64
 747 006a 05D0     		beq	.L59
 620:Generated_Source\PSoC5/USBUART_std.c ****         }
 748              		.loc 1 620 0
 749 006c 5D4A     		ldr	r2, .L80+16
 750 006e 1378     		ldrb	r3, [r2]	@ zero_extendqisi2
 751 0070 43F00103 		orr	r3, r3, #1
 752 0074 1370     		strb	r3, [r2]
 753 0076 04E0     		b	.L60
 754              	.L59:
 624:Generated_Source\PSoC5/USBUART_std.c ****         }
 755              		.loc 1 624 0
 756 0078 5A4A     		ldr	r2, .L80+16
 757 007a 1378     		ldrb	r3, [r2]	@ zero_extendqisi2
 758 007c 03F0FE03 		and	r3, r3, #254
 759 0080 1370     		strb	r3, [r2]
 760              	.L60:
 761              	.LVL66:
 629:Generated_Source\PSoC5/USBUART_std.c **** 
 762              		.loc 1 629 0
 763 0082 98F80870 		ldrb	r7, [r8, #8]	@ zero_extendqisi2
 764              	.LVL67:
 611:Generated_Source\PSoC5/USBUART_std.c ****         #endif  /* (USBUART_ENABLE_CDC_CLASS) */  
ARM GAS  C:\Users\ingan\AppData\Local\Temp\ccPtKCQI.s 			page 34


 765              		.loc 1 611 0
 766 0086 4FF0000A 		mov	r10, #0
 687:Generated_Source\PSoC5/USBUART_std.c ****             {
 767              		.loc 1 687 0
 768 008a 0126     		movs	r6, #1
 769 008c 6FE0     		b	.L61
 770              	.LVL68:
 771              	.L71:
 690:Generated_Source\PSoC5/USBUART_std.c ****                 /* Find max length for each EP and select it (length could be different in differen
 772              		.loc 1 690 0
 773 008e D8F80C50 		ldr	r5, [r8, #12]
 774              	.LVL69:
 694:Generated_Source\PSoC5/USBUART_std.c ****                 {
 775              		.loc 1 694 0
 776 0092 0024     		movs	r4, #0
 777 0094 67E0     		b	.L62
 778              	.LVL70:
 779              	.L70:
 696:Generated_Source\PSoC5/USBUART_std.c ****                     {
 780              		.loc 1 696 0
 781 0096 AB78     		ldrb	r3, [r5, #2]	@ zero_extendqisi2
 782 0098 03F07F03 		and	r3, r3, #127
 783 009c 9E42     		cmp	r6, r3
 784 009e 5FD1     		bne	.L63
 699:Generated_Source\PSoC5/USBUART_std.c ****                         {
 785              		.loc 1 699 0
 786 00a0 3146     		mov	r1, r6
 787 00a2 06EB4600 		add	r0, r6, r6, lsl #1
 788 00a6 8300     		lsls	r3, r0, #2
 789 00a8 4A48     		ldr	r0, .L80
 790 00aa 0344     		add	r3, r3, r0
 791 00ac 1B89     		ldrh	r3, [r3, #8]
 792 00ae 9BB2     		uxth	r3, r3
 793 00b0 A888     		ldrh	r0, [r5, #4]
 794 00b2 8342     		cmp	r3, r0
 795 00b4 06D2     		bcs	.L64
 701:Generated_Source\PSoC5/USBUART_std.c ****                         }
 796              		.loc 1 701 0
 797 00b6 06EB460E 		add	lr, r6, r6, lsl #1
 798 00ba 4FEA8E03 		lsl	r3, lr, #2
 799 00be 454A     		ldr	r2, .L80
 800 00c0 1344     		add	r3, r3, r2
 801 00c2 1881     		strh	r0, [r3, #8]	@ movhi
 802              	.L64:
 705:Generated_Source\PSoC5/USBUART_std.c ****                         {                            
 803              		.loc 1 705 0
 804 00c4 2B78     		ldrb	r3, [r5]	@ zero_extendqisi2
 805 00c6 4448     		ldr	r0, .L80+4
 806 00c8 C35C     		ldrb	r3, [r0, r3]	@ zero_extendqisi2
 807 00ca DBB2     		uxtb	r3, r3
 808 00cc 6878     		ldrb	r0, [r5, #1]	@ zero_extendqisi2
 809 00ce 8342     		cmp	r3, r0
 810 00d0 46D1     		bne	.L63
 707:Generated_Source\PSoC5/USBUART_std.c ****                             USBUART_EP[i].attrib = pEP->attributes;
 811              		.loc 1 707 0
 812 00d2 95F802C0 		ldrb	ip, [r5, #2]	@ zero_extendqisi2
 813 00d6 DFF8FCE0 		ldr	lr, .L80
ARM GAS  C:\Users\ingan\AppData\Local\Temp\ccPtKCQI.s 			page 35


 814 00da 4B00     		lsls	r3, r1, #1
 815 00dc 0B44     		add	r3, r3, r1
 816 00de 9800     		lsls	r0, r3, #2
 817 00e0 0EEB0003 		add	r3, lr, r0
 818 00e4 83F804C0 		strb	ip, [r3, #4]
 708:Generated_Source\PSoC5/USBUART_std.c ****                             
 819              		.loc 1 708 0
 820 00e8 EB78     		ldrb	r3, [r5, #3]	@ zero_extendqisi2
 821 00ea 0EF80030 		strb	r3, [lr, r0]
 710:Generated_Source\PSoC5/USBUART_std.c ****                             
 822              		.loc 1 710 0
 823 00ee EB78     		ldrb	r3, [r5, #3]	@ zero_extendqisi2
 824 00f0 03F00303 		and	r3, r3, #3
 825              	.LVL71:
 712:Generated_Source\PSoC5/USBUART_std.c ****                             {
 826              		.loc 1 712 0
 827 00f4 95F90200 		ldrsb	r0, [r5, #2]
 828 00f8 0028     		cmp	r0, #0
 829 00fa 13DA     		bge	.L65
 715:Generated_Source\PSoC5/USBUART_std.c ****                                 USBUART_EP[i].apiEpState = USBUART_EVENT_PENDING;
 830              		.loc 1 715 0
 831 00fc 012B     		cmp	r3, #1
 832 00fe 02D1     		bne	.L77
 833 0100 4FF00709 		mov	r9, #7
 834 0104 01E0     		b	.L66
 835              	.L77:
 836 0106 4FF00D09 		mov	r9, #13
 837              	.L66:
 715:Generated_Source\PSoC5/USBUART_std.c ****                                 USBUART_EP[i].apiEpState = USBUART_EVENT_PENDING;
 838              		.loc 1 715 0 is_stmt 0 discriminator 4
 839 010a DFF8C8E0 		ldr	lr, .L80
 840 010e 4B00     		lsls	r3, r1, #1
 841              	.LVL72:
 842 0110 03EB010C 		add	ip, r3, r1
 843 0114 4FEA8C00 		lsl	r0, ip, #2
 844 0118 7044     		add	r0, r0, lr
 845 011a 80F80590 		strb	r9, [r0, #5]
 846              	.LVL73:
 716:Generated_Source\PSoC5/USBUART_std.c ****                                 
 847              		.loc 1 716 0 is_stmt 1 discriminator 4
 848 011e 0121     		movs	r1, #1
 849 0120 4170     		strb	r1, [r0, #1]
 850 0122 12E0     		b	.L67
 851              	.LVL74:
 852              	.L65:
 728:Generated_Source\PSoC5/USBUART_std.c ****                                 USBUART_EP[i].apiEpState = USBUART_NO_EVENT_PENDING;
 853              		.loc 1 728 0
 854 0124 012B     		cmp	r3, #1
 855 0126 02D1     		bne	.L78
 856 0128 4FF00509 		mov	r9, #5
 857 012c 01E0     		b	.L68
 858              	.L78:
 859 012e 4FF00909 		mov	r9, #9
 860              	.L68:
 728:Generated_Source\PSoC5/USBUART_std.c ****                                 USBUART_EP[i].apiEpState = USBUART_NO_EVENT_PENDING;
 861              		.loc 1 728 0 is_stmt 0 discriminator 4
 862 0132 DFF8A0E0 		ldr	lr, .L80
ARM GAS  C:\Users\ingan\AppData\Local\Temp\ccPtKCQI.s 			page 36


 863 0136 4B00     		lsls	r3, r1, #1
 864              	.LVL75:
 865 0138 03EB010C 		add	ip, r3, r1
 866 013c 4FEA8C00 		lsl	r0, ip, #2
 867 0140 7044     		add	r0, r0, lr
 868 0142 80F80590 		strb	r9, [r0, #5]
 869              	.LVL76:
 729:Generated_Source\PSoC5/USBUART_std.c ****                                 
 870              		.loc 1 729 0 is_stmt 1 discriminator 4
 871 0146 0021     		movs	r1, #0
 872 0148 4170     		strb	r1, [r0, #1]
 873              	.L67:
 740:Generated_Source\PSoC5/USBUART_std.c ****                             {
 874              		.loc 1 740 0
 875 014a AB79     		ldrb	r3, [r5, #6]	@ zero_extendqisi2
 876 014c 0A2B     		cmp	r3, #10
 877 014e 01D0     		beq	.L69
 740:Generated_Source\PSoC5/USBUART_std.c ****                             {
 878              		.loc 1 740 0 is_stmt 0 discriminator 1
 879 0150 022B     		cmp	r3, #2
 880 0152 05D1     		bne	.L63
 881              	.L69:
 742:Generated_Source\PSoC5/USBUART_std.c ****                             }
 882              		.loc 1 742 0 is_stmt 1
 883 0154 5246     		mov	r2, r10
 884 0156 3146     		mov	r1, r6
 885 0158 2846     		mov	r0, r5
 886 015a FFF7FEFF 		bl	USBUART_Cdc_EpInit
 887              	.LVL77:
 888 015e 8246     		mov	r10, r0
 889              	.LVL78:
 890              	.L63:
 752:Generated_Source\PSoC5/USBUART_std.c ****                 }
 891              		.loc 1 752 0 discriminator 2
 892 0160 0835     		adds	r5, r5, #8
 893              	.LVL79:
 694:Generated_Source\PSoC5/USBUART_std.c ****                 {
 894              		.loc 1 694 0 discriminator 2
 895 0162 0134     		adds	r4, r4, #1
 896              	.LVL80:
 897 0164 E4B2     		uxtb	r4, r4
 898              	.LVL81:
 899              	.L62:
 694:Generated_Source\PSoC5/USBUART_std.c ****                 {
 900              		.loc 1 694 0 is_stmt 0 discriminator 1
 901 0166 BC42     		cmp	r4, r7
 902 0168 95D3     		bcc	.L70
 687:Generated_Source\PSoC5/USBUART_std.c ****             {
 903              		.loc 1 687 0 is_stmt 1 discriminator 2
 904 016a 0136     		adds	r6, r6, #1
 905              	.LVL82:
 906 016c F6B2     		uxtb	r6, r6
 907              	.LVL83:
 908              	.L61:
 687:Generated_Source\PSoC5/USBUART_std.c ****             {
 909              		.loc 1 687 0 is_stmt 0 discriminator 1
 910 016e 082E     		cmp	r6, #8
ARM GAS  C:\Users\ingan\AppData\Local\Temp\ccPtKCQI.s 			page 37


 911 0170 8DD9     		bls	.L71
 762:Generated_Source\PSoC5/USBUART_std.c ****         for (i = 0u; i < ep; i++)
 912              		.loc 1 762 0 is_stmt 1
 913 0172 D8F80C00 		ldr	r0, [r8, #12]
 914              	.LVL84:
 763:Generated_Source\PSoC5/USBUART_std.c ****         {
 915              		.loc 1 763 0
 916 0176 0022     		movs	r2, #0
 917 0178 0CE0     		b	.L72
 918              	.LVL85:
 919              	.L73:
 766:Generated_Source\PSoC5/USBUART_std.c ****             pEP = &pEP[1u];
 920              		.loc 1 766 0 discriminator 3
 921 017a 8378     		ldrb	r3, [r0, #2]	@ zero_extendqisi2
 922 017c 03F07F03 		and	r3, r3, #127
 923 0180 10F8084B 		ldrb	r4, [r0], #8	@ zero_extendqisi2
 924              	.LVL86:
 925 0184 03EB4303 		add	r3, r3, r3, lsl #1
 926 0188 9900     		lsls	r1, r3, #2
 927 018a 124B     		ldr	r3, .L80
 928 018c 1944     		add	r1, r1, r3
 929 018e 8C72     		strb	r4, [r1, #10]
 930              	.LVL87:
 763:Generated_Source\PSoC5/USBUART_std.c ****         {
 931              		.loc 1 763 0 discriminator 3
 932 0190 0132     		adds	r2, r2, #1
 933              	.LVL88:
 934 0192 D2B2     		uxtb	r2, r2
 935              	.LVL89:
 936              	.L72:
 763:Generated_Source\PSoC5/USBUART_std.c ****         {
 937              		.loc 1 763 0 is_stmt 0 discriminator 1
 938 0194 BA42     		cmp	r2, r7
 939 0196 F0D3     		bcc	.L73
 771:Generated_Source\PSoC5/USBUART_std.c ****         
 940              		.loc 1 771 0 is_stmt 1
 941 0198 FFF7FEFF 		bl	USBUART_GetInterfaceClassTablePtr
 942              	.LVL90:
 943 019c 124B     		ldr	r3, .L80+20
 944 019e 1860     		str	r0, [r3]
 945              	.LVL91:
 775:Generated_Source\PSoC5/USBUART_std.c ****         for (ep = USBUART_EP1; ep < USBUART_MAX_EP; ++ep)
 946              		.loc 1 775 0
 947 01a0 0023     		movs	r3, #0
 776:Generated_Source\PSoC5/USBUART_std.c ****         {
 948              		.loc 1 776 0
 949 01a2 0121     		movs	r1, #1
 950 01a4 0FE0     		b	.L74
 951              	.LVL92:
 952              	.L75:
 778:Generated_Source\PSoC5/USBUART_std.c ****             buffCount += USBUART_EP[ep].bufferSize;
 953              		.loc 1 778 0 discriminator 3
 954 01a6 0B4D     		ldr	r5, .L80
 955 01a8 4A00     		lsls	r2, r1, #1
 956 01aa 5018     		adds	r0, r2, r1
 957 01ac 8400     		lsls	r4, r0, #2
 958 01ae 2C44     		add	r4, r4, r5
ARM GAS  C:\Users\ingan\AppData\Local\Temp\ccPtKCQI.s 			page 38


 959 01b0 E380     		strh	r3, [r4, #6]	@ movhi
 779:Generated_Source\PSoC5/USBUART_std.c ****             
 960              		.loc 1 779 0 discriminator 3
 961 01b2 2289     		ldrh	r2, [r4, #8]
 962 01b4 92B2     		uxth	r2, r2
 963 01b6 1344     		add	r3, r3, r2
 964              	.LVL93:
 965 01b8 9BB2     		uxth	r3, r3
 966              	.LVL94:
 783:Generated_Source\PSoC5/USBUART_std.c ****         #endif /* (USBUART_GEN_16BITS_EP_ACCESS) */            
 967              		.loc 1 783 0 discriminator 3
 968 01ba 03F00102 		and	r2, r3, #1
 969 01be 1344     		add	r3, r3, r2
 970              	.LVL95:
 971 01c0 9BB2     		uxth	r3, r3
 972              	.LVL96:
 776:Generated_Source\PSoC5/USBUART_std.c ****         {
 973              		.loc 1 776 0 discriminator 3
 974 01c2 0131     		adds	r1, r1, #1
 975              	.LVL97:
 976 01c4 C9B2     		uxtb	r1, r1
 977              	.LVL98:
 978              	.L74:
 776:Generated_Source\PSoC5/USBUART_std.c ****         {
 979              		.loc 1 776 0 is_stmt 0 discriminator 1
 980 01c6 0829     		cmp	r1, #8
 981 01c8 EDD9     		bls	.L75
 789:Generated_Source\PSoC5/USBUART_std.c ****     }
 982              		.loc 1 789 0 is_stmt 1
 983 01ca FFF7FEFF 		bl	USBUART_ConfigReg
 984              	.LVL99:
 985              	.L52:
 986 01ce BDE8F087 		pop	{r4, r5, r6, r7, r8, r9, r10, pc}
 987              	.L81:
 988 01d2 00BF     		.align	2
 989              	.L80:
 990 01d4 00000000 		.word	USBUART_EP
 991 01d8 00000000 		.word	USBUART_interfaceSetting
 992 01dc 00000000 		.word	USBUART_interfaceSettingLast
 993 01e0 00000000 		.word	USBUART_configuration
 994 01e4 00000000 		.word	USBUART_deviceStatus
 995 01e8 00000000 		.word	USBUART_interfaceClass
 996              	.LBE2:
 997              		.cfi_endproc
 998              	.LFE4:
 999              		.size	USBUART_Config, .-USBUART_Config
 1000              		.section	.text.USBUART_TerminateEP,"ax",%progbits
 1001              		.align	2
 1002              		.global	USBUART_TerminateEP
 1003              		.thumb
 1004              		.thumb_func
 1005              		.type	USBUART_TerminateEP, %function
 1006              	USBUART_TerminateEP:
 1007              	.LFB9:
1053:Generated_Source\PSoC5/USBUART_std.c **** 
1054:Generated_Source\PSoC5/USBUART_std.c **** 
1055:Generated_Source\PSoC5/USBUART_std.c **** /*******************************************************************************
ARM GAS  C:\Users\ingan\AppData\Local\Temp\ccPtKCQI.s 			page 39


1056:Generated_Source\PSoC5/USBUART_std.c **** * Function Name: USBUART_TerminateEP
1057:Generated_Source\PSoC5/USBUART_std.c **** ****************************************************************************//**
1058:Generated_Source\PSoC5/USBUART_std.c **** *
1059:Generated_Source\PSoC5/USBUART_std.c **** *  This function terminates the specified USBFS endpoint.
1060:Generated_Source\PSoC5/USBUART_std.c **** *  This function should be used before endpoint reconfiguration.
1061:Generated_Source\PSoC5/USBUART_std.c **** *
1062:Generated_Source\PSoC5/USBUART_std.c **** *  \param ep Contains the data endpoint number.
1063:Generated_Source\PSoC5/USBUART_std.c **** *
1064:Generated_Source\PSoC5/USBUART_std.c **** *  \reentrant
1065:Generated_Source\PSoC5/USBUART_std.c **** *  No.
1066:Generated_Source\PSoC5/USBUART_std.c **** *
1067:Generated_Source\PSoC5/USBUART_std.c **** * \sideeffect
1068:Generated_Source\PSoC5/USBUART_std.c **** * 
1069:Generated_Source\PSoC5/USBUART_std.c **** * The device responds with a NAK for any transactions on the selected endpoint.
1070:Generated_Source\PSoC5/USBUART_std.c **** *   
1071:Generated_Source\PSoC5/USBUART_std.c **** *******************************************************************************/
1072:Generated_Source\PSoC5/USBUART_std.c **** void USBUART_TerminateEP(uint8 epNumber) 
1073:Generated_Source\PSoC5/USBUART_std.c **** {
 1008              		.loc 1 1073 0
 1009              		.cfi_startproc
 1010              		@ args = 0, pretend = 0, frame = 0
 1011              		@ frame_needed = 0, uses_anonymous_args = 0
 1012              		@ link register save eliminated.
 1013              	.LVL100:
1074:Generated_Source\PSoC5/USBUART_std.c ****     /* Get endpoint number */
1075:Generated_Source\PSoC5/USBUART_std.c ****     epNumber &= USBUART_DIR_UNUSED;
 1014              		.loc 1 1075 0
 1015 0000 00F07F00 		and	r0, r0, #127
 1016              	.LVL101:
1076:Generated_Source\PSoC5/USBUART_std.c **** 
1077:Generated_Source\PSoC5/USBUART_std.c ****     if ((epNumber > USBUART_EP0) && (epNumber < USBUART_MAX_EP))
 1017              		.loc 1 1077 0
 1018 0004 431E     		subs	r3, r0, #1
 1019 0006 DBB2     		uxtb	r3, r3
 1020 0008 072B     		cmp	r3, #7
 1021 000a 19D8     		bhi	.L82
1078:Generated_Source\PSoC5/USBUART_std.c ****     {
1079:Generated_Source\PSoC5/USBUART_std.c ****         /* Set the endpoint Halt */
1080:Generated_Source\PSoC5/USBUART_std.c ****         USBUART_EP[epNumber].hwEpState |= USBUART_ENDPOINT_STATUS_HALT;
 1022              		.loc 1 1080 0
 1023 000c 4200     		lsls	r2, r0, #1
 1024 000e 0244     		add	r2, r2, r0
 1025 0010 9300     		lsls	r3, r2, #2
 1026 0012 0C4A     		ldr	r2, .L85
 1027 0014 1344     		add	r3, r3, r2
 1028 0016 9A78     		ldrb	r2, [r3, #2]	@ zero_extendqisi2
 1029 0018 42F00102 		orr	r2, r2, #1
 1030 001c 9A70     		strb	r2, [r3, #2]
1081:Generated_Source\PSoC5/USBUART_std.c **** 
1082:Generated_Source\PSoC5/USBUART_std.c ****         /* Clear the data toggle */
1083:Generated_Source\PSoC5/USBUART_std.c ****         USBUART_EP[epNumber].epToggle = 0u;
 1031              		.loc 1 1083 0
 1032 001e 0022     		movs	r2, #0
 1033 0020 DA70     		strb	r2, [r3, #3]
1084:Generated_Source\PSoC5/USBUART_std.c ****         USBUART_EP[epNumber].apiEpState = USBUART_NO_EVENT_ALLOWED;
 1034              		.loc 1 1084 0
 1035 0022 0222     		movs	r2, #2
ARM GAS  C:\Users\ingan\AppData\Local\Temp\ccPtKCQI.s 			page 40


 1036 0024 5A70     		strb	r2, [r3, #1]
1085:Generated_Source\PSoC5/USBUART_std.c **** 
1086:Generated_Source\PSoC5/USBUART_std.c ****         if ((USBUART_EP[epNumber].addr & USBUART_DIR_IN) != 0u)
 1037              		.loc 1 1086 0
 1038 0026 1B79     		ldrb	r3, [r3, #4]	@ zero_extendqisi2
 1039 0028 13F0800F 		tst	r3, #128
 1040 002c 04D0     		beq	.L84
1087:Generated_Source\PSoC5/USBUART_std.c ****         {   
1088:Generated_Source\PSoC5/USBUART_std.c ****             /* IN Endpoint */
1089:Generated_Source\PSoC5/USBUART_std.c ****             USBUART_SIE_EP_BASE.sieEp[epNumber].epCr0 = USBUART_MODE_NAK_IN;
 1041              		.loc 1 1089 0
 1042 002e 0001     		lsls	r0, r0, #4
 1043              	.LVL102:
 1044 0030 054B     		ldr	r3, .L85+4
 1045 0032 0C22     		movs	r2, #12
 1046 0034 1A54     		strb	r2, [r3, r0]
 1047 0036 7047     		bx	lr
 1048              	.LVL103:
 1049              	.L84:
1090:Generated_Source\PSoC5/USBUART_std.c ****         }
1091:Generated_Source\PSoC5/USBUART_std.c ****         else
1092:Generated_Source\PSoC5/USBUART_std.c ****         {
1093:Generated_Source\PSoC5/USBUART_std.c ****             /* OUT Endpoint */
1094:Generated_Source\PSoC5/USBUART_std.c ****             USBUART_SIE_EP_BASE.sieEp[epNumber].epCr0 = USBUART_MODE_NAK_OUT;
 1050              		.loc 1 1094 0
 1051 0038 0001     		lsls	r0, r0, #4
 1052              	.LVL104:
 1053 003a 034B     		ldr	r3, .L85+4
 1054 003c 0822     		movs	r2, #8
 1055 003e 1A54     		strb	r2, [r3, r0]
 1056              	.L82:
 1057 0040 7047     		bx	lr
 1058              	.L86:
 1059 0042 00BF     		.align	2
 1060              	.L85:
 1061 0044 00000000 		.word	USBUART_EP
 1062 0048 FE5F0040 		.word	1073766398
 1063              		.cfi_endproc
 1064              	.LFE9:
 1065              		.size	USBUART_TerminateEP, .-USBUART_TerminateEP
 1066              		.section	.text.USBUART_SetEndpointHalt,"ax",%progbits
 1067              		.align	2
 1068              		.global	USBUART_SetEndpointHalt
 1069              		.thumb
 1070              		.thumb_func
 1071              		.type	USBUART_SetEndpointHalt, %function
 1072              	USBUART_SetEndpointHalt:
 1073              	.LFB10:
1095:Generated_Source\PSoC5/USBUART_std.c ****         }
1096:Generated_Source\PSoC5/USBUART_std.c ****     }
1097:Generated_Source\PSoC5/USBUART_std.c **** }
1098:Generated_Source\PSoC5/USBUART_std.c **** 
1099:Generated_Source\PSoC5/USBUART_std.c **** 
1100:Generated_Source\PSoC5/USBUART_std.c **** /*******************************************************************************
1101:Generated_Source\PSoC5/USBUART_std.c **** * Function Name: USBUART_SetEndpointHalt
1102:Generated_Source\PSoC5/USBUART_std.c **** ****************************************************************************//**
1103:Generated_Source\PSoC5/USBUART_std.c **** *
ARM GAS  C:\Users\ingan\AppData\Local\Temp\ccPtKCQI.s 			page 41


1104:Generated_Source\PSoC5/USBUART_std.c **** *  This routine handles set endpoint halt.
1105:Generated_Source\PSoC5/USBUART_std.c **** *
1106:Generated_Source\PSoC5/USBUART_std.c **** * \return
1107:Generated_Source\PSoC5/USBUART_std.c **** *  requestHandled.
1108:Generated_Source\PSoC5/USBUART_std.c **** *
1109:Generated_Source\PSoC5/USBUART_std.c **** * \reentrant
1110:Generated_Source\PSoC5/USBUART_std.c **** *  No.
1111:Generated_Source\PSoC5/USBUART_std.c **** *
1112:Generated_Source\PSoC5/USBUART_std.c **** *******************************************************************************/
1113:Generated_Source\PSoC5/USBUART_std.c **** uint8 USBUART_SetEndpointHalt(void) 
1114:Generated_Source\PSoC5/USBUART_std.c **** {
 1074              		.loc 1 1114 0
 1075              		.cfi_startproc
 1076              		@ args = 0, pretend = 0, frame = 0
 1077              		@ frame_needed = 0, uses_anonymous_args = 0
 1078 0000 08B5     		push	{r3, lr}
 1079              		.cfi_def_cfa_offset 8
 1080              		.cfi_offset 3, -8
 1081              		.cfi_offset 14, -4
 1082              	.LVL105:
1115:Generated_Source\PSoC5/USBUART_std.c ****     uint8 requestHandled = USBUART_FALSE;
1116:Generated_Source\PSoC5/USBUART_std.c ****     uint8 ep;
1117:Generated_Source\PSoC5/USBUART_std.c ****     
1118:Generated_Source\PSoC5/USBUART_std.c ****     /* Set endpoint halt */
1119:Generated_Source\PSoC5/USBUART_std.c ****     ep = USBUART_wIndexLoReg & USBUART_DIR_UNUSED;
 1083              		.loc 1 1119 0
 1084 0002 154B     		ldr	r3, .L93
 1085 0004 1B79     		ldrb	r3, [r3, #4]	@ zero_extendqisi2
 1086 0006 03F07F03 		and	r3, r3, #127
 1087              	.LVL106:
1120:Generated_Source\PSoC5/USBUART_std.c **** 
1121:Generated_Source\PSoC5/USBUART_std.c ****     if ((ep > USBUART_EP0) && (ep < USBUART_MAX_EP))
 1088              		.loc 1 1121 0
 1089 000a 5A1E     		subs	r2, r3, #1
 1090 000c D2B2     		uxtb	r2, r2
 1091 000e 072A     		cmp	r2, #7
 1092 0010 20D8     		bhi	.L91
1122:Generated_Source\PSoC5/USBUART_std.c ****     {
1123:Generated_Source\PSoC5/USBUART_std.c ****         /* Set the endpoint Halt */
1124:Generated_Source\PSoC5/USBUART_std.c ****         USBUART_EP[ep].hwEpState |= (USBUART_ENDPOINT_STATUS_HALT);
 1093              		.loc 1 1124 0
 1094 0012 5900     		lsls	r1, r3, #1
 1095 0014 1944     		add	r1, r1, r3
 1096 0016 8A00     		lsls	r2, r1, #2
 1097 0018 1049     		ldr	r1, .L93+4
 1098 001a 0A44     		add	r2, r2, r1
 1099 001c 9178     		ldrb	r1, [r2, #2]	@ zero_extendqisi2
 1100 001e 41F00101 		orr	r1, r1, #1
 1101 0022 9170     		strb	r1, [r2, #2]
1125:Generated_Source\PSoC5/USBUART_std.c **** 
1126:Generated_Source\PSoC5/USBUART_std.c ****         /* Clear the data toggle */
1127:Generated_Source\PSoC5/USBUART_std.c ****         USBUART_EP[ep].epToggle = 0u;
 1102              		.loc 1 1127 0
 1103 0024 0021     		movs	r1, #0
 1104 0026 D170     		strb	r1, [r2, #3]
1128:Generated_Source\PSoC5/USBUART_std.c ****         USBUART_EP[ep].apiEpState |= USBUART_NO_EVENT_ALLOWED;
 1105              		.loc 1 1128 0
ARM GAS  C:\Users\ingan\AppData\Local\Temp\ccPtKCQI.s 			page 42


 1106 0028 5178     		ldrb	r1, [r2, #1]	@ zero_extendqisi2
 1107 002a 41F00201 		orr	r1, r1, #2
 1108 002e 5170     		strb	r1, [r2, #1]
1129:Generated_Source\PSoC5/USBUART_std.c **** 
1130:Generated_Source\PSoC5/USBUART_std.c ****         if ((USBUART_EP[ep].addr & USBUART_DIR_IN) != 0u)
 1109              		.loc 1 1130 0
 1110 0030 1279     		ldrb	r2, [r2, #4]	@ zero_extendqisi2
 1111 0032 12F0800F 		tst	r2, #128
 1112 0036 05D0     		beq	.L89
1131:Generated_Source\PSoC5/USBUART_std.c ****         {
1132:Generated_Source\PSoC5/USBUART_std.c ****             /* IN Endpoint */
1133:Generated_Source\PSoC5/USBUART_std.c ****             USBUART_SIE_EP_BASE.sieEp[ep].epCr0 = (USBUART_MODE_STALL_DATA_EP | 
 1113              		.loc 1 1133 0
 1114 0038 1B01     		lsls	r3, r3, #4
 1115              	.LVL107:
 1116 003a 094A     		ldr	r2, .L93+8
 1117 003c 1A44     		add	r2, r2, r3
 1118 003e 8D23     		movs	r3, #141
 1119 0040 9370     		strb	r3, [r2, #2]
 1120 0042 04E0     		b	.L90
 1121              	.LVL108:
 1122              	.L89:
1134:Generated_Source\PSoC5/USBUART_std.c ****                                                             USBUART_MODE_ACK_IN);
1135:Generated_Source\PSoC5/USBUART_std.c ****         }
1136:Generated_Source\PSoC5/USBUART_std.c ****         else
1137:Generated_Source\PSoC5/USBUART_std.c ****         {
1138:Generated_Source\PSoC5/USBUART_std.c ****             /* OUT Endpoint */
1139:Generated_Source\PSoC5/USBUART_std.c ****             USBUART_SIE_EP_BASE.sieEp[ep].epCr0 = (USBUART_MODE_STALL_DATA_EP | 
 1123              		.loc 1 1139 0
 1124 0044 1B01     		lsls	r3, r3, #4
 1125              	.LVL109:
 1126 0046 064A     		ldr	r2, .L93+8
 1127 0048 1A44     		add	r2, r2, r3
 1128 004a 8923     		movs	r3, #137
 1129 004c 9370     		strb	r3, [r2, #2]
 1130              	.L90:
1140:Generated_Source\PSoC5/USBUART_std.c ****                                                             USBUART_MODE_ACK_OUT);
1141:Generated_Source\PSoC5/USBUART_std.c ****         }
1142:Generated_Source\PSoC5/USBUART_std.c ****         requestHandled = USBUART_InitNoDataControlTransfer();
 1131              		.loc 1 1142 0
 1132 004e FFF7FEFF 		bl	USBUART_InitNoDataControlTransfer
 1133              	.LVL110:
 1134 0052 08BD     		pop	{r3, pc}
 1135              	.LVL111:
 1136              	.L91:
1115:Generated_Source\PSoC5/USBUART_std.c ****     uint8 ep;
 1137              		.loc 1 1115 0
 1138 0054 0020     		movs	r0, #0
 1139              	.LVL112:
1143:Generated_Source\PSoC5/USBUART_std.c ****     }
1144:Generated_Source\PSoC5/USBUART_std.c **** 
1145:Generated_Source\PSoC5/USBUART_std.c ****     return (requestHandled);
1146:Generated_Source\PSoC5/USBUART_std.c **** }
 1140              		.loc 1 1146 0
 1141 0056 08BD     		pop	{r3, pc}
 1142              	.LVL113:
 1143              	.L94:
ARM GAS  C:\Users\ingan\AppData\Local\Temp\ccPtKCQI.s 			page 43


 1144              		.align	2
 1145              	.L93:
 1146 0058 00600040 		.word	1073766400
 1147 005c 00000000 		.word	USBUART_EP
 1148 0060 FC5F0040 		.word	1073766396
 1149              		.cfi_endproc
 1150              	.LFE10:
 1151              		.size	USBUART_SetEndpointHalt, .-USBUART_SetEndpointHalt
 1152              		.section	.text.USBUART_ClearEndpointHalt,"ax",%progbits
 1153              		.align	2
 1154              		.global	USBUART_ClearEndpointHalt
 1155              		.thumb
 1156              		.thumb_func
 1157              		.type	USBUART_ClearEndpointHalt, %function
 1158              	USBUART_ClearEndpointHalt:
 1159              	.LFB11:
1147:Generated_Source\PSoC5/USBUART_std.c **** 
1148:Generated_Source\PSoC5/USBUART_std.c **** 
1149:Generated_Source\PSoC5/USBUART_std.c **** /*******************************************************************************
1150:Generated_Source\PSoC5/USBUART_std.c **** * Function Name: USBUART_ClearEndpointHalt
1151:Generated_Source\PSoC5/USBUART_std.c **** ****************************************************************************//**
1152:Generated_Source\PSoC5/USBUART_std.c **** *
1153:Generated_Source\PSoC5/USBUART_std.c **** *  This routine handles clear endpoint halt.
1154:Generated_Source\PSoC5/USBUART_std.c **** *
1155:Generated_Source\PSoC5/USBUART_std.c **** * \return
1156:Generated_Source\PSoC5/USBUART_std.c **** *  requestHandled.
1157:Generated_Source\PSoC5/USBUART_std.c **** *
1158:Generated_Source\PSoC5/USBUART_std.c **** * \reentrant
1159:Generated_Source\PSoC5/USBUART_std.c **** *  No.
1160:Generated_Source\PSoC5/USBUART_std.c **** *
1161:Generated_Source\PSoC5/USBUART_std.c **** *******************************************************************************/
1162:Generated_Source\PSoC5/USBUART_std.c **** uint8 USBUART_ClearEndpointHalt(void) 
1163:Generated_Source\PSoC5/USBUART_std.c **** {
 1160              		.loc 1 1163 0
 1161              		.cfi_startproc
 1162              		@ args = 0, pretend = 0, frame = 0
 1163              		@ frame_needed = 0, uses_anonymous_args = 0
 1164              	.LVL114:
1164:Generated_Source\PSoC5/USBUART_std.c ****     uint8 requestHandled = USBUART_FALSE;
1165:Generated_Source\PSoC5/USBUART_std.c ****     uint8 ep;
1166:Generated_Source\PSoC5/USBUART_std.c **** 
1167:Generated_Source\PSoC5/USBUART_std.c ****     /* Clear endpoint halt */
1168:Generated_Source\PSoC5/USBUART_std.c ****     ep = USBUART_wIndexLoReg & USBUART_DIR_UNUSED;
 1165              		.loc 1 1168 0
 1166 0000 274B     		ldr	r3, .L104
 1167 0002 1B79     		ldrb	r3, [r3, #4]	@ zero_extendqisi2
 1168 0004 03F07F03 		and	r3, r3, #127
 1169              	.LVL115:
1169:Generated_Source\PSoC5/USBUART_std.c **** 
1170:Generated_Source\PSoC5/USBUART_std.c ****     if ((ep > USBUART_EP0) && (ep < USBUART_MAX_EP))
 1170              		.loc 1 1170 0
 1171 0008 5A1E     		subs	r2, r3, #1
 1172 000a D2B2     		uxtb	r2, r2
 1173 000c 072A     		cmp	r2, #7
 1174 000e 44D8     		bhi	.L101
1163:Generated_Source\PSoC5/USBUART_std.c ****     uint8 requestHandled = USBUART_FALSE;
 1175              		.loc 1 1163 0
ARM GAS  C:\Users\ingan\AppData\Local\Temp\ccPtKCQI.s 			page 44


 1176 0010 10B5     		push	{r4, lr}
 1177              		.cfi_def_cfa_offset 8
 1178              		.cfi_offset 4, -8
 1179              		.cfi_offset 14, -4
1171:Generated_Source\PSoC5/USBUART_std.c ****     {
1172:Generated_Source\PSoC5/USBUART_std.c ****         /* Clear the endpoint Halt */
1173:Generated_Source\PSoC5/USBUART_std.c ****         USBUART_EP[ep].hwEpState &= (uint8) ~USBUART_ENDPOINT_STATUS_HALT;
 1180              		.loc 1 1173 0
 1181 0012 5900     		lsls	r1, r3, #1
 1182 0014 1944     		add	r1, r1, r3
 1183 0016 8A00     		lsls	r2, r1, #2
 1184 0018 2249     		ldr	r1, .L104+4
 1185 001a 0A44     		add	r2, r2, r1
 1186 001c 9178     		ldrb	r1, [r2, #2]	@ zero_extendqisi2
 1187 001e 01F0FE01 		and	r1, r1, #254
 1188 0022 9170     		strb	r1, [r2, #2]
1174:Generated_Source\PSoC5/USBUART_std.c **** 
1175:Generated_Source\PSoC5/USBUART_std.c ****         /* Clear the data toggle */
1176:Generated_Source\PSoC5/USBUART_std.c ****         USBUART_EP[ep].epToggle = 0u;
 1189              		.loc 1 1176 0
 1190 0024 0021     		movs	r1, #0
 1191 0026 D170     		strb	r1, [r2, #3]
1177:Generated_Source\PSoC5/USBUART_std.c ****         
1178:Generated_Source\PSoC5/USBUART_std.c ****         /* Clear toggle bit for already armed packet */
1179:Generated_Source\PSoC5/USBUART_std.c ****         USBUART_SIE_EP_BASE.sieEp[ep].epCnt0 &= (uint8) ~(uint8)USBUART_EPX_CNT_DATA_TOGGLE;
 1192              		.loc 1 1179 0
 1193 0028 1F4C     		ldr	r4, .L104+8
 1194 002a 1801     		lsls	r0, r3, #4
 1195 002c 215C     		ldrb	r1, [r4, r0]	@ zero_extendqisi2
 1196 002e 01F07F01 		and	r1, r1, #127
 1197 0032 2154     		strb	r1, [r4, r0]
1180:Generated_Source\PSoC5/USBUART_std.c ****         
1181:Generated_Source\PSoC5/USBUART_std.c ****         /* Return API State as it was defined before */
1182:Generated_Source\PSoC5/USBUART_std.c ****         USBUART_EP[ep].apiEpState &= (uint8) ~USBUART_NO_EVENT_ALLOWED;
 1198              		.loc 1 1182 0
 1199 0034 5178     		ldrb	r1, [r2, #1]	@ zero_extendqisi2
 1200 0036 01F0FD01 		and	r1, r1, #253
 1201 003a 5170     		strb	r1, [r2, #1]
1183:Generated_Source\PSoC5/USBUART_std.c **** 
1184:Generated_Source\PSoC5/USBUART_std.c ****         if ((USBUART_EP[ep].addr & USBUART_DIR_IN) != 0u)
 1202              		.loc 1 1184 0
 1203 003c 1279     		ldrb	r2, [r2, #4]	@ zero_extendqisi2
 1204 003e 12F0800F 		tst	r2, #128
 1205 0042 13D0     		beq	.L97
1185:Generated_Source\PSoC5/USBUART_std.c ****         {
1186:Generated_Source\PSoC5/USBUART_std.c ****             /* IN Endpoint */
1187:Generated_Source\PSoC5/USBUART_std.c ****             if(USBUART_EP[ep].apiEpState == USBUART_IN_BUFFER_EMPTY)
 1206              		.loc 1 1187 0
 1207 0044 03EB4301 		add	r1, r3, r3, lsl #1
 1208 0048 8A00     		lsls	r2, r1, #2
 1209 004a 1649     		ldr	r1, .L104+4
 1210 004c 0A44     		add	r2, r2, r1
 1211 004e 5278     		ldrb	r2, [r2, #1]	@ zero_extendqisi2
 1212 0050 D2B2     		uxtb	r2, r2
 1213 0052 012A     		cmp	r2, #1
 1214 0054 04D1     		bne	.L98
1188:Generated_Source\PSoC5/USBUART_std.c ****             {       
ARM GAS  C:\Users\ingan\AppData\Local\Temp\ccPtKCQI.s 			page 45


1189:Generated_Source\PSoC5/USBUART_std.c ****                 /* Wait for next packet from application */
1190:Generated_Source\PSoC5/USBUART_std.c ****                 USBUART_SIE_EP_BASE.sieEp[ep].epCr0 = USBUART_MODE_NAK_IN;
 1215              		.loc 1 1190 0
 1216 0056 2246     		mov	r2, r4
 1217 0058 0244     		add	r2, r2, r0
 1218 005a 0C23     		movs	r3, #12
 1219              	.LVL116:
 1220 005c 9370     		strb	r3, [r2, #2]
 1221 005e 19E0     		b	.L99
 1222              	.LVL117:
 1223              	.L98:
1191:Generated_Source\PSoC5/USBUART_std.c ****             }
1192:Generated_Source\PSoC5/USBUART_std.c ****             else    /* Continue armed transfer */
1193:Generated_Source\PSoC5/USBUART_std.c ****             {
1194:Generated_Source\PSoC5/USBUART_std.c ****                 USBUART_SIE_EP_BASE.sieEp[ep].epCr0 = USBUART_MODE_ACK_IN;
 1224              		.loc 1 1194 0
 1225 0060 1B01     		lsls	r3, r3, #4
 1226              	.LVL118:
 1227 0062 114A     		ldr	r2, .L104+8
 1228 0064 1A44     		add	r2, r2, r3
 1229 0066 0D23     		movs	r3, #13
 1230 0068 9370     		strb	r3, [r2, #2]
 1231 006a 13E0     		b	.L99
 1232              	.LVL119:
 1233              	.L97:
1195:Generated_Source\PSoC5/USBUART_std.c ****             }
1196:Generated_Source\PSoC5/USBUART_std.c ****         }
1197:Generated_Source\PSoC5/USBUART_std.c ****         else
1198:Generated_Source\PSoC5/USBUART_std.c ****         {
1199:Generated_Source\PSoC5/USBUART_std.c ****             /* OUT Endpoint */
1200:Generated_Source\PSoC5/USBUART_std.c ****             if (USBUART_EP[ep].apiEpState == USBUART_OUT_BUFFER_FULL)
 1234              		.loc 1 1200 0
 1235 006c 03EB4301 		add	r1, r3, r3, lsl #1
 1236 0070 8A00     		lsls	r2, r1, #2
 1237 0072 0C49     		ldr	r1, .L104+4
 1238 0074 0A44     		add	r2, r2, r1
 1239 0076 5278     		ldrb	r2, [r2, #1]	@ zero_extendqisi2
 1240 0078 D2B2     		uxtb	r2, r2
 1241 007a 012A     		cmp	r2, #1
 1242 007c 05D1     		bne	.L100
1201:Generated_Source\PSoC5/USBUART_std.c ****             {       
1202:Generated_Source\PSoC5/USBUART_std.c ****                 /* Allow application to read full buffer */
1203:Generated_Source\PSoC5/USBUART_std.c ****                 USBUART_SIE_EP_BASE.sieEp[ep].epCr0 = USBUART_MODE_NAK_OUT;
 1243              		.loc 1 1203 0
 1244 007e 1B01     		lsls	r3, r3, #4
 1245              	.LVL120:
 1246 0080 094A     		ldr	r2, .L104+8
 1247 0082 1A44     		add	r2, r2, r3
 1248 0084 0823     		movs	r3, #8
 1249 0086 9370     		strb	r3, [r2, #2]
 1250 0088 04E0     		b	.L99
 1251              	.LVL121:
 1252              	.L100:
1204:Generated_Source\PSoC5/USBUART_std.c ****             }
1205:Generated_Source\PSoC5/USBUART_std.c ****             else    /* Mark endpoint as empty, so it will be reloaded */
1206:Generated_Source\PSoC5/USBUART_std.c ****             {
1207:Generated_Source\PSoC5/USBUART_std.c ****                 USBUART_SIE_EP_BASE.sieEp[ep].epCr0 = USBUART_MODE_ACK_OUT;
ARM GAS  C:\Users\ingan\AppData\Local\Temp\ccPtKCQI.s 			page 46


 1253              		.loc 1 1207 0
 1254 008a 1B01     		lsls	r3, r3, #4
 1255              	.LVL122:
 1256 008c 064A     		ldr	r2, .L104+8
 1257 008e 1A44     		add	r2, r2, r3
 1258 0090 0923     		movs	r3, #9
 1259 0092 9370     		strb	r3, [r2, #2]
 1260              	.L99:
1208:Generated_Source\PSoC5/USBUART_std.c ****             }
1209:Generated_Source\PSoC5/USBUART_std.c ****         }
1210:Generated_Source\PSoC5/USBUART_std.c ****         
1211:Generated_Source\PSoC5/USBUART_std.c ****         requestHandled = USBUART_InitNoDataControlTransfer();
 1261              		.loc 1 1211 0
 1262 0094 FFF7FEFF 		bl	USBUART_InitNoDataControlTransfer
 1263              	.LVL123:
 1264 0098 10BD     		pop	{r4, pc}
 1265              	.LVL124:
 1266              	.L101:
 1267              		.cfi_def_cfa_offset 0
 1268              		.cfi_restore 4
 1269              		.cfi_restore 14
1164:Generated_Source\PSoC5/USBUART_std.c ****     uint8 ep;
 1270              		.loc 1 1164 0
 1271 009a 0020     		movs	r0, #0
 1272 009c 7047     		bx	lr
 1273              	.L105:
 1274 009e 00BF     		.align	2
 1275              	.L104:
 1276 00a0 00600040 		.word	1073766400
 1277 00a4 00000000 		.word	USBUART_EP
 1278 00a8 FC5F0040 		.word	1073766396
 1279              		.cfi_endproc
 1280              	.LFE11:
 1281              		.size	USBUART_ClearEndpointHalt, .-USBUART_ClearEndpointHalt
 1282              		.section	.text.USBUART_ValidateAlternateSetting,"ax",%progbits
 1283              		.align	2
 1284              		.global	USBUART_ValidateAlternateSetting
 1285              		.thumb
 1286              		.thumb_func
 1287              		.type	USBUART_ValidateAlternateSetting, %function
 1288              	USBUART_ValidateAlternateSetting:
 1289              	.LFB12:
1212:Generated_Source\PSoC5/USBUART_std.c ****     }
1213:Generated_Source\PSoC5/USBUART_std.c **** 
1214:Generated_Source\PSoC5/USBUART_std.c ****     return(requestHandled);
1215:Generated_Source\PSoC5/USBUART_std.c **** }
1216:Generated_Source\PSoC5/USBUART_std.c **** 
1217:Generated_Source\PSoC5/USBUART_std.c **** 
1218:Generated_Source\PSoC5/USBUART_std.c **** /*******************************************************************************
1219:Generated_Source\PSoC5/USBUART_std.c **** * Function Name: USBUART_ValidateAlternateSetting
1220:Generated_Source\PSoC5/USBUART_std.c **** ****************************************************************************//**
1221:Generated_Source\PSoC5/USBUART_std.c **** *
1222:Generated_Source\PSoC5/USBUART_std.c **** *  Validates (and records) a SET INTERFACE request.
1223:Generated_Source\PSoC5/USBUART_std.c **** *
1224:Generated_Source\PSoC5/USBUART_std.c **** * \return
1225:Generated_Source\PSoC5/USBUART_std.c **** *  requestHandled.
1226:Generated_Source\PSoC5/USBUART_std.c **** *
ARM GAS  C:\Users\ingan\AppData\Local\Temp\ccPtKCQI.s 			page 47


1227:Generated_Source\PSoC5/USBUART_std.c **** * \reentrant
1228:Generated_Source\PSoC5/USBUART_std.c **** *  No.
1229:Generated_Source\PSoC5/USBUART_std.c **** *
1230:Generated_Source\PSoC5/USBUART_std.c **** *******************************************************************************/
1231:Generated_Source\PSoC5/USBUART_std.c **** uint8 USBUART_ValidateAlternateSetting(void) 
1232:Generated_Source\PSoC5/USBUART_std.c **** {
 1290              		.loc 1 1232 0
 1291              		.cfi_startproc
 1292              		@ args = 0, pretend = 0, frame = 0
 1293              		@ frame_needed = 0, uses_anonymous_args = 0
 1294 0000 10B5     		push	{r4, lr}
 1295              		.cfi_def_cfa_offset 8
 1296              		.cfi_offset 4, -8
 1297              		.cfi_offset 14, -4
 1298              	.LVL125:
1233:Generated_Source\PSoC5/USBUART_std.c ****     uint8 requestHandled = USBUART_FALSE;
1234:Generated_Source\PSoC5/USBUART_std.c ****     
1235:Generated_Source\PSoC5/USBUART_std.c ****     uint8 interfaceNum;
1236:Generated_Source\PSoC5/USBUART_std.c ****     uint8 curInterfacesNum;
1237:Generated_Source\PSoC5/USBUART_std.c ****     const T_USBUART_LUT CYCODE *pTmp;
1238:Generated_Source\PSoC5/USBUART_std.c ****     
1239:Generated_Source\PSoC5/USBUART_std.c ****     /* Get interface number from the request. */
1240:Generated_Source\PSoC5/USBUART_std.c ****     interfaceNum = (uint8) USBUART_wIndexLoReg;
 1299              		.loc 1 1240 0
 1300 0002 0E4B     		ldr	r3, .L111
 1301 0004 1C79     		ldrb	r4, [r3, #4]	@ zero_extendqisi2
 1302 0006 E4B2     		uxtb	r4, r4
 1303              	.LVL126:
1241:Generated_Source\PSoC5/USBUART_std.c ****     
1242:Generated_Source\PSoC5/USBUART_std.c ****     /* Get number of interfaces for current configuration. */
1243:Generated_Source\PSoC5/USBUART_std.c ****     pTmp = USBUART_GetConfigTablePtr(USBUART_configuration - 1u);
 1304              		.loc 1 1243 0
 1305 0008 0D4B     		ldr	r3, .L111+4
 1306 000a 1878     		ldrb	r0, [r3]	@ zero_extendqisi2
 1307 000c 0138     		subs	r0, r0, #1
 1308 000e C0B2     		uxtb	r0, r0
 1309 0010 FFF7FEFF 		bl	USBUART_GetConfigTablePtr
 1310              	.LVL127:
1244:Generated_Source\PSoC5/USBUART_std.c ****     curInterfacesNum  = ((const uint8 *) pTmp->p_list)[USBUART_CONFIG_DESCR_NUM_INTERFACES];
 1311              		.loc 1 1244 0
 1312 0014 4368     		ldr	r3, [r0, #4]
 1313 0016 1B79     		ldrb	r3, [r3, #4]	@ zero_extendqisi2
 1314              	.LVL128:
1245:Generated_Source\PSoC5/USBUART_std.c **** 
1246:Generated_Source\PSoC5/USBUART_std.c ****     /* Validate that interface number is within range. */
1247:Generated_Source\PSoC5/USBUART_std.c ****     if ((interfaceNum <= curInterfacesNum) || (interfaceNum <= USBUART_MAX_INTERFACES_NUMBER))
 1315              		.loc 1 1247 0
 1316 0018 9C42     		cmp	r4, r3
 1317 001a 01D9     		bls	.L107
 1318              		.loc 1 1247 0 is_stmt 0 discriminator 1
 1319 001c 022C     		cmp	r4, #2
 1320 001e 0AD8     		bhi	.L109
 1321              	.L107:
1248:Generated_Source\PSoC5/USBUART_std.c ****     {
1249:Generated_Source\PSoC5/USBUART_std.c ****         /* Save current and new alternate settings (come with request) to make 
1250:Generated_Source\PSoC5/USBUART_std.c ****         * desicion about following endpoint re-configuration.
1251:Generated_Source\PSoC5/USBUART_std.c ****         */
ARM GAS  C:\Users\ingan\AppData\Local\Temp\ccPtKCQI.s 			page 48


1252:Generated_Source\PSoC5/USBUART_std.c ****         USBUART_interfaceSettingLast[interfaceNum] = USBUART_interfaceSetting[interfaceNum];
 1322              		.loc 1 1252 0 is_stmt 1
 1323 0020 084A     		ldr	r2, .L111+8
 1324 0022 135D     		ldrb	r3, [r2, r4]	@ zero_extendqisi2
 1325              	.LVL129:
 1326 0024 DBB2     		uxtb	r3, r3
 1327 0026 0849     		ldr	r1, .L111+12
 1328 0028 0B55     		strb	r3, [r1, r4]
1253:Generated_Source\PSoC5/USBUART_std.c ****         USBUART_interfaceSetting[interfaceNum]     = (uint8) USBUART_wValueLoReg;
 1329              		.loc 1 1253 0
 1330 002a 044B     		ldr	r3, .L111
 1331 002c 9B78     		ldrb	r3, [r3, #2]	@ zero_extendqisi2
 1332 002e DBB2     		uxtb	r3, r3
 1333 0030 1355     		strb	r3, [r2, r4]
 1334              	.LVL130:
1254:Generated_Source\PSoC5/USBUART_std.c ****         
1255:Generated_Source\PSoC5/USBUART_std.c ****         requestHandled = USBUART_TRUE;
 1335              		.loc 1 1255 0
 1336 0032 0120     		movs	r0, #1
 1337              	.LVL131:
 1338 0034 10BD     		pop	{r4, pc}
 1339              	.LVL132:
 1340              	.L109:
1233:Generated_Source\PSoC5/USBUART_std.c ****     
 1341              		.loc 1 1233 0
 1342 0036 0020     		movs	r0, #0
 1343              	.LVL133:
1256:Generated_Source\PSoC5/USBUART_std.c ****     }
1257:Generated_Source\PSoC5/USBUART_std.c **** 
1258:Generated_Source\PSoC5/USBUART_std.c ****     return (requestHandled);
1259:Generated_Source\PSoC5/USBUART_std.c **** }
 1344              		.loc 1 1259 0
 1345 0038 10BD     		pop	{r4, pc}
 1346              	.LVL134:
 1347              	.L112:
 1348 003a 00BF     		.align	2
 1349              	.L111:
 1350 003c 00600040 		.word	1073766400
 1351 0040 00000000 		.word	USBUART_configuration
 1352 0044 00000000 		.word	USBUART_interfaceSetting
 1353 0048 00000000 		.word	USBUART_interfaceSettingLast
 1354              		.cfi_endproc
 1355              	.LFE12:
 1356              		.size	USBUART_ValidateAlternateSetting, .-USBUART_ValidateAlternateSetting
 1357              		.section	.text.USBUART_HandleStandardRqst,"ax",%progbits
 1358              		.align	2
 1359              		.global	USBUART_HandleStandardRqst
 1360              		.thumb
 1361              		.thumb_func
 1362              		.type	USBUART_HandleStandardRqst, %function
 1363              	USBUART_HandleStandardRqst:
 1364              	.LFB0:
  85:Generated_Source\PSoC5/USBUART_std.c ****     uint8 requestHandled = USBUART_FALSE;
 1365              		.loc 1 85 0
 1366              		.cfi_startproc
 1367              		@ args = 0, pretend = 0, frame = 0
 1368              		@ frame_needed = 0, uses_anonymous_args = 0
ARM GAS  C:\Users\ingan\AppData\Local\Temp\ccPtKCQI.s 			page 49


 1369 0000 10B5     		push	{r4, lr}
 1370              		.cfi_def_cfa_offset 8
 1371              		.cfi_offset 4, -8
 1372              		.cfi_offset 14, -4
 1373              	.LVL135:
  89:Generated_Source\PSoC5/USBUART_std.c **** 
 1374              		.loc 1 89 0
 1375 0002 9C4B     		ldr	r3, .L168
 1376 0004 1B78     		ldrb	r3, [r3]	@ zero_extendqisi2
 1377 0006 DBB2     		uxtb	r3, r3
 1378              	.LVL136:
 102:Generated_Source\PSoC5/USBUART_std.c **** 
 1379              		.loc 1 102 0
 1380 0008 0021     		movs	r1, #0
 1381 000a 9B4A     		ldr	r2, .L168+4
 1382 000c 1180     		strh	r1, [r2]	@ movhi
 104:Generated_Source\PSoC5/USBUART_std.c ****     {
 1383              		.loc 1 104 0
 1384 000e 13F0800F 		tst	r3, #128
 1385 0012 00F0AD80 		beq	.L114
 107:Generated_Source\PSoC5/USBUART_std.c ****         {
 1386              		.loc 1 107 0
 1387 0016 974A     		ldr	r2, .L168
 1388 0018 5278     		ldrb	r2, [r2, #1]	@ zero_extendqisi2
 1389 001a D2B2     		uxtb	r2, r2
 1390 001c 0A2A     		cmp	r2, #10
 1391 001e 00F27481 		bhi	.L147
 1392 0022 DFE812F0 		tbh	[pc, r2, lsl #1]
 1393              	.L117:
 1394 0026 6900     		.2byte	(.L116-.L117)/2
 1395 0028 7201     		.2byte	(.L147-.L117)/2
 1396 002a 7201     		.2byte	(.L147-.L117)/2
 1397 002c 7201     		.2byte	(.L147-.L117)/2
 1398 002e 7201     		.2byte	(.L147-.L117)/2
 1399 0030 7201     		.2byte	(.L147-.L117)/2
 1400 0032 0B00     		.2byte	(.L118-.L117)/2
 1401 0034 7201     		.2byte	(.L147-.L117)/2
 1402 0036 9200     		.2byte	(.L119-.L117)/2
 1403 0038 7201     		.2byte	(.L147-.L117)/2
 1404 003a 9A00     		.2byte	(.L120-.L117)/2
 1405              		.p2align 1
 1406              	.L118:
 110:Generated_Source\PSoC5/USBUART_std.c ****                 {
 1407              		.loc 1 110 0
 1408 003c 8D4B     		ldr	r3, .L168
 1409              	.LVL137:
 1410 003e DB78     		ldrb	r3, [r3, #3]	@ zero_extendqisi2
 1411 0040 DBB2     		uxtb	r3, r3
 1412 0042 012B     		cmp	r3, #1
 1413 0044 09D1     		bne	.L121
 112:Generated_Source\PSoC5/USBUART_std.c ****                     USBUART_currentTD.pData = (volatile uint8 *)pTmp->p_list;
 1414              		.loc 1 112 0
 1415 0046 FFF7FEFF 		bl	USBUART_GetDeviceTablePtr
 1416              	.LVL138:
 113:Generated_Source\PSoC5/USBUART_std.c ****                     USBUART_currentTD.count = USBUART_DEVICE_DESCR_LENGTH;
 1417              		.loc 1 113 0
 1418 004a 4268     		ldr	r2, [r0, #4]
ARM GAS  C:\Users\ingan\AppData\Local\Temp\ccPtKCQI.s 			page 50


 1419 004c 8A4B     		ldr	r3, .L168+4
 1420 004e 5A60     		str	r2, [r3, #4]
 114:Generated_Source\PSoC5/USBUART_std.c ****                     
 1421              		.loc 1 114 0
 1422 0050 1222     		movs	r2, #18
 1423 0052 1A80     		strh	r2, [r3]	@ movhi
 116:Generated_Source\PSoC5/USBUART_std.c ****                 }
 1424              		.loc 1 116 0
 1425 0054 FFF7FEFF 		bl	USBUART_InitControlRead
 1426              	.LVL139:
 1427 0058 10BD     		pop	{r4, pc}
 1428              	.LVL140:
 1429              	.L121:
 118:Generated_Source\PSoC5/USBUART_std.c ****                 {
 1430              		.loc 1 118 0
 1431 005a 864B     		ldr	r3, .L168
 1432 005c DB78     		ldrb	r3, [r3, #3]	@ zero_extendqisi2
 1433 005e DBB2     		uxtb	r3, r3
 1434 0060 022B     		cmp	r3, #2
 1435 0062 13D1     		bne	.L122
 120:Generated_Source\PSoC5/USBUART_std.c ****                     
 1436              		.loc 1 120 0
 1437 0064 834B     		ldr	r3, .L168
 1438 0066 9878     		ldrb	r0, [r3, #2]	@ zero_extendqisi2
 1439 0068 FFF7FEFF 		bl	USBUART_GetConfigTablePtr
 1440              	.LVL141:
 123:Generated_Source\PSoC5/USBUART_std.c ****                     {
 1441              		.loc 1 123 0
 1442 006c 0028     		cmp	r0, #0
 1443 006e 00F04E81 		beq	.L148
 125:Generated_Source\PSoC5/USBUART_std.c ****                         USBUART_currentTD.count = (uint16)((uint16)(USBUART_currentTD.pData)[USBUAR
 1444              		.loc 1 125 0
 1445 0072 4268     		ldr	r2, [r0, #4]
 1446 0074 804B     		ldr	r3, .L168+4
 1447 0076 5A60     		str	r2, [r3, #4]
 126:Generated_Source\PSoC5/USBUART_std.c ****                                                                             (USBUART_currentTD.pDat
 1448              		.loc 1 126 0
 1449 0078 5A68     		ldr	r2, [r3, #4]
 1450 007a D178     		ldrb	r1, [r2, #3]	@ zero_extendqisi2
 127:Generated_Source\PSoC5/USBUART_std.c ****                         requestHandled  = USBUART_InitControlRead();
 1451              		.loc 1 127 0
 1452 007c 5A68     		ldr	r2, [r3, #4]
 1453 007e 9278     		ldrb	r2, [r2, #2]	@ zero_extendqisi2
 126:Generated_Source\PSoC5/USBUART_std.c ****                                                                             (USBUART_currentTD.pDat
 1454              		.loc 1 126 0
 1455 0080 42EA0122 		orr	r2, r2, r1, lsl #8
 1456 0084 1A80     		strh	r2, [r3]	@ movhi
 128:Generated_Source\PSoC5/USBUART_std.c ****                     }
 1457              		.loc 1 128 0
 1458 0086 FFF7FEFF 		bl	USBUART_InitControlRead
 1459              	.LVL142:
 1460 008a 10BD     		pop	{r4, pc}
 1461              	.LVL143:
 1462              	.L122:
 149:Generated_Source\PSoC5/USBUART_std.c ****                 {
 1463              		.loc 1 149 0
 1464 008c 794B     		ldr	r3, .L168
ARM GAS  C:\Users\ingan\AppData\Local\Temp\ccPtKCQI.s 			page 51


 1465 008e DB78     		ldrb	r3, [r3, #3]	@ zero_extendqisi2
 1466 0090 DBB2     		uxtb	r3, r3
 1467 0092 032B     		cmp	r3, #3
 1468 0094 05D0     		beq	.L149
 1469 0096 2CE0     		b	.L163
 1470              	.LVL144:
 1471              	.L126:
 159:Generated_Source\PSoC5/USBUART_std.c ****                         /* Move to next string descriptor */
 1472              		.loc 1 159 0
 1473 0098 0A78     		ldrb	r2, [r1]	@ zero_extendqisi2
 1474              	.LVL145:
 161:Generated_Source\PSoC5/USBUART_std.c ****                         nStr++;
 1475              		.loc 1 161 0
 1476 009a 1144     		add	r1, r1, r2
 1477              	.LVL146:
 162:Generated_Source\PSoC5/USBUART_std.c ****                     }
 1478              		.loc 1 162 0
 1479 009c 0133     		adds	r3, r3, #1
 1480              	.LVL147:
 1481 009e DBB2     		uxtb	r3, r3
 1482              	.LVL148:
 1483 00a0 01E0     		b	.L123
 1484              	.LVL149:
 1485              	.L149:
 1486 00a2 0023     		movs	r3, #0
 1487 00a4 7549     		ldr	r1, .L168+8
 1488              	.LVL150:
 1489              	.L123:
 156:Generated_Source\PSoC5/USBUART_std.c ****                     {
 1490              		.loc 1 156 0
 1491 00a6 734A     		ldr	r2, .L168
 1492 00a8 9278     		ldrb	r2, [r2, #2]	@ zero_extendqisi2
 1493 00aa D2B2     		uxtb	r2, r2
 1494 00ac 9342     		cmp	r3, r2
 1495 00ae 03D2     		bcs	.L125
 156:Generated_Source\PSoC5/USBUART_std.c ****                     {
 1496              		.loc 1 156 0 is_stmt 0 discriminator 1
 1497 00b0 0A78     		ldrb	r2, [r1]	@ zero_extendqisi2
 1498 00b2 12F0FF0F 		tst	r2, #255
 1499 00b6 EFD1     		bne	.L126
 1500              	.L125:
 176:Generated_Source\PSoC5/USBUART_std.c ****                         (USBUART_wValueLoReg == USBUART_DEVICE0_DESCR[USBUART_DEVICE_DESCR_SN_SHIFT
 1501              		.loc 1 176 0 is_stmt 1
 1502 00b8 6E4B     		ldr	r3, .L168
 1503              	.LVL151:
 1504 00ba 9B78     		ldrb	r3, [r3, #2]	@ zero_extendqisi2
 1505 00bc 13F0FF0F 		tst	r3, #255
 1506 00c0 0BD0     		beq	.L127
 177:Generated_Source\PSoC5/USBUART_std.c ****                     {
 1507              		.loc 1 177 0 discriminator 1
 1508 00c2 6C4B     		ldr	r3, .L168
 1509 00c4 9B78     		ldrb	r3, [r3, #2]	@ zero_extendqisi2
 1510 00c6 DBB2     		uxtb	r3, r3
 1511 00c8 6D4A     		ldr	r2, .L168+12
 1512 00ca 127C     		ldrb	r2, [r2, #16]	@ zero_extendqisi2
 176:Generated_Source\PSoC5/USBUART_std.c ****                         (USBUART_wValueLoReg == USBUART_DEVICE0_DESCR[USBUART_DEVICE_DESCR_SN_SHIFT
 1513              		.loc 1 176 0 discriminator 1
ARM GAS  C:\Users\ingan\AppData\Local\Temp\ccPtKCQI.s 			page 52


 1514 00cc 9342     		cmp	r3, r2
 1515 00ce 04D1     		bne	.L127
 181:Generated_Source\PSoC5/USBUART_std.c ****                         pStr = USBUART_idSerialNumberStringDescriptor;
 1516              		.loc 1 181 0
 1517 00d0 6C4C     		ldr	r4, .L168+16
 1518 00d2 2046     		mov	r0, r4
 1519 00d4 FFF7FEFF 		bl	USBUART_ReadDieID
 1520              	.LVL152:
 182:Generated_Source\PSoC5/USBUART_std.c ****                     #elif defined(USBUART_ENABLE_FWSN_STRING)
 1521              		.loc 1 182 0
 1522 00d8 2146     		mov	r1, r4
 1523              	.LVL153:
 1524              	.L127:
 199:Generated_Source\PSoC5/USBUART_std.c ****                     {
 1525              		.loc 1 199 0
 1526 00da 0B78     		ldrb	r3, [r1]	@ zero_extendqisi2
 1527 00dc 13F0FF0F 		tst	r3, #255
 1528 00e0 00F01781 		beq	.L150
 201:Generated_Source\PSoC5/USBUART_std.c ****                         USBUART_currentTD.pData = pStr;
 1529              		.loc 1 201 0
 1530 00e4 0B78     		ldrb	r3, [r1]	@ zero_extendqisi2
 1531 00e6 644A     		ldr	r2, .L168+4
 1532 00e8 1380     		strh	r3, [r2]	@ movhi
 202:Generated_Source\PSoC5/USBUART_std.c ****                         requestHandled  = USBUART_InitControlRead();
 1533              		.loc 1 202 0
 1534 00ea 5160     		str	r1, [r2, #4]
 203:Generated_Source\PSoC5/USBUART_std.c ****                     }
 1535              		.loc 1 203 0
 1536 00ec FFF7FEFF 		bl	USBUART_InitControlRead
 1537              	.LVL154:
 1538 00f0 10BD     		pop	{r4, pc}
 1539              	.LVL155:
 1540              	.L163:
 209:Generated_Source\PSoC5/USBUART_std.c ****                 }
 1541              		.loc 1 209 0
 1542 00f2 FFF7FEFF 		bl	USBUART_DispatchClassRqst
 1543              	.LVL156:
 1544 00f6 10BD     		pop	{r4, pc}
 1545              	.LVL157:
 1546              	.L116:
 214:Generated_Source\PSoC5/USBUART_std.c ****                 {
 1547              		.loc 1 214 0
 1548 00f8 13F00303 		ands	r3, r3, #3
 1549              	.LVL158:
 1550 00fc 17D0     		beq	.L128
 1551 00fe 022B     		cmp	r3, #2
 1552 0100 40F00981 		bne	.L164
 217:Generated_Source\PSoC5/USBUART_std.c ****                         USBUART_tBuffer[0u]     = USBUART_EP[USBUART_wIndexLoReg & USBUART_DIR_UNUS
 1553              		.loc 1 217 0
 1554 0104 5C49     		ldr	r1, .L168+4
 1555 0106 0B80     		strh	r3, [r1]	@ movhi
 218:Generated_Source\PSoC5/USBUART_std.c ****                         USBUART_tBuffer[1u]     = 0u;
 1556              		.loc 1 218 0
 1557 0108 5A4B     		ldr	r3, .L168
 1558 010a 1B79     		ldrb	r3, [r3, #4]	@ zero_extendqisi2
 1559 010c 03F07F03 		and	r3, r3, #127
 1560 0110 03EB4303 		add	r3, r3, r3, lsl #1
ARM GAS  C:\Users\ingan\AppData\Local\Temp\ccPtKCQI.s 			page 53


 1561 0114 9A00     		lsls	r2, r3, #2
 1562 0116 5C4B     		ldr	r3, .L168+20
 1563 0118 1A44     		add	r2, r2, r3
 1564 011a 9278     		ldrb	r2, [r2, #2]	@ zero_extendqisi2
 1565 011c D2B2     		uxtb	r2, r2
 1566 011e 5B4B     		ldr	r3, .L168+24
 1567 0120 1A70     		strb	r2, [r3]
 219:Generated_Source\PSoC5/USBUART_std.c ****                         USBUART_currentTD.pData = &USBUART_tBuffer[0u];
 1568              		.loc 1 219 0
 1569 0122 0022     		movs	r2, #0
 1570 0124 5A70     		strb	r2, [r3, #1]
 220:Generated_Source\PSoC5/USBUART_std.c ****                         
 1571              		.loc 1 220 0
 1572 0126 4B60     		str	r3, [r1, #4]
 222:Generated_Source\PSoC5/USBUART_std.c ****                         break;
 1573              		.loc 1 222 0
 1574 0128 FFF7FEFF 		bl	USBUART_InitControlRead
 1575              	.LVL159:
 223:Generated_Source\PSoC5/USBUART_std.c ****                     case USBUART_RQST_RCPT_DEV:
 1576              		.loc 1 223 0
 1577 012c 10BD     		pop	{r4, pc}
 1578              	.LVL160:
 1579              	.L128:
 225:Generated_Source\PSoC5/USBUART_std.c ****                         USBUART_tBuffer[0u]     = USBUART_deviceStatus;
 1580              		.loc 1 225 0
 1581 012e 5249     		ldr	r1, .L168+4
 1582 0130 0223     		movs	r3, #2
 1583 0132 0B80     		strh	r3, [r1]	@ movhi
 226:Generated_Source\PSoC5/USBUART_std.c ****                         USBUART_tBuffer[1u]     = 0u;
 1584              		.loc 1 226 0
 1585 0134 564B     		ldr	r3, .L168+28
 1586 0136 1A78     		ldrb	r2, [r3]	@ zero_extendqisi2
 1587 0138 D2B2     		uxtb	r2, r2
 1588 013a 544B     		ldr	r3, .L168+24
 1589 013c 1A70     		strb	r2, [r3]
 227:Generated_Source\PSoC5/USBUART_std.c ****                         USBUART_currentTD.pData = &USBUART_tBuffer[0u];
 1590              		.loc 1 227 0
 1591 013e 0022     		movs	r2, #0
 1592 0140 5A70     		strb	r2, [r3, #1]
 228:Generated_Source\PSoC5/USBUART_std.c ****                         
 1593              		.loc 1 228 0
 1594 0142 4B60     		str	r3, [r1, #4]
 230:Generated_Source\PSoC5/USBUART_std.c ****                         break;
 1595              		.loc 1 230 0
 1596 0144 FFF7FEFF 		bl	USBUART_InitControlRead
 1597              	.LVL161:
 231:Generated_Source\PSoC5/USBUART_std.c ****                     default:    /* requestHandled is initialized as FALSE by default */
 1598              		.loc 1 231 0
 1599 0148 10BD     		pop	{r4, pc}
 1600              	.LVL162:
 1601              	.L119:
 238:Generated_Source\PSoC5/USBUART_std.c ****                 USBUART_currentTD.pData = (volatile uint8 *) &USBUART_configuration;
 1602              		.loc 1 238 0
 1603 014a 4B4B     		ldr	r3, .L168+4
 1604              	.LVL163:
 1605 014c 0122     		movs	r2, #1
 1606 014e 1A80     		strh	r2, [r3]	@ movhi
ARM GAS  C:\Users\ingan\AppData\Local\Temp\ccPtKCQI.s 			page 54


 239:Generated_Source\PSoC5/USBUART_std.c ****                 requestHandled  = USBUART_InitControlRead();
 1607              		.loc 1 239 0
 1608 0150 504A     		ldr	r2, .L168+32
 1609 0152 5A60     		str	r2, [r3, #4]
 240:Generated_Source\PSoC5/USBUART_std.c ****                 break;
 1610              		.loc 1 240 0
 1611 0154 FFF7FEFF 		bl	USBUART_InitControlRead
 1612              	.LVL164:
 241:Generated_Source\PSoC5/USBUART_std.c ****                 
 1613              		.loc 1 241 0
 1614 0158 10BD     		pop	{r4, pc}
 1615              	.LVL165:
 1616              	.L120:
 244:Generated_Source\PSoC5/USBUART_std.c ****                 USBUART_currentTD.pData = (volatile uint8 *) &USBUART_interfaceSetting[USBUART_wInd
 1617              		.loc 1 244 0
 1618 015a 474A     		ldr	r2, .L168+4
 1619 015c 0123     		movs	r3, #1
 1620              	.LVL166:
 1621 015e 1380     		strh	r3, [r2]	@ movhi
 245:Generated_Source\PSoC5/USBUART_std.c ****                 requestHandled  = USBUART_InitControlRead();
 1622              		.loc 1 245 0
 1623 0160 444B     		ldr	r3, .L168
 1624 0162 1B79     		ldrb	r3, [r3, #4]	@ zero_extendqisi2
 1625 0164 4C49     		ldr	r1, .L168+36
 1626 0166 0B44     		add	r3, r3, r1
 1627 0168 5360     		str	r3, [r2, #4]
 246:Generated_Source\PSoC5/USBUART_std.c ****                 break;
 1628              		.loc 1 246 0
 1629 016a FFF7FEFF 		bl	USBUART_InitControlRead
 1630              	.LVL167:
 247:Generated_Source\PSoC5/USBUART_std.c ****                 
 1631              		.loc 1 247 0
 1632 016e 10BD     		pop	{r4, pc}
 1633              	.LVL168:
 1634              	.L114:
 256:Generated_Source\PSoC5/USBUART_std.c ****         {
 1635              		.loc 1 256 0
 1636 0170 404A     		ldr	r2, .L168
 1637 0172 5278     		ldrb	r2, [r2, #1]	@ zero_extendqisi2
 1638 0174 013A     		subs	r2, r2, #1
 1639 0176 0A2A     		cmp	r2, #10
 1640 0178 00F2CF80 		bhi	.L152
 1641 017c DFE812F0 		tbh	[pc, r2, lsl #1]
 1642              	.L131:
 1643 0180 4C00     		.2byte	(.L130-.L131)/2
 1644 0182 CD00     		.2byte	(.L152-.L131)/2
 1645 0184 9800     		.2byte	(.L132-.L131)/2
 1646 0186 CD00     		.2byte	(.L152-.L131)/2
 1647 0188 0B00     		.2byte	(.L133-.L131)/2
 1648 018a CD00     		.2byte	(.L152-.L131)/2
 1649 018c CD00     		.2byte	(.L152-.L131)/2
 1650 018e CD00     		.2byte	(.L152-.L131)/2
 1651 0190 1300     		.2byte	(.L134-.L131)/2
 1652 0192 CD00     		.2byte	(.L152-.L131)/2
 1653 0194 3000     		.2byte	(.L135-.L131)/2
 1654              		.p2align 1
 1655              	.L133:
ARM GAS  C:\Users\ingan\AppData\Local\Temp\ccPtKCQI.s 			page 55


 260:Generated_Source\PSoC5/USBUART_std.c ****                 requestHandled = USBUART_InitNoDataControlTransfer();
 1656              		.loc 1 260 0
 1657 0196 374B     		ldr	r3, .L168
 1658              	.LVL169:
 1659 0198 9B78     		ldrb	r3, [r3, #2]	@ zero_extendqisi2
 1660 019a DBB2     		uxtb	r3, r3
 1661 019c 3F4A     		ldr	r2, .L168+40
 1662 019e 1370     		strb	r3, [r2]
 261:Generated_Source\PSoC5/USBUART_std.c ****                 break;
 1663              		.loc 1 261 0
 1664 01a0 FFF7FEFF 		bl	USBUART_InitNoDataControlTransfer
 1665              	.LVL170:
 262:Generated_Source\PSoC5/USBUART_std.c ****                 
 1666              		.loc 1 262 0
 1667 01a4 10BD     		pop	{r4, pc}
 1668              	.LVL171:
 1669              	.L134:
 265:Generated_Source\PSoC5/USBUART_std.c ****                 
 1670              		.loc 1 265 0
 1671 01a6 334B     		ldr	r3, .L168
 1672              	.LVL172:
 1673 01a8 9B78     		ldrb	r3, [r3, #2]	@ zero_extendqisi2
 1674              	.LVL173:
 268:Generated_Source\PSoC5/USBUART_std.c ****                 {
 1675              		.loc 1 268 0
 1676 01aa 03F0FF04 		and	r4, r3, #255
 1677 01ae 1BB1     		cbz	r3, .L136
 270:Generated_Source\PSoC5/USBUART_std.c ****                 }
 1678              		.loc 1 270 0
 1679 01b0 601E     		subs	r0, r4, #1
 1680 01b2 C0B2     		uxtb	r0, r0
 1681 01b4 FFF7FEFF 		bl	USBUART_GetConfigTablePtr
 1682              	.LVL174:
 1683              	.L136:
 274:Generated_Source\PSoC5/USBUART_std.c ****                 {
 1684              		.loc 1 274 0
 1685 01b8 04B1     		cbz	r4, .L137
 274:Generated_Source\PSoC5/USBUART_std.c ****                 {
 1686              		.loc 1 274 0 is_stmt 0 discriminator 1
 1687 01ba 10B9     		cbnz	r0, .L138
 1688              	.L137:
 274:Generated_Source\PSoC5/USBUART_std.c ****                 {
 1689              		.loc 1 274 0 discriminator 3
 1690 01bc 002C     		cmp	r4, #0
 1691 01be 40F0AE80 		bne	.L153
 1692              	.L138:
 277:Generated_Source\PSoC5/USBUART_std.c ****                     {
 1693              		.loc 1 277 0 is_stmt 1
 1694 01c2 344B     		ldr	r3, .L168+32
 1695 01c4 1B78     		ldrb	r3, [r3]	@ zero_extendqisi2
 1696 01c6 DBB2     		uxtb	r3, r3
 1697 01c8 9C42     		cmp	r4, r3
 1698 01ca 06D0     		beq	.L139
 279:Generated_Source\PSoC5/USBUART_std.c ****                         USBUART_configurationChanged = USBUART_TRUE;
 1699              		.loc 1 279 0
 1700 01cc 314B     		ldr	r3, .L168+32
 1701 01ce 1C70     		strb	r4, [r3]
ARM GAS  C:\Users\ingan\AppData\Local\Temp\ccPtKCQI.s 			page 56


 280:Generated_Source\PSoC5/USBUART_std.c ****                         USBUART_Config(USBUART_TRUE);
 1702              		.loc 1 280 0
 1703 01d0 0120     		movs	r0, #1
 1704              	.LVL175:
 1705 01d2 334B     		ldr	r3, .L168+44
 1706 01d4 1870     		strb	r0, [r3]
 281:Generated_Source\PSoC5/USBUART_std.c ****                     }
 1707              		.loc 1 281 0
 1708 01d6 FFF7FEFF 		bl	USBUART_Config
 1709              	.LVL176:
 1710              	.L139:
 283:Generated_Source\PSoC5/USBUART_std.c ****                 }
 1711              		.loc 1 283 0
 1712 01da FFF7FEFF 		bl	USBUART_InitNoDataControlTransfer
 1713              	.LVL177:
 1714 01de 10BD     		pop	{r4, pc}
 1715              	.LVL178:
 1716              	.L135:
 288:Generated_Source\PSoC5/USBUART_std.c ****                 {
 1717              		.loc 1 288 0
 1718 01e0 FFF7FEFF 		bl	USBUART_ValidateAlternateSetting
 1719              	.LVL179:
 1720 01e4 0028     		cmp	r0, #0
 1721 01e6 00F09C80 		beq	.L154
 291:Generated_Source\PSoC5/USBUART_std.c ****                     USBUART_interfaceNumber = (uint8) USBUART_wIndexLoReg;
 1722              		.loc 1 291 0
 1723 01ea 224A     		ldr	r2, .L168
 1724 01ec 1379     		ldrb	r3, [r2, #4]	@ zero_extendqisi2
 1725 01ee DBB2     		uxtb	r3, r3
 1726              	.LVL180:
 292:Generated_Source\PSoC5/USBUART_std.c ****                      
 1727              		.loc 1 292 0
 1728 01f0 1279     		ldrb	r2, [r2, #4]	@ zero_extendqisi2
 1729 01f2 D2B2     		uxtb	r2, r2
 1730 01f4 2B49     		ldr	r1, .L168+48
 1731 01f6 0A70     		strb	r2, [r1]
 295:Generated_Source\PSoC5/USBUART_std.c ****                     {
 1732              		.loc 1 295 0
 1733 01f8 2B4A     		ldr	r2, .L168+52
 1734 01fa D25C     		ldrb	r2, [r2, r3]	@ zero_extendqisi2
 1735 01fc D2B2     		uxtb	r2, r2
 1736 01fe 2649     		ldr	r1, .L168+36
 1737 0200 CB5C     		ldrb	r3, [r1, r3]	@ zero_extendqisi2
 1738              	.LVL181:
 1739 0202 DBB2     		uxtb	r3, r3
 1740 0204 9A42     		cmp	r2, r3
 1741 0206 04D0     		beq	.L140
 297:Generated_Source\PSoC5/USBUART_std.c ****                     
 1742              		.loc 1 297 0
 1743 0208 0122     		movs	r2, #1
 1744 020a 254B     		ldr	r3, .L168+44
 1745 020c 1A70     		strb	r2, [r3]
 303:Generated_Source\PSoC5/USBUART_std.c ****                     #endif /* (USBUART_EP_MANAGEMENT_MANUAL && USBUART_EP_ALLOC_DYNAMIC) */
 1746              		.loc 1 303 0
 1747 020e FFF7FEFF 		bl	USBUART_ConfigAltChanged
 1748              	.LVL182:
 1749              	.L140:
ARM GAS  C:\Users\ingan\AppData\Local\Temp\ccPtKCQI.s 			page 57


 307:Generated_Source\PSoC5/USBUART_std.c ****                 }
 1750              		.loc 1 307 0
 1751 0212 FFF7FEFF 		bl	USBUART_InitNoDataControlTransfer
 1752              	.LVL183:
 1753 0216 10BD     		pop	{r4, pc}
 1754              	.LVL184:
 1755              	.L130:
 312:Generated_Source\PSoC5/USBUART_std.c ****                 {
 1756              		.loc 1 312 0
 1757 0218 03F00303 		and	r3, r3, #3
 1758              	.LVL185:
 1759 021c 012B     		cmp	r3, #1
 1760 021e 17D0     		beq	.L141
 1761 0220 4BB1     		cbz	r3, .L142
 1762 0222 022B     		cmp	r3, #2
 1763 0224 7FD1     		bne	.L165
 315:Generated_Source\PSoC5/USBUART_std.c ****                         {
 1764              		.loc 1 315 0
 1765 0226 134B     		ldr	r3, .L168
 1766 0228 9B78     		ldrb	r3, [r3, #2]	@ zero_extendqisi2
 1767 022a 13F0FF0F 		tst	r3, #255
 1768 022e 7CD1     		bne	.L156
 317:Generated_Source\PSoC5/USBUART_std.c ****                         }
 1769              		.loc 1 317 0
 1770 0230 FFF7FEFF 		bl	USBUART_ClearEndpointHalt
 1771              	.LVL186:
 1772 0234 10BD     		pop	{r4, pc}
 1773              	.LVL187:
 1774              	.L142:
 322:Generated_Source\PSoC5/USBUART_std.c ****                         {
 1775              		.loc 1 322 0
 1776 0236 0F4B     		ldr	r3, .L168
 1777 0238 9B78     		ldrb	r3, [r3, #2]	@ zero_extendqisi2
 1778 023a DBB2     		uxtb	r3, r3
 1779 023c 012B     		cmp	r3, #1
 1780 023e 76D1     		bne	.L157
 324:Generated_Source\PSoC5/USBUART_std.c ****                             requestHandled = USBUART_InitNoDataControlTransfer();
 1781              		.loc 1 324 0
 1782 0240 134A     		ldr	r2, .L168+28
 1783 0242 1378     		ldrb	r3, [r2]	@ zero_extendqisi2
 1784 0244 03F0FD03 		and	r3, r3, #253
 1785 0248 1370     		strb	r3, [r2]
 325:Generated_Source\PSoC5/USBUART_std.c ****                         }
 1786              		.loc 1 325 0
 1787 024a FFF7FEFF 		bl	USBUART_InitNoDataControlTransfer
 1788              	.LVL188:
 1789 024e 10BD     		pop	{r4, pc}
 1790              	.LVL189:
 1791              	.L141:
 330:Generated_Source\PSoC5/USBUART_std.c ****                         {
 1792              		.loc 1 330 0
 1793 0250 084B     		ldr	r3, .L168
 1794 0252 1B79     		ldrb	r3, [r3, #4]	@ zero_extendqisi2
 1795 0254 DBB2     		uxtb	r3, r3
 1796 0256 012B     		cmp	r3, #1
 1797 0258 6BD8     		bhi	.L158
 332:Generated_Source\PSoC5/USBUART_std.c ****                             requestHandled = USBUART_InitNoDataControlTransfer();
ARM GAS  C:\Users\ingan\AppData\Local\Temp\ccPtKCQI.s 			page 58


 1798              		.loc 1 332 0
 1799 025a 064B     		ldr	r3, .L168
 1800 025c 9878     		ldrb	r0, [r3, #2]	@ zero_extendqisi2
 1801 025e 1B79     		ldrb	r3, [r3, #4]	@ zero_extendqisi2
 1802 0260 DBB2     		uxtb	r3, r3
 1803 0262 1249     		ldr	r1, .L168+56
 1804 0264 CA5C     		ldrb	r2, [r1, r3]	@ zero_extendqisi2
 1805 0266 22EA0002 		bic	r2, r2, r0
 1806 026a CA54     		strb	r2, [r1, r3]
 333:Generated_Source\PSoC5/USBUART_std.c ****                         }
 1807              		.loc 1 333 0
 1808 026c FFF7FEFF 		bl	USBUART_InitNoDataControlTransfer
 1809              	.LVL190:
 1810 0270 10BD     		pop	{r4, pc}
 1811              	.L169:
 1812 0272 00BF     		.align	2
 1813              	.L168:
 1814 0274 00600040 		.word	1073766400
 1815 0278 00000000 		.word	USBUART_currentTD
 1816 027c 00000000 		.word	USBUART_STRING_DESCRIPTORS
 1817 0280 00000000 		.word	USBUART_DEVICE0_DESCR
 1818 0284 00000000 		.word	USBUART_idSerialNumberStringDescriptor
 1819 0288 00000000 		.word	USBUART_EP
 1820 028c 00000000 		.word	.LANCHOR0
 1821 0290 00000000 		.word	USBUART_deviceStatus
 1822 0294 00000000 		.word	USBUART_configuration
 1823 0298 00000000 		.word	USBUART_interfaceSetting
 1824 029c 00000000 		.word	USBUART_deviceAddress
 1825 02a0 00000000 		.word	USBUART_configurationChanged
 1826 02a4 00000000 		.word	USBUART_interfaceNumber
 1827 02a8 00000000 		.word	USBUART_interfaceSettingLast
 1828 02ac 00000000 		.word	USBUART_interfaceStatus
 1829              	.LVL191:
 1830              	.L132:
 342:Generated_Source\PSoC5/USBUART_std.c ****                 {
 1831              		.loc 1 342 0
 1832 02b0 03F00303 		and	r3, r3, #3
 1833              	.LVL192:
 1834 02b4 012B     		cmp	r3, #1
 1835 02b6 17D0     		beq	.L144
 1836 02b8 4BB1     		cbz	r3, .L145
 1837 02ba 022B     		cmp	r3, #2
 1838 02bc 3BD1     		bne	.L166
 345:Generated_Source\PSoC5/USBUART_std.c ****                         {
 1839              		.loc 1 345 0
 1840 02be 224B     		ldr	r3, .L170
 1841 02c0 9B78     		ldrb	r3, [r3, #2]	@ zero_extendqisi2
 1842 02c2 13F0FF0F 		tst	r3, #255
 1843 02c6 38D1     		bne	.L160
 347:Generated_Source\PSoC5/USBUART_std.c ****                         }
 1844              		.loc 1 347 0
 1845 02c8 FFF7FEFF 		bl	USBUART_SetEndpointHalt
 1846              	.LVL193:
 1847 02cc 10BD     		pop	{r4, pc}
 1848              	.LVL194:
 1849              	.L145:
 353:Generated_Source\PSoC5/USBUART_std.c ****                         {
ARM GAS  C:\Users\ingan\AppData\Local\Temp\ccPtKCQI.s 			page 59


 1850              		.loc 1 353 0
 1851 02ce 1E4B     		ldr	r3, .L170
 1852 02d0 9B78     		ldrb	r3, [r3, #2]	@ zero_extendqisi2
 1853 02d2 DBB2     		uxtb	r3, r3
 1854 02d4 012B     		cmp	r3, #1
 1855 02d6 32D1     		bne	.L161
 355:Generated_Source\PSoC5/USBUART_std.c ****                             requestHandled = USBUART_InitNoDataControlTransfer();
 1856              		.loc 1 355 0
 1857 02d8 1C4A     		ldr	r2, .L170+4
 1858 02da 1378     		ldrb	r3, [r2]	@ zero_extendqisi2
 1859 02dc 43F00203 		orr	r3, r3, #2
 1860 02e0 1370     		strb	r3, [r2]
 356:Generated_Source\PSoC5/USBUART_std.c ****                         }
 1861              		.loc 1 356 0
 1862 02e2 FFF7FEFF 		bl	USBUART_InitNoDataControlTransfer
 1863              	.LVL195:
 1864 02e6 10BD     		pop	{r4, pc}
 1865              	.LVL196:
 1866              	.L144:
 362:Generated_Source\PSoC5/USBUART_std.c ****                         {
 1867              		.loc 1 362 0
 1868 02e8 174B     		ldr	r3, .L170
 1869 02ea 1B79     		ldrb	r3, [r3, #4]	@ zero_extendqisi2
 1870 02ec DBB2     		uxtb	r3, r3
 1871 02ee 012B     		cmp	r3, #1
 1872 02f0 27D8     		bhi	.L162
 364:Generated_Source\PSoC5/USBUART_std.c ****                             requestHandled = USBUART_InitNoDataControlTransfer();
 1873              		.loc 1 364 0
 1874 02f2 154B     		ldr	r3, .L170
 1875 02f4 9878     		ldrb	r0, [r3, #2]	@ zero_extendqisi2
 1876 02f6 1B79     		ldrb	r3, [r3, #4]	@ zero_extendqisi2
 1877 02f8 DBB2     		uxtb	r3, r3
 1878 02fa 1549     		ldr	r1, .L170+8
 1879 02fc CA5C     		ldrb	r2, [r1, r3]	@ zero_extendqisi2
 1880 02fe 22EA0002 		bic	r2, r2, r0
 1881 0302 CA54     		strb	r2, [r1, r3]
 365:Generated_Source\PSoC5/USBUART_std.c ****                         }
 1882              		.loc 1 365 0
 1883 0304 FFF7FEFF 		bl	USBUART_InitNoDataControlTransfer
 1884              	.LVL197:
 1885 0308 10BD     		pop	{r4, pc}
 1886              	.LVL198:
 1887              	.L147:
  86:Generated_Source\PSoC5/USBUART_std.c ****     uint8 interfaceNumber;
 1888              		.loc 1 86 0
 1889 030a 0020     		movs	r0, #0
 1890 030c 10BD     		pop	{r4, pc}
 1891              	.LVL199:
 1892              	.L148:
 1893 030e 0020     		movs	r0, #0
 1894              	.LVL200:
 1895 0310 10BD     		pop	{r4, pc}
 1896              	.LVL201:
 1897              	.L150:
 1898 0312 0020     		movs	r0, #0
 1899 0314 10BD     		pop	{r4, pc}
 1900              	.LVL202:
ARM GAS  C:\Users\ingan\AppData\Local\Temp\ccPtKCQI.s 			page 60


 1901              	.L164:
 1902 0316 0020     		movs	r0, #0
 1903 0318 10BD     		pop	{r4, pc}
 1904              	.LVL203:
 1905              	.L152:
 1906 031a 0020     		movs	r0, #0
 1907 031c 10BD     		pop	{r4, pc}
 1908              	.LVL204:
 1909              	.L153:
 1910 031e 0020     		movs	r0, #0
 1911              	.LVL205:
 1912 0320 10BD     		pop	{r4, pc}
 1913              	.L154:
 1914 0322 0020     		movs	r0, #0
 1915 0324 10BD     		pop	{r4, pc}
 1916              	.L165:
 1917 0326 0020     		movs	r0, #0
 1918 0328 10BD     		pop	{r4, pc}
 1919              	.L156:
 1920 032a 0020     		movs	r0, #0
 1921 032c 10BD     		pop	{r4, pc}
 1922              	.L157:
 1923 032e 0020     		movs	r0, #0
 1924 0330 10BD     		pop	{r4, pc}
 1925              	.L158:
 1926 0332 0020     		movs	r0, #0
 1927 0334 10BD     		pop	{r4, pc}
 1928              	.L166:
 1929 0336 0020     		movs	r0, #0
 1930 0338 10BD     		pop	{r4, pc}
 1931              	.L160:
 1932 033a 0020     		movs	r0, #0
 1933 033c 10BD     		pop	{r4, pc}
 1934              	.L161:
 1935 033e 0020     		movs	r0, #0
 1936 0340 10BD     		pop	{r4, pc}
 1937              	.L162:
 1938 0342 0020     		movs	r0, #0
 1939              	.LVL206:
 380:Generated_Source\PSoC5/USBUART_std.c **** 
 1940              		.loc 1 380 0
 1941 0344 10BD     		pop	{r4, pc}
 1942              	.L171:
 1943 0346 00BF     		.align	2
 1944              	.L170:
 1945 0348 00600040 		.word	1073766400
 1946 034c 00000000 		.word	USBUART_deviceStatus
 1947 0350 00000000 		.word	USBUART_interfaceStatus
 1948              		.cfi_endproc
 1949              	.LFE0:
 1950              		.size	USBUART_HandleStandardRqst, .-USBUART_HandleStandardRqst
 1951              		.section	.rodata.str1.4,"aMS",%progbits,1
 1952              		.align	2
 1953              	.LC0:
 1954 0000 30313233 		.ascii	"0123456789ABCDEF\000"
 1954      34353637 
 1954      38394142 
ARM GAS  C:\Users\ingan\AppData\Local\Temp\ccPtKCQI.s 			page 61


 1954      43444546 
 1954      00
 1955              		.bss
 1956              		.align	2
 1957              		.set	.LANCHOR0,. + 0
 1958              		.type	USBUART_tBuffer.5380, %object
 1959              		.size	USBUART_tBuffer.5380, 2
 1960              	USBUART_tBuffer.5380:
 1961 0000 0000     		.space	2
 1962              		.text
 1963              	.Letext0:
 1964              		.file 2 "Generated_Source\\PSoC5\\cytypes.h"
 1965              		.file 3 "Generated_Source\\PSoC5\\USBUART.h"
 1966              		.file 4 "Generated_Source\\PSoC5\\USBUART_pvt.h"
 1967              		.file 5 "Generated_Source\\PSoC5\\CyLib.h"