ARM GAS  C:\Users\ingan\AppData\Local\Temp\ccPtKCQI.s 			page 1


   1              		.syntax unified
   2              		.cpu cortex-m3
   3              		.fpu softvfp
   4              		.eabi_attribute 20, 1
   5              		.eabi_attribute 21, 1
   6              		.eabi_attribute 23, 3
   7              		.eabi_attribute 24, 1
   8              		.eabi_attribute 25, 1
   9              		.eabi_attribute 26, 1
  10              		.eabi_attribute 30, 1
  11              		.eabi_attribute 34, 1
  12              		.eabi_attribute 18, 4
  13              		.thumb
  14              		.syntax unified
  15              		.file	"USBUART_std.c"
  16              		.text
  17              	.Ltext0:
  18              		.cfi_sections	.debug_frame
  19              		.section	.text.USBUART_ReadDieID,"ax",%progbits
  20              		.align	2
  21              		.global	USBUART_ReadDieID
  22              		.thumb
  23              		.thumb_func
  24              		.type	USBUART_ReadDieID, %function
  25              	USBUART_ReadDieID:
  26              	.LFB1:
  27              		.file 1 "Generated_Source\\PSoC5\\USBUART_std.c"
   1:Generated_Source\PSoC5/USBUART_std.c **** /***************************************************************************//**
   2:Generated_Source\PSoC5/USBUART_std.c **** * \file USBUART_std.c
   3:Generated_Source\PSoC5/USBUART_std.c **** * \version 3.20
   4:Generated_Source\PSoC5/USBUART_std.c **** *
   5:Generated_Source\PSoC5/USBUART_std.c **** * \brief
   6:Generated_Source\PSoC5/USBUART_std.c **** *  This file contains the USB Standard request handler.
   7:Generated_Source\PSoC5/USBUART_std.c **** *
   8:Generated_Source\PSoC5/USBUART_std.c **** ********************************************************************************
   9:Generated_Source\PSoC5/USBUART_std.c **** * \copyright
  10:Generated_Source\PSoC5/USBUART_std.c **** * Copyright 2008-2016, Cypress Semiconductor Corporation.  All rights reserved.
  11:Generated_Source\PSoC5/USBUART_std.c **** * You may use this file only in accordance with the license, terms, conditions,
  12:Generated_Source\PSoC5/USBUART_std.c **** * disclaimers, and limitations in the end user license agreement accompanying
  13:Generated_Source\PSoC5/USBUART_std.c **** * the software package with which this file was provided.
  14:Generated_Source\PSoC5/USBUART_std.c **** *******************************************************************************/
  15:Generated_Source\PSoC5/USBUART_std.c **** 
  16:Generated_Source\PSoC5/USBUART_std.c **** #include "USBUART_pvt.h"
  17:Generated_Source\PSoC5/USBUART_std.c **** 
  18:Generated_Source\PSoC5/USBUART_std.c **** /***************************************
  19:Generated_Source\PSoC5/USBUART_std.c **** *   Static data allocation
  20:Generated_Source\PSoC5/USBUART_std.c **** ***************************************/
  21:Generated_Source\PSoC5/USBUART_std.c **** 
  22:Generated_Source\PSoC5/USBUART_std.c **** #if defined(USBUART_ENABLE_FWSN_STRING)
  23:Generated_Source\PSoC5/USBUART_std.c ****     static volatile uint8* USBUART_fwSerialNumberStringDescriptor;
  24:Generated_Source\PSoC5/USBUART_std.c ****     static volatile uint8  USBUART_snStringConfirm = USBUART_FALSE;
  25:Generated_Source\PSoC5/USBUART_std.c **** #endif  /* (USBUART_ENABLE_FWSN_STRING) */
  26:Generated_Source\PSoC5/USBUART_std.c **** 
  27:Generated_Source\PSoC5/USBUART_std.c **** #if defined(USBUART_ENABLE_FWSN_STRING)
  28:Generated_Source\PSoC5/USBUART_std.c ****     /***************************************************************************
  29:Generated_Source\PSoC5/USBUART_std.c ****     * Function Name: USBUART_SerialNumString
  30:Generated_Source\PSoC5/USBUART_std.c ****     ************************************************************************//**
ARM GAS  C:\Users\ingan\AppData\Local\Temp\ccPtKCQI.s 			page 2


  31:Generated_Source\PSoC5/USBUART_std.c ****     *
  32:Generated_Source\PSoC5/USBUART_std.c ****     *  This function is available only when the User Call Back option in the 
  33:Generated_Source\PSoC5/USBUART_std.c ****     *  Serial Number String descriptor properties is selected. Application 
  34:Generated_Source\PSoC5/USBUART_std.c ****     *  firmware can provide the source of the USB device serial number string 
  35:Generated_Source\PSoC5/USBUART_std.c ****     *  descriptor during run time. The default string is used if the application 
  36:Generated_Source\PSoC5/USBUART_std.c ****     *  firmware does not use this function or sets the wrong string descriptor.
  37:Generated_Source\PSoC5/USBUART_std.c ****     *
  38:Generated_Source\PSoC5/USBUART_std.c ****     *  \param snString:  Pointer to the user-defined string descriptor. The 
  39:Generated_Source\PSoC5/USBUART_std.c ****     *  string descriptor should meet the Universal Serial Bus Specification 
  40:Generated_Source\PSoC5/USBUART_std.c ****     *  revision 2.0 chapter 9.6.7
  41:Generated_Source\PSoC5/USBUART_std.c ****     *  Offset|Size|Value|Description
  42:Generated_Source\PSoC5/USBUART_std.c ****     *  ------|----|------|---------------------------------
  43:Generated_Source\PSoC5/USBUART_std.c ****     *  0     |1   |N     |Size of this descriptor in bytes
  44:Generated_Source\PSoC5/USBUART_std.c ****     *  1     |1   |0x03  |STRING Descriptor Type
  45:Generated_Source\PSoC5/USBUART_std.c ****     *  2     |N-2 |Number|UNICODE encoded string
  46:Generated_Source\PSoC5/USBUART_std.c ****     *  
  47:Generated_Source\PSoC5/USBUART_std.c ****     * *For example:* uint8 snString[16]={0x0E,0x03,'F',0,'W',0,'S',0,'N',0,'0',0,'1',0};
  48:Generated_Source\PSoC5/USBUART_std.c ****     *
  49:Generated_Source\PSoC5/USBUART_std.c ****     * \reentrant
  50:Generated_Source\PSoC5/USBUART_std.c ****     *  No.
  51:Generated_Source\PSoC5/USBUART_std.c ****     *
  52:Generated_Source\PSoC5/USBUART_std.c ****     ***************************************************************************/
  53:Generated_Source\PSoC5/USBUART_std.c ****     void  USBUART_SerialNumString(uint8 snString[]) 
  54:Generated_Source\PSoC5/USBUART_std.c ****     {
  55:Generated_Source\PSoC5/USBUART_std.c ****         USBUART_snStringConfirm = USBUART_FALSE;
  56:Generated_Source\PSoC5/USBUART_std.c ****         
  57:Generated_Source\PSoC5/USBUART_std.c ****         if (snString != NULL)
  58:Generated_Source\PSoC5/USBUART_std.c ****         {
  59:Generated_Source\PSoC5/USBUART_std.c ****             /* Check descriptor validation */
  60:Generated_Source\PSoC5/USBUART_std.c ****             if ((snString[0u] > 1u) && (snString[1u] == USBUART_DESCR_STRING))
  61:Generated_Source\PSoC5/USBUART_std.c ****             {
  62:Generated_Source\PSoC5/USBUART_std.c ****                 USBUART_fwSerialNumberStringDescriptor = snString;
  63:Generated_Source\PSoC5/USBUART_std.c ****                 USBUART_snStringConfirm = USBUART_TRUE;
  64:Generated_Source\PSoC5/USBUART_std.c ****             }
  65:Generated_Source\PSoC5/USBUART_std.c ****         }
  66:Generated_Source\PSoC5/USBUART_std.c ****     }
  67:Generated_Source\PSoC5/USBUART_std.c **** #endif  /* USBUART_ENABLE_FWSN_STRING */
  68:Generated_Source\PSoC5/USBUART_std.c **** 
  69:Generated_Source\PSoC5/USBUART_std.c **** 
  70:Generated_Source\PSoC5/USBUART_std.c **** /*******************************************************************************
  71:Generated_Source\PSoC5/USBUART_std.c **** * Function Name: USBUART_HandleStandardRqst
  72:Generated_Source\PSoC5/USBUART_std.c **** ****************************************************************************//**
  73:Generated_Source\PSoC5/USBUART_std.c **** *
  74:Generated_Source\PSoC5/USBUART_std.c **** *  This Routine dispatches standard requests
  75:Generated_Source\PSoC5/USBUART_std.c **** *
  76:Generated_Source\PSoC5/USBUART_std.c **** *
  77:Generated_Source\PSoC5/USBUART_std.c **** * \return
  78:Generated_Source\PSoC5/USBUART_std.c **** *  TRUE if request handled.
  79:Generated_Source\PSoC5/USBUART_std.c **** *
  80:Generated_Source\PSoC5/USBUART_std.c **** * \reentrant
  81:Generated_Source\PSoC5/USBUART_std.c **** *  No.
  82:Generated_Source\PSoC5/USBUART_std.c **** *
  83:Generated_Source\PSoC5/USBUART_std.c **** *******************************************************************************/
  84:Generated_Source\PSoC5/USBUART_std.c **** uint8 USBUART_HandleStandardRqst(void) 
  85:Generated_Source\PSoC5/USBUART_std.c **** {
  86:Generated_Source\PSoC5/USBUART_std.c ****     uint8 requestHandled = USBUART_FALSE;
  87:Generated_Source\PSoC5/USBUART_std.c ****     uint8 interfaceNumber;
ARM GAS  C:\Users\ingan\AppData\Local\Temp\ccPtKCQI.s 			page 3


  88:Generated_Source\PSoC5/USBUART_std.c ****     uint8 configurationN;
  89:Generated_Source\PSoC5/USBUART_std.c ****     uint8 bmRequestType = USBUART_bmRequestTypeReg;
  90:Generated_Source\PSoC5/USBUART_std.c **** 
  91:Generated_Source\PSoC5/USBUART_std.c **** #if defined(USBUART_ENABLE_STRINGS)
  92:Generated_Source\PSoC5/USBUART_std.c ****     volatile uint8 *pStr = 0u;
  93:Generated_Source\PSoC5/USBUART_std.c ****     #if defined(USBUART_ENABLE_DESCRIPTOR_STRINGS)
  94:Generated_Source\PSoC5/USBUART_std.c ****         uint8 nStr;
  95:Generated_Source\PSoC5/USBUART_std.c ****         uint8 descrLength;
  96:Generated_Source\PSoC5/USBUART_std.c ****     #endif /* (USBUART_ENABLE_DESCRIPTOR_STRINGS) */
  97:Generated_Source\PSoC5/USBUART_std.c **** #endif /* (USBUART_ENABLE_STRINGS) */
  98:Generated_Source\PSoC5/USBUART_std.c ****     
  99:Generated_Source\PSoC5/USBUART_std.c ****     static volatile uint8 USBUART_tBuffer[USBUART_STATUS_LENGTH_MAX];
 100:Generated_Source\PSoC5/USBUART_std.c ****     const T_USBUART_LUT CYCODE *pTmp;
 101:Generated_Source\PSoC5/USBUART_std.c **** 
 102:Generated_Source\PSoC5/USBUART_std.c ****     USBUART_currentTD.count = 0u;
 103:Generated_Source\PSoC5/USBUART_std.c **** 
 104:Generated_Source\PSoC5/USBUART_std.c ****     if (USBUART_RQST_DIR_D2H == (bmRequestType & USBUART_RQST_DIR_MASK))
 105:Generated_Source\PSoC5/USBUART_std.c ****     {
 106:Generated_Source\PSoC5/USBUART_std.c ****         /* Control Read */
 107:Generated_Source\PSoC5/USBUART_std.c ****         switch (USBUART_bRequestReg)
 108:Generated_Source\PSoC5/USBUART_std.c ****         {
 109:Generated_Source\PSoC5/USBUART_std.c ****             case USBUART_GET_DESCRIPTOR:
 110:Generated_Source\PSoC5/USBUART_std.c ****                 if (USBUART_DESCR_DEVICE ==USBUART_wValueHiReg)
 111:Generated_Source\PSoC5/USBUART_std.c ****                 {
 112:Generated_Source\PSoC5/USBUART_std.c ****                     pTmp = USBUART_GetDeviceTablePtr();
 113:Generated_Source\PSoC5/USBUART_std.c ****                     USBUART_currentTD.pData = (volatile uint8 *)pTmp->p_list;
 114:Generated_Source\PSoC5/USBUART_std.c ****                     USBUART_currentTD.count = USBUART_DEVICE_DESCR_LENGTH;
 115:Generated_Source\PSoC5/USBUART_std.c ****                     
 116:Generated_Source\PSoC5/USBUART_std.c ****                     requestHandled  = USBUART_InitControlRead();
 117:Generated_Source\PSoC5/USBUART_std.c ****                 }
 118:Generated_Source\PSoC5/USBUART_std.c ****                 else if (USBUART_DESCR_CONFIG == USBUART_wValueHiReg)
 119:Generated_Source\PSoC5/USBUART_std.c ****                 {
 120:Generated_Source\PSoC5/USBUART_std.c ****                     pTmp = USBUART_GetConfigTablePtr((uint8) USBUART_wValueLoReg);
 121:Generated_Source\PSoC5/USBUART_std.c ****                     
 122:Generated_Source\PSoC5/USBUART_std.c ****                     /* Verify that requested descriptor exists */
 123:Generated_Source\PSoC5/USBUART_std.c ****                     if (pTmp != NULL)
 124:Generated_Source\PSoC5/USBUART_std.c ****                     {
 125:Generated_Source\PSoC5/USBUART_std.c ****                         USBUART_currentTD.pData = (volatile uint8 *)pTmp->p_list;
 126:Generated_Source\PSoC5/USBUART_std.c ****                         USBUART_currentTD.count = (uint16)((uint16)(USBUART_currentTD.pData)[USBUAR
 127:Generated_Source\PSoC5/USBUART_std.c ****                                                                             (USBUART_currentTD.pDat
 128:Generated_Source\PSoC5/USBUART_std.c ****                         requestHandled  = USBUART_InitControlRead();
 129:Generated_Source\PSoC5/USBUART_std.c ****                     }
 130:Generated_Source\PSoC5/USBUART_std.c ****                 }
 131:Generated_Source\PSoC5/USBUART_std.c ****                 
 132:Generated_Source\PSoC5/USBUART_std.c ****             #if(USBUART_BOS_ENABLE)
 133:Generated_Source\PSoC5/USBUART_std.c ****                 else if (USBUART_DESCR_BOS == USBUART_wValueHiReg)
 134:Generated_Source\PSoC5/USBUART_std.c ****                 {
 135:Generated_Source\PSoC5/USBUART_std.c ****                     pTmp = USBUART_GetBOSPtr();
 136:Generated_Source\PSoC5/USBUART_std.c ****                     
 137:Generated_Source\PSoC5/USBUART_std.c ****                     /* Verify that requested descriptor exists */
 138:Generated_Source\PSoC5/USBUART_std.c ****                     if (pTmp != NULL)
 139:Generated_Source\PSoC5/USBUART_std.c ****                     {
 140:Generated_Source\PSoC5/USBUART_std.c ****                         USBUART_currentTD.pData = (volatile uint8 *)pTmp;
 141:Generated_Source\PSoC5/USBUART_std.c ****                         USBUART_currentTD.count = ((uint16)((uint16)(USBUART_currentTD.pData)[USBUA
 142:Generated_Source\PSoC5/USBUART_std.c ****                                                                              (USBUART_currentTD.pDa
 143:Generated_Source\PSoC5/USBUART_std.c ****                         requestHandled  = USBUART_InitControlRead();
 144:Generated_Source\PSoC5/USBUART_std.c ****                     }
ARM GAS  C:\Users\ingan\AppData\Local\Temp\ccPtKCQI.s 			page 4


 145:Generated_Source\PSoC5/USBUART_std.c ****                 }
 146:Generated_Source\PSoC5/USBUART_std.c ****             #endif /*(USBUART_BOS_ENABLE)*/
 147:Generated_Source\PSoC5/USBUART_std.c ****             
 148:Generated_Source\PSoC5/USBUART_std.c ****             #if defined(USBUART_ENABLE_STRINGS)
 149:Generated_Source\PSoC5/USBUART_std.c ****                 else if (USBUART_DESCR_STRING == USBUART_wValueHiReg)
 150:Generated_Source\PSoC5/USBUART_std.c ****                 {
 151:Generated_Source\PSoC5/USBUART_std.c ****                 /* Descriptor Strings */
 152:Generated_Source\PSoC5/USBUART_std.c ****                 #if defined(USBUART_ENABLE_DESCRIPTOR_STRINGS)
 153:Generated_Source\PSoC5/USBUART_std.c ****                     nStr = 0u;
 154:Generated_Source\PSoC5/USBUART_std.c ****                     pStr = (volatile uint8 *) &USBUART_STRING_DESCRIPTORS[0u];
 155:Generated_Source\PSoC5/USBUART_std.c ****                     
 156:Generated_Source\PSoC5/USBUART_std.c ****                     while ((USBUART_wValueLoReg > nStr) && (*pStr != 0u))
 157:Generated_Source\PSoC5/USBUART_std.c ****                     {
 158:Generated_Source\PSoC5/USBUART_std.c ****                         /* Read descriptor length from 1st byte */
 159:Generated_Source\PSoC5/USBUART_std.c ****                         descrLength = *pStr;
 160:Generated_Source\PSoC5/USBUART_std.c ****                         /* Move to next string descriptor */
 161:Generated_Source\PSoC5/USBUART_std.c ****                         pStr = &pStr[descrLength];
 162:Generated_Source\PSoC5/USBUART_std.c ****                         nStr++;
 163:Generated_Source\PSoC5/USBUART_std.c ****                     }
 164:Generated_Source\PSoC5/USBUART_std.c ****                 #endif /* (USBUART_ENABLE_DESCRIPTOR_STRINGS) */
 165:Generated_Source\PSoC5/USBUART_std.c ****                 
 166:Generated_Source\PSoC5/USBUART_std.c ****                 /* Microsoft OS String */
 167:Generated_Source\PSoC5/USBUART_std.c ****                 #if defined(USBUART_ENABLE_MSOS_STRING)
 168:Generated_Source\PSoC5/USBUART_std.c ****                     if (USBUART_STRING_MSOS == USBUART_wValueLoReg)
 169:Generated_Source\PSoC5/USBUART_std.c ****                     {
 170:Generated_Source\PSoC5/USBUART_std.c ****                         pStr = (volatile uint8 *)& USBUART_MSOS_DESCRIPTOR[0u];
 171:Generated_Source\PSoC5/USBUART_std.c ****                     }
 172:Generated_Source\PSoC5/USBUART_std.c ****                 #endif /* (USBUART_ENABLE_MSOS_STRING) */
 173:Generated_Source\PSoC5/USBUART_std.c ****                 
 174:Generated_Source\PSoC5/USBUART_std.c ****                 /* SN string */
 175:Generated_Source\PSoC5/USBUART_std.c ****                 #if defined(USBUART_ENABLE_SN_STRING)
 176:Generated_Source\PSoC5/USBUART_std.c ****                     if ((USBUART_wValueLoReg != 0u) && 
 177:Generated_Source\PSoC5/USBUART_std.c ****                         (USBUART_wValueLoReg == USBUART_DEVICE0_DESCR[USBUART_DEVICE_DESCR_SN_SHIFT
 178:Generated_Source\PSoC5/USBUART_std.c ****                     {
 179:Generated_Source\PSoC5/USBUART_std.c ****                     #if defined(USBUART_ENABLE_IDSN_STRING)
 180:Generated_Source\PSoC5/USBUART_std.c ****                         /* Read DIE ID and generate string descriptor in RAM */
 181:Generated_Source\PSoC5/USBUART_std.c ****                         USBUART_ReadDieID(USBUART_idSerialNumberStringDescriptor);
 182:Generated_Source\PSoC5/USBUART_std.c ****                         pStr = USBUART_idSerialNumberStringDescriptor;
 183:Generated_Source\PSoC5/USBUART_std.c ****                     #elif defined(USBUART_ENABLE_FWSN_STRING)
 184:Generated_Source\PSoC5/USBUART_std.c ****                         
 185:Generated_Source\PSoC5/USBUART_std.c ****                         if(USBUART_snStringConfirm != USBUART_FALSE)
 186:Generated_Source\PSoC5/USBUART_std.c ****                         {
 187:Generated_Source\PSoC5/USBUART_std.c ****                             pStr = USBUART_fwSerialNumberStringDescriptor;
 188:Generated_Source\PSoC5/USBUART_std.c ****                         }
 189:Generated_Source\PSoC5/USBUART_std.c ****                         else
 190:Generated_Source\PSoC5/USBUART_std.c ****                         {
 191:Generated_Source\PSoC5/USBUART_std.c ****                             pStr = (volatile uint8 *)&USBUART_SN_STRING_DESCRIPTOR[0u];
 192:Generated_Source\PSoC5/USBUART_std.c ****                         }
 193:Generated_Source\PSoC5/USBUART_std.c ****                     #else
 194:Generated_Source\PSoC5/USBUART_std.c ****                         pStr = (volatile uint8 *)&USBUART_SN_STRING_DESCRIPTOR[0u];
 195:Generated_Source\PSoC5/USBUART_std.c ****                     #endif  /* (USBUART_ENABLE_IDSN_STRING) */
 196:Generated_Source\PSoC5/USBUART_std.c ****                     }
 197:Generated_Source\PSoC5/USBUART_std.c ****                 #endif /* (USBUART_ENABLE_SN_STRING) */
 198:Generated_Source\PSoC5/USBUART_std.c ****                 
 199:Generated_Source\PSoC5/USBUART_std.c ****                     if (*pStr != 0u)
 200:Generated_Source\PSoC5/USBUART_std.c ****                     {
 201:Generated_Source\PSoC5/USBUART_std.c ****                         USBUART_currentTD.count = *pStr;
ARM GAS  C:\Users\ingan\AppData\Local\Temp\ccPtKCQI.s 			page 5


 202:Generated_Source\PSoC5/USBUART_std.c ****                         USBUART_currentTD.pData = pStr;
 203:Generated_Source\PSoC5/USBUART_std.c ****                         requestHandled  = USBUART_InitControlRead();
 204:Generated_Source\PSoC5/USBUART_std.c ****                     }
 205:Generated_Source\PSoC5/USBUART_std.c ****                 }
 206:Generated_Source\PSoC5/USBUART_std.c ****             #endif /*  USBUART_ENABLE_STRINGS */
 207:Generated_Source\PSoC5/USBUART_std.c ****                 else
 208:Generated_Source\PSoC5/USBUART_std.c ****                 {
 209:Generated_Source\PSoC5/USBUART_std.c ****                     requestHandled = USBUART_DispatchClassRqst();
 210:Generated_Source\PSoC5/USBUART_std.c ****                 }
 211:Generated_Source\PSoC5/USBUART_std.c ****                 break;
 212:Generated_Source\PSoC5/USBUART_std.c ****                 
 213:Generated_Source\PSoC5/USBUART_std.c ****             case USBUART_GET_STATUS:
 214:Generated_Source\PSoC5/USBUART_std.c ****                 switch (bmRequestType & USBUART_RQST_RCPT_MASK)
 215:Generated_Source\PSoC5/USBUART_std.c ****                 {
 216:Generated_Source\PSoC5/USBUART_std.c ****                     case USBUART_RQST_RCPT_EP:
 217:Generated_Source\PSoC5/USBUART_std.c ****                         USBUART_currentTD.count = USBUART_EP_STATUS_LENGTH;
 218:Generated_Source\PSoC5/USBUART_std.c ****                         USBUART_tBuffer[0u]     = USBUART_EP[USBUART_wIndexLoReg & USBUART_DIR_UNUS
 219:Generated_Source\PSoC5/USBUART_std.c ****                         USBUART_tBuffer[1u]     = 0u;
 220:Generated_Source\PSoC5/USBUART_std.c ****                         USBUART_currentTD.pData = &USBUART_tBuffer[0u];
 221:Generated_Source\PSoC5/USBUART_std.c ****                         
 222:Generated_Source\PSoC5/USBUART_std.c ****                         requestHandled  = USBUART_InitControlRead();
 223:Generated_Source\PSoC5/USBUART_std.c ****                         break;
 224:Generated_Source\PSoC5/USBUART_std.c ****                     case USBUART_RQST_RCPT_DEV:
 225:Generated_Source\PSoC5/USBUART_std.c ****                         USBUART_currentTD.count = USBUART_DEVICE_STATUS_LENGTH;
 226:Generated_Source\PSoC5/USBUART_std.c ****                         USBUART_tBuffer[0u]     = USBUART_deviceStatus;
 227:Generated_Source\PSoC5/USBUART_std.c ****                         USBUART_tBuffer[1u]     = 0u;
 228:Generated_Source\PSoC5/USBUART_std.c ****                         USBUART_currentTD.pData = &USBUART_tBuffer[0u];
 229:Generated_Source\PSoC5/USBUART_std.c ****                         
 230:Generated_Source\PSoC5/USBUART_std.c ****                         requestHandled  = USBUART_InitControlRead();
 231:Generated_Source\PSoC5/USBUART_std.c ****                         break;
 232:Generated_Source\PSoC5/USBUART_std.c ****                     default:    /* requestHandled is initialized as FALSE by default */
 233:Generated_Source\PSoC5/USBUART_std.c ****                         break;
 234:Generated_Source\PSoC5/USBUART_std.c ****                 }
 235:Generated_Source\PSoC5/USBUART_std.c ****                 break;
 236:Generated_Source\PSoC5/USBUART_std.c ****                 
 237:Generated_Source\PSoC5/USBUART_std.c ****             case USBUART_GET_CONFIGURATION:
 238:Generated_Source\PSoC5/USBUART_std.c ****                 USBUART_currentTD.count = 1u;
 239:Generated_Source\PSoC5/USBUART_std.c ****                 USBUART_currentTD.pData = (volatile uint8 *) &USBUART_configuration;
 240:Generated_Source\PSoC5/USBUART_std.c ****                 requestHandled  = USBUART_InitControlRead();
 241:Generated_Source\PSoC5/USBUART_std.c ****                 break;
 242:Generated_Source\PSoC5/USBUART_std.c ****                 
 243:Generated_Source\PSoC5/USBUART_std.c ****             case USBUART_GET_INTERFACE:
 244:Generated_Source\PSoC5/USBUART_std.c ****                 USBUART_currentTD.count = 1u;
 245:Generated_Source\PSoC5/USBUART_std.c ****                 USBUART_currentTD.pData = (volatile uint8 *) &USBUART_interfaceSetting[USBUART_wInd
 246:Generated_Source\PSoC5/USBUART_std.c ****                 requestHandled  = USBUART_InitControlRead();
 247:Generated_Source\PSoC5/USBUART_std.c ****                 break;
 248:Generated_Source\PSoC5/USBUART_std.c ****                 
 249:Generated_Source\PSoC5/USBUART_std.c ****             default: /* requestHandled is initialized as FALSE by default */
 250:Generated_Source\PSoC5/USBUART_std.c ****                 break;
 251:Generated_Source\PSoC5/USBUART_std.c ****         }
 252:Generated_Source\PSoC5/USBUART_std.c ****     }
 253:Generated_Source\PSoC5/USBUART_std.c ****     else
 254:Generated_Source\PSoC5/USBUART_std.c ****     {
 255:Generated_Source\PSoC5/USBUART_std.c ****         /* Control Write */
 256:Generated_Source\PSoC5/USBUART_std.c ****         switch (USBUART_bRequestReg)
 257:Generated_Source\PSoC5/USBUART_std.c ****         {
 258:Generated_Source\PSoC5/USBUART_std.c ****             case USBUART_SET_ADDRESS:
ARM GAS  C:\Users\ingan\AppData\Local\Temp\ccPtKCQI.s 			page 6


 259:Generated_Source\PSoC5/USBUART_std.c ****                 /* Store address to be set in USBUART_NoDataControlStatusStage(). */
 260:Generated_Source\PSoC5/USBUART_std.c ****                 USBUART_deviceAddress = (uint8) USBUART_wValueLoReg;
 261:Generated_Source\PSoC5/USBUART_std.c ****                 requestHandled = USBUART_InitNoDataControlTransfer();
 262:Generated_Source\PSoC5/USBUART_std.c ****                 break;
 263:Generated_Source\PSoC5/USBUART_std.c ****                 
 264:Generated_Source\PSoC5/USBUART_std.c ****             case USBUART_SET_CONFIGURATION:
 265:Generated_Source\PSoC5/USBUART_std.c ****                 configurationN = USBUART_wValueLoReg;
 266:Generated_Source\PSoC5/USBUART_std.c ****                 
 267:Generated_Source\PSoC5/USBUART_std.c ****                 /* Verify that configuration descriptor exists */
 268:Generated_Source\PSoC5/USBUART_std.c ****                 if(configurationN > 0u)
 269:Generated_Source\PSoC5/USBUART_std.c ****                 {
 270:Generated_Source\PSoC5/USBUART_std.c ****                     pTmp = USBUART_GetConfigTablePtr((uint8) configurationN - 1u);
 271:Generated_Source\PSoC5/USBUART_std.c ****                 }
 272:Generated_Source\PSoC5/USBUART_std.c ****                 
 273:Generated_Source\PSoC5/USBUART_std.c ****                 /* Responds with a Request Error when configuration number is invalid */
 274:Generated_Source\PSoC5/USBUART_std.c ****                 if (((configurationN > 0u) && (pTmp != NULL)) || (configurationN == 0u))
 275:Generated_Source\PSoC5/USBUART_std.c ****                 {
 276:Generated_Source\PSoC5/USBUART_std.c ****                     /* Set new configuration if it has been changed */
 277:Generated_Source\PSoC5/USBUART_std.c ****                     if(configurationN != USBUART_configuration)
 278:Generated_Source\PSoC5/USBUART_std.c ****                     {
 279:Generated_Source\PSoC5/USBUART_std.c ****                         USBUART_configuration = (uint8) configurationN;
 280:Generated_Source\PSoC5/USBUART_std.c ****                         USBUART_configurationChanged = USBUART_TRUE;
 281:Generated_Source\PSoC5/USBUART_std.c ****                         USBUART_Config(USBUART_TRUE);
 282:Generated_Source\PSoC5/USBUART_std.c ****                     }
 283:Generated_Source\PSoC5/USBUART_std.c ****                     requestHandled = USBUART_InitNoDataControlTransfer();
 284:Generated_Source\PSoC5/USBUART_std.c ****                 }
 285:Generated_Source\PSoC5/USBUART_std.c ****                 break;
 286:Generated_Source\PSoC5/USBUART_std.c ****                 
 287:Generated_Source\PSoC5/USBUART_std.c ****             case USBUART_SET_INTERFACE:
 288:Generated_Source\PSoC5/USBUART_std.c ****                 if (0u != USBUART_ValidateAlternateSetting())
 289:Generated_Source\PSoC5/USBUART_std.c ****                 {
 290:Generated_Source\PSoC5/USBUART_std.c ****                     /* Get interface number from the request. */
 291:Generated_Source\PSoC5/USBUART_std.c ****                     interfaceNumber = USBUART_wIndexLoReg;
 292:Generated_Source\PSoC5/USBUART_std.c ****                     USBUART_interfaceNumber = (uint8) USBUART_wIndexLoReg;
 293:Generated_Source\PSoC5/USBUART_std.c ****                      
 294:Generated_Source\PSoC5/USBUART_std.c ****                     /* Check if alternate settings is changed for interface. */
 295:Generated_Source\PSoC5/USBUART_std.c ****                     if (USBUART_interfaceSettingLast[interfaceNumber] != USBUART_interfaceSetting[i
 296:Generated_Source\PSoC5/USBUART_std.c ****                     {
 297:Generated_Source\PSoC5/USBUART_std.c ****                         USBUART_configurationChanged = USBUART_TRUE;
 298:Generated_Source\PSoC5/USBUART_std.c ****                     
 299:Generated_Source\PSoC5/USBUART_std.c ****                         /* Change alternate setting for the endpoints. */
 300:Generated_Source\PSoC5/USBUART_std.c ****                     #if (USBUART_EP_MANAGEMENT_MANUAL && USBUART_EP_ALLOC_DYNAMIC)
 301:Generated_Source\PSoC5/USBUART_std.c ****                         USBUART_Config(USBUART_FALSE);
 302:Generated_Source\PSoC5/USBUART_std.c ****                     #else
 303:Generated_Source\PSoC5/USBUART_std.c ****                         USBUART_ConfigAltChanged();
 304:Generated_Source\PSoC5/USBUART_std.c ****                     #endif /* (USBUART_EP_MANAGEMENT_MANUAL && USBUART_EP_ALLOC_DYNAMIC) */
 305:Generated_Source\PSoC5/USBUART_std.c ****                     }
 306:Generated_Source\PSoC5/USBUART_std.c ****                     
 307:Generated_Source\PSoC5/USBUART_std.c ****                     requestHandled = USBUART_InitNoDataControlTransfer();
 308:Generated_Source\PSoC5/USBUART_std.c ****                 }
 309:Generated_Source\PSoC5/USBUART_std.c ****                 break;
 310:Generated_Source\PSoC5/USBUART_std.c ****                 
 311:Generated_Source\PSoC5/USBUART_std.c ****             case USBUART_CLEAR_FEATURE:
 312:Generated_Source\PSoC5/USBUART_std.c ****                 switch (bmRequestType & USBUART_RQST_RCPT_MASK)
 313:Generated_Source\PSoC5/USBUART_std.c ****                 {
 314:Generated_Source\PSoC5/USBUART_std.c ****                     case USBUART_RQST_RCPT_EP:
 315:Generated_Source\PSoC5/USBUART_std.c ****                         if (USBUART_wValueLoReg == USBUART_ENDPOINT_HALT)
ARM GAS  C:\Users\ingan\AppData\Local\Temp\ccPtKCQI.s 			page 7


 316:Generated_Source\PSoC5/USBUART_std.c ****                         {
 317:Generated_Source\PSoC5/USBUART_std.c ****                             requestHandled = USBUART_ClearEndpointHalt();
 318:Generated_Source\PSoC5/USBUART_std.c ****                         }
 319:Generated_Source\PSoC5/USBUART_std.c ****                         break;
 320:Generated_Source\PSoC5/USBUART_std.c ****                     case USBUART_RQST_RCPT_DEV:
 321:Generated_Source\PSoC5/USBUART_std.c ****                         /* Clear device REMOTE_WAKEUP */
 322:Generated_Source\PSoC5/USBUART_std.c ****                         if (USBUART_wValueLoReg == USBUART_DEVICE_REMOTE_WAKEUP)
 323:Generated_Source\PSoC5/USBUART_std.c ****                         {
 324:Generated_Source\PSoC5/USBUART_std.c ****                             USBUART_deviceStatus &= (uint8)~USBUART_DEVICE_STATUS_REMOTE_WAKEUP;
 325:Generated_Source\PSoC5/USBUART_std.c ****                             requestHandled = USBUART_InitNoDataControlTransfer();
 326:Generated_Source\PSoC5/USBUART_std.c ****                         }
 327:Generated_Source\PSoC5/USBUART_std.c ****                         break;
 328:Generated_Source\PSoC5/USBUART_std.c ****                     case USBUART_RQST_RCPT_IFC:
 329:Generated_Source\PSoC5/USBUART_std.c ****                         /* Validate interfaceNumber */
 330:Generated_Source\PSoC5/USBUART_std.c ****                         if (USBUART_wIndexLoReg < USBUART_MAX_INTERFACES_NUMBER)
 331:Generated_Source\PSoC5/USBUART_std.c ****                         {
 332:Generated_Source\PSoC5/USBUART_std.c ****                             USBUART_interfaceStatus[USBUART_wIndexLoReg] &= (uint8) ~USBUART_wValue
 333:Generated_Source\PSoC5/USBUART_std.c ****                             requestHandled = USBUART_InitNoDataControlTransfer();
 334:Generated_Source\PSoC5/USBUART_std.c ****                         }
 335:Generated_Source\PSoC5/USBUART_std.c ****                         break;
 336:Generated_Source\PSoC5/USBUART_std.c ****                     default:    /* requestHandled is initialized as FALSE by default */
 337:Generated_Source\PSoC5/USBUART_std.c ****                         break;
 338:Generated_Source\PSoC5/USBUART_std.c ****                 }
 339:Generated_Source\PSoC5/USBUART_std.c ****                 break;
 340:Generated_Source\PSoC5/USBUART_std.c ****                 
 341:Generated_Source\PSoC5/USBUART_std.c ****             case USBUART_SET_FEATURE:
 342:Generated_Source\PSoC5/USBUART_std.c ****                 switch (bmRequestType & USBUART_RQST_RCPT_MASK)
 343:Generated_Source\PSoC5/USBUART_std.c ****                 {
 344:Generated_Source\PSoC5/USBUART_std.c ****                     case USBUART_RQST_RCPT_EP:
 345:Generated_Source\PSoC5/USBUART_std.c ****                         if (USBUART_wValueLoReg == USBUART_ENDPOINT_HALT)
 346:Generated_Source\PSoC5/USBUART_std.c ****                         {
 347:Generated_Source\PSoC5/USBUART_std.c ****                             requestHandled = USBUART_SetEndpointHalt();
 348:Generated_Source\PSoC5/USBUART_std.c ****                         }
 349:Generated_Source\PSoC5/USBUART_std.c ****                         break;
 350:Generated_Source\PSoC5/USBUART_std.c ****                         
 351:Generated_Source\PSoC5/USBUART_std.c ****                     case USBUART_RQST_RCPT_DEV:
 352:Generated_Source\PSoC5/USBUART_std.c ****                         /* Set device REMOTE_WAKEUP */
 353:Generated_Source\PSoC5/USBUART_std.c ****                         if (USBUART_wValueLoReg == USBUART_DEVICE_REMOTE_WAKEUP)
 354:Generated_Source\PSoC5/USBUART_std.c ****                         {
 355:Generated_Source\PSoC5/USBUART_std.c ****                             USBUART_deviceStatus |= USBUART_DEVICE_STATUS_REMOTE_WAKEUP;
 356:Generated_Source\PSoC5/USBUART_std.c ****                             requestHandled = USBUART_InitNoDataControlTransfer();
 357:Generated_Source\PSoC5/USBUART_std.c ****                         }
 358:Generated_Source\PSoC5/USBUART_std.c ****                         break;
 359:Generated_Source\PSoC5/USBUART_std.c ****                         
 360:Generated_Source\PSoC5/USBUART_std.c ****                     case USBUART_RQST_RCPT_IFC:
 361:Generated_Source\PSoC5/USBUART_std.c ****                         /* Validate interfaceNumber */
 362:Generated_Source\PSoC5/USBUART_std.c ****                         if (USBUART_wIndexLoReg < USBUART_MAX_INTERFACES_NUMBER)
 363:Generated_Source\PSoC5/USBUART_std.c ****                         {
 364:Generated_Source\PSoC5/USBUART_std.c ****                             USBUART_interfaceStatus[USBUART_wIndexLoReg] &= (uint8) ~USBUART_wValue
 365:Generated_Source\PSoC5/USBUART_std.c ****                             requestHandled = USBUART_InitNoDataControlTransfer();
 366:Generated_Source\PSoC5/USBUART_std.c ****                         }
 367:Generated_Source\PSoC5/USBUART_std.c ****                         break;
 368:Generated_Source\PSoC5/USBUART_std.c ****                     
 369:Generated_Source\PSoC5/USBUART_std.c ****                     default:    /* requestHandled is initialized as FALSE by default */
 370:Generated_Source\PSoC5/USBUART_std.c ****                         break;
 371:Generated_Source\PSoC5/USBUART_std.c ****                 }
 372:Generated_Source\PSoC5/USBUART_std.c ****                 break;
ARM GAS  C:\Users\ingan\AppData\Local\Temp\ccPtKCQI.s 			page 8


 373:Generated_Source\PSoC5/USBUART_std.c ****                 
 374:Generated_Source\PSoC5/USBUART_std.c ****             default:    /* requestHandled is initialized as FALSE by default */
 375:Generated_Source\PSoC5/USBUART_std.c ****                 break;
 376:Generated_Source\PSoC5/USBUART_std.c ****         }
 377:Generated_Source\PSoC5/USBUART_std.c ****     }
 378:Generated_Source\PSoC5/USBUART_std.c ****     
 379:Generated_Source\PSoC5/USBUART_std.c ****     return (requestHandled);
 380:Generated_Source\PSoC5/USBUART_std.c **** }
 381:Generated_Source\PSoC5/USBUART_std.c **** 
 382:Generated_Source\PSoC5/USBUART_std.c **** 
 383:Generated_Source\PSoC5/USBUART_std.c **** #if defined(USBUART_ENABLE_IDSN_STRING)
 384:Generated_Source\PSoC5/USBUART_std.c ****     /***************************************************************************
 385:Generated_Source\PSoC5/USBUART_std.c ****     * Function Name: USBUART_ReadDieID
 386:Generated_Source\PSoC5/USBUART_std.c ****     ************************************************************************//**
 387:Generated_Source\PSoC5/USBUART_std.c ****     *
 388:Generated_Source\PSoC5/USBUART_std.c ****     *  This routine read Die ID and generate Serial Number string descriptor.
 389:Generated_Source\PSoC5/USBUART_std.c ****     *
 390:Generated_Source\PSoC5/USBUART_std.c ****     *  \param descr:  pointer on string descriptor. This string size has to be equal or
 391:Generated_Source\PSoC5/USBUART_std.c ****     *          greater than USBUART_IDSN_DESCR_LENGTH.
 392:Generated_Source\PSoC5/USBUART_std.c ****     *
 393:Generated_Source\PSoC5/USBUART_std.c ****     *
 394:Generated_Source\PSoC5/USBUART_std.c ****     * \reentrant
 395:Generated_Source\PSoC5/USBUART_std.c ****     *  No.
 396:Generated_Source\PSoC5/USBUART_std.c ****     *
 397:Generated_Source\PSoC5/USBUART_std.c ****     ***************************************************************************/
 398:Generated_Source\PSoC5/USBUART_std.c ****     void USBUART_ReadDieID(uint8 descr[]) 
 399:Generated_Source\PSoC5/USBUART_std.c ****     {
  28              		.loc 1 399 0
  29              		.cfi_startproc
  30              		@ args = 0, pretend = 0, frame = 32
  31              		@ frame_needed = 0, uses_anonymous_args = 0
  32              	.LVL0:
  33 0000 70B5     		push	{r4, r5, r6, lr}
  34              		.cfi_def_cfa_offset 16
  35              		.cfi_offset 4, -16
  36              		.cfi_offset 5, -12
  37              		.cfi_offset 6, -8
  38              		.cfi_offset 14, -4
  39 0002 88B0     		sub	sp, sp, #32
  40              		.cfi_def_cfa_offset 48
  41 0004 0546     		mov	r5, r0
 400:Generated_Source\PSoC5/USBUART_std.c ****         const char8 CYCODE hex[] = "0123456789ABCDEF";
  42              		.loc 1 400 0
  43 0006 03AC     		add	r4, sp, #12
  44 0008 174E     		ldr	r6, .L6
  45 000a 0FCE     		ldmia	r6!, {r0, r1, r2, r3}
  46              	.LVL1:
  47 000c 0FC4     		stmia	r4!, {r0, r1, r2, r3}
  48 000e 3368     		ldr	r3, [r6]
  49 0010 2370     		strb	r3, [r4]
  50              	.LVL2:
 401:Generated_Source\PSoC5/USBUART_std.c ****         uint8 i;
 402:Generated_Source\PSoC5/USBUART_std.c ****         uint8 j = 0u;
 403:Generated_Source\PSoC5/USBUART_std.c ****         uint8 uniqueId[8u];
 404:Generated_Source\PSoC5/USBUART_std.c **** 
 405:Generated_Source\PSoC5/USBUART_std.c ****         if (NULL != descr)
  51              		.loc 1 405 0
ARM GAS  C:\Users\ingan\AppData\Local\Temp\ccPtKCQI.s 			page 9


  52 0012 35B3     		cbz	r5, .L1
 406:Generated_Source\PSoC5/USBUART_std.c ****         {
 407:Generated_Source\PSoC5/USBUART_std.c ****             /* Initialize descriptor header. */
 408:Generated_Source\PSoC5/USBUART_std.c ****             descr[0u] = USBUART_IDSN_DESCR_LENGTH;
  53              		.loc 1 408 0
  54 0014 2223     		movs	r3, #34
  55 0016 2B70     		strb	r3, [r5]
 409:Generated_Source\PSoC5/USBUART_std.c ****             descr[1u] = USBUART_DESCR_STRING;
  56              		.loc 1 409 0
  57 0018 0323     		movs	r3, #3
  58 001a 6B70     		strb	r3, [r5, #1]
 410:Generated_Source\PSoC5/USBUART_std.c ****             
 411:Generated_Source\PSoC5/USBUART_std.c ****             /* Unique ID size is 8 bytes. */
 412:Generated_Source\PSoC5/USBUART_std.c ****             CyGetUniqueId((uint32 *) uniqueId);
  59              		.loc 1 412 0
  60 001c 01A8     		add	r0, sp, #4
  61 001e FFF7FEFF 		bl	CyGetUniqueId
  62              	.LVL3:
 402:Generated_Source\PSoC5/USBUART_std.c ****         uint8 uniqueId[8u];
  63              		.loc 1 402 0
  64 0022 0024     		movs	r4, #0
 413:Generated_Source\PSoC5/USBUART_std.c **** 
 414:Generated_Source\PSoC5/USBUART_std.c ****             /* Fill descriptor with unique device ID. */
 415:Generated_Source\PSoC5/USBUART_std.c ****             for (i = 2u; i < USBUART_IDSN_DESCR_LENGTH; i += 4u)
  65              		.loc 1 415 0
  66 0024 0223     		movs	r3, #2
  67 0026 1AE0     		b	.L3
  68              	.LVL4:
  69              	.L4:
 416:Generated_Source\PSoC5/USBUART_std.c ****             {
 417:Generated_Source\PSoC5/USBUART_std.c ****                 descr[i]      = (uint8) hex[(uniqueId[j] >> 4u)];
  70              		.loc 1 417 0 discriminator 3
  71 0028 08AA     		add	r2, sp, #32
  72 002a 2244     		add	r2, r2, r4
  73 002c 12F81C2C 		ldrb	r2, [r2, #-28]	@ zero_extendqisi2
  74 0030 08A9     		add	r1, sp, #32
  75 0032 01EB1211 		add	r1, r1, r2, lsr #4
  76 0036 11F8141C 		ldrb	r1, [r1, #-20]	@ zero_extendqisi2
  77 003a E954     		strb	r1, [r5, r3]
 418:Generated_Source\PSoC5/USBUART_std.c ****                 descr[i + 1u] = 0u;
  78              		.loc 1 418 0 discriminator 3
  79 003c 581C     		adds	r0, r3, #1
  80 003e 0021     		movs	r1, #0
  81 0040 2954     		strb	r1, [r5, r0]
 419:Generated_Source\PSoC5/USBUART_std.c ****                 descr[i + 2u] = (uint8) hex[(uniqueId[j] & 0x0Fu)];
  82              		.loc 1 419 0 discriminator 3
  83 0042 981C     		adds	r0, r3, #2
  84 0044 02F00F02 		and	r2, r2, #15
  85 0048 08AE     		add	r6, sp, #32
  86 004a 3244     		add	r2, r2, r6
  87 004c 12F8142C 		ldrb	r2, [r2, #-20]	@ zero_extendqisi2
  88 0050 2A54     		strb	r2, [r5, r0]
 420:Generated_Source\PSoC5/USBUART_std.c ****                 descr[i + 3u] = 0u;
  89              		.loc 1 420 0 discriminator 3
  90 0052 DA1C     		adds	r2, r3, #3
  91 0054 A954     		strb	r1, [r5, r2]
 421:Generated_Source\PSoC5/USBUART_std.c ****                 ++j;
ARM GAS  C:\Users\ingan\AppData\Local\Temp\ccPtKCQI.s 			page 10


  92              		.loc 1 421 0 discriminator 3
  93 0056 0134     		adds	r4, r4, #1
  94              	.LVL5:
  95 0058 E4B2     		uxtb	r4, r4
  96              	.LVL6:
 415:Generated_Source\PSoC5/USBUART_std.c ****             {
  97              		.loc 1 415 0 discriminator 3
  98 005a 0433     		adds	r3, r3, #4
  99              	.LVL7:
 100 005c DBB2     		uxtb	r3, r3
 101              	.LVL8:
 102              	.L3:
 415:Generated_Source\PSoC5/USBUART_std.c ****             {
 103              		.loc 1 415 0 is_stmt 0 discriminator 1
 104 005e 212B     		cmp	r3, #33
 105 0060 E2D9     		bls	.L4
 106              	.LVL9:
 107              	.L1:
 422:Generated_Source\PSoC5/USBUART_std.c ****             }
 423:Generated_Source\PSoC5/USBUART_std.c ****         }
 424:Generated_Source\PSoC5/USBUART_std.c ****     }
 108              		.loc 1 424 0 is_stmt 1
 109 0062 08B0     		add	sp, sp, #32
 110              		.cfi_def_cfa_offset 16
 111              		@ sp needed
 112 0064 70BD     		pop	{r4, r5, r6, pc}
 113              	.LVL10:
 114              	.L7:
 115 0066 00BF     		.align	2
 116              	.L6:
 117 0068 00000000 		.word	.LC0
 118              		.cfi_endproc
 119              	.LFE1:
 120              		.size	USBUART_ReadDieID, .-USBUART_ReadDieID
 121              		.section	.text.USBUART_ConfigReg,"ax",%progbits
 122              		.align	2
 123              		.global	USBUART_ConfigReg
 124              		.thumb
 125              		.thumb_func
 126              		.type	USBUART_ConfigReg, %function
 127              	USBUART_ConfigReg:
 128              	.LFB2:
 425:Generated_Source\PSoC5/USBUART_std.c **** #endif /* (USBUART_ENABLE_IDSN_STRING) */
 426:Generated_Source\PSoC5/USBUART_std.c **** 
 427:Generated_Source\PSoC5/USBUART_std.c **** 
 428:Generated_Source\PSoC5/USBUART_std.c **** /*******************************************************************************
 429:Generated_Source\PSoC5/USBUART_std.c **** * Function Name: USBUART_ConfigReg
 430:Generated_Source\PSoC5/USBUART_std.c **** ****************************************************************************//**
 431:Generated_Source\PSoC5/USBUART_std.c **** *
 432:Generated_Source\PSoC5/USBUART_std.c **** *  This routine configures hardware registers from the variables.
 433:Generated_Source\PSoC5/USBUART_std.c **** *  It is called from USBUART_Config() function and from RestoreConfig
 434:Generated_Source\PSoC5/USBUART_std.c **** *  after Wakeup.
 435:Generated_Source\PSoC5/USBUART_std.c **** *
 436:Generated_Source\PSoC5/USBUART_std.c **** *******************************************************************************/
 437:Generated_Source\PSoC5/USBUART_std.c **** void USBUART_ConfigReg(void) 
 438:Generated_Source\PSoC5/USBUART_std.c **** {
 129              		.loc 1 438 0
ARM GAS  C:\Users\ingan\AppData\Local\Temp\ccPtKCQI.s 			page 11


 130              		.cfi_startproc
 131              		@ args = 0, pretend = 0, frame = 0
 132              		@ frame_needed = 0, uses_anonymous_args = 0
 133              		@ link register save eliminated.
 134 0000 30B4     		push	{r4, r5}
 135              		.cfi_def_cfa_offset 8
 136              		.cfi_offset 4, -8
 137              		.cfi_offset 5, -4
 138              	.LVL11:
 439:Generated_Source\PSoC5/USBUART_std.c ****     uint8 ep;
 440:Generated_Source\PSoC5/USBUART_std.c **** 
 441:Generated_Source\PSoC5/USBUART_std.c **** #if (USBUART_EP_MANAGEMENT_DMA_AUTO)
 442:Generated_Source\PSoC5/USBUART_std.c ****     uint8 epType = 0u;
 443:Generated_Source\PSoC5/USBUART_std.c **** #endif /* (USBUART_EP_MANAGEMENT_DMA_AUTO) */
 444:Generated_Source\PSoC5/USBUART_std.c **** 
 445:Generated_Source\PSoC5/USBUART_std.c ****     /* Go thought all endpoints and set hardware configuration */
 446:Generated_Source\PSoC5/USBUART_std.c ****     for (ep = USBUART_EP1; ep < USBUART_MAX_EP; ++ep)
 139              		.loc 1 446 0
 140 0002 0123     		movs	r3, #1
 141 0004 41E0     		b	.L9
 142              	.LVL12:
 143              	.L13:
 447:Generated_Source\PSoC5/USBUART_std.c ****     {
 448:Generated_Source\PSoC5/USBUART_std.c ****         USBUART_ARB_EP_BASE.arbEp[ep].epCfg = USBUART_ARB_EPX_CFG_DEFAULT;
 144              		.loc 1 448 0
 145 0006 1946     		mov	r1, r3
 146 0008 2348     		ldr	r0, .L15
 147 000a 1A01     		lsls	r2, r3, #4
 148 000c 8418     		adds	r4, r0, r2
 149 000e 0C25     		movs	r5, #12
 150 0010 8554     		strb	r5, [r0, r2]
 449:Generated_Source\PSoC5/USBUART_std.c ****         
 450:Generated_Source\PSoC5/USBUART_std.c ****     #if (USBUART_EP_MANAGEMENT_DMA)
 451:Generated_Source\PSoC5/USBUART_std.c ****         /* Enable arbiter endpoint interrupt sources */
 452:Generated_Source\PSoC5/USBUART_std.c ****         USBUART_ARB_EP_BASE.arbEp[ep].epIntEn = USBUART_ARB_EPX_INT_MASK;
 151              		.loc 1 452 0
 152 0012 1F22     		movs	r2, #31
 153 0014 6270     		strb	r2, [r4, #1]
 453:Generated_Source\PSoC5/USBUART_std.c ****     #endif /* (USBUART_EP_MANAGEMENT_DMA) */
 454:Generated_Source\PSoC5/USBUART_std.c ****     
 455:Generated_Source\PSoC5/USBUART_std.c ****         if (USBUART_EP[ep].epMode != USBUART_MODE_DISABLE)
 154              		.loc 1 455 0
 155 0016 03EB4300 		add	r0, r3, r3, lsl #1
 156 001a 8200     		lsls	r2, r0, #2
 157 001c 1F48     		ldr	r0, .L15+4
 158 001e 0244     		add	r2, r2, r0
 159 0020 5279     		ldrb	r2, [r2, #5]	@ zero_extendqisi2
 160 0022 12F0FF0F 		tst	r2, #255
 161 0026 13D0     		beq	.L10
 456:Generated_Source\PSoC5/USBUART_std.c ****         {
 457:Generated_Source\PSoC5/USBUART_std.c ****             if (0u != (USBUART_EP[ep].addr & USBUART_DIR_IN))
 162              		.loc 1 457 0
 163 0028 03EB4300 		add	r0, r3, r3, lsl #1
 164 002c 8200     		lsls	r2, r0, #2
 165 002e 1B48     		ldr	r0, .L15+4
 166 0030 0244     		add	r2, r2, r0
 167 0032 1279     		ldrb	r2, [r2, #4]	@ zero_extendqisi2
ARM GAS  C:\Users\ingan\AppData\Local\Temp\ccPtKCQI.s 			page 12


 168 0034 12F0800F 		tst	r2, #128
 169 0038 04D0     		beq	.L11
 458:Generated_Source\PSoC5/USBUART_std.c ****             {
 459:Generated_Source\PSoC5/USBUART_std.c ****                 USBUART_SIE_EP_BASE.sieEp[ep].epCr0 = USBUART_MODE_NAK_IN;
 170              		.loc 1 459 0
 171 003a 1801     		lsls	r0, r3, #4
 172 003c 184A     		ldr	r2, .L15+8
 173 003e 0244     		add	r2, r2, r0
 174 0040 9570     		strb	r5, [r2, #2]
 175 0042 0AE0     		b	.L12
 176              	.L11:
 460:Generated_Source\PSoC5/USBUART_std.c ****                 
 461:Generated_Source\PSoC5/USBUART_std.c ****             #if (USBUART_EP_MANAGEMENT_DMA_AUTO && CY_PSOC4)
 462:Generated_Source\PSoC5/USBUART_std.c ****                 /* Clear DMA_TERMIN for IN endpoint. */
 463:Generated_Source\PSoC5/USBUART_std.c ****                 USBUART_ARB_EP_BASE.arbEp[ep].epIntEn &= (uint32) ~USBUART_ARB_EPX_INT_DMA_TERMIN;
 464:Generated_Source\PSoC5/USBUART_std.c ****             #endif /* (USBUART_EP_MANAGEMENT_DMA_AUTO && CY_PSOC4) */
 465:Generated_Source\PSoC5/USBUART_std.c ****             }
 466:Generated_Source\PSoC5/USBUART_std.c ****             else
 467:Generated_Source\PSoC5/USBUART_std.c ****             {
 468:Generated_Source\PSoC5/USBUART_std.c ****                 USBUART_SIE_EP_BASE.sieEp[ep].epCr0 = USBUART_MODE_NAK_OUT;
 177              		.loc 1 468 0
 178 0044 1801     		lsls	r0, r3, #4
 179 0046 164A     		ldr	r2, .L15+8
 180 0048 0244     		add	r2, r2, r0
 181 004a 0820     		movs	r0, #8
 182 004c 9070     		strb	r0, [r2, #2]
 183 004e 04E0     		b	.L12
 184              	.L10:
 469:Generated_Source\PSoC5/USBUART_std.c **** 
 470:Generated_Source\PSoC5/USBUART_std.c ****             #if (USBUART_EP_MANAGEMENT_DMA_AUTO)
 471:Generated_Source\PSoC5/USBUART_std.c ****                 /* (CY_PSOC4): DMA_TERMIN for OUT endpoint is set above. */
 472:Generated_Source\PSoC5/USBUART_std.c ****                 
 473:Generated_Source\PSoC5/USBUART_std.c ****                 /* Prepare endpoint type mask. */
 474:Generated_Source\PSoC5/USBUART_std.c ****                 epType |= (uint8) (0x01u << (ep - USBUART_EP1));
 475:Generated_Source\PSoC5/USBUART_std.c ****             #endif /* (USBUART_EP_MANAGEMENT_DMA_AUTO) */
 476:Generated_Source\PSoC5/USBUART_std.c ****             }
 477:Generated_Source\PSoC5/USBUART_std.c ****         }
 478:Generated_Source\PSoC5/USBUART_std.c ****         else
 479:Generated_Source\PSoC5/USBUART_std.c ****         {
 480:Generated_Source\PSoC5/USBUART_std.c ****             USBUART_SIE_EP_BASE.sieEp[ep].epCr0 = USBUART_MODE_STALL_DATA_EP;
 185              		.loc 1 480 0
 186 0050 1801     		lsls	r0, r3, #4
 187 0052 134A     		ldr	r2, .L15+8
 188 0054 0244     		add	r2, r2, r0
 189 0056 8020     		movs	r0, #128
 190 0058 9070     		strb	r0, [r2, #2]
 191              	.L12:
 481:Generated_Source\PSoC5/USBUART_std.c ****         }
 482:Generated_Source\PSoC5/USBUART_std.c ****         
 483:Generated_Source\PSoC5/USBUART_std.c ****     #if (!USBUART_EP_MANAGEMENT_DMA_AUTO)
 484:Generated_Source\PSoC5/USBUART_std.c ****         #if (CY_PSOC4)
 485:Generated_Source\PSoC5/USBUART_std.c ****             USBUART_ARB_EP16_BASE.arbEp[ep].rwRa16  = (uint32) USBUART_EP[ep].buffOffset;
 486:Generated_Source\PSoC5/USBUART_std.c ****             USBUART_ARB_EP16_BASE.arbEp[ep].rwWa16  = (uint32) USBUART_EP[ep].buffOffset;
 487:Generated_Source\PSoC5/USBUART_std.c ****         #else
 488:Generated_Source\PSoC5/USBUART_std.c ****             USBUART_ARB_EP_BASE.arbEp[ep].rwRa    = LO8(USBUART_EP[ep].buffOffset);
 192              		.loc 1 488 0 discriminator 2
 193 005a 4800     		lsls	r0, r1, #1
ARM GAS  C:\Users\ingan\AppData\Local\Temp\ccPtKCQI.s 			page 13


 194 005c 0844     		add	r0, r0, r1
 195 005e 8200     		lsls	r2, r0, #2
 196 0060 0E48     		ldr	r0, .L15+4
 197 0062 0244     		add	r2, r2, r0
 198 0064 D488     		ldrh	r4, [r2, #6]
 199 0066 E4B2     		uxtb	r4, r4
 200 0068 0801     		lsls	r0, r1, #4
 201 006a 0B49     		ldr	r1, .L15
 202 006c 0144     		add	r1, r1, r0
 203 006e 8C71     		strb	r4, [r1, #6]
 489:Generated_Source\PSoC5/USBUART_std.c ****             USBUART_ARB_EP_BASE.arbEp[ep].rwRaMsb = HI8(USBUART_EP[ep].buffOffset);
 204              		.loc 1 489 0 discriminator 2
 205 0070 D088     		ldrh	r0, [r2, #6]
 206 0072 C0F30720 		ubfx	r0, r0, #8, #8
 207 0076 C871     		strb	r0, [r1, #7]
 490:Generated_Source\PSoC5/USBUART_std.c ****             USBUART_ARB_EP_BASE.arbEp[ep].rwWa    = LO8(USBUART_EP[ep].buffOffset);
 208              		.loc 1 490 0 discriminator 2
 209 0078 D088     		ldrh	r0, [r2, #6]
 210 007a C0B2     		uxtb	r0, r0
 211 007c 0871     		strb	r0, [r1, #4]
 491:Generated_Source\PSoC5/USBUART_std.c ****             USBUART_ARB_EP_BASE.arbEp[ep].rwWaMsb = HI8(USBUART_EP[ep].buffOffset);
 212              		.loc 1 491 0 discriminator 2
 213 007e D288     		ldrh	r2, [r2, #6]
 214 0080 C2F30722 		ubfx	r2, r2, #8, #8
 215 0084 4A71     		strb	r2, [r1, #5]
 446:Generated_Source\PSoC5/USBUART_std.c ****     {
 216              		.loc 1 446 0 discriminator 2
 217 0086 0133     		adds	r3, r3, #1
 218              	.LVL13:
 219 0088 DBB2     		uxtb	r3, r3
 220              	.LVL14:
 221              	.L9:
 446:Generated_Source\PSoC5/USBUART_std.c ****     {
 222              		.loc 1 446 0 is_stmt 0 discriminator 1
 223 008a 082B     		cmp	r3, #8
 224 008c BBD9     		bls	.L13
 492:Generated_Source\PSoC5/USBUART_std.c ****         #endif /* (CY_PSOC4) */
 493:Generated_Source\PSoC5/USBUART_std.c ****     #endif /* (!USBUART_EP_MANAGEMENT_DMA_AUTO) */
 494:Generated_Source\PSoC5/USBUART_std.c ****     }
 495:Generated_Source\PSoC5/USBUART_std.c **** 
 496:Generated_Source\PSoC5/USBUART_std.c **** #if (USBUART_EP_MANAGEMENT_DMA_AUTO)
 497:Generated_Source\PSoC5/USBUART_std.c ****      /* BUF_SIZE depend on DMA_THRESS value:0x55-32 bytes  0x44-16 bytes 0x33-8 bytes 0x22-4 bytes 
 498:Generated_Source\PSoC5/USBUART_std.c ****     USBUART_BUF_SIZE_REG = USBUART_DMA_BUF_SIZE;
 499:Generated_Source\PSoC5/USBUART_std.c **** 
 500:Generated_Source\PSoC5/USBUART_std.c ****     /* Configure DMA burst threshold */
 501:Generated_Source\PSoC5/USBUART_std.c **** #if (CY_PSOC4)
 502:Generated_Source\PSoC5/USBUART_std.c ****     USBUART_DMA_THRES16_REG   = USBUART_DMA_BYTES_PER_BURST;
 503:Generated_Source\PSoC5/USBUART_std.c **** #else
 504:Generated_Source\PSoC5/USBUART_std.c ****     USBUART_DMA_THRES_REG     = USBUART_DMA_BYTES_PER_BURST;
 505:Generated_Source\PSoC5/USBUART_std.c ****     USBUART_DMA_THRES_MSB_REG = 0u;
 506:Generated_Source\PSoC5/USBUART_std.c **** #endif /* (CY_PSOC4) */
 507:Generated_Source\PSoC5/USBUART_std.c ****     USBUART_EP_ACTIVE_REG = USBUART_DEFAULT_ARB_INT_EN;
 508:Generated_Source\PSoC5/USBUART_std.c ****     USBUART_EP_TYPE_REG   = epType;
 509:Generated_Source\PSoC5/USBUART_std.c ****     
 510:Generated_Source\PSoC5/USBUART_std.c ****     /* Cfg_cmp bit set to 1 once configuration is complete. */
 511:Generated_Source\PSoC5/USBUART_std.c ****     /* Lock arbiter configtuation */
 512:Generated_Source\PSoC5/USBUART_std.c ****     USBUART_ARB_CFG_REG |= (uint8)  USBUART_ARB_CFG_CFG_CMP;
ARM GAS  C:\Users\ingan\AppData\Local\Temp\ccPtKCQI.s 			page 14


 513:Generated_Source\PSoC5/USBUART_std.c ****     /* Cfg_cmp bit set to 0 during configuration of PFSUSB Registers. */
 514:Generated_Source\PSoC5/USBUART_std.c ****     USBUART_ARB_CFG_REG &= (uint8) ~USBUART_ARB_CFG_CFG_CMP;
 515:Generated_Source\PSoC5/USBUART_std.c **** 
 516:Generated_Source\PSoC5/USBUART_std.c **** #endif /* (USBUART_EP_MANAGEMENT_DMA_AUTO) */
 517:Generated_Source\PSoC5/USBUART_std.c **** 
 518:Generated_Source\PSoC5/USBUART_std.c ****     /* Enable interrupt SIE interurpt source from EP0-EP1 */
 519:Generated_Source\PSoC5/USBUART_std.c ****     USBUART_SIE_EP_INT_EN_REG = (uint8) USBUART_DEFAULT_SIE_EP_INT_EN;
 225              		.loc 1 519 0 is_stmt 1
 226 008e FF22     		movs	r2, #255
 227 0090 044B     		ldr	r3, .L15+12
 228              	.LVL15:
 229 0092 1A70     		strb	r2, [r3]
 520:Generated_Source\PSoC5/USBUART_std.c **** }
 230              		.loc 1 520 0
 231 0094 30BC     		pop	{r4, r5}
 232              		.cfi_restore 5
 233              		.cfi_restore 4
 234              		.cfi_def_cfa_offset 0
 235 0096 7047     		bx	lr
 236              	.L16:
 237              		.align	2
 238              	.L15:
 239 0098 70600040 		.word	1073766512
 240 009c 00000000 		.word	USBUART_EP
 241 00a0 FC5F0040 		.word	1073766396
 242 00a4 0A600040 		.word	1073766410
 243              		.cfi_endproc
 244              	.LFE2:
 245              		.size	USBUART_ConfigReg, .-USBUART_ConfigReg
 246              		.section	.text.USBUART_EpStateInit,"ax",%progbits
 247              		.align	2
 248              		.global	USBUART_EpStateInit
 249              		.thumb
 250              		.thumb_func
 251              		.type	USBUART_EpStateInit, %function
 252              	USBUART_EpStateInit:
 253              	.LFB3:
 521:Generated_Source\PSoC5/USBUART_std.c **** 
 522:Generated_Source\PSoC5/USBUART_std.c **** 
 523:Generated_Source\PSoC5/USBUART_std.c **** /*******************************************************************************
 524:Generated_Source\PSoC5/USBUART_std.c **** * Function Name: USBUART_EpStateInit
 525:Generated_Source\PSoC5/USBUART_std.c **** ****************************************************************************//**
 526:Generated_Source\PSoC5/USBUART_std.c **** *
 527:Generated_Source\PSoC5/USBUART_std.c **** *  This routine initialize state of Data end points based of its type: 
 528:Generated_Source\PSoC5/USBUART_std.c **** *   IN  - USBUART_IN_BUFFER_EMPTY (USBUART_EVENT_PENDING)
 529:Generated_Source\PSoC5/USBUART_std.c **** *   OUT - USBUART_OUT_BUFFER_EMPTY (USBUART_NO_EVENT_PENDING)
 530:Generated_Source\PSoC5/USBUART_std.c **** *
 531:Generated_Source\PSoC5/USBUART_std.c **** *******************************************************************************/
 532:Generated_Source\PSoC5/USBUART_std.c **** void USBUART_EpStateInit(void) 
 533:Generated_Source\PSoC5/USBUART_std.c **** {
 254              		.loc 1 533 0
 255              		.cfi_startproc
 256              		@ args = 0, pretend = 0, frame = 0
 257              		@ frame_needed = 0, uses_anonymous_args = 0
 258              		@ link register save eliminated.
 259              	.LVL16:
 534:Generated_Source\PSoC5/USBUART_std.c ****     uint8 i;
ARM GAS  C:\Users\ingan\AppData\Local\Temp\ccPtKCQI.s 			page 15


 535:Generated_Source\PSoC5/USBUART_std.c **** 
 536:Generated_Source\PSoC5/USBUART_std.c ****     for (i = USBUART_EP1; i < USBUART_MAX_EP; i++)
 260              		.loc 1 536 0
 261 0000 0123     		movs	r3, #1
 262 0002 19E0     		b	.L18
 263              	.LVL17:
 264              	.L21:
 537:Generated_Source\PSoC5/USBUART_std.c ****     { 
 538:Generated_Source\PSoC5/USBUART_std.c ****         if (0u != (USBUART_EP[i].addr & USBUART_DIR_IN))
 265              		.loc 1 538 0
 266 0004 03EB4301 		add	r1, r3, r3, lsl #1
 267 0008 8A00     		lsls	r2, r1, #2
 268 000a 0D49     		ldr	r1, .L22
 269 000c 0A44     		add	r2, r2, r1
 270 000e 1279     		ldrb	r2, [r2, #4]	@ zero_extendqisi2
 271 0010 12F0800F 		tst	r2, #128
 272 0014 07D0     		beq	.L19
 539:Generated_Source\PSoC5/USBUART_std.c ****         {
 540:Generated_Source\PSoC5/USBUART_std.c ****             /* IN Endpoint */
 541:Generated_Source\PSoC5/USBUART_std.c ****             USBUART_EP[i].apiEpState = USBUART_EVENT_PENDING;
 273              		.loc 1 541 0
 274 0016 03EB4301 		add	r1, r3, r3, lsl #1
 275 001a 8A00     		lsls	r2, r1, #2
 276 001c 0849     		ldr	r1, .L22
 277 001e 0A44     		add	r2, r2, r1
 278 0020 0121     		movs	r1, #1
 279 0022 5170     		strb	r1, [r2, #1]
 280 0024 06E0     		b	.L20
 281              	.L19:
 542:Generated_Source\PSoC5/USBUART_std.c ****         }
 543:Generated_Source\PSoC5/USBUART_std.c ****         else
 544:Generated_Source\PSoC5/USBUART_std.c ****         {
 545:Generated_Source\PSoC5/USBUART_std.c ****             /* OUT Endpoint */
 546:Generated_Source\PSoC5/USBUART_std.c ****             USBUART_EP[i].apiEpState = USBUART_NO_EVENT_PENDING;
 282              		.loc 1 546 0
 283 0026 03EB4301 		add	r1, r3, r3, lsl #1
 284 002a 8A00     		lsls	r2, r1, #2
 285 002c 0449     		ldr	r1, .L22
 286 002e 0A44     		add	r2, r2, r1
 287 0030 0021     		movs	r1, #0
 288 0032 5170     		strb	r1, [r2, #1]
 289              	.L20:
 536:Generated_Source\PSoC5/USBUART_std.c ****     { 
 290              		.loc 1 536 0 discriminator 2
 291 0034 0133     		adds	r3, r3, #1
 292              	.LVL18:
 293 0036 DBB2     		uxtb	r3, r3
 294              	.LVL19:
 295              	.L18:
 536:Generated_Source\PSoC5/USBUART_std.c ****     { 
 296              		.loc 1 536 0 is_stmt 0 discriminator 1
 297 0038 082B     		cmp	r3, #8
 298 003a E3D9     		bls	.L21
 547:Generated_Source\PSoC5/USBUART_std.c ****         }
 548:Generated_Source\PSoC5/USBUART_std.c ****     }
 549:Generated_Source\PSoC5/USBUART_std.c ****                     
 550:Generated_Source\PSoC5/USBUART_std.c **** }
ARM GAS  C:\Users\ingan\AppData\Local\Temp\ccPtKCQI.s 			page 16


 299              		.loc 1 550 0 is_stmt 1
 300 003c 7047     		bx	lr
 301              	.L23:
 302 003e 00BF     		.align	2
 303              	.L22:
 304 0040 00000000 		.word	USBUART_EP
 305              		.cfi_endproc
 306              	.LFE3:
 307              		.size	USBUART_EpStateInit, .-USBUART_EpStateInit
 308              		.section	.text.USBUART_GetConfigTablePtr,"ax",%progbits
 309              		.align	2
 310              		.global	USBUART_GetConfigTablePtr
 311              		.thumb
 312              		.thumb_func
 313              		.type	USBUART_GetConfigTablePtr, %function
 314              	USBUART_GetConfigTablePtr:
 315              	.LFB6:
 551:Generated_Source\PSoC5/USBUART_std.c **** 
 552:Generated_Source\PSoC5/USBUART_std.c **** 
 553:Generated_Source\PSoC5/USBUART_std.c **** /*******************************************************************************
 554:Generated_Source\PSoC5/USBUART_std.c **** * Function Name: USBUART_Config
 555:Generated_Source\PSoC5/USBUART_std.c **** ****************************************************************************//**
 556:Generated_Source\PSoC5/USBUART_std.c **** *
 557:Generated_Source\PSoC5/USBUART_std.c **** *  This routine configures endpoints for the entire configuration by scanning
 558:Generated_Source\PSoC5/USBUART_std.c **** *  the configuration descriptor.
 559:Generated_Source\PSoC5/USBUART_std.c **** *
 560:Generated_Source\PSoC5/USBUART_std.c **** *  \param clearAltSetting: It configures the bAlternateSetting 0 for each interface.
 561:Generated_Source\PSoC5/USBUART_std.c **** *
 562:Generated_Source\PSoC5/USBUART_std.c **** * USBUART_interfaceClass - Initialized class array for each interface.
 563:Generated_Source\PSoC5/USBUART_std.c **** *   It is used for handling Class specific requests depend on interface class.
 564:Generated_Source\PSoC5/USBUART_std.c **** *   Different classes in multiple Alternate settings does not supported.
 565:Generated_Source\PSoC5/USBUART_std.c **** *
 566:Generated_Source\PSoC5/USBUART_std.c **** * \reentrant
 567:Generated_Source\PSoC5/USBUART_std.c **** *  No.
 568:Generated_Source\PSoC5/USBUART_std.c **** *
 569:Generated_Source\PSoC5/USBUART_std.c **** *******************************************************************************/
 570:Generated_Source\PSoC5/USBUART_std.c **** void USBUART_Config(uint8 clearAltSetting) 
 571:Generated_Source\PSoC5/USBUART_std.c **** {
 572:Generated_Source\PSoC5/USBUART_std.c ****     uint8 ep;
 573:Generated_Source\PSoC5/USBUART_std.c ****     uint8 curEp;
 574:Generated_Source\PSoC5/USBUART_std.c ****     uint8 i;
 575:Generated_Source\PSoC5/USBUART_std.c ****     uint8 epType;
 576:Generated_Source\PSoC5/USBUART_std.c ****     const uint8 *pDescr;
 577:Generated_Source\PSoC5/USBUART_std.c ****     
 578:Generated_Source\PSoC5/USBUART_std.c ****     #if (!USBUART_EP_MANAGEMENT_DMA_AUTO)
 579:Generated_Source\PSoC5/USBUART_std.c ****         uint16 buffCount = 0u;
 580:Generated_Source\PSoC5/USBUART_std.c ****     #endif /* (!USBUART_EP_MANAGEMENT_DMA_AUTO) */
 581:Generated_Source\PSoC5/USBUART_std.c **** 
 582:Generated_Source\PSoC5/USBUART_std.c ****     const T_USBUART_LUT CYCODE *pTmp;
 583:Generated_Source\PSoC5/USBUART_std.c ****     const T_USBUART_EP_SETTINGS_BLOCK CYCODE *pEP;
 584:Generated_Source\PSoC5/USBUART_std.c **** 
 585:Generated_Source\PSoC5/USBUART_std.c ****     /* Clear endpoints settings */
 586:Generated_Source\PSoC5/USBUART_std.c ****     for (ep = 0u; ep < USBUART_MAX_EP; ++ep)
 587:Generated_Source\PSoC5/USBUART_std.c ****     {
 588:Generated_Source\PSoC5/USBUART_std.c ****         USBUART_EP[ep].attrib     = 0u;
 589:Generated_Source\PSoC5/USBUART_std.c ****         USBUART_EP[ep].hwEpState  = 0u;
 590:Generated_Source\PSoC5/USBUART_std.c ****         USBUART_EP[ep].epToggle   = 0u;
ARM GAS  C:\Users\ingan\AppData\Local\Temp\ccPtKCQI.s 			page 17


 591:Generated_Source\PSoC5/USBUART_std.c ****         USBUART_EP[ep].bufferSize = 0u;
 592:Generated_Source\PSoC5/USBUART_std.c ****         USBUART_EP[ep].interface  = 0u;
 593:Generated_Source\PSoC5/USBUART_std.c ****         USBUART_EP[ep].apiEpState = USBUART_NO_EVENT_PENDING;
 594:Generated_Source\PSoC5/USBUART_std.c ****         USBUART_EP[ep].epMode     = USBUART_MODE_DISABLE;   
 595:Generated_Source\PSoC5/USBUART_std.c ****     }
 596:Generated_Source\PSoC5/USBUART_std.c **** 
 597:Generated_Source\PSoC5/USBUART_std.c ****     /* Clear Alternate settings for all interfaces. */
 598:Generated_Source\PSoC5/USBUART_std.c ****     if (0u != clearAltSetting)
 599:Generated_Source\PSoC5/USBUART_std.c ****     {
 600:Generated_Source\PSoC5/USBUART_std.c ****         for (i = 0u; i < USBUART_MAX_INTERFACES_NUMBER; ++i)
 601:Generated_Source\PSoC5/USBUART_std.c ****         {
 602:Generated_Source\PSoC5/USBUART_std.c ****             USBUART_interfaceSetting[i]     = 0u;
 603:Generated_Source\PSoC5/USBUART_std.c ****             USBUART_interfaceSettingLast[i] = 0u;
 604:Generated_Source\PSoC5/USBUART_std.c ****         }
 605:Generated_Source\PSoC5/USBUART_std.c ****     }
 606:Generated_Source\PSoC5/USBUART_std.c **** 
 607:Generated_Source\PSoC5/USBUART_std.c ****     /* Init Endpoints and Device Status if configured */
 608:Generated_Source\PSoC5/USBUART_std.c ****     if (USBUART_configuration > 0u)
 609:Generated_Source\PSoC5/USBUART_std.c ****     {
 610:Generated_Source\PSoC5/USBUART_std.c ****         #if defined(USBUART_ENABLE_CDC_CLASS)
 611:Generated_Source\PSoC5/USBUART_std.c ****             uint8 cdcComNums = 0u;
 612:Generated_Source\PSoC5/USBUART_std.c ****         #endif  /* (USBUART_ENABLE_CDC_CLASS) */  
 613:Generated_Source\PSoC5/USBUART_std.c **** 
 614:Generated_Source\PSoC5/USBUART_std.c ****         pTmp = USBUART_GetConfigTablePtr(USBUART_configuration - 1u);
 615:Generated_Source\PSoC5/USBUART_std.c ****         
 616:Generated_Source\PSoC5/USBUART_std.c ****         /* Set Power status for current configuration */
 617:Generated_Source\PSoC5/USBUART_std.c ****         pDescr = (const uint8 *)pTmp->p_list;
 618:Generated_Source\PSoC5/USBUART_std.c ****         if ((pDescr[USBUART_CONFIG_DESCR_ATTRIB] & USBUART_CONFIG_DESCR_ATTRIB_SELF_POWERED) != 0u)
 619:Generated_Source\PSoC5/USBUART_std.c ****         {
 620:Generated_Source\PSoC5/USBUART_std.c ****             USBUART_deviceStatus |= (uint8)  USBUART_DEVICE_STATUS_SELF_POWERED;
 621:Generated_Source\PSoC5/USBUART_std.c ****         }
 622:Generated_Source\PSoC5/USBUART_std.c ****         else
 623:Generated_Source\PSoC5/USBUART_std.c ****         {
 624:Generated_Source\PSoC5/USBUART_std.c ****             USBUART_deviceStatus &= (uint8) ~USBUART_DEVICE_STATUS_SELF_POWERED;
 625:Generated_Source\PSoC5/USBUART_std.c ****         }
 626:Generated_Source\PSoC5/USBUART_std.c ****         
 627:Generated_Source\PSoC5/USBUART_std.c ****         /* Move to next element */
 628:Generated_Source\PSoC5/USBUART_std.c ****         pTmp = &pTmp[1u];
 629:Generated_Source\PSoC5/USBUART_std.c ****         ep = pTmp->c;  /* For this table, c is the number of endpoints configurations  */
 630:Generated_Source\PSoC5/USBUART_std.c **** 
 631:Generated_Source\PSoC5/USBUART_std.c ****         #if (USBUART_EP_MANAGEMENT_MANUAL && USBUART_EP_ALLOC_DYNAMIC)
 632:Generated_Source\PSoC5/USBUART_std.c ****             /* Configure for dynamic EP memory allocation */
 633:Generated_Source\PSoC5/USBUART_std.c ****             /* p_list points the endpoint setting table. */
 634:Generated_Source\PSoC5/USBUART_std.c ****             pEP = (T_USBUART_EP_SETTINGS_BLOCK *) pTmp->p_list;
 635:Generated_Source\PSoC5/USBUART_std.c ****             
 636:Generated_Source\PSoC5/USBUART_std.c ****             for (i = 0u; i < ep; i++)
 637:Generated_Source\PSoC5/USBUART_std.c ****             {     
 638:Generated_Source\PSoC5/USBUART_std.c ****                 /* Compare current Alternate setting with EP Alt */
 639:Generated_Source\PSoC5/USBUART_std.c ****                 if (USBUART_interfaceSetting[pEP->interface] == pEP->altSetting)
 640:Generated_Source\PSoC5/USBUART_std.c ****                 {                                                          
 641:Generated_Source\PSoC5/USBUART_std.c ****                     curEp  = pEP->addr & USBUART_DIR_UNUSED;
 642:Generated_Source\PSoC5/USBUART_std.c ****                     epType = pEP->attributes & USBUART_EP_TYPE_MASK;
 643:Generated_Source\PSoC5/USBUART_std.c ****                     
 644:Generated_Source\PSoC5/USBUART_std.c ****                     USBUART_EP[curEp].addr       = pEP->addr;
 645:Generated_Source\PSoC5/USBUART_std.c ****                     USBUART_EP[curEp].attrib     = pEP->attributes;
 646:Generated_Source\PSoC5/USBUART_std.c ****                     USBUART_EP[curEp].bufferSize = pEP->bufferSize;
 647:Generated_Source\PSoC5/USBUART_std.c **** 
ARM GAS  C:\Users\ingan\AppData\Local\Temp\ccPtKCQI.s 			page 18


 648:Generated_Source\PSoC5/USBUART_std.c ****                     if (0u != (pEP->addr & USBUART_DIR_IN))
 649:Generated_Source\PSoC5/USBUART_std.c ****                     {
 650:Generated_Source\PSoC5/USBUART_std.c ****                         /* IN Endpoint */
 651:Generated_Source\PSoC5/USBUART_std.c ****                         USBUART_EP[curEp].epMode     = USBUART_GET_ACTIVE_IN_EP_CR0_MODE(epType);
 652:Generated_Source\PSoC5/USBUART_std.c ****                         USBUART_EP[curEp].apiEpState = USBUART_EVENT_PENDING;
 653:Generated_Source\PSoC5/USBUART_std.c ****                     
 654:Generated_Source\PSoC5/USBUART_std.c ****                     #if (defined(USBUART_ENABLE_MIDI_STREAMING) && (USBUART_MIDI_IN_BUFF_SIZE > 0))
 655:Generated_Source\PSoC5/USBUART_std.c ****                         if ((pEP->bMisc == USBUART_CLASS_AUDIO) && (epType == USBUART_EP_TYPE_BULK)
 656:Generated_Source\PSoC5/USBUART_std.c ****                         {
 657:Generated_Source\PSoC5/USBUART_std.c ****                             USBUART_midi_in_ep = curEp;
 658:Generated_Source\PSoC5/USBUART_std.c ****                         }
 659:Generated_Source\PSoC5/USBUART_std.c ****                     #endif  /* (USBUART_ENABLE_MIDI_STREAMING) */
 660:Generated_Source\PSoC5/USBUART_std.c ****                     }
 661:Generated_Source\PSoC5/USBUART_std.c ****                     else
 662:Generated_Source\PSoC5/USBUART_std.c ****                     {
 663:Generated_Source\PSoC5/USBUART_std.c ****                         /* OUT Endpoint */
 664:Generated_Source\PSoC5/USBUART_std.c ****                         USBUART_EP[curEp].epMode     = USBUART_GET_ACTIVE_OUT_EP_CR0_MODE(epType);
 665:Generated_Source\PSoC5/USBUART_std.c ****                         USBUART_EP[curEp].apiEpState = USBUART_NO_EVENT_PENDING;
 666:Generated_Source\PSoC5/USBUART_std.c ****                         
 667:Generated_Source\PSoC5/USBUART_std.c ****                     #if (defined(USBUART_ENABLE_MIDI_STREAMING) && (USBUART_MIDI_OUT_BUFF_SIZE > 0)
 668:Generated_Source\PSoC5/USBUART_std.c ****                         if ((pEP->bMisc == USBUART_CLASS_AUDIO) && (epType == USBUART_EP_TYPE_BULK)
 669:Generated_Source\PSoC5/USBUART_std.c ****                         {
 670:Generated_Source\PSoC5/USBUART_std.c ****                             USBUART_midi_out_ep = curEp;
 671:Generated_Source\PSoC5/USBUART_std.c ****                         }
 672:Generated_Source\PSoC5/USBUART_std.c ****                     #endif  /* (USBUART_ENABLE_MIDI_STREAMING) */
 673:Generated_Source\PSoC5/USBUART_std.c ****                     }
 674:Generated_Source\PSoC5/USBUART_std.c **** 
 675:Generated_Source\PSoC5/USBUART_std.c ****                 #if(defined (USBUART_ENABLE_CDC_CLASS))
 676:Generated_Source\PSoC5/USBUART_std.c ****                     if((pEP->bMisc == USBUART_CLASS_CDC_DATA) ||(pEP->bMisc == USBUART_CLASS_CDC))
 677:Generated_Source\PSoC5/USBUART_std.c ****                     {
 678:Generated_Source\PSoC5/USBUART_std.c ****                         cdcComNums = USBUART_Cdc_EpInit(pEP, curEp, cdcComNums);
 679:Generated_Source\PSoC5/USBUART_std.c ****                     }
 680:Generated_Source\PSoC5/USBUART_std.c ****                 #endif  /* (USBUART_ENABLE_CDC_CLASS) */
 681:Generated_Source\PSoC5/USBUART_std.c ****                 }
 682:Generated_Source\PSoC5/USBUART_std.c ****                 
 683:Generated_Source\PSoC5/USBUART_std.c ****                 pEP = &pEP[1u];
 684:Generated_Source\PSoC5/USBUART_std.c ****             }
 685:Generated_Source\PSoC5/USBUART_std.c ****             
 686:Generated_Source\PSoC5/USBUART_std.c ****         #else
 687:Generated_Source\PSoC5/USBUART_std.c ****             for (i = USBUART_EP1; i < USBUART_MAX_EP; ++i)
 688:Generated_Source\PSoC5/USBUART_std.c ****             {
 689:Generated_Source\PSoC5/USBUART_std.c ****                 /* p_list points the endpoint setting table. */
 690:Generated_Source\PSoC5/USBUART_std.c ****                 pEP = (const T_USBUART_EP_SETTINGS_BLOCK CYCODE *) pTmp->p_list;
 691:Generated_Source\PSoC5/USBUART_std.c ****                 /* Find max length for each EP and select it (length could be different in differen
 692:Generated_Source\PSoC5/USBUART_std.c ****                 /* but other settings should be correct with regards to Interface alt Setting */
 693:Generated_Source\PSoC5/USBUART_std.c ****                 
 694:Generated_Source\PSoC5/USBUART_std.c ****                 for (curEp = 0u; curEp < ep; ++curEp)
 695:Generated_Source\PSoC5/USBUART_std.c ****                 {
 696:Generated_Source\PSoC5/USBUART_std.c ****                     if (i == (pEP->addr & USBUART_DIR_UNUSED))
 697:Generated_Source\PSoC5/USBUART_std.c ****                     {
 698:Generated_Source\PSoC5/USBUART_std.c ****                         /* Compare endpoint buffers size with current size to find greater. */
 699:Generated_Source\PSoC5/USBUART_std.c ****                         if (USBUART_EP[i].bufferSize < pEP->bufferSize)
 700:Generated_Source\PSoC5/USBUART_std.c ****                         {
 701:Generated_Source\PSoC5/USBUART_std.c ****                             USBUART_EP[i].bufferSize = pEP->bufferSize;
 702:Generated_Source\PSoC5/USBUART_std.c ****                         }
 703:Generated_Source\PSoC5/USBUART_std.c ****                         
 704:Generated_Source\PSoC5/USBUART_std.c ****                         /* Compare current Alternate setting with EP Alt */
ARM GAS  C:\Users\ingan\AppData\Local\Temp\ccPtKCQI.s 			page 19


 705:Generated_Source\PSoC5/USBUART_std.c ****                         if (USBUART_interfaceSetting[pEP->interface] == pEP->altSetting)
 706:Generated_Source\PSoC5/USBUART_std.c ****                         {                            
 707:Generated_Source\PSoC5/USBUART_std.c ****                             USBUART_EP[i].addr = pEP->addr;
 708:Generated_Source\PSoC5/USBUART_std.c ****                             USBUART_EP[i].attrib = pEP->attributes;
 709:Generated_Source\PSoC5/USBUART_std.c ****                             
 710:Generated_Source\PSoC5/USBUART_std.c ****                             epType = pEP->attributes & USBUART_EP_TYPE_MASK;
 711:Generated_Source\PSoC5/USBUART_std.c ****                             
 712:Generated_Source\PSoC5/USBUART_std.c ****                             if (0u != (pEP->addr & USBUART_DIR_IN))
 713:Generated_Source\PSoC5/USBUART_std.c ****                             {
 714:Generated_Source\PSoC5/USBUART_std.c ****                                 /* IN Endpoint */
 715:Generated_Source\PSoC5/USBUART_std.c ****                                 USBUART_EP[i].epMode     = USBUART_GET_ACTIVE_IN_EP_CR0_MODE(epType
 716:Generated_Source\PSoC5/USBUART_std.c ****                                 USBUART_EP[i].apiEpState = USBUART_EVENT_PENDING;
 717:Generated_Source\PSoC5/USBUART_std.c ****                                 
 718:Generated_Source\PSoC5/USBUART_std.c ****                             #if (defined(USBUART_ENABLE_MIDI_STREAMING) && (USBUART_MIDI_IN_BUFF_SI
 719:Generated_Source\PSoC5/USBUART_std.c ****                                 if ((pEP->bMisc == USBUART_CLASS_AUDIO) && (epType == USBUART_EP_TY
 720:Generated_Source\PSoC5/USBUART_std.c ****                                 {
 721:Generated_Source\PSoC5/USBUART_std.c ****                                     USBUART_midi_in_ep = i;
 722:Generated_Source\PSoC5/USBUART_std.c ****                                 }
 723:Generated_Source\PSoC5/USBUART_std.c ****                             #endif  /* (USBUART_ENABLE_MIDI_STREAMING) */
 724:Generated_Source\PSoC5/USBUART_std.c ****                             }
 725:Generated_Source\PSoC5/USBUART_std.c ****                             else
 726:Generated_Source\PSoC5/USBUART_std.c ****                             {
 727:Generated_Source\PSoC5/USBUART_std.c ****                                 /* OUT Endpoint */
 728:Generated_Source\PSoC5/USBUART_std.c ****                                 USBUART_EP[i].epMode     = USBUART_GET_ACTIVE_OUT_EP_CR0_MODE(epTyp
 729:Generated_Source\PSoC5/USBUART_std.c ****                                 USBUART_EP[i].apiEpState = USBUART_NO_EVENT_PENDING;
 730:Generated_Source\PSoC5/USBUART_std.c ****                                 
 731:Generated_Source\PSoC5/USBUART_std.c ****                             #if (defined(USBUART_ENABLE_MIDI_STREAMING) && (USBUART_MIDI_OUT_BUFF_S
 732:Generated_Source\PSoC5/USBUART_std.c ****                                 if ((pEP->bMisc == USBUART_CLASS_AUDIO) && (epType == USBUART_EP_TY
 733:Generated_Source\PSoC5/USBUART_std.c ****                                 {
 734:Generated_Source\PSoC5/USBUART_std.c ****                                     USBUART_midi_out_ep = i;
 735:Generated_Source\PSoC5/USBUART_std.c ****                                 }
 736:Generated_Source\PSoC5/USBUART_std.c ****                             #endif  /* (USBUART_ENABLE_MIDI_STREAMING) */
 737:Generated_Source\PSoC5/USBUART_std.c ****                             }
 738:Generated_Source\PSoC5/USBUART_std.c **** 
 739:Generated_Source\PSoC5/USBUART_std.c ****                         #if (defined(USBUART_ENABLE_CDC_CLASS))
 740:Generated_Source\PSoC5/USBUART_std.c ****                             if((pEP->bMisc == USBUART_CLASS_CDC_DATA) ||(pEP->bMisc == USBUART_CLAS
 741:Generated_Source\PSoC5/USBUART_std.c ****                             {
 742:Generated_Source\PSoC5/USBUART_std.c ****                                 cdcComNums = USBUART_Cdc_EpInit(pEP, i, cdcComNums);
 743:Generated_Source\PSoC5/USBUART_std.c ****                             }
 744:Generated_Source\PSoC5/USBUART_std.c ****                         #endif  /* (USBUART_ENABLE_CDC_CLASS) */
 745:Generated_Source\PSoC5/USBUART_std.c **** 
 746:Generated_Source\PSoC5/USBUART_std.c ****                             #if (USBUART_EP_MANAGEMENT_DMA_AUTO)
 747:Generated_Source\PSoC5/USBUART_std.c ****                                 break;  /* Use first EP setting in Auto memory management */
 748:Generated_Source\PSoC5/USBUART_std.c ****                             #endif /* (USBUART_EP_MANAGEMENT_DMA_AUTO) */
 749:Generated_Source\PSoC5/USBUART_std.c ****                         }
 750:Generated_Source\PSoC5/USBUART_std.c ****                     }
 751:Generated_Source\PSoC5/USBUART_std.c ****                     
 752:Generated_Source\PSoC5/USBUART_std.c ****                     pEP = &pEP[1u];
 753:Generated_Source\PSoC5/USBUART_std.c ****                 }
 754:Generated_Source\PSoC5/USBUART_std.c ****             }
 755:Generated_Source\PSoC5/USBUART_std.c ****         #endif /*  (USBUART_EP_MANAGEMENT_MANUAL && USBUART_EP_ALLOC_DYNAMIC) */
 756:Generated_Source\PSoC5/USBUART_std.c **** 
 757:Generated_Source\PSoC5/USBUART_std.c ****         /* Init class array for each interface and interface number for each EP.
 758:Generated_Source\PSoC5/USBUART_std.c ****         *  It is used for handling Class specific requests directed to either an
 759:Generated_Source\PSoC5/USBUART_std.c ****         *  interface or the endpoint.
 760:Generated_Source\PSoC5/USBUART_std.c ****         */
 761:Generated_Source\PSoC5/USBUART_std.c ****         /* p_list points the endpoint setting table. */
ARM GAS  C:\Users\ingan\AppData\Local\Temp\ccPtKCQI.s 			page 20


 762:Generated_Source\PSoC5/USBUART_std.c ****         pEP = (const T_USBUART_EP_SETTINGS_BLOCK CYCODE *) pTmp->p_list;
 763:Generated_Source\PSoC5/USBUART_std.c ****         for (i = 0u; i < ep; i++)
 764:Generated_Source\PSoC5/USBUART_std.c ****         {
 765:Generated_Source\PSoC5/USBUART_std.c ****             /* Configure interface number for each EP */
 766:Generated_Source\PSoC5/USBUART_std.c ****             USBUART_EP[pEP->addr & USBUART_DIR_UNUSED].interface = pEP->interface;
 767:Generated_Source\PSoC5/USBUART_std.c ****             pEP = &pEP[1u];
 768:Generated_Source\PSoC5/USBUART_std.c ****         }
 769:Generated_Source\PSoC5/USBUART_std.c ****         
 770:Generated_Source\PSoC5/USBUART_std.c ****         /* Init pointer on interface class table */
 771:Generated_Source\PSoC5/USBUART_std.c ****         USBUART_interfaceClass = USBUART_GetInterfaceClassTablePtr();
 772:Generated_Source\PSoC5/USBUART_std.c ****         
 773:Generated_Source\PSoC5/USBUART_std.c ****     /* Set the endpoint buffer addresses */
 774:Generated_Source\PSoC5/USBUART_std.c ****     #if (!USBUART_EP_MANAGEMENT_DMA_AUTO)
 775:Generated_Source\PSoC5/USBUART_std.c ****         buffCount = 0u;
 776:Generated_Source\PSoC5/USBUART_std.c ****         for (ep = USBUART_EP1; ep < USBUART_MAX_EP; ++ep)
 777:Generated_Source\PSoC5/USBUART_std.c ****         {
 778:Generated_Source\PSoC5/USBUART_std.c ****             USBUART_EP[ep].buffOffset = buffCount;        
 779:Generated_Source\PSoC5/USBUART_std.c ****             buffCount += USBUART_EP[ep].bufferSize;
 780:Generated_Source\PSoC5/USBUART_std.c ****             
 781:Generated_Source\PSoC5/USBUART_std.c ****         #if (USBUART_GEN_16BITS_EP_ACCESS)
 782:Generated_Source\PSoC5/USBUART_std.c ****             /* Align EP buffers to be event size to access 16-bits DR register. */
 783:Generated_Source\PSoC5/USBUART_std.c ****             buffCount += (0u != (buffCount & 0x01u)) ? 1u : 0u;
 784:Generated_Source\PSoC5/USBUART_std.c ****         #endif /* (USBUART_GEN_16BITS_EP_ACCESS) */            
 785:Generated_Source\PSoC5/USBUART_std.c ****         }
 786:Generated_Source\PSoC5/USBUART_std.c ****     #endif /* (!USBUART_EP_MANAGEMENT_DMA_AUTO) */
 787:Generated_Source\PSoC5/USBUART_std.c **** 
 788:Generated_Source\PSoC5/USBUART_std.c ****         /* Configure hardware registers */
 789:Generated_Source\PSoC5/USBUART_std.c ****         USBUART_ConfigReg();
 790:Generated_Source\PSoC5/USBUART_std.c ****     }
 791:Generated_Source\PSoC5/USBUART_std.c **** }
 792:Generated_Source\PSoC5/USBUART_std.c **** 
 793:Generated_Source\PSoC5/USBUART_std.c **** 
 794:Generated_Source\PSoC5/USBUART_std.c **** /*******************************************************************************
 795:Generated_Source\PSoC5/USBUART_std.c **** * Function Name: USBUART_ConfigAltChanged
 796:Generated_Source\PSoC5/USBUART_std.c **** ****************************************************************************//**
 797:Generated_Source\PSoC5/USBUART_std.c **** *
 798:Generated_Source\PSoC5/USBUART_std.c **** *  This routine update configuration for the required endpoints only.
 799:Generated_Source\PSoC5/USBUART_std.c **** *  It is called after SET_INTERFACE request when Static memory allocation used.
 800:Generated_Source\PSoC5/USBUART_std.c **** *
 801:Generated_Source\PSoC5/USBUART_std.c **** * \reentrant
 802:Generated_Source\PSoC5/USBUART_std.c **** *  No.
 803:Generated_Source\PSoC5/USBUART_std.c **** *
 804:Generated_Source\PSoC5/USBUART_std.c **** *******************************************************************************/
 805:Generated_Source\PSoC5/USBUART_std.c **** void USBUART_ConfigAltChanged(void) 
 806:Generated_Source\PSoC5/USBUART_std.c **** {
 807:Generated_Source\PSoC5/USBUART_std.c ****     uint8 ep;
 808:Generated_Source\PSoC5/USBUART_std.c ****     uint8 curEp;
 809:Generated_Source\PSoC5/USBUART_std.c ****     uint8 epType;
 810:Generated_Source\PSoC5/USBUART_std.c ****     uint8 i;
 811:Generated_Source\PSoC5/USBUART_std.c ****     uint8 interfaceNum;
 812:Generated_Source\PSoC5/USBUART_std.c **** 
 813:Generated_Source\PSoC5/USBUART_std.c ****     const T_USBUART_LUT CYCODE *pTmp;
 814:Generated_Source\PSoC5/USBUART_std.c ****     const T_USBUART_EP_SETTINGS_BLOCK CYCODE *pEP;
 815:Generated_Source\PSoC5/USBUART_std.c **** 
 816:Generated_Source\PSoC5/USBUART_std.c ****     /* Init Endpoints and Device Status if configured */
 817:Generated_Source\PSoC5/USBUART_std.c ****     if (USBUART_configuration > 0u)
 818:Generated_Source\PSoC5/USBUART_std.c ****     {
ARM GAS  C:\Users\ingan\AppData\Local\Temp\ccPtKCQI.s 			page 21


 819:Generated_Source\PSoC5/USBUART_std.c ****         /* Get number of endpoints configurations (ep). */
 820:Generated_Source\PSoC5/USBUART_std.c ****         pTmp = USBUART_GetConfigTablePtr(USBUART_configuration - 1u);
 821:Generated_Source\PSoC5/USBUART_std.c ****         pTmp = &pTmp[1u];
 822:Generated_Source\PSoC5/USBUART_std.c ****         ep = pTmp->c;
 823:Generated_Source\PSoC5/USBUART_std.c **** 
 824:Generated_Source\PSoC5/USBUART_std.c ****         /* Get pointer to endpoints setting table (pEP). */
 825:Generated_Source\PSoC5/USBUART_std.c ****         pEP = (const T_USBUART_EP_SETTINGS_BLOCK CYCODE *) pTmp->p_list;
 826:Generated_Source\PSoC5/USBUART_std.c ****         
 827:Generated_Source\PSoC5/USBUART_std.c ****         /* Look through all possible endpoint configurations. Find endpoints 
 828:Generated_Source\PSoC5/USBUART_std.c ****         * which belong to current interface and alternate settings for 
 829:Generated_Source\PSoC5/USBUART_std.c ****         * re-configuration.
 830:Generated_Source\PSoC5/USBUART_std.c ****         */
 831:Generated_Source\PSoC5/USBUART_std.c ****         interfaceNum = USBUART_interfaceNumber;
 832:Generated_Source\PSoC5/USBUART_std.c ****         for (i = 0u; i < ep; i++)
 833:Generated_Source\PSoC5/USBUART_std.c ****         {
 834:Generated_Source\PSoC5/USBUART_std.c ****             /* Find endpoints which belong to current interface and alternate settings. */
 835:Generated_Source\PSoC5/USBUART_std.c ****             if ((interfaceNum == pEP->interface) && 
 836:Generated_Source\PSoC5/USBUART_std.c ****                 (USBUART_interfaceSetting[interfaceNum] == pEP->altSetting))
 837:Generated_Source\PSoC5/USBUART_std.c ****             {
 838:Generated_Source\PSoC5/USBUART_std.c ****                 curEp  = ((uint8) pEP->addr & USBUART_DIR_UNUSED);
 839:Generated_Source\PSoC5/USBUART_std.c ****                 epType = ((uint8) pEP->attributes & USBUART_EP_TYPE_MASK);
 840:Generated_Source\PSoC5/USBUART_std.c ****                 
 841:Generated_Source\PSoC5/USBUART_std.c ****                 /* Change the SIE mode for the selected EP to NAK ALL */
 842:Generated_Source\PSoC5/USBUART_std.c ****                 USBUART_EP[curEp].epToggle   = 0u;
 843:Generated_Source\PSoC5/USBUART_std.c ****                 USBUART_EP[curEp].addr       = pEP->addr;
 844:Generated_Source\PSoC5/USBUART_std.c ****                 USBUART_EP[curEp].attrib     = pEP->attributes;
 845:Generated_Source\PSoC5/USBUART_std.c ****                 USBUART_EP[curEp].bufferSize = pEP->bufferSize;
 846:Generated_Source\PSoC5/USBUART_std.c **** 
 847:Generated_Source\PSoC5/USBUART_std.c ****                 if (0u != (pEP->addr & USBUART_DIR_IN))
 848:Generated_Source\PSoC5/USBUART_std.c ****                 {
 849:Generated_Source\PSoC5/USBUART_std.c ****                     /* IN Endpoint */
 850:Generated_Source\PSoC5/USBUART_std.c ****                     USBUART_EP[curEp].epMode     = USBUART_GET_ACTIVE_IN_EP_CR0_MODE(epType);
 851:Generated_Source\PSoC5/USBUART_std.c ****                     USBUART_EP[curEp].apiEpState = USBUART_EVENT_PENDING;
 852:Generated_Source\PSoC5/USBUART_std.c ****                 }
 853:Generated_Source\PSoC5/USBUART_std.c ****                 else
 854:Generated_Source\PSoC5/USBUART_std.c ****                 {
 855:Generated_Source\PSoC5/USBUART_std.c ****                     /* OUT Endpoint */
 856:Generated_Source\PSoC5/USBUART_std.c ****                     USBUART_EP[curEp].epMode     = USBUART_GET_ACTIVE_OUT_EP_CR0_MODE(epType);
 857:Generated_Source\PSoC5/USBUART_std.c ****                     USBUART_EP[curEp].apiEpState = USBUART_NO_EVENT_PENDING;
 858:Generated_Source\PSoC5/USBUART_std.c ****                 }
 859:Generated_Source\PSoC5/USBUART_std.c ****                 
 860:Generated_Source\PSoC5/USBUART_std.c ****                 /* Make SIE to NAK any endpoint requests */
 861:Generated_Source\PSoC5/USBUART_std.c ****                 USBUART_SIE_EP_BASE.sieEp[curEp].epCr0 = USBUART_MODE_NAK_IN_OUT;
 862:Generated_Source\PSoC5/USBUART_std.c **** 
 863:Generated_Source\PSoC5/USBUART_std.c ****             #if (USBUART_EP_MANAGEMENT_DMA_AUTO)
 864:Generated_Source\PSoC5/USBUART_std.c ****                 /* Clear IN data ready. */
 865:Generated_Source\PSoC5/USBUART_std.c ****                 USBUART_ARB_EP_BASE.arbEp[curEp].epCfg &= (uint8) ~USBUART_ARB_EPX_CFG_IN_DATA_RDY;
 866:Generated_Source\PSoC5/USBUART_std.c **** 
 867:Generated_Source\PSoC5/USBUART_std.c ****                 /* Select endpoint number of reconfiguration */
 868:Generated_Source\PSoC5/USBUART_std.c ****                 USBUART_DYN_RECONFIG_REG = (uint8) ((curEp - 1u) << USBUART_DYN_RECONFIG_EP_SHIFT);
 869:Generated_Source\PSoC5/USBUART_std.c ****                 
 870:Generated_Source\PSoC5/USBUART_std.c ****                 /* Request for dynamic re-configuration of endpoint. */
 871:Generated_Source\PSoC5/USBUART_std.c ****                 USBUART_DYN_RECONFIG_REG |= USBUART_DYN_RECONFIG_ENABLE;
 872:Generated_Source\PSoC5/USBUART_std.c ****                 
 873:Generated_Source\PSoC5/USBUART_std.c ****                 /* Wait until block is ready for re-configuration */
 874:Generated_Source\PSoC5/USBUART_std.c ****                 while (0u == (USBUART_DYN_RECONFIG_REG & USBUART_DYN_RECONFIG_RDY_STS))
 875:Generated_Source\PSoC5/USBUART_std.c ****                 {
ARM GAS  C:\Users\ingan\AppData\Local\Temp\ccPtKCQI.s 			page 22


 876:Generated_Source\PSoC5/USBUART_std.c ****                 }
 877:Generated_Source\PSoC5/USBUART_std.c ****                 
 878:Generated_Source\PSoC5/USBUART_std.c ****                 /* Once DYN_RECONFIG_RDY_STS bit is set, FW can change the EP configuration. */
 879:Generated_Source\PSoC5/USBUART_std.c ****                 /* Change EP Type with new direction */
 880:Generated_Source\PSoC5/USBUART_std.c ****                 if (0u != (pEP->addr & USBUART_DIR_IN))
 881:Generated_Source\PSoC5/USBUART_std.c ****                 {
 882:Generated_Source\PSoC5/USBUART_std.c ****                     /* Set endpoint type: 0 - IN and 1 - OUT. */
 883:Generated_Source\PSoC5/USBUART_std.c ****                     USBUART_EP_TYPE_REG &= (uint8) ~(uint8)((uint8) 0x01u << (curEp - 1u));
 884:Generated_Source\PSoC5/USBUART_std.c ****                     
 885:Generated_Source\PSoC5/USBUART_std.c ****                 #if (CY_PSOC4)
 886:Generated_Source\PSoC5/USBUART_std.c ****                     /* Clear DMA_TERMIN for IN endpoint */
 887:Generated_Source\PSoC5/USBUART_std.c ****                     USBUART_ARB_EP_BASE.arbEp[curEp].epIntEn &= (uint32) ~USBUART_ARB_EPX_INT_DMA_T
 888:Generated_Source\PSoC5/USBUART_std.c ****                 #endif /* (CY_PSOC4) */
 889:Generated_Source\PSoC5/USBUART_std.c ****                 }
 890:Generated_Source\PSoC5/USBUART_std.c ****                 else
 891:Generated_Source\PSoC5/USBUART_std.c ****                 {
 892:Generated_Source\PSoC5/USBUART_std.c ****                     /* Set endpoint type: 0 - IN and 1- OUT. */
 893:Generated_Source\PSoC5/USBUART_std.c ****                     USBUART_EP_TYPE_REG |= (uint8) ((uint8) 0x01u << (curEp - 1u));
 894:Generated_Source\PSoC5/USBUART_std.c ****                     
 895:Generated_Source\PSoC5/USBUART_std.c ****                 #if (CY_PSOC4)
 896:Generated_Source\PSoC5/USBUART_std.c ****                     /* Set DMA_TERMIN for OUT endpoint */
 897:Generated_Source\PSoC5/USBUART_std.c ****                     USBUART_ARB_EP_BASE.arbEp[curEp].epIntEn |= (uint32) USBUART_ARB_EPX_INT_DMA_TE
 898:Generated_Source\PSoC5/USBUART_std.c ****                 #endif /* (CY_PSOC4) */
 899:Generated_Source\PSoC5/USBUART_std.c ****                 }
 900:Generated_Source\PSoC5/USBUART_std.c ****                 
 901:Generated_Source\PSoC5/USBUART_std.c ****                 /* Complete dynamic re-configuration: all endpoint related status and signals 
 902:Generated_Source\PSoC5/USBUART_std.c ****                 * are set into the default state.
 903:Generated_Source\PSoC5/USBUART_std.c ****                 */
 904:Generated_Source\PSoC5/USBUART_std.c ****                 USBUART_DYN_RECONFIG_REG &= (uint8) ~USBUART_DYN_RECONFIG_ENABLE;
 905:Generated_Source\PSoC5/USBUART_std.c **** 
 906:Generated_Source\PSoC5/USBUART_std.c ****             #else
 907:Generated_Source\PSoC5/USBUART_std.c ****                 USBUART_SIE_EP_BASE.sieEp[curEp].epCnt0 = HI8(USBUART_EP[curEp].bufferSize);
 908:Generated_Source\PSoC5/USBUART_std.c ****                 USBUART_SIE_EP_BASE.sieEp[curEp].epCnt1 = LO8(USBUART_EP[curEp].bufferSize);
 909:Generated_Source\PSoC5/USBUART_std.c ****                 
 910:Generated_Source\PSoC5/USBUART_std.c ****                 #if (CY_PSOC4)
 911:Generated_Source\PSoC5/USBUART_std.c ****                     USBUART_ARB_EP16_BASE.arbEp[curEp].rwRa16  = (uint32) USBUART_EP[curEp].buffOff
 912:Generated_Source\PSoC5/USBUART_std.c ****                     USBUART_ARB_EP16_BASE.arbEp[curEp].rwWa16  = (uint32) USBUART_EP[curEp].buffOff
 913:Generated_Source\PSoC5/USBUART_std.c ****                 #else
 914:Generated_Source\PSoC5/USBUART_std.c ****                     USBUART_ARB_EP_BASE.arbEp[curEp].rwRa    = LO8(USBUART_EP[curEp].buffOffset);
 915:Generated_Source\PSoC5/USBUART_std.c ****                     USBUART_ARB_EP_BASE.arbEp[curEp].rwRaMsb = HI8(USBUART_EP[curEp].buffOffset);
 916:Generated_Source\PSoC5/USBUART_std.c ****                     USBUART_ARB_EP_BASE.arbEp[curEp].rwWa    = LO8(USBUART_EP[curEp].buffOffset);
 917:Generated_Source\PSoC5/USBUART_std.c ****                     USBUART_ARB_EP_BASE.arbEp[curEp].rwWaMsb = HI8(USBUART_EP[curEp].buffOffset);
 918:Generated_Source\PSoC5/USBUART_std.c ****                 #endif /* (CY_PSOC4) */                
 919:Generated_Source\PSoC5/USBUART_std.c ****             #endif /* (USBUART_EP_MANAGEMENT_DMA_AUTO) */
 920:Generated_Source\PSoC5/USBUART_std.c ****             }
 921:Generated_Source\PSoC5/USBUART_std.c ****             
 922:Generated_Source\PSoC5/USBUART_std.c ****             pEP = &pEP[1u]; /* Get next EP element */
 923:Generated_Source\PSoC5/USBUART_std.c ****         }
 924:Generated_Source\PSoC5/USBUART_std.c ****         
 925:Generated_Source\PSoC5/USBUART_std.c ****         /* The main loop has to re-enable DMA and OUT endpoint */
 926:Generated_Source\PSoC5/USBUART_std.c ****     }
 927:Generated_Source\PSoC5/USBUART_std.c **** }
 928:Generated_Source\PSoC5/USBUART_std.c **** 
 929:Generated_Source\PSoC5/USBUART_std.c **** 
 930:Generated_Source\PSoC5/USBUART_std.c **** /*******************************************************************************
 931:Generated_Source\PSoC5/USBUART_std.c **** * Function Name: USBUART_GetConfigTablePtr
 932:Generated_Source\PSoC5/USBUART_std.c **** ****************************************************************************//**
ARM GAS  C:\Users\ingan\AppData\Local\Temp\ccPtKCQI.s 			page 23


 933:Generated_Source\PSoC5/USBUART_std.c **** *
 934:Generated_Source\PSoC5/USBUART_std.c **** *  This routine returns a pointer a configuration table entry
 935:Generated_Source\PSoC5/USBUART_std.c **** *
 936:Generated_Source\PSoC5/USBUART_std.c **** *  \param confIndex:  Configuration Index
 937:Generated_Source\PSoC5/USBUART_std.c **** *
 938:Generated_Source\PSoC5/USBUART_std.c **** * \return
 939:Generated_Source\PSoC5/USBUART_std.c **** *  Device Descriptor pointer or NULL when descriptor does not exist.
 940:Generated_Source\PSoC5/USBUART_std.c **** *
 941:Generated_Source\PSoC5/USBUART_std.c **** *******************************************************************************/
 942:Generated_Source\PSoC5/USBUART_std.c **** const T_USBUART_LUT CYCODE *USBUART_GetConfigTablePtr(uint8 confIndex)
 943:Generated_Source\PSoC5/USBUART_std.c ****                                                         
 944:Generated_Source\PSoC5/USBUART_std.c **** {
 316              		.loc 1 944 0
 317              		.cfi_startproc
 318              		@ args = 0, pretend = 0, frame = 0
 319              		@ frame_needed = 0, uses_anonymous_args = 0
 320              		@ link register save eliminated.
 321              	.LVL20:
 945:Generated_Source\PSoC5/USBUART_std.c ****     /* Device Table */
 946:Generated_Source\PSoC5/USBUART_std.c ****     const T_USBUART_LUT CYCODE *pTmp;
 947:Generated_Source\PSoC5/USBUART_std.c **** 
 948:Generated_Source\PSoC5/USBUART_std.c ****     pTmp = (const T_USBUART_LUT CYCODE *) USBUART_TABLE[USBUART_device].p_list;
 322              		.loc 1 948 0
 323 0000 074B     		ldr	r3, .L27
 324 0002 1A78     		ldrb	r2, [r3]	@ zero_extendqisi2
 325 0004 074B     		ldr	r3, .L27+4
 326 0006 03EBC203 		add	r3, r3, r2, lsl #3
 327 000a 5B68     		ldr	r3, [r3, #4]
 328              	.LVL21:
 949:Generated_Source\PSoC5/USBUART_std.c **** 
 950:Generated_Source\PSoC5/USBUART_std.c ****     /* The first entry points to the Device Descriptor,
 951:Generated_Source\PSoC5/USBUART_std.c ****     *  the second entry point to the BOS Descriptor
 952:Generated_Source\PSoC5/USBUART_std.c ****     *  the rest configuration entries.
 953:Generated_Source\PSoC5/USBUART_std.c ****     *  Set pointer to the first Configuration Descriptor
 954:Generated_Source\PSoC5/USBUART_std.c ****     */
 955:Generated_Source\PSoC5/USBUART_std.c ****     pTmp = &pTmp[2u];
 956:Generated_Source\PSoC5/USBUART_std.c ****     /* For this table, c is the number of configuration descriptors  */
 957:Generated_Source\PSoC5/USBUART_std.c ****     if(confIndex >= pTmp->c)   /* Verify that required configuration descriptor exists */
 329              		.loc 1 957 0
 330 000c 1A7C     		ldrb	r2, [r3, #16]	@ zero_extendqisi2
 331 000e 8242     		cmp	r2, r0
 332 0010 04D9     		bls	.L26
 958:Generated_Source\PSoC5/USBUART_std.c ****     {
 959:Generated_Source\PSoC5/USBUART_std.c ****         pTmp = (const T_USBUART_LUT CYCODE *) NULL;
 960:Generated_Source\PSoC5/USBUART_std.c ****     }
 961:Generated_Source\PSoC5/USBUART_std.c ****     else
 962:Generated_Source\PSoC5/USBUART_std.c ****     {
 963:Generated_Source\PSoC5/USBUART_std.c ****         pTmp = (const T_USBUART_LUT CYCODE *) pTmp[confIndex].p_list;
 333              		.loc 1 963 0
 334 0012 C000     		lsls	r0, r0, #3
 335              	.LVL22:
 336 0014 1030     		adds	r0, r0, #16
 337 0016 1844     		add	r0, r0, r3
 338 0018 4068     		ldr	r0, [r0, #4]
 339              	.LVL23:
 340 001a 7047     		bx	lr
 341              	.LVL24:
ARM GAS  C:\Users\ingan\AppData\Local\Temp\ccPtKCQI.s 			page 24


 342              	.L26:
 959:Generated_Source\PSoC5/USBUART_std.c ****     }
 343              		.loc 1 959 0
 344 001c 0020     		movs	r0, #0
 345              	.LVL25:
 964:Generated_Source\PSoC5/USBUART_std.c ****     }
 965:Generated_Source\PSoC5/USBUART_std.c **** 
 966:Generated_Source\PSoC5/USBUART_std.c ****     return (pTmp);
 967:Generated_Source\PSoC5/USBUART_std.c **** }
 346              		.loc 1 967 0
 347 001e 7047     		bx	lr
 348              	.L28:
 349              		.align	2
 350              	.L27:
 351 0020 00000000 		.word	USBUART_device
 352 0024 00000000 		.word	USBUART_TABLE
 353              		.cfi_endproc
 354              	.LFE6:
 355              		.size	USBUART_GetConfigTablePtr, .-USBUART_GetConfigTablePtr
 356              		.section	.text.USBUART_ConfigAltChanged,"ax",%progbits
 357              		.align	2
 358              		.global	USBUART_ConfigAltChanged
 359              		.thumb
 360              		.thumb_func
 361              		.type	USBUART_ConfigAltChanged, %function
 362              	USBUART_ConfigAltChanged:
 363              	.LFB5:
 806:Generated_Source\PSoC5/USBUART_std.c ****     uint8 ep;
 364              		.loc 1 806 0
 365              		.cfi_startproc
 366              		@ args = 0, pretend = 0, frame = 0
 367              		@ frame_needed = 0, uses_anonymous_args = 0
 368 0000 F8B5     		push	{r3, r4, r5, r6, r7, lr}
 369              		.cfi_def_cfa_offset 24
 370              		.cfi_offset 3, -24
 371              		.cfi_offset 4, -20
 372              		.cfi_offset 5, -16
 373              		.cfi_offset 6, -12
 374              		.cfi_offset 7, -8
 375              		.cfi_offset 14, -4
 817:Generated_Source\PSoC5/USBUART_std.c ****     {
 376              		.loc 1 817 0
 377 0002 404B     		ldr	r3, .L41
 378 0004 1B78     		ldrb	r3, [r3]	@ zero_extendqisi2
 379 0006 13F0FF0F 		tst	r3, #255
 380 000a 79D0     		beq	.L29
 820:Generated_Source\PSoC5/USBUART_std.c ****         pTmp = &pTmp[1u];
 381              		.loc 1 820 0
 382 000c 3D4B     		ldr	r3, .L41
 383 000e 1878     		ldrb	r0, [r3]	@ zero_extendqisi2
 384 0010 0138     		subs	r0, r0, #1
 385 0012 C0B2     		uxtb	r0, r0
 386 0014 FFF7FEFF 		bl	USBUART_GetConfigTablePtr
 387              	.LVL26:
 822:Generated_Source\PSoC5/USBUART_std.c **** 
 388              		.loc 1 822 0
 389 0018 047A     		ldrb	r4, [r0, #8]	@ zero_extendqisi2
ARM GAS  C:\Users\ingan\AppData\Local\Temp\ccPtKCQI.s 			page 25


 390              	.LVL27:
 825:Generated_Source\PSoC5/USBUART_std.c ****         
 391              		.loc 1 825 0
 392 001a C268     		ldr	r2, [r0, #12]
 393              	.LVL28:
 831:Generated_Source\PSoC5/USBUART_std.c ****         for (i = 0u; i < ep; i++)
 394              		.loc 1 831 0
 395 001c 3A4B     		ldr	r3, .L41+4
 396 001e 1878     		ldrb	r0, [r3]	@ zero_extendqisi2
 397              	.LVL29:
 398 0020 C0B2     		uxtb	r0, r0
 399              	.LVL30:
 832:Generated_Source\PSoC5/USBUART_std.c ****         {
 400              		.loc 1 832 0
 401 0022 0023     		movs	r3, #0
 402 0024 6AE0     		b	.L31
 403              	.LVL31:
 404              	.L37:
 835:Generated_Source\PSoC5/USBUART_std.c ****                 (USBUART_interfaceSetting[interfaceNum] == pEP->altSetting))
 405              		.loc 1 835 0
 406 0026 1178     		ldrb	r1, [r2]	@ zero_extendqisi2
 407 0028 8842     		cmp	r0, r1
 408 002a 64D1     		bne	.L32
 836:Generated_Source\PSoC5/USBUART_std.c ****             {
 409              		.loc 1 836 0 discriminator 1
 410 002c 3749     		ldr	r1, .L41+8
 411 002e 095C     		ldrb	r1, [r1, r0]	@ zero_extendqisi2
 412 0030 C9B2     		uxtb	r1, r1
 413 0032 5578     		ldrb	r5, [r2, #1]	@ zero_extendqisi2
 835:Generated_Source\PSoC5/USBUART_std.c ****                 (USBUART_interfaceSetting[interfaceNum] == pEP->altSetting))
 414              		.loc 1 835 0 discriminator 1
 415 0034 A942     		cmp	r1, r5
 416 0036 5ED1     		bne	.L32
 838:Generated_Source\PSoC5/USBUART_std.c ****                 epType = ((uint8) pEP->attributes & USBUART_EP_TYPE_MASK);
 417              		.loc 1 838 0
 418 0038 9178     		ldrb	r1, [r2, #2]	@ zero_extendqisi2
 419 003a 01F07F01 		and	r1, r1, #127
 420              	.LVL32:
 839:Generated_Source\PSoC5/USBUART_std.c ****                 
 421              		.loc 1 839 0
 422 003e D678     		ldrb	r6, [r2, #3]	@ zero_extendqisi2
 423 0040 06F00306 		and	r6, r6, #3
 424              	.LVL33:
 842:Generated_Source\PSoC5/USBUART_std.c ****                 USBUART_EP[curEp].addr       = pEP->addr;
 425              		.loc 1 842 0
 426 0044 DFF8C8E0 		ldr	lr, .L41+12
 427 0048 4D00     		lsls	r5, r1, #1
 428 004a 0D44     		add	r5, r5, r1
 429 004c AF00     		lsls	r7, r5, #2
 430 004e 0EEB0705 		add	r5, lr, r7
 431 0052 4FF0000C 		mov	ip, #0
 432 0056 85F803C0 		strb	ip, [r5, #3]
 843:Generated_Source\PSoC5/USBUART_std.c ****                 USBUART_EP[curEp].attrib     = pEP->attributes;
 433              		.loc 1 843 0
 434 005a 92F802C0 		ldrb	ip, [r2, #2]	@ zero_extendqisi2
 435 005e 85F804C0 		strb	ip, [r5, #4]
 844:Generated_Source\PSoC5/USBUART_std.c ****                 USBUART_EP[curEp].bufferSize = pEP->bufferSize;
ARM GAS  C:\Users\ingan\AppData\Local\Temp\ccPtKCQI.s 			page 26


 436              		.loc 1 844 0
 437 0062 92F803C0 		ldrb	ip, [r2, #3]	@ zero_extendqisi2
 438 0066 0EF807C0 		strb	ip, [lr, r7]
 845:Generated_Source\PSoC5/USBUART_std.c **** 
 439              		.loc 1 845 0
 440 006a 9788     		ldrh	r7, [r2, #4]
 441 006c 2F81     		strh	r7, [r5, #8]	@ movhi
 847:Generated_Source\PSoC5/USBUART_std.c ****                 {
 442              		.loc 1 847 0
 443 006e 92F90250 		ldrsb	r5, [r2, #2]
 444 0072 002D     		cmp	r5, #0
 445 0074 0DDA     		bge	.L33
 850:Generated_Source\PSoC5/USBUART_std.c ****                     USBUART_EP[curEp].apiEpState = USBUART_EVENT_PENDING;
 446              		.loc 1 850 0
 447 0076 012E     		cmp	r6, #1
 448 0078 01D1     		bne	.L38
 449 007a 0727     		movs	r7, #7
 450 007c 00E0     		b	.L34
 451              	.L38:
 452 007e 0D27     		movs	r7, #13
 453              	.L34:
 850:Generated_Source\PSoC5/USBUART_std.c ****                     USBUART_EP[curEp].apiEpState = USBUART_EVENT_PENDING;
 454              		.loc 1 850 0 is_stmt 0 discriminator 4
 455 0080 4E00     		lsls	r6, r1, #1
 456              	.LVL34:
 457 0082 0E44     		add	r6, r6, r1
 458 0084 B500     		lsls	r5, r6, #2
 459 0086 224E     		ldr	r6, .L41+12
 460 0088 3544     		add	r5, r5, r6
 461 008a 6F71     		strb	r7, [r5, #5]
 851:Generated_Source\PSoC5/USBUART_std.c ****                 }
 462              		.loc 1 851 0 is_stmt 1 discriminator 4
 463 008c 0126     		movs	r6, #1
 464 008e 6E70     		strb	r6, [r5, #1]
 465 0090 0CE0     		b	.L35
 466              	.LVL35:
 467              	.L33:
 856:Generated_Source\PSoC5/USBUART_std.c ****                     USBUART_EP[curEp].apiEpState = USBUART_NO_EVENT_PENDING;
 468              		.loc 1 856 0
 469 0092 012E     		cmp	r6, #1
 470 0094 01D1     		bne	.L39
 471 0096 0527     		movs	r7, #5
 472 0098 00E0     		b	.L36
 473              	.L39:
 474 009a 0927     		movs	r7, #9
 475              	.L36:
 856:Generated_Source\PSoC5/USBUART_std.c ****                     USBUART_EP[curEp].apiEpState = USBUART_NO_EVENT_PENDING;
 476              		.loc 1 856 0 is_stmt 0 discriminator 4
 477 009c 4E00     		lsls	r6, r1, #1
 478              	.LVL36:
 479 009e 0E44     		add	r6, r6, r1
 480 00a0 B500     		lsls	r5, r6, #2
 481 00a2 1B4E     		ldr	r6, .L41+12
 482 00a4 3544     		add	r5, r5, r6
 483 00a6 6F71     		strb	r7, [r5, #5]
 857:Generated_Source\PSoC5/USBUART_std.c ****                 }
 484              		.loc 1 857 0 is_stmt 1 discriminator 4
ARM GAS  C:\Users\ingan\AppData\Local\Temp\ccPtKCQI.s 			page 27


 485 00a8 0026     		movs	r6, #0
 486 00aa 6E70     		strb	r6, [r5, #1]
 487              	.L35:
 861:Generated_Source\PSoC5/USBUART_std.c **** 
 488              		.loc 1 861 0
 489 00ac DFF868E0 		ldr	lr, .L41+20
 490 00b0 0F01     		lsls	r7, r1, #4
 491 00b2 0EEB0706 		add	r6, lr, r7
 492 00b6 0125     		movs	r5, #1
 493 00b8 B570     		strb	r5, [r6, #2]
 907:Generated_Source\PSoC5/USBUART_std.c ****                 USBUART_SIE_EP_BASE.sieEp[curEp].epCnt1 = LO8(USBUART_EP[curEp].bufferSize);
 494              		.loc 1 907 0
 495 00ba 01FA05F5 		lsl	r5, r1, r5
 496 00be 2944     		add	r1, r1, r5
 497              	.LVL37:
 498 00c0 8D00     		lsls	r5, r1, #2
 499 00c2 1349     		ldr	r1, .L41+12
 500 00c4 2944     		add	r1, r1, r5
 501 00c6 0D89     		ldrh	r5, [r1, #8]
 502 00c8 C5F30725 		ubfx	r5, r5, #8, #8
 503 00cc 0EF80750 		strb	r5, [lr, r7]
 908:Generated_Source\PSoC5/USBUART_std.c ****                 
 504              		.loc 1 908 0
 505 00d0 0D89     		ldrh	r5, [r1, #8]
 506 00d2 EDB2     		uxtb	r5, r5
 507 00d4 7570     		strb	r5, [r6, #1]
 914:Generated_Source\PSoC5/USBUART_std.c ****                     USBUART_ARB_EP_BASE.arbEp[curEp].rwRaMsb = HI8(USBUART_EP[curEp].buffOffset);
 508              		.loc 1 914 0
 509 00d6 CE88     		ldrh	r6, [r1, #6]
 510 00d8 F6B2     		uxtb	r6, r6
 511 00da 0E4D     		ldr	r5, .L41+16
 512 00dc 3D44     		add	r5, r5, r7
 513 00de AE71     		strb	r6, [r5, #6]
 915:Generated_Source\PSoC5/USBUART_std.c ****                     USBUART_ARB_EP_BASE.arbEp[curEp].rwWa    = LO8(USBUART_EP[curEp].buffOffset);
 514              		.loc 1 915 0
 515 00e0 CE88     		ldrh	r6, [r1, #6]
 516 00e2 C6F30726 		ubfx	r6, r6, #8, #8
 517 00e6 EE71     		strb	r6, [r5, #7]
 916:Generated_Source\PSoC5/USBUART_std.c ****                     USBUART_ARB_EP_BASE.arbEp[curEp].rwWaMsb = HI8(USBUART_EP[curEp].buffOffset);
 518              		.loc 1 916 0
 519 00e8 CE88     		ldrh	r6, [r1, #6]
 520 00ea F6B2     		uxtb	r6, r6
 521 00ec 2E71     		strb	r6, [r5, #4]
 917:Generated_Source\PSoC5/USBUART_std.c ****                 #endif /* (CY_PSOC4) */                
 522              		.loc 1 917 0
 523 00ee C988     		ldrh	r1, [r1, #6]
 524 00f0 C1F30721 		ubfx	r1, r1, #8, #8
 525 00f4 6971     		strb	r1, [r5, #5]
 526              	.L32:
 922:Generated_Source\PSoC5/USBUART_std.c ****         }
 527              		.loc 1 922 0 discriminator 2
 528 00f6 0832     		adds	r2, r2, #8
 529              	.LVL38:
 832:Generated_Source\PSoC5/USBUART_std.c ****         {
 530              		.loc 1 832 0 discriminator 2
 531 00f8 0133     		adds	r3, r3, #1
 532              	.LVL39:
ARM GAS  C:\Users\ingan\AppData\Local\Temp\ccPtKCQI.s 			page 28


 533 00fa DBB2     		uxtb	r3, r3
 534              	.LVL40:
 535              	.L31:
 832:Generated_Source\PSoC5/USBUART_std.c ****         {
 536              		.loc 1 832 0 is_stmt 0 discriminator 1
 537 00fc A342     		cmp	r3, r4
 538 00fe 92D3     		bcc	.L37
 539              	.LVL41:
 540              	.L29:
 541 0100 F8BD     		pop	{r3, r4, r5, r6, r7, pc}
 542              	.L42:
 543 0102 00BF     		.align	2
 544              	.L41:
 545 0104 00000000 		.word	USBUART_configuration
 546 0108 00000000 		.word	USBUART_interfaceNumber
 547 010c 00000000 		.word	USBUART_interfaceSetting
 548 0110 00000000 		.word	USBUART_EP
 549 0114 70600040 		.word	1073766512
 550 0118 FC5F0040 		.word	1073766396
 551              		.cfi_endproc
 552              	.LFE5:
 553              		.size	USBUART_ConfigAltChanged, .-USBUART_ConfigAltChanged
 554              		.section	.text.USBUART_GetDeviceTablePtr,"ax",%progbits
 555              		.align	2
 556              		.global	USBUART_GetDeviceTablePtr
 557              		.thumb
 558              		.thumb_func
 559              		.type	USBUART_GetDeviceTablePtr, %function
 560              	USBUART_GetDeviceTablePtr:
 561              	.LFB7:
 968:Generated_Source\PSoC5/USBUART_std.c **** 
 969:Generated_Source\PSoC5/USBUART_std.c **** 
 970:Generated_Source\PSoC5/USBUART_std.c **** #if (USBUART_BOS_ENABLE)
 971:Generated_Source\PSoC5/USBUART_std.c ****     /*******************************************************************************
 972:Generated_Source\PSoC5/USBUART_std.c ****     * Function Name: USBUART_GetBOSPtr
 973:Generated_Source\PSoC5/USBUART_std.c ****     ****************************************************************************//**
 974:Generated_Source\PSoC5/USBUART_std.c ****     *
 975:Generated_Source\PSoC5/USBUART_std.c ****     *  This routine returns a pointer a BOS table entry
 976:Generated_Source\PSoC5/USBUART_std.c ****     *
 977:Generated_Source\PSoC5/USBUART_std.c ****     *  
 978:Generated_Source\PSoC5/USBUART_std.c ****     *
 979:Generated_Source\PSoC5/USBUART_std.c ****     * \return
 980:Generated_Source\PSoC5/USBUART_std.c ****     *  BOS Descriptor pointer or NULL when descriptor does not exist.
 981:Generated_Source\PSoC5/USBUART_std.c ****     *
 982:Generated_Source\PSoC5/USBUART_std.c ****     *******************************************************************************/
 983:Generated_Source\PSoC5/USBUART_std.c ****     const T_USBUART_LUT CYCODE *USBUART_GetBOSPtr(void)
 984:Generated_Source\PSoC5/USBUART_std.c ****                                                             
 985:Generated_Source\PSoC5/USBUART_std.c ****     {
 986:Generated_Source\PSoC5/USBUART_std.c ****         /* Device Table */
 987:Generated_Source\PSoC5/USBUART_std.c ****         const T_USBUART_LUT CYCODE *pTmp;
 988:Generated_Source\PSoC5/USBUART_std.c **** 
 989:Generated_Source\PSoC5/USBUART_std.c ****         pTmp = (const T_USBUART_LUT CYCODE *) USBUART_TABLE[USBUART_device].p_list;
 990:Generated_Source\PSoC5/USBUART_std.c **** 
 991:Generated_Source\PSoC5/USBUART_std.c ****         /* The first entry points to the Device Descriptor,
 992:Generated_Source\PSoC5/USBUART_std.c ****         *  the second entry points to the BOS Descriptor
 993:Generated_Source\PSoC5/USBUART_std.c ****         */
 994:Generated_Source\PSoC5/USBUART_std.c ****         pTmp = &pTmp[1u];
ARM GAS  C:\Users\ingan\AppData\Local\Temp\ccPtKCQI.s 			page 29


 995:Generated_Source\PSoC5/USBUART_std.c ****         pTmp = (const T_USBUART_LUT CYCODE *) pTmp->p_list;
 996:Generated_Source\PSoC5/USBUART_std.c ****         return (pTmp);
 997:Generated_Source\PSoC5/USBUART_std.c ****     }
 998:Generated_Source\PSoC5/USBUART_std.c **** #endif /* (USBUART_BOS_ENABLE) */
 999:Generated_Source\PSoC5/USBUART_std.c **** 
1000:Generated_Source\PSoC5/USBUART_std.c **** 
1001:Generated_Source\PSoC5/USBUART_std.c **** /*******************************************************************************
1002:Generated_Source\PSoC5/USBUART_std.c **** * Function Name: USBUART_GetDeviceTablePtr
1003:Generated_Source\PSoC5/USBUART_std.c **** ****************************************************************************//**
1004:Generated_Source\PSoC5/USBUART_std.c **** *
1005:Generated_Source\PSoC5/USBUART_std.c **** *  This routine returns a pointer to the Device table
1006:Generated_Source\PSoC5/USBUART_std.c **** *
1007:Generated_Source\PSoC5/USBUART_std.c **** * \return
1008:Generated_Source\PSoC5/USBUART_std.c **** *  Device Table pointer
1009:Generated_Source\PSoC5/USBUART_std.c **** *
1010:Generated_Source\PSoC5/USBUART_std.c **** *******************************************************************************/
1011:Generated_Source\PSoC5/USBUART_std.c **** const T_USBUART_LUT CYCODE *USBUART_GetDeviceTablePtr(void)
1012:Generated_Source\PSoC5/USBUART_std.c ****                                                             
1013:Generated_Source\PSoC5/USBUART_std.c **** {
 562              		.loc 1 1013 0 is_stmt 1
 563              		.cfi_startproc
 564              		@ args = 0, pretend = 0, frame = 0
 565              		@ frame_needed = 0, uses_anonymous_args = 0
 566              		@ link register save eliminated.
1014:Generated_Source\PSoC5/USBUART_std.c ****     /* Device Table */
1015:Generated_Source\PSoC5/USBUART_std.c ****     return( (const T_USBUART_LUT CYCODE *) USBUART_TABLE[USBUART_device].p_list );
 567              		.loc 1 1015 0
 568 0000 034B     		ldr	r3, .L44
 569 0002 1A78     		ldrb	r2, [r3]	@ zero_extendqisi2
 570 0004 034B     		ldr	r3, .L44+4
 571 0006 03EBC203 		add	r3, r3, r2, lsl #3
1016:Generated_Source\PSoC5/USBUART_std.c **** }
 572              		.loc 1 1016 0
 573 000a 5868     		ldr	r0, [r3, #4]
 574 000c 7047     		bx	lr
 575              	.L45:
 576 000e 00BF     		.align	2
 577              	.L44:
 578 0010 00000000 		.word	USBUART_device
 579 0014 00000000 		.word	USBUART_TABLE
 580              		.cfi_endproc
 581              	.LFE7:
 582              		.size	USBUART_GetDeviceTablePtr, .-USBUART_GetDeviceTablePtr
 583              		.section	.text.USBUART_GetInterfaceClassTablePtr,"ax",%progbits
 584              		.align	2
 585              		.global	USBUART_GetInterfaceClassTablePtr
 586              		.thumb
 587              		.thumb_func
 588              		.type	USBUART_GetInterfaceClassTablePtr, %function
 589              	USBUART_GetInterfaceClassTablePtr:
 590              	.LFB8:
1017:Generated_Source\PSoC5/USBUART_std.c **** 
1018:Generated_Source\PSoC5/USBUART_std.c **** 
1019:Generated_Source\PSoC5/USBUART_std.c **** /*******************************************************************************
1020:Generated_Source\PSoC5/USBUART_std.c **** * Function Name: USB_GetInterfaceClassTablePtr
1021:Generated_Source\PSoC5/USBUART_std.c **** ****************************************************************************//**
1022:Generated_Source\PSoC5/USBUART_std.c **** *
ARM GAS  C:\Users\ingan\AppData\Local\Temp\ccPtKCQI.s 			page 30


1023:Generated_Source\PSoC5/USBUART_std.c **** *  This routine returns Interface Class table pointer, which contains
1024:Generated_Source\PSoC5/USBUART_std.c **** *  the relation between interface number and interface class.
1025:Generated_Source\PSoC5/USBUART_std.c **** *
1026:Generated_Source\PSoC5/USBUART_std.c **** * \return
1027:Generated_Source\PSoC5/USBUART_std.c **** *  Interface Class table pointer.
1028:Generated_Source\PSoC5/USBUART_std.c **** *
1029:Generated_Source\PSoC5/USBUART_std.c **** *******************************************************************************/
1030:Generated_Source\PSoC5/USBUART_std.c **** const uint8 CYCODE *USBUART_GetInterfaceClassTablePtr(void)
1031:Generated_Source\PSoC5/USBUART_std.c ****                                                         
1032:Generated_Source\PSoC5/USBUART_std.c **** {
 591              		.loc 1 1032 0
 592              		.cfi_startproc
 593              		@ args = 0, pretend = 0, frame = 0
 594              		@ frame_needed = 0, uses_anonymous_args = 0
 595 0000 08B5     		push	{r3, lr}
 596              		.cfi_def_cfa_offset 8
 597              		.cfi_offset 3, -8
 598              		.cfi_offset 14, -4
1033:Generated_Source\PSoC5/USBUART_std.c ****     const T_USBUART_LUT CYCODE *pTmp;
1034:Generated_Source\PSoC5/USBUART_std.c ****     const uint8 CYCODE *pInterfaceClass;
1035:Generated_Source\PSoC5/USBUART_std.c ****     uint8 currentInterfacesNum;
1036:Generated_Source\PSoC5/USBUART_std.c **** 
1037:Generated_Source\PSoC5/USBUART_std.c ****     pTmp = USBUART_GetConfigTablePtr(USBUART_configuration - 1u);
 599              		.loc 1 1037 0
 600 0002 084B     		ldr	r3, .L50
 601 0004 1878     		ldrb	r0, [r3]	@ zero_extendqisi2
 602 0006 0138     		subs	r0, r0, #1
 603 0008 C0B2     		uxtb	r0, r0
 604 000a FFF7FEFF 		bl	USBUART_GetConfigTablePtr
 605              	.LVL42:
1038:Generated_Source\PSoC5/USBUART_std.c ****     if (pTmp != NULL)
 606              		.loc 1 1038 0
 607 000e 30B1     		cbz	r0, .L48
1039:Generated_Source\PSoC5/USBUART_std.c ****     {
1040:Generated_Source\PSoC5/USBUART_std.c ****         currentInterfacesNum  = ((const uint8 *) pTmp->p_list)[USBUART_CONFIG_DESCR_NUM_INTERFACES]
 608              		.loc 1 1040 0
 609 0010 4268     		ldr	r2, [r0, #4]
 610 0012 1279     		ldrb	r2, [r2, #4]	@ zero_extendqisi2
 611              	.LVL43:
1041:Generated_Source\PSoC5/USBUART_std.c ****         /* Third entry in the LUT starts the Interface Table pointers */
1042:Generated_Source\PSoC5/USBUART_std.c ****         /* The INTERFACE_CLASS table is located after all interfaces */
1043:Generated_Source\PSoC5/USBUART_std.c ****         pTmp = &pTmp[currentInterfacesNum + 2u];
 612              		.loc 1 1043 0
 613 0014 0232     		adds	r2, r2, #2
 614              	.LVL44:
 615 0016 00EBC203 		add	r3, r0, r2, lsl #3
 616              	.LVL45:
1044:Generated_Source\PSoC5/USBUART_std.c ****         pInterfaceClass = (const uint8 CYCODE *) pTmp->p_list;
 617              		.loc 1 1044 0
 618 001a 5868     		ldr	r0, [r3, #4]
 619              	.LVL46:
 620 001c 08BD     		pop	{r3, pc}
 621              	.LVL47:
 622              	.L48:
1045:Generated_Source\PSoC5/USBUART_std.c ****     }
1046:Generated_Source\PSoC5/USBUART_std.c ****     else
1047:Generated_Source\PSoC5/USBUART_std.c ****     {
ARM GAS  C:\Users\ingan\AppData\Local\Temp\ccPtKCQI.s 			page 31


1048:Generated_Source\PSoC5/USBUART_std.c ****         pInterfaceClass = (const uint8 CYCODE *) NULL;
 623              		.loc 1 1048 0
 624 001e 0020     		movs	r0, #0
 625              	.LVL48:
1049:Generated_Source\PSoC5/USBUART_std.c ****     }
1050:Generated_Source\PSoC5/USBUART_std.c **** 
1051:Generated_Source\PSoC5/USBUART_std.c ****     return (pInterfaceClass);
1052:Generated_Source\PSoC5/USBUART_std.c **** }
 626              		.loc 1 1052 0
 627 0020 08BD     		pop	{r3, pc}
 628              	.L51:
 629 0022 00BF     		.align	2
 630              	.L50:
 631 0024 00000000 		.word	USBUART_configuration
 632              		.cfi_endproc
 633              	.LFE8:
 634              		.size	USBUART_GetInterfaceClassTablePtr, .-USBUART_GetInterfaceClassTablePtr
 635              		.section	.text.USBUART_Config,"ax",%progbits
 636              		.align	2
 637              		.global	USBUART_Config
 638              		.thumb
 639              		.thumb_func
 640              		.type	USBUART_Config, %function
 641              	USBUART_Config:
 642              	.LFB4:
 571:Generated_Source\PSoC5/USBUART_std.c ****     uint8 ep;
 643              		.loc 1 571 0
 644              		.cfi_startproc
 645              		@ args = 0, pretend = 0, frame = 0
 646              		@ frame_needed = 0, uses_anonymous_args = 0
 647              	.LVL49:
 648 0000 2DE9F047 		push	{r4, r5, r6, r7, r8, r9, r10, lr}
 649              		.cfi_def_cfa_offset 32
 650              		.cfi_offset 4, -32
 651              		.cfi_offset 5, -28
 652              		.cfi_offset 6, -24
 653              		.cfi_offset 7, -20
 654              		.cfi_offset 8, -16
 655              		.cfi_offset 9, -12
 656              		.cfi_offset 10, -8
 657              		.cfi_offset 14, -4
 658              	.LVL50:
 586:Generated_Source\PSoC5/USBUART_std.c ****     {
 659              		.loc 1 586 0
 660 0004 0023     		movs	r3, #0
 661 0006 10E0     		b	.L53
 662              	.LVL51:
 663              	.L54:
 588:Generated_Source\PSoC5/USBUART_std.c ****         USBUART_EP[ep].hwEpState  = 0u;
 664              		.loc 1 588 0 discriminator 3
 665 0008 724D     		ldr	r5, .L80
 666 000a 5900     		lsls	r1, r3, #1
 667 000c CA18     		adds	r2, r1, r3
 668 000e 9600     		lsls	r6, r2, #2
 669 0010 AC19     		adds	r4, r5, r6
 670 0012 0022     		movs	r2, #0
 671 0014 AA55     		strb	r2, [r5, r6]
ARM GAS  C:\Users\ingan\AppData\Local\Temp\ccPtKCQI.s 			page 32


 589:Generated_Source\PSoC5/USBUART_std.c ****         USBUART_EP[ep].epToggle   = 0u;
 672              		.loc 1 589 0 discriminator 3
 673 0016 A270     		strb	r2, [r4, #2]
 590:Generated_Source\PSoC5/USBUART_std.c ****         USBUART_EP[ep].bufferSize = 0u;
 674              		.loc 1 590 0 discriminator 3
 675 0018 E270     		strb	r2, [r4, #3]
 591:Generated_Source\PSoC5/USBUART_std.c ****         USBUART_EP[ep].interface  = 0u;
 676              		.loc 1 591 0 discriminator 3
 677 001a 2281     		strh	r2, [r4, #8]	@ movhi
 592:Generated_Source\PSoC5/USBUART_std.c ****         USBUART_EP[ep].apiEpState = USBUART_NO_EVENT_PENDING;
 678              		.loc 1 592 0 discriminator 3
 679 001c A272     		strb	r2, [r4, #10]
 593:Generated_Source\PSoC5/USBUART_std.c ****         USBUART_EP[ep].epMode     = USBUART_MODE_DISABLE;   
 680              		.loc 1 593 0 discriminator 3
 681 001e 6270     		strb	r2, [r4, #1]
 594:Generated_Source\PSoC5/USBUART_std.c ****     }
 682              		.loc 1 594 0 discriminator 3
 683 0020 3446     		mov	r4, r6
 684 0022 2C44     		add	r4, r4, r5
 685 0024 6271     		strb	r2, [r4, #5]
 586:Generated_Source\PSoC5/USBUART_std.c ****     {
 686              		.loc 1 586 0 discriminator 3
 687 0026 0133     		adds	r3, r3, #1
 688              	.LVL52:
 689 0028 DBB2     		uxtb	r3, r3
 690              	.LVL53:
 691              	.L53:
 586:Generated_Source\PSoC5/USBUART_std.c ****     {
 692              		.loc 1 586 0 is_stmt 0 discriminator 1
 693 002a 082B     		cmp	r3, #8
 694 002c ECD9     		bls	.L54
 598:Generated_Source\PSoC5/USBUART_std.c ****     {
 695              		.loc 1 598 0 is_stmt 1
 696 002e 40B9     		cbnz	r0, .L76
 697 0030 0AE0     		b	.L56
 698              	.LVL54:
 699              	.L57:
 602:Generated_Source\PSoC5/USBUART_std.c ****             USBUART_interfaceSettingLast[i] = 0u;
 700              		.loc 1 602 0 discriminator 3
 701 0032 0022     		movs	r2, #0
 702 0034 6849     		ldr	r1, .L80+4
 703 0036 CA54     		strb	r2, [r1, r3]
 603:Generated_Source\PSoC5/USBUART_std.c ****         }
 704              		.loc 1 603 0 discriminator 3
 705 0038 6849     		ldr	r1, .L80+8
 706 003a CA54     		strb	r2, [r1, r3]
 600:Generated_Source\PSoC5/USBUART_std.c ****         {
 707              		.loc 1 600 0 discriminator 3
 708 003c 0133     		adds	r3, r3, #1
 709              	.LVL55:
 710 003e DBB2     		uxtb	r3, r3
 711              	.LVL56:
 712 0040 00E0     		b	.L55
 713              	.LVL57:
 714              	.L76:
 715 0042 0023     		movs	r3, #0
 716              	.LVL58:
ARM GAS  C:\Users\ingan\AppData\Local\Temp\ccPtKCQI.s 			page 33


 717              	.L55:
 600:Generated_Source\PSoC5/USBUART_std.c ****         {
 718              		.loc 1 600 0 is_stmt 0 discriminator 1
 719 0044 012B     		cmp	r3, #1
 720 0046 F4D9     		bls	.L57
 721              	.LVL59:
 722              	.L56:
 608:Generated_Source\PSoC5/USBUART_std.c ****     {
 723              		.loc 1 608 0 is_stmt 1
 724 0048 654B     		ldr	r3, .L80+12
 725 004a 1B78     		ldrb	r3, [r3]	@ zero_extendqisi2
 726 004c 13F0FF0F 		tst	r3, #255
 727 0050 00F0BD80 		beq	.L52
 728              	.LVL60:
 729              	.LBB2:
 614:Generated_Source\PSoC5/USBUART_std.c ****         
 730              		.loc 1 614 0
 731 0054 624B     		ldr	r3, .L80+12
 732 0056 1878     		ldrb	r0, [r3]	@ zero_extendqisi2
 733              	.LVL61:
 734 0058 0138     		subs	r0, r0, #1
 735 005a C0B2     		uxtb	r0, r0
 736 005c FFF7FEFF 		bl	USBUART_GetConfigTablePtr
 737              	.LVL62:
 738 0060 8046     		mov	r8, r0
 739              	.LVL63:
 617:Generated_Source\PSoC5/USBUART_std.c ****         if ((pDescr[USBUART_CONFIG_DESCR_ATTRIB] & USBUART_CONFIG_DESCR_ATTRIB_SELF_POWERED) != 0u)
 740              		.loc 1 617 0
 741 0062 4368     		ldr	r3, [r0, #4]
 742              	.LVL64:
 618:Generated_Source\PSoC5/USBUART_std.c ****         {
 743              		.loc 1 618 0
 744 0064 DB79     		ldrb	r3, [r3, #7]	@ zero_extendqisi2
 745              	.LVL65:
 746 0066 13F0400F 		tst	r3, #64
 747 006a 05D0     		beq	.L59
 620:Generated_Source\PSoC5/USBUART_std.c ****         }
 748              		.loc 1 620 0
 749 006c 5D4A     		ldr	r2, .L80+16
 750 006e 1378     		ldrb	r3, [r2]	@ zero_extendqisi2
 751 0070 43F00103 		orr	r3, r3, #1
 752 0074 1370     		strb	r3, [r2]
 753 0076 04E0     		b	.L60
 754              	.L59:
 624:Generated_Source\PSoC5/USBUART_std.c ****         }
 755              		.loc 1 624 0
 756 0078 5A4A     		ldr	r2, .L80+16
 757 007a 1378     		ldrb	r3, [r2]	@ zero_extendqisi2
 758 007c 03F0FE03 		and	r3, r3, #254
 759 0080 1370     		strb	r3, [r2]
 760              	.L60:
 761              	.LVL66:
 629:Generated_Source\PSoC5/USBUART_std.c **** 
 762              		.loc 1 629 0
 763 0082 98F80870 		ldrb	r7, [r8, #8]	@ zero_extendqisi2
 764              	.LVL67:
 611:Generated_Source\PSoC5/USBUART_std.c ****         #endif  /* (USBUART_ENABLE_CDC_CLASS) */  
ARM GAS  C:\Users\ingan\AppData\Local\Temp\ccPtKCQI.s 			page 34


 765              		.loc 1 611 0
 766 0086 4FF0000A 		mov	r10, #0
 687:Generated_Source\PSoC5/USBUART_std.c ****             {
 767              		.loc 1 687 0
 768 008a 0126     		movs	r6, #1
 769 008c 6FE0     		b	.L61
 770              	.LVL68:
 771              	.L71:
 690:Generated_Source\PSoC5/USBUART_std.c ****                 /* Find max length for each EP and select it (length could be different in differen
 772              		.loc 1 690 0
 773 008e D8F80C50 		ldr	r5, [r8, #12]
 774              	.LVL69:
 694:Generated_Source\PSoC5/USBUART_std.c ****                 {
 775              		.loc 1 694 0
 776 0092 0024     		movs	r4, #0
 777 0094 67E0     		b	.L62
 778              	.LVL70:
 779              	.L70:
 696:Generated_Source\PSoC5/USBUART_std.c ****                     {
 780              		.loc 1 696 0
 781 0096 AB78     		ldrb	r3, [r5, #2]	@ zero_extendqisi2
 782 0098 03F07F03 		and	r3, r3, #127
 783 009c 9E42     		cmp	r6, r3
 784 009e 5FD1     		bne	.L63
 699:Generated_Source\PSoC5/USBUART_std.c ****                         {
 785              		.loc 1 699 0
 786 00a0 3146     		mov	r1, r6
 787 00a2 06EB4600 		add	r0, r6, r6, lsl #1
 788 00a6 8300     		lsls	r3, r0, #2
 789 00a8 4A48     		ldr	r0, .L80
 790 00aa 0344     		add	r3, r3, r0
 791 00ac 1B89     		ldrh	r3, [r3, #8]
 792 00ae 9BB2     		uxth	r3, r3
 793 00b0 A888     		ldrh	r0, [r5, #4]
 794 00b2 8342     		cmp	r3, r0
 795 00b4 06D2     		bcs	.L64
 701:Generated_Source\PSoC5/USBUART_std.c ****                         }
 796              		.loc 1 701 0
 797 00b6 06EB460E 		add	lr, r6, r6, lsl #1
 798 00ba 4FEA8E03 		lsl	r3, lr, #2
 799 00be 454A     		ldr	r2, .L80
 800 00c0 1344     		add	r3, r3, r2
 801 00c2 1881     		strh	r0, [r3, #8]	@ movhi
 802              	.L64:
 705:Generated_Source\PSoC5/USBUART_std.c ****                         {                            
 803              		.loc 1 705 0
 804 00c4 2B78     		ldrb	r3, [r5]	@ zero_extendqisi2
 805 00c6 4448     		ldr	r0, .L80+4
 806 00c8 C35C     		ldrb	r3, [r0, r3]	@ zero_extendqisi2
 807 00ca DBB2     		uxtb	r3, r3
 808 00cc 6878     		ldrb	r0, [r5, #1]	@ zero_extendqisi2
 809 00ce 8342     		cmp	r3, r0
 810 00d0 46D1     		bne	.L63
 707:Generated_Source\PSoC5/USBUART_std.c ****                             USBUART_EP[i].attrib = pEP->attributes;
 811              		.loc 1 707 0
 812 00d2 95F802C0 		ldrb	ip, [r5, #2]	@ zero_extendqisi2
 813 00d6 DFF8FCE0 		ldr	lr, .L80
ARM GAS  C:\Users\ingan\AppData\Local\Temp\ccPtKCQI.s 			page 35


 814 00da 4B00     		lsls	r3, r1, #1
 815 00dc 0B44     		add	r3, r3, r1
 816 00de 9800     		lsls	r0, r3, #2
 817 00e0 0EEB0003 		add	r3, lr, r0
 818 00e4 83F804C0 		strb	ip, [r3, #4]
 708:Generated_Source\PSoC5/USBUART_std.c ****                             
 819              		.loc 1 708 0
 820 00e8 EB78     		ldrb	r3, [r5, #3]	@ zero_extendqisi2
 821 00ea 0EF80030 		strb	r3, [lr, r0]
 710:Generated_Source\PSoC5/USBUART_std.c ****                             
 822              		.loc 1 710 0
 823 00ee EB78     		ldrb	r3, [r5, #3]	@ zero_extendqisi2
 824 00f0 03F00303 		and	r3, r3, #3
 825              	.LVL71:
 712:Generated_Source\PSoC5/USBUART_std.c ****                             {
 826              		.loc 1 712 0
 827 00f4 95F90200 		ldrsb	r0, [r5, #2]
 828 00f8 0028     		cmp	r0, #0
 829 00fa 13DA     		bge	.L65
 715:Generated_Source\PSoC5/USBUART_std.c ****                                 USBUART_EP[i].apiEpState = USBUART_EVENT_PENDING;
 830              		.loc 1 715 0
 831 00fc 012B     		cmp	r3, #1
 832 00fe 02D1     		bne	.L77
 833 0100 4FF00709 		mov	r9, #7
 834 0104 01E0     		b	.L66
 835              	.L77:
 836 0106 4FF00D09 		mov	r9, #13
 837              	.L66:
 715:Generated_Source\PSoC5/USBUART_std.c ****                                 USBUART_EP[i].apiEpState = USBUART_EVENT_PENDING;
 838              		.loc 1 715 0 is_stmt 0 discriminator 4
 839 010a DFF8C8E0 		ldr	lr, .L80
 840 010e 4B00     		lsls	r3, r1, #1
 841              	.LVL72:
 842 0110 03EB010C 		add	ip, r3, r1
 843 0114 4FEA8C00 		lsl	r0, ip, #2
 844 0118 7044     		add	r0, r0, lr
 845 011a 80F80590 		strb	r9, [r0, #5]
 846              	.LVL73:
 716:Generated_Source\PSoC5/USBUART_std.c ****                                 
 847              		.loc 1 716 0 is_stmt 1 discriminator 4
 848 011e 0121     		movs	r1, #1
 849 0120 4170     		strb	r1, [r0, #1]
 850 0122 12E0     		b	.L67
 851              	.LVL74:
 852              	.L65:
 728:Generated_Source\PSoC5/USBUART_std.c ****                                 USBUART_EP[i].apiEpState = USBUART_NO_EVENT_PENDING;
 853              		.loc 1 728 0
 854 0124 012B     		cmp	r3, #1
 855 0126 02D1     		bne	.L78
 856 0128 4FF00509 		mov	r9, #5
 857 012c 01E0     		b	.L68
 858              	.L78:
 859 012e 4FF00909 		mov	r9, #9
 860              	.L68:
 728:Generated_Source\PSoC5/USBUART_std.c ****                                 USBUART_EP[i].apiEpState = USBUART_NO_EVENT_PENDING;
 861              		.loc 1 728 0 is_stmt 0 discriminator 4
 862 0132 DFF8A0E0 		ldr	lr, .L80
ARM GAS  C:\Users\ingan\AppData\Local\Temp\ccPtKCQI.s 			page 36


 863 0136 4B00     		lsls	r3, r1, #1
 864              	.LVL75:
 865 0138 03EB010C 		add	ip, r3, r1
 866 013c 4FEA8C00 		lsl	r0, ip, #2
 867 0140 7044     		add	r0, r0, lr
 868 0142 80F80590 		strb	r9, [r0, #5]
 869              	.LVL76:
 729:Generated_Source\PSoC5/USBUART_std.c ****                                 
 870              		.loc 1 729 0 is_stmt 1 discriminator 4
 871 0146 0021     		movs	r1, #0
 872 0148 4170     		strb	r1, [r0, #1]
 873              	.L67:
 740:Generated_Source\PSoC5/USBUART_std.c ****                             {
 874              		.loc 1 740 0
 875 014a AB79     		ldrb	r3, [r5, #6]	@ zero_extendqisi2
 876 014c 0A2B     		cmp	r3, #10
 877 014e 01D0     		beq	.L69
 740:Generated_Source\PSoC5/USBUART_std.c ****                             {
 878              		.loc 1 740 0 is_stmt 0 discriminator 1
 879 0150 022B     		cmp	r3, #2
 880 0152 05D1     		bne	.L63
 881              	.L69:
 742:Generated_Source\PSoC5/USBUART_std.c ****                             }
 882              		.loc 1 742 0 is_stmt 1
 883 0154 5246     		mov	r2, r10
 884 0156 3146     		mov	r1, r6
 885 0158 2846     		mov	r0, r5
 886 015a FFF7FEFF 		bl	USBUART_Cdc_EpInit
 887              	.LVL77:
 888 015e 8246     		mov	r10, r0
 889              	.LVL78:
 890              	.L63:
 752:Generated_Source\PSoC5/USBUART_std.c ****                 }
 891              		.loc 1 752 0 discriminator 2
 892 0160 0835     		adds	r5, r5, #8
 893              	.LVL79:
 694:Generated_Source\PSoC5/USBUART_std.c ****                 {
 894              		.loc 1 694 0 discriminator 2
 895 0162 0134     		adds	r4, r4, #1
 896              	.LVL80:
 897 0164 E4B2     		uxtb	r4, r4
 898              	.LVL81:
 899              	.L62:
 694:Generated_Source\PSoC5/USBUART_std.c ****                 {
 900              		.loc 1 694 0 is_stmt 0 discriminator 1
 901 0166 BC42     		cmp	r4, r7
 902 0168 95D3     		bcc	.L70
 687:Generated_Source\PSoC5/USBUART_std.c ****             {
 903              		.loc 1 687 0 is_stmt 1 discriminator 2
 904 016a 0136     		adds	r6, r6, #1
 905              	.LVL82:
 906 016c F6B2     		uxtb	r6, r6
 907              	.LVL83:
 908              	.L61:
 687:Generated_Source\PSoC5/USBUART_std.c ****             {
 909              		.loc 1 687 0 is_stmt 0 discriminator 1
 910 016e 082E     		cmp	r6, #8
ARM GAS  C:\Users\ingan\AppData\Local\Temp\ccPtKCQI.s 			page 37


 911 0170 8DD9     		bls	.L71
 762:Generated_Source\PSoC5/USBUART_std.c ****         for (i = 0u; i < ep; i++)
 912              		.loc 1 762 0 is_stmt 1
 913 0172 D8F80C00 		ldr	r0, [r8, #12]
 914              	.LVL84:
 763:Generated_Source\PSoC5/USBUART_std.c ****         {
 915              		.loc 1 763 0
 916 0176 0022     		movs	r2, #0
 917 0178 0CE0     		b	.L72
 918              	.LVL85:
 919              	.L73:
 766:Generated_Source\PSoC5/USBUART_std.c ****             pEP = &pEP[1u];
 920              		.loc 1 766 0 discriminator 3
 921 017a 8378     		ldrb	r3, [r0, #2]	@ zero_extendqisi2
 922 017c 03F07F03 		and	r3, r3, #127
 923 0180 10F8084B 		ldrb	r4, [r0], #8	@ zero_extendqisi2
 924              	.LVL86:
 925 0184 03EB4303 		add	r3, r3, r3, lsl #1
 926 0188 9900     		lsls	r1, r3, #2
 927 018a 124B     		ldr	r3, .L80
 928 018c 1944     		add	r1, r1, r3
 929 018e 8C72     		strb	r4, [r1, #10]
 930              	.LVL87:
 763:Generated_Source\PSoC5/USBUART_std.c ****         {
 931              		.loc 1 763 0 discriminator 3
 932 0190 0132     		adds	r2, r2, #1
 933              	.LVL88:
 934 0192 D2B2     		uxtb	r2, r2
 935              	.LVL89:
 936              	.L72:
 763:Generated_Source\PSoC5/USBUART_std.c ****         {
 937              		.loc 1 763 0 is_stmt 0 discriminator 1
 938 0194 BA42     		cmp	r2, r7
 939 0196 F0D3     		bcc	.L73
 771:Generated_Source\PSoC5/USBUART_std.c ****         
 940              		.loc 1 771 0 is_stmt 1
 941 0198 FFF7FEFF 		bl	USBUART_GetInterfaceClassTablePtr
 942              	.LVL90:
 943 019c 124B     		ldr	r3, .L80+20
 944 019e 1860     		str	r0, [r3]
 945              	.LVL91:
 775:Generated_Source\PSoC5/USBUART_std.c ****         for (ep = USBUART_EP1; ep < USBUART_MAX_EP; ++ep)
 946              		.loc 1 775 0
 947 01a0 0023     		movs	r3, #0
 776:Generated_Source\PSoC5/USBUART_std.c ****         {
 948              		.loc 1 776 0
 949 01a2 0121     		movs	r1, #1
 950 01a4 0FE0     		b	.L74
 951              	.LVL92:
 952              	.L75:
 778:Generated_Source\PSoC5/USBUART_std.c ****             buffCount += USBUART_EP[ep].bufferSize;
 953              		.loc 1 778 0 discriminator 3
 954 01a6 0B4D     		ldr	r5, .L80
 955 01a8 4A00     		lsls	r2, r1, #1
 956 01aa 5018     		adds	r0, r2, r1
 957 01ac 8400     		lsls	r4, r0, #2
 958 01ae 2C44     		add	r4, r4, r5
ARM GAS  C:\Users\ingan\AppData\Local\Temp\ccPtKCQI.s 			page 38


 959 01b0 E380     		strh	r3, [r4, #6]	@ movhi
 779:Generated_Source\PSoC5/USBUART_std.c ****             
 960              		.loc 1 779 0 discriminator 3
 961 01b2 2289     		ldrh	r2, [r4, #8]
 962 01b4 92B2     		uxth	r2, r2
 963 01b6 1344     		add	r3, r3, r2
 964              	.LVL93:
 965 01b8 9BB2     		uxth	r3, r3
 966              	.LVL94:
 783:Generated_Source\PSoC5/USBUART_std.c ****         #endif /* (USBUART_GEN_16BITS_EP_ACCESS) */            
 967              		.loc 1 783 0 discriminator 3
 968 01ba 03F00102 		and	r2, r3, #1
 969 01be 1344     		add	r3, r3, r2
 970              	.LVL95:
 971 01c0 9BB2     		uxth	r3, r3
 972              	.LVL96:
 776:Generated_Source\PSoC5/USBUART_std.c ****         {
 973              		.loc 1 776 0 discriminator 3
 974 01c2 0131     		adds	r1, r1, #1
 975              	.LVL97:
 976 01c4 C9B2     		uxtb	r1, r1
 977              	.LVL98:
 978              	.L74:
 776:Generated_Source\PSoC5/USBUART_std.c ****         {
 979              		.loc 1 776 0 is_stmt 0 discriminator 1
 980 01c6 0829     		cmp	r1, #8
 981 01c8 EDD9     		bls	.L75
 789:Generated_Source\PSoC5/USBUART_std.c ****     }
 982              		.loc 1 789 0 is_stmt 1
 983 01ca FFF7FEFF 		bl	USBUART_ConfigReg
 984              	.LVL99:
 985              	.L52:
 986 01ce BDE8F087 		pop	{r4, r5, r6, r7, r8, r9, r10, pc}
 987              	.L81:
 988 01d2 00BF     		.align	2
 989              	.L80:
 990 01d4 00000000 		.word	USBUART_EP
 991 01d8 00000000 		.word	USBUART_interfaceSetting
 992 01dc 00000000 		.word	USBUART_interfaceSettingLast
 993 01e0 00000000 		.word	USBUART_configuration
 994 01e4 00000000 		.word	USBUART_deviceStatus
 995 01e8 00000000 		.word	USBUART_interfaceClass
 996              	.LBE2:
 997              		.cfi_endproc
 998              	.LFE4:
 999              		.size	USBUART_Config, .-USBUART_Config
 1000              		.section	.text.USBUART_TerminateEP,"ax",%progbits
 1001              		.align	2
 1002              		.global	USBUART_TerminateEP
 1003              		.thumb
 1004              		.thumb_func
 1005              		.type	USBUART_TerminateEP, %function
 1006              	USBUART_TerminateEP:
 1007              	.LFB9:
1053:Generated_Source\PSoC5/USBUART_std.c **** 
1054:Generated_Source\PSoC5/USBUART_std.c **** 
1055:Generated_Source\PSoC5/USBUART_std.c **** /*******************************************************************************
ARM GAS  C:\Users\ingan\AppData\Local\Temp\ccPtKCQI.s 			page 39


1056:Generated_Source\PSoC5/USBUART_std.c **** * Function Name: USBUART_TerminateEP
1057:Generated_Source\PSoC5/USBUART_std.c **** ****************************************************************************//**
1058:Generated_Source\PSoC5/USBUART_std.c **** *
1059:Generated_Source\PSoC5/USBUART_std.c **** *  This function terminates the specified USBFS endpoint.
1060:Generated_Source\PSoC5/USBUART_std.c **** *  This function should be used before endpoint reconfiguration.
1061:Generated_Source\PSoC5/USBUART_std.c **** *
1062:Generated_Source\PSoC5/USBUART_std.c **** *  \param ep Contains the data endpoint number.
1063:Generated_Source\PSoC5/USBUART_std.c **** *
1064:Generated_Source\PSoC5/USBUART_std.c **** *  \reentrant
1065:Generated_Source\PSoC5/USBUART_std.c **** *  No.
1066:Generated_Source\PSoC5/USBUART_std.c **** *
1067:Generated_Source\PSoC5/USBUART_std.c **** * \sideeffect
1068:Generated_Source\PSoC5/USBUART_std.c **** * 
1069:Generated_Source\PSoC5/USBUART_std.c **** * The device responds with a NAK for any transactions on the selected endpoint.
1070:Generated_Source\PSoC5/USBUART_std.c **** *   
1071:Generated_Source\PSoC5/USBUART_std.c **** *******************************************************************************/
1072:Generated_Source\PSoC5/USBUART_std.c **** void USBUART_TerminateEP(uint8 epNumber) 
1073:Generated_Source\PSoC5/USBUART_std.c **** {
 1008              		.loc 1 1073 0
 1009              		.cfi_startproc
 1010              		@ args = 0, pretend = 0, frame = 0
 1011              		@ frame_needed = 0, uses_anonymous_args = 0
 1012              		@ link register save eliminated.
 1013              	.LVL100:
1074:Generated_Source\PSoC5/USBUART_std.c ****     /* Get endpoint number */
1075:Generated_Source\PSoC5/USBUART_std.c ****     epNumber &= USBUART_DIR_UNUSED;
 1014              		.loc 1 1075 0
 1015 0000 00F07F00 		and	r0, r0, #127
 1016              	.LVL101:
1076:Generated_Source\PSoC5/USBUART_std.c **** 
1077:Generated_Source\PSoC5/USBUART_std.c ****     if ((epNumber > USBUART_EP0) && (epNumber < USBUART_MAX_EP))
 1017              		.loc 1 1077 0
 1018 0004 431E     		subs	r3, r0, #1
 1019 0006 DBB2     		uxtb	r3, r3
 1020 0008 072B     		cmp	r3, #7
 1021 000a 19D8     		bhi	.L82
1078:Generated_Source\PSoC5/USBUART_std.c ****     {
1079:Generated_Source\PSoC5/USBUART_std.c ****         /* Set the endpoint Halt */
1080:Generated_Source\PSoC5/USBUART_std.c ****         USBUART_EP[epNumber].hwEpState |= USBUART_ENDPOINT_STATUS_HALT;
 1022              		.loc 1 1080 0
 1023 000c 4200     		lsls	r2, r0, #1
 1024 000e 0244     		add	r2, r2, r0
 1025 0010 9300     		lsls	r3, r2, #2
 1026 0012 0C4A     		ldr	r2, .L85
 1027 0014 1344     		add	r3, r3, r2
 1028 0016 9A78     		ldrb	r2, [r3, #2]	@ zero_extendqisi2
 1029 0018 42F00102 		orr	r2, r2, #1
 1030 001c 9A70     		strb	r2, [r3, #2]
1081:Generated_Source\PSoC5/USBUART_std.c **** 
1082:Generated_Source\PSoC5/USBUART_std.c ****         /* Clear the data toggle */
1083:Generated_Source\PSoC5/USBUART_std.c ****         USBUART_EP[epNumber].epToggle = 0u;
 1031              		.loc 1 1083 0
 1032 001e 0022     		movs	r2, #0
 1033 0020 DA70     		strb	r2, [r3, #3]
1084:Generated_Source\PSoC5/USBUART_std.c ****         USBUART_EP[epNumber].apiEpState = USBUART_NO_EVENT_ALLOWED;
 1034              		.loc 1 1084 0
 1035 0022 0222     		movs	r2, #2
ARM GAS  C:\Users\ingan\AppData\Local\Temp\ccPtKCQI.s 			page 40


 1036 0024 5A70     		strb	r2, [r3, #1]
1085:Generated_Source\PSoC5/USBUART_std.c **** 
1086:Generated_Source\PSoC5/USBUART_std.c ****         if ((USBUART_EP[epNumber].addr & USBUART_DIR_IN) != 0u)
 1037              		.loc 1 1086 0
 1038 0026 1B79     		ldrb	r3, [r3, #4]	@ zero_extendqisi2
 1039 0028 13F0800F 		tst	r3, #128
 1040 002c 04D0     		beq	.L84
1087:Generated_Source\PSoC5/USBUART_std.c ****         {   
1088:Generated_Source\PSoC5/USBUART_std.c ****             /* IN Endpoint */
1089:Generated_Source\PSoC5/USBUART_std.c ****             USBUART_SIE_EP_BASE.sieEp[epNumber].epCr0 = USBUART_MODE_NAK_IN;
 1041              		.loc 1 1089 0
 1042 002e 0001     		lsls	r0, r0, #4
 1043              	.LVL102:
 1044 0030 054B     		ldr	r3, .L85+4
 1045 0032 0C22     		movs	r2, #12
 1046 0034 1A54     		strb	r2, [r3, r0]
 1047 0036 7047     		bx	lr
 1048              	.LVL103:
 1049              	.L84:
1090:Generated_Source\PSoC5/USBUART_std.c ****         }
1091:Generated_Source\PSoC5/USBUART_std.c ****         else
1092:Generated_Source\PSoC5/USBUART_std.c ****         {
1093:Generated_Source\PSoC5/USBUART_std.c ****             /* OUT Endpoint */
1094:Generated_Source\PSoC5/USBUART_std.c ****             USBUART_SIE_EP_BASE.sieEp[epNumber].epCr0 = USBUART_MODE_NAK_OUT;
 1050              		.loc 1 1094 0
 1051 0038 0001     		lsls	r0, r0, #4
 1052              	.LVL104:
 1053 003a 034B     		ldr	r3, .L85+4
 1054 003c 0822     		movs	r2, #8
 1055 003e 1A54     		strb	r2, [r3, r0]
 1056              	.L82:
 1057 0040 7047     		bx	lr
 1058              	.L86:
 1059 0042 00BF     		.align	2
 1060              	.L85:
 1061 0044 00000000 		.word	USBUART_EP
 1062 0048 FE5F0040 		.word	1073766398
 1063              		.cfi_endproc
 1064              	.LFE9:
 1065              		.size	USBUART_TerminateEP, .-USBUART_TerminateEP
 1066              		.section	.text.USBUART_SetEndpointHalt,"ax",%progbits
 1067              		.align	2
 1068              		.global	USBUART_SetEndpointHalt
 1069              		.thumb
 1070              		.thumb_func
 1071              		.type	USBUART_SetEndpointHalt, %function
 1072              	USBUART_SetEndpointHalt:
 1073              	.LFB10:
1095:Generated_Source\PSoC5/USBUART_std.c ****         }
1096:Generated_Source\PSoC5/USBUART_std.c ****     }
1097:Generated_Source\PSoC5/USBUART_std.c **** }
1098:Generated_Source\PSoC5/USBUART_std.c **** 
1099:Generated_Source\PSoC5/USBUART_std.c **** 
1100:Generated_Source\PSoC5/USBUART_std.c **** /*******************************************************************************
1101:Generated_Source\PSoC5/USBUART_std.c **** * Function Name: USBUART_SetEndpointHalt
1102:Generated_Source\PSoC5/USBUART_std.c **** ****************************************************************************//**
1103:Generated_Source\PSoC5/USBUART_std.c **** *
ARM GAS  C:\Users\ingan\AppData\Local\Temp\ccPtKCQI.s 			page 41


1104:Generated_Source\PSoC5/USBUART_std.c **** *  This routine handles set endpoint halt.
1105:Generated_Source\PSoC5/USBUART_std.c **** *
1106:Generated_Source\PSoC5/USBUART_std.c **** * \return
1107:Generated_Source\PSoC5/USBUART_std.c **** *  requestHandled.
1108:Generated_Source\PSoC5/USBUART_std.c **** *
1109:Generated_Source\PSoC5/USBUART_std.c **** * \reentrant
1110:Generated_Source\PSoC5/USBUART_std.c **** *  No.
1111:Generated_Source\PSoC5/USBUART_std.c **** *
1112:Generated_Source\PSoC5/USBUART_std.c **** *******************************************************************************/
1113:Generated_Source\PSoC5/USBUART_std.c **** uint8 USBUART_SetEndpointHalt(void) 
1114:Generated_Source\PSoC5/USBUART_std.c **** {
 1074              		.loc 1 1114 0
 1075              		.cfi_startproc
 1076              		@ args = 0, pretend = 0, frame = 0
 1077              		@ frame_needed = 0, uses_anonymous_args = 0
 1078 0000 08B5     		push	{r3, lr}
 1079              		.cfi_def_cfa_offset 8
 1080              		.cfi_offset 3, -8
 1081              		.cfi_offset 14, -4
 1082              	.LVL105:
1115:Generated_Source\PSoC5/USBUART_std.c ****     uint8 requestHandled = USBUART_FALSE;
1116:Generated_Source\PSoC5/USBUART_std.c ****     uint8 ep;
1117:Generated_Source\PSoC5/USBUART_std.c ****     
1118:Generated_Source\PSoC5/USBUART_std.c ****     /* Set endpoint halt */
1119:Generated_Source\PSoC5/USBUART_std.c ****     ep = USBUART_wIndexLoReg & USBUART_DIR_UNUSED;
 1083              		.loc 1 1119 0
 1084 0002 154B     		ldr	r3, .L93
 1085 0004 1B79     		ldrb	r3, [r3, #4]	@ zero_extendqisi2
 1086 0006 03F07F03 		and	r3, r3, #127
 1087              	.LVL106:
1120:Generated_Source\PSoC5/USBUART_std.c **** 
1121:Generated_Source\PSoC5/USBUART_std.c ****     if ((ep > USBUART_EP0) && (ep < USBUART_MAX_EP))
 1088              		.loc 1 1121 0
 1089 000a 5A1E     		subs	r2, r3, #1
 1090 000c D2B2     		uxtb	r2, r2
 1091 000e 072A     		cmp	r2, #7
 1092 0010 20D8     		bhi	.L91
1122:Generated_Source\PSoC5/USBUART_std.c ****     {
1123:Generated_Source\PSoC5/USBUART_std.c ****         /* Set the endpoint Halt */
1124:Generated_Source\PSoC5/USBUART_std.c ****         USBUART_EP[ep].hwEpState |= (USBUART_ENDPOINT_STATUS_HALT);
 1093              		.loc 1 1124 0
 1094 0012 5900     		lsls	r1, r3, #1
 1095 0014 1944     		add	r1, r1, r3
 1096 0016 8A00     		lsls	r2, r1, #2
 1097 0018 1049     		ldr	r1, .L93+4
 1098 001a 0A44     		add	r2, r2, r1
 1099 001c 9178     		ldrb	r1, [r2, #2]	@ zero_extendqisi2
 1100 001e 41F00101 		orr	r1, r1, #1
 1101 0022 9170     		strb	r1, [r2, #2]
1125:Generated_Source\PSoC5/USBUART_std.c **** 
1126:Generated_Source\PSoC5/USBUART_std.c ****         /* Clear the data toggle */
1127:Generated_Source\PSoC5/USBUART_std.c ****         USBUART_EP[ep].epToggle = 0u;
 1102              		.loc 1 1127 0
 1103 0024 0021     		movs	r1, #0
 1104 0026 D170     		strb	r1, [r2, #3]
1128:Generated_Source\PSoC5/USBUART_std.c ****         USBUART_EP[ep].apiEpState |= USBUART_NO_EVENT_ALLOWED;
 1105              		.loc 1 1128 0
ARM GAS  C:\Users\ingan\AppData\Local\Temp\ccPtKCQI.s 			page 42


 1106 0028 5178     		ldrb	r1, [r2, #1]	@ zero_extendqisi2
 1107 002a 41F00201 		orr	r1, r1, #2
 1108 002e 5170     		strb	r1, [r2, #1]
1129:Generated_Source\PSoC5/USBUART_std.c **** 
1130:Generated_Source\PSoC5/USBUART_std.c ****         if ((USBUART_EP[ep].addr & USBUART_DIR_IN) != 0u)
 1109              		.loc 1 1130 0
 1110 0030 1279     		ldrb	r2, [r2, #4]	@ zero_extendqisi2
 1111 0032 12F0800F 		tst	r2, #128
 1112 0036 05D0     		beq	.L89
1131:Generated_Source\PSoC5/USBUART_std.c ****         {
1132:Generated_Source\PSoC5/USBUART_std.c ****             /* IN Endpoint */
1133:Generated_Source\PSoC5/USBUART_std.c ****             USBUART_SIE_EP_BASE.sieEp[ep].epCr0 = (USBUART_MODE_STALL_DATA_EP | 
 1113              		.loc 1 1133 0
 1114 0038 1B01     		lsls	r3, r3, #4
 1115              	.LVL107:
 1116 003a 094A     		ldr	r2, .L93+8
 1117 003c 1A44     		add	r2, r2, r3
 1118 003e 8D23     		movs	r3, #141
 1119 0040 9370     		strb	r3, [r2, #2]
 1120 0042 04E0     		b	.L90
 1121              	.LVL108:
 1122              	.L89:
1134:Generated_Source\PSoC5/USBUART_std.c ****                                                             USBUART_MODE_ACK_IN);
1135:Generated_Source\PSoC5/USBUART_std.c ****         }
1136:Generated_Source\PSoC5/USBUART_std.c ****         else
1137:Generated_Source\PSoC5/USBUART_std.c ****         {
1138:Generated_Source\PSoC5/USBUART_std.c ****             /* OUT Endpoint */
1139:Generated_Source\PSoC5/USBUART_std.c ****             USBUART_SIE_EP_BASE.sieEp[ep].epCr0 = (USBUART_MODE_STALL_DATA_EP | 
 1123              		.loc 1 1139 0
 1124 0044 1B01     		lsls	r3, r3, #4
 1125              	.LVL109:
 1126 0046 064A     		ldr	r2, .L93+8
 1127 0048 1A44     		add	r2, r2, r3
 1128 004a 8923     		movs	r3, #137
 1129 004c 9370     		strb	r3, [r2, #2]
 1130              	.L90:
1140:Generated_Source\PSoC5/USBUART_std.c ****                                                             USBUART_MODE_ACK_OUT);
1141:Generated_Source\PSoC5/USBUART_std.c ****         }
1142:Generated_Source\PSoC5/USBUART_std.c ****         requestHandled = USBUART_InitNoDataControlTransfer();
 1131              		.loc 1 1142 0
 1132 004e FFF7FEFF 		bl	USBUART_InitNoDataControlTransfer
 1133              	.LVL110:
 1134 0052 08BD     		pop	{r3, pc}
 1135              	.LVL111:
 1136              	.L91:
1115:Generated_Source\PSoC5/USBUART_std.c ****     uint8 ep;
 1137              		.loc 1 1115 0
 1138 0054 0020     		movs	r0, #0
 1139              	.LVL112:
1143:Generated_Source\PSoC5/USBUART_std.c ****     }
1144:Generated_Source\PSoC5/USBUART_std.c **** 
1145:Generated_Source\PSoC5/USBUART_std.c ****     return (requestHandled);
1146:Generated_Source\PSoC5/USBUART_std.c **** }
 1140              		.loc 1 1146 0
 1141 0056 08BD     		pop	{r3, pc}
 1142              	.LVL113:
 1143              	.L94:
ARM GAS  C:\Users\ingan\AppData\Local\Temp\ccPtKCQI.s 			page 43


 1144              		.align	2
 1145              	.L93:
 1146 0058 00600040 		.word	1073766400
 1147 005c 00000000 		.word	USBUART_EP
 1148 0060 FC5F0040 		.word	1073766396
 1149              		.cfi_endproc
 1150              	.LFE10:
 1151              		.size	USBUART_SetEndpointHalt, .-USBUART_SetEndpointHalt
 1152              		.section	.text.USBUART_ClearEndpointHalt,"ax",%progbits
 1153              		.align	2
 1154              		.global	USBUART_ClearEndpointHalt
 1155              		.thumb
 1156              		.thumb_func
 1157              		.type	USBUART_ClearEndpointHalt, %function
 1158              	USBUART_ClearEndpointHalt:
 1159              	.LFB11:
1147:Generated_Source\PSoC5/USBUART_std.c **** 
1148:Generated_Source\PSoC5/USBUART_std.c **** 
1149:Generated_Source\PSoC5/USBUART_std.c **** /*******************************************************************************
1150:Generated_Source\PSoC5/USBUART_std.c **** * Function Name: USBUART_ClearEndpointHalt
1151:Generated_Source\PSoC5/USBUART_std.c **** ****************************************************************************//**
1152:Generated_Source\PSoC5/USBUART_std.c **** *
1153:Generated_Source\PSoC5/USBUART_std.c **** *  This routine handles clear endpoint halt.
1154:Generated_Source\PSoC5/USBUART_std.c **** *
1155:Generated_Source\PSoC5/USBUART_std.c **** * \return
1156:Generated_Source\PSoC5/USBUART_std.c **** *  requestHandled.
1157:Generated_Source\PSoC5/USBUART_std.c **** *
1158:Generated_Source\PSoC5/USBUART_std.c **** * \reentrant
1159:Generated_Source\PSoC5/USBUART_std.c **** *  No.
1160:Generated_Source\PSoC5/USBUART_std.c **** *
1161:Generated_Source\PSoC5/USBUART_std.c **** *******************************************************************************/
1162:Generated_Source\PSoC5/USBUART_std.c **** uint8 USBUART_ClearEndpointHalt(void) 
1163:Generated_Source\PSoC5/USBUART_std.c **** {
 1160              		.loc 1 1163 0
 1161              		.cfi_startproc
 1162              		@ args = 0, pretend = 0, frame = 0
 1163              		@ frame_needed = 0, uses_anonymous_args = 0
 1164              	.LVL114:
1164:Generated_Source\PSoC5/USBUART_std.c ****     uint8 requestHandled = USBUART_FALSE;
1165:Generated_Source\PSoC5/USBUART_std.c ****     uint8 ep;
1166:Generated_Source\PSoC5/USBUART_std.c **** 
1167:Generated_Source\PSoC5/USBUART_std.c ****     /* Clear endpoint halt */
1168:Generated_Source\PSoC5/USBUART_std.c ****     ep = USBUART_wIndexLoReg & USBUART_DIR_UNUSED;
 1165              		.loc 1 1168 0
 1166 0000 274B     		ldr	r3, .L104
 1167 0002 1B79     		ldrb	r3, [r3, #4]	@ zero_extendqisi2
 1168 0004 03F07F03 		and	r3, r3, #127
 1169              	.LVL115:
1169:Generated_Source\PSoC5/USBUART_std.c **** 
1170:Generated_Source\PSoC5/USBUART_std.c ****     if ((ep > USBUART_EP0) && (ep < USBUART_MAX_EP))
 1170              		.loc 1 1170 0
 1171 0008 5A1E     		subs	r2, r3, #1
 1172 000a D2B2     		uxtb	r2, r2
 1173 000c 072A     		cmp	r2, #7
 1174 000e 44D8     		bhi	.L101
1163:Generated_Source\PSoC5/USBUART_std.c ****     uint8 requestHandled = USBUART_FALSE;
 1175              		.loc 1 1163 0
ARM GAS  C:\Users\ingan\AppData\Local\Temp\ccPtKCQI.s 			page 44


 1176 0010 10B5     		push	{r4, lr}
 1177              		.cfi_def_cfa_offset 8
 1178              		.cfi_offset 4, -8
 1179              		.cfi_offset 14, -4
1171:Generated_Source\PSoC5/USBUART_std.c ****     {
1172:Generated_Source\PSoC5/USBUART_std.c ****         /* Clear the endpoint Halt */
1173:Generated_Source\PSoC5/USBUART_std.c ****         USBUART_EP[ep].hwEpState &= (uint8) ~USBUART_ENDPOINT_STATUS_HALT;
 1180              		.loc 1 1173 0
 1181 0012 5900     		lsls	r1, r3, #1
 1182 0014 1944     		add	r1, r1, r3
 1183 0016 8A00     		lsls	r2, r1, #2
 1184 0018 2249     		ldr	r1, .L104+4
 1185 001a 0A44     		add	r2, r2, r1
 1186 001c 9178     		ldrb	r1, [r2, #2]	@ zero_extendqisi2
 1187 001e 01F0FE01 		and	r1, r1, #254
 1188 0022 9170     		strb	r1, [r2, #2]
1174:Generated_Source\PSoC5/USBUART_std.c **** 
1175:Generated_Source\PSoC5/USBUART_std.c ****         /* Clear the data toggle */
1176:Generated_Source\PSoC5/USBUART_std.c ****         USBUART_EP[ep].epToggle = 0u;
 1189              		.loc 1 1176 0
 1190 0024 0021     		movs	r1, #0
 1191 0026 D170     		strb	r1, [r2, #3]
1177:Generated_Source\PSoC5/USBUART_std.c ****         
1178:Generated_Source\PSoC5/USBUART_std.c ****         /* Clear toggle bit for already armed packet */
1179:Generated_Source\PSoC5/USBUART_std.c ****         USBUART_SIE_EP_BASE.sieEp[ep].epCnt0 &= (uint8) ~(uint8)USBUART_EPX_CNT_DATA_TOGGLE;
 1192              		.loc 1 1179 0
 1193 0028 1F4C     		ldr	r4, .L104+8
 1194 002a 1801     		lsls	r0, r3, #4
 1195 002c 215C     		ldrb	r1, [r4, r0]	@ zero_extendqisi2
 1196 002e 01F07F01 		and	r1, r1, #127
 1197 0032 2154     		strb	r1, [r4, r0]
1180:Generated_Source\PSoC5/USBUART_std.c ****         
1181:Generated_Source\PSoC5/USBUART_std.c ****         /* Return API State as it was defined before */
1182:Generated_Source\PSoC5/USBUART_std.c ****         USBUART_EP[ep].apiEpState &= (uint8) ~USBUART_NO_EVENT_ALLOWED;
 1198              		.loc 1 1182 0
 1199 0034 5178     		ldrb	r1, [r2, #1]	@ zero_extendqisi2
 1200 0036 01F0FD01 		and	r1, r1, #253
 1201 003a 5170     		strb	r1, [r2, #1]
1183:Generated_Source\PSoC5/USBUART_std.c **** 
1184:Generated_Source\PSoC5/USBUART_std.c ****         if ((USBUART_EP[ep].addr & USBUART_DIR_IN) != 0u)
 1202              		.loc 1 1184 0
 1203 003c 1279     		ldrb	r2, [r2, #4]	@ zero_extendqisi2
 1204 003e 12F0800F 		tst	r2, #128
 1205 0042 13D0     		beq	.L97
1185:Generated_Source\PSoC5/USBUART_std.c ****         {
1186:Generated_Source\PSoC5/USBUART_std.c ****             /* IN Endpoint */
1187:Generated_Source\PSoC5/USBUART_std.c ****             if(USBUART_EP[ep].apiEpState == USBUART_IN_BUFFER_EMPTY)
 1206              		.loc 1 1187 0
 1207 0044 03EB4301 		add	r1, r3, r3, lsl #1
 1208 0048 8A00     		lsls	r2, r1, #2
 1209 004a 1649     		ldr	r1, .L104+4
 1210 004c 0A44     		add	r2, r2, r1
 1211 004e 5278     		ldrb	r2, [r2, #1]	@ zero_extendqisi2
 1212 0050 D2B2     		uxtb	r2, r2
 1213 0052 012A     		cmp	r2, #1
 1214 0054 04D1     		bne	.L98
1188:Generated_Source\PSoC5/USBUART_std.c ****             {       
ARM GAS  C:\Users\ingan\AppData\Local\Temp\ccPtKCQI.s 			page 45


1189:Generated_Source\PSoC5/USBUART_std.c ****                 /* Wait for next packet from application */
1190:Generated_Source\PSoC5/USBUART_std.c ****                 USBUART_SIE_EP_BASE.sieEp[ep].epCr0 = USBUART_MODE_NAK_IN;
 1215              		.loc 1 1190 0
 1216 0056 2246     		mov	r2, r4
 1217 0058 0244     		add	r2, r2, r0
 1218 005a 0C23     		movs	r3, #12
 1219              	.LVL116:
 1220 005c 9370     		strb	r3, [r2, #2]
 1221 005e 19E0     		b	.L99
 1222              	.LVL117:
 1223              	.L98:
1191:Generated_Source\PSoC5/USBUART_std.c ****             }
1192:Generated_Source\PSoC5/USBUART_std.c ****             else    /* Continue armed transfer */
1193:Generated_Source\PSoC5/USBUART_std.c ****             {
1194:Generated_Source\PSoC5/USBUART_std.c ****                 USBUART_SIE_EP_BASE.sieEp[ep].epCr0 = USBUART_MODE_ACK_IN;
 1224              		.loc 1 1194 0
 1225 0060 1B01     		lsls	r3, r3, #4
 1226              	.LVL118:
 1227 0062 114A     		ldr	r2, .L104+8
 1228 0064 1A44     		add	r2, r2, r3
 1229 0066 0D23     		movs	r3, #13
 1230 0068 9370     		strb	r3, [r2, #2]
 1231 006a 13E0     		b	.L99
 1232              	.LVL119:
 1233              	.L97:
1195:Generated_Source\PSoC5/USBUART_std.c ****             }
1196:Generated_Source\PSoC5/USBUART_std.c ****         }
1197:Generated_Source\PSoC5/USBUART_std.c ****         else
1198:Generated_Source\PSoC5/USBUART_std.c ****         {
1199:Generated_Source\PSoC5/USBUART_std.c ****             /* OUT Endpoint */
1200:Generated_Source\PSoC5/USBUART_std.c ****             if (USBUART_EP[ep].apiEpState == USBUART_OUT_BUFFER_FULL)
 1234              		.loc 1 1200 0
 1235 006c 03EB4301 		add	r1, r3, r3, lsl #1
 1236 0070 8A00     		lsls	r2, r1, #2
 1237 0072 0C49     		ldr	r1, .L104+4
 1238 0074 0A44     		add	r2, r2, r1
 1239 0076 5278     		ldrb	r2, [r2, #1]	@ zero_extendqisi2
 1240 0078 D2B2     		uxtb	r2, r2
 1241 007a 012A     		cmp	r2, #1
 1242 007c 05D1     		bne	.L100
1201:Generated_Source\PSoC5/USBUART_std.c ****             {       
1202:Generated_Source\PSoC5/USBUART_std.c ****                 /* Allow application to read full buffer */
1203:Generated_Source\PSoC5/USBUART_std.c ****                 USBUART_SIE_EP_BASE.sieEp[ep].epCr0 = USBUART_MODE_NAK_OUT;
 1243              		.loc 1 1203 0
 1244 007e 1B01     		lsls	r3, r3, #4
 1245              	.LVL120:
 1246 0080 094A     		ldr	r2, .L104+8
 1247 0082 1A44     		add	r2, r2, r3
 1248 0084 0823     		movs	r3, #8
 1249 0086 9370     		strb	r3, [r2, #2]
 1250 0088 04E0     		b	.L99
 1251              	.LVL121:
 1252              	.L100:
1204:Generated_Source\PSoC5/USBUART_std.c ****             }
1205:Generated_Source\PSoC5/USBUART_std.c ****             else    /* Mark endpoint as empty, so it will be reloaded */
1206:Generated_Source\PSoC5/USBUART_std.c ****             {
1207:Generated_Source\PSoC5/USBUART_std.c ****                 USBUART_SIE_EP_BASE.sieEp[ep].epCr0 = USBUART_MODE_ACK_OUT;
ARM GAS  C:\Users\ingan\AppData\Local\Temp\ccPtKCQI.s 			page 46


 1253              		.loc 1 1207 0
 1254 008a 1B01     		lsls	r3, r3, #4
 1255              	.LVL122:
 1256 008c 064A     		ldr	r2, .L104+8
 1257 008e 1A44     		add	r2, r2, r3
 1258 0090 0923     		movs	r3, #9
 1259 0092 9370     		strb	r3, [r2, #2]
 1260              	.L99:
1208:Generated_Source\PSoC5/USBUART_std.c ****             }
1209:Generated_Source\PSoC5/USBUART_std.c ****         }
1210:Generated_Source\PSoC5/USBUART_std.c ****         
1211:Generated_Source\PSoC5/USBUART_std.c ****         requestHandled = USBUART_InitNoDataControlTransfer();
 1261              		.loc 1 1211 0
 1262 0094 FFF7FEFF 		bl	USBUART_InitNoDataControlTransfer
 1263              	.LVL123:
 1264 0098 10BD     		pop	{r4, pc}
 1265              	.LVL124:
 1266              	.L101:
 1267              		.cfi_def_cfa_offset 0
 1268              		.cfi_restore 4
 1269              		.cfi_restore 14
1164:Generated_Source\PSoC5/USBUART_std.c ****     uint8 ep;
 1270              		.loc 1 1164 0
 1271 009a 0020     		movs	r0, #0
 1272 009c 7047     		bx	lr
 1273              	.L105:
 1274 009e 00BF     		.align	2
 1275              	.L104:
 1276 00a0 00600040 		.word	1073766400
 1277 00a4 00000000 		.word	USBUART_EP
 1278 00a8 FC5F0040 		.word	1073766396
 1279              		.cfi_endproc
 1280              	.LFE11:
 1281              		.size	USBUART_ClearEndpointHalt, .-USBUART_ClearEndpointHalt
 1282              		.section	.text.USBUART_ValidateAlternateSetting,"ax",%progbits
 1283              		.align	2
 1284              		.global	USBUART_ValidateAlternateSetting
 1285              		.thumb
 1286              		.thumb_func
 1287              		.type	USBUART_ValidateAlternateSetting, %function
 1288              	USBUART_ValidateAlternateSetting:
 1289              	.LFB12:
1212:Generated_Source\PSoC5/USBUART_std.c ****     }
1213:Generated_Source\PSoC5/USBUART_std.c **** 
1214:Generated_Source\PSoC5/USBUART_std.c ****     return(requestHandled);
1215:Generated_Source\PSoC5/USBUART_std.c **** }
1216:Generated_Source\PSoC5/USBUART_std.c **** 
1217:Generated_Source\PSoC5/USBUART_std.c **** 
1218:Generated_Source\PSoC5/USBUART_std.c **** /*******************************************************************************
1219:Generated_Source\PSoC5/USBUART_std.c **** * Function Name: USBUART_ValidateAlternateSetting
1220:Generated_Source\PSoC5/USBUART_std.c **** ****************************************************************************//**
1221:Generated_Source\PSoC5/USBUART_std.c **** *
1222:Generated_Source\PSoC5/USBUART_std.c **** *  Validates (and records) a SET INTERFACE request.
1223:Generated_Source\PSoC5/USBUART_std.c **** *
1224:Generated_Source\PSoC5/USBUART_std.c **** * \return
1225:Generated_Source\PSoC5/USBUART_std.c **** *  requestHandled.
1226:Generated_Source\PSoC5/USBUART_std.c **** *
ARM GAS  C:\Users\ingan\AppData\Local\Temp\ccPtKCQI.s 			page 47


1227:Generated_Source\PSoC5/USBUART_std.c **** * \reentrant
1228:Generated_Source\PSoC5/USBUART_std.c **** *  No.
1229:Generated_Source\PSoC5/USBUART_std.c **** *
1230:Generated_Source\PSoC5/USBUART_std.c **** *******************************************************************************/
1231:Generated_Source\PSoC5/USBUART_std.c **** uint8 USBUART_ValidateAlternateSetting(void) 
1232:Generated_Source\PSoC5/USBUART_std.c **** {
 1290              		.loc 1 1232 0
 1291              		.cfi_startproc
 1292              		@ args = 0, pretend = 0, frame = 0
 1293              		@ frame_needed = 0, uses_anonymous_args = 0
 1294 0000 10B5     		push	{r4, lr}
 1295              		.cfi_def_cfa_offset 8
 1296              		.cfi_offset 4, -8
 1297              		.cfi_offset 14, -4
 1298              	.LVL125:
1233:Generated_Source\PSoC5/USBUART_std.c ****     uint8 requestHandled = USBUART_FALSE;
1234:Generated_Source\PSoC5/USBUART_std.c ****     
1235:Generated_Source\PSoC5/USBUART_std.c ****     uint8 interfaceNum;
1236:Generated_Source\PSoC5/USBUART_std.c ****     uint8 curInterfacesNum;
1237:Generated_Source\PSoC5/USBUART_std.c ****     const T_USBUART_LUT CYCODE *pTmp;
1238:Generated_Source\PSoC5/USBUART_std.c ****     
1239:Generated_Source\PSoC5/USBUART_std.c ****     /* Get interface number from the request. */
1240:Generated_Source\PSoC5/USBUART_std.c ****     interfaceNum = (uint8) USBUART_wIndexLoReg;
 1299              		.loc 1 1240 0
 1300 0002 0E4B     		ldr	r3, .L111
 1301 0004 1C79     		ldrb	r4, [r3, #4]	@ zero_extendqisi2
 1302 0006 E4B2     		uxtb	r4, r4
 1303              	.LVL126:
1241:Generated_Source\PSoC5/USBUART_std.c ****     
1242:Generated_Source\PSoC5/USBUART_std.c ****     /* Get number of interfaces for current configuration. */
1243:Generated_Source\PSoC5/USBUART_std.c ****     pTmp = USBUART_GetConfigTablePtr(USBUART_configuration - 1u);
 1304              		.loc 1 1243 0
 1305 0008 0D4B     		ldr	r3, .L111+4
 1306 000a 1878     		ldrb	r0, [r3]	@ zero_extendqisi2
 1307 000c 0138     		subs	r0, r0, #1
 1308 000e C0B2     		uxtb	r0, r0
 1309 0010 FFF7FEFF 		bl	USBUART_GetConfigTablePtr
 1310              	.LVL127:
1244:Generated_Source\PSoC5/USBUART_std.c ****     curInterfacesNum  = ((const uint8 *) pTmp->p_list)[USBUART_CONFIG_DESCR_NUM_INTERFACES];
 1311              		.loc 1 1244 0
 1312 0014 4368     		ldr	r3, [r0, #4]
 1313 0016 1B79     		ldrb	r3, [r3, #4]	@ zero_extendqisi2
 1314              	.LVL128:
1245:Generated_Source\PSoC5/USBUART_std.c **** 
1246:Generated_Source\PSoC5/USBUART_std.c ****     /* Validate that interface number is within range. */
1247:Generated_Source\PSoC5/USBUART_std.c ****     if ((interfaceNum <= curInterfacesNum) || (interfaceNum <= USBUART_MAX_INTERFACES_NUMBER))
 1315              		.loc 1 1247 0
 1316 0018 9C42     		cmp	r4, r3
 1317 001a 01D9     		bls	.L107
 1318              		.loc 1 1247 0 is_stmt 0 discriminator 1
 1319 001c 022C     		cmp	r4, #2
 1320 001e 0AD8     		bhi	.L109
 1321              	.L107:
1248:Generated_Source\PSoC5/USBUART_std.c ****     {
1249:Generated_Source\PSoC5/USBUART_std.c ****         /* Save current and new alternate settings (come with request) to make 
1250:Generated_Source\PSoC5/USBUART_std.c ****         * desicion about following endpoint re-configuration.
1251:Generated_Source\PSoC5/USBUART_std.c ****         */
ARM GAS  C:\Users\ingan\AppData\Local\Temp\ccPtKCQI.s 			page 48


1252:Generated_Source\PSoC5/USBUART_std.c ****         USBUART_interfaceSettingLast[interfaceNum] = USBUART_interfaceSetting[interfaceNum];
 1322              		.loc 1 1252 0 is_stmt 1
 1323 0020 084A     		ldr	r2, .L111+8
 1324 0022 135D     		ldrb	r3, [r2, r4]	@ zero_extendqisi2
 1325              	.LVL129:
 1326 0024 DBB2     		uxtb	r3, r3
 1327 0026 0849     		ldr	r1, .L111+12
 1328 0028 0B55     		strb	r3, [r1, r4]
1253:Generated_Source\PSoC5/USBUART_std.c ****         USBUART_interfaceSetting[interfaceNum]     = (uint8) USBUART_wValueLoReg;
 1329              		.loc 1 1253 0
 1330 002a 044B     		ldr	r3, .L111
 1331 002c 9B78     		ldrb	r3, [r3, #2]	@ zero_extendqisi2
 1332 002e DBB2     		uxtb	r3, r3
 1333 0030 1355     		strb	r3, [r2, r4]
 1334              	.LVL130:
1254:Generated_Source\PSoC5/USBUART_std.c ****         
1255:Generated_Source\PSoC5/USBUART_std.c ****         requestHandled = USBUART_TRUE;
 1335              		.loc 1 1255 0
 1336 0032 0120     		movs	r0, #1
 1337              	.LVL131:
 1338 0034 10BD     		pop	{r4, pc}
 1339              	.LVL132:
 1340              	.L109:
1233:Generated_Source\PSoC5/USBUART_std.c ****     
 1341              		.loc 1 1233 0
 1342 0036 0020     		movs	r0, #0
 1343              	.LVL133:
1256:Generated_Source\PSoC5/USBUART_std.c ****     }
1257:Generated_Source\PSoC5/USBUART_std.c **** 
1258:Generated_Source\PSoC5/USBUART_std.c ****     return (requestHandled);
1259:Generated_Source\PSoC5/USBUART_std.c **** }
 1344              		.loc 1 1259 0
 1345 0038 10BD     		pop	{r4, pc}
 1346              	.LVL134:
 1347              	.L112:
 1348 003a 00BF     		.align	2
 1349              	.L111:
 1350 003c 00600040 		.word	1073766400
 1351 0040 00000000 		.word	USBUART_configuration
 1352 0044 00000000 		.word	USBUART_interfaceSetting
 1353 0048 00000000 		.word	USBUART_interfaceSettingLast
 1354              		.cfi_endproc
 1355              	.LFE12:
 1356              		.size	USBUART_ValidateAlternateSetting, .-USBUART_ValidateAlternateSetting
 1357              		.section	.text.USBUART_HandleStandardRqst,"ax",%progbits
 1358              		.align	2
 1359              		.global	USBUART_HandleStandardRqst
 1360              		.thumb
 1361              		.thumb_func
 1362              		.type	USBUART_HandleStandardRqst, %function
 1363              	USBUART_HandleStandardRqst:
 1364              	.LFB0:
  85:Generated_Source\PSoC5/USBUART_std.c ****     uint8 requestHandled = USBUART_FALSE;
 1365              		.loc 1 85 0
 1366              		.cfi_startproc
 1367              		@ args = 0, pretend = 0, frame = 0
 1368              		@ frame_needed = 0, uses_anonymous_args = 0
ARM GAS  C:\Users\ingan\AppData\Local\Temp\ccPtKCQI.s 			page 49


 1369 0000 10B5     		push	{r4, lr}
 1370              		.cfi_def_cfa_offset 8
 1371              		.cfi_offset 4, -8
 1372              		.cfi_offset 14, -4
 1373              	.LVL135:
  89:Generated_Source\PSoC5/USBUART_std.c **** 
 1374              		.loc 1 89 0
 1375 0002 9C4B     		ldr	r3, .L168
 1376 0004 1B78     		ldrb	r3, [r3]	@ zero_extendqisi2
 1377 0006 DBB2     		uxtb	r3, r3
 1378              	.LVL136:
 102:Generated_Source\PSoC5/USBUART_std.c **** 
 1379              		.loc 1 102 0
 1380 0008 0021     		movs	r1, #0
 1381 000a 9B4A     		ldr	r2, .L168+4
 1382 000c 1180     		strh	r1, [r2]	@ movhi
 104:Generated_Source\PSoC5/USBUART_std.c ****     {
 1383              		.loc 1 104 0
 1384 000e 13F0800F 		tst	r3, #128
 1385 0012 00F0AD80 		beq	.L114
 107:Generated_Source\PSoC5/USBUART_std.c ****         {
 1386              		.loc 1 107 0
 1387 0016 974A     		ldr	r2, .L168
 1388 0018 5278     		ldrb	r2, [r2, #1]	@ zero_extendqisi2
 1389 001a D2B2     		uxtb	r2, r2
 1390 001c 0A2A     		cmp	r2, #10
 1391 001e 00F27481 		bhi	.L147
 1392 0022 DFE812F0 		tbh	[pc, r2, lsl #1]
 1393              	.L117:
 1394 0026 6900     		.2byte	(.L116-.L117)/2
 1395 0028 7201     		.2byte	(.L147-.L117)/2
 1396 002a 7201     		.2byte	(.L147-.L117)/2
 1397 002c 7201     		.2byte	(.L147-.L117)/2
 1398 002e 7201     		.2byte	(.L147-.L117)/2
 1399 0030 7201     		.2byte	(.L147-.L117)/2
 1400 0032 0B00     		.2byte	(.L118-.L117)/2
 1401 0034 7201     		.2byte	(.L147-.L117)/2
 1402 0036 9200     		.2byte	(.L119-.L117)/2
 1403 0038 7201     		.2byte	(.L147-.L117)/2
 1404 003a 9A00     		.2byte	(.L120-.L117)/2
 1405              		.p2align 1
 1406              	.L118:
 110:Generated_Source\PSoC5/USBUART_std.c ****                 {
 1407              		.loc 1 110 0
 1408 003c 8D4B     		ldr	r3, .L168
 1409              	.LVL137:
 1410 003e DB78     		ldrb	r3, [r3, #3]	@ zero_extendqisi2
 1411 0040 DBB2     		uxtb	r3, r3
 1412 0042 012B     		cmp	r3, #1
 1413 0044 09D1     		bne	.L121
 112:Generated_Source\PSoC5/USBUART_std.c ****                     USBUART_currentTD.pData = (volatile uint8 *)pTmp->p_list;
 1414              		.loc 1 112 0
 1415 0046 FFF7FEFF 		bl	USBUART_GetDeviceTablePtr
 1416              	.LVL138:
 113:Generated_Source\PSoC5/USBUART_std.c ****                     USBUART_currentTD.count = USBUART_DEVICE_DESCR_LENGTH;
 1417              		.loc 1 113 0
 1418 004a 4268     		ldr	r2, [r0, #4]
ARM GAS  C:\Users\ingan\AppData\Local\Temp\ccPtKCQI.s 			page 50


 1419 004c 8A4B     		ldr	r3, .L168+4
 1420 004e 5A60     		str	r2, [r3, #4]
 114:Generated_Source\PSoC5/USBUART_std.c ****                     
 1421              		.loc 1 114 0
 1422 0050 1222     		movs	r2, #18
 1423 0052 1A80     		strh	r2, [r3]	@ movhi
 116:Generated_Source\PSoC5/USBUART_std.c ****                 }
 1424              		.loc 1 116 0
 1425 0054 FFF7FEFF 		bl	USBUART_InitControlRead
 1426              	.LVL139:
 1427 0058 10BD     		pop	{r4, pc}
 1428              	.LVL140:
 1429              	.L121:
 118:Generated_Source\PSoC5/USBUART_std.c ****                 {
 1430              		.loc 1 118 0
 1431 005a 864B     		ldr	r3, .L168
 1432 005c DB78     		ldrb	r3, [r3, #3]	@ zero_extendqisi2
 1433 005e DBB2     		uxtb	r3, r3
 1434 0060 022B     		cmp	r3, #2
 1435 0062 13D1     		bne	.L122
 120:Generated_Source\PSoC5/USBUART_std.c ****                     
 1436              		.loc 1 120 0
 1437 0064 834B     		ldr	r3, .L168
 1438 0066 9878     		ldrb	r0, [r3, #2]	@ zero_extendqisi2
 1439 0068 FFF7FEFF 		bl	USBUART_GetConfigTablePtr
 1440              	.LVL141:
 123:Generated_Source\PSoC5/USBUART_std.c ****                     {
 1441              		.loc 1 123 0
 1442 006c 0028     		cmp	r0, #0
 1443 006e 00F04E81 		beq	.L148
 125:Generated_Source\PSoC5/USBUART_std.c ****                         USBUART_currentTD.count = (uint16)((uint16)(USBUART_currentTD.pData)[USBUAR
 1444              		.loc 1 125 0
 1445 0072 4268     		ldr	r2, [r0, #4]
 1446 0074 804B     		ldr	r3, .L168+4
 1447 0076 5A60     		str	r2, [r3, #4]
 126:Generated_Source\PSoC5/USBUART_std.c ****                                                                             (USBUART_currentTD.pDat
 1448              		.loc 1 126 0
 1449 0078 5A68     		ldr	r2, [r3, #4]
 1450 007a D178     		ldrb	r1, [r2, #3]	@ zero_extendqisi2
 127:Generated_Source\PSoC5/USBUART_std.c ****                         requestHandled  = USBUART_InitControlRead();
 1451              		.loc 1 127 0
 1452 007c 5A68     		ldr	r2, [r3, #4]
 1453 007e 9278     		ldrb	r2, [r2, #2]	@ zero_extendqisi2
 126:Generated_Source\PSoC5/USBUART_std.c ****                                                                             (USBUART_currentTD.pDat
 1454              		.loc 1 126 0
 1455 0080 42EA0122 		orr	r2, r2, r1, lsl #8
 1456 0084 1A80     		strh	r2, [r3]	@ movhi
 128:Generated_Source\PSoC5/USBUART_std.c ****                     }
 1457              		.loc 1 128 0
 1458 0086 FFF7FEFF 		bl	USBUART_InitControlRead
 1459              	.LVL142:
 1460 008a 10BD     		pop	{r4, pc}
 1461              	.LVL143:
 1462              	.L122:
 149:Generated_Source\PSoC5/USBUART_std.c ****                 {
 1463              		.loc 1 149 0
 1464 008c 794B     		ldr	r3, .L168
ARM GAS  C:\Users\ingan\AppData\Local\Temp\ccPtKCQI.s 			page 51


 1465 008e DB78     		ldrb	r3, [r3, #3]	@ zero_extendqisi2
 1466 0090 DBB2     		uxtb	r3, r3
 1467 0092 032B     		cmp	r3, #3
 1468 0094 05D0     		beq	.L149
 1469 0096 2CE0     		b	.L163
 1470              	.LVL144:
 1471              	.L126:
 159:Generated_Source\PSoC5/USBUART_std.c ****                         /* Move to next string descriptor */
 1472              		.loc 1 159 0
 1473 0098 0A78     		ldrb	r2, [r1]	@ zero_extendqisi2
 1474              	.LVL145:
 161:Generated_Source\PSoC5/USBUART_std.c ****                         nStr++;
 1475              		.loc 1 161 0
 1476 009a 1144     		add	r1, r1, r2
 1477              	.LVL146:
 162:Generated_Source\PSoC5/USBUART_std.c ****                     }
 1478              		.loc 1 162 0
 1479 009c 0133     		adds	r3, r3, #1
 1480              	.LVL147:
 1481 009e DBB2     		uxtb	r3, r3
 1482              	.LVL148:
 1483 00a0 01E0     		b	.L123
 1484              	.LVL149:
 1485              	.L149:
 1486 00a2 0023     		movs	r3, #0
 1487 00a4 7549     		ldr	r1, .L168+8
 1488              	.LVL150:
 1489              	.L123:
 156:Generated_Source\PSoC5/USBUART_std.c ****                     {
 1490              		.loc 1 156 0
 1491 00a6 734A     		ldr	r2, .L168
 1492 00a8 9278     		ldrb	r2, [r2, #2]	@ zero_extendqisi2
 1493 00aa D2B2     		uxtb	r2, r2
 1494 00ac 9342     		cmp	r3, r2
 1495 00ae 03D2     		bcs	.L125
 156:Generated_Source\PSoC5/USBUART_std.c ****                     {
 1496              		.loc 1 156 0 is_stmt 0 discriminator 1
 1497 00b0 0A78     		ldrb	r2, [r1]	@ zero_extendqisi2
 1498 00b2 12F0FF0F 		tst	r2, #255
 1499 00b6 EFD1     		bne	.L126
 1500              	.L125:
 176:Generated_Source\PSoC5/USBUART_std.c ****                         (USBUART_wValueLoReg == USBUART_DEVICE0_DESCR[USBUART_DEVICE_DESCR_SN_SHIFT
 1501              		.loc 1 176 0 is_stmt 1
 1502 00b8 6E4B     		ldr	r3, .L168
 1503              	.LVL151:
 1504 00ba 9B78     		ldrb	r3, [r3, #2]	@ zero_extendqisi2
 1505 00bc 13F0FF0F 		tst	r3, #255
 1506 00c0 0BD0     		beq	.L127
 177:Generated_Source\PSoC5/USBUART_std.c ****                     {
 1507              		.loc 1 177 0 discriminator 1
 1508 00c2 6C4B     		ldr	r3, .L168
 1509 00c4 9B78     		ldrb	r3, [r3, #2]	@ zero_extendqisi2
 1510 00c6 DBB2     		uxtb	r3, r3
 1511 00c8 6D4A     		ldr	r2, .L168+12
 1512 00ca 127C     		ldrb	r2, [r2, #16]	@ zero_extendqisi2
 176:Generated_Source\PSoC5/USBUART_std.c ****                         (USBUART_wValueLoReg == USBUART_DEVICE0_DESCR[USBUART_DEVICE_DESCR_SN_SHIFT
 1513              		.loc 1 176 0 discriminator 1
ARM GAS  C:\Users\ingan\AppData\Local\Temp\ccPtKCQI.s 			page 52


 1514 00cc 9342     		cmp	r3, r2
 1515 00ce 04D1     		bne	.L127
 181:Generated_Source\PSoC5/USBUART_std.c ****                         pStr = USBUART_idSerialNumberStringDescriptor;
 1516              		.loc 1 181 0
 1517 00d0 6C4C     		ldr	r4, .L168+16
 1518 00d2 2046     		mov	r0, r4
 1519 00d4 FFF7FEFF 		bl	USBUART_ReadDieID
 1520              	.LVL152:
 182:Generated_Source\PSoC5/USBUART_std.c ****                     #elif defined(USBUART_ENABLE_FWSN_STRING)
 1521              		.loc 1 182 0
 1522 00d8 2146     		mov	r1, r4
 1523              	.LVL153:
 1524              	.L127:
 199:Generated_Source\PSoC5/USBUART_std.c ****                     {
 1525              		.loc 1 199 0
 1526 00da 0B78     		ldrb	r3, [r1]	@ zero_extendqisi2
 1527 00dc 13F0FF0F 		tst	r3, #255
 1528 00e0 00F01781 		beq	.L150
 201:Generated_Source\PSoC5/USBUART_std.c ****                         USBUART_currentTD.pData = pStr;
 1529              		.loc 1 201 0
 1530 00e4 0B78     		ldrb	r3, [r1]	@ zero_extendqisi2
 1531 00e6 644A     		ldr	r2, .L168+4
 1532 00e8 1380     		strh	r3, [r2]	@ movhi
 202:Generated_Source\PSoC5/USBUART_std.c ****                         requestHandled  = USBUART_InitControlRead();
 1533              		.loc 1 202 0
 1534 00ea 5160     		str	r1, [r2, #4]
 203:Generated_Source\PSoC5/USBUART_std.c ****                     }
 1535              		.loc 1 203 0
 1536 00ec FFF7FEFF 		bl	USBUART_InitControlRead
 1537              	.LVL154:
 1538 00f0 10BD     		pop	{r4, pc}
 1539              	.LVL155:
 1540              	.L163:
 209:Generated_Source\PSoC5/USBUART_std.c ****                 }
 1541              		.loc 1 209 0
 1542 00f2 FFF7FEFF 		bl	USBUART_DispatchClassRqst
 1543              	.LVL156:
 1544 00f6 10BD     		pop	{r4, pc}
 1545              	.LVL157:
 1546              	.L116:
 214:Generated_Source\PSoC5/USBUART_std.c ****                 {
 1547              		.loc 1 214 0
 1548 00f8 13F00303 		ands	r3, r3, #3
 1549              	.LVL158:
 1550 00fc 17D0     		beq	.L128
 1551 00fe 022B     		cmp	r3, #2
 1552 0100 40F00981 		bne	.L164
 217:Generated_Source\PSoC5/USBUART_std.c ****                         USBUART_tBuffer[0u]     = USBUART_EP[USBUART_wIndexLoReg & USBUART_DIR_UNUS
 1553              		.loc 1 217 0
 1554 0104 5C49     		ldr	r1, .L168+4
 1555 0106 0B80     		strh	r3, [r1]	@ movhi
 218:Generated_Source\PSoC5/USBUART_std.c ****                         USBUART_tBuffer[1u]     = 0u;
 1556              		.loc 1 218 0
 1557 0108 5A4B     		ldr	r3, .L168
 1558 010a 1B79     		ldrb	r3, [r3, #4]	@ zero_extendqisi2
 1559 010c 03F07F03 		and	r3, r3, #127
 1560 0110 03EB4303 		add	r3, r3, r3, lsl #1
ARM GAS  C:\Users\ingan\AppData\Local\Temp\ccPtKCQI.s 			page 53


 1561 0114 9A00     		lsls	r2, r3, #2
 1562 0116 5C4B     		ldr	r3, .L168+20
 1563 0118 1A44     		add	r2, r2, r3
 1564 011a 9278     		ldrb	r2, [r2, #2]	@ zero_extendqisi2
 1565 011c D2B2     		uxtb	r2, r2
 1566 011e 5B4B     		ldr	r3, .L168+24
 1567 0120 1A70     		strb	r2, [r3]
 219:Generated_Source\PSoC5/USBUART_std.c ****                         USBUART_currentTD.pData = &USBUART_tBuffer[0u];
 1568              		.loc 1 219 0
 1569 0122 0022     		movs	r2, #0
 1570 0124 5A70     		strb	r2, [r3, #1]
 220:Generated_Source\PSoC5/USBUART_std.c ****                         
 1571              		.loc 1 220 0
 1572 0126 4B60     		str	r3, [r1, #4]
 222:Generated_Source\PSoC5/USBUART_std.c ****                         break;
 1573              		.loc 1 222 0
 1574 0128 FFF7FEFF 		bl	USBUART_InitControlRead
 1575              	.LVL159:
 223:Generated_Source\PSoC5/USBUART_std.c ****                     case USBUART_RQST_RCPT_DEV:
 1576              		.loc 1 223 0
 1577 012c 10BD     		pop	{r4, pc}
 1578              	.LVL160:
 1579              	.L128:
 225:Generated_Source\PSoC5/USBUART_std.c ****                         USBUART_tBuffer[0u]     = USBUART_deviceStatus;
 1580              		.loc 1 225 0
 1581 012e 5249     		ldr	r1, .L168+4
 1582 0130 0223     		movs	r3, #2
 1583 0132 0B80     		strh	r3, [r1]	@ movhi
 226:Generated_Source\PSoC5/USBUART_std.c ****                         USBUART_tBuffer[1u]     = 0u;
 1584              		.loc 1 226 0
 1585 0134 564B     		ldr	r3, .L168+28
 1586 0136 1A78     		ldrb	r2, [r3]	@ zero_extendqisi2
 1587 0138 D2B2     		uxtb	r2, r2
 1588 013a 544B     		ldr	r3, .L168+24
 1589 013c 1A70     		strb	r2, [r3]
 227:Generated_Source\PSoC5/USBUART_std.c ****                         USBUART_currentTD.pData = &USBUART_tBuffer[0u];
 1590              		.loc 1 227 0
 1591 013e 0022     		movs	r2, #0
 1592 0140 5A70     		strb	r2, [r3, #1]
 228:Generated_Source\PSoC5/USBUART_std.c ****                         
 1593              		.loc 1 228 0
 1594 0142 4B60     		str	r3, [r1, #4]
 230:Generated_Source\PSoC5/USBUART_std.c ****                         break;
 1595              		.loc 1 230 0
 1596 0144 FFF7FEFF 		bl	USBUART_InitControlRead
 1597              	.LVL161:
 231:Generated_Source\PSoC5/USBUART_std.c ****                     default:    /* requestHandled is initialized as FALSE by default */
 1598              		.loc 1 231 0
 1599 0148 10BD     		pop	{r4, pc}
 1600              	.LVL162:
 1601              	.L119:
 238:Generated_Source\PSoC5/USBUART_std.c ****                 USBUART_currentTD.pData = (volatile uint8 *) &USBUART_configuration;
 1602              		.loc 1 238 0
 1603 014a 4B4B     		ldr	r3, .L168+4
 1604              	.LVL163:
 1605 014c 0122     		movs	r2, #1
 1606 014e 1A80     		strh	r2, [r3]	@ movhi
ARM GAS  C:\Users\ingan\AppData\Local\Temp\ccPtKCQI.s 			page 54


 239:Generated_Source\PSoC5/USBUART_std.c ****                 requestHandled  = USBUART_InitControlRead();
 1607              		.loc 1 239 0
 1608 0150 504A     		ldr	r2, .L168+32
 1609 0152 5A60     		str	r2, [r3, #4]
 240:Generated_Source\PSoC5/USBUART_std.c ****                 break;
 1610              		.loc 1 240 0
 1611 0154 FFF7FEFF 		bl	USBUART_InitControlRead
 1612              	.LVL164:
 241:Generated_Source\PSoC5/USBUART_std.c ****                 
 1613              		.loc 1 241 0
 1614 0158 10BD     		pop	{r4, pc}
 1615              	.LVL165:
 1616              	.L120:
 244:Generated_Source\PSoC5/USBUART_std.c ****                 USBUART_currentTD.pData = (volatile uint8 *) &USBUART_interfaceSetting[USBUART_wInd
 1617              		.loc 1 244 0
 1618 015a 474A     		ldr	r2, .L168+4
 1619 015c 0123     		movs	r3, #1
 1620              	.LVL166:
 1621 015e 1380     		strh	r3, [r2]	@ movhi
 245:Generated_Source\PSoC5/USBUART_std.c ****                 requestHandled  = USBUART_InitControlRead();
 1622              		.loc 1 245 0
 1623 0160 444B     		ldr	r3, .L168
 1624 0162 1B79     		ldrb	r3, [r3, #4]	@ zero_extendqisi2
 1625 0164 4C49     		ldr	r1, .L168+36
 1626 0166 0B44     		add	r3, r3, r1
 1627 0168 5360     		str	r3, [r2, #4]
 246:Generated_Source\PSoC5/USBUART_std.c ****                 break;
 1628              		.loc 1 246 0
 1629 016a FFF7FEFF 		bl	USBUART_InitControlRead
 1630              	.LVL167:
 247:Generated_Source\PSoC5/USBUART_std.c ****                 
 1631              		.loc 1 247 0
 1632 016e 10BD     		pop	{r4, pc}
 1633              	.LVL168:
 1634              	.L114:
 256:Generated_Source\PSoC5/USBUART_std.c ****         {
 1635              		.loc 1 256 0
 1636 0170 404A     		ldr	r2, .L168
 1637 0172 5278     		ldrb	r2, [r2, #1]	@ zero_extendqisi2
 1638 0174 013A     		subs	r2, r2, #1
 1639 0176 0A2A     		cmp	r2, #10
 1640 0178 00F2CF80 		bhi	.L152
 1641 017c DFE812F0 		tbh	[pc, r2, lsl #1]
 1642              	.L131:
 1643 0180 4C00     		.2byte	(.L130-.L131)/2
 1644 0182 CD00     		.2byte	(.L152-.L131)/2
 1645 0184 9800     		.2byte	(.L132-.L131)/2
 1646 0186 CD00     		.2byte	(.L152-.L131)/2
 1647 0188 0B00     		.2byte	(.L133-.L131)/2
 1648 018a CD00     		.2byte	(.L152-.L131)/2
 1649 018c CD00     		.2byte	(.L152-.L131)/2
 1650 018e CD00     		.2byte	(.L152-.L131)/2
 1651 0190 1300     		.2byte	(.L134-.L131)/2
 1652 0192 CD00     		.2byte	(.L152-.L131)/2
 1653 0194 3000     		.2byte	(.L135-.L131)/2
 1654              		.p2align 1
 1655              	.L133:
ARM GAS  C:\Users\ingan\AppData\Local\Temp\ccPtKCQI.s 			page 55


 260:Generated_Source\PSoC5/USBUART_std.c ****                 requestHandled = USBUART_InitNoDataControlTransfer();
 1656              		.loc 1 260 0
 1657 0196 374B     		ldr	r3, .L168
 1658              	.LVL169:
 1659 0198 9B78     		ldrb	r3, [r3, #2]	@ zero_extendqisi2
 1660 019a DBB2     		uxtb	r3, r3
 1661 019c 3F4A     		ldr	r2, .L168+40
 1662 019e 1370     		strb	r3, [r2]
 261:Generated_Source\PSoC5/USBUART_std.c ****                 break;
 1663              		.loc 1 261 0
 1664 01a0 FFF7FEFF 		bl	USBUART_InitNoDataControlTransfer
 1665              	.LVL170:
 262:Generated_Source\PSoC5/USBUART_std.c ****                 
 1666              		.loc 1 262 0
 1667 01a4 10BD     		pop	{r4, pc}
 1668              	.LVL171:
 1669              	.L134:
 265:Generated_Source\PSoC5/USBUART_std.c ****                 
 1670              		.loc 1 265 0
 1671 01a6 334B     		ldr	r3, .L168
 1672              	.LVL172:
 1673 01a8 9B78     		ldrb	r3, [r3, #2]	@ zero_extendqisi2
 1674              	.LVL173:
 268:Generated_Source\PSoC5/USBUART_std.c ****                 {
 1675              		.loc 1 268 0
 1676 01aa 03F0FF04 		and	r4, r3, #255
 1677 01ae 1BB1     		cbz	r3, .L136
 270:Generated_Source\PSoC5/USBUART_std.c ****                 }
 1678              		.loc 1 270 0
 1679 01b0 601E     		subs	r0, r4, #1
 1680 01b2 C0B2     		uxtb	r0, r0
 1681 01b4 FFF7FEFF 		bl	USBUART_GetConfigTablePtr
 1682              	.LVL174:
 1683              	.L136:
 274:Generated_Source\PSoC5/USBUART_std.c ****                 {
 1684              		.loc 1 274 0
 1685 01b8 04B1     		cbz	r4, .L137
 274:Generated_Source\PSoC5/USBUART_std.c ****                 {
 1686              		.loc 1 274 0 is_stmt 0 discriminator 1
 1687 01ba 10B9     		cbnz	r0, .L138
 1688              	.L137:
 274:Generated_Source\PSoC5/USBUART_std.c ****                 {
 1689              		.loc 1 274 0 discriminator 3
 1690 01bc 002C     		cmp	r4, #0
 1691 01be 40F0AE80 		bne	.L153
 1692              	.L138:
 277:Generated_Source\PSoC5/USBUART_std.c ****                     {
 1693              		.loc 1 277 0 is_stmt 1
 1694 01c2 344B     		ldr	r3, .L168+32
 1695 01c4 1B78     		ldrb	r3, [r3]	@ zero_extendqisi2
 1696 01c6 DBB2     		uxtb	r3, r3
 1697 01c8 9C42     		cmp	r4, r3
 1698 01ca 06D0     		beq	.L139
 279:Generated_Source\PSoC5/USBUART_std.c ****                         USBUART_configurationChanged = USBUART_TRUE;
 1699              		.loc 1 279 0
 1700 01cc 314B     		ldr	r3, .L168+32
 1701 01ce 1C70     		strb	r4, [r3]
ARM GAS  C:\Users\ingan\AppData\Local\Temp\ccPtKCQI.s 			page 56


 280:Generated_Source\PSoC5/USBUART_std.c ****                         USBUART_Config(USBUART_TRUE);
 1702              		.loc 1 280 0
 1703 01d0 0120     		movs	r0, #1
 1704              	.LVL175:
 1705 01d2 334B     		ldr	r3, .L168+44
 1706 01d4 1870     		strb	r0, [r3]
 281:Generated_Source\PSoC5/USBUART_std.c ****                     }
 1707              		.loc 1 281 0
 1708 01d6 FFF7FEFF 		bl	USBUART_Config
 1709              	.LVL176:
 1710              	.L139:
 283:Generated_Source\PSoC5/USBUART_std.c ****                 }
 1711              		.loc 1 283 0
 1712 01da FFF7FEFF 		bl	USBUART_InitNoDataControlTransfer
 1713              	.LVL177:
 1714 01de 10BD     		pop	{r4, pc}
 1715              	.LVL178:
 1716              	.L135:
 288:Generated_Source\PSoC5/USBUART_std.c ****                 {
 1717              		.loc 1 288 0
 1718 01e0 FFF7FEFF 		bl	USBUART_ValidateAlternateSetting
 1719              	.LVL179:
 1720 01e4 0028     		cmp	r0, #0
 1721 01e6 00F09C80 		beq	.L154
 291:Generated_Source\PSoC5/USBUART_std.c ****                     USBUART_interfaceNumber = (uint8) USBUART_wIndexLoReg;
 1722              		.loc 1 291 0
 1723 01ea 224A     		ldr	r2, .L168
 1724 01ec 1379     		ldrb	r3, [r2, #4]	@ zero_extendqisi2
 1725 01ee DBB2     		uxtb	r3, r3
 1726              	.LVL180:
 292:Generated_Source\PSoC5/USBUART_std.c ****                      
 1727              		.loc 1 292 0
 1728 01f0 1279     		ldrb	r2, [r2, #4]	@ zero_extendqisi2
 1729 01f2 D2B2     		uxtb	r2, r2
 1730 01f4 2B49     		ldr	r1, .L168+48
 1731 01f6 0A70     		strb	r2, [r1]
 295:Generated_Source\PSoC5/USBUART_std.c ****                     {
 1732              		.loc 1 295 0
 1733 01f8 2B4A     		ldr	r2, .L168+52
 1734 01fa D25C     		ldrb	r2, [r2, r3]	@ zero_extendqisi2
 1735 01fc D2B2     		uxtb	r2, r2
 1736 01fe 2649     		ldr	r1, .L168+36
 1737 0200 CB5C     		ldrb	r3, [r1, r3]	@ zero_extendqisi2
 1738              	.LVL181:
 1739 0202 DBB2     		uxtb	r3, r3
 1740 0204 9A42     		cmp	r2, r3
 1741 0206 04D0     		beq	.L140
 297:Generated_Source\PSoC5/USBUART_std.c ****                     
 1742              		.loc 1 297 0
 1743 0208 0122     		movs	r2, #1
 1744 020a 254B     		ldr	r3, .L168+44
 1745 020c 1A70     		strb	r2, [r3]
 303:Generated_Source\PSoC5/USBUART_std.c ****                     #endif /* (USBUART_EP_MANAGEMENT_MANUAL && USBUART_EP_ALLOC_DYNAMIC) */
 1746              		.loc 1 303 0
 1747 020e FFF7FEFF 		bl	USBUART_ConfigAltChanged
 1748              	.LVL182:
 1749              	.L140:
ARM GAS  C:\Users\ingan\AppData\Local\Temp\ccPtKCQI.s 			page 57


 307:Generated_Source\PSoC5/USBUART_std.c ****                 }
 1750              		.loc 1 307 0
 1751 0212 FFF7FEFF 		bl	USBUART_InitNoDataControlTransfer
 1752              	.LVL183:
 1753 0216 10BD     		pop	{r4, pc}
 1754              	.LVL184:
 1755              	.L130:
 312:Generated_Source\PSoC5/USBUART_std.c ****                 {
 1756              		.loc 1 312 0
 1757 0218 03F00303 		and	r3, r3, #3
 1758              	.LVL185:
 1759 021c 012B     		cmp	r3, #1
 1760 021e 17D0     		beq	.L141
 1761 0220 4BB1     		cbz	r3, .L142
 1762 0222 022B     		cmp	r3, #2
 1763 0224 7FD1     		bne	.L165
 315:Generated_Source\PSoC5/USBUART_std.c ****                         {
 1764              		.loc 1 315 0
 1765 0226 134B     		ldr	r3, .L168
 1766 0228 9B78     		ldrb	r3, [r3, #2]	@ zero_extendqisi2
 1767 022a 13F0FF0F 		tst	r3, #255
 1768 022e 7CD1     		bne	.L156
 317:Generated_Source\PSoC5/USBUART_std.c ****                         }
 1769              		.loc 1 317 0
 1770 0230 FFF7FEFF 		bl	USBUART_ClearEndpointHalt
 1771              	.LVL186:
 1772 0234 10BD     		pop	{r4, pc}
 1773              	.LVL187:
 1774              	.L142:
 322:Generated_Source\PSoC5/USBUART_std.c ****                         {
 1775              		.loc 1 322 0
 1776 0236 0F4B     		ldr	r3, .L168
 1777 0238 9B78     		ldrb	r3, [r3, #2]	@ zero_extendqisi2
 1778 023a DBB2     		uxtb	r3, r3
 1779 023c 012B     		cmp	r3, #1
 1780 023e 76D1     		bne	.L157
 324:Generated_Source\PSoC5/USBUART_std.c ****                             requestHandled = USBUART_InitNoDataControlTransfer();
 1781              		.loc 1 324 0
 1782 0240 134A     		ldr	r2, .L168+28
 1783 0242 1378     		ldrb	r3, [r2]	@ zero_extendqisi2
 1784 0244 03F0FD03 		and	r3, r3, #253
 1785 0248 1370     		strb	r3, [r2]
 325:Generated_Source\PSoC5/USBUART_std.c ****                         }
 1786              		.loc 1 325 0
 1787 024a FFF7FEFF 		bl	USBUART_InitNoDataControlTransfer
 1788              	.LVL188:
 1789 024e 10BD     		pop	{r4, pc}
 1790              	.LVL189:
 1791              	.L141:
 330:Generated_Source\PSoC5/USBUART_std.c ****                         {
 1792              		.loc 1 330 0
 1793 0250 084B     		ldr	r3, .L168
 1794 0252 1B79     		ldrb	r3, [r3, #4]	@ zero_extendqisi2
 1795 0254 DBB2     		uxtb	r3, r3
 1796 0256 012B     		cmp	r3, #1
 1797 0258 6BD8     		bhi	.L158
 332:Generated_Source\PSoC5/USBUART_std.c ****                             requestHandled = USBUART_InitNoDataControlTransfer();
ARM GAS  C:\Users\ingan\AppData\Local\Temp\ccPtKCQI.s 			page 58


 1798              		.loc 1 332 0
 1799 025a 064B     		ldr	r3, .L168
 1800 025c 9878     		ldrb	r0, [r3, #2]	@ zero_extendqisi2
 1801 025e 1B79     		ldrb	r3, [r3, #4]	@ zero_extendqisi2
 1802 0260 DBB2     		uxtb	r3, r3
 1803 0262 1249     		ldr	r1, .L168+56
 1804 0264 CA5C     		ldrb	r2, [r1, r3]	@ zero_extendqisi2
 1805 0266 22EA0002 		bic	r2, r2, r0
 1806 026a CA54     		strb	r2, [r1, r3]
 333:Generated_Source\PSoC5/USBUART_std.c ****                         }
 1807              		.loc 1 333 0
 1808 026c FFF7FEFF 		bl	USBUART_InitNoDataControlTransfer
 1809              	.LVL190:
 1810 0270 10BD     		pop	{r4, pc}
 1811              	.L169:
 1812 0272 00BF     		.align	2
 1813              	.L168:
 1814 0274 00600040 		.word	1073766400
 1815 0278 00000000 		.word	USBUART_currentTD
 1816 027c 00000000 		.word	USBUART_STRING_DESCRIPTORS
 1817 0280 00000000 		.word	USBUART_DEVICE0_DESCR
 1818 0284 00000000 		.word	USBUART_idSerialNumberStringDescriptor
 1819 0288 00000000 		.word	USBUART_EP
 1820 028c 00000000 		.word	.LANCHOR0
 1821 0290 00000000 		.word	USBUART_deviceStatus
 1822 0294 00000000 		.word	USBUART_configuration
 1823 0298 00000000 		.word	USBUART_interfaceSetting
 1824 029c 00000000 		.word	USBUART_deviceAddress
 1825 02a0 00000000 		.word	USBUART_configurationChanged
 1826 02a4 00000000 		.word	USBUART_interfaceNumber
 1827 02a8 00000000 		.word	USBUART_interfaceSettingLast
 1828 02ac 00000000 		.word	USBUART_interfaceStatus
 1829              	.LVL191:
 1830              	.L132:
 342:Generated_Source\PSoC5/USBUART_std.c ****                 {
 1831              		.loc 1 342 0
 1832 02b0 03F00303 		and	r3, r3, #3
 1833              	.LVL192:
 1834 02b4 012B     		cmp	r3, #1
 1835 02b6 17D0     		beq	.L144
 1836 02b8 4BB1     		cbz	r3, .L145
 1837 02ba 022B     		cmp	r3, #2
 1838 02bc 3BD1     		bne	.L166
 345:Generated_Source\PSoC5/USBUART_std.c ****                         {
 1839              		.loc 1 345 0
 1840 02be 224B     		ldr	r3, .L170
 1841 02c0 9B78     		ldrb	r3, [r3, #2]	@ zero_extendqisi2
 1842 02c2 13F0FF0F 		tst	r3, #255
 1843 02c6 38D1     		bne	.L160
 347:Generated_Source\PSoC5/USBUART_std.c ****                         }
 1844              		.loc 1 347 0
 1845 02c8 FFF7FEFF 		bl	USBUART_SetEndpointHalt
 1846              	.LVL193:
 1847 02cc 10BD     		pop	{r4, pc}
 1848              	.LVL194:
 1849              	.L145:
 353:Generated_Source\PSoC5/USBUART_std.c ****                         {
ARM GAS  C:\Users\ingan\AppData\Local\Temp\ccPtKCQI.s 			page 59


 1850              		.loc 1 353 0
 1851 02ce 1E4B     		ldr	r3, .L170
 1852 02d0 9B78     		ldrb	r3, [r3, #2]	@ zero_extendqisi2
 1853 02d2 DBB2     		uxtb	r3, r3
 1854 02d4 012B     		cmp	r3, #1
 1855 02d6 32D1     		bne	.L161
 355:Generated_Source\PSoC5/USBUART_std.c ****                             requestHandled = USBUART_InitNoDataControlTransfer();
 1856              		.loc 1 355 0
 1857 02d8 1C4A     		ldr	r2, .L170+4
 1858 02da 1378     		ldrb	r3, [r2]	@ zero_extendqisi2
 1859 02dc 43F00203 		orr	r3, r3, #2
 1860 02e0 1370     		strb	r3, [r2]
 356:Generated_Source\PSoC5/USBUART_std.c ****                         }
 1861              		.loc 1 356 0
 1862 02e2 FFF7FEFF 		bl	USBUART_InitNoDataControlTransfer
 1863              	.LVL195:
 1864 02e6 10BD     		pop	{r4, pc}
 1865              	.LVL196:
 1866              	.L144:
 362:Generated_Source\PSoC5/USBUART_std.c ****                         {
 1867              		.loc 1 362 0
 1868 02e8 174B     		ldr	r3, .L170
 1869 02ea 1B79     		ldrb	r3, [r3, #4]	@ zero_extendqisi2
 1870 02ec DBB2     		uxtb	r3, r3
 1871 02ee 012B     		cmp	r3, #1
 1872 02f0 27D8     		bhi	.L162
 364:Generated_Source\PSoC5/USBUART_std.c ****                             requestHandled = USBUART_InitNoDataControlTransfer();
 1873              		.loc 1 364 0
 1874 02f2 154B     		ldr	r3, .L170
 1875 02f4 9878     		ldrb	r0, [r3, #2]	@ zero_extendqisi2
 1876 02f6 1B79     		ldrb	r3, [r3, #4]	@ zero_extendqisi2
 1877 02f8 DBB2     		uxtb	r3, r3
 1878 02fa 1549     		ldr	r1, .L170+8
 1879 02fc CA5C     		ldrb	r2, [r1, r3]	@ zero_extendqisi2
 1880 02fe 22EA0002 		bic	r2, r2, r0
 1881 0302 CA54     		strb	r2, [r1, r3]
 365:Generated_Source\PSoC5/USBUART_std.c ****                         }
 1882              		.loc 1 365 0
 1883 0304 FFF7FEFF 		bl	USBUART_InitNoDataControlTransfer
 1884              	.LVL197:
 1885 0308 10BD     		pop	{r4, pc}
 1886              	.LVL198:
 1887              	.L147:
  86:Generated_Source\PSoC5/USBUART_std.c ****     uint8 interfaceNumber;
 1888              		.loc 1 86 0
 1889 030a 0020     		movs	r0, #0
 1890 030c 10BD     		pop	{r4, pc}
 1891              	.LVL199:
 1892              	.L148:
 1893 030e 0020     		movs	r0, #0
 1894              	.LVL200:
 1895 0310 10BD     		pop	{r4, pc}
 1896              	.LVL201:
 1897              	.L150:
 1898 0312 0020     		movs	r0, #0
 1899 0314 10BD     		pop	{r4, pc}
 1900              	.LVL202:
ARM GAS  C:\Users\ingan\AppData\Local\Temp\ccPtKCQI.s 			page 60


 1901              	.L164:
 1902 0316 0020     		movs	r0, #0
 1903 0318 10BD     		pop	{r4, pc}
 1904              	.LVL203:
 1905              	.L152:
 1906 031a 0020     		movs	r0, #0
 1907 031c 10BD     		pop	{r4, pc}
 1908              	.LVL204:
 1909              	.L153:
 1910 031e 0020     		movs	r0, #0
 1911              	.LVL205:
 1912 0320 10BD     		pop	{r4, pc}
 1913              	.L154:
 1914 0322 0020     		movs	r0, #0
 1915 0324 10BD     		pop	{r4, pc}
 1916              	.L165:
 1917 0326 0020     		movs	r0, #0
 1918 0328 10BD     		pop	{r4, pc}
 1919              	.L156:
 1920 032a 0020     		movs	r0, #0
 1921 032c 10BD     		pop	{r4, pc}
 1922              	.L157:
 1923 032e 0020     		movs	r0, #0
 1924 0330 10BD     		pop	{r4, pc}
 1925              	.L158:
 1926 0332 0020     		movs	r0, #0
 1927 0334 10BD     		pop	{r4, pc}
 1928              	.L166:
 1929 0336 0020     		movs	r0, #0
 1930 0338 10BD     		pop	{r4, pc}
 1931              	.L160:
 1932 033a 0020     		movs	r0, #0
 1933 033c 10BD     		pop	{r4, pc}
 1934              	.L161:
 1935 033e 0020     		movs	r0, #0
 1936 0340 10BD     		pop	{r4, pc}
 1937              	.L162:
 1938 0342 0020     		movs	r0, #0
 1939              	.LVL206:
 380:Generated_Source\PSoC5/USBUART_std.c **** 
 1940              		.loc 1 380 0
 1941 0344 10BD     		pop	{r4, pc}
 1942              	.L171:
 1943 0346 00BF     		.align	2
 1944              	.L170:
 1945 0348 00600040 		.word	1073766400
 1946 034c 00000000 		.word	USBUART_deviceStatus
 1947 0350 00000000 		.word	USBUART_interfaceStatus
 1948              		.cfi_endproc
 1949              	.LFE0:
 1950              		.size	USBUART_HandleStandardRqst, .-USBUART_HandleStandardRqst
 1951              		.section	.rodata.str1.4,"aMS",%progbits,1
 1952              		.align	2
 1953              	.LC0:
 1954 0000 30313233 		.ascii	"0123456789ABCDEF\000"
 1954      34353637 
 1954      38394142 
ARM GAS  C:\Users\ingan\AppData\Local\Temp\ccPtKCQI.s 			page 61


 1954      43444546 
 1954      00
 1955              		.bss
 1956              		.align	2
 1957              		.set	.LANCHOR0,. + 0
 1958              		.type	USBUART_tBuffer.5380, %object
 1959              		.size	USBUART_tBuffer.5380, 2
 1960              	USBUART_tBuffer.5380:
 1961 0000 0000     		.space	2
 1962              		.text
 1963              	.Letext0:
 1964              		.file 2 "Generated_Source\\PSoC5\\cytypes.h"
 1965              		.file 3 "Generated_Source\\PSoC5\\USBUART.h"
 1966              		.file 4 "Generated_Source\\PSoC5\\USBUART_pvt.h"
 1967              		.file 5 "Generated_Source\\PSoC5\\CyLib.h"
 1968              		.section	.debug_info,"",%progbits
 1969              	.Ldebug_info0:
 1970 0000 220B0000 		.4byte	0xb22
 1971 0004 0400     		.2byte	0x4
 1972 0006 00000000 		.4byte	.Ldebug_abbrev0
 1973 000a 04       		.byte	0x4
 1974 000b 01       		.uleb128 0x1
 1975 000c 7A020000 		.4byte	.LASF118
 1976 0010 0C       		.byte	0xc
 1977 0011 53050000 		.4byte	.LASF119
 1978 0015 DB060000 		.4byte	.LASF120
 1979 0019 00000000 		.4byte	.Ldebug_ranges0+0
 1980 001d 00000000 		.4byte	0
 1981 0021 00000000 		.4byte	.Ldebug_line0
 1982 0025 02       		.uleb128 0x2
 1983 0026 01       		.byte	0x1
 1984 0027 06       		.byte	0x6
 1985 0028 BC060000 		.4byte	.LASF0
 1986 002c 02       		.uleb128 0x2
 1987 002d 01       		.byte	0x1
 1988 002e 08       		.byte	0x8
 1989 002f 18060000 		.4byte	.LASF1
 1990 0033 02       		.uleb128 0x2
 1991 0034 02       		.byte	0x2
 1992 0035 05       		.byte	0x5
 1993 0036 F2040000 		.4byte	.LASF2
 1994 003a 02       		.uleb128 0x2
 1995 003b 02       		.byte	0x2
 1996 003c 07       		.byte	0x7
 1997 003d C8060000 		.4byte	.LASF3
 1998 0041 02       		.uleb128 0x2
 1999 0042 04       		.byte	0x4
 2000 0043 05       		.byte	0x5
 2001 0044 03050000 		.4byte	.LASF4
 2002 0048 02       		.uleb128 0x2
 2003 0049 04       		.byte	0x4
 2004 004a 07       		.byte	0x7
 2005 004b AA050000 		.4byte	.LASF5
 2006 004f 02       		.uleb128 0x2
 2007 0050 08       		.byte	0x8
 2008 0051 05       		.byte	0x5
 2009 0052 D2030000 		.4byte	.LASF6
ARM GAS  C:\Users\ingan\AppData\Local\Temp\ccPtKCQI.s 			page 62


 2010 0056 02       		.uleb128 0x2
 2011 0057 08       		.byte	0x8
 2012 0058 07       		.byte	0x7
 2013 0059 EB010000 		.4byte	.LASF7
 2014 005d 03       		.uleb128 0x3
 2015 005e 04       		.byte	0x4
 2016 005f 05       		.byte	0x5
 2017 0060 696E7400 		.ascii	"int\000"
 2018 0064 02       		.uleb128 0x2
 2019 0065 04       		.byte	0x4
 2020 0066 07       		.byte	0x7
 2021 0067 C5000000 		.4byte	.LASF8
 2022 006b 04       		.uleb128 0x4
 2023 006c 5B070000 		.4byte	.LASF9
 2024 0070 02       		.byte	0x2
 2025 0071 E401     		.2byte	0x1e4
 2026 0073 2C000000 		.4byte	0x2c
 2027 0077 04       		.uleb128 0x4
 2028 0078 6E030000 		.4byte	.LASF10
 2029 007c 02       		.byte	0x2
 2030 007d E501     		.2byte	0x1e5
 2031 007f 3A000000 		.4byte	0x3a
 2032 0083 04       		.uleb128 0x4
 2033 0084 52040000 		.4byte	.LASF11
 2034 0088 02       		.byte	0x2
 2035 0089 E601     		.2byte	0x1e6
 2036 008b 48000000 		.4byte	0x48
 2037 008f 02       		.uleb128 0x2
 2038 0090 04       		.byte	0x4
 2039 0091 04       		.byte	0x4
 2040 0092 CC010000 		.4byte	.LASF12
 2041 0096 02       		.uleb128 0x2
 2042 0097 08       		.byte	0x8
 2043 0098 04       		.byte	0x4
 2044 0099 61070000 		.4byte	.LASF13
 2045 009d 04       		.uleb128 0x4
 2046 009e 7C030000 		.4byte	.LASF14
 2047 00a2 02       		.byte	0x2
 2048 00a3 F501     		.2byte	0x1f5
 2049 00a5 A9000000 		.4byte	0xa9
 2050 00a9 02       		.uleb128 0x2
 2051 00aa 01       		.byte	0x1
 2052 00ab 08       		.byte	0x8
 2053 00ac 4B030000 		.4byte	.LASF15
 2054 00b0 04       		.uleb128 0x4
 2055 00b1 42010000 		.4byte	.LASF16
 2056 00b5 02       		.byte	0x2
 2057 00b6 8E02     		.2byte	0x28e
 2058 00b8 BC000000 		.4byte	0xbc
 2059 00bc 05       		.uleb128 0x5
 2060 00bd 6B000000 		.4byte	0x6b
 2061 00c1 02       		.uleb128 0x2
 2062 00c2 08       		.byte	0x8
 2063 00c3 04       		.byte	0x4
 2064 00c4 CC040000 		.4byte	.LASF17
 2065 00c8 02       		.uleb128 0x2
 2066 00c9 04       		.byte	0x4
ARM GAS  C:\Users\ingan\AppData\Local\Temp\ccPtKCQI.s 			page 63


 2067 00ca 07       		.byte	0x7
 2068 00cb A1050000 		.4byte	.LASF18
 2069 00cf 06       		.uleb128 0x6
 2070 00d0 0C       		.byte	0xc
 2071 00d1 03       		.byte	0x3
 2072 00d2 8D       		.byte	0x8d
 2073 00d3 44010000 		.4byte	0x144
 2074 00d7 07       		.uleb128 0x7
 2075 00d8 9E070000 		.4byte	.LASF19
 2076 00dc 03       		.byte	0x3
 2077 00dd 8F       		.byte	0x8f
 2078 00de 6B000000 		.4byte	0x6b
 2079 00e2 00       		.byte	0
 2080 00e3 07       		.uleb128 0x7
 2081 00e4 A5070000 		.4byte	.LASF20
 2082 00e8 03       		.byte	0x3
 2083 00e9 90       		.byte	0x90
 2084 00ea 6B000000 		.4byte	0x6b
 2085 00ee 01       		.byte	0x1
 2086 00ef 07       		.uleb128 0x7
 2087 00f0 3D040000 		.4byte	.LASF21
 2088 00f4 03       		.byte	0x3
 2089 00f5 91       		.byte	0x91
 2090 00f6 6B000000 		.4byte	0x6b
 2091 00fa 02       		.byte	0x2
 2092 00fb 07       		.uleb128 0x7
 2093 00fc C3010000 		.4byte	.LASF22
 2094 0100 03       		.byte	0x3
 2095 0101 92       		.byte	0x92
 2096 0102 6B000000 		.4byte	0x6b
 2097 0106 03       		.byte	0x3
 2098 0107 07       		.uleb128 0x7
 2099 0108 85060000 		.4byte	.LASF23
 2100 010c 03       		.byte	0x3
 2101 010d 93       		.byte	0x93
 2102 010e 6B000000 		.4byte	0x6b
 2103 0112 04       		.byte	0x4
 2104 0113 07       		.uleb128 0x7
 2105 0114 FC040000 		.4byte	.LASF24
 2106 0118 03       		.byte	0x3
 2107 0119 94       		.byte	0x94
 2108 011a 6B000000 		.4byte	0x6b
 2109 011e 05       		.byte	0x5
 2110 011f 07       		.uleb128 0x7
 2111 0120 82030000 		.4byte	.LASF25
 2112 0124 03       		.byte	0x3
 2113 0125 95       		.byte	0x95
 2114 0126 77000000 		.4byte	0x77
 2115 012a 06       		.byte	0x6
 2116 012b 07       		.uleb128 0x7
 2117 012c 2C000000 		.4byte	.LASF26
 2118 0130 03       		.byte	0x3
 2119 0131 96       		.byte	0x96
 2120 0132 77000000 		.4byte	0x77
 2121 0136 08       		.byte	0x8
 2122 0137 07       		.uleb128 0x7
 2123 0138 A6000000 		.4byte	.LASF27
ARM GAS  C:\Users\ingan\AppData\Local\Temp\ccPtKCQI.s 			page 64


 2124 013c 03       		.byte	0x3
 2125 013d 97       		.byte	0x97
 2126 013e 6B000000 		.4byte	0x6b
 2127 0142 0A       		.byte	0xa
 2128 0143 00       		.byte	0
 2129 0144 08       		.uleb128 0x8
 2130 0145 BC050000 		.4byte	.LASF28
 2131 0149 03       		.byte	0x3
 2132 014a 98       		.byte	0x98
 2133 014b CF000000 		.4byte	0xcf
 2134 014f 06       		.uleb128 0x6
 2135 0150 08       		.byte	0x8
 2136 0151 03       		.byte	0x3
 2137 0152 9A       		.byte	0x9a
 2138 0153 A0010000 		.4byte	0x1a0
 2139 0157 07       		.uleb128 0x7
 2140 0158 A6000000 		.4byte	.LASF27
 2141 015c 03       		.byte	0x3
 2142 015d 9C       		.byte	0x9c
 2143 015e 6B000000 		.4byte	0x6b
 2144 0162 00       		.byte	0
 2145 0163 07       		.uleb128 0x7
 2146 0164 B8010000 		.4byte	.LASF29
 2147 0168 03       		.byte	0x3
 2148 0169 9D       		.byte	0x9d
 2149 016a 6B000000 		.4byte	0x6b
 2150 016e 01       		.byte	0x1
 2151 016f 07       		.uleb128 0x7
 2152 0170 85060000 		.4byte	.LASF23
 2153 0174 03       		.byte	0x3
 2154 0175 9E       		.byte	0x9e
 2155 0176 6B000000 		.4byte	0x6b
 2156 017a 02       		.byte	0x2
 2157 017b 07       		.uleb128 0x7
 2158 017c 63060000 		.4byte	.LASF30
 2159 0180 03       		.byte	0x3
 2160 0181 9F       		.byte	0x9f
 2161 0182 6B000000 		.4byte	0x6b
 2162 0186 03       		.byte	0x3
 2163 0187 07       		.uleb128 0x7
 2164 0188 2C000000 		.4byte	.LASF26
 2165 018c 03       		.byte	0x3
 2166 018d A0       		.byte	0xa0
 2167 018e 77000000 		.4byte	0x77
 2168 0192 04       		.byte	0x4
 2169 0193 07       		.uleb128 0x7
 2170 0194 E0030000 		.4byte	.LASF31
 2171 0198 03       		.byte	0x3
 2172 0199 A1       		.byte	0xa1
 2173 019a 6B000000 		.4byte	0x6b
 2174 019e 06       		.byte	0x6
 2175 019f 00       		.byte	0
 2176 01a0 08       		.uleb128 0x8
 2177 01a1 1B020000 		.4byte	.LASF32
 2178 01a5 03       		.byte	0x3
 2179 01a6 A2       		.byte	0xa2
 2180 01a7 4F010000 		.4byte	0x14f
ARM GAS  C:\Users\ingan\AppData\Local\Temp\ccPtKCQI.s 			page 65


 2181 01ab 06       		.uleb128 0x6
 2182 01ac 04       		.byte	0x4
 2183 01ad 03       		.byte	0x3
 2184 01ae A4       		.byte	0xa4
 2185 01af CC010000 		.4byte	0x1cc
 2186 01b3 07       		.uleb128 0x7
 2187 01b4 75030000 		.4byte	.LASF33
 2188 01b8 03       		.byte	0x3
 2189 01b9 A6       		.byte	0xa6
 2190 01ba 6B000000 		.4byte	0x6b
 2191 01be 00       		.byte	0
 2192 01bf 07       		.uleb128 0x7
 2193 01c0 0C050000 		.4byte	.LASF34
 2194 01c4 03       		.byte	0x3
 2195 01c5 A7       		.byte	0xa7
 2196 01c6 77000000 		.4byte	0x77
 2197 01ca 02       		.byte	0x2
 2198 01cb 00       		.byte	0
 2199 01cc 08       		.uleb128 0x8
 2200 01cd 21040000 		.4byte	.LASF35
 2201 01d1 03       		.byte	0x3
 2202 01d2 A8       		.byte	0xa8
 2203 01d3 AB010000 		.4byte	0x1ab
 2204 01d7 06       		.uleb128 0x6
 2205 01d8 0C       		.byte	0xc
 2206 01d9 03       		.byte	0x3
 2207 01da AA       		.byte	0xaa
 2208 01db 04020000 		.4byte	0x204
 2209 01df 07       		.uleb128 0x7
 2210 01e0 D2010000 		.4byte	.LASF36
 2211 01e4 03       		.byte	0x3
 2212 01e5 AC       		.byte	0xac
 2213 01e6 77000000 		.4byte	0x77
 2214 01ea 00       		.byte	0
 2215 01eb 07       		.uleb128 0x7
 2216 01ec 74020000 		.4byte	.LASF37
 2217 01f0 03       		.byte	0x3
 2218 01f1 AD       		.byte	0xad
 2219 01f2 04020000 		.4byte	0x204
 2220 01f6 04       		.byte	0x4
 2221 01f7 07       		.uleb128 0x7
 2222 01f8 1B030000 		.4byte	.LASF38
 2223 01fc 03       		.byte	0x3
 2224 01fd AE       		.byte	0xae
 2225 01fe 0A020000 		.4byte	0x20a
 2226 0202 08       		.byte	0x8
 2227 0203 00       		.byte	0
 2228 0204 09       		.uleb128 0x9
 2229 0205 04       		.byte	0x4
 2230 0206 BC000000 		.4byte	0xbc
 2231 020a 09       		.uleb128 0x9
 2232 020b 04       		.byte	0x4
 2233 020c CC010000 		.4byte	0x1cc
 2234 0210 08       		.uleb128 0x8
 2235 0211 99000000 		.4byte	.LASF39
 2236 0215 03       		.byte	0x3
 2237 0216 AF       		.byte	0xaf
ARM GAS  C:\Users\ingan\AppData\Local\Temp\ccPtKCQI.s 			page 66


 2238 0217 D7010000 		.4byte	0x1d7
 2239 021b 06       		.uleb128 0x6
 2240 021c 08       		.byte	0x8
 2241 021d 03       		.byte	0x3
 2242 021e B1       		.byte	0xb1
 2243 021f 3A020000 		.4byte	0x23a
 2244 0223 0A       		.uleb128 0xa
 2245 0224 6300     		.ascii	"c\000"
 2246 0226 03       		.byte	0x3
 2247 0227 B3       		.byte	0xb3
 2248 0228 6B000000 		.4byte	0x6b
 2249 022c 00       		.byte	0
 2250 022d 07       		.uleb128 0x7
 2251 022e E3050000 		.4byte	.LASF40
 2252 0232 03       		.byte	0x3
 2253 0233 B4       		.byte	0xb4
 2254 0234 3A020000 		.4byte	0x23a
 2255 0238 04       		.byte	0x4
 2256 0239 00       		.byte	0
 2257 023a 09       		.uleb128 0x9
 2258 023b 04       		.byte	0x4
 2259 023c 40020000 		.4byte	0x240
 2260 0240 0B       		.uleb128 0xb
 2261 0241 08       		.uleb128 0x8
 2262 0242 D8010000 		.4byte	.LASF41
 2263 0246 03       		.byte	0x3
 2264 0247 B5       		.byte	0xb5
 2265 0248 1B020000 		.4byte	0x21b
 2266 024c 06       		.uleb128 0x6
 2267 024d 08       		.byte	0x8
 2268 024e 03       		.byte	0x3
 2269 024f C5       		.byte	0xc5
 2270 0250 61020000 		.4byte	0x261
 2271 0254 07       		.uleb128 0x7
 2272 0255 B0070000 		.4byte	.LASF42
 2273 0259 03       		.byte	0x3
 2274 025a C7       		.byte	0xc7
 2275 025b 61020000 		.4byte	0x261
 2276 025f 00       		.byte	0
 2277 0260 00       		.byte	0
 2278 0261 0C       		.uleb128 0xc
 2279 0262 6B000000 		.4byte	0x6b
 2280 0266 71020000 		.4byte	0x271
 2281 026a 0D       		.uleb128 0xd
 2282 026b C8000000 		.4byte	0xc8
 2283 026f 07       		.byte	0x7
 2284 0270 00       		.byte	0
 2285 0271 08       		.uleb128 0x8
 2286 0272 3B050000 		.4byte	.LASF43
 2287 0276 03       		.byte	0x3
 2288 0277 C8       		.byte	0xc8
 2289 0278 4C020000 		.4byte	0x24c
 2290 027c 06       		.uleb128 0x6
 2291 027d 10       		.byte	0x10
 2292 027e 03       		.byte	0x3
 2293 027f D4       		.byte	0xd4
 2294 0280 B5020000 		.4byte	0x2b5
ARM GAS  C:\Users\ingan\AppData\Local\Temp\ccPtKCQI.s 			page 67


 2295 0284 07       		.uleb128 0x7
 2296 0285 E6030000 		.4byte	.LASF44
 2297 0289 03       		.byte	0x3
 2298 028a D6       		.byte	0xd6
 2299 028b 6B000000 		.4byte	0x6b
 2300 028f 00       		.byte	0
 2301 0290 07       		.uleb128 0x7
 2302 0291 ED030000 		.4byte	.LASF45
 2303 0295 03       		.byte	0x3
 2304 0296 D7       		.byte	0xd7
 2305 0297 6B000000 		.4byte	0x6b
 2306 029b 01       		.byte	0x1
 2307 029c 07       		.uleb128 0x7
 2308 029d 9F030000 		.4byte	.LASF46
 2309 02a1 03       		.byte	0x3
 2310 02a2 D8       		.byte	0xd8
 2311 02a3 6B000000 		.4byte	0x6b
 2312 02a7 02       		.byte	0x2
 2313 02a8 0A       		.uleb128 0xa
 2314 02a9 67617000 		.ascii	"gap\000"
 2315 02ad 03       		.byte	0x3
 2316 02ae D9       		.byte	0xd9
 2317 02af B5020000 		.4byte	0x2b5
 2318 02b3 03       		.byte	0x3
 2319 02b4 00       		.byte	0
 2320 02b5 0C       		.uleb128 0xc
 2321 02b6 6B000000 		.4byte	0x6b
 2322 02ba C5020000 		.4byte	0x2c5
 2323 02be 0D       		.uleb128 0xd
 2324 02bf C8000000 		.4byte	0xc8
 2325 02c3 0C       		.byte	0xc
 2326 02c4 00       		.byte	0
 2327 02c5 08       		.uleb128 0x8
 2328 02c6 F4030000 		.4byte	.LASF47
 2329 02ca 03       		.byte	0x3
 2330 02cb DA       		.byte	0xda
 2331 02cc 7C020000 		.4byte	0x27c
 2332 02d0 06       		.uleb128 0x6
 2333 02d1 10       		.byte	0x10
 2334 02d2 03       		.byte	0x3
 2335 02d3 E6       		.byte	0xe6
 2336 02d4 51030000 		.4byte	0x351
 2337 02d8 07       		.uleb128 0x7
 2338 02d9 35050000 		.4byte	.LASF48
 2339 02dd 03       		.byte	0x3
 2340 02de E8       		.byte	0xe8
 2341 02df 6B000000 		.4byte	0x6b
 2342 02e3 00       		.byte	0
 2343 02e4 07       		.uleb128 0x7
 2344 02e5 4D020000 		.4byte	.LASF49
 2345 02e9 03       		.byte	0x3
 2346 02ea E9       		.byte	0xe9
 2347 02eb 6B000000 		.4byte	0x6b
 2348 02ef 01       		.byte	0x1
 2349 02f0 07       		.uleb128 0x7
 2350 02f1 DE050000 		.4byte	.LASF50
 2351 02f5 03       		.byte	0x3
ARM GAS  C:\Users\ingan\AppData\Local\Temp\ccPtKCQI.s 			page 68


 2352 02f6 EA       		.byte	0xea
 2353 02f7 6B000000 		.4byte	0x6b
 2354 02fb 02       		.byte	0x2
 2355 02fc 07       		.uleb128 0x7
 2356 02fd 30070000 		.4byte	.LASF51
 2357 0301 03       		.byte	0x3
 2358 0302 EB       		.byte	0xeb
 2359 0303 6B000000 		.4byte	0x6b
 2360 0307 03       		.byte	0x3
 2361 0308 07       		.uleb128 0x7
 2362 0309 E6010000 		.4byte	.LASF52
 2363 030d 03       		.byte	0x3
 2364 030e EC       		.byte	0xec
 2365 030f 6B000000 		.4byte	0x6b
 2366 0313 04       		.byte	0x4
 2367 0314 07       		.uleb128 0x7
 2368 0315 10060000 		.4byte	.LASF53
 2369 0319 03       		.byte	0x3
 2370 031a ED       		.byte	0xed
 2371 031b 6B000000 		.4byte	0x6b
 2372 031f 05       		.byte	0x5
 2373 0320 07       		.uleb128 0x7
 2374 0321 A1060000 		.4byte	.LASF54
 2375 0325 03       		.byte	0x3
 2376 0326 EE       		.byte	0xee
 2377 0327 6B000000 		.4byte	0x6b
 2378 032b 06       		.byte	0x6
 2379 032c 07       		.uleb128 0x7
 2380 032d 13050000 		.4byte	.LASF55
 2381 0331 03       		.byte	0x3
 2382 0332 EF       		.byte	0xef
 2383 0333 6B000000 		.4byte	0x6b
 2384 0337 07       		.byte	0x7
 2385 0338 07       		.uleb128 0x7
 2386 0339 00000000 		.4byte	.LASF56
 2387 033d 03       		.byte	0x3
 2388 033e F0       		.byte	0xf0
 2389 033f 6B000000 		.4byte	0x6b
 2390 0343 08       		.byte	0x8
 2391 0344 0A       		.uleb128 0xa
 2392 0345 67617000 		.ascii	"gap\000"
 2393 0349 03       		.byte	0x3
 2394 034a F1       		.byte	0xf1
 2395 034b 51030000 		.4byte	0x351
 2396 034f 09       		.byte	0x9
 2397 0350 00       		.byte	0
 2398 0351 0C       		.uleb128 0xc
 2399 0352 6B000000 		.4byte	0x6b
 2400 0356 61030000 		.4byte	0x361
 2401 035a 0D       		.uleb128 0xd
 2402 035b C8000000 		.4byte	0xc8
 2403 035f 06       		.byte	0x6
 2404 0360 00       		.byte	0
 2405 0361 08       		.uleb128 0x8
 2406 0362 37020000 		.4byte	.LASF57
 2407 0366 03       		.byte	0x3
 2408 0367 F2       		.byte	0xf2
ARM GAS  C:\Users\ingan\AppData\Local\Temp\ccPtKCQI.s 			page 69


 2409 0368 D0020000 		.4byte	0x2d0
 2410 036c 0E       		.uleb128 0xe
 2411 036d 90       		.byte	0x90
 2412 036e 03       		.byte	0x3
 2413 036f 0E01     		.2byte	0x10e
 2414 0371 83030000 		.4byte	0x383
 2415 0375 0F       		.uleb128 0xf
 2416 0376 7A000000 		.4byte	.LASF58
 2417 037a 03       		.byte	0x3
 2418 037b 1001     		.2byte	0x110
 2419 037d 83030000 		.4byte	0x383
 2420 0381 00       		.byte	0
 2421 0382 00       		.byte	0
 2422 0383 0C       		.uleb128 0xc
 2423 0384 C5020000 		.4byte	0x2c5
 2424 0388 93030000 		.4byte	0x393
 2425 038c 0D       		.uleb128 0xd
 2426 038d C8000000 		.4byte	0xc8
 2427 0391 08       		.byte	0x8
 2428 0392 00       		.byte	0
 2429 0393 04       		.uleb128 0x4
 2430 0394 6E060000 		.4byte	.LASF59
 2431 0398 03       		.byte	0x3
 2432 0399 1101     		.2byte	0x111
 2433 039b 6C030000 		.4byte	0x36c
 2434 039f 0E       		.uleb128 0xe
 2435 03a0 90       		.byte	0x90
 2436 03a1 03       		.byte	0x3
 2437 03a2 1401     		.2byte	0x114
 2438 03a4 B6030000 		.4byte	0x3b6
 2439 03a8 0F       		.uleb128 0xf
 2440 03a9 50030000 		.4byte	.LASF60
 2441 03ad 03       		.byte	0x3
 2442 03ae 1601     		.2byte	0x116
 2443 03b0 B6030000 		.4byte	0x3b6
 2444 03b4 00       		.byte	0
 2445 03b5 00       		.byte	0
 2446 03b6 0C       		.uleb128 0xc
 2447 03b7 61030000 		.4byte	0x361
 2448 03bb C6030000 		.4byte	0x3c6
 2449 03bf 0D       		.uleb128 0xd
 2450 03c0 C8000000 		.4byte	0xc8
 2451 03c4 08       		.byte	0x8
 2452 03c5 00       		.byte	0
 2453 03c6 04       		.uleb128 0x4
 2454 03c7 A5030000 		.4byte	.LASF61
 2455 03cb 03       		.byte	0x3
 2456 03cc 1701     		.2byte	0x117
 2457 03ce 9F030000 		.4byte	0x39f
 2458 03d2 10       		.uleb128 0x10
 2459 03d3 78050000 		.4byte	.LASF63
 2460 03d7 01       		.byte	0x1
 2461 03d8 8E01     		.2byte	0x18e
 2462 03da 00000000 		.4byte	.LFB1
 2463 03de 6C000000 		.4byte	.LFE1-.LFB1
 2464 03e2 01       		.uleb128 0x1
 2465 03e3 9C       		.byte	0x9c
ARM GAS  C:\Users\ingan\AppData\Local\Temp\ccPtKCQI.s 			page 70


 2466 03e4 43040000 		.4byte	0x443
 2467 03e8 11       		.uleb128 0x11
 2468 03e9 69040000 		.4byte	.LASF66
 2469 03ed 01       		.byte	0x1
 2470 03ee 8E01     		.2byte	0x18e
 2471 03f0 43040000 		.4byte	0x443
 2472 03f4 00000000 		.4byte	.LLST0
 2473 03f8 12       		.uleb128 0x12
 2474 03f9 68657800 		.ascii	"hex\000"
 2475 03fd 01       		.byte	0x1
 2476 03fe 9001     		.2byte	0x190
 2477 0400 5E040000 		.4byte	0x45e
 2478 0404 02       		.uleb128 0x2
 2479 0405 91       		.byte	0x91
 2480 0406 5C       		.sleb128 -36
 2481 0407 13       		.uleb128 0x13
 2482 0408 6900     		.ascii	"i\000"
 2483 040a 01       		.byte	0x1
 2484 040b 9101     		.2byte	0x191
 2485 040d 6B000000 		.4byte	0x6b
 2486 0411 2C000000 		.4byte	.LLST1
 2487 0415 13       		.uleb128 0x13
 2488 0416 6A00     		.ascii	"j\000"
 2489 0418 01       		.byte	0x1
 2490 0419 9201     		.2byte	0x192
 2491 041b 6B000000 		.4byte	0x6b
 2492 041f 56000000 		.4byte	.LLST2
 2493 0423 14       		.uleb128 0x14
 2494 0424 27070000 		.4byte	.LASF62
 2495 0428 01       		.byte	0x1
 2496 0429 9301     		.2byte	0x193
 2497 042b 61020000 		.4byte	0x261
 2498 042f 02       		.uleb128 0x2
 2499 0430 91       		.byte	0x91
 2500 0431 54       		.sleb128 -44
 2501 0432 15       		.uleb128 0x15
 2502 0433 22000000 		.4byte	.LVL3
 2503 0437 EC0A0000 		.4byte	0xaec
 2504 043b 16       		.uleb128 0x16
 2505 043c 01       		.uleb128 0x1
 2506 043d 50       		.byte	0x50
 2507 043e 02       		.uleb128 0x2
 2508 043f 91       		.byte	0x91
 2509 0440 54       		.sleb128 -44
 2510 0441 00       		.byte	0
 2511 0442 00       		.byte	0
 2512 0443 09       		.uleb128 0x9
 2513 0444 04       		.byte	0x4
 2514 0445 6B000000 		.4byte	0x6b
 2515 0449 0C       		.uleb128 0xc
 2516 044a 59040000 		.4byte	0x459
 2517 044e 59040000 		.4byte	0x459
 2518 0452 0D       		.uleb128 0xd
 2519 0453 C8000000 		.4byte	0xc8
 2520 0457 10       		.byte	0x10
 2521 0458 00       		.byte	0
 2522 0459 17       		.uleb128 0x17
ARM GAS  C:\Users\ingan\AppData\Local\Temp\ccPtKCQI.s 			page 71


 2523 045a 9D000000 		.4byte	0x9d
 2524 045e 17       		.uleb128 0x17
 2525 045f 49040000 		.4byte	0x449
 2526 0463 10       		.uleb128 0x10
 2527 0464 8F050000 		.4byte	.LASF64
 2528 0468 01       		.byte	0x1
 2529 0469 B501     		.2byte	0x1b5
 2530 046b 00000000 		.4byte	.LFB2
 2531 046f A8000000 		.4byte	.LFE2-.LFB2
 2532 0473 01       		.uleb128 0x1
 2533 0474 9C       		.byte	0x9c
 2534 0475 89040000 		.4byte	0x489
 2535 0479 13       		.uleb128 0x13
 2536 047a 657000   		.ascii	"ep\000"
 2537 047d 01       		.byte	0x1
 2538 047e B701     		.2byte	0x1b7
 2539 0480 6B000000 		.4byte	0x6b
 2540 0484 80000000 		.4byte	.LLST3
 2541 0488 00       		.byte	0
 2542 0489 10       		.uleb128 0x10
 2543 048a 4E010000 		.4byte	.LASF65
 2544 048e 01       		.byte	0x1
 2545 048f 1402     		.2byte	0x214
 2546 0491 00000000 		.4byte	.LFB3
 2547 0495 44000000 		.4byte	.LFE3-.LFB3
 2548 0499 01       		.uleb128 0x1
 2549 049a 9C       		.byte	0x9c
 2550 049b AE040000 		.4byte	0x4ae
 2551 049f 13       		.uleb128 0x13
 2552 04a0 6900     		.ascii	"i\000"
 2553 04a2 01       		.byte	0x1
 2554 04a3 1602     		.2byte	0x216
 2555 04a5 6B000000 		.4byte	0x6b
 2556 04a9 AA000000 		.4byte	.LLST4
 2557 04ad 00       		.byte	0
 2558 04ae 18       		.uleb128 0x18
 2559 04af 1B050000 		.4byte	.LASF73
 2560 04b3 01       		.byte	0x1
 2561 04b4 AE03     		.2byte	0x3ae
 2562 04b6 E9040000 		.4byte	0x4e9
 2563 04ba 00000000 		.4byte	.LFB6
 2564 04be 28000000 		.4byte	.LFE6-.LFB6
 2565 04c2 01       		.uleb128 0x1
 2566 04c3 9C       		.byte	0x9c
 2567 04c4 E9040000 		.4byte	0x4e9
 2568 04c8 11       		.uleb128 0x11
 2569 04c9 55020000 		.4byte	.LASF67
 2570 04cd 01       		.byte	0x1
 2571 04ce AE03     		.2byte	0x3ae
 2572 04d0 6B000000 		.4byte	0x6b
 2573 04d4 D4000000 		.4byte	.LLST5
 2574 04d8 19       		.uleb128 0x19
 2575 04d9 8A050000 		.4byte	.LASF68
 2576 04dd 01       		.byte	0x1
 2577 04de B203     		.2byte	0x3b2
 2578 04e0 E9040000 		.4byte	0x4e9
 2579 04e4 0E010000 		.4byte	.LLST6
ARM GAS  C:\Users\ingan\AppData\Local\Temp\ccPtKCQI.s 			page 72


 2580 04e8 00       		.byte	0
 2581 04e9 09       		.uleb128 0x9
 2582 04ea 04       		.byte	0x4
 2583 04eb EF040000 		.4byte	0x4ef
 2584 04ef 17       		.uleb128 0x17
 2585 04f0 41020000 		.4byte	0x241
 2586 04f4 10       		.uleb128 0x10
 2587 04f5 80000000 		.4byte	.LASF69
 2588 04f9 01       		.byte	0x1
 2589 04fa 2503     		.2byte	0x325
 2590 04fc 00000000 		.4byte	.LFB5
 2591 0500 1C010000 		.4byte	.LFE5-.LFB5
 2592 0504 01       		.uleb128 0x1
 2593 0505 9C       		.byte	0x9c
 2594 0506 81050000 		.4byte	0x581
 2595 050a 13       		.uleb128 0x13
 2596 050b 657000   		.ascii	"ep\000"
 2597 050e 01       		.byte	0x1
 2598 050f 2703     		.2byte	0x327
 2599 0511 6B000000 		.4byte	0x6b
 2600 0515 46010000 		.4byte	.LLST7
 2601 0519 19       		.uleb128 0x19
 2602 051a D3050000 		.4byte	.LASF70
 2603 051e 01       		.byte	0x1
 2604 051f 2803     		.2byte	0x328
 2605 0521 6B000000 		.4byte	0x6b
 2606 0525 59010000 		.4byte	.LLST8
 2607 0529 19       		.uleb128 0x19
 2608 052a BC030000 		.4byte	.LASF71
 2609 052e 01       		.byte	0x1
 2610 052f 2903     		.2byte	0x329
 2611 0531 6B000000 		.4byte	0x6b
 2612 0535 6C010000 		.4byte	.LLST9
 2613 0539 13       		.uleb128 0x13
 2614 053a 6900     		.ascii	"i\000"
 2615 053c 01       		.byte	0x1
 2616 053d 2A03     		.2byte	0x32a
 2617 053f 6B000000 		.4byte	0x6b
 2618 0543 8A010000 		.4byte	.LLST10
 2619 0547 19       		.uleb128 0x19
 2620 0548 80070000 		.4byte	.LASF72
 2621 054c 01       		.byte	0x1
 2622 054d 2B03     		.2byte	0x32b
 2623 054f 6B000000 		.4byte	0x6b
 2624 0553 B4010000 		.4byte	.LLST11
 2625 0557 19       		.uleb128 0x19
 2626 0558 8A050000 		.4byte	.LASF68
 2627 055c 01       		.byte	0x1
 2628 055d 2D03     		.2byte	0x32d
 2629 055f E9040000 		.4byte	0x4e9
 2630 0563 C7010000 		.4byte	.LLST12
 2631 0567 13       		.uleb128 0x13
 2632 0568 70455000 		.ascii	"pEP\000"
 2633 056c 01       		.byte	0x1
 2634 056d 2E03     		.2byte	0x32e
 2635 056f 81050000 		.4byte	0x581
 2636 0573 DC010000 		.4byte	.LLST13
ARM GAS  C:\Users\ingan\AppData\Local\Temp\ccPtKCQI.s 			page 73


 2637 0577 1A       		.uleb128 0x1a
 2638 0578 18000000 		.4byte	.LVL26
 2639 057c AE040000 		.4byte	0x4ae
 2640 0580 00       		.byte	0
 2641 0581 09       		.uleb128 0x9
 2642 0582 04       		.byte	0x4
 2643 0583 87050000 		.4byte	0x587
 2644 0587 17       		.uleb128 0x17
 2645 0588 A0010000 		.4byte	0x1a0
 2646 058c 1B       		.uleb128 0x1b
 2647 058d E2000000 		.4byte	.LASF121
 2648 0591 01       		.byte	0x1
 2649 0592 F303     		.2byte	0x3f3
 2650 0594 E9040000 		.4byte	0x4e9
 2651 0598 00000000 		.4byte	.LFB7
 2652 059c 18000000 		.4byte	.LFE7-.LFB7
 2653 05a0 01       		.uleb128 0x1
 2654 05a1 9C       		.byte	0x9c
 2655 05a2 18       		.uleb128 0x18
 2656 05a3 0A010000 		.4byte	.LASF74
 2657 05a7 01       		.byte	0x1
 2658 05a8 0604     		.2byte	0x406
 2659 05aa F6050000 		.4byte	0x5f6
 2660 05ae 00000000 		.4byte	.LFB8
 2661 05b2 28000000 		.4byte	.LFE8-.LFB8
 2662 05b6 01       		.uleb128 0x1
 2663 05b7 9C       		.byte	0x9c
 2664 05b8 F6050000 		.4byte	0x5f6
 2665 05bc 19       		.uleb128 0x19
 2666 05bd 8A050000 		.4byte	.LASF68
 2667 05c1 01       		.byte	0x1
 2668 05c2 0904     		.2byte	0x409
 2669 05c4 E9040000 		.4byte	0x4e9
 2670 05c8 EF010000 		.4byte	.LLST14
 2671 05cc 19       		.uleb128 0x19
 2672 05cd 59040000 		.4byte	.LASF75
 2673 05d1 01       		.byte	0x1
 2674 05d2 0A04     		.2byte	0x40a
 2675 05d4 F6050000 		.4byte	0x5f6
 2676 05d8 18020000 		.4byte	.LLST15
 2677 05dc 19       		.uleb128 0x19
 2678 05dd 5F020000 		.4byte	.LASF76
 2679 05e1 01       		.byte	0x1
 2680 05e2 0B04     		.2byte	0x40b
 2681 05e4 6B000000 		.4byte	0x6b
 2682 05e8 36020000 		.4byte	.LLST16
 2683 05ec 1A       		.uleb128 0x1a
 2684 05ed 0E000000 		.4byte	.LVL42
 2685 05f1 AE040000 		.4byte	0x4ae
 2686 05f5 00       		.byte	0
 2687 05f6 09       		.uleb128 0x9
 2688 05f7 04       		.byte	0x4
 2689 05f8 FC050000 		.4byte	0x5fc
 2690 05fc 17       		.uleb128 0x17
 2691 05fd 6B000000 		.4byte	0x6b
 2692 0601 10       		.uleb128 0x10
 2693 0602 6F040000 		.4byte	.LASF77
ARM GAS  C:\Users\ingan\AppData\Local\Temp\ccPtKCQI.s 			page 74


 2694 0606 01       		.byte	0x1
 2695 0607 3A02     		.2byte	0x23a
 2696 0609 00000000 		.4byte	.LFB4
 2697 060d EC010000 		.4byte	.LFE4-.LFB4
 2698 0611 01       		.uleb128 0x1
 2699 0612 9C       		.byte	0x9c
 2700 0613 FA060000 		.4byte	0x6fa
 2701 0617 11       		.uleb128 0x11
 2702 0618 53060000 		.4byte	.LASF78
 2703 061c 01       		.byte	0x1
 2704 061d 3A02     		.2byte	0x23a
 2705 061f 6B000000 		.4byte	0x6b
 2706 0623 56020000 		.4byte	.LLST17
 2707 0627 13       		.uleb128 0x13
 2708 0628 657000   		.ascii	"ep\000"
 2709 062b 01       		.byte	0x1
 2710 062c 3C02     		.2byte	0x23c
 2711 062e 6B000000 		.4byte	0x6b
 2712 0632 77020000 		.4byte	.LLST18
 2713 0636 19       		.uleb128 0x19
 2714 0637 D3050000 		.4byte	.LASF70
 2715 063b 01       		.byte	0x1
 2716 063c 3D02     		.2byte	0x23d
 2717 063e 6B000000 		.4byte	0x6b
 2718 0642 D9020000 		.4byte	.LLST19
 2719 0646 13       		.uleb128 0x13
 2720 0647 6900     		.ascii	"i\000"
 2721 0649 01       		.byte	0x1
 2722 064a 3E02     		.2byte	0x23e
 2723 064c 6B000000 		.4byte	0x6b
 2724 0650 03030000 		.4byte	.LLST20
 2725 0654 19       		.uleb128 0x19
 2726 0655 BC030000 		.4byte	.LASF71
 2727 0659 01       		.byte	0x1
 2728 065a 3F02     		.2byte	0x23f
 2729 065c 6B000000 		.4byte	0x6b
 2730 0660 70030000 		.4byte	.LLST21
 2731 0664 19       		.uleb128 0x19
 2732 0665 47010000 		.4byte	.LASF79
 2733 0669 01       		.byte	0x1
 2734 066a 4002     		.2byte	0x240
 2735 066c F6050000 		.4byte	0x5f6
 2736 0670 B0030000 		.4byte	.LLST22
 2737 0674 19       		.uleb128 0x19
 2738 0675 E8040000 		.4byte	.LASF80
 2739 0679 01       		.byte	0x1
 2740 067a 4302     		.2byte	0x243
 2741 067c 77000000 		.4byte	0x77
 2742 0680 CF030000 		.4byte	.LLST23
 2743 0684 19       		.uleb128 0x19
 2744 0685 8A050000 		.4byte	.LASF68
 2745 0689 01       		.byte	0x1
 2746 068a 4602     		.2byte	0x246
 2747 068c E9040000 		.4byte	0x4e9
 2748 0690 10040000 		.4byte	.LLST24
 2749 0694 13       		.uleb128 0x13
 2750 0695 70455000 		.ascii	"pEP\000"
ARM GAS  C:\Users\ingan\AppData\Local\Temp\ccPtKCQI.s 			page 75


 2751 0699 01       		.byte	0x1
 2752 069a 4702     		.2byte	0x247
 2753 069c 81050000 		.4byte	0x581
 2754 06a0 3D040000 		.4byte	.LLST25
 2755 06a4 1C       		.uleb128 0x1c
 2756 06a5 54000000 		.4byte	.LBB2
 2757 06a9 98010000 		.4byte	.LBE2-.LBB2
 2758 06ad 19       		.uleb128 0x19
 2759 06ae 47040000 		.4byte	.LASF81
 2760 06b2 01       		.byte	0x1
 2761 06b3 6302     		.2byte	0x263
 2762 06b5 6B000000 		.4byte	0x6b
 2763 06b9 73040000 		.4byte	.LLST26
 2764 06bd 1A       		.uleb128 0x1a
 2765 06be 60000000 		.4byte	.LVL62
 2766 06c2 AE040000 		.4byte	0x4ae
 2767 06c6 1D       		.uleb128 0x1d
 2768 06c7 5E010000 		.4byte	.LVL77
 2769 06cb F70A0000 		.4byte	0xaf7
 2770 06cf E6060000 		.4byte	0x6e6
 2771 06d3 16       		.uleb128 0x16
 2772 06d4 01       		.uleb128 0x1
 2773 06d5 50       		.byte	0x50
 2774 06d6 02       		.uleb128 0x2
 2775 06d7 75       		.byte	0x75
 2776 06d8 00       		.sleb128 0
 2777 06d9 16       		.uleb128 0x16
 2778 06da 01       		.uleb128 0x1
 2779 06db 51       		.byte	0x51
 2780 06dc 02       		.uleb128 0x2
 2781 06dd 76       		.byte	0x76
 2782 06de 00       		.sleb128 0
 2783 06df 16       		.uleb128 0x16
 2784 06e0 01       		.uleb128 0x1
 2785 06e1 52       		.byte	0x52
 2786 06e2 02       		.uleb128 0x2
 2787 06e3 7A       		.byte	0x7a
 2788 06e4 00       		.sleb128 0
 2789 06e5 00       		.byte	0
 2790 06e6 1A       		.uleb128 0x1a
 2791 06e7 9C010000 		.4byte	.LVL90
 2792 06eb A2050000 		.4byte	0x5a2
 2793 06ef 1A       		.uleb128 0x1a
 2794 06f0 CE010000 		.4byte	.LVL99
 2795 06f4 63040000 		.4byte	0x463
 2796 06f8 00       		.byte	0
 2797 06f9 00       		.byte	0
 2798 06fa 10       		.uleb128 0x10
 2799 06fb 28030000 		.4byte	.LASF82
 2800 06ff 01       		.byte	0x1
 2801 0700 3004     		.2byte	0x430
 2802 0702 00000000 		.4byte	.LFB9
 2803 0706 4C000000 		.4byte	.LFE9-.LFB9
 2804 070a 01       		.uleb128 0x1
 2805 070b 9C       		.byte	0x9c
 2806 070c 21070000 		.4byte	0x721
 2807 0710 11       		.uleb128 0x11
ARM GAS  C:\Users\ingan\AppData\Local\Temp\ccPtKCQI.s 			page 76


 2808 0711 0A040000 		.4byte	.LASF83
 2809 0715 01       		.byte	0x1
 2810 0716 3004     		.2byte	0x430
 2811 0718 6B000000 		.4byte	0x6b
 2812 071c 92040000 		.4byte	.LLST27
 2813 0720 00       		.byte	0
 2814 0721 18       		.uleb128 0x18
 2815 0722 62010000 		.4byte	.LASF84
 2816 0726 01       		.byte	0x1
 2817 0727 5904     		.2byte	0x459
 2818 0729 6B000000 		.4byte	0x6b
 2819 072d 00000000 		.4byte	.LFB10
 2820 0731 64000000 		.4byte	.LFE10-.LFB10
 2821 0735 01       		.uleb128 0x1
 2822 0736 9C       		.byte	0x9c
 2823 0737 64070000 		.4byte	0x764
 2824 073b 19       		.uleb128 0x19
 2825 073c C3030000 		.4byte	.LASF85
 2826 0740 01       		.byte	0x1
 2827 0741 5B04     		.2byte	0x45b
 2828 0743 6B000000 		.4byte	0x6b
 2829 0747 BB040000 		.4byte	.LLST28
 2830 074b 13       		.uleb128 0x13
 2831 074c 657000   		.ascii	"ep\000"
 2832 074f 01       		.byte	0x1
 2833 0750 5C04     		.2byte	0x45c
 2834 0752 6B000000 		.4byte	0x6b
 2835 0756 F1040000 		.4byte	.LLST29
 2836 075a 1A       		.uleb128 0x1a
 2837 075b 52000000 		.4byte	.LVL110
 2838 075f 030B0000 		.4byte	0xb03
 2839 0763 00       		.byte	0
 2840 0764 18       		.uleb128 0x18
 2841 0765 60000000 		.4byte	.LASF86
 2842 0769 01       		.byte	0x1
 2843 076a 8A04     		.2byte	0x48a
 2844 076c 6B000000 		.4byte	0x6b
 2845 0770 00000000 		.4byte	.LFB11
 2846 0774 AC000000 		.4byte	.LFE11-.LFB11
 2847 0778 01       		.uleb128 0x1
 2848 0779 9C       		.byte	0x9c
 2849 077a A7070000 		.4byte	0x7a7
 2850 077e 19       		.uleb128 0x19
 2851 077f C3030000 		.4byte	.LASF85
 2852 0783 01       		.byte	0x1
 2853 0784 8C04     		.2byte	0x48c
 2854 0786 6B000000 		.4byte	0x6b
 2855 078a 1A050000 		.4byte	.LLST30
 2856 078e 13       		.uleb128 0x13
 2857 078f 657000   		.ascii	"ep\000"
 2858 0792 01       		.byte	0x1
 2859 0793 8D04     		.2byte	0x48d
 2860 0795 6B000000 		.4byte	0x6b
 2861 0799 45050000 		.4byte	.LLST31
 2862 079d 1A       		.uleb128 0x1a
 2863 079e 98000000 		.4byte	.LVL123
 2864 07a2 030B0000 		.4byte	0xb03
ARM GAS  C:\Users\ingan\AppData\Local\Temp\ccPtKCQI.s 			page 77


 2865 07a6 00       		.byte	0
 2866 07a7 18       		.uleb128 0x18
 2867 07a8 EA050000 		.4byte	.LASF87
 2868 07ac 01       		.byte	0x1
 2869 07ad CF04     		.2byte	0x4cf
 2870 07af 6B000000 		.4byte	0x6b
 2871 07b3 00000000 		.4byte	.LFB12
 2872 07b7 4C000000 		.4byte	.LFE12-.LFB12
 2873 07bb 01       		.uleb128 0x1
 2874 07bc 9C       		.byte	0x9c
 2875 07bd 0B080000 		.4byte	0x80b
 2876 07c1 19       		.uleb128 0x19
 2877 07c2 C3030000 		.4byte	.LASF85
 2878 07c6 01       		.byte	0x1
 2879 07c7 D104     		.2byte	0x4d1
 2880 07c9 6B000000 		.4byte	0x6b
 2881 07cd 84050000 		.4byte	.LLST32
 2882 07d1 19       		.uleb128 0x19
 2883 07d2 80070000 		.4byte	.LASF72
 2884 07d6 01       		.byte	0x1
 2885 07d7 D304     		.2byte	0x4d3
 2886 07d9 6B000000 		.4byte	0x6b
 2887 07dd BB050000 		.4byte	.LLST33
 2888 07e1 19       		.uleb128 0x19
 2889 07e2 8D070000 		.4byte	.LASF88
 2890 07e6 01       		.byte	0x1
 2891 07e7 D404     		.2byte	0x4d4
 2892 07e9 6B000000 		.4byte	0x6b
 2893 07ed CE050000 		.4byte	.LLST34
 2894 07f1 19       		.uleb128 0x19
 2895 07f2 8A050000 		.4byte	.LASF68
 2896 07f6 01       		.byte	0x1
 2897 07f7 D504     		.2byte	0x4d5
 2898 07f9 E9040000 		.4byte	0x4e9
 2899 07fd FB050000 		.4byte	.LLST35
 2900 0801 1A       		.uleb128 0x1a
 2901 0802 14000000 		.4byte	.LVL127
 2902 0806 AE040000 		.4byte	0x4ae
 2903 080a 00       		.byte	0
 2904 080b 1E       		.uleb128 0x1e
 2905 080c 7E040000 		.4byte	.LASF89
 2906 0810 01       		.byte	0x1
 2907 0811 54       		.byte	0x54
 2908 0812 6B000000 		.4byte	0x6b
 2909 0816 00000000 		.4byte	.LFB0
 2910 081a 54030000 		.4byte	.LFE0-.LFB0
 2911 081e 01       		.uleb128 0x1
 2912 081f 9C       		.byte	0x9c
 2913 0820 A6090000 		.4byte	0x9a6
 2914 0824 1F       		.uleb128 0x1f
 2915 0825 C3030000 		.4byte	.LASF85
 2916 0829 01       		.byte	0x1
 2917 082a 56       		.byte	0x56
 2918 082b 6B000000 		.4byte	0x6b
 2919 082f 19060000 		.4byte	.LLST36
 2920 0833 1F       		.uleb128 0x1f
 2921 0834 D2000000 		.4byte	.LASF90
ARM GAS  C:\Users\ingan\AppData\Local\Temp\ccPtKCQI.s 			page 78


 2922 0838 01       		.byte	0x1
 2923 0839 57       		.byte	0x57
 2924 083a 6B000000 		.4byte	0x6b
 2925 083e BF070000 		.4byte	.LLST37
 2926 0842 1F       		.uleb128 0x1f
 2927 0843 51000000 		.4byte	.LASF91
 2928 0847 01       		.byte	0x1
 2929 0848 58       		.byte	0x58
 2930 0849 6B000000 		.4byte	0x6b
 2931 084d D2070000 		.4byte	.LLST38
 2932 0851 1F       		.uleb128 0x1f
 2933 0852 FC000000 		.4byte	.LASF92
 2934 0856 01       		.byte	0x1
 2935 0857 59       		.byte	0x59
 2936 0858 6B000000 		.4byte	0x6b
 2937 085c E5070000 		.4byte	.LLST39
 2938 0860 1F       		.uleb128 0x1f
 2939 0861 0B060000 		.4byte	.LASF93
 2940 0865 01       		.byte	0x1
 2941 0866 5C       		.byte	0x5c
 2942 0867 04020000 		.4byte	0x204
 2943 086b 66080000 		.4byte	.LLST40
 2944 086f 1F       		.uleb128 0x1f
 2945 0870 D9050000 		.4byte	.LASF94
 2946 0874 01       		.byte	0x1
 2947 0875 5E       		.byte	0x5e
 2948 0876 6B000000 		.4byte	0x6b
 2949 087a CA080000 		.4byte	.LLST41
 2950 087e 1F       		.uleb128 0x1f
 2951 087f 47060000 		.4byte	.LASF95
 2952 0883 01       		.byte	0x1
 2953 0884 5F       		.byte	0x5f
 2954 0885 6B000000 		.4byte	0x6b
 2955 0889 F3080000 		.4byte	.LLST42
 2956 088d 20       		.uleb128 0x20
 2957 088e D8040000 		.4byte	.LASF96
 2958 0892 01       		.byte	0x1
 2959 0893 63       		.byte	0x63
 2960 0894 B6090000 		.4byte	0x9b6
 2961 0898 05       		.uleb128 0x5
 2962 0899 03       		.byte	0x3
 2963 089a 00000000 		.4byte	USBUART_tBuffer.5380
 2964 089e 1F       		.uleb128 0x1f
 2965 089f 8A050000 		.4byte	.LASF68
 2966 08a3 01       		.byte	0x1
 2967 08a4 64       		.byte	0x64
 2968 08a5 E9040000 		.4byte	0x4e9
 2969 08a9 06090000 		.4byte	.LLST43
 2970 08ad 1A       		.uleb128 0x1a
 2971 08ae 4A000000 		.4byte	.LVL138
 2972 08b2 8C050000 		.4byte	0x58c
 2973 08b6 1A       		.uleb128 0x1a
 2974 08b7 58000000 		.4byte	.LVL139
 2975 08bb 0E0B0000 		.4byte	0xb0e
 2976 08bf 1A       		.uleb128 0x1a
 2977 08c0 6C000000 		.4byte	.LVL141
 2978 08c4 AE040000 		.4byte	0x4ae
ARM GAS  C:\Users\ingan\AppData\Local\Temp\ccPtKCQI.s 			page 79


 2979 08c8 1A       		.uleb128 0x1a
 2980 08c9 8A000000 		.4byte	.LVL142
 2981 08cd 0E0B0000 		.4byte	0xb0e
 2982 08d1 1D       		.uleb128 0x1d
 2983 08d2 D8000000 		.4byte	.LVL152
 2984 08d6 D2030000 		.4byte	0x3d2
 2985 08da E5080000 		.4byte	0x8e5
 2986 08de 16       		.uleb128 0x16
 2987 08df 01       		.uleb128 0x1
 2988 08e0 50       		.byte	0x50
 2989 08e1 02       		.uleb128 0x2
 2990 08e2 74       		.byte	0x74
 2991 08e3 00       		.sleb128 0
 2992 08e4 00       		.byte	0
 2993 08e5 1A       		.uleb128 0x1a
 2994 08e6 F0000000 		.4byte	.LVL154
 2995 08ea 0E0B0000 		.4byte	0xb0e
 2996 08ee 1A       		.uleb128 0x1a
 2997 08ef F6000000 		.4byte	.LVL156
 2998 08f3 190B0000 		.4byte	0xb19
 2999 08f7 1A       		.uleb128 0x1a
 3000 08f8 2C010000 		.4byte	.LVL159
 3001 08fc 0E0B0000 		.4byte	0xb0e
 3002 0900 1A       		.uleb128 0x1a
 3003 0901 48010000 		.4byte	.LVL161
 3004 0905 0E0B0000 		.4byte	0xb0e
 3005 0909 1A       		.uleb128 0x1a
 3006 090a 58010000 		.4byte	.LVL164
 3007 090e 0E0B0000 		.4byte	0xb0e
 3008 0912 1A       		.uleb128 0x1a
 3009 0913 6E010000 		.4byte	.LVL167
 3010 0917 0E0B0000 		.4byte	0xb0e
 3011 091b 1A       		.uleb128 0x1a
 3012 091c A4010000 		.4byte	.LVL170
 3013 0920 030B0000 		.4byte	0xb03
 3014 0924 1D       		.uleb128 0x1d
 3015 0925 B8010000 		.4byte	.LVL174
 3016 0929 AE040000 		.4byte	0x4ae
 3017 092d 38090000 		.4byte	0x938
 3018 0931 16       		.uleb128 0x16
 3019 0932 01       		.uleb128 0x1
 3020 0933 50       		.byte	0x50
 3021 0934 02       		.uleb128 0x2
 3022 0935 74       		.byte	0x74
 3023 0936 7F       		.sleb128 -1
 3024 0937 00       		.byte	0
 3025 0938 1D       		.uleb128 0x1d
 3026 0939 DA010000 		.4byte	.LVL176
 3027 093d 01060000 		.4byte	0x601
 3028 0941 4B090000 		.4byte	0x94b
 3029 0945 16       		.uleb128 0x16
 3030 0946 01       		.uleb128 0x1
 3031 0947 50       		.byte	0x50
 3032 0948 01       		.uleb128 0x1
 3033 0949 31       		.byte	0x31
 3034 094a 00       		.byte	0
 3035 094b 1A       		.uleb128 0x1a
ARM GAS  C:\Users\ingan\AppData\Local\Temp\ccPtKCQI.s 			page 80


 3036 094c DE010000 		.4byte	.LVL177
 3037 0950 030B0000 		.4byte	0xb03
 3038 0954 1A       		.uleb128 0x1a
 3039 0955 E4010000 		.4byte	.LVL179
 3040 0959 A7070000 		.4byte	0x7a7
 3041 095d 1A       		.uleb128 0x1a
 3042 095e 12020000 		.4byte	.LVL182
 3043 0962 F4040000 		.4byte	0x4f4
 3044 0966 1A       		.uleb128 0x1a
 3045 0967 16020000 		.4byte	.LVL183
 3046 096b 030B0000 		.4byte	0xb03
 3047 096f 1A       		.uleb128 0x1a
 3048 0970 34020000 		.4byte	.LVL186
 3049 0974 64070000 		.4byte	0x764
 3050 0978 1A       		.uleb128 0x1a
 3051 0979 4E020000 		.4byte	.LVL188
 3052 097d 030B0000 		.4byte	0xb03
 3053 0981 1A       		.uleb128 0x1a
 3054 0982 70020000 		.4byte	.LVL190
 3055 0986 030B0000 		.4byte	0xb03
 3056 098a 1A       		.uleb128 0x1a
 3057 098b CC020000 		.4byte	.LVL193
 3058 098f 21070000 		.4byte	0x721
 3059 0993 1A       		.uleb128 0x1a
 3060 0994 E6020000 		.4byte	.LVL195
 3061 0998 030B0000 		.4byte	0xb03
 3062 099c 1A       		.uleb128 0x1a
 3063 099d 08030000 		.4byte	.LVL197
 3064 09a1 030B0000 		.4byte	0xb03
 3065 09a5 00       		.byte	0
 3066 09a6 0C       		.uleb128 0xc
 3067 09a7 BC000000 		.4byte	0xbc
 3068 09ab B6090000 		.4byte	0x9b6
 3069 09af 0D       		.uleb128 0xd
 3070 09b0 C8000000 		.4byte	0xc8
 3071 09b4 01       		.byte	0x1
 3072 09b5 00       		.byte	0
 3073 09b6 05       		.uleb128 0x5
 3074 09b7 A6090000 		.4byte	0x9a6
 3075 09bb 21       		.uleb128 0x21
 3076 09bc 3C030000 		.4byte	.LASF97
 3077 09c0 03       		.byte	0x3
 3078 09c1 D202     		.2byte	0x2d2
 3079 09c3 BC000000 		.4byte	0xbc
 3080 09c7 21       		.uleb128 0x21
 3081 09c8 2C010000 		.4byte	.LASF98
 3082 09cc 03       		.byte	0x3
 3083 09cd D402     		.2byte	0x2d4
 3084 09cf BC000000 		.4byte	0xbc
 3085 09d3 21       		.uleb128 0x21
 3086 09d4 99040000 		.4byte	.LASF99
 3087 09d8 03       		.byte	0x3
 3088 09d9 D502     		.2byte	0x2d5
 3089 09db BC000000 		.4byte	0xbc
 3090 09df 21       		.uleb128 0x21
 3091 09e0 B0000000 		.4byte	.LASF100
 3092 09e4 03       		.byte	0x3
ARM GAS  C:\Users\ingan\AppData\Local\Temp\ccPtKCQI.s 			page 81


 3093 09e5 D602     		.2byte	0x2d6
 3094 09e7 BC000000 		.4byte	0xbc
 3095 09eb 0C       		.uleb128 0xc
 3096 09ec FC050000 		.4byte	0x5fc
 3097 09f0 FB090000 		.4byte	0x9fb
 3098 09f4 0D       		.uleb128 0xd
 3099 09f5 C8000000 		.4byte	0xc8
 3100 09f9 11       		.byte	0x11
 3101 09fa 00       		.byte	0
 3102 09fb 22       		.uleb128 0x22
 3103 09fc B6040000 		.4byte	.LASF101
 3104 0a00 04       		.byte	0x4
 3105 0a01 61       		.byte	0x61
 3106 0a02 060A0000 		.4byte	0xa06
 3107 0a06 17       		.uleb128 0x17
 3108 0a07 EB090000 		.4byte	0x9eb
 3109 0a0b 0C       		.uleb128 0xc
 3110 0a0c EF040000 		.4byte	0x4ef
 3111 0a10 1B0A0000 		.4byte	0xa1b
 3112 0a14 0D       		.uleb128 0xd
 3113 0a15 C8000000 		.4byte	0xc8
 3114 0a19 00       		.byte	0
 3115 0a1a 00       		.byte	0
 3116 0a1b 22       		.uleb128 0x22
 3117 0a1c 13040000 		.4byte	.LASF102
 3118 0a20 04       		.byte	0x4
 3119 0a21 67       		.byte	0x67
 3120 0a22 260A0000 		.4byte	0xa26
 3121 0a26 17       		.uleb128 0x17
 3122 0a27 0B0A0000 		.4byte	0xa0b
 3123 0a2b 0C       		.uleb128 0xc
 3124 0a2c FC050000 		.4byte	0x5fc
 3125 0a30 3B0A0000 		.4byte	0xa3b
 3126 0a34 0D       		.uleb128 0xd
 3127 0a35 C8000000 		.4byte	0xc8
 3128 0a39 9E       		.byte	0x9e
 3129 0a3a 00       		.byte	0
 3130 0a3b 22       		.uleb128 0x22
 3131 0a3c 92010000 		.4byte	.LASF103
 3132 0a40 04       		.byte	0x4
 3133 0a41 69       		.byte	0x69
 3134 0a42 460A0000 		.4byte	0xa46
 3135 0a46 17       		.uleb128 0x17
 3136 0a47 2B0A0000 		.4byte	0xa2b
 3137 0a4b 0C       		.uleb128 0xc
 3138 0a4c 6B000000 		.4byte	0x6b
 3139 0a50 5B0A0000 		.4byte	0xa5b
 3140 0a54 0D       		.uleb128 0xd
 3141 0a55 C8000000 		.4byte	0xc8
 3142 0a59 21       		.byte	0x21
 3143 0a5a 00       		.byte	0
 3144 0a5b 22       		.uleb128 0x22
 3145 0a5c 05000000 		.4byte	.LASF104
 3146 0a60 04       		.byte	0x4
 3147 0a61 6F       		.byte	0x6f
 3148 0a62 4B0A0000 		.4byte	0xa4b
 3149 0a66 22       		.uleb128 0x22
ARM GAS  C:\Users\ingan\AppData\Local\Temp\ccPtKCQI.s 			page 82


 3150 0a67 56030000 		.4byte	.LASF105
 3151 0a6b 04       		.byte	0x4
 3152 0a6c 72       		.byte	0x72
 3153 0a6d BC000000 		.4byte	0xbc
 3154 0a71 22       		.uleb128 0x22
 3155 0a72 02020000 		.4byte	.LASF106
 3156 0a76 04       		.byte	0x4
 3157 0a77 73       		.byte	0x73
 3158 0a78 7C0A0000 		.4byte	0xa7c
 3159 0a7c 05       		.uleb128 0x5
 3160 0a7d A6090000 		.4byte	0x9a6
 3161 0a81 22       		.uleb128 0x22
 3162 0a82 B7070000 		.4byte	.LASF107
 3163 0a86 04       		.byte	0x4
 3164 0a87 74       		.byte	0x74
 3165 0a88 8C0A0000 		.4byte	0xa8c
 3166 0a8c 05       		.uleb128 0x5
 3167 0a8d A6090000 		.4byte	0x9a6
 3168 0a91 22       		.uleb128 0x22
 3169 0a92 A6060000 		.4byte	.LASF108
 3170 0a96 04       		.byte	0x4
 3171 0a97 75       		.byte	0x75
 3172 0a98 BC000000 		.4byte	0xbc
 3173 0a9c 22       		.uleb128 0x22
 3174 0a9d 7A010000 		.4byte	.LASF109
 3175 0aa1 04       		.byte	0x4
 3176 0aa2 76       		.byte	0x76
 3177 0aa3 A70A0000 		.4byte	0xaa7
 3178 0aa7 05       		.uleb128 0x5
 3179 0aa8 A6090000 		.4byte	0x9a6
 3180 0aac 22       		.uleb128 0x22
 3181 0aad 8A060000 		.4byte	.LASF110
 3182 0ab1 04       		.byte	0x4
 3183 0ab2 77       		.byte	0x77
 3184 0ab3 F6050000 		.4byte	0x5f6
 3185 0ab7 0C       		.uleb128 0xc
 3186 0ab8 C70A0000 		.4byte	0xac7
 3187 0abc C70A0000 		.4byte	0xac7
 3188 0ac0 0D       		.uleb128 0xd
 3189 0ac1 C8000000 		.4byte	0xc8
 3190 0ac5 08       		.byte	0x8
 3191 0ac6 00       		.byte	0
 3192 0ac7 05       		.uleb128 0x5
 3193 0ac8 44010000 		.4byte	0x144
 3194 0acc 22       		.uleb128 0x22
 3195 0acd AD010000 		.4byte	.LASF111
 3196 0ad1 04       		.byte	0x4
 3197 0ad2 79       		.byte	0x79
 3198 0ad3 D70A0000 		.4byte	0xad7
 3199 0ad7 05       		.uleb128 0x5
 3200 0ad8 B70A0000 		.4byte	0xab7
 3201 0adc 22       		.uleb128 0x22
 3202 0add 8D030000 		.4byte	.LASF112
 3203 0ae1 04       		.byte	0x4
 3204 0ae2 7A       		.byte	0x7a
 3205 0ae3 E70A0000 		.4byte	0xae7
 3206 0ae7 05       		.uleb128 0x5
ARM GAS  C:\Users\ingan\AppData\Local\Temp\ccPtKCQI.s 			page 83


 3207 0ae8 10020000 		.4byte	0x210
 3208 0aec 23       		.uleb128 0x23
 3209 0aed 39060000 		.4byte	.LASF113
 3210 0af1 39060000 		.4byte	.LASF113
 3211 0af5 05       		.byte	0x5
 3212 0af6 BE       		.byte	0xbe
 3213 0af7 24       		.uleb128 0x24
 3214 0af8 26060000 		.4byte	.LASF114
 3215 0afc 26060000 		.4byte	.LASF114
 3216 0b00 04       		.byte	0x4
 3217 0b01 7C01     		.2byte	0x17c
 3218 0b03 23       		.uleb128 0x23
 3219 0b04 39070000 		.4byte	.LASF115
 3220 0b08 39070000 		.4byte	.LASF115
 3221 0b0c 04       		.byte	0x4
 3222 0b0d B3       		.byte	0xb3
 3223 0b0e 23       		.uleb128 0x23
 3224 0b0f 68070000 		.4byte	.LASF116
 3225 0b13 68070000 		.4byte	.LASF116
 3226 0b17 04       		.byte	0x4
 3227 0b18 A9       		.byte	0xa9
 3228 0b19 24       		.uleb128 0x24
 3229 0b1a 37000000 		.4byte	.LASF117
 3230 0b1e 37000000 		.4byte	.LASF117
 3231 0b22 04       		.byte	0x4
 3232 0b23 4F01     		.2byte	0x14f
 3233 0b25 00       		.byte	0
 3234              		.section	.debug_abbrev,"",%progbits
 3235              	.Ldebug_abbrev0:
 3236 0000 01       		.uleb128 0x1
 3237 0001 11       		.uleb128 0x11
 3238 0002 01       		.byte	0x1
 3239 0003 25       		.uleb128 0x25
 3240 0004 0E       		.uleb128 0xe
 3241 0005 13       		.uleb128 0x13
 3242 0006 0B       		.uleb128 0xb
 3243 0007 03       		.uleb128 0x3
 3244 0008 0E       		.uleb128 0xe
 3245 0009 1B       		.uleb128 0x1b
 3246 000a 0E       		.uleb128 0xe
 3247 000b 55       		.uleb128 0x55
 3248 000c 17       		.uleb128 0x17
 3249 000d 11       		.uleb128 0x11
 3250 000e 01       		.uleb128 0x1
 3251 000f 10       		.uleb128 0x10
 3252 0010 17       		.uleb128 0x17
 3253 0011 00       		.byte	0
 3254 0012 00       		.byte	0
 3255 0013 02       		.uleb128 0x2
 3256 0014 24       		.uleb128 0x24
 3257 0015 00       		.byte	0
 3258 0016 0B       		.uleb128 0xb
 3259 0017 0B       		.uleb128 0xb
 3260 0018 3E       		.uleb128 0x3e
 3261 0019 0B       		.uleb128 0xb
 3262 001a 03       		.uleb128 0x3
 3263 001b 0E       		.uleb128 0xe
ARM GAS  C:\Users\ingan\AppData\Local\Temp\ccPtKCQI.s 			page 84


 3264 001c 00       		.byte	0
 3265 001d 00       		.byte	0
 3266 001e 03       		.uleb128 0x3
 3267 001f 24       		.uleb128 0x24
 3268 0020 00       		.byte	0
 3269 0021 0B       		.uleb128 0xb
 3270 0022 0B       		.uleb128 0xb
 3271 0023 3E       		.uleb128 0x3e
 3272 0024 0B       		.uleb128 0xb
 3273 0025 03       		.uleb128 0x3
 3274 0026 08       		.uleb128 0x8
 3275 0027 00       		.byte	0
 3276 0028 00       		.byte	0
 3277 0029 04       		.uleb128 0x4
 3278 002a 16       		.uleb128 0x16
 3279 002b 00       		.byte	0
 3280 002c 03       		.uleb128 0x3
 3281 002d 0E       		.uleb128 0xe
 3282 002e 3A       		.uleb128 0x3a
 3283 002f 0B       		.uleb128 0xb
 3284 0030 3B       		.uleb128 0x3b
 3285 0031 05       		.uleb128 0x5
 3286 0032 49       		.uleb128 0x49
 3287 0033 13       		.uleb128 0x13
 3288 0034 00       		.byte	0
 3289 0035 00       		.byte	0
 3290 0036 05       		.uleb128 0x5
 3291 0037 35       		.uleb128 0x35
 3292 0038 00       		.byte	0
 3293 0039 49       		.uleb128 0x49
 3294 003a 13       		.uleb128 0x13
 3295 003b 00       		.byte	0
 3296 003c 00       		.byte	0
 3297 003d 06       		.uleb128 0x6
 3298 003e 13       		.uleb128 0x13
 3299 003f 01       		.byte	0x1
 3300 0040 0B       		.uleb128 0xb
 3301 0041 0B       		.uleb128 0xb
 3302 0042 3A       		.uleb128 0x3a
 3303 0043 0B       		.uleb128 0xb
 3304 0044 3B       		.uleb128 0x3b
 3305 0045 0B       		.uleb128 0xb
 3306 0046 01       		.uleb128 0x1
 3307 0047 13       		.uleb128 0x13
 3308 0048 00       		.byte	0
 3309 0049 00       		.byte	0
 3310 004a 07       		.uleb128 0x7
 3311 004b 0D       		.uleb128 0xd
 3312 004c 00       		.byte	0
 3313 004d 03       		.uleb128 0x3
 3314 004e 0E       		.uleb128 0xe
 3315 004f 3A       		.uleb128 0x3a
 3316 0050 0B       		.uleb128 0xb
 3317 0051 3B       		.uleb128 0x3b
 3318 0052 0B       		.uleb128 0xb
 3319 0053 49       		.uleb128 0x49
 3320 0054 13       		.uleb128 0x13
ARM GAS  C:\Users\ingan\AppData\Local\Temp\ccPtKCQI.s 			page 85


 3321 0055 38       		.uleb128 0x38
 3322 0056 0B       		.uleb128 0xb
 3323 0057 00       		.byte	0
 3324 0058 00       		.byte	0
 3325 0059 08       		.uleb128 0x8
 3326 005a 16       		.uleb128 0x16
 3327 005b 00       		.byte	0
 3328 005c 03       		.uleb128 0x3
 3329 005d 0E       		.uleb128 0xe
 3330 005e 3A       		.uleb128 0x3a
 3331 005f 0B       		.uleb128 0xb
 3332 0060 3B       		.uleb128 0x3b
 3333 0061 0B       		.uleb128 0xb
 3334 0062 49       		.uleb128 0x49
 3335 0063 13       		.uleb128 0x13
 3336 0064 00       		.byte	0
 3337 0065 00       		.byte	0
 3338 0066 09       		.uleb128 0x9
 3339 0067 0F       		.uleb128 0xf
 3340 0068 00       		.byte	0
 3341 0069 0B       		.uleb128 0xb
 3342 006a 0B       		.uleb128 0xb
 3343 006b 49       		.uleb128 0x49
 3344 006c 13       		.uleb128 0x13
 3345 006d 00       		.byte	0
 3346 006e 00       		.byte	0
 3347 006f 0A       		.uleb128 0xa
 3348 0070 0D       		.uleb128 0xd
 3349 0071 00       		.byte	0
 3350 0072 03       		.uleb128 0x3
 3351 0073 08       		.uleb128 0x8
 3352 0074 3A       		.uleb128 0x3a
 3353 0075 0B       		.uleb128 0xb
 3354 0076 3B       		.uleb128 0x3b
 3355 0077 0B       		.uleb128 0xb
 3356 0078 49       		.uleb128 0x49
 3357 0079 13       		.uleb128 0x13
 3358 007a 38       		.uleb128 0x38
 3359 007b 0B       		.uleb128 0xb
 3360 007c 00       		.byte	0
 3361 007d 00       		.byte	0
 3362 007e 0B       		.uleb128 0xb
 3363 007f 26       		.uleb128 0x26
 3364 0080 00       		.byte	0
 3365 0081 00       		.byte	0
 3366 0082 00       		.byte	0
 3367 0083 0C       		.uleb128 0xc
 3368 0084 01       		.uleb128 0x1
 3369 0085 01       		.byte	0x1
 3370 0086 49       		.uleb128 0x49
 3371 0087 13       		.uleb128 0x13
 3372 0088 01       		.uleb128 0x1
 3373 0089 13       		.uleb128 0x13
 3374 008a 00       		.byte	0
 3375 008b 00       		.byte	0
 3376 008c 0D       		.uleb128 0xd
 3377 008d 21       		.uleb128 0x21
ARM GAS  C:\Users\ingan\AppData\Local\Temp\ccPtKCQI.s 			page 86


 3378 008e 00       		.byte	0
 3379 008f 49       		.uleb128 0x49
 3380 0090 13       		.uleb128 0x13
 3381 0091 2F       		.uleb128 0x2f
 3382 0092 0B       		.uleb128 0xb
 3383 0093 00       		.byte	0
 3384 0094 00       		.byte	0
 3385 0095 0E       		.uleb128 0xe
 3386 0096 13       		.uleb128 0x13
 3387 0097 01       		.byte	0x1
 3388 0098 0B       		.uleb128 0xb
 3389 0099 0B       		.uleb128 0xb
 3390 009a 3A       		.uleb128 0x3a
 3391 009b 0B       		.uleb128 0xb
 3392 009c 3B       		.uleb128 0x3b
 3393 009d 05       		.uleb128 0x5
 3394 009e 01       		.uleb128 0x1
 3395 009f 13       		.uleb128 0x13
 3396 00a0 00       		.byte	0
 3397 00a1 00       		.byte	0
 3398 00a2 0F       		.uleb128 0xf
 3399 00a3 0D       		.uleb128 0xd
 3400 00a4 00       		.byte	0
 3401 00a5 03       		.uleb128 0x3
 3402 00a6 0E       		.uleb128 0xe
 3403 00a7 3A       		.uleb128 0x3a
 3404 00a8 0B       		.uleb128 0xb
 3405 00a9 3B       		.uleb128 0x3b
 3406 00aa 05       		.uleb128 0x5
 3407 00ab 49       		.uleb128 0x49
 3408 00ac 13       		.uleb128 0x13
 3409 00ad 38       		.uleb128 0x38
 3410 00ae 0B       		.uleb128 0xb
 3411 00af 00       		.byte	0
 3412 00b0 00       		.byte	0
 3413 00b1 10       		.uleb128 0x10
 3414 00b2 2E       		.uleb128 0x2e
 3415 00b3 01       		.byte	0x1
 3416 00b4 3F       		.uleb128 0x3f
 3417 00b5 19       		.uleb128 0x19
 3418 00b6 03       		.uleb128 0x3
 3419 00b7 0E       		.uleb128 0xe
 3420 00b8 3A       		.uleb128 0x3a
 3421 00b9 0B       		.uleb128 0xb
 3422 00ba 3B       		.uleb128 0x3b
 3423 00bb 05       		.uleb128 0x5
 3424 00bc 27       		.uleb128 0x27
 3425 00bd 19       		.uleb128 0x19
 3426 00be 11       		.uleb128 0x11
 3427 00bf 01       		.uleb128 0x1
 3428 00c0 12       		.uleb128 0x12
 3429 00c1 06       		.uleb128 0x6
 3430 00c2 40       		.uleb128 0x40
 3431 00c3 18       		.uleb128 0x18
 3432 00c4 9742     		.uleb128 0x2117
 3433 00c6 19       		.uleb128 0x19
 3434 00c7 01       		.uleb128 0x1
ARM GAS  C:\Users\ingan\AppData\Local\Temp\ccPtKCQI.s 			page 87


 3435 00c8 13       		.uleb128 0x13
 3436 00c9 00       		.byte	0
 3437 00ca 00       		.byte	0
 3438 00cb 11       		.uleb128 0x11
 3439 00cc 05       		.uleb128 0x5
 3440 00cd 00       		.byte	0
 3441 00ce 03       		.uleb128 0x3
 3442 00cf 0E       		.uleb128 0xe
 3443 00d0 3A       		.uleb128 0x3a
 3444 00d1 0B       		.uleb128 0xb
 3445 00d2 3B       		.uleb128 0x3b
 3446 00d3 05       		.uleb128 0x5
 3447 00d4 49       		.uleb128 0x49
 3448 00d5 13       		.uleb128 0x13
 3449 00d6 02       		.uleb128 0x2
 3450 00d7 17       		.uleb128 0x17
 3451 00d8 00       		.byte	0
 3452 00d9 00       		.byte	0
 3453 00da 12       		.uleb128 0x12
 3454 00db 34       		.uleb128 0x34
 3455 00dc 00       		.byte	0
 3456 00dd 03       		.uleb128 0x3
 3457 00de 08       		.uleb128 0x8
 3458 00df 3A       		.uleb128 0x3a
 3459 00e0 0B       		.uleb128 0xb
 3460 00e1 3B       		.uleb128 0x3b
 3461 00e2 05       		.uleb128 0x5
 3462 00e3 49       		.uleb128 0x49
 3463 00e4 13       		.uleb128 0x13
 3464 00e5 02       		.uleb128 0x2
 3465 00e6 18       		.uleb128 0x18
 3466 00e7 00       		.byte	0
 3467 00e8 00       		.byte	0
 3468 00e9 13       		.uleb128 0x13
 3469 00ea 34       		.uleb128 0x34
 3470 00eb 00       		.byte	0
 3471 00ec 03       		.uleb128 0x3
 3472 00ed 08       		.uleb128 0x8
 3473 00ee 3A       		.uleb128 0x3a
 3474 00ef 0B       		.uleb128 0xb
 3475 00f0 3B       		.uleb128 0x3b
 3476 00f1 05       		.uleb128 0x5
 3477 00f2 49       		.uleb128 0x49
 3478 00f3 13       		.uleb128 0x13
 3479 00f4 02       		.uleb128 0x2
 3480 00f5 17       		.uleb128 0x17
 3481 00f6 00       		.byte	0
 3482 00f7 00       		.byte	0
 3483 00f8 14       		.uleb128 0x14
 3484 00f9 34       		.uleb128 0x34
 3485 00fa 00       		.byte	0
 3486 00fb 03       		.uleb128 0x3
 3487 00fc 0E       		.uleb128 0xe
 3488 00fd 3A       		.uleb128 0x3a
 3489 00fe 0B       		.uleb128 0xb
 3490 00ff 3B       		.uleb128 0x3b
 3491 0100 05       		.uleb128 0x5
ARM GAS  C:\Users\ingan\AppData\Local\Temp\ccPtKCQI.s 			page 88


 3492 0101 49       		.uleb128 0x49
 3493 0102 13       		.uleb128 0x13
 3494 0103 02       		.uleb128 0x2
 3495 0104 18       		.uleb128 0x18
 3496 0105 00       		.byte	0
 3497 0106 00       		.byte	0
 3498 0107 15       		.uleb128 0x15
 3499 0108 898201   		.uleb128 0x4109
 3500 010b 01       		.byte	0x1
 3501 010c 11       		.uleb128 0x11
 3502 010d 01       		.uleb128 0x1
 3503 010e 31       		.uleb128 0x31
 3504 010f 13       		.uleb128 0x13
 3505 0110 00       		.byte	0
 3506 0111 00       		.byte	0
 3507 0112 16       		.uleb128 0x16
 3508 0113 8A8201   		.uleb128 0x410a
 3509 0116 00       		.byte	0
 3510 0117 02       		.uleb128 0x2
 3511 0118 18       		.uleb128 0x18
 3512 0119 9142     		.uleb128 0x2111
 3513 011b 18       		.uleb128 0x18
 3514 011c 00       		.byte	0
 3515 011d 00       		.byte	0
 3516 011e 17       		.uleb128 0x17
 3517 011f 26       		.uleb128 0x26
 3518 0120 00       		.byte	0
 3519 0121 49       		.uleb128 0x49
 3520 0122 13       		.uleb128 0x13
 3521 0123 00       		.byte	0
 3522 0124 00       		.byte	0
 3523 0125 18       		.uleb128 0x18
 3524 0126 2E       		.uleb128 0x2e
 3525 0127 01       		.byte	0x1
 3526 0128 3F       		.uleb128 0x3f
 3527 0129 19       		.uleb128 0x19
 3528 012a 03       		.uleb128 0x3
 3529 012b 0E       		.uleb128 0xe
 3530 012c 3A       		.uleb128 0x3a
 3531 012d 0B       		.uleb128 0xb
 3532 012e 3B       		.uleb128 0x3b
 3533 012f 05       		.uleb128 0x5
 3534 0130 27       		.uleb128 0x27
 3535 0131 19       		.uleb128 0x19
 3536 0132 49       		.uleb128 0x49
 3537 0133 13       		.uleb128 0x13
 3538 0134 11       		.uleb128 0x11
 3539 0135 01       		.uleb128 0x1
 3540 0136 12       		.uleb128 0x12
 3541 0137 06       		.uleb128 0x6
 3542 0138 40       		.uleb128 0x40
 3543 0139 18       		.uleb128 0x18
 3544 013a 9742     		.uleb128 0x2117
 3545 013c 19       		.uleb128 0x19
 3546 013d 01       		.uleb128 0x1
 3547 013e 13       		.uleb128 0x13
 3548 013f 00       		.byte	0
ARM GAS  C:\Users\ingan\AppData\Local\Temp\ccPtKCQI.s 			page 89


 3549 0140 00       		.byte	0
 3550 0141 19       		.uleb128 0x19
 3551 0142 34       		.uleb128 0x34
 3552 0143 00       		.byte	0
 3553 0144 03       		.uleb128 0x3
 3554 0145 0E       		.uleb128 0xe
 3555 0146 3A       		.uleb128 0x3a
 3556 0147 0B       		.uleb128 0xb
 3557 0148 3B       		.uleb128 0x3b
 3558 0149 05       		.uleb128 0x5
 3559 014a 49       		.uleb128 0x49
 3560 014b 13       		.uleb128 0x13
 3561 014c 02       		.uleb128 0x2
 3562 014d 17       		.uleb128 0x17
 3563 014e 00       		.byte	0
 3564 014f 00       		.byte	0
 3565 0150 1A       		.uleb128 0x1a
 3566 0151 898201   		.uleb128 0x4109
 3567 0154 00       		.byte	0
 3568 0155 11       		.uleb128 0x11
 3569 0156 01       		.uleb128 0x1
 3570 0157 31       		.uleb128 0x31
 3571 0158 13       		.uleb128 0x13
 3572 0159 00       		.byte	0
 3573 015a 00       		.byte	0
 3574 015b 1B       		.uleb128 0x1b
 3575 015c 2E       		.uleb128 0x2e
 3576 015d 00       		.byte	0
 3577 015e 3F       		.uleb128 0x3f
 3578 015f 19       		.uleb128 0x19
 3579 0160 03       		.uleb128 0x3
 3580 0161 0E       		.uleb128 0xe
 3581 0162 3A       		.uleb128 0x3a
 3582 0163 0B       		.uleb128 0xb
 3583 0164 3B       		.uleb128 0x3b
 3584 0165 05       		.uleb128 0x5
 3585 0166 27       		.uleb128 0x27
 3586 0167 19       		.uleb128 0x19
 3587 0168 49       		.uleb128 0x49
 3588 0169 13       		.uleb128 0x13
 3589 016a 11       		.uleb128 0x11
 3590 016b 01       		.uleb128 0x1
 3591 016c 12       		.uleb128 0x12
 3592 016d 06       		.uleb128 0x6
 3593 016e 40       		.uleb128 0x40
 3594 016f 18       		.uleb128 0x18
 3595 0170 9742     		.uleb128 0x2117
 3596 0172 19       		.uleb128 0x19
 3597 0173 00       		.byte	0
 3598 0174 00       		.byte	0
 3599 0175 1C       		.uleb128 0x1c
 3600 0176 0B       		.uleb128 0xb
 3601 0177 01       		.byte	0x1
 3602 0178 11       		.uleb128 0x11
 3603 0179 01       		.uleb128 0x1
 3604 017a 12       		.uleb128 0x12
 3605 017b 06       		.uleb128 0x6
ARM GAS  C:\Users\ingan\AppData\Local\Temp\ccPtKCQI.s 			page 90


 3606 017c 00       		.byte	0
 3607 017d 00       		.byte	0
 3608 017e 1D       		.uleb128 0x1d
 3609 017f 898201   		.uleb128 0x4109
 3610 0182 01       		.byte	0x1
 3611 0183 11       		.uleb128 0x11
 3612 0184 01       		.uleb128 0x1
 3613 0185 31       		.uleb128 0x31
 3614 0186 13       		.uleb128 0x13
 3615 0187 01       		.uleb128 0x1
 3616 0188 13       		.uleb128 0x13
 3617 0189 00       		.byte	0
 3618 018a 00       		.byte	0
 3619 018b 1E       		.uleb128 0x1e
 3620 018c 2E       		.uleb128 0x2e
 3621 018d 01       		.byte	0x1
 3622 018e 3F       		.uleb128 0x3f
 3623 018f 19       		.uleb128 0x19
 3624 0190 03       		.uleb128 0x3
 3625 0191 0E       		.uleb128 0xe
 3626 0192 3A       		.uleb128 0x3a
 3627 0193 0B       		.uleb128 0xb
 3628 0194 3B       		.uleb128 0x3b
 3629 0195 0B       		.uleb128 0xb
 3630 0196 27       		.uleb128 0x27
 3631 0197 19       		.uleb128 0x19
 3632 0198 49       		.uleb128 0x49
 3633 0199 13       		.uleb128 0x13
 3634 019a 11       		.uleb128 0x11
 3635 019b 01       		.uleb128 0x1
 3636 019c 12       		.uleb128 0x12
 3637 019d 06       		.uleb128 0x6
 3638 019e 40       		.uleb128 0x40
 3639 019f 18       		.uleb128 0x18
 3640 01a0 9742     		.uleb128 0x2117
 3641 01a2 19       		.uleb128 0x19
 3642 01a3 01       		.uleb128 0x1
 3643 01a4 13       		.uleb128 0x13
 3644 01a5 00       		.byte	0
 3645 01a6 00       		.byte	0
 3646 01a7 1F       		.uleb128 0x1f
 3647 01a8 34       		.uleb128 0x34
 3648 01a9 00       		.byte	0
 3649 01aa 03       		.uleb128 0x3
 3650 01ab 0E       		.uleb128 0xe
 3651 01ac 3A       		.uleb128 0x3a
 3652 01ad 0B       		.uleb128 0xb
 3653 01ae 3B       		.uleb128 0x3b
 3654 01af 0B       		.uleb128 0xb
 3655 01b0 49       		.uleb128 0x49
 3656 01b1 13       		.uleb128 0x13
 3657 01b2 02       		.uleb128 0x2
 3658 01b3 17       		.uleb128 0x17
 3659 01b4 00       		.byte	0
 3660 01b5 00       		.byte	0
 3661 01b6 20       		.uleb128 0x20
 3662 01b7 34       		.uleb128 0x34
ARM GAS  C:\Users\ingan\AppData\Local\Temp\ccPtKCQI.s 			page 91


 3663 01b8 00       		.byte	0
 3664 01b9 03       		.uleb128 0x3
 3665 01ba 0E       		.uleb128 0xe
 3666 01bb 3A       		.uleb128 0x3a
 3667 01bc 0B       		.uleb128 0xb
 3668 01bd 3B       		.uleb128 0x3b
 3669 01be 0B       		.uleb128 0xb
 3670 01bf 49       		.uleb128 0x49
 3671 01c0 13       		.uleb128 0x13
 3672 01c1 02       		.uleb128 0x2
 3673 01c2 18       		.uleb128 0x18
 3674 01c3 00       		.byte	0
 3675 01c4 00       		.byte	0
 3676 01c5 21       		.uleb128 0x21
 3677 01c6 34       		.uleb128 0x34
 3678 01c7 00       		.byte	0
 3679 01c8 03       		.uleb128 0x3
 3680 01c9 0E       		.uleb128 0xe
 3681 01ca 3A       		.uleb128 0x3a
 3682 01cb 0B       		.uleb128 0xb
 3683 01cc 3B       		.uleb128 0x3b
 3684 01cd 05       		.uleb128 0x5
 3685 01ce 49       		.uleb128 0x49
 3686 01cf 13       		.uleb128 0x13
 3687 01d0 3F       		.uleb128 0x3f
 3688 01d1 19       		.uleb128 0x19
 3689 01d2 3C       		.uleb128 0x3c
 3690 01d3 19       		.uleb128 0x19
 3691 01d4 00       		.byte	0
 3692 01d5 00       		.byte	0
 3693 01d6 22       		.uleb128 0x22
 3694 01d7 34       		.uleb128 0x34
 3695 01d8 00       		.byte	0
 3696 01d9 03       		.uleb128 0x3
 3697 01da 0E       		.uleb128 0xe
 3698 01db 3A       		.uleb128 0x3a
 3699 01dc 0B       		.uleb128 0xb
 3700 01dd 3B       		.uleb128 0x3b
 3701 01de 0B       		.uleb128 0xb
 3702 01df 49       		.uleb128 0x49
 3703 01e0 13       		.uleb128 0x13
 3704 01e1 3F       		.uleb128 0x3f
 3705 01e2 19       		.uleb128 0x19
 3706 01e3 3C       		.uleb128 0x3c
 3707 01e4 19       		.uleb128 0x19
 3708 01e5 00       		.byte	0
 3709 01e6 00       		.byte	0
 3710 01e7 23       		.uleb128 0x23
 3711 01e8 2E       		.uleb128 0x2e
 3712 01e9 00       		.byte	0
 3713 01ea 3F       		.uleb128 0x3f
 3714 01eb 19       		.uleb128 0x19
 3715 01ec 3C       		.uleb128 0x3c
 3716 01ed 19       		.uleb128 0x19
 3717 01ee 6E       		.uleb128 0x6e
 3718 01ef 0E       		.uleb128 0xe
 3719 01f0 03       		.uleb128 0x3
ARM GAS  C:\Users\ingan\AppData\Local\Temp\ccPtKCQI.s 			page 92


 3720 01f1 0E       		.uleb128 0xe
 3721 01f2 3A       		.uleb128 0x3a
 3722 01f3 0B       		.uleb128 0xb
 3723 01f4 3B       		.uleb128 0x3b
 3724 01f5 0B       		.uleb128 0xb
 3725 01f6 00       		.byte	0
 3726 01f7 00       		.byte	0
 3727 01f8 24       		.uleb128 0x24
 3728 01f9 2E       		.uleb128 0x2e
 3729 01fa 00       		.byte	0
 3730 01fb 3F       		.uleb128 0x3f
 3731 01fc 19       		.uleb128 0x19
 3732 01fd 3C       		.uleb128 0x3c
 3733 01fe 19       		.uleb128 0x19
 3734 01ff 6E       		.uleb128 0x6e
 3735 0200 0E       		.uleb128 0xe
 3736 0201 03       		.uleb128 0x3
 3737 0202 0E       		.uleb128 0xe
 3738 0203 3A       		.uleb128 0x3a
 3739 0204 0B       		.uleb128 0xb
 3740 0205 3B       		.uleb128 0x3b
 3741 0206 05       		.uleb128 0x5
 3742 0207 00       		.byte	0
 3743 0208 00       		.byte	0
 3744 0209 00       		.byte	0
 3745              		.section	.debug_loc,"",%progbits
 3746              	.Ldebug_loc0:
 3747              	.LLST0:
 3748 0000 00000000 		.4byte	.LVL0
 3749 0004 0C000000 		.4byte	.LVL1
 3750 0008 0100     		.2byte	0x1
 3751 000a 50       		.byte	0x50
 3752 000b 0C000000 		.4byte	.LVL1
 3753 000f 66000000 		.4byte	.LVL10
 3754 0013 0100     		.2byte	0x1
 3755 0015 55       		.byte	0x55
 3756 0016 66000000 		.4byte	.LVL10
 3757 001a 6C000000 		.4byte	.LFE1
 3758 001e 0400     		.2byte	0x4
 3759 0020 F3       		.byte	0xf3
 3760 0021 01       		.uleb128 0x1
 3761 0022 50       		.byte	0x50
 3762 0023 9F       		.byte	0x9f
 3763 0024 00000000 		.4byte	0
 3764 0028 00000000 		.4byte	0
 3765              	.LLST1:
 3766 002c 22000000 		.4byte	.LVL3
 3767 0030 28000000 		.4byte	.LVL4
 3768 0034 0200     		.2byte	0x2
 3769 0036 32       		.byte	0x32
 3770 0037 9F       		.byte	0x9f
 3771 0038 28000000 		.4byte	.LVL4
 3772 003c 5C000000 		.4byte	.LVL7
 3773 0040 0100     		.2byte	0x1
 3774 0042 53       		.byte	0x53
 3775 0043 5E000000 		.4byte	.LVL8
 3776 0047 62000000 		.4byte	.LVL9
ARM GAS  C:\Users\ingan\AppData\Local\Temp\ccPtKCQI.s 			page 93


 3777 004b 0100     		.2byte	0x1
 3778 004d 53       		.byte	0x53
 3779 004e 00000000 		.4byte	0
 3780 0052 00000000 		.4byte	0
 3781              	.LLST2:
 3782 0056 12000000 		.4byte	.LVL2
 3783 005a 28000000 		.4byte	.LVL4
 3784 005e 0200     		.2byte	0x2
 3785 0060 30       		.byte	0x30
 3786 0061 9F       		.byte	0x9f
 3787 0062 28000000 		.4byte	.LVL4
 3788 0066 58000000 		.4byte	.LVL5
 3789 006a 0100     		.2byte	0x1
 3790 006c 54       		.byte	0x54
 3791 006d 5A000000 		.4byte	.LVL6
 3792 0071 62000000 		.4byte	.LVL9
 3793 0075 0100     		.2byte	0x1
 3794 0077 54       		.byte	0x54
 3795 0078 00000000 		.4byte	0
 3796 007c 00000000 		.4byte	0
 3797              	.LLST3:
 3798 0080 02000000 		.4byte	.LVL11
 3799 0084 06000000 		.4byte	.LVL12
 3800 0088 0200     		.2byte	0x2
 3801 008a 31       		.byte	0x31
 3802 008b 9F       		.byte	0x9f
 3803 008c 06000000 		.4byte	.LVL12
 3804 0090 88000000 		.4byte	.LVL13
 3805 0094 0100     		.2byte	0x1
 3806 0096 53       		.byte	0x53
 3807 0097 8A000000 		.4byte	.LVL14
 3808 009b 92000000 		.4byte	.LVL15
 3809 009f 0100     		.2byte	0x1
 3810 00a1 53       		.byte	0x53
 3811 00a2 00000000 		.4byte	0
 3812 00a6 00000000 		.4byte	0
 3813              	.LLST4:
 3814 00aa 00000000 		.4byte	.LVL16
 3815 00ae 04000000 		.4byte	.LVL17
 3816 00b2 0200     		.2byte	0x2
 3817 00b4 31       		.byte	0x31
 3818 00b5 9F       		.byte	0x9f
 3819 00b6 04000000 		.4byte	.LVL17
 3820 00ba 36000000 		.4byte	.LVL18
 3821 00be 0100     		.2byte	0x1
 3822 00c0 53       		.byte	0x53
 3823 00c1 38000000 		.4byte	.LVL19
 3824 00c5 44000000 		.4byte	.LFE3
 3825 00c9 0100     		.2byte	0x1
 3826 00cb 53       		.byte	0x53
 3827 00cc 00000000 		.4byte	0
 3828 00d0 00000000 		.4byte	0
 3829              	.LLST5:
 3830 00d4 00000000 		.4byte	.LVL20
 3831 00d8 14000000 		.4byte	.LVL22
 3832 00dc 0100     		.2byte	0x1
 3833 00de 50       		.byte	0x50
ARM GAS  C:\Users\ingan\AppData\Local\Temp\ccPtKCQI.s 			page 94


 3834 00df 14000000 		.4byte	.LVL22
 3835 00e3 1C000000 		.4byte	.LVL24
 3836 00e7 0400     		.2byte	0x4
 3837 00e9 F3       		.byte	0xf3
 3838 00ea 01       		.uleb128 0x1
 3839 00eb 50       		.byte	0x50
 3840 00ec 9F       		.byte	0x9f
 3841 00ed 1C000000 		.4byte	.LVL24
 3842 00f1 1E000000 		.4byte	.LVL25
 3843 00f5 0100     		.2byte	0x1
 3844 00f7 50       		.byte	0x50
 3845 00f8 1E000000 		.4byte	.LVL25
 3846 00fc 28000000 		.4byte	.LFE6
 3847 0100 0400     		.2byte	0x4
 3848 0102 F3       		.byte	0xf3
 3849 0103 01       		.uleb128 0x1
 3850 0104 50       		.byte	0x50
 3851 0105 9F       		.byte	0x9f
 3852 0106 00000000 		.4byte	0
 3853 010a 00000000 		.4byte	0
 3854              	.LLST6:
 3855 010e 0C000000 		.4byte	.LVL21
 3856 0112 1A000000 		.4byte	.LVL23
 3857 0116 0300     		.2byte	0x3
 3858 0118 73       		.byte	0x73
 3859 0119 10       		.sleb128 16
 3860 011a 9F       		.byte	0x9f
 3861 011b 1A000000 		.4byte	.LVL23
 3862 011f 1C000000 		.4byte	.LVL24
 3863 0123 0100     		.2byte	0x1
 3864 0125 50       		.byte	0x50
 3865 0126 1C000000 		.4byte	.LVL24
 3866 012a 1E000000 		.4byte	.LVL25
 3867 012e 0300     		.2byte	0x3
 3868 0130 73       		.byte	0x73
 3869 0131 10       		.sleb128 16
 3870 0132 9F       		.byte	0x9f
 3871 0133 1E000000 		.4byte	.LVL25
 3872 0137 28000000 		.4byte	.LFE6
 3873 013b 0100     		.2byte	0x1
 3874 013d 50       		.byte	0x50
 3875 013e 00000000 		.4byte	0
 3876 0142 00000000 		.4byte	0
 3877              	.LLST7:
 3878 0146 1A000000 		.4byte	.LVL27
 3879 014a 00010000 		.4byte	.LVL41
 3880 014e 0100     		.2byte	0x1
 3881 0150 54       		.byte	0x54
 3882 0151 00000000 		.4byte	0
 3883 0155 00000000 		.4byte	0
 3884              	.LLST8:
 3885 0159 3E000000 		.4byte	.LVL32
 3886 015d C0000000 		.4byte	.LVL37
 3887 0161 0100     		.2byte	0x1
 3888 0163 51       		.byte	0x51
 3889 0164 00000000 		.4byte	0
 3890 0168 00000000 		.4byte	0
ARM GAS  C:\Users\ingan\AppData\Local\Temp\ccPtKCQI.s 			page 95


 3891              	.LLST9:
 3892 016c 44000000 		.4byte	.LVL33
 3893 0170 82000000 		.4byte	.LVL34
 3894 0174 0100     		.2byte	0x1
 3895 0176 56       		.byte	0x56
 3896 0177 92000000 		.4byte	.LVL35
 3897 017b 9E000000 		.4byte	.LVL36
 3898 017f 0100     		.2byte	0x1
 3899 0181 56       		.byte	0x56
 3900 0182 00000000 		.4byte	0
 3901 0186 00000000 		.4byte	0
 3902              	.LLST10:
 3903 018a 22000000 		.4byte	.LVL30
 3904 018e 26000000 		.4byte	.LVL31
 3905 0192 0200     		.2byte	0x2
 3906 0194 30       		.byte	0x30
 3907 0195 9F       		.byte	0x9f
 3908 0196 26000000 		.4byte	.LVL31
 3909 019a FA000000 		.4byte	.LVL39
 3910 019e 0100     		.2byte	0x1
 3911 01a0 53       		.byte	0x53
 3912 01a1 FC000000 		.4byte	.LVL40
 3913 01a5 00010000 		.4byte	.LVL41
 3914 01a9 0100     		.2byte	0x1
 3915 01ab 53       		.byte	0x53
 3916 01ac 00000000 		.4byte	0
 3917 01b0 00000000 		.4byte	0
 3918              	.LLST11:
 3919 01b4 22000000 		.4byte	.LVL30
 3920 01b8 00010000 		.4byte	.LVL41
 3921 01bc 0100     		.2byte	0x1
 3922 01be 50       		.byte	0x50
 3923 01bf 00000000 		.4byte	0
 3924 01c3 00000000 		.4byte	0
 3925              	.LLST12:
 3926 01c7 18000000 		.4byte	.LVL26
 3927 01cb 20000000 		.4byte	.LVL29
 3928 01cf 0300     		.2byte	0x3
 3929 01d1 70       		.byte	0x70
 3930 01d2 08       		.sleb128 8
 3931 01d3 9F       		.byte	0x9f
 3932 01d4 00000000 		.4byte	0
 3933 01d8 00000000 		.4byte	0
 3934              	.LLST13:
 3935 01dc 1C000000 		.4byte	.LVL28
 3936 01e0 00010000 		.4byte	.LVL41
 3937 01e4 0100     		.2byte	0x1
 3938 01e6 52       		.byte	0x52
 3939 01e7 00000000 		.4byte	0
 3940 01eb 00000000 		.4byte	0
 3941              	.LLST14:
 3942 01ef 0E000000 		.4byte	.LVL42
 3943 01f3 1A000000 		.4byte	.LVL45
 3944 01f7 0100     		.2byte	0x1
 3945 01f9 50       		.byte	0x50
 3946 01fa 1A000000 		.4byte	.LVL45
 3947 01fe 1E000000 		.4byte	.LVL47
ARM GAS  C:\Users\ingan\AppData\Local\Temp\ccPtKCQI.s 			page 96


 3948 0202 0100     		.2byte	0x1
 3949 0204 53       		.byte	0x53
 3950 0205 1E000000 		.4byte	.LVL47
 3951 0209 20000000 		.4byte	.LVL48
 3952 020d 0100     		.2byte	0x1
 3953 020f 50       		.byte	0x50
 3954 0210 00000000 		.4byte	0
 3955 0214 00000000 		.4byte	0
 3956              	.LLST15:
 3957 0218 1C000000 		.4byte	.LVL46
 3958 021c 1E000000 		.4byte	.LVL47
 3959 0220 0100     		.2byte	0x1
 3960 0222 50       		.byte	0x50
 3961 0223 20000000 		.4byte	.LVL48
 3962 0227 28000000 		.4byte	.LFE8
 3963 022b 0100     		.2byte	0x1
 3964 022d 50       		.byte	0x50
 3965 022e 00000000 		.4byte	0
 3966 0232 00000000 		.4byte	0
 3967              	.LLST16:
 3968 0236 14000000 		.4byte	.LVL43
 3969 023a 16000000 		.4byte	.LVL44
 3970 023e 0100     		.2byte	0x1
 3971 0240 52       		.byte	0x52
 3972 0241 16000000 		.4byte	.LVL44
 3973 0245 1E000000 		.4byte	.LVL47
 3974 0249 0300     		.2byte	0x3
 3975 024b 72       		.byte	0x72
 3976 024c 7E       		.sleb128 -2
 3977 024d 9F       		.byte	0x9f
 3978 024e 00000000 		.4byte	0
 3979 0252 00000000 		.4byte	0
 3980              	.LLST17:
 3981 0256 00000000 		.4byte	.LVL49
 3982 025a 58000000 		.4byte	.LVL61
 3983 025e 0100     		.2byte	0x1
 3984 0260 50       		.byte	0x50
 3985 0261 58000000 		.4byte	.LVL61
 3986 0265 EC010000 		.4byte	.LFE4
 3987 0269 0400     		.2byte	0x4
 3988 026b F3       		.byte	0xf3
 3989 026c 01       		.uleb128 0x1
 3990 026d 50       		.byte	0x50
 3991 026e 9F       		.byte	0x9f
 3992 026f 00000000 		.4byte	0
 3993 0273 00000000 		.4byte	0
 3994              	.LLST18:
 3995 0277 04000000 		.4byte	.LVL50
 3996 027b 08000000 		.4byte	.LVL51
 3997 027f 0200     		.2byte	0x2
 3998 0281 30       		.byte	0x30
 3999 0282 9F       		.byte	0x9f
 4000 0283 08000000 		.4byte	.LVL51
 4001 0287 28000000 		.4byte	.LVL52
 4002 028b 0100     		.2byte	0x1
 4003 028d 53       		.byte	0x53
 4004 028e 2A000000 		.4byte	.LVL53
ARM GAS  C:\Users\ingan\AppData\Local\Temp\ccPtKCQI.s 			page 97


 4005 0292 32000000 		.4byte	.LVL54
 4006 0296 0100     		.2byte	0x1
 4007 0298 53       		.byte	0x53
 4008 0299 42000000 		.4byte	.LVL57
 4009 029d 44000000 		.4byte	.LVL58
 4010 02a1 0100     		.2byte	0x1
 4011 02a3 53       		.byte	0x53
 4012 02a4 86000000 		.4byte	.LVL67
 4013 02a8 A0010000 		.4byte	.LVL91
 4014 02ac 0100     		.2byte	0x1
 4015 02ae 57       		.byte	0x57
 4016 02af A0010000 		.4byte	.LVL91
 4017 02b3 A6010000 		.4byte	.LVL92
 4018 02b7 0200     		.2byte	0x2
 4019 02b9 31       		.byte	0x31
 4020 02ba 9F       		.byte	0x9f
 4021 02bb A6010000 		.4byte	.LVL92
 4022 02bf C4010000 		.4byte	.LVL97
 4023 02c3 0100     		.2byte	0x1
 4024 02c5 51       		.byte	0x51
 4025 02c6 C6010000 		.4byte	.LVL98
 4026 02ca CD010000 		.4byte	.LVL99-1
 4027 02ce 0100     		.2byte	0x1
 4028 02d0 51       		.byte	0x51
 4029 02d1 00000000 		.4byte	0
 4030 02d5 00000000 		.4byte	0
 4031              	.LLST19:
 4032 02d9 92000000 		.4byte	.LVL69
 4033 02dd 96000000 		.4byte	.LVL70
 4034 02e1 0200     		.2byte	0x2
 4035 02e3 30       		.byte	0x30
 4036 02e4 9F       		.byte	0x9f
 4037 02e5 96000000 		.4byte	.LVL70
 4038 02e9 64010000 		.4byte	.LVL80
 4039 02ed 0100     		.2byte	0x1
 4040 02ef 54       		.byte	0x54
 4041 02f0 66010000 		.4byte	.LVL81
 4042 02f4 6E010000 		.4byte	.LVL83
 4043 02f8 0100     		.2byte	0x1
 4044 02fa 54       		.byte	0x54
 4045 02fb 00000000 		.4byte	0
 4046 02ff 00000000 		.4byte	0
 4047              	.LLST20:
 4048 0303 32000000 		.4byte	.LVL54
 4049 0307 3E000000 		.4byte	.LVL55
 4050 030b 0100     		.2byte	0x1
 4051 030d 53       		.byte	0x53
 4052 030e 40000000 		.4byte	.LVL56
 4053 0312 42000000 		.4byte	.LVL57
 4054 0316 0100     		.2byte	0x1
 4055 0318 53       		.byte	0x53
 4056 0319 44000000 		.4byte	.LVL58
 4057 031d 48000000 		.4byte	.LVL59
 4058 0321 0100     		.2byte	0x1
 4059 0323 53       		.byte	0x53
 4060 0324 86000000 		.4byte	.LVL67
 4061 0328 8E000000 		.4byte	.LVL68
ARM GAS  C:\Users\ingan\AppData\Local\Temp\ccPtKCQI.s 			page 98


 4062 032c 0200     		.2byte	0x2
 4063 032e 31       		.byte	0x31
 4064 032f 9F       		.byte	0x9f
 4065 0330 8E000000 		.4byte	.LVL68
 4066 0334 6C010000 		.4byte	.LVL82
 4067 0338 0100     		.2byte	0x1
 4068 033a 56       		.byte	0x56
 4069 033b 6E010000 		.4byte	.LVL83
 4070 033f 76010000 		.4byte	.LVL84
 4071 0343 0100     		.2byte	0x1
 4072 0345 56       		.byte	0x56
 4073 0346 76010000 		.4byte	.LVL84
 4074 034a 7A010000 		.4byte	.LVL85
 4075 034e 0200     		.2byte	0x2
 4076 0350 30       		.byte	0x30
 4077 0351 9F       		.byte	0x9f
 4078 0352 7A010000 		.4byte	.LVL85
 4079 0356 92010000 		.4byte	.LVL88
 4080 035a 0100     		.2byte	0x1
 4081 035c 52       		.byte	0x52
 4082 035d 94010000 		.4byte	.LVL89
 4083 0361 9B010000 		.4byte	.LVL90-1
 4084 0365 0100     		.2byte	0x1
 4085 0367 52       		.byte	0x52
 4086 0368 00000000 		.4byte	0
 4087 036c 00000000 		.4byte	0
 4088              	.LLST21:
 4089 0370 F4000000 		.4byte	.LVL71
 4090 0374 10010000 		.4byte	.LVL72
 4091 0378 0100     		.2byte	0x1
 4092 037a 53       		.byte	0x53
 4093 037b 10010000 		.4byte	.LVL72
 4094 037f 1E010000 		.4byte	.LVL73
 4095 0383 0700     		.2byte	0x7
 4096 0385 75       		.byte	0x75
 4097 0386 03       		.sleb128 3
 4098 0387 94       		.byte	0x94
 4099 0388 01       		.byte	0x1
 4100 0389 33       		.byte	0x33
 4101 038a 1A       		.byte	0x1a
 4102 038b 9F       		.byte	0x9f
 4103 038c 24010000 		.4byte	.LVL74
 4104 0390 38010000 		.4byte	.LVL75
 4105 0394 0100     		.2byte	0x1
 4106 0396 53       		.byte	0x53
 4107 0397 38010000 		.4byte	.LVL75
 4108 039b 46010000 		.4byte	.LVL76
 4109 039f 0700     		.2byte	0x7
 4110 03a1 75       		.byte	0x75
 4111 03a2 03       		.sleb128 3
 4112 03a3 94       		.byte	0x94
 4113 03a4 01       		.byte	0x1
 4114 03a5 33       		.byte	0x33
 4115 03a6 1A       		.byte	0x1a
 4116 03a7 9F       		.byte	0x9f
 4117 03a8 00000000 		.4byte	0
 4118 03ac 00000000 		.4byte	0
ARM GAS  C:\Users\ingan\AppData\Local\Temp\ccPtKCQI.s 			page 99


 4119              	.LLST22:
 4120 03b0 64000000 		.4byte	.LVL64
 4121 03b4 66000000 		.4byte	.LVL65
 4122 03b8 0100     		.2byte	0x1
 4123 03ba 53       		.byte	0x53
 4124 03bb 66000000 		.4byte	.LVL65
 4125 03bf 8E000000 		.4byte	.LVL68
 4126 03c3 0200     		.2byte	0x2
 4127 03c5 70       		.byte	0x70
 4128 03c6 04       		.sleb128 4
 4129 03c7 00000000 		.4byte	0
 4130 03cb 00000000 		.4byte	0
 4131              	.LLST23:
 4132 03cf 04000000 		.4byte	.LVL50
 4133 03d3 A6010000 		.4byte	.LVL92
 4134 03d7 0200     		.2byte	0x2
 4135 03d9 30       		.byte	0x30
 4136 03da 9F       		.byte	0x9f
 4137 03db A6010000 		.4byte	.LVL92
 4138 03df B8010000 		.4byte	.LVL93
 4139 03e3 0100     		.2byte	0x1
 4140 03e5 53       		.byte	0x53
 4141 03e6 B8010000 		.4byte	.LVL93
 4142 03ea BA010000 		.4byte	.LVL94
 4143 03ee 0200     		.2byte	0x2
 4144 03f0 74       		.byte	0x74
 4145 03f1 06       		.sleb128 6
 4146 03f2 BA010000 		.4byte	.LVL94
 4147 03f6 C0010000 		.4byte	.LVL95
 4148 03fa 0100     		.2byte	0x1
 4149 03fc 53       		.byte	0x53
 4150 03fd C2010000 		.4byte	.LVL96
 4151 0401 CD010000 		.4byte	.LVL99-1
 4152 0405 0100     		.2byte	0x1
 4153 0407 53       		.byte	0x53
 4154 0408 00000000 		.4byte	0
 4155 040c 00000000 		.4byte	0
 4156              	.LLST24:
 4157 0410 62000000 		.4byte	.LVL63
 4158 0414 82000000 		.4byte	.LVL66
 4159 0418 0100     		.2byte	0x1
 4160 041a 50       		.byte	0x50
 4161 041b 82000000 		.4byte	.LVL66
 4162 041f 8E000000 		.4byte	.LVL68
 4163 0423 0300     		.2byte	0x3
 4164 0425 70       		.byte	0x70
 4165 0426 08       		.sleb128 8
 4166 0427 9F       		.byte	0x9f
 4167 0428 8E000000 		.4byte	.LVL68
 4168 042c CE010000 		.4byte	.LVL99
 4169 0430 0300     		.2byte	0x3
 4170 0432 78       		.byte	0x78
 4171 0433 08       		.sleb128 8
 4172 0434 9F       		.byte	0x9f
 4173 0435 00000000 		.4byte	0
 4174 0439 00000000 		.4byte	0
 4175              	.LLST25:
ARM GAS  C:\Users\ingan\AppData\Local\Temp\ccPtKCQI.s 			page 100


 4176 043d 92000000 		.4byte	.LVL69
 4177 0441 6E010000 		.4byte	.LVL83
 4178 0445 0100     		.2byte	0x1
 4179 0447 55       		.byte	0x55
 4180 0448 76010000 		.4byte	.LVL84
 4181 044c 84010000 		.4byte	.LVL86
 4182 0450 0100     		.2byte	0x1
 4183 0452 50       		.byte	0x50
 4184 0453 84010000 		.4byte	.LVL86
 4185 0457 90010000 		.4byte	.LVL87
 4186 045b 0300     		.2byte	0x3
 4187 045d 70       		.byte	0x70
 4188 045e 78       		.sleb128 -8
 4189 045f 9F       		.byte	0x9f
 4190 0460 90010000 		.4byte	.LVL87
 4191 0464 9B010000 		.4byte	.LVL90-1
 4192 0468 0100     		.2byte	0x1
 4193 046a 50       		.byte	0x50
 4194 046b 00000000 		.4byte	0
 4195 046f 00000000 		.4byte	0
 4196              	.LLST26:
 4197 0473 54000000 		.4byte	.LVL60
 4198 0477 8E000000 		.4byte	.LVL68
 4199 047b 0200     		.2byte	0x2
 4200 047d 30       		.byte	0x30
 4201 047e 9F       		.byte	0x9f
 4202 047f 8E000000 		.4byte	.LVL68
 4203 0483 CE010000 		.4byte	.LVL99
 4204 0487 0100     		.2byte	0x1
 4205 0489 5A       		.byte	0x5a
 4206 048a 00000000 		.4byte	0
 4207 048e 00000000 		.4byte	0
 4208              	.LLST27:
 4209 0492 00000000 		.4byte	.LVL100
 4210 0496 04000000 		.4byte	.LVL101
 4211 049a 0100     		.2byte	0x1
 4212 049c 50       		.byte	0x50
 4213 049d 04000000 		.4byte	.LVL101
 4214 04a1 30000000 		.4byte	.LVL102
 4215 04a5 0100     		.2byte	0x1
 4216 04a7 50       		.byte	0x50
 4217 04a8 38000000 		.4byte	.LVL103
 4218 04ac 3A000000 		.4byte	.LVL104
 4219 04b0 0100     		.2byte	0x1
 4220 04b2 50       		.byte	0x50
 4221 04b3 00000000 		.4byte	0
 4222 04b7 00000000 		.4byte	0
 4223              	.LLST28:
 4224 04bb 02000000 		.4byte	.LVL105
 4225 04bf 52000000 		.4byte	.LVL110
 4226 04c3 0200     		.2byte	0x2
 4227 04c5 30       		.byte	0x30
 4228 04c6 9F       		.byte	0x9f
 4229 04c7 52000000 		.4byte	.LVL110
 4230 04cb 54000000 		.4byte	.LVL111
 4231 04cf 0100     		.2byte	0x1
 4232 04d1 50       		.byte	0x50
ARM GAS  C:\Users\ingan\AppData\Local\Temp\ccPtKCQI.s 			page 101


 4233 04d2 54000000 		.4byte	.LVL111
 4234 04d6 56000000 		.4byte	.LVL112
 4235 04da 0200     		.2byte	0x2
 4236 04dc 30       		.byte	0x30
 4237 04dd 9F       		.byte	0x9f
 4238 04de 56000000 		.4byte	.LVL112
 4239 04e2 64000000 		.4byte	.LFE10
 4240 04e6 0100     		.2byte	0x1
 4241 04e8 50       		.byte	0x50
 4242 04e9 00000000 		.4byte	0
 4243 04ed 00000000 		.4byte	0
 4244              	.LLST29:
 4245 04f1 0A000000 		.4byte	.LVL106
 4246 04f5 3A000000 		.4byte	.LVL107
 4247 04f9 0100     		.2byte	0x1
 4248 04fb 53       		.byte	0x53
 4249 04fc 44000000 		.4byte	.LVL108
 4250 0500 46000000 		.4byte	.LVL109
 4251 0504 0100     		.2byte	0x1
 4252 0506 53       		.byte	0x53
 4253 0507 54000000 		.4byte	.LVL111
 4254 050b 58000000 		.4byte	.LVL113
 4255 050f 0100     		.2byte	0x1
 4256 0511 53       		.byte	0x53
 4257 0512 00000000 		.4byte	0
 4258 0516 00000000 		.4byte	0
 4259              	.LLST30:
 4260 051a 00000000 		.4byte	.LVL114
 4261 051e 98000000 		.4byte	.LVL123
 4262 0522 0200     		.2byte	0x2
 4263 0524 30       		.byte	0x30
 4264 0525 9F       		.byte	0x9f
 4265 0526 98000000 		.4byte	.LVL123
 4266 052a 9A000000 		.4byte	.LVL124
 4267 052e 0100     		.2byte	0x1
 4268 0530 50       		.byte	0x50
 4269 0531 9A000000 		.4byte	.LVL124
 4270 0535 AC000000 		.4byte	.LFE11
 4271 0539 0200     		.2byte	0x2
 4272 053b 30       		.byte	0x30
 4273 053c 9F       		.byte	0x9f
 4274 053d 00000000 		.4byte	0
 4275 0541 00000000 		.4byte	0
 4276              	.LLST31:
 4277 0545 08000000 		.4byte	.LVL115
 4278 0549 5C000000 		.4byte	.LVL116
 4279 054d 0100     		.2byte	0x1
 4280 054f 53       		.byte	0x53
 4281 0550 60000000 		.4byte	.LVL117
 4282 0554 62000000 		.4byte	.LVL118
 4283 0558 0100     		.2byte	0x1
 4284 055a 53       		.byte	0x53
 4285 055b 6C000000 		.4byte	.LVL119
 4286 055f 80000000 		.4byte	.LVL120
 4287 0563 0100     		.2byte	0x1
 4288 0565 53       		.byte	0x53
 4289 0566 8A000000 		.4byte	.LVL121
ARM GAS  C:\Users\ingan\AppData\Local\Temp\ccPtKCQI.s 			page 102


 4290 056a 8C000000 		.4byte	.LVL122
 4291 056e 0100     		.2byte	0x1
 4292 0570 53       		.byte	0x53
 4293 0571 9A000000 		.4byte	.LVL124
 4294 0575 AC000000 		.4byte	.LFE11
 4295 0579 0100     		.2byte	0x1
 4296 057b 53       		.byte	0x53
 4297 057c 00000000 		.4byte	0
 4298 0580 00000000 		.4byte	0
 4299              	.LLST32:
 4300 0584 02000000 		.4byte	.LVL125
 4301 0588 32000000 		.4byte	.LVL130
 4302 058c 0200     		.2byte	0x2
 4303 058e 30       		.byte	0x30
 4304 058f 9F       		.byte	0x9f
 4305 0590 32000000 		.4byte	.LVL130
 4306 0594 36000000 		.4byte	.LVL132
 4307 0598 0200     		.2byte	0x2
 4308 059a 31       		.byte	0x31
 4309 059b 9F       		.byte	0x9f
 4310 059c 36000000 		.4byte	.LVL132
 4311 05a0 38000000 		.4byte	.LVL133
 4312 05a4 0200     		.2byte	0x2
 4313 05a6 30       		.byte	0x30
 4314 05a7 9F       		.byte	0x9f
 4315 05a8 38000000 		.4byte	.LVL133
 4316 05ac 4C000000 		.4byte	.LFE12
 4317 05b0 0100     		.2byte	0x1
 4318 05b2 50       		.byte	0x50
 4319 05b3 00000000 		.4byte	0
 4320 05b7 00000000 		.4byte	0
 4321              	.LLST33:
 4322 05bb 08000000 		.4byte	.LVL126
 4323 05bf 3A000000 		.4byte	.LVL134
 4324 05c3 0100     		.2byte	0x1
 4325 05c5 54       		.byte	0x54
 4326 05c6 00000000 		.4byte	0
 4327 05ca 00000000 		.4byte	0
 4328              	.LLST34:
 4329 05ce 18000000 		.4byte	.LVL128
 4330 05d2 24000000 		.4byte	.LVL129
 4331 05d6 0100     		.2byte	0x1
 4332 05d8 53       		.byte	0x53
 4333 05d9 24000000 		.4byte	.LVL129
 4334 05dd 34000000 		.4byte	.LVL131
 4335 05e1 0500     		.2byte	0x5
 4336 05e3 70       		.byte	0x70
 4337 05e4 04       		.sleb128 4
 4338 05e5 06       		.byte	0x6
 4339 05e6 23       		.byte	0x23
 4340 05e7 04       		.uleb128 0x4
 4341 05e8 36000000 		.4byte	.LVL132
 4342 05ec 4C000000 		.4byte	.LFE12
 4343 05f0 0100     		.2byte	0x1
 4344 05f2 53       		.byte	0x53
 4345 05f3 00000000 		.4byte	0
 4346 05f7 00000000 		.4byte	0
ARM GAS  C:\Users\ingan\AppData\Local\Temp\ccPtKCQI.s 			page 103


 4347              	.LLST35:
 4348 05fb 14000000 		.4byte	.LVL127
 4349 05ff 34000000 		.4byte	.LVL131
 4350 0603 0100     		.2byte	0x1
 4351 0605 50       		.byte	0x50
 4352 0606 36000000 		.4byte	.LVL132
 4353 060a 38000000 		.4byte	.LVL133
 4354 060e 0100     		.2byte	0x1
 4355 0610 50       		.byte	0x50
 4356 0611 00000000 		.4byte	0
 4357 0615 00000000 		.4byte	0
 4358              	.LLST36:
 4359 0619 02000000 		.4byte	.LVL135
 4360 061d 58000000 		.4byte	.LVL139
 4361 0621 0200     		.2byte	0x2
 4362 0623 30       		.byte	0x30
 4363 0624 9F       		.byte	0x9f
 4364 0625 58000000 		.4byte	.LVL139
 4365 0629 5A000000 		.4byte	.LVL140
 4366 062d 0100     		.2byte	0x1
 4367 062f 50       		.byte	0x50
 4368 0630 5A000000 		.4byte	.LVL140
 4369 0634 8A000000 		.4byte	.LVL142
 4370 0638 0200     		.2byte	0x2
 4371 063a 30       		.byte	0x30
 4372 063b 9F       		.byte	0x9f
 4373 063c 8A000000 		.4byte	.LVL142
 4374 0640 8C000000 		.4byte	.LVL143
 4375 0644 0100     		.2byte	0x1
 4376 0646 50       		.byte	0x50
 4377 0647 8C000000 		.4byte	.LVL143
 4378 064b F0000000 		.4byte	.LVL154
 4379 064f 0200     		.2byte	0x2
 4380 0651 30       		.byte	0x30
 4381 0652 9F       		.byte	0x9f
 4382 0653 F0000000 		.4byte	.LVL154
 4383 0657 F2000000 		.4byte	.LVL155
 4384 065b 0100     		.2byte	0x1
 4385 065d 50       		.byte	0x50
 4386 065e F2000000 		.4byte	.LVL155
 4387 0662 F6000000 		.4byte	.LVL156
 4388 0666 0200     		.2byte	0x2
 4389 0668 30       		.byte	0x30
 4390 0669 9F       		.byte	0x9f
 4391 066a F6000000 		.4byte	.LVL156
 4392 066e F8000000 		.4byte	.LVL157
 4393 0672 0100     		.2byte	0x1
 4394 0674 50       		.byte	0x50
 4395 0675 F8000000 		.4byte	.LVL157
 4396 0679 2C010000 		.4byte	.LVL159
 4397 067d 0200     		.2byte	0x2
 4398 067f 30       		.byte	0x30
 4399 0680 9F       		.byte	0x9f
 4400 0681 2C010000 		.4byte	.LVL159
 4401 0685 2E010000 		.4byte	.LVL160
 4402 0689 0100     		.2byte	0x1
 4403 068b 50       		.byte	0x50
ARM GAS  C:\Users\ingan\AppData\Local\Temp\ccPtKCQI.s 			page 104


 4404 068c 2E010000 		.4byte	.LVL160
 4405 0690 48010000 		.4byte	.LVL161
 4406 0694 0200     		.2byte	0x2
 4407 0696 30       		.byte	0x30
 4408 0697 9F       		.byte	0x9f
 4409 0698 48010000 		.4byte	.LVL161
 4410 069c 4A010000 		.4byte	.LVL162
 4411 06a0 0100     		.2byte	0x1
 4412 06a2 50       		.byte	0x50
 4413 06a3 4A010000 		.4byte	.LVL162
 4414 06a7 58010000 		.4byte	.LVL164
 4415 06ab 0200     		.2byte	0x2
 4416 06ad 30       		.byte	0x30
 4417 06ae 9F       		.byte	0x9f
 4418 06af 58010000 		.4byte	.LVL164
 4419 06b3 5A010000 		.4byte	.LVL165
 4420 06b7 0100     		.2byte	0x1
 4421 06b9 50       		.byte	0x50
 4422 06ba 5A010000 		.4byte	.LVL165
 4423 06be 6E010000 		.4byte	.LVL167
 4424 06c2 0200     		.2byte	0x2
 4425 06c4 30       		.byte	0x30
 4426 06c5 9F       		.byte	0x9f
 4427 06c6 6E010000 		.4byte	.LVL167
 4428 06ca 70010000 		.4byte	.LVL168
 4429 06ce 0100     		.2byte	0x1
 4430 06d0 50       		.byte	0x50
 4431 06d1 70010000 		.4byte	.LVL168
 4432 06d5 A4010000 		.4byte	.LVL170
 4433 06d9 0200     		.2byte	0x2
 4434 06db 30       		.byte	0x30
 4435 06dc 9F       		.byte	0x9f
 4436 06dd A4010000 		.4byte	.LVL170
 4437 06e1 A6010000 		.4byte	.LVL171
 4438 06e5 0100     		.2byte	0x1
 4439 06e7 50       		.byte	0x50
 4440 06e8 A6010000 		.4byte	.LVL171
 4441 06ec DE010000 		.4byte	.LVL177
 4442 06f0 0200     		.2byte	0x2
 4443 06f2 30       		.byte	0x30
 4444 06f3 9F       		.byte	0x9f
 4445 06f4 DE010000 		.4byte	.LVL177
 4446 06f8 E0010000 		.4byte	.LVL178
 4447 06fc 0100     		.2byte	0x1
 4448 06fe 50       		.byte	0x50
 4449 06ff E0010000 		.4byte	.LVL178
 4450 0703 16020000 		.4byte	.LVL183
 4451 0707 0200     		.2byte	0x2
 4452 0709 30       		.byte	0x30
 4453 070a 9F       		.byte	0x9f
 4454 070b 16020000 		.4byte	.LVL183
 4455 070f 18020000 		.4byte	.LVL184
 4456 0713 0100     		.2byte	0x1
 4457 0715 50       		.byte	0x50
 4458 0716 18020000 		.4byte	.LVL184
 4459 071a 34020000 		.4byte	.LVL186
 4460 071e 0200     		.2byte	0x2
ARM GAS  C:\Users\ingan\AppData\Local\Temp\ccPtKCQI.s 			page 105


 4461 0720 30       		.byte	0x30
 4462 0721 9F       		.byte	0x9f
 4463 0722 34020000 		.4byte	.LVL186
 4464 0726 36020000 		.4byte	.LVL187
 4465 072a 0100     		.2byte	0x1
 4466 072c 50       		.byte	0x50
 4467 072d 36020000 		.4byte	.LVL187
 4468 0731 4E020000 		.4byte	.LVL188
 4469 0735 0200     		.2byte	0x2
 4470 0737 30       		.byte	0x30
 4471 0738 9F       		.byte	0x9f
 4472 0739 4E020000 		.4byte	.LVL188
 4473 073d 50020000 		.4byte	.LVL189
 4474 0741 0100     		.2byte	0x1
 4475 0743 50       		.byte	0x50
 4476 0744 50020000 		.4byte	.LVL189
 4477 0748 70020000 		.4byte	.LVL190
 4478 074c 0200     		.2byte	0x2
 4479 074e 30       		.byte	0x30
 4480 074f 9F       		.byte	0x9f
 4481 0750 70020000 		.4byte	.LVL190
 4482 0754 B0020000 		.4byte	.LVL191
 4483 0758 0100     		.2byte	0x1
 4484 075a 50       		.byte	0x50
 4485 075b B0020000 		.4byte	.LVL191
 4486 075f CC020000 		.4byte	.LVL193
 4487 0763 0200     		.2byte	0x2
 4488 0765 30       		.byte	0x30
 4489 0766 9F       		.byte	0x9f
 4490 0767 CC020000 		.4byte	.LVL193
 4491 076b CE020000 		.4byte	.LVL194
 4492 076f 0100     		.2byte	0x1
 4493 0771 50       		.byte	0x50
 4494 0772 CE020000 		.4byte	.LVL194
 4495 0776 E6020000 		.4byte	.LVL195
 4496 077a 0200     		.2byte	0x2
 4497 077c 30       		.byte	0x30
 4498 077d 9F       		.byte	0x9f
 4499 077e E6020000 		.4byte	.LVL195
 4500 0782 E8020000 		.4byte	.LVL196
 4501 0786 0100     		.2byte	0x1
 4502 0788 50       		.byte	0x50
 4503 0789 E8020000 		.4byte	.LVL196
 4504 078d 08030000 		.4byte	.LVL197
 4505 0791 0200     		.2byte	0x2
 4506 0793 30       		.byte	0x30
 4507 0794 9F       		.byte	0x9f
 4508 0795 08030000 		.4byte	.LVL197
 4509 0799 0A030000 		.4byte	.LVL198
 4510 079d 0100     		.2byte	0x1
 4511 079f 50       		.byte	0x50
 4512 07a0 0A030000 		.4byte	.LVL198
 4513 07a4 44030000 		.4byte	.LVL206
 4514 07a8 0200     		.2byte	0x2
 4515 07aa 30       		.byte	0x30
 4516 07ab 9F       		.byte	0x9f
 4517 07ac 44030000 		.4byte	.LVL206
ARM GAS  C:\Users\ingan\AppData\Local\Temp\ccPtKCQI.s 			page 106


 4518 07b0 54030000 		.4byte	.LFE0
 4519 07b4 0100     		.2byte	0x1
 4520 07b6 50       		.byte	0x50
 4521 07b7 00000000 		.4byte	0
 4522 07bb 00000000 		.4byte	0
 4523              	.LLST37:
 4524 07bf F0010000 		.4byte	.LVL180
 4525 07c3 02020000 		.4byte	.LVL181
 4526 07c7 0100     		.2byte	0x1
 4527 07c9 53       		.byte	0x53
 4528 07ca 00000000 		.4byte	0
 4529 07ce 00000000 		.4byte	0
 4530              	.LLST38:
 4531 07d2 AA010000 		.4byte	.LVL173
 4532 07d6 B7010000 		.4byte	.LVL174-1
 4533 07da 0100     		.2byte	0x1
 4534 07dc 53       		.byte	0x53
 4535 07dd 00000000 		.4byte	0
 4536 07e1 00000000 		.4byte	0
 4537              	.LLST39:
 4538 07e5 08000000 		.4byte	.LVL136
 4539 07e9 3E000000 		.4byte	.LVL137
 4540 07ed 0100     		.2byte	0x1
 4541 07ef 53       		.byte	0x53
 4542 07f0 F8000000 		.4byte	.LVL157
 4543 07f4 FC000000 		.4byte	.LVL158
 4544 07f8 0100     		.2byte	0x1
 4545 07fa 53       		.byte	0x53
 4546 07fb 4A010000 		.4byte	.LVL162
 4547 07ff 4C010000 		.4byte	.LVL163
 4548 0803 0100     		.2byte	0x1
 4549 0805 53       		.byte	0x53
 4550 0806 5A010000 		.4byte	.LVL165
 4551 080a 5E010000 		.4byte	.LVL166
 4552 080e 0100     		.2byte	0x1
 4553 0810 53       		.byte	0x53
 4554 0811 70010000 		.4byte	.LVL168
 4555 0815 98010000 		.4byte	.LVL169
 4556 0819 0100     		.2byte	0x1
 4557 081b 53       		.byte	0x53
 4558 081c A6010000 		.4byte	.LVL171
 4559 0820 A8010000 		.4byte	.LVL172
 4560 0824 0100     		.2byte	0x1
 4561 0826 53       		.byte	0x53
 4562 0827 E0010000 		.4byte	.LVL178
 4563 082b E3010000 		.4byte	.LVL179-1
 4564 082f 0100     		.2byte	0x1
 4565 0831 53       		.byte	0x53
 4566 0832 18020000 		.4byte	.LVL184
 4567 0836 1C020000 		.4byte	.LVL185
 4568 083a 0100     		.2byte	0x1
 4569 083c 53       		.byte	0x53
 4570 083d B0020000 		.4byte	.LVL191
 4571 0841 B4020000 		.4byte	.LVL192
 4572 0845 0100     		.2byte	0x1
 4573 0847 53       		.byte	0x53
 4574 0848 0A030000 		.4byte	.LVL198
ARM GAS  C:\Users\ingan\AppData\Local\Temp\ccPtKCQI.s 			page 107


 4575 084c 0E030000 		.4byte	.LVL199
 4576 0850 0100     		.2byte	0x1
 4577 0852 53       		.byte	0x53
 4578 0853 1A030000 		.4byte	.LVL203
 4579 0857 1E030000 		.4byte	.LVL204
 4580 085b 0100     		.2byte	0x1
 4581 085d 53       		.byte	0x53
 4582 085e 00000000 		.4byte	0
 4583 0862 00000000 		.4byte	0
 4584              	.LLST40:
 4585 0866 08000000 		.4byte	.LVL136
 4586 086a 98000000 		.4byte	.LVL144
 4587 086e 0200     		.2byte	0x2
 4588 0870 30       		.byte	0x30
 4589 0871 9F       		.byte	0x9f
 4590 0872 98000000 		.4byte	.LVL144
 4591 0876 A2000000 		.4byte	.LVL149
 4592 087a 0100     		.2byte	0x1
 4593 087c 51       		.byte	0x51
 4594 087d A2000000 		.4byte	.LVL149
 4595 0881 A6000000 		.4byte	.LVL150
 4596 0885 0200     		.2byte	0x2
 4597 0887 30       		.byte	0x30
 4598 0888 9F       		.byte	0x9f
 4599 0889 A6000000 		.4byte	.LVL150
 4600 088d D7000000 		.4byte	.LVL152-1
 4601 0891 0100     		.2byte	0x1
 4602 0893 51       		.byte	0x51
 4603 0894 DA000000 		.4byte	.LVL153
 4604 0898 EF000000 		.4byte	.LVL154-1
 4605 089c 0100     		.2byte	0x1
 4606 089e 51       		.byte	0x51
 4607 089f F2000000 		.4byte	.LVL155
 4608 08a3 12030000 		.4byte	.LVL201
 4609 08a7 0200     		.2byte	0x2
 4610 08a9 30       		.byte	0x30
 4611 08aa 9F       		.byte	0x9f
 4612 08ab 12030000 		.4byte	.LVL201
 4613 08af 16030000 		.4byte	.LVL202
 4614 08b3 0100     		.2byte	0x1
 4615 08b5 51       		.byte	0x51
 4616 08b6 16030000 		.4byte	.LVL202
 4617 08ba 54030000 		.4byte	.LFE0
 4618 08be 0200     		.2byte	0x2
 4619 08c0 30       		.byte	0x30
 4620 08c1 9F       		.byte	0x9f
 4621 08c2 00000000 		.4byte	0
 4622 08c6 00000000 		.4byte	0
 4623              	.LLST41:
 4624 08ca 98000000 		.4byte	.LVL144
 4625 08ce 9E000000 		.4byte	.LVL147
 4626 08d2 0100     		.2byte	0x1
 4627 08d4 53       		.byte	0x53
 4628 08d5 A0000000 		.4byte	.LVL148
 4629 08d9 A2000000 		.4byte	.LVL149
 4630 08dd 0100     		.2byte	0x1
 4631 08df 53       		.byte	0x53
ARM GAS  C:\Users\ingan\AppData\Local\Temp\ccPtKCQI.s 			page 108


 4632 08e0 A6000000 		.4byte	.LVL150
 4633 08e4 BA000000 		.4byte	.LVL151
 4634 08e8 0100     		.2byte	0x1
 4635 08ea 53       		.byte	0x53
 4636 08eb 00000000 		.4byte	0
 4637 08ef 00000000 		.4byte	0
 4638              	.LLST42:
 4639 08f3 9A000000 		.4byte	.LVL145
 4640 08f7 A2000000 		.4byte	.LVL149
 4641 08fb 0100     		.2byte	0x1
 4642 08fd 52       		.byte	0x52
 4643 08fe 00000000 		.4byte	0
 4644 0902 00000000 		.4byte	0
 4645              	.LLST43:
 4646 0906 4A000000 		.4byte	.LVL138
 4647 090a 57000000 		.4byte	.LVL139-1
 4648 090e 0100     		.2byte	0x1
 4649 0910 50       		.byte	0x50
 4650 0911 6C000000 		.4byte	.LVL141
 4651 0915 89000000 		.4byte	.LVL142-1
 4652 0919 0100     		.2byte	0x1
 4653 091b 50       		.byte	0x50
 4654 091c B8010000 		.4byte	.LVL174
 4655 0920 D2010000 		.4byte	.LVL175
 4656 0924 0100     		.2byte	0x1
 4657 0926 50       		.byte	0x50
 4658 0927 0E030000 		.4byte	.LVL199
 4659 092b 10030000 		.4byte	.LVL200
 4660 092f 0100     		.2byte	0x1
 4661 0931 50       		.byte	0x50
 4662 0932 1E030000 		.4byte	.LVL204
 4663 0936 20030000 		.4byte	.LVL205
 4664 093a 0100     		.2byte	0x1
 4665 093c 50       		.byte	0x50
 4666 093d 00000000 		.4byte	0
 4667 0941 00000000 		.4byte	0
 4668              		.section	.debug_aranges,"",%progbits
 4669 0000 7C000000 		.4byte	0x7c
 4670 0004 0200     		.2byte	0x2
 4671 0006 00000000 		.4byte	.Ldebug_info0
 4672 000a 04       		.byte	0x4
 4673 000b 00       		.byte	0
 4674 000c 0000     		.2byte	0
 4675 000e 0000     		.2byte	0
 4676 0010 00000000 		.4byte	.LFB1
 4677 0014 6C000000 		.4byte	.LFE1-.LFB1
 4678 0018 00000000 		.4byte	.LFB2
 4679 001c A8000000 		.4byte	.LFE2-.LFB2
 4680 0020 00000000 		.4byte	.LFB3
 4681 0024 44000000 		.4byte	.LFE3-.LFB3
 4682 0028 00000000 		.4byte	.LFB6
 4683 002c 28000000 		.4byte	.LFE6-.LFB6
 4684 0030 00000000 		.4byte	.LFB5
 4685 0034 1C010000 		.4byte	.LFE5-.LFB5
 4686 0038 00000000 		.4byte	.LFB7
 4687 003c 18000000 		.4byte	.LFE7-.LFB7
 4688 0040 00000000 		.4byte	.LFB8
ARM GAS  C:\Users\ingan\AppData\Local\Temp\ccPtKCQI.s 			page 109


 4689 0044 28000000 		.4byte	.LFE8-.LFB8
 4690 0048 00000000 		.4byte	.LFB4
 4691 004c EC010000 		.4byte	.LFE4-.LFB4
 4692 0050 00000000 		.4byte	.LFB9
 4693 0054 4C000000 		.4byte	.LFE9-.LFB9
 4694 0058 00000000 		.4byte	.LFB10
 4695 005c 64000000 		.4byte	.LFE10-.LFB10
 4696 0060 00000000 		.4byte	.LFB11
 4697 0064 AC000000 		.4byte	.LFE11-.LFB11
 4698 0068 00000000 		.4byte	.LFB12
 4699 006c 4C000000 		.4byte	.LFE12-.LFB12
 4700 0070 00000000 		.4byte	.LFB0
 4701 0074 54030000 		.4byte	.LFE0-.LFB0
 4702 0078 00000000 		.4byte	0
 4703 007c 00000000 		.4byte	0
 4704              		.section	.debug_ranges,"",%progbits
 4705              	.Ldebug_ranges0:
 4706 0000 00000000 		.4byte	.LFB1
 4707 0004 6C000000 		.4byte	.LFE1
 4708 0008 00000000 		.4byte	.LFB2
 4709 000c A8000000 		.4byte	.LFE2
 4710 0010 00000000 		.4byte	.LFB3
 4711 0014 44000000 		.4byte	.LFE3
 4712 0018 00000000 		.4byte	.LFB6
 4713 001c 28000000 		.4byte	.LFE6
 4714 0020 00000000 		.4byte	.LFB5
 4715 0024 1C010000 		.4byte	.LFE5
 4716 0028 00000000 		.4byte	.LFB7
 4717 002c 18000000 		.4byte	.LFE7
 4718 0030 00000000 		.4byte	.LFB8
 4719 0034 28000000 		.4byte	.LFE8
 4720 0038 00000000 		.4byte	.LFB4
 4721 003c EC010000 		.4byte	.LFE4
 4722 0040 00000000 		.4byte	.LFB9
 4723 0044 4C000000 		.4byte	.LFE9
 4724 0048 00000000 		.4byte	.LFB10
 4725 004c 64000000 		.4byte	.LFE10
 4726 0050 00000000 		.4byte	.LFB11
 4727 0054 AC000000 		.4byte	.LFE11
 4728 0058 00000000 		.4byte	.LFB12
 4729 005c 4C000000 		.4byte	.LFE12
 4730 0060 00000000 		.4byte	.LFB0
 4731 0064 54030000 		.4byte	.LFE0
 4732 0068 00000000 		.4byte	0
 4733 006c 00000000 		.4byte	0
 4734              		.section	.debug_line,"",%progbits
 4735              	.Ldebug_line0:
 4736 0000 DF030000 		.section	.debug_str,"MS",%progbits,1
 4736      02007100 
 4736      00000201 
 4736      FB0E0D00 
 4736      01010101 
 4737              	.LASF56:
 4738 0000 72774472 		.ascii	"rwDr\000"
 4738      00
 4739              	.LASF104:
 4740 0005 55534255 		.ascii	"USBUART_idSerialNumberStringDescriptor\000"
ARM GAS  C:\Users\ingan\AppData\Local\Temp\ccPtKCQI.s 			page 110


 4740      4152545F 
 4740      69645365 
 4740      7269616C 
 4740      4E756D62 
 4741              	.LASF26:
 4742 002c 62756666 		.ascii	"bufferSize\000"
 4742      65725369 
 4742      7A6500
 4743              	.LASF117:
 4744 0037 55534255 		.ascii	"USBUART_DispatchClassRqst\000"
 4744      4152545F 
 4744      44697370 
 4744      61746368 
 4744      436C6173 
 4745              	.LASF91:
 4746 0051 636F6E66 		.ascii	"configurationN\000"
 4746      69677572 
 4746      6174696F 
 4746      6E4E00
 4747              	.LASF86:
 4748 0060 55534255 		.ascii	"USBUART_ClearEndpointHalt\000"
 4748      4152545F 
 4748      436C6561 
 4748      72456E64 
 4748      706F696E 
 4749              	.LASF58:
 4750 007a 73696545 		.ascii	"sieEp\000"
 4750      7000
 4751              	.LASF69:
 4752 0080 55534255 		.ascii	"USBUART_ConfigAltChanged\000"
 4752      4152545F 
 4752      436F6E66 
 4752      6967416C 
 4752      74436861 
 4753              	.LASF39:
 4754 0099 545F5553 		.ascii	"T_USBUART_TD\000"
 4754      42554152 
 4754      545F5444 
 4754      00
 4755              	.LASF27:
 4756 00a6 696E7465 		.ascii	"interface\000"
 4756      72666163 
 4756      6500
 4757              	.LASF100:
 4758 00b0 55534255 		.ascii	"USBUART_deviceStatus\000"
 4758      4152545F 
 4758      64657669 
 4758      63655374 
 4758      61747573 
 4759              	.LASF8:
 4760 00c5 756E7369 		.ascii	"unsigned int\000"
 4760      676E6564 
 4760      20696E74 
 4760      00
 4761              	.LASF90:
 4762 00d2 696E7465 		.ascii	"interfaceNumber\000"
 4762      72666163 
ARM GAS  C:\Users\ingan\AppData\Local\Temp\ccPtKCQI.s 			page 111


 4762      654E756D 
 4762      62657200 
 4763              	.LASF121:
 4764 00e2 55534255 		.ascii	"USBUART_GetDeviceTablePtr\000"
 4764      4152545F 
 4764      47657444 
 4764      65766963 
 4764      65546162 
 4765              	.LASF92:
 4766 00fc 626D5265 		.ascii	"bmRequestType\000"
 4766      71756573 
 4766      74547970 
 4766      6500
 4767              	.LASF74:
 4768 010a 55534255 		.ascii	"USBUART_GetInterfaceClassTablePtr\000"
 4768      4152545F 
 4768      47657449 
 4768      6E746572 
 4768      66616365 
 4769              	.LASF98:
 4770 012c 55534255 		.ascii	"USBUART_configuration\000"
 4770      4152545F 
 4770      636F6E66 
 4770      69677572 
 4770      6174696F 
 4771              	.LASF16:
 4772 0142 72656738 		.ascii	"reg8\000"
 4772      00
 4773              	.LASF79:
 4774 0147 70446573 		.ascii	"pDescr\000"
 4774      637200
 4775              	.LASF65:
 4776 014e 55534255 		.ascii	"USBUART_EpStateInit\000"
 4776      4152545F 
 4776      45705374 
 4776      61746549 
 4776      6E697400 
 4777              	.LASF84:
 4778 0162 55534255 		.ascii	"USBUART_SetEndpointHalt\000"
 4778      4152545F 
 4778      53657445 
 4778      6E64706F 
 4778      696E7448 
 4779              	.LASF109:
 4780 017a 55534255 		.ascii	"USBUART_interfaceStatus\000"
 4780      4152545F 
 4780      696E7465 
 4780      72666163 
 4780      65537461 
 4781              	.LASF103:
 4782 0192 55534255 		.ascii	"USBUART_STRING_DESCRIPTORS\000"
 4782      4152545F 
 4782      53545249 
 4782      4E475F44 
 4782      45534352 
 4783              	.LASF111:
 4784 01ad 55534255 		.ascii	"USBUART_EP\000"
ARM GAS  C:\Users\ingan\AppData\Local\Temp\ccPtKCQI.s 			page 112


 4784      4152545F 
 4784      455000
 4785              	.LASF29:
 4786 01b8 616C7453 		.ascii	"altSetting\000"
 4786      65747469 
 4786      6E6700
 4787              	.LASF22:
 4788 01c3 6570546F 		.ascii	"epToggle\000"
 4788      67676C65 
 4788      00
 4789              	.LASF12:
 4790 01cc 666C6F61 		.ascii	"float\000"
 4790      7400
 4791              	.LASF36:
 4792 01d2 636F756E 		.ascii	"count\000"
 4792      7400
 4793              	.LASF41:
 4794 01d8 545F5553 		.ascii	"T_USBUART_LUT\000"
 4794      42554152 
 4794      545F4C55 
 4794      5400
 4795              	.LASF52:
 4796 01e6 72775761 		.ascii	"rwWa\000"
 4796      00
 4797              	.LASF7:
 4798 01eb 6C6F6E67 		.ascii	"long long unsigned int\000"
 4798      206C6F6E 
 4798      6720756E 
 4798      7369676E 
 4798      65642069 
 4799              	.LASF106:
 4800 0202 55534255 		.ascii	"USBUART_interfaceSetting\000"
 4800      4152545F 
 4800      696E7465 
 4800      72666163 
 4800      65536574 
 4801              	.LASF32:
 4802 021b 545F5553 		.ascii	"T_USBUART_EP_SETTINGS_BLOCK\000"
 4802      42554152 
 4802      545F4550 
 4802      5F534554 
 4802      54494E47 
 4803              	.LASF57:
 4804 0237 55534255 		.ascii	"USBUART_arb_ep_struct\000"
 4804      4152545F 
 4804      6172625F 
 4804      65705F73 
 4804      74727563 
 4805              	.LASF49:
 4806 024d 6570496E 		.ascii	"epIntEn\000"
 4806      74456E00 
 4807              	.LASF67:
 4808 0255 636F6E66 		.ascii	"confIndex\000"
 4808      496E6465 
 4808      7800
 4809              	.LASF76:
 4810 025f 63757272 		.ascii	"currentInterfacesNum\000"
ARM GAS  C:\Users\ingan\AppData\Local\Temp\ccPtKCQI.s 			page 113


 4810      656E7449 
 4810      6E746572 
 4810      66616365 
 4810      734E756D 
 4811              	.LASF37:
 4812 0274 70446174 		.ascii	"pData\000"
 4812      6100
 4813              	.LASF118:
 4814 027a 474E5520 		.ascii	"GNU C11 5.4.1 20160609 (release) [ARM/embedded-5-br"
 4814      43313120 
 4814      352E342E 
 4814      31203230 
 4814      31363036 
 4815 02ad 616E6368 		.ascii	"anch revision 237715] -mcpu=cortex-m3 -mthumb -g -O"
 4815      20726576 
 4815      6973696F 
 4815      6E203233 
 4815      37373135 
 4816 02e0 67202D66 		.ascii	"g -ffunction-sections -ffat-lto-objects -finline-fu"
 4816      66756E63 
 4816      74696F6E 
 4816      2D736563 
 4816      74696F6E 
 4817 0313 6E637469 		.ascii	"nctions\000"
 4817      6F6E7300 
 4818              	.LASF38:
 4819 031b 70537461 		.ascii	"pStatusBlock\000"
 4819      74757342 
 4819      6C6F636B 
 4819      00
 4820              	.LASF82:
 4821 0328 55534255 		.ascii	"USBUART_TerminateEP\000"
 4821      4152545F 
 4821      5465726D 
 4821      696E6174 
 4821      65455000 
 4822              	.LASF97:
 4823 033c 55534255 		.ascii	"USBUART_device\000"
 4823      4152545F 
 4823      64657669 
 4823      636500
 4824              	.LASF15:
 4825 034b 63686172 		.ascii	"char\000"
 4825      00
 4826              	.LASF60:
 4827 0350 61726245 		.ascii	"arbEp\000"
 4827      7000
 4828              	.LASF105:
 4829 0356 55534255 		.ascii	"USBUART_interfaceNumber\000"
 4829      4152545F 
 4829      696E7465 
 4829      72666163 
 4829      654E756D 
 4830              	.LASF10:
 4831 036e 75696E74 		.ascii	"uint16\000"
 4831      313600
 4832              	.LASF33:
ARM GAS  C:\Users\ingan\AppData\Local\Temp\ccPtKCQI.s 			page 114


 4833 0375 73746174 		.ascii	"status\000"
 4833      757300
 4834              	.LASF14:
 4835 037c 63686172 		.ascii	"char8\000"
 4835      3800
 4836              	.LASF25:
 4837 0382 62756666 		.ascii	"buffOffset\000"
 4837      4F666673 
 4837      657400
 4838              	.LASF112:
 4839 038d 55534255 		.ascii	"USBUART_currentTD\000"
 4839      4152545F 
 4839      63757272 
 4839      656E7454 
 4839      4400
 4840              	.LASF46:
 4841 039f 65704372 		.ascii	"epCr0\000"
 4841      3000
 4842              	.LASF61:
 4843 03a5 55534255 		.ascii	"USBUART_arb_eps_struct\000"
 4843      4152545F 
 4843      6172625F 
 4843      6570735F 
 4843      73747275 
 4844              	.LASF71:
 4845 03bc 65705479 		.ascii	"epType\000"
 4845      706500
 4846              	.LASF85:
 4847 03c3 72657175 		.ascii	"requestHandled\000"
 4847      65737448 
 4847      616E646C 
 4847      656400
 4848              	.LASF6:
 4849 03d2 6C6F6E67 		.ascii	"long long int\000"
 4849      206C6F6E 
 4849      6720696E 
 4849      7400
 4850              	.LASF31:
 4851 03e0 624D6973 		.ascii	"bMisc\000"
 4851      6300
 4852              	.LASF44:
 4853 03e6 6570436E 		.ascii	"epCnt0\000"
 4853      743000
 4854              	.LASF45:
 4855 03ed 6570436E 		.ascii	"epCnt1\000"
 4855      743100
 4856              	.LASF47:
 4857 03f4 55534255 		.ascii	"USBUART_sie_ep_struct\000"
 4857      4152545F 
 4857      7369655F 
 4857      65705F73 
 4857      74727563 
 4858              	.LASF83:
 4859 040a 65704E75 		.ascii	"epNumber\000"
 4859      6D626572 
 4859      00
 4860              	.LASF102:
ARM GAS  C:\Users\ingan\AppData\Local\Temp\ccPtKCQI.s 			page 115


 4861 0413 55534255 		.ascii	"USBUART_TABLE\000"
 4861      4152545F 
 4861      5441424C 
 4861      4500
 4862              	.LASF35:
 4863 0421 545F5553 		.ascii	"T_USBUART_XFER_STATUS_BLOCK\000"
 4863      42554152 
 4863      545F5846 
 4863      45525F53 
 4863      54415455 
 4864              	.LASF21:
 4865 043d 68774570 		.ascii	"hwEpState\000"
 4865      53746174 
 4865      6500
 4866              	.LASF81:
 4867 0447 63646343 		.ascii	"cdcComNums\000"
 4867      6F6D4E75 
 4867      6D7300
 4868              	.LASF11:
 4869 0452 75696E74 		.ascii	"uint32\000"
 4869      333200
 4870              	.LASF75:
 4871 0459 70496E74 		.ascii	"pInterfaceClass\000"
 4871      65726661 
 4871      6365436C 
 4871      61737300 
 4872              	.LASF66:
 4873 0469 64657363 		.ascii	"descr\000"
 4873      7200
 4874              	.LASF77:
 4875 046f 55534255 		.ascii	"USBUART_Config\000"
 4875      4152545F 
 4875      436F6E66 
 4875      696700
 4876              	.LASF89:
 4877 047e 55534255 		.ascii	"USBUART_HandleStandardRqst\000"
 4877      4152545F 
 4877      48616E64 
 4877      6C655374 
 4877      616E6461 
 4878              	.LASF99:
 4879 0499 55534255 		.ascii	"USBUART_configurationChanged\000"
 4879      4152545F 
 4879      636F6E66 
 4879      69677572 
 4879      6174696F 
 4880              	.LASF101:
 4881 04b6 55534255 		.ascii	"USBUART_DEVICE0_DESCR\000"
 4881      4152545F 
 4881      44455649 
 4881      4345305F 
 4881      44455343 
 4882              	.LASF17:
 4883 04cc 6C6F6E67 		.ascii	"long double\000"
 4883      20646F75 
 4883      626C6500 
 4884              	.LASF96:
ARM GAS  C:\Users\ingan\AppData\Local\Temp\ccPtKCQI.s 			page 116


 4885 04d8 55534255 		.ascii	"USBUART_tBuffer\000"
 4885      4152545F 
 4885      74427566 
 4885      66657200 
 4886              	.LASF80:
 4887 04e8 62756666 		.ascii	"buffCount\000"
 4887      436F756E 
 4887      7400
 4888              	.LASF2:
 4889 04f2 73686F72 		.ascii	"short int\000"
 4889      7420696E 
 4889      7400
 4890              	.LASF24:
 4891 04fc 65704D6F 		.ascii	"epMode\000"
 4891      646500
 4892              	.LASF4:
 4893 0503 6C6F6E67 		.ascii	"long int\000"
 4893      20696E74 
 4893      00
 4894              	.LASF34:
 4895 050c 6C656E67 		.ascii	"length\000"
 4895      746800
 4896              	.LASF55:
 4897 0513 72775261 		.ascii	"rwRaMsb\000"
 4897      4D736200 
 4898              	.LASF73:
 4899 051b 55534255 		.ascii	"USBUART_GetConfigTablePtr\000"
 4899      4152545F 
 4899      47657443 
 4899      6F6E6669 
 4899      67546162 
 4900              	.LASF48:
 4901 0535 65704366 		.ascii	"epCfg\000"
 4901      6700
 4902              	.LASF43:
 4903 053b 55534255 		.ascii	"USBUART_ep0_data_struct\000"
 4903      4152545F 
 4903      6570305F 
 4903      64617461 
 4903      5F737472 
 4904              	.LASF119:
 4905 0553 47656E65 		.ascii	"Generated_Source\\PSoC5\\USBUART_std.c\000"
 4905      72617465 
 4905      645F536F 
 4905      75726365 
 4905      5C50536F 
 4906              	.LASF63:
 4907 0578 55534255 		.ascii	"USBUART_ReadDieID\000"
 4907      4152545F 
 4907      52656164 
 4907      44696549 
 4907      4400
 4908              	.LASF68:
 4909 058a 70546D70 		.ascii	"pTmp\000"
 4909      00
 4910              	.LASF64:
 4911 058f 55534255 		.ascii	"USBUART_ConfigReg\000"
ARM GAS  C:\Users\ingan\AppData\Local\Temp\ccPtKCQI.s 			page 117


 4911      4152545F 
 4911      436F6E66 
 4911      69675265 
 4911      6700
 4912              	.LASF18:
 4913 05a1 73697A65 		.ascii	"sizetype\000"
 4913      74797065 
 4913      00
 4914              	.LASF5:
 4915 05aa 6C6F6E67 		.ascii	"long unsigned int\000"
 4915      20756E73 
 4915      69676E65 
 4915      6420696E 
 4915      7400
 4916              	.LASF28:
 4917 05bc 545F5553 		.ascii	"T_USBUART_EP_CTL_BLOCK\000"
 4917      42554152 
 4917      545F4550 
 4917      5F43544C 
 4917      5F424C4F 
 4918              	.LASF70:
 4919 05d3 63757245 		.ascii	"curEp\000"
 4919      7000
 4920              	.LASF94:
 4921 05d9 6E537472 		.ascii	"nStr\000"
 4921      00
 4922              	.LASF50:
 4923 05de 65705372 		.ascii	"epSr\000"
 4923      00
 4924              	.LASF40:
 4925 05e3 705F6C69 		.ascii	"p_list\000"
 4925      737400
 4926              	.LASF87:
 4927 05ea 55534255 		.ascii	"USBUART_ValidateAlternateSetting\000"
 4927      4152545F 
 4927      56616C69 
 4927      64617465 
 4927      416C7465 
 4928              	.LASF93:
 4929 060b 70537472 		.ascii	"pStr\000"
 4929      00
 4930              	.LASF53:
 4931 0610 72775761 		.ascii	"rwWaMsb\000"
 4931      4D736200 
 4932              	.LASF1:
 4933 0618 756E7369 		.ascii	"unsigned char\000"
 4933      676E6564 
 4933      20636861 
 4933      7200
 4934              	.LASF114:
 4935 0626 55534255 		.ascii	"USBUART_Cdc_EpInit\000"
 4935      4152545F 
 4935      4364635F 
 4935      4570496E 
 4935      697400
 4936              	.LASF113:
 4937 0639 43794765 		.ascii	"CyGetUniqueId\000"
ARM GAS  C:\Users\ingan\AppData\Local\Temp\ccPtKCQI.s 			page 118


 4937      74556E69 
 4937      71756549 
 4937      6400
 4938              	.LASF95:
 4939 0647 64657363 		.ascii	"descrLength\000"
 4939      724C656E 
 4939      67746800 
 4940              	.LASF78:
 4941 0653 636C6561 		.ascii	"clearAltSetting\000"
 4941      72416C74 
 4941      53657474 
 4941      696E6700 
 4942              	.LASF30:
 4943 0663 61747472 		.ascii	"attributes\000"
 4943      69627574 
 4943      657300
 4944              	.LASF59:
 4945 066e 55534255 		.ascii	"USBUART_sie_eps_struct\000"
 4945      4152545F 
 4945      7369655F 
 4945      6570735F 
 4945      73747275 
 4946              	.LASF23:
 4947 0685 61646472 		.ascii	"addr\000"
 4947      00
 4948              	.LASF110:
 4949 068a 55534255 		.ascii	"USBUART_interfaceClass\000"
 4949      4152545F 
 4949      696E7465 
 4949      72666163 
 4949      65436C61 
 4950              	.LASF54:
 4951 06a1 72775261 		.ascii	"rwRa\000"
 4951      00
 4952              	.LASF108:
 4953 06a6 55534255 		.ascii	"USBUART_deviceAddress\000"
 4953      4152545F 
 4953      64657669 
 4953      63654164 
 4953      64726573 
 4954              	.LASF0:
 4955 06bc 7369676E 		.ascii	"signed char\000"
 4955      65642063 
 4955      68617200 
 4956              	.LASF3:
 4957 06c8 73686F72 		.ascii	"short unsigned int\000"
 4957      7420756E 
 4957      7369676E 
 4957      65642069 
 4957      6E7400
 4958              	.LASF120:
 4959 06db 433A5C55 		.ascii	"C:\\Users\\ingan\\Documents\\PSoC Creator\\MegaDriv"
 4959      73657273 
 4959      5C696E67 
 4959      616E5C44 
 4959      6F63756D 
 4960 0709 655F706C 		.ascii	"e_player\\VGMPlayer_v0.7.cydsn\000"
ARM GAS  C:\Users\ingan\AppData\Local\Temp\ccPtKCQI.s 			page 119


 4960      61796572 
 4960      5C56474D 
 4960      506C6179 
 4960      65725F76 
 4961              	.LASF62:
 4962 0727 756E6971 		.ascii	"uniqueId\000"
 4962      75654964 
 4962      00
 4963              	.LASF51:
 4964 0730 72657365 		.ascii	"reserved\000"
 4964      72766564 
 4964      00
 4965              	.LASF115:
 4966 0739 55534255 		.ascii	"USBUART_InitNoDataControlTransfer\000"
 4966      4152545F 
 4966      496E6974 
 4966      4E6F4461 
 4966      7461436F 
 4967              	.LASF9:
 4968 075b 75696E74 		.ascii	"uint8\000"
 4968      3800
 4969              	.LASF13:
 4970 0761 646F7562 		.ascii	"double\000"
 4970      6C6500
 4971              	.LASF116:
 4972 0768 55534255 		.ascii	"USBUART_InitControlRead\000"
 4972      4152545F 
 4972      496E6974 
 4972      436F6E74 
 4972      726F6C52 
 4973              	.LASF72:
 4974 0780 696E7465 		.ascii	"interfaceNum\000"
 4974      72666163 
 4974      654E756D 
 4974      00
 4975              	.LASF88:
 4976 078d 63757249 		.ascii	"curInterfacesNum\000"
 4976      6E746572 
 4976      66616365 
 4976      734E756D 
 4976      00
 4977              	.LASF19:
 4978 079e 61747472 		.ascii	"attrib\000"
 4978      696200
 4979              	.LASF20:
 4980 07a5 61706945 		.ascii	"apiEpState\000"
 4980      70537461 
 4980      746500
 4981              	.LASF42:
 4982 07b0 65704461 		.ascii	"epData\000"
 4982      746100
 4983              	.LASF107:
 4984 07b7 55534255 		.ascii	"USBUART_interfaceSettingLast\000"
 4984      4152545F 
 4984      696E7465 
 4984      72666163 
 4984      65536574 
ARM GAS  C:\Users\ingan\AppData\Local\Temp\ccPtKCQI.s 			page 120


 4985              		.ident	"GCC: (GNU Tools for ARM Embedded Processors) 5.4.1 20160609 (release) [ARM/embedded-5-bran
