ARM GAS  C:\Users\ingan\AppData\Local\Temp\ccoalNGJ.s 			page 1


   1              		.syntax unified
   2              		.cpu cortex-m3
   3              		.fpu softvfp
   4              		.eabi_attribute 20, 1
   5              		.eabi_attribute 21, 1
   6              		.eabi_attribute 23, 3
   7              		.eabi_attribute 24, 1
   8              		.eabi_attribute 25, 1
   9              		.eabi_attribute 26, 1
  10              		.eabi_attribute 30, 1
  11              		.eabi_attribute 34, 1
  12              		.eabi_attribute 18, 4
  13              		.thumb
  14              		.syntax unified
  15              		.file	"USBUART_cdc.c"
  16              		.text
  17              	.Ltext0:
  18              		.cfi_sections	.debug_frame
  19              		.section	.text.USBUART_StrLen,"ax",%progbits
  20              		.align	2
  21              		.thumb
  22              		.thumb_func
  23              		.type	USBUART_StrLen, %function
  24              	USBUART_StrLen:
  25              	.LFB4:
  26              		.file 1 "Generated_Source\\PSoC5\\USBUART_cdc.c"
   1:Generated_Source\PSoC5/USBUART_cdc.c **** /***************************************************************************//**
   2:Generated_Source\PSoC5/USBUART_cdc.c **** * \file USBUART_cdc.c
   3:Generated_Source\PSoC5/USBUART_cdc.c **** * \version 3.20
   4:Generated_Source\PSoC5/USBUART_cdc.c **** *
   5:Generated_Source\PSoC5/USBUART_cdc.c **** * \brief
   6:Generated_Source\PSoC5/USBUART_cdc.c **** *  This file contains the USB CDC class request handler.
   7:Generated_Source\PSoC5/USBUART_cdc.c **** *
   8:Generated_Source\PSoC5/USBUART_cdc.c **** * Related Document:
   9:Generated_Source\PSoC5/USBUART_cdc.c **** *  Universal Serial Bus Class Definitions for Communication Devices Version 1.1
  10:Generated_Source\PSoC5/USBUART_cdc.c **** *
  11:Generated_Source\PSoC5/USBUART_cdc.c **** ********************************************************************************
  12:Generated_Source\PSoC5/USBUART_cdc.c **** * \copyright
  13:Generated_Source\PSoC5/USBUART_cdc.c **** * Copyright 2012-2016, Cypress Semiconductor Corporation.  All rights reserved.
  14:Generated_Source\PSoC5/USBUART_cdc.c **** * You may use this file only in accordance with the license, terms, conditions,
  15:Generated_Source\PSoC5/USBUART_cdc.c **** * disclaimers, and limitations in the end user license agreement accompanying
  16:Generated_Source\PSoC5/USBUART_cdc.c **** * the software package with which this file was provided.
  17:Generated_Source\PSoC5/USBUART_cdc.c **** *******************************************************************************/
  18:Generated_Source\PSoC5/USBUART_cdc.c **** 
  19:Generated_Source\PSoC5/USBUART_cdc.c **** #include "USBUART_cdc.h"
  20:Generated_Source\PSoC5/USBUART_cdc.c **** #include "USBUART_pvt.h"
  21:Generated_Source\PSoC5/USBUART_cdc.c **** #include "cyapicallbacks.h"
  22:Generated_Source\PSoC5/USBUART_cdc.c **** 
  23:Generated_Source\PSoC5/USBUART_cdc.c **** #if defined(USBUART_ENABLE_CDC_CLASS)
  24:Generated_Source\PSoC5/USBUART_cdc.c **** 
  25:Generated_Source\PSoC5/USBUART_cdc.c **** /*******************************************************************************
  26:Generated_Source\PSoC5/USBUART_cdc.c **** *    CDC Variables
  27:Generated_Source\PSoC5/USBUART_cdc.c **** *******************************************************************************/
  28:Generated_Source\PSoC5/USBUART_cdc.c **** 
  29:Generated_Source\PSoC5/USBUART_cdc.c **** /*PUBLIC*/
  30:Generated_Source\PSoC5/USBUART_cdc.c **** /** Contains the current line coding structure. The host sets it using a
  31:Generated_Source\PSoC5/USBUART_cdc.c ****  * SET_LINE_CODING request and returns it to the user code using the
ARM GAS  C:\Users\ingan\AppData\Local\Temp\ccoalNGJ.s 			page 2


  32:Generated_Source\PSoC5/USBUART_cdc.c ****  * USBUART_GetDTERate(), USBUART_GetCharFormat(),
  33:Generated_Source\PSoC5/USBUART_cdc.c ****  * USBUART_GetParityType(), and USBUART_GetDataBits() APIs.
  34:Generated_Source\PSoC5/USBUART_cdc.c ****  * It is an array of 2 elements for COM port 1 and COM port 2 for MultiCOM port
  35:Generated_Source\PSoC5/USBUART_cdc.c ****  * support. In case of 1 COM port, data is in 0 element.*/
  36:Generated_Source\PSoC5/USBUART_cdc.c **** volatile uint8 USBUART_linesCoding[USBUART_MAX_MULTI_COM_NUM][USBUART_LINE_CODING_SIZE] =
  37:Generated_Source\PSoC5/USBUART_cdc.c **** {
  38:Generated_Source\PSoC5/USBUART_cdc.c ****     /*COM Port 1*/
  39:Generated_Source\PSoC5/USBUART_cdc.c ****     {
  40:Generated_Source\PSoC5/USBUART_cdc.c ****     0x00u, 0xC2u, 0x01u, 0x00u,     /* Data terminal rate 115200 */
  41:Generated_Source\PSoC5/USBUART_cdc.c ****     0x00u,                          /* 1 Stop bit */
  42:Generated_Source\PSoC5/USBUART_cdc.c ****     0x00u,                          /* None parity */
  43:Generated_Source\PSoC5/USBUART_cdc.c ****     0x08u                           /* 8 data bits */
  44:Generated_Source\PSoC5/USBUART_cdc.c ****     },
  45:Generated_Source\PSoC5/USBUART_cdc.c ****     /*COM Port 2*/
  46:Generated_Source\PSoC5/USBUART_cdc.c ****     {
  47:Generated_Source\PSoC5/USBUART_cdc.c ****     0x00u, 0xC2u, 0x01u, 0x00u,     /* Data terminal rate 115200 */
  48:Generated_Source\PSoC5/USBUART_cdc.c ****     0x00u,                          /* 1 Stop bit */
  49:Generated_Source\PSoC5/USBUART_cdc.c ****     0x00u,                          /* None parity */
  50:Generated_Source\PSoC5/USBUART_cdc.c ****     0x08u                           /* 8 data bits */
  51:Generated_Source\PSoC5/USBUART_cdc.c ****     }
  52:Generated_Source\PSoC5/USBUART_cdc.c **** };
  53:Generated_Source\PSoC5/USBUART_cdc.c **** 
  54:Generated_Source\PSoC5/USBUART_cdc.c **** /**Used as a flag for the USBUART_IsLineChanged() API, to inform it that the
  55:Generated_Source\PSoC5/USBUART_cdc.c ****  * host has been sent a request to change line coding or control bitmap. It is 
  56:Generated_Source\PSoC5/USBUART_cdc.c ****  * an array of 2 elements for COM port 1 and COM port 2 for MultiCOM port 
  57:Generated_Source\PSoC5/USBUART_cdc.c ****  * support. In case of 1 COM port, data is in 0 element.*/
  58:Generated_Source\PSoC5/USBUART_cdc.c **** volatile uint8  USBUART_linesChanged[USBUART_MAX_MULTI_COM_NUM];
  59:Generated_Source\PSoC5/USBUART_cdc.c **** /** Contains the current control-signal bitmap. The host sets it using a
  60:Generated_Source\PSoC5/USBUART_cdc.c ****  * SET_CONTROL_LINE request and returns it to the user code using the 
  61:Generated_Source\PSoC5/USBUART_cdc.c ****  * USBUART_GetLineControl() API. It is an array of 2 elements for COM 
  62:Generated_Source\PSoC5/USBUART_cdc.c ****  * port 1 and COM port 2 for MultiCOM port support. In case of 1 COM port, data 
  63:Generated_Source\PSoC5/USBUART_cdc.c ****  * is in 0 element.*/
  64:Generated_Source\PSoC5/USBUART_cdc.c **** volatile uint16 USBUART_linesControlBitmap[USBUART_MAX_MULTI_COM_NUM];
  65:Generated_Source\PSoC5/USBUART_cdc.c **** /** Contains the 16-bit serial state value that was sent using the 
  66:Generated_Source\PSoC5/USBUART_cdc.c ****  * \ref USBUART_SendSerialState() API. . It is an array of 2 elements 
  67:Generated_Source\PSoC5/USBUART_cdc.c ****  * for COM port 1 and COM port 2 for MultiCOM port support. In case of 1 COM 
  68:Generated_Source\PSoC5/USBUART_cdc.c ****  * port, data is in 0 element.*/
  69:Generated_Source\PSoC5/USBUART_cdc.c **** volatile uint16 USBUART_serialStateBitmap[USBUART_MAX_MULTI_COM_NUM];
  70:Generated_Source\PSoC5/USBUART_cdc.c **** /** Contains the data IN endpoint number. It is initialized after a 
  71:Generated_Source\PSoC5/USBUART_cdc.c ****  * SET_CONFIGURATION request based on a user descriptor. It is used in CDC APIs 
  72:Generated_Source\PSoC5/USBUART_cdc.c ****  * to send data to the PC. It is an array of 2 elements for COM port 1 and COM 
  73:Generated_Source\PSoC5/USBUART_cdc.c ****  * port 2 for MultiCOM port support. In case of 1 COM port, data is in 0 element.*/
  74:Generated_Source\PSoC5/USBUART_cdc.c **** volatile uint8  USBUART_cdcDataInEp[USBUART_MAX_MULTI_COM_NUM];
  75:Generated_Source\PSoC5/USBUART_cdc.c **** /** Contains the data OUT endpoint number. It is initialized after a 
  76:Generated_Source\PSoC5/USBUART_cdc.c ****  * SET_CONFIGURATION request based on user descriptor. It is used in CDC APIs to 
  77:Generated_Source\PSoC5/USBUART_cdc.c ****  * receive data from the PC. It is an array of 2 elements for COM port 1 and COM  
  78:Generated_Source\PSoC5/USBUART_cdc.c ****  * port 2 for MultiCOM port support. In case of 1 COM port, data is in 0 element.*/
  79:Generated_Source\PSoC5/USBUART_cdc.c **** volatile uint8  USBUART_cdcDataOutEp[USBUART_MAX_MULTI_COM_NUM];
  80:Generated_Source\PSoC5/USBUART_cdc.c **** /** Contains the data IN endpoint number for COMMUNICATION interface. It is 
  81:Generated_Source\PSoC5/USBUART_cdc.c ****  * initialized after a SET_CONFIGURATION request based on a user descriptor. It 
  82:Generated_Source\PSoC5/USBUART_cdc.c ****  * is used in CDC APIs to send data to the PC. It is an array of 2 elements for 
  83:Generated_Source\PSoC5/USBUART_cdc.c ****  * COM port 1 and COM port 2 for MultiCOM port support. In case of 1 COM port, 
  84:Generated_Source\PSoC5/USBUART_cdc.c ****  * data is in 0 element.*/
  85:Generated_Source\PSoC5/USBUART_cdc.c **** volatile uint8  USBUART_cdcCommInInterruptEp[USBUART_MAX_MULTI_COM_NUM];
  86:Generated_Source\PSoC5/USBUART_cdc.c **** 
  87:Generated_Source\PSoC5/USBUART_cdc.c **** /*PRIVATE*/
  88:Generated_Source\PSoC5/USBUART_cdc.c **** 
ARM GAS  C:\Users\ingan\AppData\Local\Temp\ccoalNGJ.s 			page 3


  89:Generated_Source\PSoC5/USBUART_cdc.c **** #define USBUART_CDC_IN_EP      (0u)
  90:Generated_Source\PSoC5/USBUART_cdc.c **** #define USBUART_CDC_OUT_EP     (1u)
  91:Generated_Source\PSoC5/USBUART_cdc.c **** #define USBUART_CDC_NOTE_EP    (2u)
  92:Generated_Source\PSoC5/USBUART_cdc.c **** 
  93:Generated_Source\PSoC5/USBUART_cdc.c **** #define USBUART_CDC_EP_MASK    (0x01u)
  94:Generated_Source\PSoC5/USBUART_cdc.c **** 
  95:Generated_Source\PSoC5/USBUART_cdc.c **** #define USBUART_GET_EP_COM_NUM(cdcComNums, epType) (((cdcComNums) >> (epType)) & USBUART_CDC_EP_MAS
  96:Generated_Source\PSoC5/USBUART_cdc.c **** 
  97:Generated_Source\PSoC5/USBUART_cdc.c **** 
  98:Generated_Source\PSoC5/USBUART_cdc.c **** /***************************************
  99:Generated_Source\PSoC5/USBUART_cdc.c **** *     Static Function Prototypes
 100:Generated_Source\PSoC5/USBUART_cdc.c **** ***************************************/
 101:Generated_Source\PSoC5/USBUART_cdc.c **** #if (USBUART_ENABLE_CDC_CLASS_API != 0u)
 102:Generated_Source\PSoC5/USBUART_cdc.c ****     static uint16 USBUART_StrLen(const char8 string[]) ;
 103:Generated_Source\PSoC5/USBUART_cdc.c ****     static t_USBUART_cdc_notification USBUART_serialStateNotification =
 104:Generated_Source\PSoC5/USBUART_cdc.c ****     {
 105:Generated_Source\PSoC5/USBUART_cdc.c **** 
 106:Generated_Source\PSoC5/USBUART_cdc.c ****         USBUART_SERIAL_STATE_REQUEST_TYPE, /* bRequestType    */
 107:Generated_Source\PSoC5/USBUART_cdc.c ****         USBUART_SERIAL_STATE,              /* bNotification   */
 108:Generated_Source\PSoC5/USBUART_cdc.c ****         0u,                                         /* wValue          */
 109:Generated_Source\PSoC5/USBUART_cdc.c ****         0u,                                         /* wValueMSB       */
 110:Generated_Source\PSoC5/USBUART_cdc.c ****         0u,                                         /* wIndex          */
 111:Generated_Source\PSoC5/USBUART_cdc.c ****         0u,                                         /* wIndexMSB       */
 112:Generated_Source\PSoC5/USBUART_cdc.c ****         USBUART_SERIAL_STATE_LENGTH,       /* wLength         */
 113:Generated_Source\PSoC5/USBUART_cdc.c ****         0u,                                         /* wLengthMSB      */
 114:Generated_Source\PSoC5/USBUART_cdc.c ****         0u,                                         /* wSerialState    */
 115:Generated_Source\PSoC5/USBUART_cdc.c ****         0u,                                         /* wSerialStateMSB */
 116:Generated_Source\PSoC5/USBUART_cdc.c ****     };
 117:Generated_Source\PSoC5/USBUART_cdc.c ****     static uint8 USBUART_activeCom = 0u;
 118:Generated_Source\PSoC5/USBUART_cdc.c **** #endif /* (USBUART_ENABLE_CDC_CLASS_API != 0u) */
 119:Generated_Source\PSoC5/USBUART_cdc.c **** 
 120:Generated_Source\PSoC5/USBUART_cdc.c **** 
 121:Generated_Source\PSoC5/USBUART_cdc.c **** /***************************************
 122:Generated_Source\PSoC5/USBUART_cdc.c **** * Custom Declarations
 123:Generated_Source\PSoC5/USBUART_cdc.c **** ***************************************/
 124:Generated_Source\PSoC5/USBUART_cdc.c **** 
 125:Generated_Source\PSoC5/USBUART_cdc.c **** /* `#START CDC_CUSTOM_DECLARATIONS` Place your declaration here */
 126:Generated_Source\PSoC5/USBUART_cdc.c **** 
 127:Generated_Source\PSoC5/USBUART_cdc.c **** /* `#END` */
 128:Generated_Source\PSoC5/USBUART_cdc.c **** 
 129:Generated_Source\PSoC5/USBUART_cdc.c **** 
 130:Generated_Source\PSoC5/USBUART_cdc.c **** /*******************************************************************************
 131:Generated_Source\PSoC5/USBUART_cdc.c **** * Function Name: USBUART_DispatchCDCClassRqst
 132:Generated_Source\PSoC5/USBUART_cdc.c **** ****************************************************************************//**
 133:Generated_Source\PSoC5/USBUART_cdc.c **** *
 134:Generated_Source\PSoC5/USBUART_cdc.c **** *  This routine dispatches CDC class requests.
 135:Generated_Source\PSoC5/USBUART_cdc.c **** *
 136:Generated_Source\PSoC5/USBUART_cdc.c **** * \return
 137:Generated_Source\PSoC5/USBUART_cdc.c **** *  requestHandled
 138:Generated_Source\PSoC5/USBUART_cdc.c **** *
 139:Generated_Source\PSoC5/USBUART_cdc.c **** * \globalvars
 140:Generated_Source\PSoC5/USBUART_cdc.c **** *   USBUART_linesCoding: Contains the current line coding structure.
 141:Generated_Source\PSoC5/USBUART_cdc.c **** *     It is set by the Host using SET_LINE_CODING request and returned to the
 142:Generated_Source\PSoC5/USBUART_cdc.c **** *     user code by the USBFS_GetDTERate(), USBFS_GetCharFormat(),
 143:Generated_Source\PSoC5/USBUART_cdc.c **** *     USBFS_GetParityType(), USBFS_GetDataBits() APIs.
 144:Generated_Source\PSoC5/USBUART_cdc.c **** *   USBUART_linesControlBitmap: Contains the current control signal
 145:Generated_Source\PSoC5/USBUART_cdc.c **** *     bitmap. It is set by the Host using SET_CONTROL_LINE request and returned
ARM GAS  C:\Users\ingan\AppData\Local\Temp\ccoalNGJ.s 			page 4


 146:Generated_Source\PSoC5/USBUART_cdc.c **** *     to the user code by the USBFS_GetLineControl() API.
 147:Generated_Source\PSoC5/USBUART_cdc.c **** *   USBUART_linesChanged: This variable is used as a flag for the
 148:Generated_Source\PSoC5/USBUART_cdc.c **** *     USBFS_IsLineChanged() API, to be aware that Host has been sent request
 149:Generated_Source\PSoC5/USBUART_cdc.c **** *     for changing Line Coding or Control Bitmap.
 150:Generated_Source\PSoC5/USBUART_cdc.c **** *
 151:Generated_Source\PSoC5/USBUART_cdc.c **** * \reentrant
 152:Generated_Source\PSoC5/USBUART_cdc.c **** *  No.
 153:Generated_Source\PSoC5/USBUART_cdc.c **** *
 154:Generated_Source\PSoC5/USBUART_cdc.c **** *******************************************************************************/
 155:Generated_Source\PSoC5/USBUART_cdc.c **** uint8 USBUART_DispatchCDCClassRqst(void) 
 156:Generated_Source\PSoC5/USBUART_cdc.c **** {
 157:Generated_Source\PSoC5/USBUART_cdc.c ****     uint8 requestHandled = USBUART_FALSE;
 158:Generated_Source\PSoC5/USBUART_cdc.c ****     uint8 comPort;
 159:Generated_Source\PSoC5/USBUART_cdc.c **** 
 160:Generated_Source\PSoC5/USBUART_cdc.c ****     comPort = USBUART_GetInterfaceComPort((uint8)USBUART_wIndexLoReg);
 161:Generated_Source\PSoC5/USBUART_cdc.c **** 
 162:Generated_Source\PSoC5/USBUART_cdc.c ****     /* Check request direction: D2H or H2D. */
 163:Generated_Source\PSoC5/USBUART_cdc.c ****     if (0u != (USBUART_bmRequestTypeReg & USBUART_RQST_DIR_D2H))
 164:Generated_Source\PSoC5/USBUART_cdc.c ****     {
 165:Generated_Source\PSoC5/USBUART_cdc.c ****         /* Handle direction from device to host. */
 166:Generated_Source\PSoC5/USBUART_cdc.c **** 
 167:Generated_Source\PSoC5/USBUART_cdc.c ****         switch (USBUART_bRequestReg)
 168:Generated_Source\PSoC5/USBUART_cdc.c ****         {
 169:Generated_Source\PSoC5/USBUART_cdc.c ****             case USBUART_CDC_GET_LINE_CODING:
 170:Generated_Source\PSoC5/USBUART_cdc.c ****                 USBUART_currentTD.count = USBUART_LINE_CODING_SIZE;
 171:Generated_Source\PSoC5/USBUART_cdc.c ****                 USBUART_currentTD.pData = USBUART_linesCoding[comPort];
 172:Generated_Source\PSoC5/USBUART_cdc.c ****                 requestHandled  = USBUART_InitControlRead();
 173:Generated_Source\PSoC5/USBUART_cdc.c ****                 break;
 174:Generated_Source\PSoC5/USBUART_cdc.c **** 
 175:Generated_Source\PSoC5/USBUART_cdc.c ****             /* `#START CDC_READ_REQUESTS` Place other request handler here */
 176:Generated_Source\PSoC5/USBUART_cdc.c **** 
 177:Generated_Source\PSoC5/USBUART_cdc.c ****             /* `#END` */
 178:Generated_Source\PSoC5/USBUART_cdc.c **** 
 179:Generated_Source\PSoC5/USBUART_cdc.c ****             default:
 180:Generated_Source\PSoC5/USBUART_cdc.c ****             /* Do not handle this request unless callback is defined. */
 181:Generated_Source\PSoC5/USBUART_cdc.c ****             #ifdef USBUART_DISPATCH_CDC_CLASS_CDC_READ_REQUESTS_CALLBACK
 182:Generated_Source\PSoC5/USBUART_cdc.c ****                 requestHandled = USBUART_DispatchCDCClass_CDC_READ_REQUESTS_Callback();
 183:Generated_Source\PSoC5/USBUART_cdc.c ****             #endif /* (USBUART_DISPATCH_CDC_CLASS_CDC_READ_REQUESTS_CALLBACK) */
 184:Generated_Source\PSoC5/USBUART_cdc.c ****                 break;
 185:Generated_Source\PSoC5/USBUART_cdc.c ****         }
 186:Generated_Source\PSoC5/USBUART_cdc.c ****     }
 187:Generated_Source\PSoC5/USBUART_cdc.c ****     else
 188:Generated_Source\PSoC5/USBUART_cdc.c ****     {
 189:Generated_Source\PSoC5/USBUART_cdc.c ****         /* Handle direction from host to device. */
 190:Generated_Source\PSoC5/USBUART_cdc.c **** 
 191:Generated_Source\PSoC5/USBUART_cdc.c ****         switch (USBUART_bRequestReg)
 192:Generated_Source\PSoC5/USBUART_cdc.c ****         {
 193:Generated_Source\PSoC5/USBUART_cdc.c ****             case USBUART_CDC_SET_LINE_CODING:
 194:Generated_Source\PSoC5/USBUART_cdc.c ****                 USBUART_currentTD.count  = USBUART_LINE_CODING_SIZE;
 195:Generated_Source\PSoC5/USBUART_cdc.c ****                 USBUART_currentTD.pData  = USBUART_linesCoding[comPort];
 196:Generated_Source\PSoC5/USBUART_cdc.c ****                 USBUART_linesChanged[comPort] |= USBUART_LINE_CODING_CHANGED;
 197:Generated_Source\PSoC5/USBUART_cdc.c **** 
 198:Generated_Source\PSoC5/USBUART_cdc.c ****                 requestHandled = USBUART_InitControlWrite();
 199:Generated_Source\PSoC5/USBUART_cdc.c ****                 break;
 200:Generated_Source\PSoC5/USBUART_cdc.c **** 
 201:Generated_Source\PSoC5/USBUART_cdc.c ****             case USBUART_CDC_SET_CONTROL_LINE_STATE:
 202:Generated_Source\PSoC5/USBUART_cdc.c ****                 USBUART_linesControlBitmap[comPort] = (uint8) USBUART_wValueLoReg;
ARM GAS  C:\Users\ingan\AppData\Local\Temp\ccoalNGJ.s 			page 5


 203:Generated_Source\PSoC5/USBUART_cdc.c ****                 USBUART_linesChanged[comPort]      |= USBUART_LINE_CONTROL_CHANGED;
 204:Generated_Source\PSoC5/USBUART_cdc.c **** 
 205:Generated_Source\PSoC5/USBUART_cdc.c ****                 requestHandled = USBUART_InitNoDataControlTransfer();
 206:Generated_Source\PSoC5/USBUART_cdc.c ****                 break;
 207:Generated_Source\PSoC5/USBUART_cdc.c **** 
 208:Generated_Source\PSoC5/USBUART_cdc.c ****             /* `#START CDC_WRITE_REQUESTS` Place other request handler here */
 209:Generated_Source\PSoC5/USBUART_cdc.c **** 
 210:Generated_Source\PSoC5/USBUART_cdc.c ****             /* `#END` */
 211:Generated_Source\PSoC5/USBUART_cdc.c **** 
 212:Generated_Source\PSoC5/USBUART_cdc.c ****             default:
 213:Generated_Source\PSoC5/USBUART_cdc.c ****                 /* Do not handle this request unless callback is defined. */
 214:Generated_Source\PSoC5/USBUART_cdc.c ****             #ifdef USBUART_DISPATCH_CDC_CLASS_CDC_WRITE_REQUESTS_CALLBACK
 215:Generated_Source\PSoC5/USBUART_cdc.c ****                 requestHandled = USBUART_DispatchCDCClass_CDC_WRITE_REQUESTS_Callback();
 216:Generated_Source\PSoC5/USBUART_cdc.c ****             #endif /* (USBUART_DISPATCH_CDC_CLASS_CDC_WRITE_REQUESTS_CALLBACK) */
 217:Generated_Source\PSoC5/USBUART_cdc.c ****                 break;
 218:Generated_Source\PSoC5/USBUART_cdc.c ****         }
 219:Generated_Source\PSoC5/USBUART_cdc.c ****     }
 220:Generated_Source\PSoC5/USBUART_cdc.c **** 
 221:Generated_Source\PSoC5/USBUART_cdc.c ****     return(requestHandled);
 222:Generated_Source\PSoC5/USBUART_cdc.c **** }
 223:Generated_Source\PSoC5/USBUART_cdc.c **** 
 224:Generated_Source\PSoC5/USBUART_cdc.c **** 
 225:Generated_Source\PSoC5/USBUART_cdc.c **** /***************************************************************************
 226:Generated_Source\PSoC5/USBUART_cdc.c **** * Function Name: USBUART_GetInterfaceComPort
 227:Generated_Source\PSoC5/USBUART_cdc.c **** ************************************************************************//**
 228:Generated_Source\PSoC5/USBUART_cdc.c **** *   \internal
 229:Generated_Source\PSoC5/USBUART_cdc.c **** *  Internal function which gets number of COM port by specified interface
 230:Generated_Source\PSoC5/USBUART_cdc.c **** *   number.
 231:Generated_Source\PSoC5/USBUART_cdc.c **** *
 232:Generated_Source\PSoC5/USBUART_cdc.c **** * \param uint8 interface
 233:Generated_Source\PSoC5/USBUART_cdc.c **** *  Interface number
 234:Generated_Source\PSoC5/USBUART_cdc.c **** *
 235:Generated_Source\PSoC5/USBUART_cdc.c **** * \return
 236:Generated_Source\PSoC5/USBUART_cdc.c **** *  COM port number (0 or 1) or error 0xFF
 237:Generated_Source\PSoC5/USBUART_cdc.c **** *
 238:Generated_Source\PSoC5/USBUART_cdc.c **** ***************************************************************************/
 239:Generated_Source\PSoC5/USBUART_cdc.c **** uint8 USBUART_GetInterfaceComPort(uint8 interface) 
 240:Generated_Source\PSoC5/USBUART_cdc.c **** {
 241:Generated_Source\PSoC5/USBUART_cdc.c ****     uint8 comPort = 0u;
 242:Generated_Source\PSoC5/USBUART_cdc.c ****     uint8 res = 0xFFu;
 243:Generated_Source\PSoC5/USBUART_cdc.c ****     uint8 notEp;
 244:Generated_Source\PSoC5/USBUART_cdc.c **** 
 245:Generated_Source\PSoC5/USBUART_cdc.c ****     while (comPort < USBUART_MAX_MULTI_COM_NUM)
 246:Generated_Source\PSoC5/USBUART_cdc.c ****     {
 247:Generated_Source\PSoC5/USBUART_cdc.c ****         notEp = USBUART_cdcCommInInterruptEp[comPort];
 248:Generated_Source\PSoC5/USBUART_cdc.c **** 
 249:Generated_Source\PSoC5/USBUART_cdc.c ****         if (USBUART_EP[notEp].interface == interface)
 250:Generated_Source\PSoC5/USBUART_cdc.c ****         {
 251:Generated_Source\PSoC5/USBUART_cdc.c ****             res = comPort;
 252:Generated_Source\PSoC5/USBUART_cdc.c ****             comPort = USBUART_MAX_MULTI_COM_NUM;
 253:Generated_Source\PSoC5/USBUART_cdc.c ****         }
 254:Generated_Source\PSoC5/USBUART_cdc.c **** 
 255:Generated_Source\PSoC5/USBUART_cdc.c ****         comPort++;
 256:Generated_Source\PSoC5/USBUART_cdc.c ****     }
 257:Generated_Source\PSoC5/USBUART_cdc.c ****     return (res);
 258:Generated_Source\PSoC5/USBUART_cdc.c **** }
 259:Generated_Source\PSoC5/USBUART_cdc.c **** 
ARM GAS  C:\Users\ingan\AppData\Local\Temp\ccoalNGJ.s 			page 6


 260:Generated_Source\PSoC5/USBUART_cdc.c **** 
 261:Generated_Source\PSoC5/USBUART_cdc.c **** /***************************************
 262:Generated_Source\PSoC5/USBUART_cdc.c **** * Optional CDC APIs
 263:Generated_Source\PSoC5/USBUART_cdc.c **** ***************************************/
 264:Generated_Source\PSoC5/USBUART_cdc.c **** #if (USBUART_ENABLE_CDC_CLASS_API != 0u)
 265:Generated_Source\PSoC5/USBUART_cdc.c **** /***************************************************************************
 266:Generated_Source\PSoC5/USBUART_cdc.c **** * Function Name: USBUART_CDC_Init
 267:Generated_Source\PSoC5/USBUART_cdc.c **** ************************************************************************//**
 268:Generated_Source\PSoC5/USBUART_cdc.c **** *
 269:Generated_Source\PSoC5/USBUART_cdc.c **** *  This function initializes the CDC interface to be ready to receive data
 270:Generated_Source\PSoC5/USBUART_cdc.c **** *  from the PC. The API set active communication port to 0 in the case of 
 271:Generated_Source\PSoC5/USBUART_cdc.c **** *  multiple communication port support.This API should be called after the 
 272:Generated_Source\PSoC5/USBUART_cdc.c **** *  device has been started and configured using USBUART_Start() API to 
 273:Generated_Source\PSoC5/USBUART_cdc.c **** *  initialize and start the USBFS component operation. Then call the 
 274:Generated_Source\PSoC5/USBUART_cdc.c **** *  USBUART_GetConfiguration() API to wait until the host has enumerated and 
 275:Generated_Source\PSoC5/USBUART_cdc.c **** *  configured the device. For example:
 276:Generated_Source\PSoC5/USBUART_cdc.c **** *
 277:Generated_Source\PSoC5/USBUART_cdc.c **** *  \snippet /USBFS_sut_02.cydsn/main.c wait for enumeration
 278:Generated_Source\PSoC5/USBUART_cdc.c **** *
 279:Generated_Source\PSoC5/USBUART_cdc.c **** * \return
 280:Generated_Source\PSoC5/USBUART_cdc.c **** *  cystatus:
 281:Generated_Source\PSoC5/USBUART_cdc.c **** *   Return Value    Description
 282:Generated_Source\PSoC5/USBUART_cdc.c **** *   USBUART_SUCCESS   CDC interface was initialized correctly
 283:Generated_Source\PSoC5/USBUART_cdc.c **** *   USBUART_FAILURE   CDC interface was not initialized
 284:Generated_Source\PSoC5/USBUART_cdc.c **** *
 285:Generated_Source\PSoC5/USBUART_cdc.c **** * \globalvars
 286:Generated_Source\PSoC5/USBUART_cdc.c **** *   USBUART_linesChanged: Initialized to zero.
 287:Generated_Source\PSoC5/USBUART_cdc.c **** *   USBUART_cdcDataOutEp: Used as an OUT endpoint number.
 288:Generated_Source\PSoC5/USBUART_cdc.c **** *
 289:Generated_Source\PSoC5/USBUART_cdc.c **** * \reentrant
 290:Generated_Source\PSoC5/USBUART_cdc.c **** *  No.
 291:Generated_Source\PSoC5/USBUART_cdc.c **** *
 292:Generated_Source\PSoC5/USBUART_cdc.c **** *******************************************************************************/
 293:Generated_Source\PSoC5/USBUART_cdc.c **** uint8 USBUART_CDC_Init(void) 
 294:Generated_Source\PSoC5/USBUART_cdc.c **** {
 295:Generated_Source\PSoC5/USBUART_cdc.c ****     uint8 comPort;
 296:Generated_Source\PSoC5/USBUART_cdc.c ****     uint8 outEp;
 297:Generated_Source\PSoC5/USBUART_cdc.c ****     uint8 ret = USBUART_SUCCESS;
 298:Generated_Source\PSoC5/USBUART_cdc.c **** 
 299:Generated_Source\PSoC5/USBUART_cdc.c ****     USBUART_activeCom = 0u;
 300:Generated_Source\PSoC5/USBUART_cdc.c ****     USBUART_linesChanged[USBUART_COM_PORT1] = 0u;
 301:Generated_Source\PSoC5/USBUART_cdc.c ****     USBUART_linesChanged[USBUART_COM_PORT2] = 0u;
 302:Generated_Source\PSoC5/USBUART_cdc.c **** 
 303:Generated_Source\PSoC5/USBUART_cdc.c ****     for(comPort = 0u; comPort<USBUART_MAX_MULTI_COM_NUM; comPort++)
 304:Generated_Source\PSoC5/USBUART_cdc.c ****     {
 305:Generated_Source\PSoC5/USBUART_cdc.c ****         outEp = USBUART_cdcDataOutEp[comPort];
 306:Generated_Source\PSoC5/USBUART_cdc.c ****         if((0u != outEp) && (USBUART_MAX_EP > outEp))
 307:Generated_Source\PSoC5/USBUART_cdc.c ****         {
 308:Generated_Source\PSoC5/USBUART_cdc.c ****             USBUART_EnableOutEP(outEp);
 309:Generated_Source\PSoC5/USBUART_cdc.c ****         }
 310:Generated_Source\PSoC5/USBUART_cdc.c **** 
 311:Generated_Source\PSoC5/USBUART_cdc.c ****     }
 312:Generated_Source\PSoC5/USBUART_cdc.c **** 
 313:Generated_Source\PSoC5/USBUART_cdc.c ****     /* COM Port 1 should be correct to proceed. */
 314:Generated_Source\PSoC5/USBUART_cdc.c ****     if ((0u == USBUART_cdcDataInEp[USBUART_COM_PORT1]) \
 315:Generated_Source\PSoC5/USBUART_cdc.c ****             || (0u == USBUART_cdcDataOutEp[USBUART_COM_PORT1]) \
 316:Generated_Source\PSoC5/USBUART_cdc.c ****             || (0u ==  USBUART_cdcCommInInterruptEp[USBUART_COM_PORT1])
ARM GAS  C:\Users\ingan\AppData\Local\Temp\ccoalNGJ.s 			page 7


 317:Generated_Source\PSoC5/USBUART_cdc.c ****             || (USBUART_cdcDataInEp[USBUART_COM_PORT1] >= USBUART_MAX_EP)
 318:Generated_Source\PSoC5/USBUART_cdc.c ****             || (USBUART_cdcDataOutEp[USBUART_COM_PORT1] >= USBUART_MAX_EP)
 319:Generated_Source\PSoC5/USBUART_cdc.c ****             || (USBUART_cdcCommInInterruptEp[USBUART_COM_PORT1] >= USBUART_MAX_EP))
 320:Generated_Source\PSoC5/USBUART_cdc.c ****     {
 321:Generated_Source\PSoC5/USBUART_cdc.c ****         ret = USBUART_FAILURE;
 322:Generated_Source\PSoC5/USBUART_cdc.c ****     }
 323:Generated_Source\PSoC5/USBUART_cdc.c **** 
 324:Generated_Source\PSoC5/USBUART_cdc.c ****     return (ret);
 325:Generated_Source\PSoC5/USBUART_cdc.c **** }
 326:Generated_Source\PSoC5/USBUART_cdc.c **** 
 327:Generated_Source\PSoC5/USBUART_cdc.c **** 
 328:Generated_Source\PSoC5/USBUART_cdc.c **** /*******************************************************************************
 329:Generated_Source\PSoC5/USBUART_cdc.c **** * Function Name: USBUART_PutData
 330:Generated_Source\PSoC5/USBUART_cdc.c **** ****************************************************************************//**
 331:Generated_Source\PSoC5/USBUART_cdc.c **** *
 332:Generated_Source\PSoC5/USBUART_cdc.c **** *  This function sends a specified number of bytes from the location specified
 333:Generated_Source\PSoC5/USBUART_cdc.c **** *  by a pointer to the PC. The USBUART_CDCIsReady() function should be
 334:Generated_Source\PSoC5/USBUART_cdc.c **** *  called before sending new data, to be sure that the previous data has
 335:Generated_Source\PSoC5/USBUART_cdc.c **** *  finished sending.
 336:Generated_Source\PSoC5/USBUART_cdc.c **** *  If the last sent packet is less than maximum packet size the USB transfer
 337:Generated_Source\PSoC5/USBUART_cdc.c **** *  of this short packet will identify the end of the segment. If the last sent
 338:Generated_Source\PSoC5/USBUART_cdc.c **** *  packet is exactly maximum packet size, it shall be followed by a zero-length
 339:Generated_Source\PSoC5/USBUART_cdc.c **** *  packet (which is a short packet) to assure the end of segment is properly
 340:Generated_Source\PSoC5/USBUART_cdc.c **** *  identified. To send zero-length packet, use USBUART_PutData() API
 341:Generated_Source\PSoC5/USBUART_cdc.c **** *  with length parameter set to zero.
 342:Generated_Source\PSoC5/USBUART_cdc.c **** *
 343:Generated_Source\PSoC5/USBUART_cdc.c **** *  \param pData: pointer to the buffer containing data to be sent.
 344:Generated_Source\PSoC5/USBUART_cdc.c **** *  \param length: Specifies the number of bytes to send from the pData
 345:Generated_Source\PSoC5/USBUART_cdc.c **** *  buffer. Maximum length will be limited by the maximum packet
 346:Generated_Source\PSoC5/USBUART_cdc.c **** *  size for the endpoint. Data will be lost if length is greater than Max
 347:Generated_Source\PSoC5/USBUART_cdc.c **** *  Packet Size.
 348:Generated_Source\PSoC5/USBUART_cdc.c **** *
 349:Generated_Source\PSoC5/USBUART_cdc.c **** * \globalvars
 350:Generated_Source\PSoC5/USBUART_cdc.c **** *
 351:Generated_Source\PSoC5/USBUART_cdc.c **** *   USBUART_cdcDataInEp: CDC IN endpoint number used for sending
 352:Generated_Source\PSoC5/USBUART_cdc.c **** *     data.
 353:Generated_Source\PSoC5/USBUART_cdc.c **** *
 354:Generated_Source\PSoC5/USBUART_cdc.c **** * \reentrant
 355:Generated_Source\PSoC5/USBUART_cdc.c **** *  No.
 356:Generated_Source\PSoC5/USBUART_cdc.c **** *
 357:Generated_Source\PSoC5/USBUART_cdc.c **** *******************************************************************************/
 358:Generated_Source\PSoC5/USBUART_cdc.c **** void USBUART_PutData(const uint8* pData, uint16 length) 
 359:Generated_Source\PSoC5/USBUART_cdc.c **** {
 360:Generated_Source\PSoC5/USBUART_cdc.c ****     uint8 epNumber = USBUART_cdcDataInEp[USBUART_activeCom];
 361:Generated_Source\PSoC5/USBUART_cdc.c **** 
 362:Generated_Source\PSoC5/USBUART_cdc.c ****     /* Limit length to maximum packet size for endpoint. */
 363:Generated_Source\PSoC5/USBUART_cdc.c ****     if (length > USBUART_EP[epNumber].bufferSize)
 364:Generated_Source\PSoC5/USBUART_cdc.c ****     {
 365:Generated_Source\PSoC5/USBUART_cdc.c ****         /* Caution: Data will be lost if length is greater than Max Packet Size. */
 366:Generated_Source\PSoC5/USBUART_cdc.c ****         length = USBUART_EP[epNumber].bufferSize;
 367:Generated_Source\PSoC5/USBUART_cdc.c **** 
 368:Generated_Source\PSoC5/USBUART_cdc.c ****         /* Halt CPU in debug mode */
 369:Generated_Source\PSoC5/USBUART_cdc.c ****         CYASSERT(0u != 0u);
 370:Generated_Source\PSoC5/USBUART_cdc.c ****     }
 371:Generated_Source\PSoC5/USBUART_cdc.c **** 
 372:Generated_Source\PSoC5/USBUART_cdc.c ****     USBUART_LoadInEP(epNumber, pData, length);
 373:Generated_Source\PSoC5/USBUART_cdc.c **** }
ARM GAS  C:\Users\ingan\AppData\Local\Temp\ccoalNGJ.s 			page 8


 374:Generated_Source\PSoC5/USBUART_cdc.c **** 
 375:Generated_Source\PSoC5/USBUART_cdc.c **** 
 376:Generated_Source\PSoC5/USBUART_cdc.c **** /*******************************************************************************
 377:Generated_Source\PSoC5/USBUART_cdc.c **** * Function Name: USBUART_StrLen
 378:Generated_Source\PSoC5/USBUART_cdc.c **** ****************************************************************************//**
 379:Generated_Source\PSoC5/USBUART_cdc.c **** *
 380:Generated_Source\PSoC5/USBUART_cdc.c **** *  Calculates length of a null terminated string.
 381:Generated_Source\PSoC5/USBUART_cdc.c **** *
 382:Generated_Source\PSoC5/USBUART_cdc.c **** *  \param string: pointer to the string.
 383:Generated_Source\PSoC5/USBUART_cdc.c **** *
 384:Generated_Source\PSoC5/USBUART_cdc.c **** * \return
 385:Generated_Source\PSoC5/USBUART_cdc.c **** *  Length of the string
 386:Generated_Source\PSoC5/USBUART_cdc.c **** *
 387:Generated_Source\PSoC5/USBUART_cdc.c **** *******************************************************************************/
 388:Generated_Source\PSoC5/USBUART_cdc.c **** static uint16 USBUART_StrLen(const char8 string[]) 
 389:Generated_Source\PSoC5/USBUART_cdc.c **** {
  27              		.loc 1 389 0
  28              		.cfi_startproc
  29              		@ args = 0, pretend = 0, frame = 0
  30              		@ frame_needed = 0, uses_anonymous_args = 0
  31              		@ link register save eliminated.
  32              	.LVL0:
  33 0000 0246     		mov	r2, r0
  34              	.LVL1:
 390:Generated_Source\PSoC5/USBUART_cdc.c ****     uint16 len = 0u;
  35              		.loc 1 390 0
  36 0002 0020     		movs	r0, #0
  37              	.LVL2:
 391:Generated_Source\PSoC5/USBUART_cdc.c **** 
 392:Generated_Source\PSoC5/USBUART_cdc.c ****     while (string[len] != (char8)0)
  38              		.loc 1 392 0
  39 0004 01E0     		b	.L2
  40              	.LVL3:
  41              	.L3:
 393:Generated_Source\PSoC5/USBUART_cdc.c ****     {
 394:Generated_Source\PSoC5/USBUART_cdc.c ****         len++;
  42              		.loc 1 394 0
  43 0006 0130     		adds	r0, r0, #1
  44              	.LVL4:
  45 0008 80B2     		uxth	r0, r0
  46              	.LVL5:
  47              	.L2:
 392:Generated_Source\PSoC5/USBUART_cdc.c ****     {
  48              		.loc 1 392 0
  49 000a 135C     		ldrb	r3, [r2, r0]	@ zero_extendqisi2
  50 000c 002B     		cmp	r3, #0
  51 000e FAD1     		bne	.L3
 395:Generated_Source\PSoC5/USBUART_cdc.c ****     }
 396:Generated_Source\PSoC5/USBUART_cdc.c **** 
 397:Generated_Source\PSoC5/USBUART_cdc.c ****     return ((uint16) len);
 398:Generated_Source\PSoC5/USBUART_cdc.c **** }
  52              		.loc 1 398 0
  53 0010 7047     		bx	lr
  54              		.cfi_endproc
  55              	.LFE4:
  56              		.size	USBUART_StrLen, .-USBUART_StrLen
  57 0012 00BF     		.section	.text.USBUART_GetInterfaceComPort,"ax",%progbits
ARM GAS  C:\Users\ingan\AppData\Local\Temp\ccoalNGJ.s 			page 9


  58              		.align	2
  59              		.global	USBUART_GetInterfaceComPort
  60              		.thumb
  61              		.thumb_func
  62              		.type	USBUART_GetInterfaceComPort, %function
  63              	USBUART_GetInterfaceComPort:
  64              	.LFB1:
 240:Generated_Source\PSoC5/USBUART_cdc.c ****     uint8 comPort = 0u;
  65              		.loc 1 240 0
  66              		.cfi_startproc
  67              		@ args = 0, pretend = 0, frame = 0
  68              		@ frame_needed = 0, uses_anonymous_args = 0
  69              		@ link register save eliminated.
  70              	.LVL6:
  71 0000 10B4     		push	{r4}
  72              		.cfi_def_cfa_offset 4
  73              		.cfi_offset 4, -4
  74              	.LVL7:
 242:Generated_Source\PSoC5/USBUART_cdc.c ****     uint8 notEp;
  75              		.loc 1 242 0
  76 0002 FF24     		movs	r4, #255
 241:Generated_Source\PSoC5/USBUART_cdc.c ****     uint8 res = 0xFFu;
  77              		.loc 1 241 0
  78 0004 0023     		movs	r3, #0
 245:Generated_Source\PSoC5/USBUART_cdc.c ****     {
  79              		.loc 1 245 0
  80 0006 0EE0     		b	.L5
  81              	.LVL8:
  82              	.L7:
 247:Generated_Source\PSoC5/USBUART_cdc.c **** 
  83              		.loc 1 247 0
  84 0008 094A     		ldr	r2, .L10
  85 000a D25C     		ldrb	r2, [r2, r3]	@ zero_extendqisi2
  86              	.LVL9:
 249:Generated_Source\PSoC5/USBUART_cdc.c ****         {
  87              		.loc 1 249 0
  88 000c 02EB4202 		add	r2, r2, r2, lsl #1
  89              	.LVL10:
  90 0010 9100     		lsls	r1, r2, #2
  91 0012 084A     		ldr	r2, .L10+4
  92 0014 1144     		add	r1, r1, r2
  93 0016 8A7A     		ldrb	r2, [r1, #10]	@ zero_extendqisi2
  94 0018 D2B2     		uxtb	r2, r2
  95 001a 8242     		cmp	r2, r0
  96 001c 01D1     		bne	.L6
 251:Generated_Source\PSoC5/USBUART_cdc.c ****             comPort = USBUART_MAX_MULTI_COM_NUM;
  97              		.loc 1 251 0
  98 001e 1C46     		mov	r4, r3
  99              	.LVL11:
 252:Generated_Source\PSoC5/USBUART_cdc.c ****         }
 100              		.loc 1 252 0
 101 0020 0223     		movs	r3, #2
 102              	.LVL12:
 103              	.L6:
 255:Generated_Source\PSoC5/USBUART_cdc.c ****     }
 104              		.loc 1 255 0
 105 0022 0133     		adds	r3, r3, #1
ARM GAS  C:\Users\ingan\AppData\Local\Temp\ccoalNGJ.s 			page 10


 106              	.LVL13:
 107 0024 DBB2     		uxtb	r3, r3
 108              	.LVL14:
 109              	.L5:
 245:Generated_Source\PSoC5/USBUART_cdc.c ****     {
 110              		.loc 1 245 0
 111 0026 012B     		cmp	r3, #1
 112 0028 EED9     		bls	.L7
 258:Generated_Source\PSoC5/USBUART_cdc.c **** 
 113              		.loc 1 258 0
 114 002a 2046     		mov	r0, r4
 115              	.LVL15:
 116 002c 10BC     		pop	{r4}
 117              		.cfi_restore 4
 118              		.cfi_def_cfa_offset 0
 119              	.LVL16:
 120 002e 7047     		bx	lr
 121              	.L11:
 122              		.align	2
 123              	.L10:
 124 0030 00000000 		.word	USBUART_cdcCommInInterruptEp
 125 0034 00000000 		.word	USBUART_EP
 126              		.cfi_endproc
 127              	.LFE1:
 128              		.size	USBUART_GetInterfaceComPort, .-USBUART_GetInterfaceComPort
 129              		.section	.text.USBUART_DispatchCDCClassRqst,"ax",%progbits
 130              		.align	2
 131              		.global	USBUART_DispatchCDCClassRqst
 132              		.thumb
 133              		.thumb_func
 134              		.type	USBUART_DispatchCDCClassRqst, %function
 135              	USBUART_DispatchCDCClassRqst:
 136              	.LFB0:
 156:Generated_Source\PSoC5/USBUART_cdc.c ****     uint8 requestHandled = USBUART_FALSE;
 137              		.loc 1 156 0
 138              		.cfi_startproc
 139              		@ args = 0, pretend = 0, frame = 0
 140              		@ frame_needed = 0, uses_anonymous_args = 0
 141 0000 10B5     		push	{r4, lr}
 142              		.cfi_def_cfa_offset 8
 143              		.cfi_offset 4, -8
 144              		.cfi_offset 14, -4
 145              	.LVL17:
 160:Generated_Source\PSoC5/USBUART_cdc.c **** 
 146              		.loc 1 160 0
 147 0002 204C     		ldr	r4, .L23
 148 0004 2079     		ldrb	r0, [r4, #4]	@ zero_extendqisi2
 149 0006 FFF7FEFF 		bl	USBUART_GetInterfaceComPort
 150              	.LVL18:
 163:Generated_Source\PSoC5/USBUART_cdc.c ****     {
 151              		.loc 1 163 0
 152 000a 2378     		ldrb	r3, [r4]	@ zero_extendqisi2
 153 000c 13F0800F 		tst	r3, #128
 154 0010 0ED0     		beq	.L13
 167:Generated_Source\PSoC5/USBUART_cdc.c ****         {
 155              		.loc 1 167 0
 156 0012 6378     		ldrb	r3, [r4, #1]	@ zero_extendqisi2
ARM GAS  C:\Users\ingan\AppData\Local\Temp\ccoalNGJ.s 			page 11


 157 0014 DBB2     		uxtb	r3, r3
 158 0016 212B     		cmp	r3, #33
 159 0018 2FD1     		bne	.L20
 170:Generated_Source\PSoC5/USBUART_cdc.c ****                 USBUART_currentTD.pData = USBUART_linesCoding[comPort];
 160              		.loc 1 170 0
 161 001a 1B4B     		ldr	r3, .L23+4
 162 001c 0722     		movs	r2, #7
 163 001e 1A80     		strh	r2, [r3]	@ movhi
 171:Generated_Source\PSoC5/USBUART_cdc.c ****                 requestHandled  = USBUART_InitControlRead();
 164              		.loc 1 171 0
 165 0020 C0EBC000 		rsb	r0, r0, r0, lsl #3
 166              	.LVL19:
 167 0024 194A     		ldr	r2, .L23+8
 168 0026 1044     		add	r0, r0, r2
 169 0028 5860     		str	r0, [r3, #4]
 172:Generated_Source\PSoC5/USBUART_cdc.c ****                 break;
 170              		.loc 1 172 0
 171 002a FFF7FEFF 		bl	USBUART_InitControlRead
 172              	.LVL20:
 173:Generated_Source\PSoC5/USBUART_cdc.c **** 
 173              		.loc 1 173 0
 174 002e 10BD     		pop	{r4, pc}
 175              	.LVL21:
 176              	.L13:
 191:Generated_Source\PSoC5/USBUART_cdc.c ****         {
 177              		.loc 1 191 0
 178 0030 144B     		ldr	r3, .L23
 179 0032 5B78     		ldrb	r3, [r3, #1]	@ zero_extendqisi2
 180 0034 DBB2     		uxtb	r3, r3
 181 0036 202B     		cmp	r3, #32
 182 0038 02D0     		beq	.L16
 183 003a 222B     		cmp	r3, #34
 184 003c 10D0     		beq	.L17
 185 003e 1EE0     		b	.L21
 186              	.L16:
 194:Generated_Source\PSoC5/USBUART_cdc.c ****                 USBUART_currentTD.pData  = USBUART_linesCoding[comPort];
 187              		.loc 1 194 0
 188 0040 114A     		ldr	r2, .L23+4
 189 0042 0723     		movs	r3, #7
 190 0044 1380     		strh	r3, [r2]	@ movhi
 195:Generated_Source\PSoC5/USBUART_cdc.c ****                 USBUART_linesChanged[comPort] |= USBUART_LINE_CODING_CHANGED;
 191              		.loc 1 195 0
 192 0046 C0EBC003 		rsb	r3, r0, r0, lsl #3
 193 004a 1049     		ldr	r1, .L23+8
 194 004c 0B44     		add	r3, r3, r1
 195 004e 5360     		str	r3, [r2, #4]
 196:Generated_Source\PSoC5/USBUART_cdc.c **** 
 196              		.loc 1 196 0
 197 0050 0F4A     		ldr	r2, .L23+12
 198 0052 135C     		ldrb	r3, [r2, r0]	@ zero_extendqisi2
 199 0054 43F00103 		orr	r3, r3, #1
 200 0058 1354     		strb	r3, [r2, r0]
 198:Generated_Source\PSoC5/USBUART_cdc.c ****                 break;
 201              		.loc 1 198 0
 202 005a FFF7FEFF 		bl	USBUART_InitControlWrite
 203              	.LVL22:
 199:Generated_Source\PSoC5/USBUART_cdc.c **** 
ARM GAS  C:\Users\ingan\AppData\Local\Temp\ccoalNGJ.s 			page 12


 204              		.loc 1 199 0
 205 005e 10BD     		pop	{r4, pc}
 206              	.LVL23:
 207              	.L17:
 202:Generated_Source\PSoC5/USBUART_cdc.c ****                 USBUART_linesChanged[comPort]      |= USBUART_LINE_CONTROL_CHANGED;
 208              		.loc 1 202 0
 209 0060 084B     		ldr	r3, .L23
 210 0062 9B78     		ldrb	r3, [r3, #2]	@ zero_extendqisi2
 211 0064 0B4A     		ldr	r2, .L23+16
 212 0066 22F81030 		strh	r3, [r2, r0, lsl #1]	@ movhi
 203:Generated_Source\PSoC5/USBUART_cdc.c **** 
 213              		.loc 1 203 0
 214 006a 094A     		ldr	r2, .L23+12
 215 006c 135C     		ldrb	r3, [r2, r0]	@ zero_extendqisi2
 216 006e 43F00203 		orr	r3, r3, #2
 217 0072 1354     		strb	r3, [r2, r0]
 205:Generated_Source\PSoC5/USBUART_cdc.c ****                 break;
 218              		.loc 1 205 0
 219 0074 FFF7FEFF 		bl	USBUART_InitNoDataControlTransfer
 220              	.LVL24:
 206:Generated_Source\PSoC5/USBUART_cdc.c **** 
 221              		.loc 1 206 0
 222 0078 10BD     		pop	{r4, pc}
 223              	.LVL25:
 224              	.L20:
 157:Generated_Source\PSoC5/USBUART_cdc.c ****     uint8 comPort;
 225              		.loc 1 157 0
 226 007a 0020     		movs	r0, #0
 227              	.LVL26:
 228 007c 10BD     		pop	{r4, pc}
 229              	.LVL27:
 230              	.L21:
 231 007e 0020     		movs	r0, #0
 232              	.LVL28:
 222:Generated_Source\PSoC5/USBUART_cdc.c **** 
 233              		.loc 1 222 0
 234 0080 10BD     		pop	{r4, pc}
 235              	.L24:
 236 0082 00BF     		.align	2
 237              	.L23:
 238 0084 00600040 		.word	1073766400
 239 0088 00000000 		.word	USBUART_currentTD
 240 008c 00000000 		.word	.LANCHOR0
 241 0090 00000000 		.word	USBUART_linesChanged
 242 0094 00000000 		.word	USBUART_linesControlBitmap
 243              		.cfi_endproc
 244              	.LFE0:
 245              		.size	USBUART_DispatchCDCClassRqst, .-USBUART_DispatchCDCClassRqst
 246              		.section	.text.USBUART_CDC_Init,"ax",%progbits
 247              		.align	2
 248              		.global	USBUART_CDC_Init
 249              		.thumb
 250              		.thumb_func
 251              		.type	USBUART_CDC_Init, %function
 252              	USBUART_CDC_Init:
 253              	.LFB2:
 294:Generated_Source\PSoC5/USBUART_cdc.c ****     uint8 comPort;
ARM GAS  C:\Users\ingan\AppData\Local\Temp\ccoalNGJ.s 			page 13


 254              		.loc 1 294 0
 255              		.cfi_startproc
 256              		@ args = 0, pretend = 0, frame = 0
 257              		@ frame_needed = 0, uses_anonymous_args = 0
 258 0000 10B5     		push	{r4, lr}
 259              		.cfi_def_cfa_offset 8
 260              		.cfi_offset 4, -8
 261              		.cfi_offset 14, -4
 262              	.LVL29:
 299:Generated_Source\PSoC5/USBUART_cdc.c ****     USBUART_linesChanged[USBUART_COM_PORT1] = 0u;
 263              		.loc 1 299 0
 264 0002 0024     		movs	r4, #0
 265 0004 1F4B     		ldr	r3, .L37
 266 0006 1C70     		strb	r4, [r3]
 300:Generated_Source\PSoC5/USBUART_cdc.c ****     USBUART_linesChanged[USBUART_COM_PORT2] = 0u;
 267              		.loc 1 300 0
 268 0008 1F4B     		ldr	r3, .L37+4
 269 000a 1C70     		strb	r4, [r3]
 301:Generated_Source\PSoC5/USBUART_cdc.c **** 
 270              		.loc 1 301 0
 271 000c 5C70     		strb	r4, [r3, #1]
 272              	.LVL30:
 303:Generated_Source\PSoC5/USBUART_cdc.c ****     {
 273              		.loc 1 303 0
 274 000e 0AE0     		b	.L26
 275              	.LVL31:
 276              	.L28:
 305:Generated_Source\PSoC5/USBUART_cdc.c ****         if((0u != outEp) && (USBUART_MAX_EP > outEp))
 277              		.loc 1 305 0
 278 0010 1E4B     		ldr	r3, .L37+8
 279 0012 185D     		ldrb	r0, [r3, r4]	@ zero_extendqisi2
 280 0014 C0B2     		uxtb	r0, r0
 281              	.LVL32:
 306:Generated_Source\PSoC5/USBUART_cdc.c ****         {
 282              		.loc 1 306 0
 283 0016 431E     		subs	r3, r0, #1
 284 0018 DBB2     		uxtb	r3, r3
 285 001a 072B     		cmp	r3, #7
 286 001c 01D8     		bhi	.L27
 308:Generated_Source\PSoC5/USBUART_cdc.c ****         }
 287              		.loc 1 308 0
 288 001e FFF7FEFF 		bl	USBUART_EnableOutEP
 289              	.LVL33:
 290              	.L27:
 303:Generated_Source\PSoC5/USBUART_cdc.c ****     {
 291              		.loc 1 303 0 discriminator 2
 292 0022 0134     		adds	r4, r4, #1
 293              	.LVL34:
 294 0024 E4B2     		uxtb	r4, r4
 295              	.LVL35:
 296              	.L26:
 303:Generated_Source\PSoC5/USBUART_cdc.c ****     {
 297              		.loc 1 303 0 is_stmt 0 discriminator 1
 298 0026 012C     		cmp	r4, #1
 299 0028 F2D9     		bls	.L28
 314:Generated_Source\PSoC5/USBUART_cdc.c ****             || (0u == USBUART_cdcDataOutEp[USBUART_COM_PORT1]) \
 300              		.loc 1 314 0 is_stmt 1
ARM GAS  C:\Users\ingan\AppData\Local\Temp\ccoalNGJ.s 			page 14


 301 002a 194B     		ldr	r3, .L37+12
 302 002c 1B78     		ldrb	r3, [r3]	@ zero_extendqisi2
 303 002e 13F0FF0F 		tst	r3, #255
 304 0032 1AD0     		beq	.L30
 315:Generated_Source\PSoC5/USBUART_cdc.c ****             || (0u ==  USBUART_cdcCommInInterruptEp[USBUART_COM_PORT1])
 305              		.loc 1 315 0
 306 0034 154B     		ldr	r3, .L37+8
 307 0036 1B78     		ldrb	r3, [r3]	@ zero_extendqisi2
 308 0038 13F0FF0F 		tst	r3, #255
 309 003c 17D0     		beq	.L31
 316:Generated_Source\PSoC5/USBUART_cdc.c ****             || (USBUART_cdcDataInEp[USBUART_COM_PORT1] >= USBUART_MAX_EP)
 310              		.loc 1 316 0
 311 003e 154B     		ldr	r3, .L37+16
 312 0040 1B78     		ldrb	r3, [r3]	@ zero_extendqisi2
 313 0042 13F0FF0F 		tst	r3, #255
 314 0046 14D0     		beq	.L32
 317:Generated_Source\PSoC5/USBUART_cdc.c ****             || (USBUART_cdcDataOutEp[USBUART_COM_PORT1] >= USBUART_MAX_EP)
 315              		.loc 1 317 0
 316 0048 114B     		ldr	r3, .L37+12
 317 004a 1B78     		ldrb	r3, [r3]	@ zero_extendqisi2
 318 004c DBB2     		uxtb	r3, r3
 319 004e 082B     		cmp	r3, #8
 320 0050 11D8     		bhi	.L33
 318:Generated_Source\PSoC5/USBUART_cdc.c ****             || (USBUART_cdcCommInInterruptEp[USBUART_COM_PORT1] >= USBUART_MAX_EP))
 321              		.loc 1 318 0
 322 0052 0E4B     		ldr	r3, .L37+8
 323 0054 1B78     		ldrb	r3, [r3]	@ zero_extendqisi2
 324 0056 DBB2     		uxtb	r3, r3
 325 0058 082B     		cmp	r3, #8
 326 005a 0ED8     		bhi	.L34
 319:Generated_Source\PSoC5/USBUART_cdc.c ****     {
 327              		.loc 1 319 0
 328 005c 0D4B     		ldr	r3, .L37+16
 329 005e 1B78     		ldrb	r3, [r3]	@ zero_extendqisi2
 330 0060 DBB2     		uxtb	r3, r3
 331 0062 082B     		cmp	r3, #8
 332 0064 0BD8     		bhi	.L35
 297:Generated_Source\PSoC5/USBUART_cdc.c **** 
 333              		.loc 1 297 0
 334 0066 0020     		movs	r0, #0
 335 0068 10BD     		pop	{r4, pc}
 336              	.LVL36:
 337              	.L30:
 321:Generated_Source\PSoC5/USBUART_cdc.c ****     }
 338              		.loc 1 321 0
 339 006a 0120     		movs	r0, #1
 340 006c 10BD     		pop	{r4, pc}
 341              	.LVL37:
 342              	.L31:
 343 006e 0120     		movs	r0, #1
 344 0070 10BD     		pop	{r4, pc}
 345              	.LVL38:
 346              	.L32:
 347 0072 0120     		movs	r0, #1
 348 0074 10BD     		pop	{r4, pc}
 349              	.LVL39:
 350              	.L33:
ARM GAS  C:\Users\ingan\AppData\Local\Temp\ccoalNGJ.s 			page 15


 351 0076 0120     		movs	r0, #1
 352 0078 10BD     		pop	{r4, pc}
 353              	.LVL40:
 354              	.L34:
 355 007a 0120     		movs	r0, #1
 356 007c 10BD     		pop	{r4, pc}
 357              	.LVL41:
 358              	.L35:
 359 007e 0120     		movs	r0, #1
 360              	.LVL42:
 325:Generated_Source\PSoC5/USBUART_cdc.c **** 
 361              		.loc 1 325 0
 362 0080 10BD     		pop	{r4, pc}
 363              	.LVL43:
 364              	.L38:
 365 0082 00BF     		.align	2
 366              	.L37:
 367 0084 00000000 		.word	.LANCHOR1
 368 0088 00000000 		.word	USBUART_linesChanged
 369 008c 00000000 		.word	USBUART_cdcDataOutEp
 370 0090 00000000 		.word	USBUART_cdcDataInEp
 371 0094 00000000 		.word	USBUART_cdcCommInInterruptEp
 372              		.cfi_endproc
 373              	.LFE2:
 374              		.size	USBUART_CDC_Init, .-USBUART_CDC_Init
 375              		.section	.text.USBUART_PutData,"ax",%progbits
 376              		.align	2
 377              		.global	USBUART_PutData
 378              		.thumb
 379              		.thumb_func
 380              		.type	USBUART_PutData, %function
 381              	USBUART_PutData:
 382              	.LFB3:
 359:Generated_Source\PSoC5/USBUART_cdc.c ****     uint8 epNumber = USBUART_cdcDataInEp[USBUART_activeCom];
 383              		.loc 1 359 0
 384              		.cfi_startproc
 385              		@ args = 0, pretend = 0, frame = 0
 386              		@ frame_needed = 0, uses_anonymous_args = 0
 387              	.LVL44:
 388 0000 70B5     		push	{r4, r5, r6, lr}
 389              		.cfi_def_cfa_offset 16
 390              		.cfi_offset 4, -16
 391              		.cfi_offset 5, -12
 392              		.cfi_offset 6, -8
 393              		.cfi_offset 14, -4
 394 0002 0646     		mov	r6, r0
 395 0004 0D46     		mov	r5, r1
 360:Generated_Source\PSoC5/USBUART_cdc.c **** 
 396              		.loc 1 360 0
 397 0006 0F4B     		ldr	r3, .L42
 398 0008 1B78     		ldrb	r3, [r3]	@ zero_extendqisi2
 399 000a 0F4A     		ldr	r2, .L42+4
 400 000c D45C     		ldrb	r4, [r2, r3]	@ zero_extendqisi2
 401 000e E4B2     		uxtb	r4, r4
 402              	.LVL45:
 363:Generated_Source\PSoC5/USBUART_cdc.c ****     {
 403              		.loc 1 363 0
ARM GAS  C:\Users\ingan\AppData\Local\Temp\ccoalNGJ.s 			page 16


 404 0010 04EB4402 		add	r2, r4, r4, lsl #1
 405 0014 9300     		lsls	r3, r2, #2
 406 0016 0D4A     		ldr	r2, .L42+8
 407 0018 1344     		add	r3, r3, r2
 408 001a 1B89     		ldrh	r3, [r3, #8]
 409 001c 9BB2     		uxth	r3, r3
 410 001e 8B42     		cmp	r3, r1
 411 0020 09D2     		bcs	.L40
 366:Generated_Source\PSoC5/USBUART_cdc.c **** 
 412              		.loc 1 366 0
 413 0022 04EB4402 		add	r2, r4, r4, lsl #1
 414 0026 9300     		lsls	r3, r2, #2
 415 0028 084A     		ldr	r2, .L42+8
 416 002a 1344     		add	r3, r3, r2
 417 002c 1D89     		ldrh	r5, [r3, #8]
 418 002e ADB2     		uxth	r5, r5
 419              	.LVL46:
 369:Generated_Source\PSoC5/USBUART_cdc.c ****     }
 420              		.loc 1 369 0
 421 0030 0020     		movs	r0, #0
 422              	.LVL47:
 423 0032 FFF7FEFF 		bl	CyHalt
 424              	.LVL48:
 425              	.L40:
 372:Generated_Source\PSoC5/USBUART_cdc.c **** }
 426              		.loc 1 372 0
 427 0036 2A46     		mov	r2, r5
 428 0038 3146     		mov	r1, r6
 429 003a 2046     		mov	r0, r4
 430 003c FFF7FEFF 		bl	USBUART_LoadInEP
 431              	.LVL49:
 432 0040 70BD     		pop	{r4, r5, r6, pc}
 433              	.LVL50:
 434              	.L43:
 435 0042 00BF     		.align	2
 436              	.L42:
 437 0044 00000000 		.word	.LANCHOR1
 438 0048 00000000 		.word	USBUART_cdcDataInEp
 439 004c 00000000 		.word	USBUART_EP
 440              		.cfi_endproc
 441              	.LFE3:
 442              		.size	USBUART_PutData, .-USBUART_PutData
 443              		.section	.text.USBUART_PutString,"ax",%progbits
 444              		.align	2
 445              		.global	USBUART_PutString
 446              		.thumb
 447              		.thumb_func
 448              		.type	USBUART_PutString, %function
 449              	USBUART_PutString:
 450              	.LFB5:
 399:Generated_Source\PSoC5/USBUART_cdc.c **** 
 400:Generated_Source\PSoC5/USBUART_cdc.c **** 
 401:Generated_Source\PSoC5/USBUART_cdc.c **** /***************************************************************************
 402:Generated_Source\PSoC5/USBUART_cdc.c **** * Function Name: USBUART_PutString
 403:Generated_Source\PSoC5/USBUART_cdc.c **** ************************************************************************//**
 404:Generated_Source\PSoC5/USBUART_cdc.c **** *
 405:Generated_Source\PSoC5/USBUART_cdc.c **** *  This function sends a null terminated string to the PC. This function will
ARM GAS  C:\Users\ingan\AppData\Local\Temp\ccoalNGJ.s 			page 17


 406:Generated_Source\PSoC5/USBUART_cdc.c **** *  block if there is not enough memory to place the whole string. It will block
 407:Generated_Source\PSoC5/USBUART_cdc.c **** *  until the entire string has been written to the transmit buffer.
 408:Generated_Source\PSoC5/USBUART_cdc.c **** *  The USBUART_CDCIsReady() function should be called before
 409:Generated_Source\PSoC5/USBUART_cdc.c **** *  sending data with a new call to USBUART_PutString(), to be sure
 410:Generated_Source\PSoC5/USBUART_cdc.c **** *  that the previous data has finished sending. This function sends
 411:Generated_Source\PSoC5/USBUART_cdc.c **** *  zero-length packet automatically, if the length of the last packet, sent
 412:Generated_Source\PSoC5/USBUART_cdc.c **** *  by this API, is equal to Max Packet Size
 413:Generated_Source\PSoC5/USBUART_cdc.c **** *
 414:Generated_Source\PSoC5/USBUART_cdc.c **** *  \param string: pointer to the string to be sent to the PC.
 415:Generated_Source\PSoC5/USBUART_cdc.c **** *
 416:Generated_Source\PSoC5/USBUART_cdc.c **** * \globalvars
 417:Generated_Source\PSoC5/USBUART_cdc.c **** *
 418:Generated_Source\PSoC5/USBUART_cdc.c **** *   USBUART_cdcDataInEp: CDC IN endpoint number used for sending
 419:Generated_Source\PSoC5/USBUART_cdc.c **** *     data.
 420:Generated_Source\PSoC5/USBUART_cdc.c **** *
 421:Generated_Source\PSoC5/USBUART_cdc.c **** * \reentrant
 422:Generated_Source\PSoC5/USBUART_cdc.c **** *  No.
 423:Generated_Source\PSoC5/USBUART_cdc.c **** *
 424:Generated_Source\PSoC5/USBUART_cdc.c **** ***************************************************************************/
 425:Generated_Source\PSoC5/USBUART_cdc.c **** void USBUART_PutString(const char8 string[]) 
 426:Generated_Source\PSoC5/USBUART_cdc.c **** {
 451              		.loc 1 426 0
 452              		.cfi_startproc
 453              		@ args = 0, pretend = 0, frame = 0
 454              		@ frame_needed = 0, uses_anonymous_args = 0
 455              	.LVL51:
 456 0000 2DE9F843 		push	{r3, r4, r5, r6, r7, r8, r9, lr}
 457              		.cfi_def_cfa_offset 32
 458              		.cfi_offset 3, -32
 459              		.cfi_offset 4, -28
 460              		.cfi_offset 5, -24
 461              		.cfi_offset 6, -20
 462              		.cfi_offset 7, -16
 463              		.cfi_offset 8, -12
 464              		.cfi_offset 9, -8
 465              		.cfi_offset 14, -4
 466 0004 8046     		mov	r8, r0
 467              	.LVL52:
 427:Generated_Source\PSoC5/USBUART_cdc.c ****     uint16 strLength;
 428:Generated_Source\PSoC5/USBUART_cdc.c ****     uint16 sendLength;
 429:Generated_Source\PSoC5/USBUART_cdc.c ****     uint16 bufIndex = 0u;
 430:Generated_Source\PSoC5/USBUART_cdc.c **** 
 431:Generated_Source\PSoC5/USBUART_cdc.c ****     uint8  epNumber = USBUART_cdcDataInEp[USBUART_activeCom];
 468              		.loc 1 431 0
 469 0006 234B     		ldr	r3, .L52
 470 0008 1B78     		ldrb	r3, [r3]	@ zero_extendqisi2
 471 000a 234A     		ldr	r2, .L52+4
 472 000c D65C     		ldrb	r6, [r2, r3]	@ zero_extendqisi2
 473 000e F6B2     		uxtb	r6, r6
 474              	.LVL53:
 432:Generated_Source\PSoC5/USBUART_cdc.c **** 
 433:Generated_Source\PSoC5/USBUART_cdc.c ****     /* Get length string length (it is terminated with zero). */
 434:Generated_Source\PSoC5/USBUART_cdc.c ****     strLength = USBUART_StrLen(string);
 475              		.loc 1 434 0
 476 0010 FFF7FEFF 		bl	USBUART_StrLen
 477              	.LVL54:
 478 0014 0546     		mov	r5, r0
ARM GAS  C:\Users\ingan\AppData\Local\Temp\ccoalNGJ.s 			page 18


 479              	.LVL55:
 429:Generated_Source\PSoC5/USBUART_cdc.c **** 
 480              		.loc 1 429 0
 481 0016 0027     		movs	r7, #0
 482              	.LVL56:
 483              	.L49:
 435:Generated_Source\PSoC5/USBUART_cdc.c **** 
 436:Generated_Source\PSoC5/USBUART_cdc.c ****     do
 437:Generated_Source\PSoC5/USBUART_cdc.c ****     {
 438:Generated_Source\PSoC5/USBUART_cdc.c ****         /* Limit length to maximum packet size of endpoint. */
 439:Generated_Source\PSoC5/USBUART_cdc.c ****         sendLength = (strLength > USBUART_EP[epNumber].bufferSize) ?
 484              		.loc 1 439 0
 485 0018 3446     		mov	r4, r6
 486 001a 06EB4602 		add	r2, r6, r6, lsl #1
 487 001e 9300     		lsls	r3, r2, #2
 488 0020 1E4A     		ldr	r2, .L52+8
 489 0022 1344     		add	r3, r3, r2
 490 0024 1B89     		ldrh	r3, [r3, #8]
 491 0026 9BB2     		uxth	r3, r3
 492 0028 9D42     		cmp	r5, r3
 493 002a 09D9     		bls	.L50
 494              		.loc 1 439 0 is_stmt 0 discriminator 1
 495 002c 06EB4602 		add	r2, r6, r6, lsl #1
 496 0030 9300     		lsls	r3, r2, #2
 497 0032 1A4A     		ldr	r2, .L52+8
 498 0034 1344     		add	r3, r3, r2
 499 0036 B3F80890 		ldrh	r9, [r3, #8]
 500 003a 1FFA89F9 		uxth	r9, r9
 501 003e 00E0     		b	.L45
 502              	.L50:
 503              		.loc 1 439 0
 504 0040 A946     		mov	r9, r5
 505              	.L45:
 506              	.LVL57:
 440:Generated_Source\PSoC5/USBUART_cdc.c ****                                   USBUART_EP[epNumber].bufferSize : strLength;
 441:Generated_Source\PSoC5/USBUART_cdc.c **** 
 442:Generated_Source\PSoC5/USBUART_cdc.c ****         /* Load IN endpoint and expose it to host. */
 443:Generated_Source\PSoC5/USBUART_cdc.c ****         USBUART_LoadInEP(epNumber, (const uint8 *)&string[bufIndex], sendLength);
 507              		.loc 1 443 0 is_stmt 1 discriminator 4
 508 0042 4A46     		mov	r2, r9
 509 0044 08EB0701 		add	r1, r8, r7
 510 0048 3046     		mov	r0, r6
 511 004a FFF7FEFF 		bl	USBUART_LoadInEP
 512              	.LVL58:
 444:Generated_Source\PSoC5/USBUART_cdc.c ****         strLength -= sendLength;
 513              		.loc 1 444 0 discriminator 4
 514 004e C9EB0505 		rsb	r5, r9, r5
 515              	.LVL59:
 516 0052 ADB2     		uxth	r5, r5
 517              	.LVL60:
 445:Generated_Source\PSoC5/USBUART_cdc.c **** 
 446:Generated_Source\PSoC5/USBUART_cdc.c ****         /* If more data are present to send or full packet was sent */
 447:Generated_Source\PSoC5/USBUART_cdc.c ****         if ((strLength > 0u) || (sendLength == USBUART_EP[epNumber].bufferSize))
 518              		.loc 1 447 0 discriminator 4
 519 0054 45B9     		cbnz	r5, .L46
 520              		.loc 1 447 0 is_stmt 0 discriminator 1
 521 0056 06EB4602 		add	r2, r6, r6, lsl #1
ARM GAS  C:\Users\ingan\AppData\Local\Temp\ccoalNGJ.s 			page 19


 522 005a 9300     		lsls	r3, r2, #2
 523 005c 0F4A     		ldr	r2, .L52+8
 524 005e 1344     		add	r3, r3, r2
 525 0060 1B89     		ldrh	r3, [r3, #8]
 526 0062 9BB2     		uxth	r3, r3
 527 0064 9945     		cmp	r9, r3
 528 0066 10D1     		bne	.L47
 529              	.L46:
 448:Generated_Source\PSoC5/USBUART_cdc.c ****         {
 449:Generated_Source\PSoC5/USBUART_cdc.c ****             bufIndex += sendLength;
 530              		.loc 1 449 0 is_stmt 1
 531 0068 4F44     		add	r7, r7, r9
 532              	.LVL61:
 533 006a BFB2     		uxth	r7, r7
 534              	.LVL62:
 535              	.L48:
 450:Generated_Source\PSoC5/USBUART_cdc.c **** 
 451:Generated_Source\PSoC5/USBUART_cdc.c ****             /* Wait until host read data from IN endpoint buffer. */
 452:Generated_Source\PSoC5/USBUART_cdc.c ****             while (USBUART_IN_BUFFER_FULL == USBUART_EP[epNumber].apiEpState)
 536              		.loc 1 452 0 discriminator 1
 537 006c 04EB4402 		add	r2, r4, r4, lsl #1
 538 0070 9300     		lsls	r3, r2, #2
 539 0072 0A4A     		ldr	r2, .L52+8
 540 0074 1344     		add	r3, r3, r2
 541 0076 5B78     		ldrb	r3, [r3, #1]	@ zero_extendqisi2
 542 0078 13F0FF0F 		tst	r3, #255
 543 007c F6D0     		beq	.L48
 453:Generated_Source\PSoC5/USBUART_cdc.c ****             {
 454:Generated_Source\PSoC5/USBUART_cdc.c ****             }
 455:Generated_Source\PSoC5/USBUART_cdc.c **** 
 456:Generated_Source\PSoC5/USBUART_cdc.c ****             /* If last packet is exactly maximum packet size, it shall be followed
 457:Generated_Source\PSoC5/USBUART_cdc.c ****             * by a zero-length packet to assure the end of segment is properly
 458:Generated_Source\PSoC5/USBUART_cdc.c ****             * identified by the terminal.
 459:Generated_Source\PSoC5/USBUART_cdc.c ****             */
 460:Generated_Source\PSoC5/USBUART_cdc.c ****             if (0u == strLength)
 544              		.loc 1 460 0
 545 007e 25B9     		cbnz	r5, .L47
 461:Generated_Source\PSoC5/USBUART_cdc.c ****             {
 462:Generated_Source\PSoC5/USBUART_cdc.c ****                 USBUART_LoadInEP(epNumber, NULL, 0u);
 546              		.loc 1 462 0
 547 0080 0022     		movs	r2, #0
 548 0082 1146     		mov	r1, r2
 549 0084 3046     		mov	r0, r6
 550 0086 FFF7FEFF 		bl	USBUART_LoadInEP
 551              	.LVL63:
 552              	.L47:
 463:Generated_Source\PSoC5/USBUART_cdc.c ****             }
 464:Generated_Source\PSoC5/USBUART_cdc.c ****         }
 465:Generated_Source\PSoC5/USBUART_cdc.c ****     }
 466:Generated_Source\PSoC5/USBUART_cdc.c ****     while (strLength > 0u);
 553              		.loc 1 466 0
 554 008a 002D     		cmp	r5, #0
 555 008c C4D1     		bne	.L49
 467:Generated_Source\PSoC5/USBUART_cdc.c **** }
 556              		.loc 1 467 0
 557 008e BDE8F883 		pop	{r3, r4, r5, r6, r7, r8, r9, pc}
 558              	.LVL64:
ARM GAS  C:\Users\ingan\AppData\Local\Temp\ccoalNGJ.s 			page 20


 559              	.L53:
 560 0092 00BF     		.align	2
 561              	.L52:
 562 0094 00000000 		.word	.LANCHOR1
 563 0098 00000000 		.word	USBUART_cdcDataInEp
 564 009c 00000000 		.word	USBUART_EP
 565              		.cfi_endproc
 566              	.LFE5:
 567              		.size	USBUART_PutString, .-USBUART_PutString
 568              		.section	.text.USBUART_PutChar,"ax",%progbits
 569              		.align	2
 570              		.global	USBUART_PutChar
 571              		.thumb
 572              		.thumb_func
 573              		.type	USBUART_PutChar, %function
 574              	USBUART_PutChar:
 575              	.LFB6:
 468:Generated_Source\PSoC5/USBUART_cdc.c **** 
 469:Generated_Source\PSoC5/USBUART_cdc.c **** 
 470:Generated_Source\PSoC5/USBUART_cdc.c **** /***************************************************************************
 471:Generated_Source\PSoC5/USBUART_cdc.c **** * Function Name: USBUART_PutChar
 472:Generated_Source\PSoC5/USBUART_cdc.c **** ************************************************************************//**
 473:Generated_Source\PSoC5/USBUART_cdc.c **** *
 474:Generated_Source\PSoC5/USBUART_cdc.c **** *  This function writes a single character to the PC at a time. This is an
 475:Generated_Source\PSoC5/USBUART_cdc.c **** *  inefficient way to send large amounts of data.
 476:Generated_Source\PSoC5/USBUART_cdc.c **** *
 477:Generated_Source\PSoC5/USBUART_cdc.c **** *  \param txDataByte: Character to be sent to the PC.
 478:Generated_Source\PSoC5/USBUART_cdc.c **** *
 479:Generated_Source\PSoC5/USBUART_cdc.c **** *  \globalvars
 480:Generated_Source\PSoC5/USBUART_cdc.c **** *
 481:Generated_Source\PSoC5/USBUART_cdc.c **** *   USBUART_cdcDataInEp: CDC IN endpoint number used for sending
 482:Generated_Source\PSoC5/USBUART_cdc.c **** *     data.
 483:Generated_Source\PSoC5/USBUART_cdc.c **** *
 484:Generated_Source\PSoC5/USBUART_cdc.c **** *  \reentrant
 485:Generated_Source\PSoC5/USBUART_cdc.c **** *  No.
 486:Generated_Source\PSoC5/USBUART_cdc.c **** *
 487:Generated_Source\PSoC5/USBUART_cdc.c **** ***************************************************************************/
 488:Generated_Source\PSoC5/USBUART_cdc.c **** void USBUART_PutChar(char8 txDataByte) 
 489:Generated_Source\PSoC5/USBUART_cdc.c **** {
 576              		.loc 1 489 0
 577              		.cfi_startproc
 578              		@ args = 0, pretend = 0, frame = 8
 579              		@ frame_needed = 0, uses_anonymous_args = 0
 580              	.LVL65:
 581 0000 00B5     		push	{lr}
 582              		.cfi_def_cfa_offset 4
 583              		.cfi_offset 14, -4
 584 0002 83B0     		sub	sp, sp, #12
 585              		.cfi_def_cfa_offset 16
 490:Generated_Source\PSoC5/USBUART_cdc.c ****     uint8 dataByte;
 491:Generated_Source\PSoC5/USBUART_cdc.c ****     dataByte = (uint8) txDataByte;
 586              		.loc 1 491 0
 587 0004 02A9     		add	r1, sp, #8
 588 0006 01F8010D 		strb	r0, [r1, #-1]!
 492:Generated_Source\PSoC5/USBUART_cdc.c **** 
 493:Generated_Source\PSoC5/USBUART_cdc.c ****     USBUART_LoadInEP(USBUART_cdcDataInEp[USBUART_activeCom], &dataByte, 1u);
 589              		.loc 1 493 0
ARM GAS  C:\Users\ingan\AppData\Local\Temp\ccoalNGJ.s 			page 21


 590 000a 054B     		ldr	r3, .L56
 591 000c 1B78     		ldrb	r3, [r3]	@ zero_extendqisi2
 592 000e 054A     		ldr	r2, .L56+4
 593 0010 D05C     		ldrb	r0, [r2, r3]	@ zero_extendqisi2
 594              	.LVL66:
 595 0012 0122     		movs	r2, #1
 596 0014 FFF7FEFF 		bl	USBUART_LoadInEP
 597              	.LVL67:
 494:Generated_Source\PSoC5/USBUART_cdc.c **** }
 598              		.loc 1 494 0
 599 0018 03B0     		add	sp, sp, #12
 600              		.cfi_def_cfa_offset 4
 601              		@ sp needed
 602 001a 5DF804FB 		ldr	pc, [sp], #4
 603              	.L57:
 604 001e 00BF     		.align	2
 605              	.L56:
 606 0020 00000000 		.word	.LANCHOR1
 607 0024 00000000 		.word	USBUART_cdcDataInEp
 608              		.cfi_endproc
 609              	.LFE6:
 610              		.size	USBUART_PutChar, .-USBUART_PutChar
 611              		.section	.text.USBUART_PutCRLF,"ax",%progbits
 612              		.align	2
 613              		.global	USBUART_PutCRLF
 614              		.thumb
 615              		.thumb_func
 616              		.type	USBUART_PutCRLF, %function
 617              	USBUART_PutCRLF:
 618              	.LFB7:
 495:Generated_Source\PSoC5/USBUART_cdc.c **** 
 496:Generated_Source\PSoC5/USBUART_cdc.c **** 
 497:Generated_Source\PSoC5/USBUART_cdc.c **** /*******************************************************************************
 498:Generated_Source\PSoC5/USBUART_cdc.c **** * Function Name: USBUART_PutCRLF
 499:Generated_Source\PSoC5/USBUART_cdc.c **** ****************************************************************************//**
 500:Generated_Source\PSoC5/USBUART_cdc.c **** *
 501:Generated_Source\PSoC5/USBUART_cdc.c **** *  This function sends a carriage return (0x0D) and line feed (0x0A) to the
 502:Generated_Source\PSoC5/USBUART_cdc.c **** *  PC. This APIis provided to mimic API provided by our other UART components
 503:Generated_Source\PSoC5/USBUART_cdc.c **** *
 504:Generated_Source\PSoC5/USBUART_cdc.c **** * \globalvars
 505:Generated_Source\PSoC5/USBUART_cdc.c **** *
 506:Generated_Source\PSoC5/USBUART_cdc.c **** *   USBUART_cdcDataInEp: CDC IN endpoint number used for sending
 507:Generated_Source\PSoC5/USBUART_cdc.c **** *     data.
 508:Generated_Source\PSoC5/USBUART_cdc.c **** *
 509:Generated_Source\PSoC5/USBUART_cdc.c **** * \reentrant
 510:Generated_Source\PSoC5/USBUART_cdc.c **** *  No.
 511:Generated_Source\PSoC5/USBUART_cdc.c **** *
 512:Generated_Source\PSoC5/USBUART_cdc.c **** *******************************************************************************/
 513:Generated_Source\PSoC5/USBUART_cdc.c **** void USBUART_PutCRLF(void) 
 514:Generated_Source\PSoC5/USBUART_cdc.c **** {
 619              		.loc 1 514 0
 620              		.cfi_startproc
 621              		@ args = 0, pretend = 0, frame = 8
 622              		@ frame_needed = 0, uses_anonymous_args = 0
 623 0000 00B5     		push	{lr}
 624              		.cfi_def_cfa_offset 4
 625              		.cfi_offset 14, -4
ARM GAS  C:\Users\ingan\AppData\Local\Temp\ccoalNGJ.s 			page 22


 626 0002 83B0     		sub	sp, sp, #12
 627              		.cfi_def_cfa_offset 16
 515:Generated_Source\PSoC5/USBUART_cdc.c ****     const uint8 CYCODE txData[] = {0x0Du, 0x0Au};
 628              		.loc 1 515 0
 629 0004 074B     		ldr	r3, .L60
 630 0006 1B88     		ldrh	r3, [r3]	@ unaligned
 631 0008 ADF80430 		strh	r3, [sp, #4]	@ unaligned
 516:Generated_Source\PSoC5/USBUART_cdc.c **** 
 517:Generated_Source\PSoC5/USBUART_cdc.c ****     USBUART_LoadInEP(USBUART_cdcDataInEp[USBUART_activeCom], (const uint8 *)txData, 2u);
 632              		.loc 1 517 0
 633 000c 064B     		ldr	r3, .L60+4
 634 000e 1B78     		ldrb	r3, [r3]	@ zero_extendqisi2
 635 0010 064A     		ldr	r2, .L60+8
 636 0012 D05C     		ldrb	r0, [r2, r3]	@ zero_extendqisi2
 637 0014 0222     		movs	r2, #2
 638 0016 01A9     		add	r1, sp, #4
 639 0018 FFF7FEFF 		bl	USBUART_LoadInEP
 640              	.LVL68:
 518:Generated_Source\PSoC5/USBUART_cdc.c **** }
 641              		.loc 1 518 0
 642 001c 03B0     		add	sp, sp, #12
 643              		.cfi_def_cfa_offset 4
 644              		@ sp needed
 645 001e 5DF804FB 		ldr	pc, [sp], #4
 646              	.L61:
 647 0022 00BF     		.align	2
 648              	.L60:
 649 0024 00000000 		.word	.LANCHOR2
 650 0028 00000000 		.word	.LANCHOR1
 651 002c 00000000 		.word	USBUART_cdcDataInEp
 652              		.cfi_endproc
 653              	.LFE7:
 654              		.size	USBUART_PutCRLF, .-USBUART_PutCRLF
 655              		.section	.text.USBUART_GetCount,"ax",%progbits
 656              		.align	2
 657              		.global	USBUART_GetCount
 658              		.thumb
 659              		.thumb_func
 660              		.type	USBUART_GetCount, %function
 661              	USBUART_GetCount:
 662              	.LFB8:
 519:Generated_Source\PSoC5/USBUART_cdc.c **** 
 520:Generated_Source\PSoC5/USBUART_cdc.c **** 
 521:Generated_Source\PSoC5/USBUART_cdc.c **** /*******************************************************************************
 522:Generated_Source\PSoC5/USBUART_cdc.c **** * Function Name: USBUART_GetCount
 523:Generated_Source\PSoC5/USBUART_cdc.c **** ****************************************************************************//**
 524:Generated_Source\PSoC5/USBUART_cdc.c **** *
 525:Generated_Source\PSoC5/USBUART_cdc.c **** *  This function returns the number of bytes that were received from the PC.
 526:Generated_Source\PSoC5/USBUART_cdc.c **** *  The returned length value should be passed to USBUART_GetData() as
 527:Generated_Source\PSoC5/USBUART_cdc.c **** *  a parameter to read all received data. If all of the received data is not
 528:Generated_Source\PSoC5/USBUART_cdc.c **** *  read at one time by the USBUART_GetData() API, the unread data will
 529:Generated_Source\PSoC5/USBUART_cdc.c **** *  be lost.
 530:Generated_Source\PSoC5/USBUART_cdc.c **** *
 531:Generated_Source\PSoC5/USBUART_cdc.c **** * \return
 532:Generated_Source\PSoC5/USBUART_cdc.c **** *  Returns the number of received bytes. The maximum amount of received data at
 533:Generated_Source\PSoC5/USBUART_cdc.c **** *  a time is limited by the maximum packet size for the endpoint.
 534:Generated_Source\PSoC5/USBUART_cdc.c **** *
ARM GAS  C:\Users\ingan\AppData\Local\Temp\ccoalNGJ.s 			page 23


 535:Generated_Source\PSoC5/USBUART_cdc.c **** * \globalvars
 536:Generated_Source\PSoC5/USBUART_cdc.c **** *   USBUART_cdcDataOutEp: CDC OUT endpoint number used.
 537:Generated_Source\PSoC5/USBUART_cdc.c **** *
 538:Generated_Source\PSoC5/USBUART_cdc.c **** *******************************************************************************/
 539:Generated_Source\PSoC5/USBUART_cdc.c **** uint16 USBUART_GetCount(void) 
 540:Generated_Source\PSoC5/USBUART_cdc.c **** {
 663              		.loc 1 540 0
 664              		.cfi_startproc
 665              		@ args = 0, pretend = 0, frame = 0
 666              		@ frame_needed = 0, uses_anonymous_args = 0
 667 0000 08B5     		push	{r3, lr}
 668              		.cfi_def_cfa_offset 8
 669              		.cfi_offset 3, -8
 670              		.cfi_offset 14, -4
 541:Generated_Source\PSoC5/USBUART_cdc.c ****     uint16 bytesCount;
 542:Generated_Source\PSoC5/USBUART_cdc.c **** 
 543:Generated_Source\PSoC5/USBUART_cdc.c ****     uint8  epNumber = USBUART_cdcDataOutEp[USBUART_activeCom];
 671              		.loc 1 543 0
 672 0002 094B     		ldr	r3, .L66
 673 0004 1B78     		ldrb	r3, [r3]	@ zero_extendqisi2
 674 0006 094A     		ldr	r2, .L66+4
 675 0008 D05C     		ldrb	r0, [r2, r3]	@ zero_extendqisi2
 676 000a C0B2     		uxtb	r0, r0
 677              	.LVL69:
 544:Generated_Source\PSoC5/USBUART_cdc.c **** 
 545:Generated_Source\PSoC5/USBUART_cdc.c ****     if (USBUART_OUT_BUFFER_FULL == USBUART_EP[epNumber].apiEpState)
 678              		.loc 1 545 0
 679 000c 00EB4002 		add	r2, r0, r0, lsl #1
 680 0010 9300     		lsls	r3, r2, #2
 681 0012 074A     		ldr	r2, .L66+8
 682 0014 1344     		add	r3, r3, r2
 683 0016 5B78     		ldrb	r3, [r3, #1]	@ zero_extendqisi2
 684 0018 DBB2     		uxtb	r3, r3
 685 001a 012B     		cmp	r3, #1
 686 001c 02D1     		bne	.L64
 546:Generated_Source\PSoC5/USBUART_cdc.c ****     {
 547:Generated_Source\PSoC5/USBUART_cdc.c ****         bytesCount = USBUART_GetEPCount(epNumber);
 687              		.loc 1 547 0
 688 001e FFF7FEFF 		bl	USBUART_GetEPCount
 689              	.LVL70:
 690 0022 08BD     		pop	{r3, pc}
 691              	.LVL71:
 692              	.L64:
 548:Generated_Source\PSoC5/USBUART_cdc.c ****     }
 549:Generated_Source\PSoC5/USBUART_cdc.c ****     else
 550:Generated_Source\PSoC5/USBUART_cdc.c ****     {
 551:Generated_Source\PSoC5/USBUART_cdc.c ****         bytesCount = 0u;
 693              		.loc 1 551 0
 694 0024 0020     		movs	r0, #0
 695              	.LVL72:
 552:Generated_Source\PSoC5/USBUART_cdc.c ****     }
 553:Generated_Source\PSoC5/USBUART_cdc.c **** 
 554:Generated_Source\PSoC5/USBUART_cdc.c ****     return (bytesCount);
 555:Generated_Source\PSoC5/USBUART_cdc.c **** }
 696              		.loc 1 555 0
 697 0026 08BD     		pop	{r3, pc}
 698              	.L67:
ARM GAS  C:\Users\ingan\AppData\Local\Temp\ccoalNGJ.s 			page 24


 699              		.align	2
 700              	.L66:
 701 0028 00000000 		.word	.LANCHOR1
 702 002c 00000000 		.word	USBUART_cdcDataOutEp
 703 0030 00000000 		.word	USBUART_EP
 704              		.cfi_endproc
 705              	.LFE8:
 706              		.size	USBUART_GetCount, .-USBUART_GetCount
 707              		.section	.text.USBUART_DataIsReady,"ax",%progbits
 708              		.align	2
 709              		.global	USBUART_DataIsReady
 710              		.thumb
 711              		.thumb_func
 712              		.type	USBUART_DataIsReady, %function
 713              	USBUART_DataIsReady:
 714              	.LFB9:
 556:Generated_Source\PSoC5/USBUART_cdc.c **** 
 557:Generated_Source\PSoC5/USBUART_cdc.c **** 
 558:Generated_Source\PSoC5/USBUART_cdc.c **** /*******************************************************************************
 559:Generated_Source\PSoC5/USBUART_cdc.c **** * Function Name: USBUART_DataIsReady
 560:Generated_Source\PSoC5/USBUART_cdc.c **** ****************************************************************************//**
 561:Generated_Source\PSoC5/USBUART_cdc.c **** *
 562:Generated_Source\PSoC5/USBUART_cdc.c **** *  This function returns a non-zero value if the component received data or
 563:Generated_Source\PSoC5/USBUART_cdc.c **** *  received zero-length packet. The USBUART_GetAll() or
 564:Generated_Source\PSoC5/USBUART_cdc.c **** *  USBUART_GetData() API should be called to read data from the buffer
 565:Generated_Source\PSoC5/USBUART_cdc.c **** *  and reinitialize the OUT endpoint even when a zero-length packet is
 566:Generated_Source\PSoC5/USBUART_cdc.c **** *  received. These APIs will return zero value when zero-length packet is
 567:Generated_Source\PSoC5/USBUART_cdc.c **** *  received.
 568:Generated_Source\PSoC5/USBUART_cdc.c **** *
 569:Generated_Source\PSoC5/USBUART_cdc.c **** * \return
 570:Generated_Source\PSoC5/USBUART_cdc.c **** *  If the OUT packet is received, this function returns a non-zero value.
 571:Generated_Source\PSoC5/USBUART_cdc.c **** *  Otherwise, it returns zero.
 572:Generated_Source\PSoC5/USBUART_cdc.c **** *
 573:Generated_Source\PSoC5/USBUART_cdc.c **** * \globalvars
 574:Generated_Source\PSoC5/USBUART_cdc.c **** *   USBUART_cdcDataOutEp: CDC OUT endpoint number used.
 575:Generated_Source\PSoC5/USBUART_cdc.c **** *
 576:Generated_Source\PSoC5/USBUART_cdc.c **** *******************************************************************************/
 577:Generated_Source\PSoC5/USBUART_cdc.c **** uint8 USBUART_DataIsReady(void) 
 578:Generated_Source\PSoC5/USBUART_cdc.c **** {
 715              		.loc 1 578 0
 716              		.cfi_startproc
 717              		@ args = 0, pretend = 0, frame = 0
 718              		@ frame_needed = 0, uses_anonymous_args = 0
 719 0000 08B5     		push	{r3, lr}
 720              		.cfi_def_cfa_offset 8
 721              		.cfi_offset 3, -8
 722              		.cfi_offset 14, -4
 579:Generated_Source\PSoC5/USBUART_cdc.c ****     return (USBUART_GetEPState(USBUART_cdcDataOutEp[USBUART_activeCom]));
 723              		.loc 1 579 0
 724 0002 034B     		ldr	r3, .L70
 725 0004 1B78     		ldrb	r3, [r3]	@ zero_extendqisi2
 726 0006 034A     		ldr	r2, .L70+4
 727 0008 D05C     		ldrb	r0, [r2, r3]	@ zero_extendqisi2
 728 000a FFF7FEFF 		bl	USBUART_GetEPState
 729              	.LVL73:
 580:Generated_Source\PSoC5/USBUART_cdc.c **** }
 730              		.loc 1 580 0
ARM GAS  C:\Users\ingan\AppData\Local\Temp\ccoalNGJ.s 			page 25


 731 000e 08BD     		pop	{r3, pc}
 732              	.L71:
 733              		.align	2
 734              	.L70:
 735 0010 00000000 		.word	.LANCHOR1
 736 0014 00000000 		.word	USBUART_cdcDataOutEp
 737              		.cfi_endproc
 738              	.LFE9:
 739              		.size	USBUART_DataIsReady, .-USBUART_DataIsReady
 740              		.section	.text.USBUART_CDCIsReady,"ax",%progbits
 741              		.align	2
 742              		.global	USBUART_CDCIsReady
 743              		.thumb
 744              		.thumb_func
 745              		.type	USBUART_CDCIsReady, %function
 746              	USBUART_CDCIsReady:
 747              	.LFB10:
 581:Generated_Source\PSoC5/USBUART_cdc.c **** 
 582:Generated_Source\PSoC5/USBUART_cdc.c **** 
 583:Generated_Source\PSoC5/USBUART_cdc.c **** /*******************************************************************************
 584:Generated_Source\PSoC5/USBUART_cdc.c **** * Function Name: USBUART_CDCIsReady
 585:Generated_Source\PSoC5/USBUART_cdc.c **** ****************************************************************************//**
 586:Generated_Source\PSoC5/USBUART_cdc.c **** *
 587:Generated_Source\PSoC5/USBUART_cdc.c **** *  This function returns a non-zero value if the component is ready to send more
 588:Generated_Source\PSoC5/USBUART_cdc.c **** *  data to the PC; otherwise, it returns zero. The function should be called
 589:Generated_Source\PSoC5/USBUART_cdc.c **** *  before sending new data when using any of the following APIs:
 590:Generated_Source\PSoC5/USBUART_cdc.c **** *  USBUART_PutData(),USBUART_PutString(),
 591:Generated_Source\PSoC5/USBUART_cdc.c **** *  USBUART_PutChar or USBUART_PutCRLF(),
 592:Generated_Source\PSoC5/USBUART_cdc.c **** *  to be sure that the previous data has finished sending.
 593:Generated_Source\PSoC5/USBUART_cdc.c **** *
 594:Generated_Source\PSoC5/USBUART_cdc.c **** * \return
 595:Generated_Source\PSoC5/USBUART_cdc.c **** *  If the buffer can accept new data, this function returns a non-zero value.
 596:Generated_Source\PSoC5/USBUART_cdc.c **** *  Otherwise, it returns zero.
 597:Generated_Source\PSoC5/USBUART_cdc.c **** *
 598:Generated_Source\PSoC5/USBUART_cdc.c **** * \globalvars
 599:Generated_Source\PSoC5/USBUART_cdc.c **** *   USBUART_cdcDataInEp: CDC IN endpoint number used.
 600:Generated_Source\PSoC5/USBUART_cdc.c **** *
 601:Generated_Source\PSoC5/USBUART_cdc.c **** *******************************************************************************/
 602:Generated_Source\PSoC5/USBUART_cdc.c **** uint8 USBUART_CDCIsReady(void) 
 603:Generated_Source\PSoC5/USBUART_cdc.c **** {
 748              		.loc 1 603 0
 749              		.cfi_startproc
 750              		@ args = 0, pretend = 0, frame = 0
 751              		@ frame_needed = 0, uses_anonymous_args = 0
 752 0000 08B5     		push	{r3, lr}
 753              		.cfi_def_cfa_offset 8
 754              		.cfi_offset 3, -8
 755              		.cfi_offset 14, -4
 604:Generated_Source\PSoC5/USBUART_cdc.c ****     return (USBUART_GetEPState(USBUART_cdcDataInEp[USBUART_activeCom]));
 756              		.loc 1 604 0
 757 0002 034B     		ldr	r3, .L74
 758 0004 1B78     		ldrb	r3, [r3]	@ zero_extendqisi2
 759 0006 034A     		ldr	r2, .L74+4
 760 0008 D05C     		ldrb	r0, [r2, r3]	@ zero_extendqisi2
 761 000a FFF7FEFF 		bl	USBUART_GetEPState
 762              	.LVL74:
 605:Generated_Source\PSoC5/USBUART_cdc.c **** }
ARM GAS  C:\Users\ingan\AppData\Local\Temp\ccoalNGJ.s 			page 26


 763              		.loc 1 605 0
 764 000e 08BD     		pop	{r3, pc}
 765              	.L75:
 766              		.align	2
 767              	.L74:
 768 0010 00000000 		.word	.LANCHOR1
 769 0014 00000000 		.word	USBUART_cdcDataInEp
 770              		.cfi_endproc
 771              	.LFE10:
 772              		.size	USBUART_CDCIsReady, .-USBUART_CDCIsReady
 773              		.section	.text.USBUART_GetData,"ax",%progbits
 774              		.align	2
 775              		.global	USBUART_GetData
 776              		.thumb
 777              		.thumb_func
 778              		.type	USBUART_GetData, %function
 779              	USBUART_GetData:
 780              	.LFB11:
 606:Generated_Source\PSoC5/USBUART_cdc.c **** 
 607:Generated_Source\PSoC5/USBUART_cdc.c **** 
 608:Generated_Source\PSoC5/USBUART_cdc.c **** /***************************************************************************
 609:Generated_Source\PSoC5/USBUART_cdc.c **** * Function Name: USBUART_GetData
 610:Generated_Source\PSoC5/USBUART_cdc.c **** ************************************************************************//**
 611:Generated_Source\PSoC5/USBUART_cdc.c **** *
 612:Generated_Source\PSoC5/USBUART_cdc.c **** *  This function gets a specified number of bytes from the input buffer and
 613:Generated_Source\PSoC5/USBUART_cdc.c **** *  places them in a data array specified by the passed pointer.
 614:Generated_Source\PSoC5/USBUART_cdc.c **** *  The USBUART_DataIsReady() API should be called first, to be sure
 615:Generated_Source\PSoC5/USBUART_cdc.c **** *  that data is received from the host. If all received data will not be read at
 616:Generated_Source\PSoC5/USBUART_cdc.c **** *  once, the unread data will be lost. The USBUART_GetData() API should
 617:Generated_Source\PSoC5/USBUART_cdc.c **** *  be called to get the number of bytes that were received.
 618:Generated_Source\PSoC5/USBUART_cdc.c **** *
 619:Generated_Source\PSoC5/USBUART_cdc.c **** *  \param pData: Pointer to the data array where data will be placed.
 620:Generated_Source\PSoC5/USBUART_cdc.c **** *  \param Length: Number of bytes to read into the data array from the RX buffer.
 621:Generated_Source\PSoC5/USBUART_cdc.c **** *          Maximum length is limited by the the number of received bytes
 622:Generated_Source\PSoC5/USBUART_cdc.c **** *          or 64 bytes.
 623:Generated_Source\PSoC5/USBUART_cdc.c **** *
 624:Generated_Source\PSoC5/USBUART_cdc.c **** * \return
 625:Generated_Source\PSoC5/USBUART_cdc.c **** *         Number of bytes which function moves from endpoint RAM into the
 626:Generated_Source\PSoC5/USBUART_cdc.c **** *         data array. The function moves fewer than the requested number
 627:Generated_Source\PSoC5/USBUART_cdc.c **** *         of bytes if the host sends fewer bytes than requested or sends
 628:Generated_Source\PSoC5/USBUART_cdc.c **** *         zero-length packet.
 629:Generated_Source\PSoC5/USBUART_cdc.c **** *
 630:Generated_Source\PSoC5/USBUART_cdc.c **** * \globalvars
 631:Generated_Source\PSoC5/USBUART_cdc.c **** *   USBUART_cdcDataOutEp: CDC OUT endpoint number used.
 632:Generated_Source\PSoC5/USBUART_cdc.c **** *
 633:Generated_Source\PSoC5/USBUART_cdc.c **** * \reentrant
 634:Generated_Source\PSoC5/USBUART_cdc.c **** *  No.
 635:Generated_Source\PSoC5/USBUART_cdc.c **** *
 636:Generated_Source\PSoC5/USBUART_cdc.c **** ***************************************************************************/
 637:Generated_Source\PSoC5/USBUART_cdc.c **** uint16 USBUART_GetData(uint8* pData, uint16 length) 
 638:Generated_Source\PSoC5/USBUART_cdc.c **** {
 781              		.loc 1 638 0
 782              		.cfi_startproc
 783              		@ args = 0, pretend = 0, frame = 0
 784              		@ frame_needed = 0, uses_anonymous_args = 0
 785              	.LVL75:
 786 0000 38B5     		push	{r3, r4, r5, lr}
ARM GAS  C:\Users\ingan\AppData\Local\Temp\ccoalNGJ.s 			page 27


 787              		.cfi_def_cfa_offset 16
 788              		.cfi_offset 3, -16
 789              		.cfi_offset 4, -12
 790              		.cfi_offset 5, -8
 791              		.cfi_offset 14, -4
 639:Generated_Source\PSoC5/USBUART_cdc.c ****     uint8 epNumber = USBUART_cdcDataOutEp[USBUART_activeCom];
 792              		.loc 1 639 0
 793 0002 0A4B     		ldr	r3, .L79
 794 0004 1B78     		ldrb	r3, [r3]	@ zero_extendqisi2
 795 0006 0A4A     		ldr	r2, .L79+4
 796 0008 D45C     		ldrb	r4, [r2, r3]	@ zero_extendqisi2
 797 000a E4B2     		uxtb	r4, r4
 798              	.LVL76:
 640:Generated_Source\PSoC5/USBUART_cdc.c **** 
 641:Generated_Source\PSoC5/USBUART_cdc.c ****     /* Read data from OUT endpoint buffer. */
 642:Generated_Source\PSoC5/USBUART_cdc.c ****     length = USBUART_ReadOutEP(epNumber, pData, length);
 799              		.loc 1 642 0
 800 000c 0A46     		mov	r2, r1
 801 000e 0146     		mov	r1, r0
 802              	.LVL77:
 803 0010 2046     		mov	r0, r4
 804              	.LVL78:
 805 0012 FFF7FEFF 		bl	USBUART_ReadOutEP
 806              	.LVL79:
 807 0016 0546     		mov	r5, r0
 808              	.LVL80:
 809              	.L77:
 643:Generated_Source\PSoC5/USBUART_cdc.c **** 
 644:Generated_Source\PSoC5/USBUART_cdc.c **** #if (USBUART_EP_MANAGEMENT_DMA_MANUAL)
 645:Generated_Source\PSoC5/USBUART_cdc.c ****     /* Wait until DMA complete transferring data from OUT endpoint buffer. */
 646:Generated_Source\PSoC5/USBUART_cdc.c ****     while (USBUART_OUT_BUFFER_FULL == USBUART_GetEPState(epNumber))
 810              		.loc 1 646 0 discriminator 1
 811 0018 2046     		mov	r0, r4
 812 001a FFF7FEFF 		bl	USBUART_GetEPState
 813              	.LVL81:
 814 001e 0128     		cmp	r0, #1
 815 0020 FAD0     		beq	.L77
 647:Generated_Source\PSoC5/USBUART_cdc.c ****     {
 648:Generated_Source\PSoC5/USBUART_cdc.c ****     }
 649:Generated_Source\PSoC5/USBUART_cdc.c **** 
 650:Generated_Source\PSoC5/USBUART_cdc.c ****     /* Enable OUT endpoint to communicate with host. */
 651:Generated_Source\PSoC5/USBUART_cdc.c ****     USBUART_EnableOutEP(epNumber);
 816              		.loc 1 651 0
 817 0022 2046     		mov	r0, r4
 818 0024 FFF7FEFF 		bl	USBUART_EnableOutEP
 819              	.LVL82:
 652:Generated_Source\PSoC5/USBUART_cdc.c **** #endif /* (USBUART_EP_MANAGEMENT_DMA_MANUAL) */
 653:Generated_Source\PSoC5/USBUART_cdc.c **** 
 654:Generated_Source\PSoC5/USBUART_cdc.c ****     return (length);
 655:Generated_Source\PSoC5/USBUART_cdc.c **** }
 820              		.loc 1 655 0
 821 0028 2846     		mov	r0, r5
 822 002a 38BD     		pop	{r3, r4, r5, pc}
 823              	.LVL83:
 824              	.L80:
 825              		.align	2
 826              	.L79:
ARM GAS  C:\Users\ingan\AppData\Local\Temp\ccoalNGJ.s 			page 28


 827 002c 00000000 		.word	.LANCHOR1
 828 0030 00000000 		.word	USBUART_cdcDataOutEp
 829              		.cfi_endproc
 830              	.LFE11:
 831              		.size	USBUART_GetData, .-USBUART_GetData
 832              		.section	.text.USBUART_GetAll,"ax",%progbits
 833              		.align	2
 834              		.global	USBUART_GetAll
 835              		.thumb
 836              		.thumb_func
 837              		.type	USBUART_GetAll, %function
 838              	USBUART_GetAll:
 839              	.LFB12:
 656:Generated_Source\PSoC5/USBUART_cdc.c **** 
 657:Generated_Source\PSoC5/USBUART_cdc.c **** 
 658:Generated_Source\PSoC5/USBUART_cdc.c **** /*******************************************************************************
 659:Generated_Source\PSoC5/USBUART_cdc.c **** * Function Name: USBUART_GetAll
 660:Generated_Source\PSoC5/USBUART_cdc.c **** ****************************************************************************//**
 661:Generated_Source\PSoC5/USBUART_cdc.c **** *
 662:Generated_Source\PSoC5/USBUART_cdc.c **** *  This function gets all bytes of received data from the input buffer and
 663:Generated_Source\PSoC5/USBUART_cdc.c **** *  places them into a specified data array. The
 664:Generated_Source\PSoC5/USBUART_cdc.c **** *  USBUART_DataIsReady() API should be called first, to be sure
 665:Generated_Source\PSoC5/USBUART_cdc.c **** *  that data is received from the host.
 666:Generated_Source\PSoC5/USBUART_cdc.c **** *
 667:Generated_Source\PSoC5/USBUART_cdc.c **** *  \param pData: Pointer to the data array where data will be placed.
 668:Generated_Source\PSoC5/USBUART_cdc.c **** *
 669:Generated_Source\PSoC5/USBUART_cdc.c **** * \return
 670:Generated_Source\PSoC5/USBUART_cdc.c **** *  Number of bytes received. The maximum amount of the received at a time
 671:Generated_Source\PSoC5/USBUART_cdc.c **** *  data is 64 bytes.
 672:Generated_Source\PSoC5/USBUART_cdc.c **** *
 673:Generated_Source\PSoC5/USBUART_cdc.c **** * \globalvars
 674:Generated_Source\PSoC5/USBUART_cdc.c **** *   - \ref USBUART_cdcDataOutEp: CDC OUT endpoint number used.
 675:Generated_Source\PSoC5/USBUART_cdc.c **** *   - \ref USBUART_EP[].bufferSize: EP max packet size is used as a
 676:Generated_Source\PSoC5/USBUART_cdc.c **** *     length to read all data from the EP buffer.
 677:Generated_Source\PSoC5/USBUART_cdc.c **** *
 678:Generated_Source\PSoC5/USBUART_cdc.c **** * \reentrant
 679:Generated_Source\PSoC5/USBUART_cdc.c **** *  No.
 680:Generated_Source\PSoC5/USBUART_cdc.c **** *
 681:Generated_Source\PSoC5/USBUART_cdc.c **** *******************************************************************************/
 682:Generated_Source\PSoC5/USBUART_cdc.c **** uint16 USBUART_GetAll(uint8* pData) 
 683:Generated_Source\PSoC5/USBUART_cdc.c **** {
 840              		.loc 1 683 0
 841              		.cfi_startproc
 842              		@ args = 0, pretend = 0, frame = 0
 843              		@ frame_needed = 0, uses_anonymous_args = 0
 844              	.LVL84:
 845 0000 38B5     		push	{r3, r4, r5, lr}
 846              		.cfi_def_cfa_offset 16
 847              		.cfi_offset 3, -16
 848              		.cfi_offset 4, -12
 849              		.cfi_offset 5, -8
 850              		.cfi_offset 14, -4
 684:Generated_Source\PSoC5/USBUART_cdc.c ****     uint8 epNumber = USBUART_cdcDataOutEp[USBUART_activeCom];
 851              		.loc 1 684 0
 852 0002 0D4B     		ldr	r3, .L84
 853 0004 1B78     		ldrb	r3, [r3]	@ zero_extendqisi2
 854 0006 0D4A     		ldr	r2, .L84+4
ARM GAS  C:\Users\ingan\AppData\Local\Temp\ccoalNGJ.s 			page 29


 855 0008 D45C     		ldrb	r4, [r2, r3]	@ zero_extendqisi2
 856 000a E4B2     		uxtb	r4, r4
 857              	.LVL85:
 685:Generated_Source\PSoC5/USBUART_cdc.c ****     uint16 dataLength;
 686:Generated_Source\PSoC5/USBUART_cdc.c **** 
 687:Generated_Source\PSoC5/USBUART_cdc.c ****     /* Read data from OUT endpoint buffer. */
 688:Generated_Source\PSoC5/USBUART_cdc.c ****     dataLength = USBUART_ReadOutEP(epNumber, pData, USBUART_EP[epNumber].bufferSize);
 858              		.loc 1 688 0
 859 000c 04EB4402 		add	r2, r4, r4, lsl #1
 860 0010 9300     		lsls	r3, r2, #2
 861 0012 0B4A     		ldr	r2, .L84+8
 862 0014 1344     		add	r3, r3, r2
 863 0016 1A89     		ldrh	r2, [r3, #8]
 864 0018 92B2     		uxth	r2, r2
 865 001a 0146     		mov	r1, r0
 866 001c 2046     		mov	r0, r4
 867              	.LVL86:
 868 001e FFF7FEFF 		bl	USBUART_ReadOutEP
 869              	.LVL87:
 870 0022 0546     		mov	r5, r0
 871              	.LVL88:
 872              	.L82:
 689:Generated_Source\PSoC5/USBUART_cdc.c **** 
 690:Generated_Source\PSoC5/USBUART_cdc.c **** #if (USBUART_EP_MANAGEMENT_DMA_MANUAL)
 691:Generated_Source\PSoC5/USBUART_cdc.c ****     /* Wait until DMA complete transferring data from OUT endpoint buffer. */
 692:Generated_Source\PSoC5/USBUART_cdc.c ****     while (USBUART_OUT_BUFFER_FULL == USBUART_GetEPState(epNumber))
 873              		.loc 1 692 0 discriminator 1
 874 0024 2046     		mov	r0, r4
 875 0026 FFF7FEFF 		bl	USBUART_GetEPState
 876              	.LVL89:
 877 002a 0128     		cmp	r0, #1
 878 002c FAD0     		beq	.L82
 693:Generated_Source\PSoC5/USBUART_cdc.c ****     {
 694:Generated_Source\PSoC5/USBUART_cdc.c ****     }
 695:Generated_Source\PSoC5/USBUART_cdc.c **** 
 696:Generated_Source\PSoC5/USBUART_cdc.c ****     /* Enable OUT endpoint to communicate with host. */
 697:Generated_Source\PSoC5/USBUART_cdc.c ****     USBUART_EnableOutEP(epNumber);
 879              		.loc 1 697 0
 880 002e 2046     		mov	r0, r4
 881 0030 FFF7FEFF 		bl	USBUART_EnableOutEP
 882              	.LVL90:
 698:Generated_Source\PSoC5/USBUART_cdc.c **** #endif /* (USBUART_EP_MANAGEMENT_DMA_MANUAL) */
 699:Generated_Source\PSoC5/USBUART_cdc.c **** 
 700:Generated_Source\PSoC5/USBUART_cdc.c ****     return (dataLength);
 701:Generated_Source\PSoC5/USBUART_cdc.c **** }
 883              		.loc 1 701 0
 884 0034 2846     		mov	r0, r5
 885 0036 38BD     		pop	{r3, r4, r5, pc}
 886              	.LVL91:
 887              	.L85:
 888              		.align	2
 889              	.L84:
 890 0038 00000000 		.word	.LANCHOR1
 891 003c 00000000 		.word	USBUART_cdcDataOutEp
 892 0040 00000000 		.word	USBUART_EP
 893              		.cfi_endproc
 894              	.LFE12:
ARM GAS  C:\Users\ingan\AppData\Local\Temp\ccoalNGJ.s 			page 30


 895              		.size	USBUART_GetAll, .-USBUART_GetAll
 896              		.section	.text.USBUART_GetChar,"ax",%progbits
 897              		.align	2
 898              		.global	USBUART_GetChar
 899              		.thumb
 900              		.thumb_func
 901              		.type	USBUART_GetChar, %function
 902              	USBUART_GetChar:
 903              	.LFB13:
 702:Generated_Source\PSoC5/USBUART_cdc.c **** 
 703:Generated_Source\PSoC5/USBUART_cdc.c **** 
 704:Generated_Source\PSoC5/USBUART_cdc.c **** /***************************************************************************
 705:Generated_Source\PSoC5/USBUART_cdc.c **** * Function Name: USBUART_GetChar
 706:Generated_Source\PSoC5/USBUART_cdc.c **** ************************************************************************//**
 707:Generated_Source\PSoC5/USBUART_cdc.c **** *
 708:Generated_Source\PSoC5/USBUART_cdc.c **** *  This function reads one byte of received data from the buffer. If more than
 709:Generated_Source\PSoC5/USBUART_cdc.c **** *  one byte has been received from the host, the rest of the data will be lost.
 710:Generated_Source\PSoC5/USBUART_cdc.c **** *
 711:Generated_Source\PSoC5/USBUART_cdc.c **** * \return
 712:Generated_Source\PSoC5/USBUART_cdc.c **** *  Received one character.
 713:Generated_Source\PSoC5/USBUART_cdc.c **** *
 714:Generated_Source\PSoC5/USBUART_cdc.c **** * \globalvars
 715:Generated_Source\PSoC5/USBUART_cdc.c **** *   USBUART_cdcDataOutEp: CDC OUT endpoint number used.
 716:Generated_Source\PSoC5/USBUART_cdc.c **** *
 717:Generated_Source\PSoC5/USBUART_cdc.c **** * \reentrant
 718:Generated_Source\PSoC5/USBUART_cdc.c **** *  No.
 719:Generated_Source\PSoC5/USBUART_cdc.c **** *
 720:Generated_Source\PSoC5/USBUART_cdc.c **** ***************************************************************************/
 721:Generated_Source\PSoC5/USBUART_cdc.c **** uint8 USBUART_GetChar(void) 
 722:Generated_Source\PSoC5/USBUART_cdc.c **** {
 904              		.loc 1 722 0
 905              		.cfi_startproc
 906              		@ args = 0, pretend = 0, frame = 8
 907              		@ frame_needed = 0, uses_anonymous_args = 0
 908 0000 10B5     		push	{r4, lr}
 909              		.cfi_def_cfa_offset 8
 910              		.cfi_offset 4, -8
 911              		.cfi_offset 14, -4
 912 0002 82B0     		sub	sp, sp, #8
 913              		.cfi_def_cfa_offset 16
 723:Generated_Source\PSoC5/USBUART_cdc.c ****      uint8 rxData;
 724:Generated_Source\PSoC5/USBUART_cdc.c ****      uint8 epNumber = USBUART_cdcDataOutEp[USBUART_activeCom];
 914              		.loc 1 724 0
 915 0004 0B4B     		ldr	r3, .L89
 916 0006 1B78     		ldrb	r3, [r3]	@ zero_extendqisi2
 917 0008 0B4A     		ldr	r2, .L89+4
 918 000a D45C     		ldrb	r4, [r2, r3]	@ zero_extendqisi2
 919 000c E4B2     		uxtb	r4, r4
 920              	.LVL92:
 725:Generated_Source\PSoC5/USBUART_cdc.c **** 
 726:Generated_Source\PSoC5/USBUART_cdc.c ****     (void) USBUART_ReadOutEP(epNumber, &rxData, 1u);
 921              		.loc 1 726 0
 922 000e 0122     		movs	r2, #1
 923 0010 0DF10701 		add	r1, sp, #7
 924 0014 2046     		mov	r0, r4
 925 0016 FFF7FEFF 		bl	USBUART_ReadOutEP
 926              	.LVL93:
ARM GAS  C:\Users\ingan\AppData\Local\Temp\ccoalNGJ.s 			page 31


 927              	.L87:
 727:Generated_Source\PSoC5/USBUART_cdc.c **** 
 728:Generated_Source\PSoC5/USBUART_cdc.c **** #if (USBUART_EP_MANAGEMENT_DMA_MANUAL)
 729:Generated_Source\PSoC5/USBUART_cdc.c ****     /* Wait until DMA complete transferring data from OUT endpoint buffer. */
 730:Generated_Source\PSoC5/USBUART_cdc.c ****     while (USBUART_OUT_BUFFER_FULL == USBUART_GetEPState(epNumber))
 928              		.loc 1 730 0 discriminator 1
 929 001a 2046     		mov	r0, r4
 930 001c FFF7FEFF 		bl	USBUART_GetEPState
 931              	.LVL94:
 932 0020 0128     		cmp	r0, #1
 933 0022 FAD0     		beq	.L87
 731:Generated_Source\PSoC5/USBUART_cdc.c ****     {
 732:Generated_Source\PSoC5/USBUART_cdc.c ****     }
 733:Generated_Source\PSoC5/USBUART_cdc.c **** 
 734:Generated_Source\PSoC5/USBUART_cdc.c ****     /* Enable OUT endpoint to communicate with host. */
 735:Generated_Source\PSoC5/USBUART_cdc.c ****     USBUART_EnableOutEP(epNumber);
 934              		.loc 1 735 0
 935 0024 2046     		mov	r0, r4
 936 0026 FFF7FEFF 		bl	USBUART_EnableOutEP
 937              	.LVL95:
 736:Generated_Source\PSoC5/USBUART_cdc.c **** #endif /* (USBUART_EP_MANAGEMENT_DMA_MANUAL) */
 737:Generated_Source\PSoC5/USBUART_cdc.c **** 
 738:Generated_Source\PSoC5/USBUART_cdc.c ****     return (rxData);
 739:Generated_Source\PSoC5/USBUART_cdc.c **** }
 938              		.loc 1 739 0
 939 002a 9DF80700 		ldrb	r0, [sp, #7]	@ zero_extendqisi2
 940 002e 02B0     		add	sp, sp, #8
 941              		.cfi_def_cfa_offset 8
 942              		@ sp needed
 943 0030 10BD     		pop	{r4, pc}
 944              	.LVL96:
 945              	.L90:
 946 0032 00BF     		.align	2
 947              	.L89:
 948 0034 00000000 		.word	.LANCHOR1
 949 0038 00000000 		.word	USBUART_cdcDataOutEp
 950              		.cfi_endproc
 951              	.LFE13:
 952              		.size	USBUART_GetChar, .-USBUART_GetChar
 953              		.section	.text.USBUART_IsLineChanged,"ax",%progbits
 954              		.align	2
 955              		.global	USBUART_IsLineChanged
 956              		.thumb
 957              		.thumb_func
 958              		.type	USBUART_IsLineChanged, %function
 959              	USBUART_IsLineChanged:
 960              	.LFB14:
 740:Generated_Source\PSoC5/USBUART_cdc.c **** 
 741:Generated_Source\PSoC5/USBUART_cdc.c **** 
 742:Generated_Source\PSoC5/USBUART_cdc.c **** /*******************************************************************************
 743:Generated_Source\PSoC5/USBUART_cdc.c **** * Function Name: USBUART_IsLineChanged
 744:Generated_Source\PSoC5/USBUART_cdc.c **** ****************************************************************************//**
 745:Generated_Source\PSoC5/USBUART_cdc.c **** *
 746:Generated_Source\PSoC5/USBUART_cdc.c **** *  This function returns clear on read status of the line. It returns not zero
 747:Generated_Source\PSoC5/USBUART_cdc.c **** *  value when the host sends updated coding or control information to the
 748:Generated_Source\PSoC5/USBUART_cdc.c **** *  device. The USBUART_GetDTERate(), USBUART_GetCharFormat()
 749:Generated_Source\PSoC5/USBUART_cdc.c **** *  or USBUART_GetParityType() or USBUART_GetDataBits() API
ARM GAS  C:\Users\ingan\AppData\Local\Temp\ccoalNGJ.s 			page 32


 750:Generated_Source\PSoC5/USBUART_cdc.c **** *  should be called to read data coding information.
 751:Generated_Source\PSoC5/USBUART_cdc.c **** *  The USBUART_GetLineControl() API should be called to read line
 752:Generated_Source\PSoC5/USBUART_cdc.c **** *  control information.
 753:Generated_Source\PSoC5/USBUART_cdc.c **** *
 754:Generated_Source\PSoC5/USBUART_cdc.c **** * \return
 755:Generated_Source\PSoC5/USBUART_cdc.c **** *  If SET_LINE_CODING or CDC_SET_CONTROL_LINE_STATE requests are received, it
 756:Generated_Source\PSoC5/USBUART_cdc.c **** *  returns a non-zero value. Otherwise, it returns zero.
 757:Generated_Source\PSoC5/USBUART_cdc.c **** *  Return Value                 | Description
 758:Generated_Source\PSoC5/USBUART_cdc.c **** *  -----------------------------|--------------------------
 759:Generated_Source\PSoC5/USBUART_cdc.c **** *  USBUART_LINE_CODING_CHANGED  | Line coding changed
 760:Generated_Source\PSoC5/USBUART_cdc.c **** *  USBUART_LINE_CONTROL_CHANGED |   Line control changed
 761:Generated_Source\PSoC5/USBUART_cdc.c **** *
 762:Generated_Source\PSoC5/USBUART_cdc.c **** * \globalvars
 763:Generated_Source\PSoC5/USBUART_cdc.c **** *  - \ref USBUART_transferState: it is checked to be sure then OUT
 764:Generated_Source\PSoC5/USBUART_cdc.c **** *    data phase has been complete, and data written to the lineCoding or
 765:Generated_Source\PSoC5/USBUART_cdc.c **** *    Control Bitmap buffer.
 766:Generated_Source\PSoC5/USBUART_cdc.c **** *  - \ref USBUART_linesChanged: used as a flag to be aware that
 767:Generated_Source\PSoC5/USBUART_cdc.c **** *    Host has been sent request for changing Line Coding or Control Bitmap.
 768:Generated_Source\PSoC5/USBUART_cdc.c **** *
 769:Generated_Source\PSoC5/USBUART_cdc.c **** *******************************************************************************/
 770:Generated_Source\PSoC5/USBUART_cdc.c **** uint8 USBUART_IsLineChanged(void) 
 771:Generated_Source\PSoC5/USBUART_cdc.c **** {
 961              		.loc 1 771 0
 962              		.cfi_startproc
 963              		@ args = 0, pretend = 0, frame = 0
 964              		@ frame_needed = 0, uses_anonymous_args = 0
 965              		@ link register save eliminated.
 966              	.LVL97:
 772:Generated_Source\PSoC5/USBUART_cdc.c ****     uint8 state = 0u;
 773:Generated_Source\PSoC5/USBUART_cdc.c **** 
 774:Generated_Source\PSoC5/USBUART_cdc.c ****     /* transferState is checked to be sure then OUT data phase has been complete */
 775:Generated_Source\PSoC5/USBUART_cdc.c ****     if (USBUART_transferState == USBUART_TRANS_STATE_IDLE)
 967              		.loc 1 775 0
 968 0000 0A4B     		ldr	r3, .L95
 969 0002 1B78     		ldrb	r3, [r3]	@ zero_extendqisi2
 970 0004 13F0FF0F 		tst	r3, #255
 971 0008 0CD1     		bne	.L93
 776:Generated_Source\PSoC5/USBUART_cdc.c ****     {
 777:Generated_Source\PSoC5/USBUART_cdc.c ****         if (USBUART_linesChanged[USBUART_activeCom] != 0u)
 972              		.loc 1 777 0
 973 000a 094B     		ldr	r3, .L95+4
 974 000c 1B78     		ldrb	r3, [r3]	@ zero_extendqisi2
 975 000e 094A     		ldr	r2, .L95+8
 976 0010 D25C     		ldrb	r2, [r2, r3]	@ zero_extendqisi2
 977 0012 12F0FF0F 		tst	r2, #255
 978 0016 07D0     		beq	.L94
 778:Generated_Source\PSoC5/USBUART_cdc.c ****         {
 779:Generated_Source\PSoC5/USBUART_cdc.c ****             state = USBUART_linesChanged[USBUART_activeCom];
 979              		.loc 1 779 0
 980 0018 064A     		ldr	r2, .L95+8
 981 001a D05C     		ldrb	r0, [r2, r3]	@ zero_extendqisi2
 982 001c C0B2     		uxtb	r0, r0
 983              	.LVL98:
 780:Generated_Source\PSoC5/USBUART_cdc.c ****             USBUART_linesChanged[USBUART_activeCom] = 0u;
 984              		.loc 1 780 0
 985 001e 0021     		movs	r1, #0
 986 0020 D154     		strb	r1, [r2, r3]
ARM GAS  C:\Users\ingan\AppData\Local\Temp\ccoalNGJ.s 			page 33


 987 0022 7047     		bx	lr
 988              	.LVL99:
 989              	.L93:
 772:Generated_Source\PSoC5/USBUART_cdc.c **** 
 990              		.loc 1 772 0
 991 0024 0020     		movs	r0, #0
 992 0026 7047     		bx	lr
 993              	.L94:
 994 0028 0020     		movs	r0, #0
 995              	.LVL100:
 781:Generated_Source\PSoC5/USBUART_cdc.c ****         }
 782:Generated_Source\PSoC5/USBUART_cdc.c ****     }
 783:Generated_Source\PSoC5/USBUART_cdc.c **** 
 784:Generated_Source\PSoC5/USBUART_cdc.c ****     return (state);
 785:Generated_Source\PSoC5/USBUART_cdc.c **** }
 996              		.loc 1 785 0
 997 002a 7047     		bx	lr
 998              	.L96:
 999              		.align	2
 1000              	.L95:
 1001 002c 00000000 		.word	USBUART_transferState
 1002 0030 00000000 		.word	.LANCHOR1
 1003 0034 00000000 		.word	USBUART_linesChanged
 1004              		.cfi_endproc
 1005              	.LFE14:
 1006              		.size	USBUART_IsLineChanged, .-USBUART_IsLineChanged
 1007              		.section	.text.USBUART_GetDTERate,"ax",%progbits
 1008              		.align	2
 1009              		.global	USBUART_GetDTERate
 1010              		.thumb
 1011              		.thumb_func
 1012              		.type	USBUART_GetDTERate, %function
 1013              	USBUART_GetDTERate:
 1014              	.LFB15:
 786:Generated_Source\PSoC5/USBUART_cdc.c **** 
 787:Generated_Source\PSoC5/USBUART_cdc.c **** 
 788:Generated_Source\PSoC5/USBUART_cdc.c **** /***************************************************************************
 789:Generated_Source\PSoC5/USBUART_cdc.c **** * Function Name: USBUART_GetDTERate
 790:Generated_Source\PSoC5/USBUART_cdc.c **** ************************************************************************//**
 791:Generated_Source\PSoC5/USBUART_cdc.c **** *
 792:Generated_Source\PSoC5/USBUART_cdc.c **** *  This function returns the data terminal rate set for this port in bits
 793:Generated_Source\PSoC5/USBUART_cdc.c **** *  per second.
 794:Generated_Source\PSoC5/USBUART_cdc.c **** *
 795:Generated_Source\PSoC5/USBUART_cdc.c **** * \return
 796:Generated_Source\PSoC5/USBUART_cdc.c **** *  Returns a uint32 value of the data rate in bits per second.
 797:Generated_Source\PSoC5/USBUART_cdc.c **** *
 798:Generated_Source\PSoC5/USBUART_cdc.c **** * \globalvars
 799:Generated_Source\PSoC5/USBUART_cdc.c **** *  USBUART_linesCoding: First four bytes converted to uint32
 800:Generated_Source\PSoC5/USBUART_cdc.c **** *    depend on compiler, and returned as a data rate.
 801:Generated_Source\PSoC5/USBUART_cdc.c **** *
 802:Generated_Source\PSoC5/USBUART_cdc.c **** *******************************************************************************/
 803:Generated_Source\PSoC5/USBUART_cdc.c **** uint32 USBUART_GetDTERate(void) 
 804:Generated_Source\PSoC5/USBUART_cdc.c **** {
 1015              		.loc 1 804 0
 1016              		.cfi_startproc
 1017              		@ args = 0, pretend = 0, frame = 0
 1018              		@ frame_needed = 0, uses_anonymous_args = 0
ARM GAS  C:\Users\ingan\AppData\Local\Temp\ccoalNGJ.s 			page 34


 1019              		@ link register save eliminated.
 1020 0000 10B4     		push	{r4}
 1021              		.cfi_def_cfa_offset 4
 1022              		.cfi_offset 4, -4
 805:Generated_Source\PSoC5/USBUART_cdc.c ****     uint32 rate;
 806:Generated_Source\PSoC5/USBUART_cdc.c **** 
 807:Generated_Source\PSoC5/USBUART_cdc.c ****     rate = USBUART_linesCoding[USBUART_activeCom][USBUART_LINE_CODING_RATE + 3u];
 1023              		.loc 1 807 0
 1024 0002 094B     		ldr	r3, .L99
 1025 0004 1B78     		ldrb	r3, [r3]	@ zero_extendqisi2
 1026 0006 094C     		ldr	r4, .L99+4
 1027 0008 C3EBC303 		rsb	r3, r3, r3, lsl #3
 1028 000c E118     		adds	r1, r4, r3
 1029 000e C878     		ldrb	r0, [r1, #3]	@ zero_extendqisi2
 1030              	.LVL101:
 808:Generated_Source\PSoC5/USBUART_cdc.c ****     rate = (rate << 8u) | USBUART_linesCoding[USBUART_activeCom][USBUART_LINE_CODING_RATE + 2u];
 1031              		.loc 1 808 0
 1032 0010 8A78     		ldrb	r2, [r1, #2]	@ zero_extendqisi2
 1033 0012 42EA0020 		orr	r0, r2, r0, lsl #8
 1034              	.LVL102:
 809:Generated_Source\PSoC5/USBUART_cdc.c ****     rate = (rate << 8u) | USBUART_linesCoding[USBUART_activeCom][USBUART_LINE_CODING_RATE + 1u];
 1035              		.loc 1 809 0
 1036 0016 4A78     		ldrb	r2, [r1, #1]	@ zero_extendqisi2
 1037 0018 42EA0022 		orr	r2, r2, r0, lsl #8
 1038              	.LVL103:
 810:Generated_Source\PSoC5/USBUART_cdc.c ****     rate = (rate << 8u) | USBUART_linesCoding[USBUART_activeCom][USBUART_LINE_CODING_RATE];
 1039              		.loc 1 810 0
 1040 001c E05C     		ldrb	r0, [r4, r3]	@ zero_extendqisi2
 1041              	.LVL104:
 811:Generated_Source\PSoC5/USBUART_cdc.c **** 
 812:Generated_Source\PSoC5/USBUART_cdc.c ****     return (rate);
 813:Generated_Source\PSoC5/USBUART_cdc.c **** }
 1042              		.loc 1 813 0
 1043 001e 40EA0220 		orr	r0, r0, r2, lsl #8
 1044              	.LVL105:
 1045 0022 10BC     		pop	{r4}
 1046              		.cfi_restore 4
 1047              		.cfi_def_cfa_offset 0
 1048 0024 7047     		bx	lr
 1049              	.L100:
 1050 0026 00BF     		.align	2
 1051              	.L99:
 1052 0028 00000000 		.word	.LANCHOR1
 1053 002c 00000000 		.word	.LANCHOR0
 1054              		.cfi_endproc
 1055              	.LFE15:
 1056              		.size	USBUART_GetDTERate, .-USBUART_GetDTERate
 1057              		.section	.text.USBUART_GetCharFormat,"ax",%progbits
 1058              		.align	2
 1059              		.global	USBUART_GetCharFormat
 1060              		.thumb
 1061              		.thumb_func
 1062              		.type	USBUART_GetCharFormat, %function
 1063              	USBUART_GetCharFormat:
 1064              	.LFB16:
 814:Generated_Source\PSoC5/USBUART_cdc.c **** 
 815:Generated_Source\PSoC5/USBUART_cdc.c **** 
ARM GAS  C:\Users\ingan\AppData\Local\Temp\ccoalNGJ.s 			page 35


 816:Generated_Source\PSoC5/USBUART_cdc.c **** /*******************************************************************************
 817:Generated_Source\PSoC5/USBUART_cdc.c **** * Function Name: USBUART_GetCharFormat
 818:Generated_Source\PSoC5/USBUART_cdc.c **** ****************************************************************************//**
 819:Generated_Source\PSoC5/USBUART_cdc.c **** *
 820:Generated_Source\PSoC5/USBUART_cdc.c **** *  Returns the number of stop bits.
 821:Generated_Source\PSoC5/USBUART_cdc.c **** *
 822:Generated_Source\PSoC5/USBUART_cdc.c **** * \return
 823:Generated_Source\PSoC5/USBUART_cdc.c **** *  Returns the number of stop bits.
 824:Generated_Source\PSoC5/USBUART_cdc.c **** *  Return               |Value Description
 825:Generated_Source\PSoC5/USBUART_cdc.c **** *  ---------------------|-------------------
 826:Generated_Source\PSoC5/USBUART_cdc.c **** *  USBUART_1_STOPBIT    | 1 stop bit
 827:Generated_Source\PSoC5/USBUART_cdc.c **** *  USBUART_1_5_STOPBITS | 1,5 stop bits
 828:Generated_Source\PSoC5/USBUART_cdc.c **** *  USBUART_2_STOPBITS   | 2 stop bits
 829:Generated_Source\PSoC5/USBUART_cdc.c **** *
 830:Generated_Source\PSoC5/USBUART_cdc.c **** *
 831:Generated_Source\PSoC5/USBUART_cdc.c **** * \globalvars
 832:Generated_Source\PSoC5/USBUART_cdc.c **** *  USBUART_linesCoding: used to get a parameter.
 833:Generated_Source\PSoC5/USBUART_cdc.c **** *
 834:Generated_Source\PSoC5/USBUART_cdc.c **** *******************************************************************************/
 835:Generated_Source\PSoC5/USBUART_cdc.c **** uint8 USBUART_GetCharFormat(void) 
 836:Generated_Source\PSoC5/USBUART_cdc.c **** {
 1065              		.loc 1 836 0
 1066              		.cfi_startproc
 1067              		@ args = 0, pretend = 0, frame = 0
 1068              		@ frame_needed = 0, uses_anonymous_args = 0
 1069              		@ link register save eliminated.
 837:Generated_Source\PSoC5/USBUART_cdc.c ****     return (USBUART_linesCoding[USBUART_activeCom][USBUART_LINE_CODING_STOP_BITS]);
 1070              		.loc 1 837 0
 1071 0000 034B     		ldr	r3, .L102
 1072 0002 1B78     		ldrb	r3, [r3]	@ zero_extendqisi2
 1073 0004 C3EBC303 		rsb	r3, r3, r3, lsl #3
 1074 0008 024A     		ldr	r2, .L102+4
 1075 000a 1344     		add	r3, r3, r2
 1076 000c 1879     		ldrb	r0, [r3, #4]	@ zero_extendqisi2
 838:Generated_Source\PSoC5/USBUART_cdc.c **** }
 1077              		.loc 1 838 0
 1078 000e 7047     		bx	lr
 1079              	.L103:
 1080              		.align	2
 1081              	.L102:
 1082 0010 00000000 		.word	.LANCHOR1
 1083 0014 00000000 		.word	.LANCHOR0
 1084              		.cfi_endproc
 1085              	.LFE16:
 1086              		.size	USBUART_GetCharFormat, .-USBUART_GetCharFormat
 1087              		.section	.text.USBUART_GetParityType,"ax",%progbits
 1088              		.align	2
 1089              		.global	USBUART_GetParityType
 1090              		.thumb
 1091              		.thumb_func
 1092              		.type	USBUART_GetParityType, %function
 1093              	USBUART_GetParityType:
 1094              	.LFB17:
 839:Generated_Source\PSoC5/USBUART_cdc.c **** 
 840:Generated_Source\PSoC5/USBUART_cdc.c **** 
 841:Generated_Source\PSoC5/USBUART_cdc.c **** /*******************************************************************************
 842:Generated_Source\PSoC5/USBUART_cdc.c **** * Function Name: USBUART_GetParityType
ARM GAS  C:\Users\ingan\AppData\Local\Temp\ccoalNGJ.s 			page 36


 843:Generated_Source\PSoC5/USBUART_cdc.c **** ****************************************************************************//**
 844:Generated_Source\PSoC5/USBUART_cdc.c **** *
 845:Generated_Source\PSoC5/USBUART_cdc.c **** *  This function returns the parity type for the CDC port.
 846:Generated_Source\PSoC5/USBUART_cdc.c **** *
 847:Generated_Source\PSoC5/USBUART_cdc.c **** * \return
 848:Generated_Source\PSoC5/USBUART_cdc.c **** *  Returns the parity type.
 849:Generated_Source\PSoC5/USBUART_cdc.c **** *   Return               | Value Description
 850:Generated_Source\PSoC5/USBUART_cdc.c **** *  ----------------------|-------------------
 851:Generated_Source\PSoC5/USBUART_cdc.c **** *  USBUART_PARITY_NONE   | 1 stop bit
 852:Generated_Source\PSoC5/USBUART_cdc.c **** *  USBUART_PARITY_ODD    | 1,5 stop bits
 853:Generated_Source\PSoC5/USBUART_cdc.c **** *  USBUART_PARITY_EVEN   | 2 stop bits
 854:Generated_Source\PSoC5/USBUART_cdc.c **** *  USBUART_PARITY_MARK   | Mark
 855:Generated_Source\PSoC5/USBUART_cdc.c **** *  USBUART_PARITY_SPACE  | Space
 856:Generated_Source\PSoC5/USBUART_cdc.c **** *
 857:Generated_Source\PSoC5/USBUART_cdc.c **** * \globalvars
 858:Generated_Source\PSoC5/USBUART_cdc.c **** *  USBUART_linesCoding: used to get a parameter.
 859:Generated_Source\PSoC5/USBUART_cdc.c **** *
 860:Generated_Source\PSoC5/USBUART_cdc.c **** *******************************************************************************/
 861:Generated_Source\PSoC5/USBUART_cdc.c **** uint8 USBUART_GetParityType(void) 
 862:Generated_Source\PSoC5/USBUART_cdc.c **** {
 1095              		.loc 1 862 0
 1096              		.cfi_startproc
 1097              		@ args = 0, pretend = 0, frame = 0
 1098              		@ frame_needed = 0, uses_anonymous_args = 0
 1099              		@ link register save eliminated.
 863:Generated_Source\PSoC5/USBUART_cdc.c ****     return (USBUART_linesCoding[USBUART_activeCom][USBUART_LINE_CODING_PARITY]);
 1100              		.loc 1 863 0
 1101 0000 034B     		ldr	r3, .L105
 1102 0002 1B78     		ldrb	r3, [r3]	@ zero_extendqisi2
 1103 0004 C3EBC303 		rsb	r3, r3, r3, lsl #3
 1104 0008 024A     		ldr	r2, .L105+4
 1105 000a 1344     		add	r3, r3, r2
 1106 000c 5879     		ldrb	r0, [r3, #5]	@ zero_extendqisi2
 864:Generated_Source\PSoC5/USBUART_cdc.c **** }
 1107              		.loc 1 864 0
 1108 000e 7047     		bx	lr
 1109              	.L106:
 1110              		.align	2
 1111              	.L105:
 1112 0010 00000000 		.word	.LANCHOR1
 1113 0014 00000000 		.word	.LANCHOR0
 1114              		.cfi_endproc
 1115              	.LFE17:
 1116              		.size	USBUART_GetParityType, .-USBUART_GetParityType
 1117              		.section	.text.USBUART_GetDataBits,"ax",%progbits
 1118              		.align	2
 1119              		.global	USBUART_GetDataBits
 1120              		.thumb
 1121              		.thumb_func
 1122              		.type	USBUART_GetDataBits, %function
 1123              	USBUART_GetDataBits:
 1124              	.LFB18:
 865:Generated_Source\PSoC5/USBUART_cdc.c **** 
 866:Generated_Source\PSoC5/USBUART_cdc.c **** 
 867:Generated_Source\PSoC5/USBUART_cdc.c **** /***************************************************************************
 868:Generated_Source\PSoC5/USBUART_cdc.c **** * Function Name: USBUART_GetDataBits
 869:Generated_Source\PSoC5/USBUART_cdc.c **** ************************************************************************//**
ARM GAS  C:\Users\ingan\AppData\Local\Temp\ccoalNGJ.s 			page 37


 870:Generated_Source\PSoC5/USBUART_cdc.c **** *
 871:Generated_Source\PSoC5/USBUART_cdc.c **** *  This function returns the number of data bits for the CDC port.
 872:Generated_Source\PSoC5/USBUART_cdc.c **** *
 873:Generated_Source\PSoC5/USBUART_cdc.c **** * \return
 874:Generated_Source\PSoC5/USBUART_cdc.c **** *  Returns the number of data bits.
 875:Generated_Source\PSoC5/USBUART_cdc.c **** *  The number of data bits can be 5, 6, 7, 8 or 16.
 876:Generated_Source\PSoC5/USBUART_cdc.c **** *
 877:Generated_Source\PSoC5/USBUART_cdc.c **** * \globalvars
 878:Generated_Source\PSoC5/USBUART_cdc.c **** *  USBUART_linesCoding: used to get a parameter.
 879:Generated_Source\PSoC5/USBUART_cdc.c **** *
 880:Generated_Source\PSoC5/USBUART_cdc.c **** *******************************************************************************/
 881:Generated_Source\PSoC5/USBUART_cdc.c **** uint8 USBUART_GetDataBits(void) 
 882:Generated_Source\PSoC5/USBUART_cdc.c **** {
 1125              		.loc 1 882 0
 1126              		.cfi_startproc
 1127              		@ args = 0, pretend = 0, frame = 0
 1128              		@ frame_needed = 0, uses_anonymous_args = 0
 1129              		@ link register save eliminated.
 883:Generated_Source\PSoC5/USBUART_cdc.c ****     return (USBUART_linesCoding[USBUART_activeCom][USBUART_LINE_CODING_DATA_BITS]);
 1130              		.loc 1 883 0
 1131 0000 034B     		ldr	r3, .L108
 1132 0002 1B78     		ldrb	r3, [r3]	@ zero_extendqisi2
 1133 0004 C3EBC303 		rsb	r3, r3, r3, lsl #3
 1134 0008 024A     		ldr	r2, .L108+4
 1135 000a 1344     		add	r3, r3, r2
 1136 000c 9879     		ldrb	r0, [r3, #6]	@ zero_extendqisi2
 884:Generated_Source\PSoC5/USBUART_cdc.c **** }
 1137              		.loc 1 884 0
 1138 000e 7047     		bx	lr
 1139              	.L109:
 1140              		.align	2
 1141              	.L108:
 1142 0010 00000000 		.word	.LANCHOR1
 1143 0014 00000000 		.word	.LANCHOR0
 1144              		.cfi_endproc
 1145              	.LFE18:
 1146              		.size	USBUART_GetDataBits, .-USBUART_GetDataBits
 1147              		.section	.text.USBUART_GetLineControl,"ax",%progbits
 1148              		.align	2
 1149              		.global	USBUART_GetLineControl
 1150              		.thumb
 1151              		.thumb_func
 1152              		.type	USBUART_GetLineControl, %function
 1153              	USBUART_GetLineControl:
 1154              	.LFB19:
 885:Generated_Source\PSoC5/USBUART_cdc.c **** 
 886:Generated_Source\PSoC5/USBUART_cdc.c **** 
 887:Generated_Source\PSoC5/USBUART_cdc.c **** /***************************************************************************
 888:Generated_Source\PSoC5/USBUART_cdc.c **** * Function Name: USBUART_GetLineControl
 889:Generated_Source\PSoC5/USBUART_cdc.c **** ************************************************************************//**
 890:Generated_Source\PSoC5/USBUART_cdc.c **** *
 891:Generated_Source\PSoC5/USBUART_cdc.c **** *  This function returns Line control bitmap that the host sends to the
 892:Generated_Source\PSoC5/USBUART_cdc.c **** *  device.
 893:Generated_Source\PSoC5/USBUART_cdc.c **** *
 894:Generated_Source\PSoC5/USBUART_cdc.c **** * \return
 895:Generated_Source\PSoC5/USBUART_cdc.c **** *  Returns Line control bitmap.
 896:Generated_Source\PSoC5/USBUART_cdc.c **** *  Return                   |Value Notes
ARM GAS  C:\Users\ingan\AppData\Local\Temp\ccoalNGJ.s 			page 38


 897:Generated_Source\PSoC5/USBUART_cdc.c **** *  -------------------------|-----------------------------------------------
 898:Generated_Source\PSoC5/USBUART_cdc.c **** *  USBUART_LINE_CONTROL_DTR |Indicates that a DTR signal is present. This signal corresponds to V.2
 899:Generated_Source\PSoC5/USBUART_cdc.c **** *  USBUART_LINE_CONTROL_RTS |Carrier control for half-duplex modems. This signal corresponds to V.2
 900:Generated_Source\PSoC5/USBUART_cdc.c **** *  RESERVED                 |The rest of the bits are reserved.
 901:Generated_Source\PSoC5/USBUART_cdc.c **** *
 902:Generated_Source\PSoC5/USBUART_cdc.c **** *  *Note* Some terminal emulation programs do not properly handle these
 903:Generated_Source\PSoC5/USBUART_cdc.c **** *  control signals. They update information about DTR and RTS state only
 904:Generated_Source\PSoC5/USBUART_cdc.c **** *  when the RTS signal changes the state.
 905:Generated_Source\PSoC5/USBUART_cdc.c **** *
 906:Generated_Source\PSoC5/USBUART_cdc.c **** * \globalvars
 907:Generated_Source\PSoC5/USBUART_cdc.c **** *  USBUART_linesControlBitmap: used to get a parameter.
 908:Generated_Source\PSoC5/USBUART_cdc.c **** *
 909:Generated_Source\PSoC5/USBUART_cdc.c **** *******************************************************************************/
 910:Generated_Source\PSoC5/USBUART_cdc.c **** uint16 USBUART_GetLineControl(void) 
 911:Generated_Source\PSoC5/USBUART_cdc.c **** {
 1155              		.loc 1 911 0
 1156              		.cfi_startproc
 1157              		@ args = 0, pretend = 0, frame = 0
 1158              		@ frame_needed = 0, uses_anonymous_args = 0
 1159              		@ link register save eliminated.
 912:Generated_Source\PSoC5/USBUART_cdc.c ****     return (USBUART_linesControlBitmap[USBUART_activeCom]);
 1160              		.loc 1 912 0
 1161 0000 034B     		ldr	r3, .L111
 1162 0002 1A78     		ldrb	r2, [r3]	@ zero_extendqisi2
 1163 0004 034B     		ldr	r3, .L111+4
 1164 0006 33F81200 		ldrh	r0, [r3, r2, lsl #1]
 913:Generated_Source\PSoC5/USBUART_cdc.c **** }
 1165              		.loc 1 913 0
 1166 000a 80B2     		uxth	r0, r0
 1167 000c 7047     		bx	lr
 1168              	.L112:
 1169 000e 00BF     		.align	2
 1170              	.L111:
 1171 0010 00000000 		.word	.LANCHOR1
 1172 0014 00000000 		.word	USBUART_linesControlBitmap
 1173              		.cfi_endproc
 1174              	.LFE19:
 1175              		.size	USBUART_GetLineControl, .-USBUART_GetLineControl
 1176              		.section	.text.USBUART_SendSerialState,"ax",%progbits
 1177              		.align	2
 1178              		.global	USBUART_SendSerialState
 1179              		.thumb
 1180              		.thumb_func
 1181              		.type	USBUART_SendSerialState, %function
 1182              	USBUART_SendSerialState:
 1183              	.LFB20:
 914:Generated_Source\PSoC5/USBUART_cdc.c **** 
 915:Generated_Source\PSoC5/USBUART_cdc.c **** 
 916:Generated_Source\PSoC5/USBUART_cdc.c **** /*******************************************************************************
 917:Generated_Source\PSoC5/USBUART_cdc.c **** * Function Name: USBUART_SendSerialState
 918:Generated_Source\PSoC5/USBUART_cdc.c **** ****************************************************************************//**
 919:Generated_Source\PSoC5/USBUART_cdc.c **** *
 920:Generated_Source\PSoC5/USBUART_cdc.c **** *  Sends the serial state notification to the host using the interrupt
 921:Generated_Source\PSoC5/USBUART_cdc.c **** *  endpoint for the COM port selected using the API SetComPort().The
 922:Generated_Source\PSoC5/USBUART_cdc.c **** *  USBUART_NotificationIsReady() API must be called to check if the
 923:Generated_Source\PSoC5/USBUART_cdc.c **** *  Component is ready to send more serial state to the host. The API will
 924:Generated_Source\PSoC5/USBUART_cdc.c **** *  not send the notification data if the interrupt endpoint Max Packet Size
ARM GAS  C:\Users\ingan\AppData\Local\Temp\ccoalNGJ.s 			page 39


 925:Generated_Source\PSoC5/USBUART_cdc.c **** *  is less than the required 10 bytes.
 926:Generated_Source\PSoC5/USBUART_cdc.c **** *
 927:Generated_Source\PSoC5/USBUART_cdc.c **** * \param uint16 serialState
 928:Generated_Source\PSoC5/USBUART_cdc.c **** *  16-bit value that will be sent from the device to the
 929:Generated_Source\PSoC5/USBUART_cdc.c **** *  host as SERIAL_STATE notification using the IN interrupt endpoint. Refer
 930:Generated_Source\PSoC5/USBUART_cdc.c **** *  to revision 1.2 of the CDC PSTN Subclass specification for bit field
 931:Generated_Source\PSoC5/USBUART_cdc.c **** *  definitions of the 16-bit serial state value.
 932:Generated_Source\PSoC5/USBUART_cdc.c **** *
 933:Generated_Source\PSoC5/USBUART_cdc.c **** *******************************************************************************/
 934:Generated_Source\PSoC5/USBUART_cdc.c **** void USBUART_SendSerialState (uint16 serialState) 
 935:Generated_Source\PSoC5/USBUART_cdc.c **** {
 1184              		.loc 1 935 0
 1185              		.cfi_startproc
 1186              		@ args = 0, pretend = 0, frame = 0
 1187              		@ frame_needed = 0, uses_anonymous_args = 0
 1188              	.LVL106:
 1189 0000 38B5     		push	{r3, r4, r5, lr}
 1190              		.cfi_def_cfa_offset 16
 1191              		.cfi_offset 3, -16
 1192              		.cfi_offset 4, -12
 1193              		.cfi_offset 5, -8
 1194              		.cfi_offset 14, -4
 936:Generated_Source\PSoC5/USBUART_cdc.c ****     uint8 epNumber = USBUART_cdcCommInInterruptEp[USBUART_activeCom];
 1195              		.loc 1 936 0
 1196 0002 134B     		ldr	r3, .L116
 1197 0004 1C78     		ldrb	r4, [r3]	@ zero_extendqisi2
 1198 0006 134B     		ldr	r3, .L116+4
 1199 0008 1B5D     		ldrb	r3, [r3, r4]	@ zero_extendqisi2
 1200 000a DBB2     		uxtb	r3, r3
 1201              	.LVL107:
 937:Generated_Source\PSoC5/USBUART_cdc.c **** 
 938:Generated_Source\PSoC5/USBUART_cdc.c ****     if(USBUART_SERIAL_STATE_SIZE <= USBUART_EP[epNumber].bufferSize)
 1202              		.loc 1 938 0
 1203 000c 03EB4301 		add	r1, r3, r3, lsl #1
 1204 0010 8A00     		lsls	r2, r1, #2
 1205 0012 1149     		ldr	r1, .L116+8
 1206 0014 0A44     		add	r2, r2, r1
 1207 0016 1289     		ldrh	r2, [r2, #8]
 1208 0018 92B2     		uxth	r2, r2
 1209 001a 092A     		cmp	r2, #9
 1210 001c 17D9     		bls	.L113
 939:Generated_Source\PSoC5/USBUART_cdc.c ****     {
 940:Generated_Source\PSoC5/USBUART_cdc.c ****         /* Save current SERIAL_STATE bitmap. */
 941:Generated_Source\PSoC5/USBUART_cdc.c ****         USBUART_serialStateBitmap[USBUART_activeCom] = serialState;
 1211              		.loc 1 941 0
 1212 001e 0F4D     		ldr	r5, .L116+12
 1213 0020 25F81400 		strh	r0, [r5, r4, lsl #1]	@ movhi
 942:Generated_Source\PSoC5/USBUART_cdc.c **** 
 943:Generated_Source\PSoC5/USBUART_cdc.c ****         /* Add interface number */
 944:Generated_Source\PSoC5/USBUART_cdc.c ****         USBUART_serialStateNotification.wIndex = USBUART_EP[epNumber].interface;
 1214              		.loc 1 944 0
 1215 0024 03EB4301 		add	r1, r3, r3, lsl #1
 1216 0028 8A00     		lsls	r2, r1, #2
 1217 002a 0B49     		ldr	r1, .L116+8
 1218 002c 0A44     		add	r2, r2, r1
 1219 002e 927A     		ldrb	r2, [r2, #10]	@ zero_extendqisi2
 1220 0030 0B49     		ldr	r1, .L116+16
ARM GAS  C:\Users\ingan\AppData\Local\Temp\ccoalNGJ.s 			page 40


 1221 0032 0A75     		strb	r2, [r1, #20]
 945:Generated_Source\PSoC5/USBUART_cdc.c **** 
 946:Generated_Source\PSoC5/USBUART_cdc.c ****         /*Form SERIAL_STATE data*/
 947:Generated_Source\PSoC5/USBUART_cdc.c ****         USBUART_serialStateNotification.wSerialState =    LO8(USBUART_serialStateBitmap[USBUART_act
 1222              		.loc 1 947 0
 1223 0034 35F81420 		ldrh	r2, [r5, r4, lsl #1]
 1224 0038 0A76     		strb	r2, [r1, #24]
 948:Generated_Source\PSoC5/USBUART_cdc.c ****         USBUART_serialStateNotification.wSerialStateMSB = HI8(USBUART_serialStateBitmap[USBUART_act
 1225              		.loc 1 948 0
 1226 003a 35F81420 		ldrh	r2, [r5, r4, lsl #1]
 1227 003e C2F30722 		ubfx	r2, r2, #8, #8
 1228 0042 4A76     		strb	r2, [r1, #25]
 949:Generated_Source\PSoC5/USBUART_cdc.c **** 
 950:Generated_Source\PSoC5/USBUART_cdc.c ****         USBUART_LoadInEP(epNumber, (uint8 *) &USBUART_serialStateNotification, sizeof(USBUART_seria
 1229              		.loc 1 950 0
 1230 0044 0A22     		movs	r2, #10
 1231 0046 1031     		adds	r1, r1, #16
 1232 0048 1846     		mov	r0, r3
 1233              	.LVL108:
 1234 004a FFF7FEFF 		bl	USBUART_LoadInEP
 1235              	.LVL109:
 1236              	.L113:
 1237 004e 38BD     		pop	{r3, r4, r5, pc}
 1238              	.L117:
 1239              		.align	2
 1240              	.L116:
 1241 0050 00000000 		.word	.LANCHOR1
 1242 0054 00000000 		.word	USBUART_cdcCommInInterruptEp
 1243 0058 00000000 		.word	USBUART_EP
 1244 005c 00000000 		.word	USBUART_serialStateBitmap
 1245 0060 00000000 		.word	.LANCHOR0
 1246              		.cfi_endproc
 1247              	.LFE20:
 1248              		.size	USBUART_SendSerialState, .-USBUART_SendSerialState
 1249              		.section	.text.USBUART_GetSerialState,"ax",%progbits
 1250              		.align	2
 1251              		.global	USBUART_GetSerialState
 1252              		.thumb
 1253              		.thumb_func
 1254              		.type	USBUART_GetSerialState, %function
 1255              	USBUART_GetSerialState:
 1256              	.LFB21:
 951:Generated_Source\PSoC5/USBUART_cdc.c ****     }
 952:Generated_Source\PSoC5/USBUART_cdc.c **** }
 953:Generated_Source\PSoC5/USBUART_cdc.c **** 
 954:Generated_Source\PSoC5/USBUART_cdc.c **** 
 955:Generated_Source\PSoC5/USBUART_cdc.c **** /*******************************************************************************
 956:Generated_Source\PSoC5/USBUART_cdc.c **** * Function Name: USBUART_GetSerialState
 957:Generated_Source\PSoC5/USBUART_cdc.c **** ****************************************************************************//**
 958:Generated_Source\PSoC5/USBUART_cdc.c **** *
 959:Generated_Source\PSoC5/USBUART_cdc.c **** *  This function returns the current serial state value for the COM port
 960:Generated_Source\PSoC5/USBUART_cdc.c **** *  selected using the API SetComPort().
 961:Generated_Source\PSoC5/USBUART_cdc.c **** *
 962:Generated_Source\PSoC5/USBUART_cdc.c **** * \return
 963:Generated_Source\PSoC5/USBUART_cdc.c **** *  16-bit serial state value. Refer to revision 1.2 of the CDC PSTN Subclass
 964:Generated_Source\PSoC5/USBUART_cdc.c **** *  specification for bit field definitions of the 16-bit serial state value.
 965:Generated_Source\PSoC5/USBUART_cdc.c **** *
ARM GAS  C:\Users\ingan\AppData\Local\Temp\ccoalNGJ.s 			page 41


 966:Generated_Source\PSoC5/USBUART_cdc.c **** *******************************************************************************/
 967:Generated_Source\PSoC5/USBUART_cdc.c **** uint16 USBUART_GetSerialState(void) 
 968:Generated_Source\PSoC5/USBUART_cdc.c **** {
 1257              		.loc 1 968 0
 1258              		.cfi_startproc
 1259              		@ args = 0, pretend = 0, frame = 0
 1260              		@ frame_needed = 0, uses_anonymous_args = 0
 1261              		@ link register save eliminated.
 969:Generated_Source\PSoC5/USBUART_cdc.c ****     return USBUART_serialStateBitmap[USBUART_activeCom];
 1262              		.loc 1 969 0
 1263 0000 034B     		ldr	r3, .L119
 1264 0002 1A78     		ldrb	r2, [r3]	@ zero_extendqisi2
 1265 0004 034B     		ldr	r3, .L119+4
 1266 0006 33F81200 		ldrh	r0, [r3, r2, lsl #1]
 970:Generated_Source\PSoC5/USBUART_cdc.c **** }
 1267              		.loc 1 970 0
 1268 000a 80B2     		uxth	r0, r0
 1269 000c 7047     		bx	lr
 1270              	.L120:
 1271 000e 00BF     		.align	2
 1272              	.L119:
 1273 0010 00000000 		.word	.LANCHOR1
 1274 0014 00000000 		.word	USBUART_serialStateBitmap
 1275              		.cfi_endproc
 1276              	.LFE21:
 1277              		.size	USBUART_GetSerialState, .-USBUART_GetSerialState
 1278              		.section	.text.USBUART_NotificationIsReady,"ax",%progbits
 1279              		.align	2
 1280              		.global	USBUART_NotificationIsReady
 1281              		.thumb
 1282              		.thumb_func
 1283              		.type	USBUART_NotificationIsReady, %function
 1284              	USBUART_NotificationIsReady:
 1285              	.LFB22:
 971:Generated_Source\PSoC5/USBUART_cdc.c **** 
 972:Generated_Source\PSoC5/USBUART_cdc.c **** 
 973:Generated_Source\PSoC5/USBUART_cdc.c **** /*******************************************************************************
 974:Generated_Source\PSoC5/USBUART_cdc.c **** * Function Name: USBUART_NotificationIsReady
 975:Generated_Source\PSoC5/USBUART_cdc.c **** ****************************************************************************//**
 976:Generated_Source\PSoC5/USBUART_cdc.c **** *
 977:Generated_Source\PSoC5/USBUART_cdc.c **** *  This function returns a non-zero value if the Component is ready to send
 978:Generated_Source\PSoC5/USBUART_cdc.c **** *  more notifications to the host; otherwise, it returns zero. The function
 979:Generated_Source\PSoC5/USBUART_cdc.c **** *  should be called before sending new notifications when using
 980:Generated_Source\PSoC5/USBUART_cdc.c **** *  USBUART_SendSerialState() to ensure that any previous
 981:Generated_Source\PSoC5/USBUART_cdc.c **** *  notification data has been already sent to the host.
 982:Generated_Source\PSoC5/USBUART_cdc.c **** *
 983:Generated_Source\PSoC5/USBUART_cdc.c **** * \return
 984:Generated_Source\PSoC5/USBUART_cdc.c **** *  If the buffer can accept new data(endpoint buffer not full), this
 985:Generated_Source\PSoC5/USBUART_cdc.c **** *  function returns a non-zero value. Otherwise, it returns zero.
 986:Generated_Source\PSoC5/USBUART_cdc.c **** *
 987:Generated_Source\PSoC5/USBUART_cdc.c **** * \globalvars
 988:Generated_Source\PSoC5/USBUART_cdc.c **** *   USBUART_cdcDataInEp: CDC IN endpoint number used.
 989:Generated_Source\PSoC5/USBUART_cdc.c **** *
 990:Generated_Source\PSoC5/USBUART_cdc.c **** *******************************************************************************/
 991:Generated_Source\PSoC5/USBUART_cdc.c **** uint8 USBUART_NotificationIsReady(void) 
 992:Generated_Source\PSoC5/USBUART_cdc.c **** {
 1286              		.loc 1 992 0
ARM GAS  C:\Users\ingan\AppData\Local\Temp\ccoalNGJ.s 			page 42


 1287              		.cfi_startproc
 1288              		@ args = 0, pretend = 0, frame = 0
 1289              		@ frame_needed = 0, uses_anonymous_args = 0
 1290              		@ link register save eliminated.
 993:Generated_Source\PSoC5/USBUART_cdc.c ****     return (USBUART_EP[USBUART_cdcCommInInterruptEp[USBUART_activeCom]].apiEpState);
 1291              		.loc 1 993 0
 1292 0000 054B     		ldr	r3, .L122
 1293 0002 1B78     		ldrb	r3, [r3]	@ zero_extendqisi2
 1294 0004 054A     		ldr	r2, .L122+4
 1295 0006 D35C     		ldrb	r3, [r2, r3]	@ zero_extendqisi2
 1296 0008 03EB4303 		add	r3, r3, r3, lsl #1
 1297 000c 9A00     		lsls	r2, r3, #2
 1298 000e 044B     		ldr	r3, .L122+8
 1299 0010 1A44     		add	r2, r2, r3
 1300 0012 5078     		ldrb	r0, [r2, #1]	@ zero_extendqisi2
 994:Generated_Source\PSoC5/USBUART_cdc.c **** }
 1301              		.loc 1 994 0
 1302 0014 7047     		bx	lr
 1303              	.L123:
 1304 0016 00BF     		.align	2
 1305              	.L122:
 1306 0018 00000000 		.word	.LANCHOR1
 1307 001c 00000000 		.word	USBUART_cdcCommInInterruptEp
 1308 0020 00000000 		.word	USBUART_EP
 1309              		.cfi_endproc
 1310              	.LFE22:
 1311              		.size	USBUART_NotificationIsReady, .-USBUART_NotificationIsReady
 1312              		.section	.text.USBUART_SetComPort,"ax",%progbits
 1313              		.align	2
 1314              		.global	USBUART_SetComPort
 1315              		.thumb
 1316              		.thumb_func
 1317              		.type	USBUART_SetComPort, %function
 1318              	USBUART_SetComPort:
 1319              	.LFB23:
 995:Generated_Source\PSoC5/USBUART_cdc.c **** 
 996:Generated_Source\PSoC5/USBUART_cdc.c **** 
 997:Generated_Source\PSoC5/USBUART_cdc.c **** /*******************************************************************************
 998:Generated_Source\PSoC5/USBUART_cdc.c **** * Function Name: USBUART_SetComPort
 999:Generated_Source\PSoC5/USBUART_cdc.c **** ****************************************************************************//**
1000:Generated_Source\PSoC5/USBUART_cdc.c **** *
1001:Generated_Source\PSoC5/USBUART_cdc.c **** *  This function allows the user to select from one of the two COM ports
1002:Generated_Source\PSoC5/USBUART_cdc.c **** *  they wish to address in the instance of having multiple COM ports
1003:Generated_Source\PSoC5/USBUART_cdc.c **** *  instantiated though the use of a composite device. Once set, all future
1004:Generated_Source\PSoC5/USBUART_cdc.c **** *  function calls related to the USBUART will be affected. This addressed
1005:Generated_Source\PSoC5/USBUART_cdc.c **** *  COM port can be changed during run time.
1006:Generated_Source\PSoC5/USBUART_cdc.c **** *
1007:Generated_Source\PSoC5/USBUART_cdc.c **** * \param comNumber
1008:Generated_Source\PSoC5/USBUART_cdc.c **** *  Contains the COM interface the user wishes to address. Value can either
1009:Generated_Source\PSoC5/USBUART_cdc.c **** *  be 0 or 1 since a maximum of only 2 COM ports can be supported. Note that
1010:Generated_Source\PSoC5/USBUART_cdc.c **** *  this COM port number is not the COM port number assigned on the PC side
1011:Generated_Source\PSoC5/USBUART_cdc.c **** *  for the UART communication. If a value greater than 1 is passed, the
1012:Generated_Source\PSoC5/USBUART_cdc.c **** *  function returns without performing any action.
1013:Generated_Source\PSoC5/USBUART_cdc.c **** *
1014:Generated_Source\PSoC5/USBUART_cdc.c **** *******************************************************************************/
1015:Generated_Source\PSoC5/USBUART_cdc.c **** void USBUART_SetComPort(uint8 comNumber) 
1016:Generated_Source\PSoC5/USBUART_cdc.c **** {
ARM GAS  C:\Users\ingan\AppData\Local\Temp\ccoalNGJ.s 			page 43


 1320              		.loc 1 1016 0
 1321              		.cfi_startproc
 1322              		@ args = 0, pretend = 0, frame = 0
 1323              		@ frame_needed = 0, uses_anonymous_args = 0
 1324              		@ link register save eliminated.
 1325              	.LVL110:
1017:Generated_Source\PSoC5/USBUART_cdc.c ****     if ((USBUART_activeCom != comNumber) && \
 1326              		.loc 1 1017 0
 1327 0000 044B     		ldr	r3, .L126
 1328 0002 1B78     		ldrb	r3, [r3]	@ zero_extendqisi2
 1329 0004 8342     		cmp	r3, r0
 1330 0006 03D0     		beq	.L124
 1331              		.loc 1 1017 0 is_stmt 0 discriminator 1
 1332 0008 0128     		cmp	r0, #1
 1333 000a 01D8     		bhi	.L124
1018:Generated_Source\PSoC5/USBUART_cdc.c ****             (comNumber < USBUART_MAX_MULTI_COM_NUM ))
1019:Generated_Source\PSoC5/USBUART_cdc.c ****     {
1020:Generated_Source\PSoC5/USBUART_cdc.c ****         USBUART_activeCom = comNumber;
 1334              		.loc 1 1020 0 is_stmt 1
 1335 000c 014B     		ldr	r3, .L126
 1336 000e 1870     		strb	r0, [r3]
 1337              	.L124:
 1338 0010 7047     		bx	lr
 1339              	.L127:
 1340 0012 00BF     		.align	2
 1341              	.L126:
 1342 0014 00000000 		.word	.LANCHOR1
 1343              		.cfi_endproc
 1344              	.LFE23:
 1345              		.size	USBUART_SetComPort, .-USBUART_SetComPort
 1346              		.section	.text.USBUART_GetComPort,"ax",%progbits
 1347              		.align	2
 1348              		.global	USBUART_GetComPort
 1349              		.thumb
 1350              		.thumb_func
 1351              		.type	USBUART_GetComPort, %function
 1352              	USBUART_GetComPort:
 1353              	.LFB24:
1021:Generated_Source\PSoC5/USBUART_cdc.c ****     }
1022:Generated_Source\PSoC5/USBUART_cdc.c **** }
1023:Generated_Source\PSoC5/USBUART_cdc.c **** 
1024:Generated_Source\PSoC5/USBUART_cdc.c **** 
1025:Generated_Source\PSoC5/USBUART_cdc.c **** /*******************************************************************************
1026:Generated_Source\PSoC5/USBUART_cdc.c **** * Function Name: USBUART_GetComPort
1027:Generated_Source\PSoC5/USBUART_cdc.c **** ****************************************************************************//**
1028:Generated_Source\PSoC5/USBUART_cdc.c **** *
1029:Generated_Source\PSoC5/USBUART_cdc.c **** *  This function returns the current selected COM port that the user is
1030:Generated_Source\PSoC5/USBUART_cdc.c **** *  currently addressing in the instance of having multiple COM ports
1031:Generated_Source\PSoC5/USBUART_cdc.c **** *  instantiated though the use of a composite device.
1032:Generated_Source\PSoC5/USBUART_cdc.c **** *
1033:Generated_Source\PSoC5/USBUART_cdc.c **** * \return
1034:Generated_Source\PSoC5/USBUART_cdc.c **** *  Returns the currently selected COM port. Value can either be 0 or 1 since
1035:Generated_Source\PSoC5/USBUART_cdc.c **** *  a maximum of only 2 COM ports can be supported. . Note that this COM port
1036:Generated_Source\PSoC5/USBUART_cdc.c **** *  number is not the COM port number assigned on the PC side for the UART
1037:Generated_Source\PSoC5/USBUART_cdc.c **** *  communication.
1038:Generated_Source\PSoC5/USBUART_cdc.c **** *
1039:Generated_Source\PSoC5/USBUART_cdc.c **** *******************************************************************************/
ARM GAS  C:\Users\ingan\AppData\Local\Temp\ccoalNGJ.s 			page 44


1040:Generated_Source\PSoC5/USBUART_cdc.c **** uint8 USBUART_GetComPort(void) 
1041:Generated_Source\PSoC5/USBUART_cdc.c **** {
 1354              		.loc 1 1041 0
 1355              		.cfi_startproc
 1356              		@ args = 0, pretend = 0, frame = 0
 1357              		@ frame_needed = 0, uses_anonymous_args = 0
 1358              		@ link register save eliminated.
1042:Generated_Source\PSoC5/USBUART_cdc.c ****     return (USBUART_activeCom);
1043:Generated_Source\PSoC5/USBUART_cdc.c **** }
 1359              		.loc 1 1043 0
 1360 0000 014B     		ldr	r3, .L129
 1361 0002 1878     		ldrb	r0, [r3]	@ zero_extendqisi2
 1362 0004 7047     		bx	lr
 1363              	.L130:
 1364 0006 00BF     		.align	2
 1365              	.L129:
 1366 0008 00000000 		.word	.LANCHOR1
 1367              		.cfi_endproc
 1368              	.LFE24:
 1369              		.size	USBUART_GetComPort, .-USBUART_GetComPort
 1370              		.section	.text.USBUART_Cdc_EpInit,"ax",%progbits
 1371              		.align	2
 1372              		.global	USBUART_Cdc_EpInit
 1373              		.thumb
 1374              		.thumb_func
 1375              		.type	USBUART_Cdc_EpInit, %function
 1376              	USBUART_Cdc_EpInit:
 1377              	.LFB25:
1044:Generated_Source\PSoC5/USBUART_cdc.c **** 
1045:Generated_Source\PSoC5/USBUART_cdc.c **** 
1046:Generated_Source\PSoC5/USBUART_cdc.c **** #endif  /* (USBUART_ENABLE_CDC_CLASS_API) */
1047:Generated_Source\PSoC5/USBUART_cdc.c **** 
1048:Generated_Source\PSoC5/USBUART_cdc.c **** 
1049:Generated_Source\PSoC5/USBUART_cdc.c **** /***************************************************************************
1050:Generated_Source\PSoC5/USBUART_cdc.c **** * Function Name: USBUART_Cdc_EpInit
1051:Generated_Source\PSoC5/USBUART_cdc.c **** ************************************************************************//**
1052:Generated_Source\PSoC5/USBUART_cdc.c **** *
1053:Generated_Source\PSoC5/USBUART_cdc.c **** *  \internal
1054:Generated_Source\PSoC5/USBUART_cdc.c **** *  This routine decide type of endpoint (IN, OUT, Notification) and same to
1055:Generated_Source\PSoC5/USBUART_cdc.c **** *   appropriate global variables  according to COM port number.
1056:Generated_Source\PSoC5/USBUART_cdc.c **** *   USBUART_cdcDataInEp[], USBUART_cdcCommInInterruptEp[],
1057:Generated_Source\PSoC5/USBUART_cdc.c **** *   USBUART_cdcDataOutEp[]
1058:Generated_Source\PSoC5/USBUART_cdc.c **** *
1059:Generated_Source\PSoC5/USBUART_cdc.c **** * \param pEP: Pointer to structure with current EP description.
1060:Generated_Source\PSoC5/USBUART_cdc.c **** * \param epNum: EP number
1061:Generated_Source\PSoC5/USBUART_cdc.c **** * \param cdcComNums: Bit array of current COM ports for CDC IN, OUT,
1062:Generated_Source\PSoC5/USBUART_cdc.c **** *        and notification EPs(0 - COM port 1, 1- COM port 2)
1063:Generated_Source\PSoC5/USBUART_cdc.c **** *
1064:Generated_Source\PSoC5/USBUART_cdc.c **** * \return
1065:Generated_Source\PSoC5/USBUART_cdc.c **** *  Updated cdcComNums
1066:Generated_Source\PSoC5/USBUART_cdc.c **** *
1067:Generated_Source\PSoC5/USBUART_cdc.c **** * \reentrant
1068:Generated_Source\PSoC5/USBUART_cdc.c **** *  No.
1069:Generated_Source\PSoC5/USBUART_cdc.c **** *
1070:Generated_Source\PSoC5/USBUART_cdc.c **** ***************************************************************************/
1071:Generated_Source\PSoC5/USBUART_cdc.c **** uint8 USBUART_Cdc_EpInit(const T_USBUART_EP_SETTINGS_BLOCK CYCODE *pEP, uint8 epNum, uint8 cdcComNu
1072:Generated_Source\PSoC5/USBUART_cdc.c **** {
ARM GAS  C:\Users\ingan\AppData\Local\Temp\ccoalNGJ.s 			page 45


 1378              		.loc 1 1072 0
 1379              		.cfi_startproc
 1380              		@ args = 0, pretend = 0, frame = 0
 1381              		@ frame_needed = 0, uses_anonymous_args = 0
 1382              		@ link register save eliminated.
 1383              	.LVL111:
1073:Generated_Source\PSoC5/USBUART_cdc.c ****     uint8 epType;
1074:Generated_Source\PSoC5/USBUART_cdc.c **** 
1075:Generated_Source\PSoC5/USBUART_cdc.c ****     epType = pEP->attributes & USBUART_EP_TYPE_MASK;
 1384              		.loc 1 1075 0
 1385 0000 C378     		ldrb	r3, [r0, #3]	@ zero_extendqisi2
 1386 0002 03F00303 		and	r3, r3, #3
 1387              	.LVL112:
1076:Generated_Source\PSoC5/USBUART_cdc.c **** 
1077:Generated_Source\PSoC5/USBUART_cdc.c ****     if (0u != (pEP->addr & USBUART_DIR_IN))
 1388              		.loc 1 1077 0
 1389 0006 90F90200 		ldrsb	r0, [r0, #2]
 1390              	.LVL113:
 1391 000a 0028     		cmp	r0, #0
 1392 000c 0FDA     		bge	.L132
1078:Generated_Source\PSoC5/USBUART_cdc.c ****     {
1079:Generated_Source\PSoC5/USBUART_cdc.c ****         if (epType != USBUART_EP_TYPE_INT)
 1393              		.loc 1 1079 0
 1394 000e 032B     		cmp	r3, #3
 1395 0010 06D0     		beq	.L133
1080:Generated_Source\PSoC5/USBUART_cdc.c ****         {
1081:Generated_Source\PSoC5/USBUART_cdc.c ****             USBUART_cdcDataInEp[USBUART_GET_EP_COM_NUM(cdcComNums, USBUART_CDC_IN_EP)] = epNum;
 1396              		.loc 1 1081 0
 1397 0012 02F00103 		and	r3, r2, #1
 1398              	.LVL114:
 1399 0016 0B48     		ldr	r0, .L135
 1400 0018 C154     		strb	r1, [r0, r3]
1082:Generated_Source\PSoC5/USBUART_cdc.c ****             cdcComNums |= (uint8)(USBUART_COM_PORT2 << USBUART_CDC_IN_EP);
 1401              		.loc 1 1082 0
 1402 001a 42F00102 		orr	r2, r2, #1
 1403              	.LVL115:
 1404 001e 0EE0     		b	.L134
 1405              	.LVL116:
 1406              	.L133:
1083:Generated_Source\PSoC5/USBUART_cdc.c ****         }
1084:Generated_Source\PSoC5/USBUART_cdc.c ****         else
1085:Generated_Source\PSoC5/USBUART_cdc.c ****         {
1086:Generated_Source\PSoC5/USBUART_cdc.c **** 
1087:Generated_Source\PSoC5/USBUART_cdc.c ****             USBUART_cdcCommInInterruptEp[USBUART_GET_EP_COM_NUM(cdcComNums, USBUART_CDC_NOTE_EP)] =
 1407              		.loc 1 1087 0
 1408 0020 C2F38003 		ubfx	r3, r2, #2, #1
 1409              	.LVL117:
 1410 0024 0848     		ldr	r0, .L135+4
 1411 0026 C154     		strb	r1, [r0, r3]
1088:Generated_Source\PSoC5/USBUART_cdc.c ****             cdcComNums |= (uint8)(USBUART_COM_PORT2 << USBUART_CDC_NOTE_EP);
 1412              		.loc 1 1088 0
 1413 0028 42F00402 		orr	r2, r2, #4
 1414              	.LVL118:
 1415 002c 07E0     		b	.L134
 1416              	.LVL119:
 1417              	.L132:
1089:Generated_Source\PSoC5/USBUART_cdc.c ****         }
ARM GAS  C:\Users\ingan\AppData\Local\Temp\ccoalNGJ.s 			page 46


1090:Generated_Source\PSoC5/USBUART_cdc.c ****     }
1091:Generated_Source\PSoC5/USBUART_cdc.c ****     else
1092:Generated_Source\PSoC5/USBUART_cdc.c ****     {
1093:Generated_Source\PSoC5/USBUART_cdc.c ****         if (epType != USBUART_EP_TYPE_INT)
 1418              		.loc 1 1093 0
 1419 002e 032B     		cmp	r3, #3
 1420 0030 05D0     		beq	.L134
1094:Generated_Source\PSoC5/USBUART_cdc.c ****         {
1095:Generated_Source\PSoC5/USBUART_cdc.c ****             USBUART_cdcDataOutEp[USBUART_GET_EP_COM_NUM(cdcComNums, USBUART_CDC_OUT_EP)] = epNum;
 1421              		.loc 1 1095 0
 1422 0032 C2F34003 		ubfx	r3, r2, #1, #1
 1423              	.LVL120:
 1424 0036 0548     		ldr	r0, .L135+8
 1425 0038 C154     		strb	r1, [r0, r3]
1096:Generated_Source\PSoC5/USBUART_cdc.c ****             cdcComNums |= (uint8)(USBUART_COM_PORT2 << USBUART_CDC_OUT_EP);
 1426              		.loc 1 1096 0
 1427 003a 42F00202 		orr	r2, r2, #2
 1428              	.LVL121:
 1429              	.L134:
1097:Generated_Source\PSoC5/USBUART_cdc.c ****         }
1098:Generated_Source\PSoC5/USBUART_cdc.c ****     }
1099:Generated_Source\PSoC5/USBUART_cdc.c ****     return (cdcComNums);
1100:Generated_Source\PSoC5/USBUART_cdc.c **** }
 1430              		.loc 1 1100 0
 1431 003e 1046     		mov	r0, r2
 1432 0040 7047     		bx	lr
 1433              	.L136:
 1434 0042 00BF     		.align	2
 1435              	.L135:
 1436 0044 00000000 		.word	USBUART_cdcDataInEp
 1437 0048 00000000 		.word	USBUART_cdcCommInInterruptEp
 1438 004c 00000000 		.word	USBUART_cdcDataOutEp
 1439              		.cfi_endproc
 1440              	.LFE25:
 1441              		.size	USBUART_Cdc_EpInit, .-USBUART_Cdc_EpInit
 1442              		.comm	USBUART_cdcCommInInterruptEp,2,4
 1443              		.comm	USBUART_cdcDataOutEp,2,4
 1444              		.comm	USBUART_cdcDataInEp,2,4
 1445              		.comm	USBUART_serialStateBitmap,4,4
 1446              		.comm	USBUART_linesControlBitmap,4,4
 1447              		.comm	USBUART_linesChanged,2,4
 1448              		.global	USBUART_linesCoding
 1449              		.section	.rodata
 1450              		.align	2
 1451              		.set	.LANCHOR2,. + 0
 1452              	.LC0:
 1453 0000 0D       		.byte	13
 1454 0001 0A       		.byte	10
 1455              		.data
 1456              		.align	2
 1457              		.set	.LANCHOR0,. + 0
 1458              		.type	USBUART_linesCoding, %object
 1459              		.size	USBUART_linesCoding, 14
 1460              	USBUART_linesCoding:
 1461 0000 00       		.byte	0
 1462 0001 C2       		.byte	-62
 1463 0002 01       		.byte	1
ARM GAS  C:\Users\ingan\AppData\Local\Temp\ccoalNGJ.s 			page 47


 1464 0003 00       		.byte	0
 1465 0004 00       		.byte	0
 1466 0005 00       		.byte	0
 1467 0006 08       		.byte	8
 1468 0007 00       		.byte	0
 1469 0008 C2       		.byte	-62
 1470 0009 01       		.byte	1
 1471 000a 00       		.byte	0
 1472 000b 00       		.byte	0
 1473 000c 00       		.byte	0
 1474 000d 08       		.byte	8
 1475 000e 0000     		.space	2
 1476              		.type	USBUART_serialStateNotification, %object
 1477              		.size	USBUART_serialStateNotification, 10
 1478              	USBUART_serialStateNotification:
 1479 0010 A1       		.byte	-95
 1480 0011 20       		.byte	32
 1481 0012 00       		.byte	0
 1482 0013 00       		.byte	0
 1483 0014 00       		.byte	0
 1484 0015 00       		.byte	0
 1485 0016 02       		.byte	2
 1486 0017 00       		.byte	0
 1487 0018 00       		.byte	0
 1488 0019 00       		.byte	0
 1489              		.bss
 1490              		.set	.LANCHOR1,. + 0
 1491              		.type	USBUART_activeCom, %object
 1492              		.size	USBUART_activeCom, 1
 1493              	USBUART_activeCom:
 1494 0000 00       		.space	1
 1495              		.text
 1496              	.Letext0:
 1497              		.file 2 "Generated_Source\\PSoC5\\cytypes.h"
 1498              		.file 3 "Generated_Source\\PSoC5\\USBUART.h"
 1499              		.file 4 "Generated_Source\\PSoC5\\USBUART_pvt.h"
 1500              		.file 5 "Generated_Source\\PSoC5\\CyLib.h"