ARM GAS  C:\Users\ingan\AppData\Local\Temp\ccMOr4im.s 			page 1


   1              		.syntax unified
   2              		.cpu cortex-m3
   3              		.fpu softvfp
   4              		.eabi_attribute 20, 1
   5              		.eabi_attribute 21, 1
   6              		.eabi_attribute 23, 3
   7              		.eabi_attribute 24, 1
   8              		.eabi_attribute 25, 1
   9              		.eabi_attribute 26, 1
  10              		.eabi_attribute 30, 4
  11              		.eabi_attribute 34, 1
  12              		.eabi_attribute 18, 4
  13              		.thumb
  14              		.syntax unified
  15              		.file	"cyfitter_cfg.c"
  16              		.text
  17              	.Ltext0:
  18              		.cfi_sections	.debug_frame
  19              		.section	.text.SetAnalogRoutingPumps,"ax",%progbits
  20              		.align	1
  21              		.global	SetAnalogRoutingPumps
  22              		.thumb
  23              		.thumb_func
  24              		.type	SetAnalogRoutingPumps, %function
  25              	SetAnalogRoutingPumps:
  26              	.LFB7:
  27              		.file 1 "Generated_Source\\PSoC5\\cyfitter_cfg.c"
   1:Generated_Source\PSoC5/cyfitter_cfg.c **** 
   2:Generated_Source\PSoC5/cyfitter_cfg.c **** /*******************************************************************************
   3:Generated_Source\PSoC5/cyfitter_cfg.c **** * File Name: cyfitter_cfg.c
   4:Generated_Source\PSoC5/cyfitter_cfg.c **** * 
   5:Generated_Source\PSoC5/cyfitter_cfg.c **** * PSoC Creator  4.2
   6:Generated_Source\PSoC5/cyfitter_cfg.c **** *
   7:Generated_Source\PSoC5/cyfitter_cfg.c **** * Description:
   8:Generated_Source\PSoC5/cyfitter_cfg.c **** * This file contains device initialization code.
   9:Generated_Source\PSoC5/cyfitter_cfg.c **** * Except for the user defined sections in CyClockStartupError(), this file should not be modified.
  10:Generated_Source\PSoC5/cyfitter_cfg.c **** * This file is automatically generated by PSoC Creator.
  11:Generated_Source\PSoC5/cyfitter_cfg.c **** *
  12:Generated_Source\PSoC5/cyfitter_cfg.c **** ********************************************************************************
  13:Generated_Source\PSoC5/cyfitter_cfg.c **** * Copyright (c) 2007-2018 Cypress Semiconductor.  All rights reserved.
  14:Generated_Source\PSoC5/cyfitter_cfg.c **** * You may use this file only in accordance with the license, terms, conditions, 
  15:Generated_Source\PSoC5/cyfitter_cfg.c **** * disclaimers, and limitations in the end user license agreement accompanying 
  16:Generated_Source\PSoC5/cyfitter_cfg.c **** * the software package with which this file was provided.
  17:Generated_Source\PSoC5/cyfitter_cfg.c **** ********************************************************************************/
  18:Generated_Source\PSoC5/cyfitter_cfg.c **** 
  19:Generated_Source\PSoC5/cyfitter_cfg.c **** #include <string.h>
  20:Generated_Source\PSoC5/cyfitter_cfg.c **** #include "cytypes.h"
  21:Generated_Source\PSoC5/cyfitter_cfg.c **** #include "cydevice_trm.h"
  22:Generated_Source\PSoC5/cyfitter_cfg.c **** #include "cyfitter.h"
  23:Generated_Source\PSoC5/cyfitter_cfg.c **** #include "CyLib.h"
  24:Generated_Source\PSoC5/cyfitter_cfg.c **** #include "cyfitter_cfg.h"
  25:Generated_Source\PSoC5/cyfitter_cfg.c **** #include "cyapicallbacks.h"
  26:Generated_Source\PSoC5/cyfitter_cfg.c **** 
  27:Generated_Source\PSoC5/cyfitter_cfg.c **** #define CY_NEED_CYCLOCKSTARTUPERROR 1
  28:Generated_Source\PSoC5/cyfitter_cfg.c **** 
  29:Generated_Source\PSoC5/cyfitter_cfg.c **** 
  30:Generated_Source\PSoC5/cyfitter_cfg.c **** #if defined(__GNUC__) || defined(__ARMCC_VERSION)
ARM GAS  C:\Users\ingan\AppData\Local\Temp\ccMOr4im.s 			page 2


  31:Generated_Source\PSoC5/cyfitter_cfg.c ****     #define CYPACKED 
  32:Generated_Source\PSoC5/cyfitter_cfg.c ****     #define CYPACKED_ATTR __attribute__ ((packed))
  33:Generated_Source\PSoC5/cyfitter_cfg.c ****     #define CYALIGNED __attribute__ ((aligned))
  34:Generated_Source\PSoC5/cyfitter_cfg.c ****     #define CY_CFG_UNUSED __attribute__ ((unused))
  35:Generated_Source\PSoC5/cyfitter_cfg.c ****     #ifndef CY_CFG_SECTION
  36:Generated_Source\PSoC5/cyfitter_cfg.c ****         #define CY_CFG_SECTION __attribute__ ((section(".psocinit")))
  37:Generated_Source\PSoC5/cyfitter_cfg.c ****     #endif
  38:Generated_Source\PSoC5/cyfitter_cfg.c ****     
  39:Generated_Source\PSoC5/cyfitter_cfg.c ****     #if defined(__ARMCC_VERSION)
  40:Generated_Source\PSoC5/cyfitter_cfg.c ****         #define CY_CFG_MEMORY_BARRIER() __memory_changed()
  41:Generated_Source\PSoC5/cyfitter_cfg.c ****     #else
  42:Generated_Source\PSoC5/cyfitter_cfg.c ****         #define CY_CFG_MEMORY_BARRIER() __sync_synchronize()
  43:Generated_Source\PSoC5/cyfitter_cfg.c ****     #endif
  44:Generated_Source\PSoC5/cyfitter_cfg.c ****     
  45:Generated_Source\PSoC5/cyfitter_cfg.c **** #elif defined(__ICCARM__)
  46:Generated_Source\PSoC5/cyfitter_cfg.c ****     #include <intrinsics.h>
  47:Generated_Source\PSoC5/cyfitter_cfg.c **** 
  48:Generated_Source\PSoC5/cyfitter_cfg.c ****     #define CYPACKED __packed
  49:Generated_Source\PSoC5/cyfitter_cfg.c ****     #define CYPACKED_ATTR 
  50:Generated_Source\PSoC5/cyfitter_cfg.c ****     #define CYALIGNED _Pragma("data_alignment=4")
  51:Generated_Source\PSoC5/cyfitter_cfg.c ****     #define CY_CFG_UNUSED _Pragma("diag_suppress=Pe177")
  52:Generated_Source\PSoC5/cyfitter_cfg.c ****     #define CY_CFG_SECTION _Pragma("location=\".psocinit\"")
  53:Generated_Source\PSoC5/cyfitter_cfg.c ****     
  54:Generated_Source\PSoC5/cyfitter_cfg.c ****     #define CY_CFG_MEMORY_BARRIER() __DMB()
  55:Generated_Source\PSoC5/cyfitter_cfg.c ****     
  56:Generated_Source\PSoC5/cyfitter_cfg.c **** #else
  57:Generated_Source\PSoC5/cyfitter_cfg.c ****     #error Unsupported toolchain
  58:Generated_Source\PSoC5/cyfitter_cfg.c **** #endif
  59:Generated_Source\PSoC5/cyfitter_cfg.c **** 
  60:Generated_Source\PSoC5/cyfitter_cfg.c **** #ifndef CYCODE
  61:Generated_Source\PSoC5/cyfitter_cfg.c ****     #define CYCODE
  62:Generated_Source\PSoC5/cyfitter_cfg.c **** #endif
  63:Generated_Source\PSoC5/cyfitter_cfg.c **** #ifndef CYDATA
  64:Generated_Source\PSoC5/cyfitter_cfg.c ****     #define CYDATA
  65:Generated_Source\PSoC5/cyfitter_cfg.c **** #endif
  66:Generated_Source\PSoC5/cyfitter_cfg.c **** #ifndef CYFAR
  67:Generated_Source\PSoC5/cyfitter_cfg.c ****     #define CYFAR
  68:Generated_Source\PSoC5/cyfitter_cfg.c **** #endif
  69:Generated_Source\PSoC5/cyfitter_cfg.c **** #ifndef CYXDATA
  70:Generated_Source\PSoC5/cyfitter_cfg.c ****     #define CYXDATA
  71:Generated_Source\PSoC5/cyfitter_cfg.c **** #endif
  72:Generated_Source\PSoC5/cyfitter_cfg.c **** 
  73:Generated_Source\PSoC5/cyfitter_cfg.c **** 
  74:Generated_Source\PSoC5/cyfitter_cfg.c **** CY_CFG_UNUSED
  75:Generated_Source\PSoC5/cyfitter_cfg.c **** static void CYMEMZERO(void *s, size_t n);
  76:Generated_Source\PSoC5/cyfitter_cfg.c **** CY_CFG_UNUSED
  77:Generated_Source\PSoC5/cyfitter_cfg.c **** static void CYMEMZERO(void *s, size_t n)
  78:Generated_Source\PSoC5/cyfitter_cfg.c **** {
  79:Generated_Source\PSoC5/cyfitter_cfg.c **** 	(void)memset(s, 0, n);
  80:Generated_Source\PSoC5/cyfitter_cfg.c **** }
  81:Generated_Source\PSoC5/cyfitter_cfg.c **** CY_CFG_UNUSED
  82:Generated_Source\PSoC5/cyfitter_cfg.c **** static void CYCONFIGCPY(void *dest, const void *src, size_t n);
  83:Generated_Source\PSoC5/cyfitter_cfg.c **** CY_CFG_UNUSED
  84:Generated_Source\PSoC5/cyfitter_cfg.c **** static void CYCONFIGCPY(void *dest, const void *src, size_t n)
  85:Generated_Source\PSoC5/cyfitter_cfg.c **** {
  86:Generated_Source\PSoC5/cyfitter_cfg.c **** 	(void)memcpy(dest, src, n);
  87:Generated_Source\PSoC5/cyfitter_cfg.c **** }
ARM GAS  C:\Users\ingan\AppData\Local\Temp\ccMOr4im.s 			page 3


  88:Generated_Source\PSoC5/cyfitter_cfg.c **** CY_CFG_UNUSED
  89:Generated_Source\PSoC5/cyfitter_cfg.c **** static void CYCONFIGCPYCODE(void *dest, const void *src, size_t n);
  90:Generated_Source\PSoC5/cyfitter_cfg.c **** CY_CFG_UNUSED
  91:Generated_Source\PSoC5/cyfitter_cfg.c **** static void CYCONFIGCPYCODE(void *dest, const void *src, size_t n)
  92:Generated_Source\PSoC5/cyfitter_cfg.c **** {
  93:Generated_Source\PSoC5/cyfitter_cfg.c **** 	(void)memcpy(dest, src, n);
  94:Generated_Source\PSoC5/cyfitter_cfg.c **** }
  95:Generated_Source\PSoC5/cyfitter_cfg.c **** 
  96:Generated_Source\PSoC5/cyfitter_cfg.c **** 
  97:Generated_Source\PSoC5/cyfitter_cfg.c **** 
  98:Generated_Source\PSoC5/cyfitter_cfg.c **** 
  99:Generated_Source\PSoC5/cyfitter_cfg.c **** /* Clock startup error codes                                                   */
 100:Generated_Source\PSoC5/cyfitter_cfg.c **** #define CYCLOCKSTART_NO_ERROR    0u
 101:Generated_Source\PSoC5/cyfitter_cfg.c **** #define CYCLOCKSTART_XTAL_ERROR  1u
 102:Generated_Source\PSoC5/cyfitter_cfg.c **** #define CYCLOCKSTART_32KHZ_ERROR 2u
 103:Generated_Source\PSoC5/cyfitter_cfg.c **** #define CYCLOCKSTART_PLL_ERROR   3u
 104:Generated_Source\PSoC5/cyfitter_cfg.c **** #define CYCLOCKSTART_FLL_ERROR   4u
 105:Generated_Source\PSoC5/cyfitter_cfg.c **** #define CYCLOCKSTART_WCO_ERROR   5u
 106:Generated_Source\PSoC5/cyfitter_cfg.c **** 
 107:Generated_Source\PSoC5/cyfitter_cfg.c **** 
 108:Generated_Source\PSoC5/cyfitter_cfg.c **** #ifdef CY_NEED_CYCLOCKSTARTUPERROR
 109:Generated_Source\PSoC5/cyfitter_cfg.c **** /*******************************************************************************
 110:Generated_Source\PSoC5/cyfitter_cfg.c **** * Function Name: CyClockStartupError
 111:Generated_Source\PSoC5/cyfitter_cfg.c **** ********************************************************************************
 112:Generated_Source\PSoC5/cyfitter_cfg.c **** * Summary:
 113:Generated_Source\PSoC5/cyfitter_cfg.c **** *  If an error is encountered during clock configuration (crystal startup error,
 114:Generated_Source\PSoC5/cyfitter_cfg.c **** *  PLL lock error, etc.), the system will end up here.  Unless reimplemented by
 115:Generated_Source\PSoC5/cyfitter_cfg.c **** *  the customer, this function will stop in an infinite loop.
 116:Generated_Source\PSoC5/cyfitter_cfg.c **** *
 117:Generated_Source\PSoC5/cyfitter_cfg.c **** * Parameters:
 118:Generated_Source\PSoC5/cyfitter_cfg.c **** *   void
 119:Generated_Source\PSoC5/cyfitter_cfg.c **** *
 120:Generated_Source\PSoC5/cyfitter_cfg.c **** * Return:
 121:Generated_Source\PSoC5/cyfitter_cfg.c **** *   void
 122:Generated_Source\PSoC5/cyfitter_cfg.c **** *
 123:Generated_Source\PSoC5/cyfitter_cfg.c **** *******************************************************************************/
 124:Generated_Source\PSoC5/cyfitter_cfg.c **** CY_CFG_UNUSED
 125:Generated_Source\PSoC5/cyfitter_cfg.c **** static void CyClockStartupError(uint8 errorCode);
 126:Generated_Source\PSoC5/cyfitter_cfg.c **** CY_CFG_UNUSED
 127:Generated_Source\PSoC5/cyfitter_cfg.c **** static void CyClockStartupError(uint8 errorCode)
 128:Generated_Source\PSoC5/cyfitter_cfg.c **** {
 129:Generated_Source\PSoC5/cyfitter_cfg.c ****     /* To remove the compiler warning if errorCode not used.                */
 130:Generated_Source\PSoC5/cyfitter_cfg.c ****     errorCode = errorCode;
 131:Generated_Source\PSoC5/cyfitter_cfg.c **** 
 132:Generated_Source\PSoC5/cyfitter_cfg.c ****     /* If we have a clock startup error (bad MHz crystal, PLL lock, etc.),  */
 133:Generated_Source\PSoC5/cyfitter_cfg.c ****     /* we will end up here to allow the customer to implement something to  */
 134:Generated_Source\PSoC5/cyfitter_cfg.c ****     /* deal with the clock condition.                                       */
 135:Generated_Source\PSoC5/cyfitter_cfg.c **** 
 136:Generated_Source\PSoC5/cyfitter_cfg.c **** #ifdef CY_CFG_CLOCK_STARTUP_ERROR_CALLBACK
 137:Generated_Source\PSoC5/cyfitter_cfg.c ****     CY_CFG_Clock_Startup_ErrorCallback();
 138:Generated_Source\PSoC5/cyfitter_cfg.c **** #else
 139:Generated_Source\PSoC5/cyfitter_cfg.c ****     /*  If not using CY_CFG_CLOCK_STARTUP_ERROR_CALLBACK, place your clock startup code here. */
 140:Generated_Source\PSoC5/cyfitter_cfg.c ****     /* `#START CyClockStartupError` */
 141:Generated_Source\PSoC5/cyfitter_cfg.c **** 
 142:Generated_Source\PSoC5/cyfitter_cfg.c **** 
 143:Generated_Source\PSoC5/cyfitter_cfg.c **** 
 144:Generated_Source\PSoC5/cyfitter_cfg.c ****     /* `#END` */
ARM GAS  C:\Users\ingan\AppData\Local\Temp\ccMOr4im.s 			page 4


 145:Generated_Source\PSoC5/cyfitter_cfg.c **** 
 146:Generated_Source\PSoC5/cyfitter_cfg.c ****     while(1) {}
 147:Generated_Source\PSoC5/cyfitter_cfg.c **** #endif /* CY_CFG_CLOCK_STARTUP_ERROR_CALLBACK */
 148:Generated_Source\PSoC5/cyfitter_cfg.c **** }
 149:Generated_Source\PSoC5/cyfitter_cfg.c **** #endif
 150:Generated_Source\PSoC5/cyfitter_cfg.c **** 
 151:Generated_Source\PSoC5/cyfitter_cfg.c **** #define CY_CFG_BASE_ADDR_COUNT 8u
 152:Generated_Source\PSoC5/cyfitter_cfg.c **** CYPACKED typedef struct
 153:Generated_Source\PSoC5/cyfitter_cfg.c **** {
 154:Generated_Source\PSoC5/cyfitter_cfg.c **** 	uint8 offset;
 155:Generated_Source\PSoC5/cyfitter_cfg.c **** 	uint8 value;
 156:Generated_Source\PSoC5/cyfitter_cfg.c **** } CYPACKED_ATTR cy_cfg_addrvalue_t;
 157:Generated_Source\PSoC5/cyfitter_cfg.c **** 
 158:Generated_Source\PSoC5/cyfitter_cfg.c **** #define cy_cfg_addr_table ((const uint32 CYFAR *)0x48000000u)
 159:Generated_Source\PSoC5/cyfitter_cfg.c **** #define cy_cfg_data_table ((const cy_cfg_addrvalue_t CYFAR *)0x48000020u)
 160:Generated_Source\PSoC5/cyfitter_cfg.c **** 
 161:Generated_Source\PSoC5/cyfitter_cfg.c **** /* IOPINS0_0 Address: CYREG_PRT0_DM0 Size (bytes): 8 */
 162:Generated_Source\PSoC5/cyfitter_cfg.c **** #define BS_IOPINS0_0_VAL ((const uint8 CYFAR *)0x4800004Cu)
 163:Generated_Source\PSoC5/cyfitter_cfg.c **** 
 164:Generated_Source\PSoC5/cyfitter_cfg.c **** /* IOPINS0_7 Address: CYREG_PRT12_DM0 Size (bytes): 8 */
 165:Generated_Source\PSoC5/cyfitter_cfg.c **** #define BS_IOPINS0_7_VAL ((const uint8 CYFAR *)0x48000054u)
 166:Generated_Source\PSoC5/cyfitter_cfg.c **** 
 167:Generated_Source\PSoC5/cyfitter_cfg.c **** /* IOPINS0_1 Address: CYREG_PRT1_DM0 Size (bytes): 8 */
 168:Generated_Source\PSoC5/cyfitter_cfg.c **** #define BS_IOPINS0_1_VAL ((const uint8 CYFAR *)0x4800005Cu)
 169:Generated_Source\PSoC5/cyfitter_cfg.c **** 
 170:Generated_Source\PSoC5/cyfitter_cfg.c **** /* IOPINS0_2 Address: CYREG_PRT2_DM0 Size (bytes): 8 */
 171:Generated_Source\PSoC5/cyfitter_cfg.c **** #define BS_IOPINS0_2_VAL ((const uint8 CYFAR *)0x48000064u)
 172:Generated_Source\PSoC5/cyfitter_cfg.c **** 
 173:Generated_Source\PSoC5/cyfitter_cfg.c **** /* IOPINS0_3 Address: CYREG_PRT3_DM0 Size (bytes): 8 */
 174:Generated_Source\PSoC5/cyfitter_cfg.c **** #define BS_IOPINS0_3_VAL ((const uint8 CYFAR *)0x4800006Cu)
 175:Generated_Source\PSoC5/cyfitter_cfg.c **** 
 176:Generated_Source\PSoC5/cyfitter_cfg.c **** 
 177:Generated_Source\PSoC5/cyfitter_cfg.c **** /*******************************************************************************
 178:Generated_Source\PSoC5/cyfitter_cfg.c **** * Function Name: cfg_write_bytes32
 179:Generated_Source\PSoC5/cyfitter_cfg.c **** ********************************************************************************
 180:Generated_Source\PSoC5/cyfitter_cfg.c **** * Summary:
 181:Generated_Source\PSoC5/cyfitter_cfg.c **** *  This function is used for setting up the chip configuration areas that
 182:Generated_Source\PSoC5/cyfitter_cfg.c **** *  contain relatively sparse data.
 183:Generated_Source\PSoC5/cyfitter_cfg.c **** *
 184:Generated_Source\PSoC5/cyfitter_cfg.c **** * Parameters:
 185:Generated_Source\PSoC5/cyfitter_cfg.c **** *   void
 186:Generated_Source\PSoC5/cyfitter_cfg.c **** *
 187:Generated_Source\PSoC5/cyfitter_cfg.c **** * Return:
 188:Generated_Source\PSoC5/cyfitter_cfg.c **** *   void
 189:Generated_Source\PSoC5/cyfitter_cfg.c **** *
 190:Generated_Source\PSoC5/cyfitter_cfg.c **** *******************************************************************************/
 191:Generated_Source\PSoC5/cyfitter_cfg.c **** static void cfg_write_bytes32(const uint32 addr_table[], const cy_cfg_addrvalue_t data_table[]);
 192:Generated_Source\PSoC5/cyfitter_cfg.c **** static void cfg_write_bytes32(const uint32 addr_table[], const cy_cfg_addrvalue_t data_table[])
 193:Generated_Source\PSoC5/cyfitter_cfg.c **** {
 194:Generated_Source\PSoC5/cyfitter_cfg.c **** 	/* For 32-bit little-endian architectures */
 195:Generated_Source\PSoC5/cyfitter_cfg.c **** 	uint32 i, j = 0u;
 196:Generated_Source\PSoC5/cyfitter_cfg.c **** 	for (i = 0u; i < CY_CFG_BASE_ADDR_COUNT; i++)
 197:Generated_Source\PSoC5/cyfitter_cfg.c **** 	{
 198:Generated_Source\PSoC5/cyfitter_cfg.c **** 		uint32 baseAddr = addr_table[i];
 199:Generated_Source\PSoC5/cyfitter_cfg.c **** 		uint8 count = (uint8)baseAddr;
 200:Generated_Source\PSoC5/cyfitter_cfg.c **** 		baseAddr &= 0xFFFFFF00u;
 201:Generated_Source\PSoC5/cyfitter_cfg.c **** 		while (count != 0u)
ARM GAS  C:\Users\ingan\AppData\Local\Temp\ccMOr4im.s 			page 5


 202:Generated_Source\PSoC5/cyfitter_cfg.c **** 		{
 203:Generated_Source\PSoC5/cyfitter_cfg.c **** 			CY_SET_REG8((void *)(baseAddr + data_table[j].offset), data_table[j].value);
 204:Generated_Source\PSoC5/cyfitter_cfg.c **** 			j++;
 205:Generated_Source\PSoC5/cyfitter_cfg.c **** 			count--;
 206:Generated_Source\PSoC5/cyfitter_cfg.c **** 		}
 207:Generated_Source\PSoC5/cyfitter_cfg.c **** 	}
 208:Generated_Source\PSoC5/cyfitter_cfg.c **** }
 209:Generated_Source\PSoC5/cyfitter_cfg.c **** 
 210:Generated_Source\PSoC5/cyfitter_cfg.c **** /*******************************************************************************
 211:Generated_Source\PSoC5/cyfitter_cfg.c **** * Function Name: ClockSetup
 212:Generated_Source\PSoC5/cyfitter_cfg.c **** ********************************************************************************
 213:Generated_Source\PSoC5/cyfitter_cfg.c **** *
 214:Generated_Source\PSoC5/cyfitter_cfg.c **** * Summary:
 215:Generated_Source\PSoC5/cyfitter_cfg.c **** *  Performs the initialization of all of the clocks in the device based on the
 216:Generated_Source\PSoC5/cyfitter_cfg.c **** *  settings in the Clock tab of the DWR.  This includes enabling the requested
 217:Generated_Source\PSoC5/cyfitter_cfg.c **** *  clocks and setting the necessary dividers to produce the desired frequency. 
 218:Generated_Source\PSoC5/cyfitter_cfg.c **** *
 219:Generated_Source\PSoC5/cyfitter_cfg.c **** * Parameters:
 220:Generated_Source\PSoC5/cyfitter_cfg.c **** *  void
 221:Generated_Source\PSoC5/cyfitter_cfg.c **** *
 222:Generated_Source\PSoC5/cyfitter_cfg.c **** * Return:
 223:Generated_Source\PSoC5/cyfitter_cfg.c **** *  void
 224:Generated_Source\PSoC5/cyfitter_cfg.c **** *
 225:Generated_Source\PSoC5/cyfitter_cfg.c **** *******************************************************************************/
 226:Generated_Source\PSoC5/cyfitter_cfg.c **** static void ClockSetup(void);
 227:Generated_Source\PSoC5/cyfitter_cfg.c **** static void ClockSetup(void)
 228:Generated_Source\PSoC5/cyfitter_cfg.c **** {
 229:Generated_Source\PSoC5/cyfitter_cfg.c **** 	uint32 timeout;
 230:Generated_Source\PSoC5/cyfitter_cfg.c **** 	uint8 pllLock;
 231:Generated_Source\PSoC5/cyfitter_cfg.c **** 
 232:Generated_Source\PSoC5/cyfitter_cfg.c **** 
 233:Generated_Source\PSoC5/cyfitter_cfg.c **** 	/* Configure Digital Clocks based on settings from Clock DWR */
 234:Generated_Source\PSoC5/cyfitter_cfg.c **** 	CY_SET_XTND_REG16((void CYFAR *)(CYREG_CLKDIST_DCFG0_CFG0), 0x000Cu);
 235:Generated_Source\PSoC5/cyfitter_cfg.c **** 	CY_SET_XTND_REG8((void CYFAR *)(CYREG_CLKDIST_DCFG0_CFG0 + 0x2u), 0x18u);
 236:Generated_Source\PSoC5/cyfitter_cfg.c **** 	CY_SET_XTND_REG16((void CYFAR *)(CYREG_CLKDIST_DCFG1_CFG0), 0x0005u);
 237:Generated_Source\PSoC5/cyfitter_cfg.c **** 	CY_SET_XTND_REG8((void CYFAR *)(CYREG_CLKDIST_DCFG1_CFG0 + 0x2u), 0x18u);
 238:Generated_Source\PSoC5/cyfitter_cfg.c **** 	CY_SET_XTND_REG16((void CYFAR *)(CYREG_CLKDIST_DCFG2_CFG0), 0x0412u);
 239:Generated_Source\PSoC5/cyfitter_cfg.c **** 	CY_SET_XTND_REG8((void CYFAR *)(CYREG_CLKDIST_DCFG2_CFG0 + 0x2u), 0x18u);
 240:Generated_Source\PSoC5/cyfitter_cfg.c **** 
 241:Generated_Source\PSoC5/cyfitter_cfg.c **** 	/* Configure ILO based on settings from Clock DWR */
 242:Generated_Source\PSoC5/cyfitter_cfg.c **** 	CY_SET_XTND_REG8((void CYFAR *)(CYREG_SLOWCLK_ILO_CR0), 0x02u);
 243:Generated_Source\PSoC5/cyfitter_cfg.c **** 	CY_SET_XTND_REG8((void CYFAR *)(CYREG_CLKDIST_CR), 0x08u);
 244:Generated_Source\PSoC5/cyfitter_cfg.c **** 
 245:Generated_Source\PSoC5/cyfitter_cfg.c **** 	/* Configure IMO based on settings from Clock DWR */
 246:Generated_Source\PSoC5/cyfitter_cfg.c **** 	CY_SET_XTND_REG8((void CYFAR *)(CYREG_FASTCLK_IMO_CR), 0x03u);
 247:Generated_Source\PSoC5/cyfitter_cfg.c **** 	CY_SET_XTND_REG8((void CYFAR *)(CYREG_IMO_TR1), (CY_GET_XTND_REG8((void CYFAR *)CYREG_FLSHID_CUST_
 248:Generated_Source\PSoC5/cyfitter_cfg.c **** 
 249:Generated_Source\PSoC5/cyfitter_cfg.c **** 	/* Configure PLL based on settings from Clock DWR */
 250:Generated_Source\PSoC5/cyfitter_cfg.c **** 	CY_SET_XTND_REG16((void CYFAR *)(CYREG_FASTCLK_PLL_P), 0x022Eu);
 251:Generated_Source\PSoC5/cyfitter_cfg.c **** 	CY_SET_XTND_REG16((void CYFAR *)(CYREG_FASTCLK_PLL_CFG0), 0x1251u);
 252:Generated_Source\PSoC5/cyfitter_cfg.c **** 	/* Wait up to 250us for the PLL to lock */
 253:Generated_Source\PSoC5/cyfitter_cfg.c **** 	pllLock = 0u;
 254:Generated_Source\PSoC5/cyfitter_cfg.c **** 	for (timeout = 250u / 10u; (timeout > 0u) && (pllLock != 0x03u); timeout--)
 255:Generated_Source\PSoC5/cyfitter_cfg.c **** 	{ 
 256:Generated_Source\PSoC5/cyfitter_cfg.c **** 		pllLock = 0x03u & ((uint8)((uint8)pllLock << 1) | ((CY_GET_XTND_REG8((void CYFAR *)CYREG_FASTCLK_
 257:Generated_Source\PSoC5/cyfitter_cfg.c **** 		CyDelayCycles(10u * 48u); /* Delay 10us based on 48MHz clock */
 258:Generated_Source\PSoC5/cyfitter_cfg.c **** 	}
ARM GAS  C:\Users\ingan\AppData\Local\Temp\ccMOr4im.s 			page 6


 259:Generated_Source\PSoC5/cyfitter_cfg.c **** 	/* If we ran out of time the PLL didn't lock so go to the error function */
 260:Generated_Source\PSoC5/cyfitter_cfg.c **** 	if (timeout == 0u)
 261:Generated_Source\PSoC5/cyfitter_cfg.c **** 	{
 262:Generated_Source\PSoC5/cyfitter_cfg.c **** 		CyClockStartupError(CYCLOCKSTART_PLL_ERROR);
 263:Generated_Source\PSoC5/cyfitter_cfg.c **** 	}
 264:Generated_Source\PSoC5/cyfitter_cfg.c **** 
 265:Generated_Source\PSoC5/cyfitter_cfg.c **** 	/* Configure Bus/Master Clock based on settings from Clock DWR */
 266:Generated_Source\PSoC5/cyfitter_cfg.c **** 	CY_SET_XTND_REG16((void CYFAR *)(CYREG_CLKDIST_MSTR0), 0x0100u);
 267:Generated_Source\PSoC5/cyfitter_cfg.c **** 	CY_SET_XTND_REG8((void CYFAR *)(CYREG_CLKDIST_MSTR0), 0x07u);
 268:Generated_Source\PSoC5/cyfitter_cfg.c **** 	CY_SET_XTND_REG8((void CYFAR *)(CYREG_CLKDIST_BCFG0), 0x00u);
 269:Generated_Source\PSoC5/cyfitter_cfg.c **** 	CY_SET_XTND_REG8((void CYFAR *)(CYREG_CLKDIST_BCFG2), 0x48u);
 270:Generated_Source\PSoC5/cyfitter_cfg.c **** 	CY_SET_XTND_REG8((void CYFAR *)(CYREG_CLKDIST_MSTR0), 0x00u);
 271:Generated_Source\PSoC5/cyfitter_cfg.c **** 	CY_SET_XTND_REG8((void CYFAR *)(CYREG_CLKDIST_LD), 0x02u);
 272:Generated_Source\PSoC5/cyfitter_cfg.c **** }
 273:Generated_Source\PSoC5/cyfitter_cfg.c **** 
 274:Generated_Source\PSoC5/cyfitter_cfg.c **** 
 275:Generated_Source\PSoC5/cyfitter_cfg.c **** /* Analog API Functions */
 276:Generated_Source\PSoC5/cyfitter_cfg.c **** 
 277:Generated_Source\PSoC5/cyfitter_cfg.c **** 
 278:Generated_Source\PSoC5/cyfitter_cfg.c **** /*******************************************************************************
 279:Generated_Source\PSoC5/cyfitter_cfg.c **** * Function Name: AnalogSetDefault
 280:Generated_Source\PSoC5/cyfitter_cfg.c **** ********************************************************************************
 281:Generated_Source\PSoC5/cyfitter_cfg.c **** *
 282:Generated_Source\PSoC5/cyfitter_cfg.c **** * Summary:
 283:Generated_Source\PSoC5/cyfitter_cfg.c **** *  Sets up the analog portions of the chip to default values based on chip
 284:Generated_Source\PSoC5/cyfitter_cfg.c **** *  configuration options from the project.
 285:Generated_Source\PSoC5/cyfitter_cfg.c **** *
 286:Generated_Source\PSoC5/cyfitter_cfg.c **** * Parameters:
 287:Generated_Source\PSoC5/cyfitter_cfg.c **** *  void
 288:Generated_Source\PSoC5/cyfitter_cfg.c **** *
 289:Generated_Source\PSoC5/cyfitter_cfg.c **** * Return:
 290:Generated_Source\PSoC5/cyfitter_cfg.c **** *  void
 291:Generated_Source\PSoC5/cyfitter_cfg.c **** *
 292:Generated_Source\PSoC5/cyfitter_cfg.c **** *******************************************************************************/
 293:Generated_Source\PSoC5/cyfitter_cfg.c **** static void AnalogSetDefault(void);
 294:Generated_Source\PSoC5/cyfitter_cfg.c **** static void AnalogSetDefault(void)
 295:Generated_Source\PSoC5/cyfitter_cfg.c **** {
 296:Generated_Source\PSoC5/cyfitter_cfg.c **** 	uint8 bg_xover_inl_trim = CY_GET_XTND_REG8((void CYFAR *)(CYREG_FLSHID_MFG_CFG_BG_XOVER_INL_TRIM +
 297:Generated_Source\PSoC5/cyfitter_cfg.c **** 	CY_SET_XTND_REG8((void CYFAR *)(CYREG_BG_DFT0), (bg_xover_inl_trim & 0x07u));
 298:Generated_Source\PSoC5/cyfitter_cfg.c **** 	CY_SET_XTND_REG8((void CYFAR *)(CYREG_BG_DFT1), ((bg_xover_inl_trim >> 4) & 0x0Fu));
 299:Generated_Source\PSoC5/cyfitter_cfg.c **** 	CY_SET_XTND_REG8((void CYFAR *)CYREG_OPAMP1_SW, 0x05u);
 300:Generated_Source\PSoC5/cyfitter_cfg.c **** 	CY_SET_XTND_REG8((void CYFAR *)CYREG_OPAMP2_SW, 0x05u);
 301:Generated_Source\PSoC5/cyfitter_cfg.c **** 	CY_SET_XTND_REG8((void CYFAR *)CYREG_OPAMP3_SW, 0x05u);
 302:Generated_Source\PSoC5/cyfitter_cfg.c **** 	CY_SET_XTND_REG8((void CYFAR *)CYREG_PUMP_CR0, 0x44u);
 303:Generated_Source\PSoC5/cyfitter_cfg.c **** }
 304:Generated_Source\PSoC5/cyfitter_cfg.c **** 
 305:Generated_Source\PSoC5/cyfitter_cfg.c **** 
 306:Generated_Source\PSoC5/cyfitter_cfg.c **** /*******************************************************************************
 307:Generated_Source\PSoC5/cyfitter_cfg.c **** * Function Name: SetAnalogRoutingPumps
 308:Generated_Source\PSoC5/cyfitter_cfg.c **** ********************************************************************************
 309:Generated_Source\PSoC5/cyfitter_cfg.c **** *
 310:Generated_Source\PSoC5/cyfitter_cfg.c **** * Summary:
 311:Generated_Source\PSoC5/cyfitter_cfg.c **** * Enables or disables the analog pumps feeding analog routing switches.
 312:Generated_Source\PSoC5/cyfitter_cfg.c **** * Intended to be called at startup, based on the Vdda system configuration;
 313:Generated_Source\PSoC5/cyfitter_cfg.c **** * may be called during operation when the user informs us that the Vdda voltage
 314:Generated_Source\PSoC5/cyfitter_cfg.c **** * crossed the pump threshold.
 315:Generated_Source\PSoC5/cyfitter_cfg.c **** *
ARM GAS  C:\Users\ingan\AppData\Local\Temp\ccMOr4im.s 			page 7


 316:Generated_Source\PSoC5/cyfitter_cfg.c **** * Parameters:
 317:Generated_Source\PSoC5/cyfitter_cfg.c **** *  enabled - 1 to enable the pumps, 0 to disable the pumps
 318:Generated_Source\PSoC5/cyfitter_cfg.c **** *
 319:Generated_Source\PSoC5/cyfitter_cfg.c **** * Return:
 320:Generated_Source\PSoC5/cyfitter_cfg.c **** *  void
 321:Generated_Source\PSoC5/cyfitter_cfg.c **** *
 322:Generated_Source\PSoC5/cyfitter_cfg.c **** *******************************************************************************/
 323:Generated_Source\PSoC5/cyfitter_cfg.c **** void SetAnalogRoutingPumps(uint8 enabled)
 324:Generated_Source\PSoC5/cyfitter_cfg.c **** {
  28              		.loc 1 324 0
  29              		.cfi_startproc
  30              		@ args = 0, pretend = 0, frame = 0
  31              		@ frame_needed = 0, uses_anonymous_args = 0
  32              		@ link register save eliminated.
  33              	.LVL0:
 325:Generated_Source\PSoC5/cyfitter_cfg.c **** 	uint8 regValue = CY_GET_XTND_REG8((void CYFAR *)CYREG_PUMP_CR0);
  34              		.loc 1 325 0
  35 0000 024A     		ldr	r2, .L2
  36 0002 1378     		ldrb	r3, [r2]	@ zero_extendqisi2
  37 0004 DBB2     		uxtb	r3, r3
  38              	.LVL1:
 326:Generated_Source\PSoC5/cyfitter_cfg.c **** 	if (enabled != 0u)
 327:Generated_Source\PSoC5/cyfitter_cfg.c **** 	{
 328:Generated_Source\PSoC5/cyfitter_cfg.c **** 		regValue |= 0x00u;
 329:Generated_Source\PSoC5/cyfitter_cfg.c **** 	}
 330:Generated_Source\PSoC5/cyfitter_cfg.c **** 	else
 331:Generated_Source\PSoC5/cyfitter_cfg.c **** 	{
 332:Generated_Source\PSoC5/cyfitter_cfg.c **** 		regValue &= (uint8)~0x00u;
 333:Generated_Source\PSoC5/cyfitter_cfg.c **** 	}
 334:Generated_Source\PSoC5/cyfitter_cfg.c **** 	CY_SET_XTND_REG8((void CYFAR *)CYREG_PUMP_CR0, regValue);
  39              		.loc 1 334 0
  40 0006 1370     		strb	r3, [r2]
  41 0008 7047     		bx	lr
  42              	.L3:
  43 000a 00BF     		.align	2
  44              	.L2:
  45 000c 76580040 		.word	1073764470
  46              		.cfi_endproc
  47              	.LFE7:
  48              		.size	SetAnalogRoutingPumps, .-SetAnalogRoutingPumps
  49              		.section	.text.cyfitter_cfg,"ax",%progbits
  50              		.align	1
  51              		.global	cyfitter_cfg
  52              		.thumb
  53              		.thumb_func
  54              		.type	cyfitter_cfg, %function
  55              	cyfitter_cfg:
  56              	.LFB8:
 335:Generated_Source\PSoC5/cyfitter_cfg.c **** }
 336:Generated_Source\PSoC5/cyfitter_cfg.c **** 
 337:Generated_Source\PSoC5/cyfitter_cfg.c **** 
 338:Generated_Source\PSoC5/cyfitter_cfg.c **** 
 339:Generated_Source\PSoC5/cyfitter_cfg.c **** 
 340:Generated_Source\PSoC5/cyfitter_cfg.c **** /*******************************************************************************
 341:Generated_Source\PSoC5/cyfitter_cfg.c **** * Function Name: cyfitter_cfg
 342:Generated_Source\PSoC5/cyfitter_cfg.c **** ********************************************************************************
 343:Generated_Source\PSoC5/cyfitter_cfg.c **** * Summary:
ARM GAS  C:\Users\ingan\AppData\Local\Temp\ccMOr4im.s 			page 8


 344:Generated_Source\PSoC5/cyfitter_cfg.c **** *  This function is called by the start-up code for the selected device. It
 345:Generated_Source\PSoC5/cyfitter_cfg.c **** *  performs all of the necessary device configuration based on the design
 346:Generated_Source\PSoC5/cyfitter_cfg.c **** *  settings.  This includes settings from the Design Wide Resources (DWR) such
 347:Generated_Source\PSoC5/cyfitter_cfg.c **** *  as Clocks and Pins as well as any component configuration that is necessary.
 348:Generated_Source\PSoC5/cyfitter_cfg.c **** *
 349:Generated_Source\PSoC5/cyfitter_cfg.c **** * Parameters:
 350:Generated_Source\PSoC5/cyfitter_cfg.c **** *   void
 351:Generated_Source\PSoC5/cyfitter_cfg.c **** *
 352:Generated_Source\PSoC5/cyfitter_cfg.c **** * Return:
 353:Generated_Source\PSoC5/cyfitter_cfg.c **** *   void
 354:Generated_Source\PSoC5/cyfitter_cfg.c **** *
 355:Generated_Source\PSoC5/cyfitter_cfg.c **** *******************************************************************************/
 356:Generated_Source\PSoC5/cyfitter_cfg.c **** 
 357:Generated_Source\PSoC5/cyfitter_cfg.c **** void cyfitter_cfg(void)
 358:Generated_Source\PSoC5/cyfitter_cfg.c **** {
  57              		.loc 1 358 0
  58              		.cfi_startproc
  59              		@ args = 0, pretend = 0, frame = 0
  60              		@ frame_needed = 0, uses_anonymous_args = 0
  61 0000 F8B5     		push	{r3, r4, r5, r6, r7, lr}
  62              		.cfi_def_cfa_offset 24
  63              		.cfi_offset 3, -24
  64              		.cfi_offset 4, -20
  65              		.cfi_offset 5, -16
  66              		.cfi_offset 6, -12
  67              		.cfi_offset 7, -8
  68              		.cfi_offset 14, -4
 359:Generated_Source\PSoC5/cyfitter_cfg.c **** #ifdef CYGlobalIntDisable
 360:Generated_Source\PSoC5/cyfitter_cfg.c **** 	/* Disable interrupts by default. Let user enable if/when they want. */
 361:Generated_Source\PSoC5/cyfitter_cfg.c **** 	CYGlobalIntDisable
  69              		.loc 1 361 0
  70              		.syntax unified
  71              	@ 361 "Generated_Source\PSoC5\cyfitter_cfg.c" 1
  72 0002 72B6     		CPSID   i
  73              	@ 0 "" 2
 362:Generated_Source\PSoC5/cyfitter_cfg.c **** #endif
 363:Generated_Source\PSoC5/cyfitter_cfg.c **** 
 364:Generated_Source\PSoC5/cyfitter_cfg.c **** 	/* Enable/Disable Debug functionality based on settings from System DWR */
 365:Generated_Source\PSoC5/cyfitter_cfg.c **** 	CY_SET_XTND_REG8((void CYFAR *)CYREG_MLOGIC_DEBUG, (CY_GET_XTND_REG8((void CYFAR *)CYREG_MLOGIC_DE
  74              		.loc 1 365 0
  75              		.thumb
  76              		.syntax unified
  77 0004 604A     		ldr	r2, .L20
  78              	.LBB42:
  79              	.LBB43:
 366:Generated_Source\PSoC5/cyfitter_cfg.c **** 
 367:Generated_Source\PSoC5/cyfitter_cfg.c **** 	{
 368:Generated_Source\PSoC5/cyfitter_cfg.c **** 
 369:Generated_Source\PSoC5/cyfitter_cfg.c **** 		CYPACKED typedef struct {
 370:Generated_Source\PSoC5/cyfitter_cfg.c **** 			void CYFAR *address;
 371:Generated_Source\PSoC5/cyfitter_cfg.c **** 			uint16 size;
 372:Generated_Source\PSoC5/cyfitter_cfg.c **** 		} CYPACKED_ATTR cfg_memset_t;
 373:Generated_Source\PSoC5/cyfitter_cfg.c **** 
 374:Generated_Source\PSoC5/cyfitter_cfg.c **** 		static const cfg_memset_t CYCODE cfg_memset_list[] = {
 375:Generated_Source\PSoC5/cyfitter_cfg.c **** 			/* address, size */
 376:Generated_Source\PSoC5/cyfitter_cfg.c **** 			{(void CYFAR *)(CYREG_PRT4_DR), 48u},
 377:Generated_Source\PSoC5/cyfitter_cfg.c **** 			{(void CYFAR *)(CYREG_PRT15_DR), 16u},
ARM GAS  C:\Users\ingan\AppData\Local\Temp\ccMOr4im.s 			page 9


 378:Generated_Source\PSoC5/cyfitter_cfg.c **** 			{(void CYFAR *)(CYDEV_UCFG_B0_P0_U0_BASE), 4096u},
 379:Generated_Source\PSoC5/cyfitter_cfg.c **** 			{(void CYFAR *)(CYDEV_UCFG_B1_P2_U0_BASE), 2048u},
 380:Generated_Source\PSoC5/cyfitter_cfg.c **** 			{(void CYFAR *)(CYDEV_UCFG_DSI0_BASE), 2560u},
 381:Generated_Source\PSoC5/cyfitter_cfg.c **** 			{(void CYFAR *)(CYDEV_UCFG_DSI12_BASE), 512u},
 382:Generated_Source\PSoC5/cyfitter_cfg.c **** 			{(void CYFAR *)(CYREG_BCTL0_MDCLK_EN), 32u},
 383:Generated_Source\PSoC5/cyfitter_cfg.c **** 		};
 384:Generated_Source\PSoC5/cyfitter_cfg.c **** 
 385:Generated_Source\PSoC5/cyfitter_cfg.c **** 		uint8 CYDATA i;
 386:Generated_Source\PSoC5/cyfitter_cfg.c **** 
 387:Generated_Source\PSoC5/cyfitter_cfg.c **** 		/* Zero out critical memory blocks before beginning configuration */
 388:Generated_Source\PSoC5/cyfitter_cfg.c **** 		for (i = 0u; i < (sizeof(cfg_memset_list)/sizeof(cfg_memset_list[0])); i++)
 389:Generated_Source\PSoC5/cyfitter_cfg.c **** 		{
 390:Generated_Source\PSoC5/cyfitter_cfg.c **** 			const cfg_memset_t CYCODE * CYDATA ms = &cfg_memset_list[i];
 391:Generated_Source\PSoC5/cyfitter_cfg.c **** 			CYMEMZERO(ms->address, (size_t)(uint32)(ms->size));
  80              		.loc 1 391 0
  81 0006 614D     		ldr	r5, .L20+4
  82              	.LBE43:
  83              	.LBE42:
 365:Generated_Source\PSoC5/cyfitter_cfg.c **** 
  84              		.loc 1 365 0
  85 0008 1378     		ldrb	r3, [r2]	@ zero_extendqisi2
  86 000a 0024     		movs	r4, #0
  87 000c 43F00403 		orr	r3, r3, #4
  88 0010 1370     		strb	r3, [r2]
  89              	.LVL2:
  90              	.LBB52:
  91              	.LBB46:
  92              		.loc 1 391 0
  93 0012 0626     		movs	r6, #6
  94              	.LVL3:
  95              	.L5:
  96              		.loc 1 391 0 is_stmt 0 discriminator 3
  97 0014 06FB0453 		mla	r3, r6, r4, r5
  98              	.LBB44:
  99              	.LBB45:
  79:Generated_Source\PSoC5/cyfitter_cfg.c **** }
 100              		.loc 1 79 0 is_stmt 1 discriminator 3
 101 0018 0021     		movs	r1, #0
 102 001a 9A88     		ldrh	r2, [r3, #4]	@ unaligned
 103 001c 1868     		ldr	r0, [r3]	@ unaligned
 104 001e 0134     		adds	r4, r4, #1
 105              	.LVL4:
 106 0020 FFF7FEFF 		bl	memset
 107              	.LVL5:
 108              	.LBE45:
 109              	.LBE44:
 110              	.LBE46:
 388:Generated_Source\PSoC5/cyfitter_cfg.c **** 		{
 111              		.loc 1 388 0 discriminator 3
 112 0024 072C     		cmp	r4, #7
 113 0026 F5D1     		bne	.L5
 114 0028 5948     		ldr	r0, .L20+8
 115              	.LBB47:
 116              	.LBB48:
 196:Generated_Source\PSoC5/cyfitter_cfg.c **** 	{
 117              		.loc 1 196 0
 118 002a 5A4D     		ldr	r5, .L20+12
ARM GAS  C:\Users\ingan\AppData\Local\Temp\ccMOr4im.s 			page 10


 119              	.LBE48:
 120              	.LBE47:
 121 002c 0024     		movs	r4, #0
 122              	.LVL6:
 123              	.L8:
 124              	.LBB51:
 125              	.LBB50:
 126              	.LBB49:
 198:Generated_Source\PSoC5/cyfitter_cfg.c **** 		uint8 count = (uint8)baseAddr;
 127              		.loc 1 198 0
 128 002e 50F8041F 		ldr	r1, [r0, #4]!
 129              	.LVL7:
 130 0032 04F11053 		add	r3, r4, #603979776
 131 0036 03F11002 		add	r2, r3, #16
 200:Generated_Source\PSoC5/cyfitter_cfg.c **** 		while (count != 0u)
 132              		.loc 1 200 0
 133 003a 21F0FF06 		bic	r6, r1, #255
 134              	.LVL8:
 135 003e 1133     		adds	r3, r3, #17
 136 0040 C9B2     		uxtb	r1, r1
 137 0042 0B44     		add	r3, r3, r1
 138 0044 5200     		lsls	r2, r2, #1
 139 0046 5B00     		lsls	r3, r3, #1
 140              	.LVL9:
 141              	.L6:
 142 0048 0232     		adds	r2, r2, #2
 201:Generated_Source\PSoC5/cyfitter_cfg.c **** 		{
 143              		.loc 1 201 0
 144 004a 9A42     		cmp	r2, r3
 145 004c 06D0     		beq	.L19
 203:Generated_Source\PSoC5/cyfitter_cfg.c **** 			j++;
 146              		.loc 1 203 0
 147 004e 12F8027C 		ldrb	r7, [r2, #-2]	@ zero_extendqisi2
 148 0052 12F801EC 		ldrb	lr, [r2, #-1]	@ zero_extendqisi2
 149 0056 07F806E0 		strb	lr, [r7, r6]
 150 005a F5E7     		b	.L6
 151              	.L19:
 152              	.LBE49:
 196:Generated_Source\PSoC5/cyfitter_cfg.c **** 	{
 153              		.loc 1 196 0
 154 005c A842     		cmp	r0, r5
 155 005e 0C44     		add	r4, r4, r1
 156              	.LVL10:
 157 0060 E5D1     		bne	.L8
 158              	.LVL11:
 159              	.LBE50:
 160              	.LBE51:
 392:Generated_Source\PSoC5/cyfitter_cfg.c **** 		}
 393:Generated_Source\PSoC5/cyfitter_cfg.c **** 
 394:Generated_Source\PSoC5/cyfitter_cfg.c **** 		cfg_write_bytes32(cy_cfg_addr_table, cy_cfg_data_table);
 395:Generated_Source\PSoC5/cyfitter_cfg.c **** 
 396:Generated_Source\PSoC5/cyfitter_cfg.c **** 		/* Enable digital routing */
 397:Generated_Source\PSoC5/cyfitter_cfg.c **** 		CY_SET_XTND_REG8((void CYFAR *)CYREG_BCTL0_BANK_CTL, CY_GET_XTND_REG8((void CYFAR *)CYREG_BCTL0_B
 161              		.loc 1 397 0
 162 0062 4D4A     		ldr	r2, .L20+16
 163              	.LBE52:
 164              	.LBB53:
ARM GAS  C:\Users\ingan\AppData\Local\Temp\ccMOr4im.s 			page 11


 165              	.LBB54:
 256:Generated_Source\PSoC5/cyfitter_cfg.c **** 		CyDelayCycles(10u * 48u); /* Delay 10us based on 48MHz clock */
 166              		.loc 1 256 0
 167 0064 4D4E     		ldr	r6, .L20+20
 168              	.LBE54:
 169              	.LBE53:
 170              	.LBB59:
 171              		.loc 1 397 0
 172 0066 1378     		ldrb	r3, [r2]	@ zero_extendqisi2
 173              	.LBE59:
 174              	.LBB60:
 175              	.LBB55:
 251:Generated_Source\PSoC5/cyfitter_cfg.c **** 	/* Wait up to 250us for the PLL to lock */
 176              		.loc 1 251 0
 177 0068 1925     		movs	r5, #25
 178              	.LBE55:
 179              	.LBE60:
 180              	.LBB61:
 181              		.loc 1 397 0
 182 006a 43F00203 		orr	r3, r3, #2
 183 006e 1370     		strb	r3, [r2]
 398:Generated_Source\PSoC5/cyfitter_cfg.c **** 		CY_SET_XTND_REG8((void CYFAR *)CYREG_BCTL1_BANK_CTL, CY_GET_XTND_REG8((void CYFAR *)CYREG_BCTL1_B
 184              		.loc 1 398 0
 185 0070 137C     		ldrb	r3, [r2, #16]	@ zero_extendqisi2
 186              	.LBE61:
 187              	.LBB62:
 188              	.LBB56:
 253:Generated_Source\PSoC5/cyfitter_cfg.c **** 	for (timeout = 250u / 10u; (timeout > 0u) && (pllLock != 0x03u); timeout--)
 189              		.loc 1 253 0
 190 0072 0024     		movs	r4, #0
 191              	.LBE56:
 192              	.LBE62:
 193              	.LBB63:
 194              		.loc 1 398 0
 195 0074 43F00203 		orr	r3, r3, #2
 196 0078 1374     		strb	r3, [r2, #16]
 197              	.LVL12:
 198              	.LBE63:
 199              	.LBB64:
 200              	.LBB65:
  86:Generated_Source\PSoC5/cyfitter_cfg.c **** }
 201              		.loc 1 86 0
 202 007a 02F17F42 		add	r2, r2, #-16777216
 203 007e 484B     		ldr	r3, .L20+24
 204 0080 02F1FF12 		add	r2, r2, #16711935
 205 0084 03CB     		ldmia	r3!, {r0, r1}
 206 0086 1060     		str	r0, [r2]	@ unaligned
 207 0088 5160     		str	r1, [r2, #4]	@ unaligned
 208              	.LVL13:
 209              	.LBE65:
 210              	.LBE64:
 211              	.LBB66:
 212              	.LBB67:
 213 008a 03CB     		ldmia	r3!, {r0, r1}
 214 008c C2F8C000 		str	r0, [r2, #192]	@ unaligned
 215 0090 C2F8C410 		str	r1, [r2, #196]	@ unaligned
 216              	.LVL14:
ARM GAS  C:\Users\ingan\AppData\Local\Temp\ccMOr4im.s 			page 12


 217              	.LBE67:
 218              	.LBE66:
 219              	.LBB68:
 220              	.LBB69:
 221 0094 03CB     		ldmia	r3!, {r0, r1}
 222 0096 1061     		str	r0, [r2, #16]	@ unaligned
 223 0098 5161     		str	r1, [r2, #20]	@ unaligned
 224              	.LVL15:
 225              	.LBE69:
 226              	.LBE68:
 227              	.LBB70:
 228              	.LBB71:
 229 009a 03CB     		ldmia	r3!, {r0, r1}
 230 009c 1062     		str	r0, [r2, #32]	@ unaligned
 231 009e 5162     		str	r1, [r2, #36]	@ unaligned
 232              	.LVL16:
 233              	.LBE71:
 234              	.LBE70:
 235              	.LBB72:
 236              	.LBB73:
 237 00a0 03CB     		ldmia	r3!, {r0, r1}
 238              	.LBE73:
 239              	.LBE72:
 399:Generated_Source\PSoC5/cyfitter_cfg.c **** 	}
 400:Generated_Source\PSoC5/cyfitter_cfg.c **** 
 401:Generated_Source\PSoC5/cyfitter_cfg.c **** 
 402:Generated_Source\PSoC5/cyfitter_cfg.c **** 	/* Perform second pass device configuration. These items must be configured in specific order afte
 403:Generated_Source\PSoC5/cyfitter_cfg.c **** 	CYCONFIGCPY((void CYFAR *)(CYREG_PRT0_DM0), (const void CYFAR *)(BS_IOPINS0_0_VAL), 8u);
 404:Generated_Source\PSoC5/cyfitter_cfg.c **** 	CYCONFIGCPY((void CYFAR *)(CYREG_PRT12_DM0), (const void CYFAR *)(BS_IOPINS0_7_VAL), 8u);
 405:Generated_Source\PSoC5/cyfitter_cfg.c **** 	CYCONFIGCPY((void CYFAR *)(CYREG_PRT1_DM0), (const void CYFAR *)(BS_IOPINS0_1_VAL), 8u);
 406:Generated_Source\PSoC5/cyfitter_cfg.c **** 	CYCONFIGCPY((void CYFAR *)(CYREG_PRT2_DM0), (const void CYFAR *)(BS_IOPINS0_2_VAL), 8u);
 407:Generated_Source\PSoC5/cyfitter_cfg.c **** 	CYCONFIGCPY((void CYFAR *)(CYREG_PRT3_DM0), (const void CYFAR *)(BS_IOPINS0_3_VAL), 8u);
 408:Generated_Source\PSoC5/cyfitter_cfg.c **** 	/* Switch Boost to the precision bandgap reference from its internal reference */
 409:Generated_Source\PSoC5/cyfitter_cfg.c **** 	CY_SET_REG8((void CYXDATA *)CYREG_BOOST_CR2, (CY_GET_REG8((void CYXDATA *)CYREG_BOOST_CR2) | 0x08u
 240              		.loc 1 409 0
 241 00a2 A2F55E62 		sub	r2, r2, #3552
 242              	.LBB75:
 243              	.LBB74:
  86:Generated_Source\PSoC5/cyfitter_cfg.c **** }
 244              		.loc 1 86 0
 245 00a6 C2F8141E 		str	r1, [r2, #3604]	@ unaligned
 246              	.LVL17:
 247 00aa C2F8100E 		str	r0, [r2, #3600]	@ unaligned
 248              	.LBE74:
 249              	.LBE75:
 250              		.loc 1 409 0
 251 00ae 1378     		ldrb	r3, [r2]	@ zero_extendqisi2
 252              	.LBB76:
 253              	.LBB57:
 236:Generated_Source\PSoC5/cyfitter_cfg.c **** 	CY_SET_XTND_REG8((void CYFAR *)(CYREG_CLKDIST_DCFG1_CFG0 + 0x2u), 0x18u);
 254              		.loc 1 236 0
 255 00b0 0521     		movs	r1, #5
 256              	.LBE57:
 257              	.LBE76:
 258              		.loc 1 409 0
 259 00b2 43F00803 		orr	r3, r3, #8
 260 00b6 1370     		strb	r3, [r2]
ARM GAS  C:\Users\ingan\AppData\Local\Temp\ccMOr4im.s 			page 13


 410:Generated_Source\PSoC5/cyfitter_cfg.c **** 
 411:Generated_Source\PSoC5/cyfitter_cfg.c **** 	/* Set Flash Cycles based on max possible frequency in case a glitch occurs during ClockSetup(). *
 412:Generated_Source\PSoC5/cyfitter_cfg.c **** 	CY_SET_XTND_REG8((void CYFAR *)(CYREG_CACHE_CC_CTL), (((CYDEV_INSTRUCT_CACHE_ENABLED) != 0) ? 0x61
 261              		.loc 1 412 0
 262 00b8 3A4B     		ldr	r3, .L20+28
 263 00ba 6122     		movs	r2, #97
 264 00bc 1A70     		strb	r2, [r3]
 265              	.LBB77:
 266              	.LBB58:
 234:Generated_Source\PSoC5/cyfitter_cfg.c **** 	CY_SET_XTND_REG8((void CYFAR *)(CYREG_CLKDIST_DCFG0_CFG0 + 0x2u), 0x18u);
 267              		.loc 1 234 0
 268 00be 0C22     		movs	r2, #12
 269 00c0 A3F5F063 		sub	r3, r3, #1920
 270 00c4 1A80     		strh	r2, [r3]	@ movhi
 235:Generated_Source\PSoC5/cyfitter_cfg.c **** 	CY_SET_XTND_REG16((void CYFAR *)(CYREG_CLKDIST_DCFG1_CFG0), 0x0005u);
 271              		.loc 1 235 0
 272 00c6 384A     		ldr	r2, .L20+32
 273 00c8 1823     		movs	r3, #24
 274 00ca 1370     		strb	r3, [r2]
 236:Generated_Source\PSoC5/cyfitter_cfg.c **** 	CY_SET_XTND_REG8((void CYFAR *)(CYREG_CLKDIST_DCFG1_CFG0 + 0x2u), 0x18u);
 275              		.loc 1 236 0
 276 00cc 5180     		strh	r1, [r2, #2]	@ movhi
 238:Generated_Source\PSoC5/cyfitter_cfg.c **** 	CY_SET_XTND_REG8((void CYFAR *)(CYREG_CLKDIST_DCFG2_CFG0 + 0x2u), 0x18u);
 277              		.loc 1 238 0
 278 00ce 40F21241 		movw	r1, #1042
 237:Generated_Source\PSoC5/cyfitter_cfg.c **** 	CY_SET_XTND_REG16((void CYFAR *)(CYREG_CLKDIST_DCFG2_CFG0), 0x0412u);
 279              		.loc 1 237 0
 280 00d2 1371     		strb	r3, [r2, #4]
 238:Generated_Source\PSoC5/cyfitter_cfg.c **** 	CY_SET_XTND_REG8((void CYFAR *)(CYREG_CLKDIST_DCFG2_CFG0 + 0x2u), 0x18u);
 281              		.loc 1 238 0
 282 00d4 D180     		strh	r1, [r2, #6]	@ movhi
 239:Generated_Source\PSoC5/cyfitter_cfg.c **** 
 283              		.loc 1 239 0
 284 00d6 1372     		strb	r3, [r2, #8]
 242:Generated_Source\PSoC5/cyfitter_cfg.c **** 	CY_SET_XTND_REG8((void CYFAR *)(CYREG_CLKDIST_CR), 0x08u);
 285              		.loc 1 242 0
 286 00d8 344B     		ldr	r3, .L20+36
 287 00da 0222     		movs	r2, #2
 288 00dc 1A70     		strb	r2, [r3]
 243:Generated_Source\PSoC5/cyfitter_cfg.c **** 
 289              		.loc 1 243 0
 290 00de 4FF04023 		mov	r3, #1073758208
 291 00e2 0822     		movs	r2, #8
 292 00e4 1A70     		strb	r2, [r3]
 246:Generated_Source\PSoC5/cyfitter_cfg.c **** 	CY_SET_XTND_REG8((void CYFAR *)(CYREG_IMO_TR1), (CY_GET_XTND_REG8((void CYFAR *)CYREG_FLSHID_CUST_
 293              		.loc 1 246 0
 294 00e6 0322     		movs	r2, #3
 295 00e8 83F80022 		strb	r2, [r3, #512]
 247:Generated_Source\PSoC5/cyfitter_cfg.c **** 
 296              		.loc 1 247 0
 297 00ec 304B     		ldr	r3, .L20+40
 298 00ee 314A     		ldr	r2, .L20+44
 299 00f0 1B78     		ldrb	r3, [r3]	@ zero_extendqisi2
 300 00f2 DBB2     		uxtb	r3, r3
 301 00f4 1370     		strb	r3, [r2]
 250:Generated_Source\PSoC5/cyfitter_cfg.c **** 	CY_SET_XTND_REG16((void CYFAR *)(CYREG_FASTCLK_PLL_CFG0), 0x1251u);
 302              		.loc 1 250 0
ARM GAS  C:\Users\ingan\AppData\Local\Temp\ccMOr4im.s 			page 14


 303 00f6 40F22E22 		movw	r2, #558
 304 00fa 2F4B     		ldr	r3, .L20+48
 305 00fc 1A80     		strh	r2, [r3]	@ movhi
 251:Generated_Source\PSoC5/cyfitter_cfg.c **** 	/* Wait up to 250us for the PLL to lock */
 306              		.loc 1 251 0
 307 00fe 41F25122 		movw	r2, #4689
 308 0102 23F8022C 		strh	r2, [r3, #-2]	@ movhi
 309              	.LVL18:
 310              	.L10:
 256:Generated_Source\PSoC5/cyfitter_cfg.c **** 		CyDelayCycles(10u * 48u); /* Delay 10us based on 48MHz clock */
 311              		.loc 1 256 0
 312 0106 3378     		ldrb	r3, [r6]	@ zero_extendqisi2
 257:Generated_Source\PSoC5/cyfitter_cfg.c **** 	}
 313              		.loc 1 257 0
 314 0108 4FF4F070 		mov	r0, #480
 256:Generated_Source\PSoC5/cyfitter_cfg.c **** 		CyDelayCycles(10u * 48u); /* Delay 10us based on 48MHz clock */
 315              		.loc 1 256 0
 316 010c 03F00103 		and	r3, r3, #1
 317 0110 43EA4404 		orr	r4, r3, r4, lsl #1
 318              	.LVL19:
 257:Generated_Source\PSoC5/cyfitter_cfg.c **** 	}
 319              		.loc 1 257 0
 320 0114 FFF7FEFF 		bl	CyDelayCycles
 321              	.LVL20:
 254:Generated_Source\PSoC5/cyfitter_cfg.c **** 	{ 
 322              		.loc 1 254 0
 323 0118 013D     		subs	r5, r5, #1
 324              	.LVL21:
 256:Generated_Source\PSoC5/cyfitter_cfg.c **** 		CyDelayCycles(10u * 48u); /* Delay 10us based on 48MHz clock */
 325              		.loc 1 256 0
 326 011a 04F00304 		and	r4, r4, #3
 327              	.LVL22:
 254:Generated_Source\PSoC5/cyfitter_cfg.c **** 	{ 
 328              		.loc 1 254 0
 329 011e 32D0     		beq	.L9
 330              	.LVL23:
 331 0120 032C     		cmp	r4, #3
 332 0122 F0D1     		bne	.L10
 266:Generated_Source\PSoC5/cyfitter_cfg.c **** 	CY_SET_XTND_REG8((void CYFAR *)(CYREG_CLKDIST_MSTR0), 0x07u);
 333              		.loc 1 266 0
 334 0124 254B     		ldr	r3, .L20+52
 335 0126 4FF48072 		mov	r2, #256
 336 012a 1A80     		strh	r2, [r3]	@ movhi
 268:Generated_Source\PSoC5/cyfitter_cfg.c **** 	CY_SET_XTND_REG8((void CYFAR *)(CYREG_CLKDIST_BCFG2), 0x48u);
 337              		.loc 1 268 0
 338 012c 2449     		ldr	r1, .L20+56
 267:Generated_Source\PSoC5/cyfitter_cfg.c **** 	CY_SET_XTND_REG8((void CYFAR *)(CYREG_CLKDIST_BCFG0), 0x00u);
 339              		.loc 1 267 0
 340 012e 0722     		movs	r2, #7
 341 0130 1A70     		strb	r2, [r3]
 269:Generated_Source\PSoC5/cyfitter_cfg.c **** 	CY_SET_XTND_REG8((void CYFAR *)(CYREG_CLKDIST_MSTR0), 0x00u);
 342              		.loc 1 269 0
 343 0132 4820     		movs	r0, #72
 268:Generated_Source\PSoC5/cyfitter_cfg.c **** 	CY_SET_XTND_REG8((void CYFAR *)(CYREG_CLKDIST_BCFG2), 0x48u);
 344              		.loc 1 268 0
 345 0134 0022     		movs	r2, #0
 346 0136 0A70     		strb	r2, [r1]
ARM GAS  C:\Users\ingan\AppData\Local\Temp\ccMOr4im.s 			page 15


 269:Generated_Source\PSoC5/cyfitter_cfg.c **** 	CY_SET_XTND_REG8((void CYFAR *)(CYREG_CLKDIST_MSTR0), 0x00u);
 347              		.loc 1 269 0
 348 0138 8870     		strb	r0, [r1, #2]
 270:Generated_Source\PSoC5/cyfitter_cfg.c **** 	CY_SET_XTND_REG8((void CYFAR *)(CYREG_CLKDIST_LD), 0x02u);
 349              		.loc 1 270 0
 350 013a 1A70     		strb	r2, [r3]
 271:Generated_Source\PSoC5/cyfitter_cfg.c **** }
 351              		.loc 1 271 0
 352 013c 0222     		movs	r2, #2
 353 013e 03F8032C 		strb	r2, [r3, #-3]
 354              	.LVL24:
 355              	.LBE58:
 356              	.LBE77:
 413:Generated_Source\PSoC5/cyfitter_cfg.c **** 	/* Setup clocks based on selections from Clock DWR */
 414:Generated_Source\PSoC5/cyfitter_cfg.c **** 	ClockSetup();
 415:Generated_Source\PSoC5/cyfitter_cfg.c **** 	/* Set Flash Cycles based on newly configured 46.00MHz Bus Clock. */
 416:Generated_Source\PSoC5/cyfitter_cfg.c **** 	CY_SET_XTND_REG8((void CYFAR *)(CYREG_CACHE_CC_CTL), (((CYDEV_INSTRUCT_CACHE_ENABLED) != 0) ? 0xC1
 357              		.loc 1 416 0
 358 0142 C122     		movs	r2, #193
 359 0144 83F8FC27 		strb	r2, [r3, #2044]
 417:Generated_Source\PSoC5/cyfitter_cfg.c **** 	CY_SET_XTND_REG8((void CYFAR *)(CYREG_PANTHER_WAITPIPE), 0x01u);
 360              		.loc 1 417 0
 361 0148 0122     		movs	r2, #1
 362 014a 03F5F823 		add	r3, r3, #507904
 363 014e 1A70     		strb	r2, [r3]
 364              	.LBB78:
 365              	.LBB79:
 296:Generated_Source\PSoC5/cyfitter_cfg.c **** 	CY_SET_XTND_REG8((void CYFAR *)(CYREG_BG_DFT0), (bg_xover_inl_trim & 0x07u));
 366              		.loc 1 296 0
 367 0150 1C4B     		ldr	r3, .L20+60
 297:Generated_Source\PSoC5/cyfitter_cfg.c **** 	CY_SET_XTND_REG8((void CYFAR *)(CYREG_BG_DFT1), ((bg_xover_inl_trim >> 4) & 0x0Fu));
 368              		.loc 1 297 0
 369 0152 1D4A     		ldr	r2, .L20+64
 296:Generated_Source\PSoC5/cyfitter_cfg.c **** 	CY_SET_XTND_REG8((void CYFAR *)(CYREG_BG_DFT0), (bg_xover_inl_trim & 0x07u));
 370              		.loc 1 296 0
 371 0154 1B78     		ldrb	r3, [r3]	@ zero_extendqisi2
 372              	.LBE79:
 373              	.LBE78:
 374              	.LBB81:
 375              	.LBB82:
  86:Generated_Source\PSoC5/cyfitter_cfg.c **** }
 376              		.loc 1 86 0
 377 0156 1D4C     		ldr	r4, .L20+68
 378              	.LBE82:
 379              	.LBE81:
 380              	.LBB84:
 381              	.LBB80:
 296:Generated_Source\PSoC5/cyfitter_cfg.c **** 	CY_SET_XTND_REG8((void CYFAR *)(CYREG_BG_DFT0), (bg_xover_inl_trim & 0x07u));
 382              		.loc 1 296 0
 383 0158 DBB2     		uxtb	r3, r3
 384              	.LVL25:
 297:Generated_Source\PSoC5/cyfitter_cfg.c **** 	CY_SET_XTND_REG8((void CYFAR *)(CYREG_BG_DFT1), ((bg_xover_inl_trim >> 4) & 0x0Fu));
 385              		.loc 1 297 0
 386 015a 03F00701 		and	r1, r3, #7
 298:Generated_Source\PSoC5/cyfitter_cfg.c **** 	CY_SET_XTND_REG8((void CYFAR *)CYREG_OPAMP1_SW, 0x05u);
 387              		.loc 1 298 0
 388 015e 1B09     		lsrs	r3, r3, #4
ARM GAS  C:\Users\ingan\AppData\Local\Temp\ccMOr4im.s 			page 16


 389              	.LVL26:
 297:Generated_Source\PSoC5/cyfitter_cfg.c **** 	CY_SET_XTND_REG8((void CYFAR *)(CYREG_BG_DFT1), ((bg_xover_inl_trim >> 4) & 0x0Fu));
 390              		.loc 1 297 0
 391 0160 1170     		strb	r1, [r2]
 298:Generated_Source\PSoC5/cyfitter_cfg.c **** 	CY_SET_XTND_REG8((void CYFAR *)CYREG_OPAMP1_SW, 0x05u);
 392              		.loc 1 298 0
 393 0162 5370     		strb	r3, [r2, #1]
 299:Generated_Source\PSoC5/cyfitter_cfg.c **** 	CY_SET_XTND_REG8((void CYFAR *)CYREG_OPAMP2_SW, 0x05u);
 394              		.loc 1 299 0
 395 0164 0523     		movs	r3, #5
 396 0166 82F8D532 		strb	r3, [r2, #725]
 300:Generated_Source\PSoC5/cyfitter_cfg.c **** 	CY_SET_XTND_REG8((void CYFAR *)CYREG_OPAMP3_SW, 0x05u);
 397              		.loc 1 300 0
 398 016a 82F8D732 		strb	r3, [r2, #727]
 301:Generated_Source\PSoC5/cyfitter_cfg.c **** 	CY_SET_XTND_REG8((void CYFAR *)CYREG_PUMP_CR0, 0x44u);
 399              		.loc 1 301 0
 400 016e 82F8D932 		strb	r3, [r2, #729]
 302:Generated_Source\PSoC5/cyfitter_cfg.c **** }
 401              		.loc 1 302 0
 402 0172 174B     		ldr	r3, .L20+72
 403 0174 4422     		movs	r2, #68
 404 0176 1A70     		strb	r2, [r3]
 405              	.LVL27:
 406              	.LBE80:
 407              	.LBE84:
 408              	.LBB85:
 409              	.LBB83:
  86:Generated_Source\PSoC5/cyfitter_cfg.c **** }
 410              		.loc 1 86 0
 411 0178 A3F5A653 		sub	r3, r3, #5312
 412 017c 163B     		subs	r3, r3, #22
 413 017e 0FCB     		ldmia	r3, {r0, r1, r2, r3}
 414 0180 07C4     		stmia	r4!, {r0, r1, r2}
 415 0182 2380     		strh	r3, [r4]	@ movhi
 416              	.LVL28:
 417 0184 F8BD     		pop	{r3, r4, r5, r6, r7, pc}
 418              	.LVL29:
 419              	.L9:
 420 0186 FEE7     		b	.L9
 421              	.L21:
 422              		.align	2
 423              	.L20:
 424 0188 E8460040 		.word	1073759976
 425 018c 00000000 		.word	.LANCHOR0
 426 0190 FCFFFF47 		.word	1207959548
 427 0194 1C000048 		.word	1207959580
 428 0198 03500140 		.word	1073827843
 429 019c 25420040 		.word	1073758757
 430 01a0 4C000048 		.word	1207959628
 431 01a4 00480040 		.word	1073760256
 432 01a8 82400040 		.word	1073758338
 433 01ac 00430040 		.word	1073758976
 434 01b0 08010049 		.word	1224737032
 435 01b4 A1460040 		.word	1073759905
 436 01b8 22420040 		.word	1073758754
 437 01bc 04400040 		.word	1073758212
 438 01c0 06400040 		.word	1073758214
ARM GAS  C:\Users\ingan\AppData\Local\Temp\ccMOr4im.s 			page 17


 439 01c4 CF010049 		.word	1224737231
 440 01c8 6E580040 		.word	1073764462
 441 01cc B0430040 		.word	1073759152
 442 01d0 76580040 		.word	1073764470
 443              	.LBE83:
 444              	.LBE85:
 445              		.cfi_endproc
 446              	.LFE8:
 447              		.size	cyfitter_cfg, .-cyfitter_cfg
 448              		.section	.rodata
 449              		.set	.LANCHOR0,. + 0
 450              		.type	cfg_memset_list.5013, %object
 451              		.size	cfg_memset_list.5013, 42
 452              	cfg_memset_list.5013:
 453 0000 40510040 		.4byte	1073762624
 454 0004 3000     		.2byte	48
 455 0006 F0510040 		.4byte	1073762800
 456 000a 1000     		.2byte	16
 457 000c 00000140 		.4byte	1073807360
 458 0010 0010     		.2byte	4096
 459 0012 00140140 		.4byte	1073812480
 460 0016 0008     		.2byte	2048
 461 0018 00400140 		.4byte	1073823744
 462 001c 000A     		.2byte	2560
 463 001e 004C0140 		.4byte	1073826816
 464 0022 0002     		.2byte	512
 465 0024 00500140 		.4byte	1073827840
 466 0028 2000     		.2byte	32
 467              		.text
 468              	.Letext0:
 469              		.file 2 "c:\\program files (x86)\\cypress\\psoc creator\\4.2\\psoc creator\\import\\gnu\\arm\\5.4.
 470              		.file 3 "Generated_Source\\PSoC5\\cytypes.h"
 471              		.file 4 "Generated_Source\\PSoC5\\CyLib.h"