ARM GAS  C:\Users\ingan\AppData\Local\Temp\ccksDoJR.s 			page 1


   1              		.syntax unified
   2              		.cpu cortex-m3
   3              		.fpu softvfp
   4              		.eabi_attribute 20, 1
   5              		.eabi_attribute 21, 1
   6              		.eabi_attribute 23, 3
   7              		.eabi_attribute 24, 1
   8              		.eabi_attribute 25, 1
   9              		.eabi_attribute 26, 1
  10              		.eabi_attribute 30, 4
  11              		.eabi_attribute 34, 1
  12              		.eabi_attribute 18, 4
  13              		.thumb
  14              		.syntax unified
  15              		.file	"Opamp_1.c"
  16              		.text
  17              	.Ltext0:
  18              		.cfi_sections	.debug_frame
  19              		.section	.text.Opamp_1_Enable,"ax",%progbits
  20              		.align	1
  21              		.global	Opamp_1_Enable
  22              		.thumb
  23              		.thumb_func
  24              		.type	Opamp_1_Enable, %function
  25              	Opamp_1_Enable:
  26              	.LFB1:
  27              		.file 1 "Generated_Source\\PSoC5\\Opamp_1.c"
   1:Generated_Source\PSoC5/Opamp_1.c **** /*******************************************************************************
   2:Generated_Source\PSoC5/Opamp_1.c **** * File Name: Opamp_1.c
   3:Generated_Source\PSoC5/Opamp_1.c **** * Version 1.90
   4:Generated_Source\PSoC5/Opamp_1.c **** *
   5:Generated_Source\PSoC5/Opamp_1.c **** * Description:
   6:Generated_Source\PSoC5/Opamp_1.c **** *  This file provides the source code to the API for OpAmp (Analog Buffer) 
   7:Generated_Source\PSoC5/Opamp_1.c **** *  Component.
   8:Generated_Source\PSoC5/Opamp_1.c **** *
   9:Generated_Source\PSoC5/Opamp_1.c **** * Note:
  10:Generated_Source\PSoC5/Opamp_1.c **** *
  11:Generated_Source\PSoC5/Opamp_1.c **** ********************************************************************************
  12:Generated_Source\PSoC5/Opamp_1.c **** * Copyright 2008-2012, Cypress Semiconductor Corporation.  All rights reserved.
  13:Generated_Source\PSoC5/Opamp_1.c **** * You may use this file only in accordance with the license, terms, conditions, 
  14:Generated_Source\PSoC5/Opamp_1.c **** * disclaimers, and limitations in the end user license agreement accompanying 
  15:Generated_Source\PSoC5/Opamp_1.c **** * the software package with which this file was provided.
  16:Generated_Source\PSoC5/Opamp_1.c **** *******************************************************************************/
  17:Generated_Source\PSoC5/Opamp_1.c **** 
  18:Generated_Source\PSoC5/Opamp_1.c **** #include "Opamp_1.h"
  19:Generated_Source\PSoC5/Opamp_1.c **** 
  20:Generated_Source\PSoC5/Opamp_1.c **** uint8 Opamp_1_initVar = 0u;
  21:Generated_Source\PSoC5/Opamp_1.c **** 
  22:Generated_Source\PSoC5/Opamp_1.c **** 
  23:Generated_Source\PSoC5/Opamp_1.c **** /*******************************************************************************   
  24:Generated_Source\PSoC5/Opamp_1.c **** * Function Name: Opamp_1_Init
  25:Generated_Source\PSoC5/Opamp_1.c **** ********************************************************************************
  26:Generated_Source\PSoC5/Opamp_1.c **** *
  27:Generated_Source\PSoC5/Opamp_1.c **** * Summary:
  28:Generated_Source\PSoC5/Opamp_1.c **** *  Initialize component's parameters to the parameters set by user in the 
  29:Generated_Source\PSoC5/Opamp_1.c **** *  customizer of the component placed onto schematic. Usually called in 
  30:Generated_Source\PSoC5/Opamp_1.c **** *  Opamp_1_Start().
ARM GAS  C:\Users\ingan\AppData\Local\Temp\ccksDoJR.s 			page 2


  31:Generated_Source\PSoC5/Opamp_1.c **** *
  32:Generated_Source\PSoC5/Opamp_1.c **** * Parameters:
  33:Generated_Source\PSoC5/Opamp_1.c **** *  void
  34:Generated_Source\PSoC5/Opamp_1.c **** *
  35:Generated_Source\PSoC5/Opamp_1.c **** * Return:
  36:Generated_Source\PSoC5/Opamp_1.c **** *  void
  37:Generated_Source\PSoC5/Opamp_1.c **** *
  38:Generated_Source\PSoC5/Opamp_1.c **** *******************************************************************************/
  39:Generated_Source\PSoC5/Opamp_1.c **** void Opamp_1_Init(void) 
  40:Generated_Source\PSoC5/Opamp_1.c **** {
  41:Generated_Source\PSoC5/Opamp_1.c ****     Opamp_1_SetPower(Opamp_1_DEFAULT_POWER);
  42:Generated_Source\PSoC5/Opamp_1.c **** }
  43:Generated_Source\PSoC5/Opamp_1.c **** 
  44:Generated_Source\PSoC5/Opamp_1.c **** 
  45:Generated_Source\PSoC5/Opamp_1.c **** /*******************************************************************************   
  46:Generated_Source\PSoC5/Opamp_1.c **** * Function Name: Opamp_1_Enable
  47:Generated_Source\PSoC5/Opamp_1.c **** ********************************************************************************
  48:Generated_Source\PSoC5/Opamp_1.c **** *
  49:Generated_Source\PSoC5/Opamp_1.c **** * Summary:
  50:Generated_Source\PSoC5/Opamp_1.c **** *  Enables the OpAmp block operation
  51:Generated_Source\PSoC5/Opamp_1.c **** *
  52:Generated_Source\PSoC5/Opamp_1.c **** * Parameters:
  53:Generated_Source\PSoC5/Opamp_1.c **** *  void
  54:Generated_Source\PSoC5/Opamp_1.c **** *
  55:Generated_Source\PSoC5/Opamp_1.c **** * Return:
  56:Generated_Source\PSoC5/Opamp_1.c **** *  void
  57:Generated_Source\PSoC5/Opamp_1.c **** *
  58:Generated_Source\PSoC5/Opamp_1.c **** *******************************************************************************/
  59:Generated_Source\PSoC5/Opamp_1.c **** void Opamp_1_Enable(void) 
  60:Generated_Source\PSoC5/Opamp_1.c **** {
  28              		.loc 1 60 0
  29              		.cfi_startproc
  30              		@ args = 0, pretend = 0, frame = 0
  31              		@ frame_needed = 0, uses_anonymous_args = 0
  32              		@ link register save eliminated.
  61:Generated_Source\PSoC5/Opamp_1.c ****     /* Enable negative charge pumps in ANIF */
  62:Generated_Source\PSoC5/Opamp_1.c ****     Opamp_1_PUMP_CR1_REG  |= (Opamp_1_PUMP_CR1_CLKSEL | Opamp_1_PUMP_CR1_FORCE);
  33              		.loc 1 62 0
  34 0000 084A     		ldr	r2, .L2
  35 0002 1378     		ldrb	r3, [r2]	@ zero_extendqisi2
  36 0004 43F06003 		orr	r3, r3, #96
  37 0008 1370     		strb	r3, [r2]
  63:Generated_Source\PSoC5/Opamp_1.c **** 
  64:Generated_Source\PSoC5/Opamp_1.c ****     /* Enable power to buffer in active mode */
  65:Generated_Source\PSoC5/Opamp_1.c ****     Opamp_1_PM_ACT_CFG_REG |= Opamp_1_ACT_PWR_EN;
  38              		.loc 1 65 0
  39 000a A2F5A652 		sub	r2, r2, #5312
  40 000e 133A     		subs	r2, r2, #19
  41 0010 1378     		ldrb	r3, [r2]	@ zero_extendqisi2
  42 0012 43F00803 		orr	r3, r3, #8
  43 0016 1370     		strb	r3, [r2]
  66:Generated_Source\PSoC5/Opamp_1.c **** 
  67:Generated_Source\PSoC5/Opamp_1.c ****     /* Enable power to buffer in alternative active mode */
  68:Generated_Source\PSoC5/Opamp_1.c ****     Opamp_1_PM_STBY_CFG_REG |= Opamp_1_STBY_PWR_EN;
  44              		.loc 1 68 0
  45 0018 137C     		ldrb	r3, [r2, #16]	@ zero_extendqisi2
  46 001a 43F00803 		orr	r3, r3, #8
ARM GAS  C:\Users\ingan\AppData\Local\Temp\ccksDoJR.s 			page 3


  47 001e 1374     		strb	r3, [r2, #16]
  48 0020 7047     		bx	lr
  49              	.L3:
  50 0022 00BF     		.align	2
  51              	.L2:
  52 0024 77580040 		.word	1073764471
  53              		.cfi_endproc
  54              	.LFE1:
  55              		.size	Opamp_1_Enable, .-Opamp_1_Enable
  56              		.section	.text.Opamp_1_Stop,"ax",%progbits
  57              		.align	1
  58              		.global	Opamp_1_Stop
  59              		.thumb
  60              		.thumb_func
  61              		.type	Opamp_1_Stop, %function
  62              	Opamp_1_Stop:
  63              	.LFB3:
  69:Generated_Source\PSoC5/Opamp_1.c **** }
  70:Generated_Source\PSoC5/Opamp_1.c **** 
  71:Generated_Source\PSoC5/Opamp_1.c **** 
  72:Generated_Source\PSoC5/Opamp_1.c **** /*******************************************************************************
  73:Generated_Source\PSoC5/Opamp_1.c **** * Function Name:   Opamp_1_Start
  74:Generated_Source\PSoC5/Opamp_1.c **** ********************************************************************************
  75:Generated_Source\PSoC5/Opamp_1.c **** *
  76:Generated_Source\PSoC5/Opamp_1.c **** * Summary:
  77:Generated_Source\PSoC5/Opamp_1.c **** *  The start function initializes the Analog Buffer with the default values and 
  78:Generated_Source\PSoC5/Opamp_1.c **** *  sets the power to the given level. A power level of 0, is same as 
  79:Generated_Source\PSoC5/Opamp_1.c **** *  executing the stop function.
  80:Generated_Source\PSoC5/Opamp_1.c **** *
  81:Generated_Source\PSoC5/Opamp_1.c **** * Parameters:
  82:Generated_Source\PSoC5/Opamp_1.c **** *  void
  83:Generated_Source\PSoC5/Opamp_1.c **** *
  84:Generated_Source\PSoC5/Opamp_1.c **** * Return:
  85:Generated_Source\PSoC5/Opamp_1.c **** *  void
  86:Generated_Source\PSoC5/Opamp_1.c **** *
  87:Generated_Source\PSoC5/Opamp_1.c **** * Global variables:
  88:Generated_Source\PSoC5/Opamp_1.c **** *  Opamp_1_initVar: Used to check the initial configuration, modified 
  89:Generated_Source\PSoC5/Opamp_1.c **** *  when this function is called for the first time.
  90:Generated_Source\PSoC5/Opamp_1.c **** *
  91:Generated_Source\PSoC5/Opamp_1.c **** *******************************************************************************/
  92:Generated_Source\PSoC5/Opamp_1.c **** void Opamp_1_Start(void) 
  93:Generated_Source\PSoC5/Opamp_1.c **** {
  94:Generated_Source\PSoC5/Opamp_1.c ****     if(Opamp_1_initVar == 0u)
  95:Generated_Source\PSoC5/Opamp_1.c ****     {
  96:Generated_Source\PSoC5/Opamp_1.c ****         Opamp_1_initVar = 1u;
  97:Generated_Source\PSoC5/Opamp_1.c ****         Opamp_1_Init();
  98:Generated_Source\PSoC5/Opamp_1.c ****     }
  99:Generated_Source\PSoC5/Opamp_1.c **** 
 100:Generated_Source\PSoC5/Opamp_1.c ****     Opamp_1_Enable();
 101:Generated_Source\PSoC5/Opamp_1.c **** }
 102:Generated_Source\PSoC5/Opamp_1.c **** 
 103:Generated_Source\PSoC5/Opamp_1.c **** 
 104:Generated_Source\PSoC5/Opamp_1.c **** /*******************************************************************************
 105:Generated_Source\PSoC5/Opamp_1.c **** * Function Name: Opamp_1_Stop
 106:Generated_Source\PSoC5/Opamp_1.c **** ********************************************************************************
 107:Generated_Source\PSoC5/Opamp_1.c **** *
 108:Generated_Source\PSoC5/Opamp_1.c **** * Summary:
ARM GAS  C:\Users\ingan\AppData\Local\Temp\ccksDoJR.s 			page 4


 109:Generated_Source\PSoC5/Opamp_1.c **** *  Powers down amplifier to lowest power state.
 110:Generated_Source\PSoC5/Opamp_1.c **** *
 111:Generated_Source\PSoC5/Opamp_1.c **** * Parameters:
 112:Generated_Source\PSoC5/Opamp_1.c **** *  void
 113:Generated_Source\PSoC5/Opamp_1.c **** *
 114:Generated_Source\PSoC5/Opamp_1.c **** * Return:
 115:Generated_Source\PSoC5/Opamp_1.c **** *  void
 116:Generated_Source\PSoC5/Opamp_1.c **** *
 117:Generated_Source\PSoC5/Opamp_1.c **** *******************************************************************************/
 118:Generated_Source\PSoC5/Opamp_1.c **** void Opamp_1_Stop(void) 
 119:Generated_Source\PSoC5/Opamp_1.c **** {
  64              		.loc 1 119 0
  65              		.cfi_startproc
  66              		@ args = 0, pretend = 0, frame = 0
  67              		@ frame_needed = 0, uses_anonymous_args = 0
  68              		@ link register save eliminated.
 120:Generated_Source\PSoC5/Opamp_1.c ****     /* Disable power to buffer in active mode template */
 121:Generated_Source\PSoC5/Opamp_1.c ****     Opamp_1_PM_ACT_CFG_REG &= (uint8)(~Opamp_1_ACT_PWR_EN);
  69              		.loc 1 121 0
  70 0000 084B     		ldr	r3, .L7
 122:Generated_Source\PSoC5/Opamp_1.c **** 
 123:Generated_Source\PSoC5/Opamp_1.c ****     /* Disable power to buffer in alternative active mode template */
 124:Generated_Source\PSoC5/Opamp_1.c ****     Opamp_1_PM_STBY_CFG_REG &= (uint8)(~Opamp_1_STBY_PWR_EN);
  71              		.loc 1 124 0
  72 0002 0949     		ldr	r1, .L7+4
 121:Generated_Source\PSoC5/Opamp_1.c **** 
  73              		.loc 1 121 0
  74 0004 1A78     		ldrb	r2, [r3]	@ zero_extendqisi2
  75 0006 02F0F702 		and	r2, r2, #247
  76 000a 1A70     		strb	r2, [r3]
  77              		.loc 1 124 0
  78 000c 0A78     		ldrb	r2, [r1]	@ zero_extendqisi2
  79 000e 02F0F702 		and	r2, r2, #247
  80 0012 0A70     		strb	r2, [r1]
 125:Generated_Source\PSoC5/Opamp_1.c ****     
 126:Generated_Source\PSoC5/Opamp_1.c ****     /* Disable negative charge pumps for ANIF only if all ABuf is turned OFF */
 127:Generated_Source\PSoC5/Opamp_1.c ****     if(Opamp_1_PM_ACT_CFG_REG == 0u)
  81              		.loc 1 127 0
  82 0014 1B78     		ldrb	r3, [r3]	@ zero_extendqisi2
  83 0016 23B9     		cbnz	r3, .L4
 128:Generated_Source\PSoC5/Opamp_1.c ****     {
 129:Generated_Source\PSoC5/Opamp_1.c ****         Opamp_1_PUMP_CR1_REG &= (uint8)(~(Opamp_1_PUMP_CR1_CLKSEL | Opamp_1_PUMP_CR1_FORCE));
  84              		.loc 1 129 0
  85 0018 044A     		ldr	r2, .L7+8
  86 001a 1378     		ldrb	r3, [r2]	@ zero_extendqisi2
  87 001c 03F09F03 		and	r3, r3, #159
  88 0020 1370     		strb	r3, [r2]
  89              	.L4:
  90 0022 7047     		bx	lr
  91              	.L8:
  92              		.align	2
  93              	.L7:
  94 0024 A4430040 		.word	1073759140
  95 0028 B4430040 		.word	1073759156
  96 002c 77580040 		.word	1073764471
  97              		.cfi_endproc
  98              	.LFE3:
ARM GAS  C:\Users\ingan\AppData\Local\Temp\ccksDoJR.s 			page 5


  99              		.size	Opamp_1_Stop, .-Opamp_1_Stop
 100              		.section	.text.Opamp_1_SetPower,"ax",%progbits
 101              		.align	1
 102              		.global	Opamp_1_SetPower
 103              		.thumb
 104              		.thumb_func
 105              		.type	Opamp_1_SetPower, %function
 106              	Opamp_1_SetPower:
 107              	.LFB4:
 130:Generated_Source\PSoC5/Opamp_1.c ****     }
 131:Generated_Source\PSoC5/Opamp_1.c **** }
 132:Generated_Source\PSoC5/Opamp_1.c **** 
 133:Generated_Source\PSoC5/Opamp_1.c **** 
 134:Generated_Source\PSoC5/Opamp_1.c **** /*******************************************************************************
 135:Generated_Source\PSoC5/Opamp_1.c **** * Function Name: Opamp_1_SetPower
 136:Generated_Source\PSoC5/Opamp_1.c **** ********************************************************************************
 137:Generated_Source\PSoC5/Opamp_1.c **** *
 138:Generated_Source\PSoC5/Opamp_1.c **** * Summary:
 139:Generated_Source\PSoC5/Opamp_1.c **** *  Sets power level of Analog buffer.
 140:Generated_Source\PSoC5/Opamp_1.c **** *
 141:Generated_Source\PSoC5/Opamp_1.c **** * Parameters: 
 142:Generated_Source\PSoC5/Opamp_1.c **** *  power: PSoC3: Sets power level between low (1) and high power (3).
 143:Generated_Source\PSoC5/Opamp_1.c **** *         PSoC5: Sets power level High (0)
 144:Generated_Source\PSoC5/Opamp_1.c **** *
 145:Generated_Source\PSoC5/Opamp_1.c **** * Return:
 146:Generated_Source\PSoC5/Opamp_1.c **** *  void
 147:Generated_Source\PSoC5/Opamp_1.c **** *
 148:Generated_Source\PSoC5/Opamp_1.c **** **********************************************************************************/
 149:Generated_Source\PSoC5/Opamp_1.c **** void Opamp_1_SetPower(uint8 power) 
 150:Generated_Source\PSoC5/Opamp_1.c **** {
 108              		.loc 1 150 0
 109              		.cfi_startproc
 110              		@ args = 0, pretend = 0, frame = 0
 111              		@ frame_needed = 0, uses_anonymous_args = 0
 112              		@ link register save eliminated.
 113              	.LVL0:
 151:Generated_Source\PSoC5/Opamp_1.c ****     #if (CY_PSOC3 || CY_PSOC5LP)
 152:Generated_Source\PSoC5/Opamp_1.c ****         Opamp_1_CR_REG &= (uint8)(~Opamp_1_PWR_MASK);
 114              		.loc 1 152 0
 115 0000 054B     		ldr	r3, .L10
 153:Generated_Source\PSoC5/Opamp_1.c ****         Opamp_1_CR_REG |= power & Opamp_1_PWR_MASK;      /* Set device power */
 116              		.loc 1 153 0
 117 0002 00F00300 		and	r0, r0, #3
 118              	.LVL1:
 152:Generated_Source\PSoC5/Opamp_1.c ****         Opamp_1_CR_REG |= power & Opamp_1_PWR_MASK;      /* Set device power */
 119              		.loc 1 152 0
 120 0006 1A78     		ldrb	r2, [r3]	@ zero_extendqisi2
 121 0008 02F0FC02 		and	r2, r2, #252
 122 000c 1A70     		strb	r2, [r3]
 123              		.loc 1 153 0
 124 000e 1A78     		ldrb	r2, [r3]	@ zero_extendqisi2
 125 0010 1043     		orrs	r0, r0, r2
 126 0012 1870     		strb	r0, [r3]
 127 0014 7047     		bx	lr
 128              	.L11:
 129 0016 00BF     		.align	2
 130              	.L10:
ARM GAS  C:\Users\ingan\AppData\Local\Temp\ccksDoJR.s 			page 6


 131 0018 5E580040 		.word	1073764446
 132              		.cfi_endproc
 133              	.LFE4:
 134              		.size	Opamp_1_SetPower, .-Opamp_1_SetPower
 135              		.section	.text.Opamp_1_Init,"ax",%progbits
 136              		.align	1
 137              		.global	Opamp_1_Init
 138              		.thumb
 139              		.thumb_func
 140              		.type	Opamp_1_Init, %function
 141              	Opamp_1_Init:
 142              	.LFB0:
  40:Generated_Source\PSoC5/Opamp_1.c ****     Opamp_1_SetPower(Opamp_1_DEFAULT_POWER);
 143              		.loc 1 40 0
 144              		.cfi_startproc
 145              		@ args = 0, pretend = 0, frame = 0
 146              		@ frame_needed = 0, uses_anonymous_args = 0
 147              		@ link register save eliminated.
  41:Generated_Source\PSoC5/Opamp_1.c **** }
 148              		.loc 1 41 0
 149 0000 0120     		movs	r0, #1
 150 0002 FFF7FEBF 		b	Opamp_1_SetPower
 151              	.LVL2:
 152              		.cfi_endproc
 153              	.LFE0:
 154              		.size	Opamp_1_Init, .-Opamp_1_Init
 155              		.section	.text.Opamp_1_Start,"ax",%progbits
 156              		.align	1
 157              		.global	Opamp_1_Start
 158              		.thumb
 159              		.thumb_func
 160              		.type	Opamp_1_Start, %function
 161              	Opamp_1_Start:
 162              	.LFB2:
  93:Generated_Source\PSoC5/Opamp_1.c ****     if(Opamp_1_initVar == 0u)
 163              		.loc 1 93 0
 164              		.cfi_startproc
 165              		@ args = 0, pretend = 0, frame = 0
 166              		@ frame_needed = 0, uses_anonymous_args = 0
 167 0000 08B5     		push	{r3, lr}
 168              		.cfi_def_cfa_offset 8
 169              		.cfi_offset 3, -8
 170              		.cfi_offset 14, -4
  94:Generated_Source\PSoC5/Opamp_1.c ****     {
 171              		.loc 1 94 0
 172 0002 054B     		ldr	r3, .L15
 173 0004 1A78     		ldrb	r2, [r3]	@ zero_extendqisi2
 174 0006 1AB9     		cbnz	r2, .L14
  96:Generated_Source\PSoC5/Opamp_1.c ****         Opamp_1_Init();
 175              		.loc 1 96 0
 176 0008 0122     		movs	r2, #1
 177 000a 1A70     		strb	r2, [r3]
  97:Generated_Source\PSoC5/Opamp_1.c ****     }
 178              		.loc 1 97 0
 179 000c FFF7FEFF 		bl	Opamp_1_Init
 180              	.LVL3:
 181              	.L14:
ARM GAS  C:\Users\ingan\AppData\Local\Temp\ccksDoJR.s 			page 7


 101:Generated_Source\PSoC5/Opamp_1.c **** 
 182              		.loc 1 101 0
 183 0010 BDE80840 		pop	{r3, lr}
 184              		.cfi_restore 14
 185              		.cfi_restore 3
 186              		.cfi_def_cfa_offset 0
 100:Generated_Source\PSoC5/Opamp_1.c **** }
 187              		.loc 1 100 0
 188 0014 FFF7FEBF 		b	Opamp_1_Enable
 189              	.LVL4:
 190              	.L16:
 191              		.align	2
 192              	.L15:
 193 0018 00000000 		.word	.LANCHOR0
 194              		.cfi_endproc
 195              	.LFE2:
 196              		.size	Opamp_1_Start, .-Opamp_1_Start
 197              		.global	Opamp_1_initVar
 198              		.bss
 199              		.set	.LANCHOR0,. + 0
 200              		.type	Opamp_1_initVar, %object
 201              		.size	Opamp_1_initVar, 1
 202              	Opamp_1_initVar:
 203 0000 00       		.space	1
 204              		.text
 205              	.Letext0:
 206              		.file 2 "Generated_Source\\PSoC5\\cytypes.h"