ARM GAS  C:\Users\ingan\AppData\Local\Temp\cc9FiwyV.s 			page 1


   1              		.syntax unified
   2              		.cpu cortex-m3
   3              		.fpu softvfp
   4              		.eabi_attribute 20, 1
   5              		.eabi_attribute 21, 1
   6              		.eabi_attribute 23, 3
   7              		.eabi_attribute 24, 1
   8              		.eabi_attribute 25, 1
   9              		.eabi_attribute 26, 1
  10              		.eabi_attribute 30, 4
  11              		.eabi_attribute 34, 1
  12              		.eabi_attribute 18, 4
  13              		.thumb
  14              		.syntax unified
  15              		.file	"YM_Data.c"
  16              		.text
  17              	.Ltext0:
  18              		.cfi_sections	.debug_frame
  19              		.section	.text.YM_Data_Write,"ax",%progbits
  20              		.align	1
  21              		.global	YM_Data_Write
  22              		.thumb
  23              		.thumb_func
  24              		.type	YM_Data_Write, %function
  25              	YM_Data_Write:
  26              	.LFB0:
  27              		.file 1 "Generated_Source\\PSoC5\\YM_Data.c"
   1:Generated_Source\PSoC5/YM_Data.c **** /*******************************************************************************
   2:Generated_Source\PSoC5/YM_Data.c **** * File Name: YM_Data.c  
   3:Generated_Source\PSoC5/YM_Data.c **** * Version 2.20
   4:Generated_Source\PSoC5/YM_Data.c **** *
   5:Generated_Source\PSoC5/YM_Data.c **** * Description:
   6:Generated_Source\PSoC5/YM_Data.c **** *  This file contains API to enable firmware control of a Pins component.
   7:Generated_Source\PSoC5/YM_Data.c **** *
   8:Generated_Source\PSoC5/YM_Data.c **** * Note:
   9:Generated_Source\PSoC5/YM_Data.c **** *
  10:Generated_Source\PSoC5/YM_Data.c **** ********************************************************************************
  11:Generated_Source\PSoC5/YM_Data.c **** * Copyright 2008-2015, Cypress Semiconductor Corporation.  All rights reserved.
  12:Generated_Source\PSoC5/YM_Data.c **** * You may use this file only in accordance with the license, terms, conditions, 
  13:Generated_Source\PSoC5/YM_Data.c **** * disclaimers, and limitations in the end user license agreement accompanying 
  14:Generated_Source\PSoC5/YM_Data.c **** * the software package with which this file was provided.
  15:Generated_Source\PSoC5/YM_Data.c **** *******************************************************************************/
  16:Generated_Source\PSoC5/YM_Data.c **** 
  17:Generated_Source\PSoC5/YM_Data.c **** #include "cytypes.h"
  18:Generated_Source\PSoC5/YM_Data.c **** #include "YM_Data.h"
  19:Generated_Source\PSoC5/YM_Data.c **** 
  20:Generated_Source\PSoC5/YM_Data.c **** /* APIs are not generated for P15[7:6] on PSoC 5 */
  21:Generated_Source\PSoC5/YM_Data.c **** #if !(CY_PSOC5A &&\
  22:Generated_Source\PSoC5/YM_Data.c **** 	 YM_Data__PORT == 15 && ((YM_Data__MASK & 0xC0) != 0))
  23:Generated_Source\PSoC5/YM_Data.c **** 
  24:Generated_Source\PSoC5/YM_Data.c **** 
  25:Generated_Source\PSoC5/YM_Data.c **** /*******************************************************************************
  26:Generated_Source\PSoC5/YM_Data.c **** * Function Name: YM_Data_Write
  27:Generated_Source\PSoC5/YM_Data.c **** ****************************************************************************//**
  28:Generated_Source\PSoC5/YM_Data.c **** *
  29:Generated_Source\PSoC5/YM_Data.c **** * \brief Writes the value to the physical port (data output register), masking
  30:Generated_Source\PSoC5/YM_Data.c **** *  and shifting the bits appropriately. 
ARM GAS  C:\Users\ingan\AppData\Local\Temp\cc9FiwyV.s 			page 2


  31:Generated_Source\PSoC5/YM_Data.c **** *
  32:Generated_Source\PSoC5/YM_Data.c **** * The data output register controls the signal applied to the physical pin in 
  33:Generated_Source\PSoC5/YM_Data.c **** * conjunction with the drive mode parameter. This function avoids changing 
  34:Generated_Source\PSoC5/YM_Data.c **** * other bits in the port by using the appropriate method (read-modify-write or
  35:Generated_Source\PSoC5/YM_Data.c **** * bit banding).
  36:Generated_Source\PSoC5/YM_Data.c **** *
  37:Generated_Source\PSoC5/YM_Data.c **** * <b>Note</b> This function should not be used on a hardware digital output pin 
  38:Generated_Source\PSoC5/YM_Data.c **** * as it is driven by the hardware signal attached to it.
  39:Generated_Source\PSoC5/YM_Data.c **** *
  40:Generated_Source\PSoC5/YM_Data.c **** * \param value
  41:Generated_Source\PSoC5/YM_Data.c **** *  Value to write to the component instance.
  42:Generated_Source\PSoC5/YM_Data.c **** *
  43:Generated_Source\PSoC5/YM_Data.c **** * \return 
  44:Generated_Source\PSoC5/YM_Data.c **** *  None 
  45:Generated_Source\PSoC5/YM_Data.c **** *
  46:Generated_Source\PSoC5/YM_Data.c **** * \sideeffect
  47:Generated_Source\PSoC5/YM_Data.c **** *  If you use read-modify-write operations that are not atomic; the Interrupt 
  48:Generated_Source\PSoC5/YM_Data.c **** *  Service Routines (ISR) can cause corruption of this function. An ISR that 
  49:Generated_Source\PSoC5/YM_Data.c **** *  interrupts this function and performs writes to the Pins component data 
  50:Generated_Source\PSoC5/YM_Data.c **** *  register can cause corrupted port data. To avoid this issue, you should 
  51:Generated_Source\PSoC5/YM_Data.c **** *  either use the Per-Pin APIs (primary method) or disable interrupts around 
  52:Generated_Source\PSoC5/YM_Data.c **** *  this function.
  53:Generated_Source\PSoC5/YM_Data.c **** *
  54:Generated_Source\PSoC5/YM_Data.c **** * \funcusage
  55:Generated_Source\PSoC5/YM_Data.c **** *  \snippet YM_Data_SUT.c usage_YM_Data_Write
  56:Generated_Source\PSoC5/YM_Data.c **** *******************************************************************************/
  57:Generated_Source\PSoC5/YM_Data.c **** void YM_Data_Write(uint8 value)
  58:Generated_Source\PSoC5/YM_Data.c **** {
  28              		.loc 1 58 0
  29              		.cfi_startproc
  30              		@ args = 0, pretend = 0, frame = 0
  31              		@ frame_needed = 0, uses_anonymous_args = 0
  32              		@ link register save eliminated.
  33              	.LVL0:
  59:Generated_Source\PSoC5/YM_Data.c ****     uint8 staticBits = (YM_Data_DR & (uint8)(~YM_Data_MASK));
  34              		.loc 1 59 0
  35 0000 014B     		ldr	r3, .L2
  36 0002 1A78     		ldrb	r2, [r3]	@ zero_extendqisi2
  37              	.LVL1:
  60:Generated_Source\PSoC5/YM_Data.c ****     YM_Data_DR = staticBits | ((uint8)(value << YM_Data_SHIFT) & YM_Data_MASK);
  38              		.loc 1 60 0
  39 0004 1870     		strb	r0, [r3]
  40 0006 7047     		bx	lr
  41              	.L3:
  42              		.align	2
  43              	.L2:
  44 0008 C0510040 		.word	1073762752
  45              		.cfi_endproc
  46              	.LFE0:
  47              		.size	YM_Data_Write, .-YM_Data_Write
  48              		.section	.text.YM_Data_SetDriveMode,"ax",%progbits
  49              		.align	1
  50              		.global	YM_Data_SetDriveMode
  51              		.thumb
  52              		.thumb_func
  53              		.type	YM_Data_SetDriveMode, %function
  54              	YM_Data_SetDriveMode:
ARM GAS  C:\Users\ingan\AppData\Local\Temp\cc9FiwyV.s 			page 3


  55              	.LFB1:
  61:Generated_Source\PSoC5/YM_Data.c **** }
  62:Generated_Source\PSoC5/YM_Data.c **** 
  63:Generated_Source\PSoC5/YM_Data.c **** 
  64:Generated_Source\PSoC5/YM_Data.c **** /*******************************************************************************
  65:Generated_Source\PSoC5/YM_Data.c **** * Function Name: YM_Data_SetDriveMode
  66:Generated_Source\PSoC5/YM_Data.c **** ****************************************************************************//**
  67:Generated_Source\PSoC5/YM_Data.c **** *
  68:Generated_Source\PSoC5/YM_Data.c **** * \brief Sets the drive mode for each of the Pins component's pins.
  69:Generated_Source\PSoC5/YM_Data.c **** * 
  70:Generated_Source\PSoC5/YM_Data.c **** * <b>Note</b> This affects all pins in the Pins component instance. Use the
  71:Generated_Source\PSoC5/YM_Data.c **** * Per-Pin APIs if you wish to control individual pin's drive modes.
  72:Generated_Source\PSoC5/YM_Data.c **** *
  73:Generated_Source\PSoC5/YM_Data.c **** * \param mode
  74:Generated_Source\PSoC5/YM_Data.c **** *  Mode for the selected signals. Valid options are documented in 
  75:Generated_Source\PSoC5/YM_Data.c **** *  \ref driveMode.
  76:Generated_Source\PSoC5/YM_Data.c **** *
  77:Generated_Source\PSoC5/YM_Data.c **** * \return
  78:Generated_Source\PSoC5/YM_Data.c **** *  None
  79:Generated_Source\PSoC5/YM_Data.c **** *
  80:Generated_Source\PSoC5/YM_Data.c **** * \sideeffect
  81:Generated_Source\PSoC5/YM_Data.c **** *  If you use read-modify-write operations that are not atomic, the ISR can
  82:Generated_Source\PSoC5/YM_Data.c **** *  cause corruption of this function. An ISR that interrupts this function 
  83:Generated_Source\PSoC5/YM_Data.c **** *  and performs writes to the Pins component Drive Mode registers can cause 
  84:Generated_Source\PSoC5/YM_Data.c **** *  corrupted port data. To avoid this issue, you should either use the Per-Pin
  85:Generated_Source\PSoC5/YM_Data.c **** *  APIs (primary method) or disable interrupts around this function.
  86:Generated_Source\PSoC5/YM_Data.c **** *
  87:Generated_Source\PSoC5/YM_Data.c **** * \funcusage
  88:Generated_Source\PSoC5/YM_Data.c **** *  \snippet YM_Data_SUT.c usage_YM_Data_SetDriveMode
  89:Generated_Source\PSoC5/YM_Data.c **** *******************************************************************************/
  90:Generated_Source\PSoC5/YM_Data.c **** void YM_Data_SetDriveMode(uint8 mode)
  91:Generated_Source\PSoC5/YM_Data.c **** {
  56              		.loc 1 91 0
  57              		.cfi_startproc
  58              		@ args = 0, pretend = 0, frame = 0
  59              		@ frame_needed = 0, uses_anonymous_args = 0
  60              		@ link register save eliminated.
  61              	.LVL2:
  92:Generated_Source\PSoC5/YM_Data.c **** 	CyPins_SetPinDriveMode(YM_Data_0, mode);
  62              		.loc 1 92 0
  63 0000 154A     		ldr	r2, .L5
  64 0002 00F00E00 		and	r0, r0, #14
  65              	.LVL3:
  66 0006 1378     		ldrb	r3, [r2]	@ zero_extendqisi2
  67 0008 03F0F103 		and	r3, r3, #241
  68 000c 0343     		orrs	r3, r3, r0
  69 000e 1370     		strb	r3, [r2]
  93:Generated_Source\PSoC5/YM_Data.c **** 	CyPins_SetPinDriveMode(YM_Data_1, mode);
  70              		.loc 1 93 0
  71 0010 5378     		ldrb	r3, [r2, #1]	@ zero_extendqisi2
  72 0012 03F0F103 		and	r3, r3, #241
  73 0016 0343     		orrs	r3, r3, r0
  74 0018 5370     		strb	r3, [r2, #1]
  94:Generated_Source\PSoC5/YM_Data.c **** 	CyPins_SetPinDriveMode(YM_Data_2, mode);
  75              		.loc 1 94 0
  76 001a 9378     		ldrb	r3, [r2, #2]	@ zero_extendqisi2
  77 001c 03F0F103 		and	r3, r3, #241
ARM GAS  C:\Users\ingan\AppData\Local\Temp\cc9FiwyV.s 			page 4


  78 0020 0343     		orrs	r3, r3, r0
  79 0022 9370     		strb	r3, [r2, #2]
  95:Generated_Source\PSoC5/YM_Data.c **** 	CyPins_SetPinDriveMode(YM_Data_3, mode);
  80              		.loc 1 95 0
  81 0024 D378     		ldrb	r3, [r2, #3]	@ zero_extendqisi2
  82 0026 03F0F103 		and	r3, r3, #241
  83 002a 0343     		orrs	r3, r3, r0
  84 002c D370     		strb	r3, [r2, #3]
  96:Generated_Source\PSoC5/YM_Data.c **** 	CyPins_SetPinDriveMode(YM_Data_4, mode);
  85              		.loc 1 96 0
  86 002e 1379     		ldrb	r3, [r2, #4]	@ zero_extendqisi2
  87 0030 03F0F103 		and	r3, r3, #241
  88 0034 0343     		orrs	r3, r3, r0
  89 0036 1371     		strb	r3, [r2, #4]
  97:Generated_Source\PSoC5/YM_Data.c **** 	CyPins_SetPinDriveMode(YM_Data_5, mode);
  90              		.loc 1 97 0
  91 0038 5379     		ldrb	r3, [r2, #5]	@ zero_extendqisi2
  92 003a 03F0F103 		and	r3, r3, #241
  93 003e 0343     		orrs	r3, r3, r0
  94 0040 5371     		strb	r3, [r2, #5]
  98:Generated_Source\PSoC5/YM_Data.c **** 	CyPins_SetPinDriveMode(YM_Data_6, mode);
  95              		.loc 1 98 0
  96 0042 9379     		ldrb	r3, [r2, #6]	@ zero_extendqisi2
  97 0044 03F0F103 		and	r3, r3, #241
  98 0048 0343     		orrs	r3, r3, r0
  99 004a 9371     		strb	r3, [r2, #6]
  99:Generated_Source\PSoC5/YM_Data.c **** 	CyPins_SetPinDriveMode(YM_Data_7, mode);
 100              		.loc 1 99 0
 101 004c D379     		ldrb	r3, [r2, #7]	@ zero_extendqisi2
 102 004e 03F0F103 		and	r3, r3, #241
 103 0052 1843     		orrs	r0, r0, r3
 104 0054 D071     		strb	r0, [r2, #7]
 105 0056 7047     		bx	lr
 106              	.L6:
 107              		.align	2
 108              	.L5:
 109 0058 60500040 		.word	1073762400
 110              		.cfi_endproc
 111              	.LFE1:
 112              		.size	YM_Data_SetDriveMode, .-YM_Data_SetDriveMode
 113              		.section	.text.YM_Data_Read,"ax",%progbits
 114              		.align	1
 115              		.global	YM_Data_Read
 116              		.thumb
 117              		.thumb_func
 118              		.type	YM_Data_Read, %function
 119              	YM_Data_Read:
 120              	.LFB2:
 100:Generated_Source\PSoC5/YM_Data.c **** }
 101:Generated_Source\PSoC5/YM_Data.c **** 
 102:Generated_Source\PSoC5/YM_Data.c **** 
 103:Generated_Source\PSoC5/YM_Data.c **** /*******************************************************************************
 104:Generated_Source\PSoC5/YM_Data.c **** * Function Name: YM_Data_Read
 105:Generated_Source\PSoC5/YM_Data.c **** ****************************************************************************//**
 106:Generated_Source\PSoC5/YM_Data.c **** *
 107:Generated_Source\PSoC5/YM_Data.c **** * \brief Reads the associated physical port (pin status register) and masks 
 108:Generated_Source\PSoC5/YM_Data.c **** *  the required bits according to the width and bit position of the component
ARM GAS  C:\Users\ingan\AppData\Local\Temp\cc9FiwyV.s 			page 5


 109:Generated_Source\PSoC5/YM_Data.c **** *  instance. 
 110:Generated_Source\PSoC5/YM_Data.c **** *
 111:Generated_Source\PSoC5/YM_Data.c **** * The pin's status register returns the current logic level present on the 
 112:Generated_Source\PSoC5/YM_Data.c **** * physical pin.
 113:Generated_Source\PSoC5/YM_Data.c **** *
 114:Generated_Source\PSoC5/YM_Data.c **** * \return 
 115:Generated_Source\PSoC5/YM_Data.c **** *  The current value for the pins in the component as a right justified number.
 116:Generated_Source\PSoC5/YM_Data.c **** *
 117:Generated_Source\PSoC5/YM_Data.c **** * \funcusage
 118:Generated_Source\PSoC5/YM_Data.c **** *  \snippet YM_Data_SUT.c usage_YM_Data_Read  
 119:Generated_Source\PSoC5/YM_Data.c **** *******************************************************************************/
 120:Generated_Source\PSoC5/YM_Data.c **** uint8 YM_Data_Read(void)
 121:Generated_Source\PSoC5/YM_Data.c **** {
 121              		.loc 1 121 0
 122              		.cfi_startproc
 123              		@ args = 0, pretend = 0, frame = 0
 124              		@ frame_needed = 0, uses_anonymous_args = 0
 125              		@ link register save eliminated.
 122:Generated_Source\PSoC5/YM_Data.c ****     return (YM_Data_PS & YM_Data_MASK) >> YM_Data_SHIFT;
 126              		.loc 1 122 0
 127 0000 014B     		ldr	r3, .L8
 128 0002 1878     		ldrb	r0, [r3]	@ zero_extendqisi2
 123:Generated_Source\PSoC5/YM_Data.c **** }
 129              		.loc 1 123 0
 130 0004 7047     		bx	lr
 131              	.L9:
 132 0006 00BF     		.align	2
 133              	.L8:
 134 0008 C1510040 		.word	1073762753
 135              		.cfi_endproc
 136              	.LFE2:
 137              		.size	YM_Data_Read, .-YM_Data_Read
 138              		.section	.text.YM_Data_ReadDataReg,"ax",%progbits
 139              		.align	1
 140              		.global	YM_Data_ReadDataReg
 141              		.thumb
 142              		.thumb_func
 143              		.type	YM_Data_ReadDataReg, %function
 144              	YM_Data_ReadDataReg:
 145              	.LFB3:
 124:Generated_Source\PSoC5/YM_Data.c **** 
 125:Generated_Source\PSoC5/YM_Data.c **** 
 126:Generated_Source\PSoC5/YM_Data.c **** /*******************************************************************************
 127:Generated_Source\PSoC5/YM_Data.c **** * Function Name: YM_Data_ReadDataReg
 128:Generated_Source\PSoC5/YM_Data.c **** ****************************************************************************//**
 129:Generated_Source\PSoC5/YM_Data.c **** *
 130:Generated_Source\PSoC5/YM_Data.c **** * \brief Reads the associated physical port's data output register and masks 
 131:Generated_Source\PSoC5/YM_Data.c **** *  the correct bits according to the width and bit position of the component 
 132:Generated_Source\PSoC5/YM_Data.c **** *  instance. 
 133:Generated_Source\PSoC5/YM_Data.c **** *
 134:Generated_Source\PSoC5/YM_Data.c **** * The data output register controls the signal applied to the physical pin in 
 135:Generated_Source\PSoC5/YM_Data.c **** * conjunction with the drive mode parameter. This is not the same as the 
 136:Generated_Source\PSoC5/YM_Data.c **** * preferred YM_Data_Read() API because the 
 137:Generated_Source\PSoC5/YM_Data.c **** * YM_Data_ReadDataReg() reads the data register instead of the status 
 138:Generated_Source\PSoC5/YM_Data.c **** * register. For output pins this is a useful function to determine the value 
 139:Generated_Source\PSoC5/YM_Data.c **** * just written to the pin.
 140:Generated_Source\PSoC5/YM_Data.c **** *
ARM GAS  C:\Users\ingan\AppData\Local\Temp\cc9FiwyV.s 			page 6


 141:Generated_Source\PSoC5/YM_Data.c **** * \return 
 142:Generated_Source\PSoC5/YM_Data.c **** *  The current value of the data register masked and shifted into a right 
 143:Generated_Source\PSoC5/YM_Data.c **** *  justified number for the component instance.
 144:Generated_Source\PSoC5/YM_Data.c **** *
 145:Generated_Source\PSoC5/YM_Data.c **** * \funcusage
 146:Generated_Source\PSoC5/YM_Data.c **** *  \snippet YM_Data_SUT.c usage_YM_Data_ReadDataReg 
 147:Generated_Source\PSoC5/YM_Data.c **** *******************************************************************************/
 148:Generated_Source\PSoC5/YM_Data.c **** uint8 YM_Data_ReadDataReg(void)
 149:Generated_Source\PSoC5/YM_Data.c **** {
 146              		.loc 1 149 0
 147              		.cfi_startproc
 148              		@ args = 0, pretend = 0, frame = 0
 149              		@ frame_needed = 0, uses_anonymous_args = 0
 150              		@ link register save eliminated.
 150:Generated_Source\PSoC5/YM_Data.c ****     return (YM_Data_DR & YM_Data_MASK) >> YM_Data_SHIFT;
 151              		.loc 1 150 0
 152 0000 014B     		ldr	r3, .L11
 153 0002 1878     		ldrb	r0, [r3]	@ zero_extendqisi2
 151:Generated_Source\PSoC5/YM_Data.c **** }
 154              		.loc 1 151 0
 155 0004 7047     		bx	lr
 156              	.L12:
 157 0006 00BF     		.align	2
 158              	.L11:
 159 0008 C0510040 		.word	1073762752
 160              		.cfi_endproc
 161              	.LFE3:
 162              		.size	YM_Data_ReadDataReg, .-YM_Data_ReadDataReg
 163              		.text
 164              	.Letext0:
 165              		.file 2 "Generated_Source\\PSoC5\\cytypes.h"