ARM GAS  C:\Users\ingan\AppData\Local\Temp\ccLrqxzm.s 			page 1


   1              		.syntax unified
   2              		.cpu cortex-m3
   3              		.fpu softvfp
   4              		.eabi_attribute 20, 1
   5              		.eabi_attribute 21, 1
   6              		.eabi_attribute 23, 3
   7              		.eabi_attribute 24, 1
   8              		.eabi_attribute 25, 1
   9              		.eabi_attribute 26, 1
  10              		.eabi_attribute 30, 2
  11              		.eabi_attribute 34, 1
  12              		.eabi_attribute 18, 4
  13              		.thumb
  14              		.syntax unified
  15              		.file	"func_list.c"
  16              		.text
  17              	.Ltext0:
  18              		.cfi_sections	.debug_frame
  19              		.section	.text.get_func,"ax",%progbits
  20              		.align	2
  21              		.global	get_func
  22              		.thumb
  23              		.thumb_func
  24              		.type	get_func, %function
  25              	get_func:
  26              	.LFB64:
  27              		.file 1 "func_list.c"
   1:func_list.c   **** #include "project.h"
   2:func_list.c   **** #include "stdio.h"
   3:func_list.c   **** #include "tty_utils.h"
   4:func_list.c   **** #include "func_list.h"
   5:func_list.c   **** 
   6:func_list.c   **** func_ptr get_func(f_list_type *list, char *str)
   7:func_list.c   **** {
  28              		.loc 1 7 0
  29              		.cfi_startproc
  30              		@ args = 0, pretend = 0, frame = 24
  31              		@ frame_needed = 0, uses_anonymous_args = 0
  32              	.LVL0:
  33 0000 10B5     		push	{r4, lr}
  34              		.cfi_def_cfa_offset 8
  35              		.cfi_offset 4, -8
  36              		.cfi_offset 14, -4
  37 0002 0446     		mov	r4, r0
  38 0004 86B0     		sub	sp, sp, #24
  39              		.cfi_def_cfa_offset 32
   8:func_list.c   ****     int      i ;
   9:func_list.c   ****     func_ptr ptr = 0 ;
  10:func_list.c   ****     char cmd[CMD_LENGTH+1] ;
  11:func_list.c   ****     
  12:func_list.c   ****     sscanf(str, "%s", cmd) ;
  40              		.loc 1 12 0
  41 0006 0846     		mov	r0, r1
  42              	.LVL1:
  43 0008 01AA     		add	r2, sp, #4
  44 000a 0849     		ldr	r1, .L12
  45              	.LVL2:
ARM GAS  C:\Users\ingan\AppData\Local\Temp\ccLrqxzm.s 			page 2


  46 000c FFF7FEFF 		bl	sscanf
  47              	.LVL3:
  13:func_list.c   ****     for (i = 0 ; list[i].name ; i++ ) {
  48              		.loc 1 13 0
  49 0010 2068     		ldr	r0, [r4]
  50 0012 18B9     		cbnz	r0, .L3
  51 0014 07E0     		b	.L2
  52              	.LVL4:
  53              	.L11:
  54              		.loc 1 13 0 is_stmt 0 discriminator 2
  55 0016 54F80C0F 		ldr	r0, [r4, #12]!
  56 001a 20B1     		cbz	r0, .L2
  57              	.L3:
  14:func_list.c   ****         if (strcmp(list[i].name, cmd) == 0) {
  58              		.loc 1 14 0 is_stmt 1
  59 001c 01A9     		add	r1, sp, #4
  60 001e FFF7FEFF 		bl	strcmp
  61              	.LVL5:
  62 0022 0028     		cmp	r0, #0
  63 0024 F7D1     		bne	.L11
  64              	.L2:
  65              	.LVL6:
  15:func_list.c   ****             break ;
  16:func_list.c   ****         }
  17:func_list.c   ****     }
  18:func_list.c   ****     ptr = list[i].func ;
  19:func_list.c   ****     
  20:func_list.c   ****     return( ptr ) ;
  21:func_list.c   **** }
  66              		.loc 1 21 0
  67 0026 6068     		ldr	r0, [r4, #4]
  68 0028 06B0     		add	sp, sp, #24
  69              		.cfi_def_cfa_offset 8
  70              		@ sp needed
  71 002a 10BD     		pop	{r4, pc}
  72              	.LVL7:
  73              	.L13:
  74              		.align	2
  75              	.L12:
  76 002c 00000000 		.word	.LC0
  77              		.cfi_endproc
  78              	.LFE64:
  79              		.size	get_func, .-get_func
  80              		.section	.text.show_help,"ax",%progbits
  81              		.align	2
  82              		.global	show_help
  83              		.thumb
  84              		.thumb_func
  85              		.type	show_help, %function
  86              	show_help:
  87              	.LFB65:
  22:func_list.c   **** 
  23:func_list.c   **** void show_help(f_list_type *list)
  24:func_list.c   **** {
  88              		.loc 1 24 0
  89              		.cfi_startproc
  90              		@ args = 0, pretend = 0, frame = 0
ARM GAS  C:\Users\ingan\AppData\Local\Temp\ccLrqxzm.s 			page 3


  91              		@ frame_needed = 0, uses_anonymous_args = 0
  92              	.LVL8:
  93 0000 10B5     		push	{r4, lr}
  94              		.cfi_def_cfa_offset 8
  95              		.cfi_offset 4, -8
  96              		.cfi_offset 14, -4
  97              		.loc 1 24 0
  98 0002 0446     		mov	r4, r0
  25:func_list.c   ****     int i ;
  26:func_list.c   ****     
  27:func_list.c   ****     print("=== command ===\n\r") ;
  99              		.loc 1 27 0
 100 0004 0C48     		ldr	r0, .L20
 101              	.LVL9:
 102 0006 FFF7FEFF 		bl	print
 103              	.LVL10:
  28:func_list.c   ****     for (i = 0 ; list[i].name ; i++ ) {
 104              		.loc 1 28 0
 105 000a 2068     		ldr	r0, [r4]
 106 000c 70B1     		cbz	r0, .L17
 107              	.LVL11:
 108              	.L16:
  29:func_list.c   ****         print(list[i].name) ;
 109              		.loc 1 29 0 discriminator 3
 110 000e FFF7FEFF 		bl	print
 111              	.LVL12:
  30:func_list.c   ****         print(" : ") ;
 112              		.loc 1 30 0 discriminator 3
 113 0012 0A48     		ldr	r0, .L20+4
 114 0014 FFF7FEFF 		bl	print
 115              	.LVL13:
  31:func_list.c   ****         print(list[i].description) ;
 116              		.loc 1 31 0 discriminator 3
 117 0018 A068     		ldr	r0, [r4, #8]
 118 001a FFF7FEFF 		bl	print
 119              	.LVL14:
  32:func_list.c   ****         print("\n\r") ;
 120              		.loc 1 32 0 discriminator 3
 121 001e 0848     		ldr	r0, .L20+8
 122 0020 FFF7FEFF 		bl	print
 123              	.LVL15:
  28:func_list.c   ****         print(list[i].name) ;
 124              		.loc 1 28 0 discriminator 3
 125 0024 54F80C0F 		ldr	r0, [r4, #12]!
 126 0028 0028     		cmp	r0, #0
 127 002a F0D1     		bne	.L16
 128              	.L17:
  33:func_list.c   ****     }
  34:func_list.c   ****     print("===============\n\r") ;    
 129              		.loc 1 34 0
 130 002c 0548     		ldr	r0, .L20+12
  35:func_list.c   **** }...
 131              		.loc 1 35 0
 132 002e BDE81040 		pop	{r4, lr}
 133              		.cfi_restore 14
 134              		.cfi_restore 4
 135              		.cfi_def_cfa_offset 0
ARM GAS  C:\Users\ingan\AppData\Local\Temp\ccLrqxzm.s 			page 4


  34:func_list.c   ****     print("===============\n\r") ;    
 136              		.loc 1 34 0
 137 0032 FFF7FEBF 		b	print
 138              	.LVL16:
 139              	.L21:
 140 0036 00BF     		.align	2
 141              	.L20:
 142 0038 04000000 		.word	.LC1
 143 003c 2C000000 		.word	.LC3
 144 0040 30000000 		.word	.LC4
 145 0044 18000000 		.word	.LC2
 146              		.cfi_endproc
 147              	.LFE65:
 148              		.size	show_help, .-show_help
 149              		.section	.rodata.str1.4,"aMS",%progbits,1
 150              		.align	2
 151              	.LC0:
 152 0000 257300   		.ascii	"%s\000"
 153 0003 00       		.space	1
 154              	.LC1:
 155 0004 3D3D3D20 		.ascii	"=== command ===\012\015\000"
 155      636F6D6D 
 155      616E6420 
 155      3D3D3D0A 
 155      0D00
 156 0016 0000     		.space	2
 157              	.LC2:
 158 0018 3D3D3D3D 		.ascii	"===============\012\015\000"
 158      3D3D3D3D 
 158      3D3D3D3D 
 158      3D3D3D0A 
 158      0D00
 159 002a 0000     		.space	2
 160              	.LC3:
 161 002c 203A2000 		.ascii	" : \000"
 162              	.LC4:
 163 0030 0A0D00   		.ascii	"\012\015\000"
 164              		.text
 165              	.Letext0:
 166              		.file 2 "c:\\program files (x86)\\cypress\\psoc creator\\4.2\\psoc creator\\import\\gnu\\arm\\5.4.
 167              		.file 3 "c:\\program files (x86)\\cypress\\psoc creator\\4.2\\psoc creator\\import\\gnu\\arm\\5.4.
 168              		.file 4 "func_list.h"
 169              		.file 5 "c:\\program files (x86)\\cypress\\psoc creator\\4.2\\psoc creator\\import\\gnu\\arm\\5.4.
 170              		.file 6 "c:\\program files (x86)\\cypress\\psoc creator\\4.2\\psoc creator\\import\\gnu\\arm\\5.4.
 171              		.file 7 "tty_utils.h"
 172              		.file 8 "Generated_Source\\PSoC5/core_cm3.h"