ARM GAS  C:\Users\ingan\AppData\Local\Temp\ccs0tsbL.s 			page 1


   1              		.syntax unified
   2              		.cpu cortex-m3
   3              		.fpu softvfp
   4              		.eabi_attribute 20, 1
   5              		.eabi_attribute 21, 1
   6              		.eabi_attribute 23, 3
   7              		.eabi_attribute 24, 1
   8              		.eabi_attribute 25, 1
   9              		.eabi_attribute 26, 1
  10              		.eabi_attribute 30, 2
  11              		.eabi_attribute 34, 1
  12              		.eabi_attribute 18, 4
  13              		.thumb
  14              		.syntax unified
  15              		.file	"main.c"
  16              		.text
  17              	.Ltext0:
  18              		.cfi_sections	.debug_frame
  19              		.section	.text.sampleRateIRQ,"ax",%progbits
  20              		.align	2
  21              		.global	sampleRateIRQ
  22              		.thumb
  23              		.thumb_func
  24              		.type	sampleRateIRQ, %function
  25              	sampleRateIRQ:
  26              	.LFB64:
  27              		.file 1 "main.c"
   1:main.c        **** /* ========================================
   2:main.c        ****  *
   3:main.c        ****  * Copyright YOUR COMPANY, THE YEAR
   4:main.c        ****  * All Rights Reserved
   5:main.c        ****  * UNPUBLISHED, LICENSED SOFTWARE.
   6:main.c        ****  *
   7:main.c        ****  * CONFIDENTIAL AND PROPRIETARY INFORMATION
   8:main.c        ****  * WHICH IS THE PROPERTY OF your company.
   9:main.c        ****  *
  10:main.c        ****  * ========================================
  11:main.c        **** */
  12:main.c        **** #include "project.h"
  13:main.c        **** #include "stdio.h"
  14:main.c        **** #include "tty_utils.h"
  15:main.c        **** #include "utils.h"
  16:main.c        **** #include "usb_uart.h"
  17:main.c        **** 
  18:main.c        **** #define SYSTICK_MAXVAL 0x00FFFFFF //max allowed SysTick counter value for 24bit
  19:main.c        **** #define GET16(x) *x + (*(x+1) << 8);
  20:main.c        **** #define GPIO_CLEAR(pin) pin##_DR &= ~pin##_MASK; \
  21:main.c        ****     volatile_reg_val_0 = pin##_DR
  22:main.c        **** #define GPIO_SET(pin) pin##_DR |= pin##_MASK; \
  23:main.c        ****     volatile_reg_val_1 = pin##_DR;
  24:main.c        **** 
  25:main.c        **** extern uint8_t rx_flag;
  26:main.c        **** extern uint16_t count;
  27:main.c        **** extern uint8_t goFlag;
  28:main.c        **** extern uint8_t buffer[2][USBUART_BUFFER_SIZE];
  29:main.c        **** extern uint8_t* bufPtr;
  30:main.c        **** uint8_t* VGMPtr;
ARM GAS  C:\Users\ingan\AppData\Local\Temp\ccs0tsbL.s 			page 2


  31:main.c        **** uint8_t i=0, j=0, k=0;
  32:main.c        **** uint16_t WaitTime = 0;
  33:main.c        **** uint8_t isrFlag = 0;
  34:main.c        **** uint32_t test = 0;
  35:main.c        **** 
  36:main.c        **** volatile uint32 volatile_reg_val_1;
  37:main.c        **** volatile uint32 volatile_reg_val_0;
  38:main.c        **** 
  39:main.c        **** void ym2612_write_step (uint8_t data);
  40:main.c        **** void ym2612_write(uint8_t reg, uint8_t data, uint8_t port);
  41:main.c        **** void sn76489_write(uint8_t data);
  42:main.c        **** void ym2612_reset();
  43:main.c        **** void ym2612_init (void);
  44:main.c        **** void SilenceAllChannels();
  45:main.c        **** void init_hardware(void);
  46:main.c        **** 
  47:main.c        **** CY_ISR(sampleRateIRQ){
  28              		.loc 1 47 0
  29              		.cfi_startproc
  30              		@ args = 0, pretend = 0, frame = 0
  31              		@ frame_needed = 0, uses_anonymous_args = 0
  32              		@ link register save eliminated.
  48:main.c        ****     isrFlag = 1;
  33              		.loc 1 48 0
  34 0000 014B     		ldr	r3, .L2
  35 0002 0122     		movs	r2, #1
  36 0004 1A70     		strb	r2, [r3]
  37 0006 7047     		bx	lr
  38              	.L3:
  39              		.align	2
  40              	.L2:
  41 0008 00000000 		.word	.LANCHOR0
  42              		.cfi_endproc
  43              	.LFE64:
  44              		.size	sampleRateIRQ, .-sampleRateIRQ
  45              		.section	.text.ym2612_write_step,"ax",%progbits
  46              		.align	2
  47              		.global	ym2612_write_step
  48              		.thumb
  49              		.thumb_func
  50              		.type	ym2612_write_step, %function
  51              	ym2612_write_step:
  52              	.LFB67:
  49:main.c        **** }
  50:main.c        **** 
  51:main.c        **** int main(void) {
  52:main.c        **** 
  53:main.c        ****     uint8_t noWait = 0;
  54:main.c        ****     uint8_t count_vgm = 0;
  55:main.c        ****     uint8_t count_incoming = 0;
  56:main.c        ****     uint8_t incomingFlag = 0;
  57:main.c        ****     uint32 SysCntVal; // The value of SysTick counter
  58:main.c        ****     
  59:main.c        ****     init_hardware();
  60:main.c        ****     isr_1_StartEx(sampleRateIRQ);
  61:main.c        ****     //splash("USBFS-UART demo") ;
  62:main.c        ****     //cls();
ARM GAS  C:\Users\ingan\AppData\Local\Temp\ccs0tsbL.s 			page 3


  63:main.c        ****     //print("\033c") ; /* reset */
  64:main.c        ****     //CyDelay(20) ;
  65:main.c        ****     while (0u == USBUART_CDCIsReady())
  66:main.c        ****     {
  67:main.c        ****     }
  68:main.c        ****     USBUART_PutString("\0");
  69:main.c        ****     // fill 1st buffer
  70:main.c        ****     bufPtr = buffer[0];
  71:main.c        ****     while (!rx_flag);
  72:main.c        ****     count_incoming = USBUART_GetAll(bufPtr);
  73:main.c        ****     count_vgm = count_incoming;
  74:main.c        ****     rx_flag = 0;
  75:main.c        ****     // fill 2nd buffer
  76:main.c        ****     bufPtr = buffer[1];
  77:main.c        ****     while (!rx_flag);
  78:main.c        ****     count_incoming = USBUART_GetAll(bufPtr);
  79:main.c        ****     rx_flag = 0;
  80:main.c        **** 
  81:main.c        ****     i = 0; // start playback from 2nd buffer
  82:main.c        ****     bufPtr = buffer[0];
  83:main.c        ****     VGMPtr = buffer[0];
  84:main.c        ****     
  85:main.c        ****     for(;;)
  86:main.c        ****     { 
  87:main.c        ****         if (isrFlag == 1)
  88:main.c        ****         {
  89:main.c        ****             if (WaitTime != 0)
  90:main.c        ****             {
  91:main.c        ****                 WaitTime--;
  92:main.c        ****                 isrFlag = 0;
  93:main.c        ****                 continue;
  94:main.c        ****             }
  95:main.c        ****             
  96:main.c        ****             switch (VGMPtr[j]) // VGM commands parsing
  97:main.c        ****             {
  98:main.c        ****             case 0x4F:
  99:main.c        ****                 j += 2;
 100:main.c        ****                 break;
 101:main.c        **** 
 102:main.c        ****             case 0x50:
 103:main.c        ****                 sn76489_write(VGMPtr[j + 1]);
 104:main.c        ****                 j += 2;            
 105:main.c        ****                 WaitTime = 0;
 106:main.c        ****                 break;
 107:main.c        **** 
 108:main.c        ****             case 0x52:
 109:main.c        ****             case 0x53:
 110:main.c        ****                 ym2612_write(VGMPtr[j + 1], VGMPtr[j + 2], VGMPtr[j] & 0x01);
 111:main.c        ****                 j += 3;
 112:main.c        ****                 WaitTime = 0;
 113:main.c        ****                 break;
 114:main.c        **** 
 115:main.c        ****             case 0x61:
 116:main.c        ****                 WaitTime = GET16(&VGMPtr[j + 1]);
 117:main.c        ****                 j += 3;
 118:main.c        ****                 if (WaitTime != 0)
 119:main.c        ****                 {
ARM GAS  C:\Users\ingan\AppData\Local\Temp\ccs0tsbL.s 			page 4


 120:main.c        ****                     noWait = 1;
 121:main.c        ****                 }
 122:main.c        ****                 else
 123:main.c        ****                 {
 124:main.c        ****                     WaitTime--;    
 125:main.c        ****                 }
 126:main.c        ****                 break;
 127:main.c        ****             
 128:main.c        ****             case 0x62:
 129:main.c        ****                 j++;
 130:main.c        ****                 WaitTime = 735 - 1;
 131:main.c        ****                 break;
 132:main.c        **** 
 133:main.c        ****             case 0x63:
 134:main.c        ****                 j++;
 135:main.c        ****                 WaitTime = 882 - 1;
 136:main.c        ****                 break;
 137:main.c        **** 
 138:main.c        ****             case 0x70:
 139:main.c        ****             case 0x71:
 140:main.c        ****             case 0x72:
 141:main.c        ****             case 0x73:
 142:main.c        ****             case 0x74:
 143:main.c        ****             case 0x75:
 144:main.c        ****             case 0x76:
 145:main.c        ****             case 0x77:
 146:main.c        ****             case 0x78:
 147:main.c        ****             case 0x79:
 148:main.c        ****             case 0x7A:
 149:main.c        ****             case 0x7B:
 150:main.c        ****             case 0x7C:
 151:main.c        ****             case 0x7D:
 152:main.c        ****             case 0x7E:
 153:main.c        ****             case 0x7F:
 154:main.c        ****                 WaitTime = (VGMPtr[j] & 0x0F);
 155:main.c        ****                 j++;
 156:main.c        ****                 break;
 157:main.c        ****             
 158:main.c        ****             case 0x80:
 159:main.c        ****             case 0x81:
 160:main.c        ****             case 0x82:
 161:main.c        ****             case 0x83:
 162:main.c        ****             case 0x84:
 163:main.c        ****             case 0x85:
 164:main.c        ****             case 0x86:
 165:main.c        ****             case 0x87:
 166:main.c        ****             case 0x88:
 167:main.c        ****             case 0x89:
 168:main.c        ****             case 0x8A:
 169:main.c        ****             case 0x8B:
 170:main.c        ****             case 0x8C:
 171:main.c        ****             case 0x8D:
 172:main.c        ****             case 0x8E:
 173:main.c        ****             case 0x8F:
 174:main.c        ****                 //SysTick_Config(SYSTICK_MAXVAL); //reset counter set to max value, 1-time, will no
 175:main.c        ****                 ym2612_write(0x2a, VGMPtr[j + 1], 0x00);
 176:main.c        ****                 //SysCntVal = SYSTICK_MAXVAL - (SysTick->VAL); //get elapsed ticks (min offset 3 ti
ARM GAS  C:\Users\ingan\AppData\Local\Temp\ccs0tsbL.s 			page 5


 177:main.c        ****                 WaitTime = VGMPtr[j] & 0x0F;
 178:main.c        ****                 j += 2;
 179:main.c        ****                 if (WaitTime == 0)
 180:main.c        ****                 {
 181:main.c        ****                     noWait = 1;
 182:main.c        ****                 }
 183:main.c        ****                 else
 184:main.c        ****                 {
 185:main.c        ****                     WaitTime--;    
 186:main.c        ****                 }
 187:main.c        ****                 break;
 188:main.c        **** 
 189:main.c        ****             default:
 190:main.c        ****                 break;
 191:main.c        ****             }
 192:main.c        ****             
 193:main.c        ****             if (incomingFlag == 1)
 194:main.c        ****             {
 195:main.c        ****                 if (USBUART_OUT_BUFFER_FULL != USBUART_GetEPState(3))
 196:main.c        ****                 {
 197:main.c        ****                     USBUART_EnableOutEP(3);
 198:main.c        ****                     incomingFlag = 0;
 199:main.c        ****                 }
 200:main.c        ****             }
 201:main.c        ****             
 202:main.c        ****             // buffer end
 203:main.c        ****             if (j >= count_vgm - 1)
 204:main.c        ****             {   
 205:main.c        ****                 if (i == 0)
 206:main.c        ****                 {
 207:main.c        ****                     VGMPtr = buffer[1];
 208:main.c        ****                 }
 209:main.c        ****                 else
 210:main.c        ****                 {
 211:main.c        ****                     VGMPtr = buffer[0];
 212:main.c        ****                 }
 213:main.c        ****                 // change buffer and...
 214:main.c        ****                 // ... get incoming data from USB
 215:main.c        ****                 while (!rx_flag);
 216:main.c        ****                 count_vgm = count_incoming;
 217:main.c        ****                 //count_incoming = USBUART_GetAll(bufPtr);
 218:main.c        ****                 count_incoming = USBUART_ReadOutEP(3, bufPtr, 64);
 219:main.c        ****                 incomingFlag = 1;
 220:main.c        ****                 rx_flag = 0;
 221:main.c        ****                 bufPtr = VGMPtr;
 222:main.c        ****                 if (i == 0)
 223:main.c        ****                 {
 224:main.c        ****                     i = 1;
 225:main.c        ****                 }
 226:main.c        ****                 else
 227:main.c        ****                 {
 228:main.c        ****                     i = 0;
 229:main.c        ****                 }
 230:main.c        ****                 j = 0;
 231:main.c        ****                 /*
 232:main.c        ****                 VGMPtr = buffer[(i + 1) % 2]; // change buffer and...
 233:main.c        ****                 // ... get incoming data from USB
ARM GAS  C:\Users\ingan\AppData\Local\Temp\ccs0tsbL.s 			page 6


 234:main.c        ****                 while (!rx_flag);
 235:main.c        ****                 count_vgm = count_incoming;
 236:main.c        ****                 count_incoming = USBUART_GetAll(bufPtr);
 237:main.c        ****                 rx_flag = 0;
 238:main.c        ****                 i = (i + 1) % 2;
 239:main.c        ****                 bufPtr = buffer[i];
 240:main.c        ****                 j = 0;
 241:main.c        ****                 */
 242:main.c        ****             }
 243:main.c        ****             
 244:main.c        ****             if (noWait == 1)
 245:main.c        ****             {
 246:main.c        ****                 noWait = 0;
 247:main.c        ****             }
 248:main.c        ****             else
 249:main.c        ****             {
 250:main.c        ****                 isrFlag = 0;
 251:main.c        ****             }
 252:main.c        ****         }
 253:main.c        ****     }  
 254:main.c        **** }
 255:main.c        **** 
 256:main.c        **** void init_hardware(void) 
 257:main.c        **** {
 258:main.c        ****     SilenceAllChannels();
 259:main.c        ****     CyGlobalIntEnable; /* Enable global interrupts. */
 260:main.c        **** 
 261:main.c        ****     tty_init() ;
 262:main.c        **** }
 263:main.c        **** 
 264:main.c        **** /*
 265:main.c        **** void ym2612_write_step (uint8_t data)
 266:main.c        **** {
 267:main.c        ****   // CS Pin low
 268:main.c        ****   YM_CS_Write(0);
 269:main.c        ****   // DATA to bus
 270:main.c        ****   YM_Data_Write(data);
 271:main.c        ****   // WR data
 272:main.c        ****   YM_WR_Write(0);
 273:main.c        ****   YM_RD_Write(1);
 274:main.c        ****   //CyDelayCycles(1);
 275:main.c        ****   CyDelayUs(1);
 276:main.c        ****   YM_WR_Write(1);
 277:main.c        ****   YM_RD_Write(0);
 278:main.c        ****   // CS Pin high
 279:main.c        ****   YM_CS_Write(1);
 280:main.c        ****   CyDelayUs(1);
 281:main.c        ****   //CyDelayCycles(1);
 282:main.c        **** }*/
 283:main.c        **** 
 284:main.c        **** void ym2612_write_step(uint8_t data)
 285:main.c        **** {
  53              		.loc 1 285 0
  54              		.cfi_startproc
  55              		@ args = 0, pretend = 0, frame = 0
  56              		@ frame_needed = 0, uses_anonymous_args = 0
  57              	.LVL0:
ARM GAS  C:\Users\ingan\AppData\Local\Temp\ccs0tsbL.s 			page 7


  58 0000 F8B5     		push	{r3, r4, r5, r6, r7, lr}
  59              		.cfi_def_cfa_offset 24
  60              		.cfi_offset 3, -24
  61              		.cfi_offset 4, -20
  62              		.cfi_offset 5, -16
  63              		.cfi_offset 6, -12
  64              		.cfi_offset 7, -8
  65              		.cfi_offset 14, -4
 286:main.c        ****   // CS Pin low
 287:main.c        ****   GPIO_CLEAR(YM_CS);
  66              		.loc 1 287 0
  67 0002 1C4C     		ldr	r4, .L6
  68 0004 1C4F     		ldr	r7, .L6+4
  69 0006 2378     		ldrb	r3, [r4]	@ zero_extendqisi2
 288:main.c        ****   // DATA to bus
 289:main.c        ****   //YM_Data_Write(data);
 290:main.c        ****   YM_Data_DR = data;
  70              		.loc 1 290 0
  71 0008 1C4A     		ldr	r2, .L6+8
 287:main.c        ****   // DATA to bus
  72              		.loc 1 287 0
  73 000a 03F0F703 		and	r3, r3, #247
  74 000e 2370     		strb	r3, [r4]
  75 0010 2378     		ldrb	r3, [r4]	@ zero_extendqisi2
 291:main.c        ****   // WR data
 292:main.c        ****   GPIO_CLEAR(YM_WR);
 293:main.c        ****   GPIO_SET(YM_RD);
  76              		.loc 1 293 0
  77 0012 1B4D     		ldr	r5, .L6+12
 287:main.c        ****   // DATA to bus
  78              		.loc 1 287 0
  79 0014 DBB2     		uxtb	r3, r3
  80 0016 3B60     		str	r3, [r7]
 290:main.c        ****   // WR data
  81              		.loc 1 290 0
  82 0018 1070     		strb	r0, [r2]
 292:main.c        ****   GPIO_SET(YM_RD);
  83              		.loc 1 292 0
  84 001a 2378     		ldrb	r3, [r4]	@ zero_extendqisi2
  85              		.loc 1 293 0
  86 001c 194E     		ldr	r6, .L6+16
 292:main.c        ****   GPIO_SET(YM_RD);
  87              		.loc 1 292 0
  88 001e 03F0FB03 		and	r3, r3, #251
  89 0022 2370     		strb	r3, [r4]
  90 0024 2378     		ldrb	r3, [r4]	@ zero_extendqisi2
 294:main.c        ****   //CyDelayCycles(1);
 295:main.c        ****   CyDelayUs(1);
  91              		.loc 1 295 0
  92 0026 0120     		movs	r0, #1
  93              	.LVL1:
 292:main.c        ****   GPIO_SET(YM_RD);
  94              		.loc 1 292 0
  95 0028 DBB2     		uxtb	r3, r3
  96 002a 3B60     		str	r3, [r7]
 293:main.c        ****   //CyDelayCycles(1);
  97              		.loc 1 293 0
ARM GAS  C:\Users\ingan\AppData\Local\Temp\ccs0tsbL.s 			page 8


  98 002c 2B78     		ldrb	r3, [r5]	@ zero_extendqisi2
  99 002e 43F00203 		orr	r3, r3, #2
 100 0032 2B70     		strb	r3, [r5]
 101 0034 2B78     		ldrb	r3, [r5]	@ zero_extendqisi2
 102 0036 DBB2     		uxtb	r3, r3
 103 0038 3360     		str	r3, [r6]
 104              		.loc 1 295 0
 105 003a FFF7FEFF 		bl	CyDelayUs
 106              	.LVL2:
 296:main.c        ****   GPIO_SET(YM_WR);
 107              		.loc 1 296 0
 108 003e 2378     		ldrb	r3, [r4]	@ zero_extendqisi2
 297:main.c        ****   GPIO_CLEAR(YM_RD);
 298:main.c        ****   // CS Pin high
 299:main.c        ****   GPIO_SET(YM_CS);
 300:main.c        ****   CyDelayUs(1);
 109              		.loc 1 300 0
 110 0040 0120     		movs	r0, #1
 296:main.c        ****   GPIO_SET(YM_WR);
 111              		.loc 1 296 0
 112 0042 43F00403 		orr	r3, r3, #4
 113 0046 2370     		strb	r3, [r4]
 114 0048 2378     		ldrb	r3, [r4]	@ zero_extendqisi2
 115 004a DBB2     		uxtb	r3, r3
 116 004c 3360     		str	r3, [r6]
 297:main.c        ****   GPIO_CLEAR(YM_RD);
 117              		.loc 1 297 0
 118 004e 2B78     		ldrb	r3, [r5]	@ zero_extendqisi2
 119 0050 03F0FD03 		and	r3, r3, #253
 120 0054 2B70     		strb	r3, [r5]
 121 0056 2B78     		ldrb	r3, [r5]	@ zero_extendqisi2
 122 0058 DBB2     		uxtb	r3, r3
 123 005a 3B60     		str	r3, [r7]
 299:main.c        ****   CyDelayUs(1);
 124              		.loc 1 299 0
 125 005c 2378     		ldrb	r3, [r4]	@ zero_extendqisi2
 126 005e 43F00803 		orr	r3, r3, #8
 127 0062 2370     		strb	r3, [r4]
 128 0064 2378     		ldrb	r3, [r4]	@ zero_extendqisi2
 129 0066 DBB2     		uxtb	r3, r3
 130 0068 3360     		str	r3, [r6]
 301:main.c        ****   //CyDelayCycles(1);
 302:main.c        ****     
 303:main.c        **** }
 131              		.loc 1 303 0
 132 006a BDE8F840 		pop	{r3, r4, r5, r6, r7, lr}
 133              		.cfi_restore 14
 134              		.cfi_restore 7
 135              		.cfi_restore 6
 136              		.cfi_restore 5
 137              		.cfi_restore 4
 138              		.cfi_restore 3
 139              		.cfi_def_cfa_offset 0
 300:main.c        ****   //CyDelayCycles(1);
 140              		.loc 1 300 0
 141 006e FFF7FEBF 		b	CyDelayUs
 142              	.LVL3:
ARM GAS  C:\Users\ingan\AppData\Local\Temp\ccs0tsbL.s 			page 9


 143              	.L7:
 144 0072 00BF     		.align	2
 145              	.L6:
 146 0074 C0510040 		.word	1073762752
 147 0078 00000000 		.word	volatile_reg_val_0
 148 007c 20510040 		.word	1073762592
 149 0080 F0510040 		.word	1073762800
 150 0084 00000000 		.word	volatile_reg_val_1
 151              		.cfi_endproc
 152              	.LFE67:
 153              		.size	ym2612_write_step, .-ym2612_write_step
 154              		.section	.text.ym2612_write,"ax",%progbits
 155              		.align	2
 156              		.global	ym2612_write
 157              		.thumb
 158              		.thumb_func
 159              		.type	ym2612_write, %function
 160              	ym2612_write:
 161              	.LFB68:
 304:main.c        **** 
 305:main.c        **** /*void ym2612_write(uint8_t reg, uint8_t data, uint8_t port)
 306:main.c        **** {
 307:main.c        ****   // A1 selects part0 (channels 1-3) or part1 (channels 1-6)
 308:main.c        ****   YM_A1_Write(port);
 309:main.c        ****   YM_A0_Write(0);
 310:main.c        ****   // write register selection
 311:main.c        ****   ym2612_write_step(reg);
 312:main.c        ****   // data part 0 (channels 1-3)
 313:main.c        ****   // A1 low, A0 high
 314:main.c        ****   YM_A0_Write(1);
 315:main.c        ****   ym2612_write_step(data);
 316:main.c        **** }*/
 317:main.c        **** 
 318:main.c        **** void ym2612_write(uint8_t reg, uint8_t data, uint8_t port)
 319:main.c        **** {
 162              		.loc 1 319 0
 163              		.cfi_startproc
 164              		@ args = 0, pretend = 0, frame = 0
 165              		@ frame_needed = 0, uses_anonymous_args = 0
 166              	.LVL4:
 320:main.c        ****   // A1 selects part0 (channels 1-3) or part1 (channels 1-6)
 321:main.c        ****   if (port == 1)
 167              		.loc 1 321 0
 168 0000 012A     		cmp	r2, #1
 319:main.c        ****   // A1 selects part0 (channels 1-3) or part1 (channels 1-6)
 169              		.loc 1 319 0
 170 0002 2DE9F843 		push	{r3, r4, r5, r6, r7, r8, r9, lr}
 171              		.cfi_def_cfa_offset 32
 172              		.cfi_offset 3, -32
 173              		.cfi_offset 4, -28
 174              		.cfi_offset 5, -24
 175              		.cfi_offset 6, -20
 176              		.cfi_offset 7, -16
 177              		.cfi_offset 8, -12
 178              		.cfi_offset 9, -8
 179              		.cfi_offset 14, -4
 319:main.c        ****   // A1 selects part0 (channels 1-3) or part1 (channels 1-6)
ARM GAS  C:\Users\ingan\AppData\Local\Temp\ccs0tsbL.s 			page 10


 180              		.loc 1 319 0
 181 0006 8846     		mov	r8, r1
 322:main.c        ****   {
 323:main.c        ****     GPIO_SET(YM_A1);
 182              		.loc 1 323 0
 183 0008 454B     		ldr	r3, .L14
 321:main.c        ****   {
 184              		.loc 1 321 0
 185 000a 7FD0     		beq	.L13
 324:main.c        ****   }
 325:main.c        ****   else
 326:main.c        ****   {
 327:main.c        ****     GPIO_CLEAR(YM_A1);
 186              		.loc 1 327 0
 187 000c 1A78     		ldrb	r2, [r3]	@ zero_extendqisi2
 188              	.LVL5:
 189 000e 454E     		ldr	r6, .L14+4
 190 0010 02F0FE02 		and	r2, r2, #254
 191 0014 1A70     		strb	r2, [r3]
 192 0016 1B78     		ldrb	r3, [r3]	@ zero_extendqisi2
 193 0018 434F     		ldr	r7, .L14+8
 194 001a DBB2     		uxtb	r3, r3
 195 001c 3360     		str	r3, [r6]
 196              	.L10:
 328:main.c        ****   }
 329:main.c        ****   GPIO_CLEAR(YM_A0);
 197              		.loc 1 329 0
 198 001e 434C     		ldr	r4, .L14+12
 199              	.LBB8:
 200              	.LBB9:
 290:main.c        ****   // WR data
 201              		.loc 1 290 0
 202 0020 DFF80C91 		ldr	r9, .L14+16
 203              	.LBE9:
 204              	.LBE8:
 205              		.loc 1 329 0
 206 0024 2378     		ldrb	r3, [r4]	@ zero_extendqisi2
 207              	.LBB12:
 208              	.LBB10:
 293:main.c        ****   //CyDelayCycles(1);
 209              		.loc 1 293 0
 210 0026 3E4D     		ldr	r5, .L14
 211              	.LBE10:
 212              	.LBE12:
 213              		.loc 1 329 0
 214 0028 03F0FE03 		and	r3, r3, #254
 215 002c 2370     		strb	r3, [r4]
 216 002e 2378     		ldrb	r3, [r4]	@ zero_extendqisi2
 217 0030 DBB2     		uxtb	r3, r3
 218 0032 3360     		str	r3, [r6]
 219              	.LVL6:
 220              	.LBB13:
 221              	.LBB11:
 287:main.c        ****   // DATA to bus
 222              		.loc 1 287 0
 223 0034 2378     		ldrb	r3, [r4]	@ zero_extendqisi2
 224 0036 03F0F703 		and	r3, r3, #247
ARM GAS  C:\Users\ingan\AppData\Local\Temp\ccs0tsbL.s 			page 11


 225 003a 2370     		strb	r3, [r4]
 226 003c 2378     		ldrb	r3, [r4]	@ zero_extendqisi2
 227 003e DBB2     		uxtb	r3, r3
 228 0040 3360     		str	r3, [r6]
 290:main.c        ****   // WR data
 229              		.loc 1 290 0
 230 0042 89F80000 		strb	r0, [r9]
 292:main.c        ****   GPIO_SET(YM_RD);
 231              		.loc 1 292 0
 232 0046 2378     		ldrb	r3, [r4]	@ zero_extendqisi2
 295:main.c        ****   GPIO_SET(YM_WR);
 233              		.loc 1 295 0
 234 0048 0120     		movs	r0, #1
 235              	.LVL7:
 292:main.c        ****   GPIO_SET(YM_RD);
 236              		.loc 1 292 0
 237 004a 03F0FB03 		and	r3, r3, #251
 238 004e 2370     		strb	r3, [r4]
 239              	.LVL8:
 240 0050 2378     		ldrb	r3, [r4]	@ zero_extendqisi2
 241 0052 DBB2     		uxtb	r3, r3
 242 0054 3360     		str	r3, [r6]
 293:main.c        ****   //CyDelayCycles(1);
 243              		.loc 1 293 0
 244 0056 2B78     		ldrb	r3, [r5]	@ zero_extendqisi2
 245 0058 43F00203 		orr	r3, r3, #2
 246 005c 2B70     		strb	r3, [r5]
 247 005e 2B78     		ldrb	r3, [r5]	@ zero_extendqisi2
 248 0060 DBB2     		uxtb	r3, r3
 249 0062 3B60     		str	r3, [r7]
 295:main.c        ****   GPIO_SET(YM_WR);
 250              		.loc 1 295 0
 251 0064 FFF7FEFF 		bl	CyDelayUs
 252              	.LVL9:
 296:main.c        ****   GPIO_CLEAR(YM_RD);
 253              		.loc 1 296 0
 254 0068 2378     		ldrb	r3, [r4]	@ zero_extendqisi2
 300:main.c        ****   //CyDelayCycles(1);
 255              		.loc 1 300 0
 256 006a 0120     		movs	r0, #1
 296:main.c        ****   GPIO_CLEAR(YM_RD);
 257              		.loc 1 296 0
 258 006c 43F00403 		orr	r3, r3, #4
 259 0070 2370     		strb	r3, [r4]
 260 0072 2378     		ldrb	r3, [r4]	@ zero_extendqisi2
 261 0074 DBB2     		uxtb	r3, r3
 262 0076 3B60     		str	r3, [r7]
 297:main.c        ****   // CS Pin high
 263              		.loc 1 297 0
 264 0078 2B78     		ldrb	r3, [r5]	@ zero_extendqisi2
 265 007a 03F0FD03 		and	r3, r3, #253
 266 007e 2B70     		strb	r3, [r5]
 267 0080 2B78     		ldrb	r3, [r5]	@ zero_extendqisi2
 268 0082 DBB2     		uxtb	r3, r3
 269 0084 3360     		str	r3, [r6]
 299:main.c        ****   CyDelayUs(1);
 270              		.loc 1 299 0
ARM GAS  C:\Users\ingan\AppData\Local\Temp\ccs0tsbL.s 			page 12


 271 0086 2378     		ldrb	r3, [r4]	@ zero_extendqisi2
 272 0088 43F00803 		orr	r3, r3, #8
 273 008c 2370     		strb	r3, [r4]
 274 008e 2378     		ldrb	r3, [r4]	@ zero_extendqisi2
 275 0090 DBB2     		uxtb	r3, r3
 276 0092 3B60     		str	r3, [r7]
 300:main.c        ****   //CyDelayCycles(1);
 277              		.loc 1 300 0
 278 0094 FFF7FEFF 		bl	CyDelayUs
 279              	.LVL10:
 280              	.LBE11:
 281              	.LBE13:
 330:main.c        ****   // write register selection
 331:main.c        ****   ym2612_write_step(reg);
 332:main.c        ****   // data part 0 (channels 1-3)
 333:main.c        ****   // A1 low, A0 high
 334:main.c        ****   GPIO_SET(YM_A0);
 282              		.loc 1 334 0
 283 0098 2378     		ldrb	r3, [r4]	@ zero_extendqisi2
 284              	.LBB14:
 285              	.LBB15:
 295:main.c        ****   GPIO_SET(YM_WR);
 286              		.loc 1 295 0
 287 009a 0120     		movs	r0, #1
 288              	.LBE15:
 289              	.LBE14:
 290              		.loc 1 334 0
 291 009c 0343     		orrs	r3, r3, r0
 292 009e 2370     		strb	r3, [r4]
 293 00a0 2378     		ldrb	r3, [r4]	@ zero_extendqisi2
 294 00a2 DBB2     		uxtb	r3, r3
 295 00a4 3B60     		str	r3, [r7]
 296              	.LVL11:
 297              	.LBB18:
 298              	.LBB16:
 287:main.c        ****   // DATA to bus
 299              		.loc 1 287 0
 300 00a6 2378     		ldrb	r3, [r4]	@ zero_extendqisi2
 301 00a8 03F0F703 		and	r3, r3, #247
 302 00ac 2370     		strb	r3, [r4]
 303 00ae 2378     		ldrb	r3, [r4]	@ zero_extendqisi2
 304 00b0 DBB2     		uxtb	r3, r3
 305 00b2 3360     		str	r3, [r6]
 290:main.c        ****   // WR data
 306              		.loc 1 290 0
 307 00b4 89F80080 		strb	r8, [r9]
 292:main.c        ****   GPIO_SET(YM_RD);
 308              		.loc 1 292 0
 309 00b8 2378     		ldrb	r3, [r4]	@ zero_extendqisi2
 310 00ba 03F0FB03 		and	r3, r3, #251
 311 00be 2370     		strb	r3, [r4]
 312 00c0 2378     		ldrb	r3, [r4]	@ zero_extendqisi2
 313 00c2 DBB2     		uxtb	r3, r3
 314 00c4 3360     		str	r3, [r6]
 293:main.c        ****   //CyDelayCycles(1);
 315              		.loc 1 293 0
 316 00c6 2B78     		ldrb	r3, [r5]	@ zero_extendqisi2
ARM GAS  C:\Users\ingan\AppData\Local\Temp\ccs0tsbL.s 			page 13


 317 00c8 43F00203 		orr	r3, r3, #2
 318 00cc 2B70     		strb	r3, [r5]
 319 00ce 2B78     		ldrb	r3, [r5]	@ zero_extendqisi2
 320 00d0 DBB2     		uxtb	r3, r3
 321 00d2 3B60     		str	r3, [r7]
 295:main.c        ****   GPIO_SET(YM_WR);
 322              		.loc 1 295 0
 323 00d4 FFF7FEFF 		bl	CyDelayUs
 324              	.LVL12:
 296:main.c        ****   GPIO_CLEAR(YM_RD);
 325              		.loc 1 296 0
 326 00d8 2378     		ldrb	r3, [r4]	@ zero_extendqisi2
 300:main.c        ****   //CyDelayCycles(1);
 327              		.loc 1 300 0
 328 00da 0120     		movs	r0, #1
 296:main.c        ****   GPIO_CLEAR(YM_RD);
 329              		.loc 1 296 0
 330 00dc 43F00403 		orr	r3, r3, #4
 331 00e0 2370     		strb	r3, [r4]
 332 00e2 2378     		ldrb	r3, [r4]	@ zero_extendqisi2
 333 00e4 DBB2     		uxtb	r3, r3
 334 00e6 3B60     		str	r3, [r7]
 297:main.c        ****   // CS Pin high
 335              		.loc 1 297 0
 336 00e8 2B78     		ldrb	r3, [r5]	@ zero_extendqisi2
 337 00ea 03F0FD03 		and	r3, r3, #253
 338 00ee 2B70     		strb	r3, [r5]
 339 00f0 2B78     		ldrb	r3, [r5]	@ zero_extendqisi2
 340 00f2 DBB2     		uxtb	r3, r3
 341 00f4 3360     		str	r3, [r6]
 299:main.c        ****   CyDelayUs(1);
 342              		.loc 1 299 0
 343 00f6 2378     		ldrb	r3, [r4]	@ zero_extendqisi2
 344 00f8 43F00803 		orr	r3, r3, #8
 345 00fc 2370     		strb	r3, [r4]
 346 00fe 2378     		ldrb	r3, [r4]	@ zero_extendqisi2
 347 0100 DBB2     		uxtb	r3, r3
 348 0102 3B60     		str	r3, [r7]
 349              	.LBE16:
 350              	.LBE18:
 335:main.c        ****   ym2612_write_step(data);
 336:main.c        **** }
 351              		.loc 1 336 0
 352 0104 BDE8F843 		pop	{r3, r4, r5, r6, r7, r8, r9, lr}
 353              		.cfi_remember_state
 354              		.cfi_restore 14
 355              		.cfi_restore 9
 356              		.cfi_restore 8
 357              		.cfi_restore 7
 358              		.cfi_restore 6
 359              		.cfi_restore 5
 360              		.cfi_restore 4
 361              		.cfi_restore 3
 362              		.cfi_def_cfa_offset 0
 363              	.LVL13:
 364              	.LBB19:
 365              	.LBB17:
ARM GAS  C:\Users\ingan\AppData\Local\Temp\ccs0tsbL.s 			page 14


 300:main.c        ****   //CyDelayCycles(1);
 366              		.loc 1 300 0
 367 0108 FFF7FEBF 		b	CyDelayUs
 368              	.LVL14:
 369              	.L13:
 370              		.cfi_restore_state
 371              	.LBE17:
 372              	.LBE19:
 323:main.c        ****   }
 373              		.loc 1 323 0
 374 010c 1A78     		ldrb	r2, [r3]	@ zero_extendqisi2
 375              	.LVL15:
 376 010e 064F     		ldr	r7, .L14+8
 377 0110 42F00102 		orr	r2, r2, #1
 378 0114 1A70     		strb	r2, [r3]
 379 0116 1B78     		ldrb	r3, [r3]	@ zero_extendqisi2
 380 0118 024E     		ldr	r6, .L14+4
 381 011a DBB2     		uxtb	r3, r3
 382 011c 3B60     		str	r3, [r7]
 383 011e 7EE7     		b	.L10
 384              	.L15:
 385              		.align	2
 386              	.L14:
 387 0120 F0510040 		.word	1073762800
 388 0124 00000000 		.word	volatile_reg_val_0
 389 0128 00000000 		.word	volatile_reg_val_1
 390 012c C0510040 		.word	1073762752
 391 0130 20510040 		.word	1073762592
 392              		.cfi_endproc
 393              	.LFE68:
 394              		.size	ym2612_write, .-ym2612_write
 395              		.section	.text.sn76489_write,"ax",%progbits
 396              		.align	2
 397              		.global	sn76489_write
 398              		.thumb
 399              		.thumb_func
 400              		.type	sn76489_write, %function
 401              	sn76489_write:
 402              	.LFB69:
 337:main.c        **** 
 338:main.c        **** void sn76489_write(uint8_t data)
 339:main.c        **** {
 403              		.loc 1 339 0
 404              		.cfi_startproc
 405              		@ args = 0, pretend = 0, frame = 0
 406              		@ frame_needed = 0, uses_anonymous_args = 0
 407              	.LVL16:
 408 0000 10B5     		push	{r4, lr}
 409              		.cfi_def_cfa_offset 8
 410              		.cfi_offset 4, -8
 411              		.cfi_offset 14, -4
 412              		.loc 1 339 0
 413 0002 0446     		mov	r4, r0
 340:main.c        ****   //data = flip_byte(data);  
 341:main.c        ****   SN_WE_Write(1);
 414              		.loc 1 341 0
 415 0004 0120     		movs	r0, #1
ARM GAS  C:\Users\ingan\AppData\Local\Temp\ccs0tsbL.s 			page 15


 416              	.LVL17:
 417 0006 FFF7FEFF 		bl	SN_WE_Write
 418              	.LVL18:
 342:main.c        ****   YM_Data_Write(data);
 419              		.loc 1 342 0
 420 000a 2046     		mov	r0, r4
 421 000c FFF7FEFF 		bl	YM_Data_Write
 422              	.LVL19:
 343:main.c        ****   SN_WE_Write(0);
 423              		.loc 1 343 0
 424 0010 0020     		movs	r0, #0
 425 0012 FFF7FEFF 		bl	SN_WE_Write
 426              	.LVL20:
 344:main.c        ****   //CyDelayCycles(1);
 345:main.c        ****   CyDelayUs(10);
 427              		.loc 1 345 0
 428 0016 0A20     		movs	r0, #10
 429 0018 FFF7FEFF 		bl	CyDelayUs
 430              	.LVL21:
 346:main.c        ****   SN_WE_Write(1);
 347:main.c        **** }
 431              		.loc 1 347 0
 432 001c BDE81040 		pop	{r4, lr}
 433              		.cfi_restore 14
 434              		.cfi_restore 4
 435              		.cfi_def_cfa_offset 0
 346:main.c        ****   SN_WE_Write(1);
 436              		.loc 1 346 0
 437 0020 0120     		movs	r0, #1
 438 0022 FFF7FEBF 		b	SN_WE_Write
 439              	.LVL22:
 440              		.cfi_endproc
 441              	.LFE69:
 442              		.size	sn76489_write, .-sn76489_write
 443 0026 00BF     		.section	.text.ym2612_reset,"ax",%progbits
 444              		.align	2
 445              		.global	ym2612_reset
 446              		.thumb
 447              		.thumb_func
 448              		.type	ym2612_reset, %function
 449              	ym2612_reset:
 450              	.LFB70:
 348:main.c        **** 
 349:main.c        **** void ym2612_reset()
 350:main.c        **** {
 451              		.loc 1 350 0
 452              		.cfi_startproc
 453              		@ args = 0, pretend = 0, frame = 0
 454              		@ frame_needed = 0, uses_anonymous_args = 0
 455 0000 08B5     		push	{r3, lr}
 456              		.cfi_def_cfa_offset 8
 457              		.cfi_offset 3, -8
 458              		.cfi_offset 14, -4
 351:main.c        ****   //YM_IC_Write(0);
 352:main.c        ****   //CyDelayUs(1);
 353:main.c        ****   //YM_IC_Write(1);
 354:main.c        ****   YM_IC_Write(0);
ARM GAS  C:\Users\ingan\AppData\Local\Temp\ccs0tsbL.s 			page 16


 459              		.loc 1 354 0
 460 0002 0020     		movs	r0, #0
 461 0004 FFF7FEFF 		bl	YM_IC_Write
 462              	.LVL23:
 355:main.c        ****   CyDelay(10);
 463              		.loc 1 355 0
 464 0008 0A20     		movs	r0, #10
 465 000a FFF7FEFF 		bl	CyDelay
 466              	.LVL24:
 356:main.c        ****   YM_IC_Write(1);
 467              		.loc 1 356 0
 468 000e 0120     		movs	r0, #1
 469 0010 FFF7FEFF 		bl	YM_IC_Write
 470              	.LVL25:
 357:main.c        ****   CyDelay(10);  
 358:main.c        ****   // Silence channel-0 to channel-6
 359:main.c        ****   //for (uint8_t ch = 0; ch <= 6; ++ch)
 360:main.c        ****   //  ym2612_write(0x28, ch, 0);
 361:main.c        **** }
 471              		.loc 1 361 0
 472 0014 BDE80840 		pop	{r3, lr}
 473              		.cfi_restore 14
 474              		.cfi_restore 3
 475              		.cfi_def_cfa_offset 0
 357:main.c        ****   CyDelay(10);  
 476              		.loc 1 357 0
 477 0018 0A20     		movs	r0, #10
 478 001a FFF7FEBF 		b	CyDelay
 479              	.LVL26:
 480              		.cfi_endproc
 481              	.LFE70:
 482              		.size	ym2612_reset, .-ym2612_reset
 483 001e 00BF     		.section	.text.ym2612_init,"ax",%progbits
 484              		.align	2
 485              		.global	ym2612_init
 486              		.thumb
 487              		.thumb_func
 488              		.type	ym2612_init, %function
 489              	ym2612_init:
 490              	.LFB71:
 362:main.c        **** 
 363:main.c        **** void ym2612_init (void)
 364:main.c        **** {
 491              		.loc 1 364 0
 492              		.cfi_startproc
 493              		@ args = 0, pretend = 0, frame = 0
 494              		@ frame_needed = 0, uses_anonymous_args = 0
 495 0000 08B5     		push	{r3, lr}
 496              		.cfi_def_cfa_offset 8
 497              		.cfi_offset 3, -8
 498              		.cfi_offset 14, -4
 365:main.c        ****   YM_CS_Write(1);
 499              		.loc 1 365 0
 500 0002 0120     		movs	r0, #1
 501 0004 FFF7FEFF 		bl	YM_CS_Write
 502              	.LVL27:
 366:main.c        ****   YM_WR_Write(1);
ARM GAS  C:\Users\ingan\AppData\Local\Temp\ccs0tsbL.s 			page 17


 503              		.loc 1 366 0
 504 0008 0120     		movs	r0, #1
 505 000a FFF7FEFF 		bl	YM_WR_Write
 506              	.LVL28:
 367:main.c        ****   YM_RD_Write(1);
 507              		.loc 1 367 0
 508 000e 0120     		movs	r0, #1
 509 0010 FFF7FEFF 		bl	YM_RD_Write
 510              	.LVL29:
 368:main.c        ****   YM_IC_Write(1);
 511              		.loc 1 368 0
 512 0014 0120     		movs	r0, #1
 513 0016 FFF7FEFF 		bl	YM_IC_Write
 514              	.LVL30:
 369:main.c        ****   YM_A0_Write(0);
 515              		.loc 1 369 0
 516 001a 0020     		movs	r0, #0
 517 001c FFF7FEFF 		bl	YM_A0_Write
 518              	.LVL31:
 370:main.c        ****   YM_A1_Write(0);
 519              		.loc 1 370 0
 520 0020 0020     		movs	r0, #0
 521 0022 FFF7FEFF 		bl	YM_A1_Write
 522              	.LVL32:
 371:main.c        ****   YM_Data_Write(0xff);
 372:main.c        **** }
 523              		.loc 1 372 0
 524 0026 BDE80840 		pop	{r3, lr}
 525              		.cfi_restore 14
 526              		.cfi_restore 3
 527              		.cfi_def_cfa_offset 0
 371:main.c        ****   YM_Data_Write(0xff);
 528              		.loc 1 371 0
 529 002a FF20     		movs	r0, #255
 530 002c FFF7FEBF 		b	YM_Data_Write
 531              	.LVL33:
 532              		.cfi_endproc
 533              	.LFE71:
 534              		.size	ym2612_init, .-ym2612_init
 535              		.section	.text.SilenceAllChannels,"ax",%progbits
 536              		.align	2
 537              		.global	SilenceAllChannels
 538              		.thumb
 539              		.thumb_func
 540              		.type	SilenceAllChannels, %function
 541              	SilenceAllChannels:
 542              	.LFB72:
 373:main.c        **** 
 374:main.c        **** void SilenceAllChannels()
 375:main.c        **** {  
 543              		.loc 1 375 0
 544              		.cfi_startproc
 545              		@ args = 0, pretend = 0, frame = 0
 546              		@ frame_needed = 0, uses_anonymous_args = 0
 547              	.LVL34:
 548 0000 08B5     		push	{r3, lr}
 549              		.cfi_def_cfa_offset 8
ARM GAS  C:\Users\ingan\AppData\Local\Temp\ccs0tsbL.s 			page 18


 550              		.cfi_offset 3, -8
 551              		.cfi_offset 14, -4
 552              	.LBB32:
 553              	.LBB33:
 341:main.c        ****   YM_Data_Write(data);
 554              		.loc 1 341 0
 555 0002 0120     		movs	r0, #1
 556 0004 FFF7FEFF 		bl	SN_WE_Write
 557              	.LVL35:
 342:main.c        ****   SN_WE_Write(0);
 558              		.loc 1 342 0
 559 0008 9F20     		movs	r0, #159
 560 000a FFF7FEFF 		bl	YM_Data_Write
 561              	.LVL36:
 343:main.c        ****   //CyDelayCycles(1);
 562              		.loc 1 343 0
 563 000e 0020     		movs	r0, #0
 564 0010 FFF7FEFF 		bl	SN_WE_Write
 565              	.LVL37:
 345:main.c        ****   SN_WE_Write(1);
 566              		.loc 1 345 0
 567 0014 0A20     		movs	r0, #10
 568 0016 FFF7FEFF 		bl	CyDelayUs
 569              	.LVL38:
 346:main.c        **** }
 570              		.loc 1 346 0
 571 001a 0120     		movs	r0, #1
 572 001c FFF7FEFF 		bl	SN_WE_Write
 573              	.LVL39:
 574              	.LBE33:
 575              	.LBE32:
 576              	.LBB34:
 577              	.LBB35:
 341:main.c        ****   YM_Data_Write(data);
 578              		.loc 1 341 0
 579 0020 0120     		movs	r0, #1
 580 0022 FFF7FEFF 		bl	SN_WE_Write
 581              	.LVL40:
 342:main.c        ****   SN_WE_Write(0);
 582              		.loc 1 342 0
 583 0026 BF20     		movs	r0, #191
 584 0028 FFF7FEFF 		bl	YM_Data_Write
 585              	.LVL41:
 343:main.c        ****   //CyDelayCycles(1);
 586              		.loc 1 343 0
 587 002c 0020     		movs	r0, #0
 588 002e FFF7FEFF 		bl	SN_WE_Write
 589              	.LVL42:
 345:main.c        ****   SN_WE_Write(1);
 590              		.loc 1 345 0
 591 0032 0A20     		movs	r0, #10
 592 0034 FFF7FEFF 		bl	CyDelayUs
 593              	.LVL43:
 346:main.c        **** }
 594              		.loc 1 346 0
 595 0038 0120     		movs	r0, #1
 596 003a FFF7FEFF 		bl	SN_WE_Write
ARM GAS  C:\Users\ingan\AppData\Local\Temp\ccs0tsbL.s 			page 19


 597              	.LVL44:
 598              	.LBE35:
 599              	.LBE34:
 600              	.LBB36:
 601              	.LBB37:
 341:main.c        ****   YM_Data_Write(data);
 602              		.loc 1 341 0
 603 003e 0120     		movs	r0, #1
 604 0040 FFF7FEFF 		bl	SN_WE_Write
 605              	.LVL45:
 342:main.c        ****   SN_WE_Write(0);
 606              		.loc 1 342 0
 607 0044 DF20     		movs	r0, #223
 608 0046 FFF7FEFF 		bl	YM_Data_Write
 609              	.LVL46:
 343:main.c        ****   //CyDelayCycles(1);
 610              		.loc 1 343 0
 611 004a 0020     		movs	r0, #0
 612 004c FFF7FEFF 		bl	SN_WE_Write
 613              	.LVL47:
 345:main.c        ****   SN_WE_Write(1);
 614              		.loc 1 345 0
 615 0050 0A20     		movs	r0, #10
 616 0052 FFF7FEFF 		bl	CyDelayUs
 617              	.LVL48:
 346:main.c        **** }
 618              		.loc 1 346 0
 619 0056 0120     		movs	r0, #1
 620 0058 FFF7FEFF 		bl	SN_WE_Write
 621              	.LVL49:
 622              	.LBE37:
 623              	.LBE36:
 624              	.LBB38:
 625              	.LBB39:
 341:main.c        ****   YM_Data_Write(data);
 626              		.loc 1 341 0
 627 005c 0120     		movs	r0, #1
 628 005e FFF7FEFF 		bl	SN_WE_Write
 629              	.LVL50:
 342:main.c        ****   SN_WE_Write(0);
 630              		.loc 1 342 0
 631 0062 FF20     		movs	r0, #255
 632 0064 FFF7FEFF 		bl	YM_Data_Write
 633              	.LVL51:
 343:main.c        ****   //CyDelayCycles(1);
 634              		.loc 1 343 0
 635 0068 0020     		movs	r0, #0
 636 006a FFF7FEFF 		bl	SN_WE_Write
 637              	.LVL52:
 345:main.c        ****   SN_WE_Write(1);
 638              		.loc 1 345 0
 639 006e 0A20     		movs	r0, #10
 640 0070 FFF7FEFF 		bl	CyDelayUs
 641              	.LVL53:
 346:main.c        **** }
 642              		.loc 1 346 0
 643 0074 0120     		movs	r0, #1
ARM GAS  C:\Users\ingan\AppData\Local\Temp\ccs0tsbL.s 			page 20


 644 0076 FFF7FEFF 		bl	SN_WE_Write
 645              	.LVL54:
 646              	.LBE39:
 647              	.LBE38:
 648              	.LBB40:
 649              	.LBB41:
 365:main.c        ****   YM_WR_Write(1);
 650              		.loc 1 365 0
 651 007a 0120     		movs	r0, #1
 652 007c FFF7FEFF 		bl	YM_CS_Write
 653              	.LVL55:
 366:main.c        ****   YM_RD_Write(1);
 654              		.loc 1 366 0
 655 0080 0120     		movs	r0, #1
 656 0082 FFF7FEFF 		bl	YM_WR_Write
 657              	.LVL56:
 367:main.c        ****   YM_IC_Write(1);
 658              		.loc 1 367 0
 659 0086 0120     		movs	r0, #1
 660 0088 FFF7FEFF 		bl	YM_RD_Write
 661              	.LVL57:
 368:main.c        ****   YM_A0_Write(0);
 662              		.loc 1 368 0
 663 008c 0120     		movs	r0, #1
 664 008e FFF7FEFF 		bl	YM_IC_Write
 665              	.LVL58:
 369:main.c        ****   YM_A1_Write(0);
 666              		.loc 1 369 0
 667 0092 0020     		movs	r0, #0
 668 0094 FFF7FEFF 		bl	YM_A0_Write
 669              	.LVL59:
 370:main.c        ****   YM_Data_Write(0xff);
 670              		.loc 1 370 0
 671 0098 0020     		movs	r0, #0
 672 009a FFF7FEFF 		bl	YM_A1_Write
 673              	.LVL60:
 371:main.c        **** }
 674              		.loc 1 371 0
 675 009e FF20     		movs	r0, #255
 676 00a0 FFF7FEFF 		bl	YM_Data_Write
 677              	.LVL61:
 678              	.LBE41:
 679              	.LBE40:
 680              	.LBB42:
 681              	.LBB43:
 354:main.c        ****   CyDelay(10);
 682              		.loc 1 354 0
 683 00a4 0020     		movs	r0, #0
 684 00a6 FFF7FEFF 		bl	YM_IC_Write
 685              	.LVL62:
 355:main.c        ****   YM_IC_Write(1);
 686              		.loc 1 355 0
 687 00aa 0A20     		movs	r0, #10
 688 00ac FFF7FEFF 		bl	CyDelay
 689              	.LVL63:
 356:main.c        ****   CyDelay(10);  
 690              		.loc 1 356 0
ARM GAS  C:\Users\ingan\AppData\Local\Temp\ccs0tsbL.s 			page 21


 691 00b0 0120     		movs	r0, #1
 692 00b2 FFF7FEFF 		bl	YM_IC_Write
 693              	.LVL64:
 694              	.LBE43:
 695              	.LBE42:
 376:main.c        ****   sn76489_write(0x9f);
 377:main.c        ****   sn76489_write(0xbf);
 378:main.c        ****   sn76489_write(0xdf);
 379:main.c        ****   sn76489_write(0xff);
 380:main.c        **** 
 381:main.c        ****   ym2612_init();
 382:main.c        ****   ym2612_reset();
 383:main.c        **** }
 696              		.loc 1 383 0
 697 00b6 BDE80840 		pop	{r3, lr}
 698              		.cfi_restore 14
 699              		.cfi_restore 3
 700              		.cfi_def_cfa_offset 0
 701              	.LBB45:
 702              	.LBB44:
 357:main.c        ****   // Silence channel-0 to channel-6
 703              		.loc 1 357 0
 704 00ba 0A20     		movs	r0, #10
 705 00bc FFF7FEBF 		b	CyDelay
 706              	.LVL65:
 707              	.LBE44:
 708              	.LBE45:
 709              		.cfi_endproc
 710              	.LFE72:
 711              		.size	SilenceAllChannels, .-SilenceAllChannels
 712              		.section	.text.init_hardware,"ax",%progbits
 713              		.align	2
 714              		.global	init_hardware
 715              		.thumb
 716              		.thumb_func
 717              		.type	init_hardware, %function
 718              	init_hardware:
 719              	.LFB66:
 257:main.c        ****     SilenceAllChannels();
 720              		.loc 1 257 0
 721              		.cfi_startproc
 722              		@ args = 0, pretend = 0, frame = 0
 723              		@ frame_needed = 0, uses_anonymous_args = 0
 724 0000 08B5     		push	{r3, lr}
 725              		.cfi_def_cfa_offset 8
 726              		.cfi_offset 3, -8
 727              		.cfi_offset 14, -4
 258:main.c        ****     CyGlobalIntEnable; /* Enable global interrupts. */
 728              		.loc 1 258 0
 729 0002 FFF7FEFF 		bl	SilenceAllChannels
 730              	.LVL66:
 259:main.c        **** 
 731              		.loc 1 259 0
 732              		.syntax unified
 733              	@ 259 "main.c" 1
 734 0006 62B6     		CPSIE   i
 735              	@ 0 "" 2
ARM GAS  C:\Users\ingan\AppData\Local\Temp\ccs0tsbL.s 			page 22


 262:main.c        **** 
 736              		.loc 1 262 0
 737              		.thumb
 738              		.syntax unified
 739 0008 BDE80840 		pop	{r3, lr}
 740              		.cfi_restore 14
 741              		.cfi_restore 3
 742              		.cfi_def_cfa_offset 0
 261:main.c        **** }
 743              		.loc 1 261 0
 744 000c FFF7FEBF 		b	tty_init
 745              	.LVL67:
 746              		.cfi_endproc
 747              	.LFE66:
 748              		.size	init_hardware, .-init_hardware
 749              		.section	.text.startup.main,"ax",%progbits
 750              		.align	2
 751              		.global	main
 752              		.thumb
 753              		.thumb_func
 754              		.type	main, %function
 755              	main:
 756              	.LFB65:
  51:main.c        **** 
 757              		.loc 1 51 0
 758              		.cfi_startproc
 759              		@ args = 0, pretend = 0, frame = 0
 760              		@ frame_needed = 0, uses_anonymous_args = 0
 761              	.LVL68:
 762 0000 10B5     		push	{r4, lr}
 763              		.cfi_def_cfa_offset 8
 764              		.cfi_offset 4, -8
 765              		.cfi_offset 14, -4
 766              	.LBB46:
 767              	.LBB47:
 258:main.c        ****     CyGlobalIntEnable; /* Enable global interrupts. */
 768              		.loc 1 258 0
 769 0002 FFF7FEFF 		bl	SilenceAllChannels
 770              	.LVL69:
 259:main.c        **** 
 771              		.loc 1 259 0
 772              		.syntax unified
 773              	@ 259 "main.c" 1
 774 0006 62B6     		CPSIE   i
 775              	@ 0 "" 2
 261:main.c        **** }
 776              		.loc 1 261 0
 777              		.thumb
 778              		.syntax unified
 779 0008 FFF7FEFF 		bl	tty_init
 780              	.LVL70:
 781              	.LBE47:
 782              	.LBE46:
  60:main.c        ****     //splash("USBFS-UART demo") ;
 783              		.loc 1 60 0
 784 000c 0A48     		ldr	r0, .L34
 785 000e FFF7FEFF 		bl	isr_1_StartEx
ARM GAS  C:\Users\ingan\AppData\Local\Temp\ccs0tsbL.s 			page 23


 786              	.LVL71:
 787              	.L27:
  65:main.c        ****     {
 788              		.loc 1 65 0 discriminator 1
 789 0012 FFF7FEFF 		bl	USBUART_CDCIsReady
 790              	.LVL72:
 791 0016 0028     		cmp	r0, #0
 792 0018 FBD0     		beq	.L27
 793 001a 084C     		ldr	r4, .L34+4
  68:main.c        ****     // fill 1st buffer
 794              		.loc 1 68 0
 795 001c 0848     		ldr	r0, .L34+8
 796 001e FFF7FEFF 		bl	USBUART_PutString
 797              	.LVL73:
  70:main.c        ****     while (!rx_flag);
 798              		.loc 1 70 0
 799 0022 084A     		ldr	r2, .L34+12
 800 0024 0848     		ldr	r0, .L34+16
 801 0026 2378     		ldrb	r3, [r4]	@ zero_extendqisi2
 802 0028 1060     		str	r0, [r2]
 803 002a 03B9     		cbnz	r3, .L28
 804              	.L29:
 805 002c FEE7     		b	.L29
 806              	.L28:
  72:main.c        ****     count_vgm = count_incoming;
 807              		.loc 1 72 0
 808 002e FFF7FEFF 		bl	USBUART_GetAll
 809              	.LVL74:
  74:main.c        ****     // fill 2nd buffer
 810              		.loc 1 74 0
 811 0032 0023     		movs	r3, #0
 812 0034 2370     		strb	r3, [r4]
 813              	.L30:
 814 0036 FEE7     		b	.L30
 815              	.L35:
 816              		.align	2
 817              	.L34:
 818 0038 00000000 		.word	sampleRateIRQ
 819 003c 00000000 		.word	rx_flag
 820 0040 00000000 		.word	.LANCHOR1
 821 0044 00000000 		.word	bufPtr
 822 0048 00000000 		.word	buffer
 823              		.cfi_endproc
 824              	.LFE65:
 825              		.size	main, .-main
 826              		.comm	volatile_reg_val_0,4,4
 827              		.comm	volatile_reg_val_1,4,4
 828              		.global	test
 829              		.global	isrFlag
 830              		.global	WaitTime
 831              		.global	k
 832              		.global	j
 833              		.global	i
 834              		.comm	VGMPtr,4,4
 835              		.section	.rodata
 836              		.align	2
 837              		.set	.LANCHOR1,. + 0
ARM GAS  C:\Users\ingan\AppData\Local\Temp\ccs0tsbL.s 			page 24


 838              	.LC0:
 839 0000 0000     		.ascii	"\000\000"
 840              		.bss
 841              		.align	2
 842              		.set	.LANCHOR0,. + 0
 843              		.type	isrFlag, %object
 844              		.size	isrFlag, 1
 845              	isrFlag:
 846 0000 00       		.space	1
 847 0001 000000   		.space	3
 848              		.type	test, %object
 849              		.size	test, 4
 850              	test:
 851 0004 00000000 		.space	4
 852              		.type	WaitTime, %object
 853              		.size	WaitTime, 2
 854              	WaitTime:
 855 0008 0000     		.space	2
 856              		.type	k, %object
 857              		.size	k, 1
 858              	k:
 859 000a 00       		.space	1
 860              		.type	j, %object
 861              		.size	j, 1
 862              	j:
 863 000b 00       		.space	1
 864              		.type	i, %object
 865              		.size	i, 1
 866              	i:
 867 000c 00       		.space	1
 868              		.text
 869              	.Letext0:
 870              		.file 2 "c:\\program files (x86)\\cypress\\psoc creator\\4.2\\psoc creator\\import\\gnu\\arm\\5.4.
 871              		.file 3 "c:\\program files (x86)\\cypress\\psoc creator\\4.2\\psoc creator\\import\\gnu\\arm\\5.4.
 872              		.file 4 "Generated_Source\\PSoC5/cytypes.h"
 873              		.file 5 "Generated_Source\\PSoC5/core_cm3.h"
 874              		.file 6 "Generated_Source\\PSoC5/CyLib.h"
 875              		.file 7 "Generated_Source\\PSoC5/SN_WE.h"
 876              		.file 8 "Generated_Source\\PSoC5/YM_Data.h"
 877              		.file 9 "Generated_Source\\PSoC5/YM_IC.h"
 878              		.file 10 "Generated_Source\\PSoC5/YM_CS.h"
 879              		.file 11 "Generated_Source\\PSoC5/YM_WR.h"
 880              		.file 12 "Generated_Source\\PSoC5/YM_RD.h"
 881              		.file 13 "Generated_Source\\PSoC5/YM_A0.h"
 882              		.file 14 "Generated_Source\\PSoC5/YM_A1.h"
 883              		.file 15 "tty_utils.h"
 884              		.file 16 "Generated_Source\\PSoC5/isr_1.h"
 885              		.file 17 "Generated_Source\\PSoC5/USBUART_cdc.h"