ARM GAS  C:\Users\ingan\AppData\Local\Temp\ccYg6HS2.s 			page 1


   1              		.syntax unified
   2              		.cpu cortex-m3
   3              		.fpu softvfp
   4              		.eabi_attribute 20, 1
   5              		.eabi_attribute 21, 1
   6              		.eabi_attribute 23, 3
   7              		.eabi_attribute 24, 1
   8              		.eabi_attribute 25, 1
   9              		.eabi_attribute 26, 1
  10              		.eabi_attribute 30, 2
  11              		.eabi_attribute 34, 1
  12              		.eabi_attribute 18, 4
  13              		.thumb
  14              		.syntax unified
  15              		.file	"usb_uart.c"
  16              		.text
  17              	.Ltext0:
  18              		.cfi_sections	.debug_frame
  19              		.section	.text.usbuart_init,"ax",%progbits
  20              		.align	2
  21              		.global	usbuart_init
  22              		.thumb
  23              		.thumb_func
  24              		.type	usbuart_init, %function
  25              	usbuart_init:
  26              	.LFB64:
  27              		.file 1 "usb_uart.c"
   1:usb_uart.c    **** /*
   2:usb_uart.c    **** *   This is an implementation of the USBFS CDC - USBUART using 
   3:usb_uart.c    **** *   endpoint interrupts with no additional self defined clock 
   4:usb_uart.c    **** *   interrupt to check USBUART buffer. 
   5:usb_uart.c    **** *   In topdesign, the USBFS has been selected in 
   6:usb_uart.c    **** *   Descriptor root:Device Descriptor:Device Class as 0x02 CDC 
   7:usb_uart.c    **** *   In Descriptor root, endpoint buffer management is 
   8:usb_uart.c    **** *   defined as manual(static allocation), EP 2 direction as IN, 
   9:usb_uart.c    **** *   but is a send point, EP3 direction as out, but a receive point. All settings
  10:usb_uart.c    **** *   are default when select Device Class as 0x02 CDC
  11:usb_uart.c    **** *   THESE IMPLEMENTIONS ARE EXPERIMENTAL, MAY DEPENDED ON THE DEVICE FAMILY
  12:usb_uart.c    **** */
  13:usb_uart.c    **** #include "project.h"
  14:usb_uart.c    **** #include "stdio.h"
  15:usb_uart.c    **** #include "usb_uart.h"
  16:usb_uart.c    **** #include "usbuart.h"
  17:usb_uart.c    **** #include "tty_utils.h"
  18:usb_uart.c    **** 
  19:usb_uart.c    **** uint16_t count;
  20:usb_uart.c    **** uint8_t buffer[2][USBUART_BUFFER_SIZE];
  21:usb_uart.c    **** uint8_t* bufPtr = buffer[0];
  22:usb_uart.c    **** uint8_t rx_flag = 0;
  23:usb_uart.c    **** uint8_t goFlag = 0;
  24:usb_uart.c    **** //uint8_t received[1000];
  25:usb_uart.c    **** //uint8_t *ptr = received;
  26:usb_uart.c    **** //uint8_t received[64];
  27:usb_uart.c    **** 
  28:usb_uart.c    **** char* EP3 = "USBUart EP 3 ISR Exit Callback ";
  29:usb_uart.c    **** char* EP1 = "USBUart EP 1 ISR Exit Callback ";
  30:usb_uart.c    **** 
ARM GAS  C:\Users\ingan\AppData\Local\Temp\ccYg6HS2.s 			page 2


  31:usb_uart.c    **** void usbuart_init(void)
  32:usb_uart.c    **** {
  28              		.loc 1 32 0
  29              		.cfi_startproc
  30              		@ args = 0, pretend = 0, frame = 0
  31              		@ frame_needed = 0, uses_anonymous_args = 0
  32 0000 08B5     		push	{r3, lr}
  33              		.cfi_def_cfa_offset 8
  34              		.cfi_offset 3, -8
  35              		.cfi_offset 14, -4
  33:usb_uart.c    ****     /* Start USBFS operation with 5-V operation. */
  34:usb_uart.c    ****     USBUART_Start(USBFS_DEVICE, USBUART_5V_OPERATION);
  36              		.loc 1 34 0
  37 0002 0121     		movs	r1, #1
  38 0004 0020     		movs	r0, #0
  39 0006 FFF7FEFF 		bl	USBUART_Start
  40              	.LVL0:
  35:usb_uart.c    ****     /* Host can send double SET_INTERFACE request. */
  36:usb_uart.c    ****     if (0u != USBUART_IsConfigurationChanged())
  41              		.loc 1 36 0
  42 000a FFF7FEFF 		bl	USBUART_IsConfigurationChanged
  43              	.LVL1:
  44 000e 00B9     		cbnz	r0, .L10
  45              	.L1:
  46 0010 08BD     		pop	{r3, pc}
  47              	.L10:
  37:usb_uart.c    ****     {
  38:usb_uart.c    ****         /* Initialize IN endpoints when device is configured. */
  39:usb_uart.c    ****         if (0u != USBUART_GetConfiguration())
  48              		.loc 1 39 0
  49 0012 FFF7FEFF 		bl	USBUART_GetConfiguration
  50              	.LVL2:
  51 0016 0028     		cmp	r0, #0
  52 0018 FAD0     		beq	.L1
  40:usb_uart.c    ****         {
  41:usb_uart.c    ****             /* Enumeration is done, enable OUT endpoint to receive data 
  42:usb_uart.c    ****              * from host. */
  43:usb_uart.c    ****             USBUART_CDC_Init();
  44:usb_uart.c    ****         }
  45:usb_uart.c    ****     }
  46:usb_uart.c    **** }
  53              		.loc 1 46 0
  54 001a BDE80840 		pop	{r3, lr}
  55              		.cfi_restore 14
  56              		.cfi_restore 3
  57              		.cfi_def_cfa_offset 0
  43:usb_uart.c    ****         }
  58              		.loc 1 43 0
  59 001e FFF7FEBF 		b	USBUART_CDC_Init
  60              	.LVL3:
  61              		.cfi_endproc
  62              	.LFE64:
  63              		.size	usbuart_init, .-usbuart_init
  64 0022 00BF     		.section	.text.USBUART_EP_2_ISR_EntryCallback,"ax",%progbits
  65              		.align	2
  66              		.global	USBUART_EP_2_ISR_EntryCallback
  67              		.thumb
ARM GAS  C:\Users\ingan\AppData\Local\Temp\ccYg6HS2.s 			page 3


  68              		.thumb_func
  69              		.type	USBUART_EP_2_ISR_EntryCallback, %function
  70              	USBUART_EP_2_ISR_EntryCallback:
  71              	.LFB65:
  47:usb_uart.c    **** /*
  48:usb_uart.c    **** *   After tryouts of the usbfs endpoints, for CDC, these are the interrupts that were
  49:usb_uart.c    **** *   enabled by "system" in generated code. And for EP 2 is a sending endpoint, EP 3 is 
  50:usb_uart.c    **** *   a receiving endpoint.
  51:usb_uart.c    **** */
  52:usb_uart.c    **** /*
  53:usb_uart.c    **** *   In cyapicallbacks.h defined enabling of USBUART_EP_2_ISR_EntryCallback,
  54:usb_uart.c    **** *   this is the call back function
  55:usb_uart.c    **** */
  56:usb_uart.c    **** void USBUART_EP_2_ISR_EntryCallback(void)
  57:usb_uart.c    **** {
  72              		.loc 1 57 0
  73              		.cfi_startproc
  74              		@ args = 0, pretend = 0, frame = 0
  75              		@ frame_needed = 0, uses_anonymous_args = 0
  76 0000 08B5     		push	{r3, lr}
  77              		.cfi_def_cfa_offset 8
  78              		.cfi_offset 3, -8
  79              		.cfi_offset 14, -4
  58:usb_uart.c    ****     if (0u != USBUART_IsConfigurationChanged())
  80              		.loc 1 58 0
  81 0002 FFF7FEFF 		bl	USBUART_IsConfigurationChanged
  82              	.LVL4:
  83 0006 00B9     		cbnz	r0, .L19
  84              	.L11:
  85 0008 08BD     		pop	{r3, pc}
  86              	.L19:
  59:usb_uart.c    ****     {
  60:usb_uart.c    ****         /* Initialize IN endpoints when device is configured. */
  61:usb_uart.c    ****         if (0u != USBUART_GetConfiguration())
  87              		.loc 1 61 0
  88 000a FFF7FEFF 		bl	USBUART_GetConfiguration
  89              	.LVL5:
  90 000e 0028     		cmp	r0, #0
  91 0010 FAD0     		beq	.L11
  62:usb_uart.c    ****         {
  63:usb_uart.c    ****             /* Enumeration is done, enable OUT endpoint to receive data 
  64:usb_uart.c    ****              * from host. */
  65:usb_uart.c    ****             USBUART_CDC_Init();
  66:usb_uart.c    ****         }
  67:usb_uart.c    ****     }
  68:usb_uart.c    **** }
  92              		.loc 1 68 0
  93 0012 BDE80840 		pop	{r3, lr}
  94              		.cfi_restore 14
  95              		.cfi_restore 3
  96              		.cfi_def_cfa_offset 0
  65:usb_uart.c    ****         }
  97              		.loc 1 65 0
  98 0016 FFF7FEBF 		b	USBUART_CDC_Init
  99              	.LVL6:
 100              		.cfi_endproc
 101              	.LFE65:
ARM GAS  C:\Users\ingan\AppData\Local\Temp\ccYg6HS2.s 			page 4


 102              		.size	USBUART_EP_2_ISR_EntryCallback, .-USBUART_EP_2_ISR_EntryCallback
 103 001a 00BF     		.section	.text.USBUART_EP_3_ISR_ExitCallback,"ax",%progbits
 104              		.align	2
 105              		.global	USBUART_EP_3_ISR_ExitCallback
 106              		.thumb
 107              		.thumb_func
 108              		.type	USBUART_EP_3_ISR_ExitCallback, %function
 109              	USBUART_EP_3_ISR_ExitCallback:
 110              	.LFB66:
  69:usb_uart.c    **** 
  70:usb_uart.c    **** /*
  71:usb_uart.c    **** *   In cyapicallbacks.h defined enabling of USBUART_EP_3_ISR_ExitCallback,
  72:usb_uart.c    **** *   this is the call back function
  73:usb_uart.c    **** */
  74:usb_uart.c    **** void USBUART_EP_3_ISR_ExitCallback(void)
  75:usb_uart.c    **** {
 111              		.loc 1 75 0
 112              		.cfi_startproc
 113              		@ args = 0, pretend = 0, frame = 0
 114              		@ frame_needed = 0, uses_anonymous_args = 0
 115 0000 08B5     		push	{r3, lr}
 116              		.cfi_def_cfa_offset 8
 117              		.cfi_offset 3, -8
 118              		.cfi_offset 14, -4
  76:usb_uart.c    ****     /* Service USB CDC when device is configured. */
  77:usb_uart.c    ****     if (0u != USBUART_GetConfiguration())
 119              		.loc 1 77 0
 120 0002 FFF7FEFF 		bl	USBUART_GetConfiguration
 121              	.LVL7:
 122 0006 00B9     		cbnz	r0, .L28
 123              	.L20:
 124 0008 08BD     		pop	{r3, pc}
 125              	.L28:
  78:usb_uart.c    ****     {
  79:usb_uart.c    ****         /* Check for input data from host. */
  80:usb_uart.c    ****         if (0u != USBUART_DataIsReady())
 126              		.loc 1 80 0
 127 000a FFF7FEFF 		bl	USBUART_DataIsReady
 128              	.LVL8:
 129 000e 0028     		cmp	r0, #0
 130 0010 FAD0     		beq	.L20
  81:usb_uart.c    ****         {
  82:usb_uart.c    ****                 /* Read received data and re-enable OUT endpoint. */
  83:usb_uart.c    ****                 //count = USBUART_GetAll(bufPtr);
  84:usb_uart.c    ****                 rx_flag = 1;
 131              		.loc 1 84 0
 132 0012 024B     		ldr	r3, .L29
 133 0014 0122     		movs	r2, #1
 134 0016 1A70     		strb	r2, [r3]
 135 0018 08BD     		pop	{r3, pc}
 136              	.L30:
 137 001a 00BF     		.align	2
 138              	.L29:
 139 001c 00000000 		.word	.LANCHOR0
 140              		.cfi_endproc
 141              	.LFE66:
 142              		.size	USBUART_EP_3_ISR_ExitCallback, .-USBUART_EP_3_ISR_ExitCallback
ARM GAS  C:\Users\ingan\AppData\Local\Temp\ccYg6HS2.s 			page 5


 143              		.section	.text.usbuart_putstring,"ax",%progbits
 144              		.align	2
 145              		.global	usbuart_putstring
 146              		.thumb
 147              		.thumb_func
 148              		.type	usbuart_putstring, %function
 149              	usbuart_putstring:
 150              	.LFB67:
  85:usb_uart.c    ****         }
  86:usb_uart.c    ****     }
  87:usb_uart.c    **** }
  88:usb_uart.c    **** 
  89:usb_uart.c    **** void usbuart_putstring(char *str)
  90:usb_uart.c    **** {
 151              		.loc 1 90 0
 152              		.cfi_startproc
 153              		@ args = 0, pretend = 0, frame = 0
 154              		@ frame_needed = 0, uses_anonymous_args = 0
 155              	.LVL9:
 156 0000 10B5     		push	{r4, lr}
 157              		.cfi_def_cfa_offset 8
 158              		.cfi_offset 4, -8
 159              		.cfi_offset 14, -4
 160 0002 0446     		mov	r4, r0
 161              	.LVL10:
 162              	.L32:
  91:usb_uart.c    ****     /* Wait until component is ready to send data to host. */
  92:usb_uart.c    ****     while (0u == USBUART_CDCIsReady())
 163              		.loc 1 92 0 discriminator 1
 164 0004 FFF7FEFF 		bl	USBUART_CDCIsReady
 165              	.LVL11:
 166 0008 0028     		cmp	r0, #0
 167 000a FBD0     		beq	.L32
  93:usb_uart.c    ****     {
  94:usb_uart.c    ****     }
  95:usb_uart.c    ****     USBUART_PutString(str);
 168              		.loc 1 95 0
 169 000c 2046     		mov	r0, r4
  96:usb_uart.c    **** }
 170              		.loc 1 96 0
 171 000e BDE81040 		pop	{r4, lr}
 172              		.cfi_restore 14
 173              		.cfi_restore 4
 174              		.cfi_def_cfa_offset 0
 175              	.LVL12:
  95:usb_uart.c    **** }
 176              		.loc 1 95 0
 177 0012 FFF7FEBF 		b	USBUART_PutString
 178              	.LVL13:
 179              		.cfi_endproc
 180              	.LFE67:
 181              		.size	usbuart_putstring, .-usbuart_putstring
 182 0016 00BF     		.section	.text.usbuart_puteol,"ax",%progbits
 183              		.align	2
 184              		.global	usbuart_puteol
 185              		.thumb
 186              		.thumb_func
ARM GAS  C:\Users\ingan\AppData\Local\Temp\ccYg6HS2.s 			page 6


 187              		.type	usbuart_puteol, %function
 188              	usbuart_puteol:
 189              	.LFB68:
  97:usb_uart.c    **** 
  98:usb_uart.c    **** void usbuart_puteol(void)
  99:usb_uart.c    **** {
 190              		.loc 1 99 0
 191              		.cfi_startproc
 192              		@ args = 0, pretend = 0, frame = 0
 193              		@ frame_needed = 0, uses_anonymous_args = 0
 194 0000 08B5     		push	{r3, lr}
 195              		.cfi_def_cfa_offset 8
 196              		.cfi_offset 3, -8
 197              		.cfi_offset 14, -4
 198              	.L37:
 100:usb_uart.c    ****     /* Wait until component is ready to send data to host. */
 101:usb_uart.c    ****     while (0u == USBUART_CDCIsReady())
 199              		.loc 1 101 0 discriminator 1
 200 0002 FFF7FEFF 		bl	USBUART_CDCIsReady
 201              	.LVL14:
 202 0006 0028     		cmp	r0, #0
 203 0008 FBD0     		beq	.L37
 102:usb_uart.c    ****     {
 103:usb_uart.c    ****     }
 104:usb_uart.c    ****     USBUART_PutCRLF() ;
 105:usb_uart.c    **** }
 204              		.loc 1 105 0
 205 000a BDE80840 		pop	{r3, lr}
 206              		.cfi_restore 14
 207              		.cfi_restore 3
 208              		.cfi_def_cfa_offset 0
 104:usb_uart.c    **** }
 209              		.loc 1 104 0
 210 000e FFF7FEBF 		b	USBUART_PutCRLF
 211              	.LVL15:
 212              		.cfi_endproc
 213              	.LFE68:
 214              		.size	usbuart_puteol, .-usbuart_puteol
 215 0012 00BF     		.section	.text.usbuart_putchar,"ax",%progbits
 216              		.align	2
 217              		.global	usbuart_putchar
 218              		.thumb
 219              		.thumb_func
 220              		.type	usbuart_putchar, %function
 221              	usbuart_putchar:
 222              	.LFB69:
 106:usb_uart.c    **** 
 107:usb_uart.c    **** void usbuart_putchar(char c)
 108:usb_uart.c    **** {
 223              		.loc 1 108 0
 224              		.cfi_startproc
 225              		@ args = 0, pretend = 0, frame = 0
 226              		@ frame_needed = 0, uses_anonymous_args = 0
 227              	.LVL16:
 228 0000 10B5     		push	{r4, lr}
 229              		.cfi_def_cfa_offset 8
 230              		.cfi_offset 4, -8
ARM GAS  C:\Users\ingan\AppData\Local\Temp\ccYg6HS2.s 			page 7


 231              		.cfi_offset 14, -4
 232 0002 0446     		mov	r4, r0
 233              	.LVL17:
 234              	.L42:
 109:usb_uart.c    ****     /* Wait until component is ready to send data to host. */
 110:usb_uart.c    ****     while (0u == USBUART_CDCIsReady())
 235              		.loc 1 110 0 discriminator 1
 236 0004 FFF7FEFF 		bl	USBUART_CDCIsReady
 237              	.LVL18:
 238 0008 0028     		cmp	r0, #0
 239 000a FBD0     		beq	.L42
 111:usb_uart.c    ****     {
 112:usb_uart.c    ****     }
 113:usb_uart.c    ****     USBUART_PutChar(c);
 240              		.loc 1 113 0
 241 000c 2046     		mov	r0, r4
 114:usb_uart.c    **** }
 242              		.loc 1 114 0
 243 000e BDE81040 		pop	{r4, lr}
 244              		.cfi_restore 14
 245              		.cfi_restore 4
 246              		.cfi_def_cfa_offset 0
 113:usb_uart.c    **** }
 247              		.loc 1 113 0
 248 0012 FFF7FEBF 		b	USBUART_PutChar
 249              	.LVL19:
 250              		.cfi_endproc
 251              	.LFE69:
 252              		.size	usbuart_putchar, .-usbuart_putchar
 253              		.global	EP1
 254              		.global	EP3
 255              		.global	goFlag
 256              		.global	rx_flag
 257              		.global	bufPtr
 258              		.comm	buffer,128,4
 259              		.comm	count,2,2
 260 0016 00BF     		.data
 261              		.align	2
 262              		.type	EP1, %object
 263              		.size	EP1, 4
 264              	EP1:
 265 0000 00000000 		.word	.LC0
 266              		.type	EP3, %object
 267              		.size	EP3, 4
 268              	EP3:
 269 0004 20000000 		.word	.LC1
 270              		.type	bufPtr, %object
 271              		.size	bufPtr, 4
 272              	bufPtr:
 273 0008 00000000 		.word	buffer
 274              		.section	.rodata.str1.4,"aMS",%progbits,1
 275              		.align	2
 276              	.LC0:
 277 0000 55534255 		.ascii	"USBUart EP 1 ISR Exit Callback \000"
 277      61727420 
 277      45502031 
 277      20495352 
ARM GAS  C:\Users\ingan\AppData\Local\Temp\ccYg6HS2.s 			page 8


 277      20457869 
 278              	.LC1:
 279 0020 55534255 		.ascii	"USBUart EP 3 ISR Exit Callback \000"
 279      61727420 
 279      45502033 
 279      20495352 
 279      20457869 
 280              		.bss
 281              		.set	.LANCHOR0,. + 0
 282              		.type	rx_flag, %object
 283              		.size	rx_flag, 1
 284              	rx_flag:
 285 0000 00       		.space	1
 286              		.type	goFlag, %object
 287              		.size	goFlag, 1
 288              	goFlag:
 289 0001 00       		.space	1
 290              		.text
 291              	.Letext0:
 292              		.file 2 "c:\\program files (x86)\\cypress\\psoc creator\\4.2\\psoc creator\\import\\gnu\\arm\\5.4.
 293              		.file 3 "c:\\program files (x86)\\cypress\\psoc creator\\4.2\\psoc creator\\import\\gnu\\arm\\5.4.
 294              		.file 4 "Generated_Source\\PSoC5/core_cm3.h"
 295              		.file 5 "Generated_Source\\PSoC5/USBUART.h"
 296              		.file 6 "Generated_Source\\PSoC5/USBUART_cdc.h"