ARM GAS  C:\Users\ingan\AppData\Local\Temp\ccLWlD3p.s 			page 1


   1              		.syntax unified
   2              		.cpu cortex-m3
   3              		.fpu softvfp
   4              		.eabi_attribute 20, 1
   5              		.eabi_attribute 21, 1
   6              		.eabi_attribute 23, 3
   7              		.eabi_attribute 24, 1
   8              		.eabi_attribute 25, 1
   9              		.eabi_attribute 26, 1
  10              		.eabi_attribute 30, 2
  11              		.eabi_attribute 34, 1
  12              		.eabi_attribute 18, 4
  13              		.thumb
  14              		.syntax unified
  15              		.file	"USBUART_pm.c"
  16              		.text
  17              	.Ltext0:
  18              		.cfi_sections	.debug_frame
  19              		.section	.text.USBUART_DP_ISR,"ax",%progbits
  20              		.align	2
  21              		.global	USBUART_DP_ISR
  22              		.thumb
  23              		.thumb_func
  24              		.type	USBUART_DP_ISR, %function
  25              	USBUART_DP_ISR:
  26              	.LFB0:
  27              		.file 1 "Generated_Source\\PSoC5\\USBUART_pm.c"
   1:Generated_Source\PSoC5/USBUART_pm.c **** /***************************************************************************//**
   2:Generated_Source\PSoC5/USBUART_pm.c **** * \file USBUART_pm.c
   3:Generated_Source\PSoC5/USBUART_pm.c **** * \version 3.20
   4:Generated_Source\PSoC5/USBUART_pm.c **** *
   5:Generated_Source\PSoC5/USBUART_pm.c **** * \brief
   6:Generated_Source\PSoC5/USBUART_pm.c **** *  This file provides Suspend/Resume APIs implementation.
   7:Generated_Source\PSoC5/USBUART_pm.c **** *
   8:Generated_Source\PSoC5/USBUART_pm.c **** ********************************************************************************
   9:Generated_Source\PSoC5/USBUART_pm.c **** * \copyright
  10:Generated_Source\PSoC5/USBUART_pm.c **** * Copyright 2008-2016, Cypress Semiconductor Corporation.  All rights reserved.
  11:Generated_Source\PSoC5/USBUART_pm.c **** * You may use this file only in accordance with the license, terms, conditions,
  12:Generated_Source\PSoC5/USBUART_pm.c **** * disclaimers, and limitations in the end user license agreement accompanying
  13:Generated_Source\PSoC5/USBUART_pm.c **** * the software package with which this file was provided.
  14:Generated_Source\PSoC5/USBUART_pm.c **** *******************************************************************************/
  15:Generated_Source\PSoC5/USBUART_pm.c **** 
  16:Generated_Source\PSoC5/USBUART_pm.c **** #include "USBUART_pvt.h"
  17:Generated_Source\PSoC5/USBUART_pm.c **** #include "USBUART_Dp.h"
  18:Generated_Source\PSoC5/USBUART_pm.c **** #include "cyapicallbacks.h"
  19:Generated_Source\PSoC5/USBUART_pm.c **** 
  20:Generated_Source\PSoC5/USBUART_pm.c **** /***************************************
  21:Generated_Source\PSoC5/USBUART_pm.c **** * Custom Declarations
  22:Generated_Source\PSoC5/USBUART_pm.c **** ***************************************/
  23:Generated_Source\PSoC5/USBUART_pm.c **** /* `#START PM_CUSTOM_DECLARATIONS` Place your declaration here */
  24:Generated_Source\PSoC5/USBUART_pm.c **** 
  25:Generated_Source\PSoC5/USBUART_pm.c **** /* `#END` */
  26:Generated_Source\PSoC5/USBUART_pm.c **** 
  27:Generated_Source\PSoC5/USBUART_pm.c **** 
  28:Generated_Source\PSoC5/USBUART_pm.c **** /***************************************
  29:Generated_Source\PSoC5/USBUART_pm.c **** * Local data allocation
  30:Generated_Source\PSoC5/USBUART_pm.c **** ***************************************/
ARM GAS  C:\Users\ingan\AppData\Local\Temp\ccLWlD3p.s 			page 2


  31:Generated_Source\PSoC5/USBUART_pm.c **** 
  32:Generated_Source\PSoC5/USBUART_pm.c **** static USBUART_BACKUP_STRUCT  USBUART_backup;
  33:Generated_Source\PSoC5/USBUART_pm.c **** 
  34:Generated_Source\PSoC5/USBUART_pm.c **** #if (USBUART_DP_ISR_ACTIVE)
  35:Generated_Source\PSoC5/USBUART_pm.c ****     /*******************************************************************************
  36:Generated_Source\PSoC5/USBUART_pm.c ****     * Function Name: USBUART_DP_ISR
  37:Generated_Source\PSoC5/USBUART_pm.c ****     ****************************************************************************//**
  38:Generated_Source\PSoC5/USBUART_pm.c ****     *
  39:Generated_Source\PSoC5/USBUART_pm.c ****     *  This Interrupt Service Routine handles DP pin changes for wake-up from
  40:Generated_Source\PSoC5/USBUART_pm.c ****     *  the sleep mode.
  41:Generated_Source\PSoC5/USBUART_pm.c ****     *
  42:Generated_Source\PSoC5/USBUART_pm.c ****     *******************************************************************************/
  43:Generated_Source\PSoC5/USBUART_pm.c ****     CY_ISR(USBUART_DP_ISR)
  44:Generated_Source\PSoC5/USBUART_pm.c ****     {
  28              		.loc 1 44 0
  29              		.cfi_startproc
  30              		@ args = 0, pretend = 0, frame = 0
  31              		@ frame_needed = 0, uses_anonymous_args = 0
  32              		@ link register save eliminated.
  45:Generated_Source\PSoC5/USBUART_pm.c ****     #ifdef USBUART_DP_ISR_ENTRY_CALLBACK
  46:Generated_Source\PSoC5/USBUART_pm.c ****         USBUART_DP_ISR_EntryCallback();
  47:Generated_Source\PSoC5/USBUART_pm.c ****     #endif /* (USBUART_DP_ISR_ENTRY_CALLBACK) */
  48:Generated_Source\PSoC5/USBUART_pm.c **** 
  49:Generated_Source\PSoC5/USBUART_pm.c ****         /* `#START DP_USER_CODE` Place your code here */
  50:Generated_Source\PSoC5/USBUART_pm.c **** 
  51:Generated_Source\PSoC5/USBUART_pm.c ****         /* `#END` */
  52:Generated_Source\PSoC5/USBUART_pm.c **** 
  53:Generated_Source\PSoC5/USBUART_pm.c ****         (void) USBUART_Dp_ClearInterrupt();
  33              		.loc 1 53 0
  34 0000 FFF7FEBF 		b	USBUART_Dp_ClearInterrupt
  35              	.LVL0:
  36              		.cfi_endproc
  37              	.LFE0:
  38              		.size	USBUART_DP_ISR, .-USBUART_DP_ISR
  39              		.section	.text.USBUART_SaveConfig,"ax",%progbits
  40              		.align	2
  41              		.global	USBUART_SaveConfig
  42              		.thumb
  43              		.thumb_func
  44              		.type	USBUART_SaveConfig, %function
  45              	USBUART_SaveConfig:
  46              	.LFB1:
  54:Generated_Source\PSoC5/USBUART_pm.c **** 		
  55:Generated_Source\PSoC5/USBUART_pm.c **** 	#ifdef USBUART_DP_ISR_EXIT_CALLBACK
  56:Generated_Source\PSoC5/USBUART_pm.c ****         USBUART_DP_ISR_ExitCallback();
  57:Generated_Source\PSoC5/USBUART_pm.c ****     #endif /* (USBUART_DP_ISR_EXIT_CALLBACK) */
  58:Generated_Source\PSoC5/USBUART_pm.c ****     }
  59:Generated_Source\PSoC5/USBUART_pm.c **** #endif /* (USBUART_DP_ISR_ACTIVE) */
  60:Generated_Source\PSoC5/USBUART_pm.c **** 
  61:Generated_Source\PSoC5/USBUART_pm.c **** 
  62:Generated_Source\PSoC5/USBUART_pm.c **** /*******************************************************************************
  63:Generated_Source\PSoC5/USBUART_pm.c **** * Function Name: USBUART_SaveConfig
  64:Generated_Source\PSoC5/USBUART_pm.c **** ****************************************************************************//**
  65:Generated_Source\PSoC5/USBUART_pm.c **** *
  66:Generated_Source\PSoC5/USBUART_pm.c **** *  Saves the current user configuration.
  67:Generated_Source\PSoC5/USBUART_pm.c **** *
  68:Generated_Source\PSoC5/USBUART_pm.c **** * \reentrant
ARM GAS  C:\Users\ingan\AppData\Local\Temp\ccLWlD3p.s 			page 3


  69:Generated_Source\PSoC5/USBUART_pm.c **** *  No.
  70:Generated_Source\PSoC5/USBUART_pm.c **** *
  71:Generated_Source\PSoC5/USBUART_pm.c **** *******************************************************************************/
  72:Generated_Source\PSoC5/USBUART_pm.c **** void USBUART_SaveConfig(void) 
  73:Generated_Source\PSoC5/USBUART_pm.c **** {
  47              		.loc 1 73 0
  48              		.cfi_startproc
  49              		@ args = 0, pretend = 0, frame = 0
  50              		@ frame_needed = 0, uses_anonymous_args = 0
  51              		@ link register save eliminated.
  52 0000 7047     		bx	lr
  53              		.cfi_endproc
  54              	.LFE1:
  55              		.size	USBUART_SaveConfig, .-USBUART_SaveConfig
  56 0002 00BF     		.section	.text.USBUART_RestoreConfig,"ax",%progbits
  57              		.align	2
  58              		.global	USBUART_RestoreConfig
  59              		.thumb
  60              		.thumb_func
  61              		.type	USBUART_RestoreConfig, %function
  62              	USBUART_RestoreConfig:
  63              	.LFB2:
  74:Generated_Source\PSoC5/USBUART_pm.c ****     /* Empty function added for the compatibility purpose. */
  75:Generated_Source\PSoC5/USBUART_pm.c **** }
  76:Generated_Source\PSoC5/USBUART_pm.c **** 
  77:Generated_Source\PSoC5/USBUART_pm.c **** 
  78:Generated_Source\PSoC5/USBUART_pm.c **** /*******************************************************************************
  79:Generated_Source\PSoC5/USBUART_pm.c **** * Function Name: USBUART_RestoreConfig
  80:Generated_Source\PSoC5/USBUART_pm.c **** ****************************************************************************//**
  81:Generated_Source\PSoC5/USBUART_pm.c **** *
  82:Generated_Source\PSoC5/USBUART_pm.c **** *  Restores the current user configuration.
  83:Generated_Source\PSoC5/USBUART_pm.c **** *
  84:Generated_Source\PSoC5/USBUART_pm.c **** * \reentrant
  85:Generated_Source\PSoC5/USBUART_pm.c **** *  No.
  86:Generated_Source\PSoC5/USBUART_pm.c **** *
  87:Generated_Source\PSoC5/USBUART_pm.c **** *******************************************************************************/
  88:Generated_Source\PSoC5/USBUART_pm.c **** void USBUART_RestoreConfig(void) 
  89:Generated_Source\PSoC5/USBUART_pm.c **** {
  64              		.loc 1 89 0
  65              		.cfi_startproc
  66              		@ args = 0, pretend = 0, frame = 0
  67              		@ frame_needed = 0, uses_anonymous_args = 0
  68              		.loc 1 89 0
  69 0000 08B5     		push	{r3, lr}
  70              		.cfi_def_cfa_offset 8
  71              		.cfi_offset 3, -8
  72              		.cfi_offset 14, -4
  90:Generated_Source\PSoC5/USBUART_pm.c ****     if (USBUART_configuration != 0u)
  73              		.loc 1 90 0
  74 0002 054B     		ldr	r3, .L8
  75 0004 1B78     		ldrb	r3, [r3]	@ zero_extendqisi2
  76 0006 03B9     		cbnz	r3, .L7
  77 0008 08BD     		pop	{r3, pc}
  78              	.L7:
  91:Generated_Source\PSoC5/USBUART_pm.c ****     {
  92:Generated_Source\PSoC5/USBUART_pm.c ****         USBUART_ConfigReg();
  79              		.loc 1 92 0
ARM GAS  C:\Users\ingan\AppData\Local\Temp\ccLWlD3p.s 			page 4


  80 000a FFF7FEFF 		bl	USBUART_ConfigReg
  81              	.LVL1:
  93:Generated_Source\PSoC5/USBUART_pm.c ****         USBUART_EpStateInit();
  94:Generated_Source\PSoC5/USBUART_pm.c ****     }
  95:Generated_Source\PSoC5/USBUART_pm.c **** }
  82              		.loc 1 95 0
  83 000e BDE80840 		pop	{r3, lr}
  84              		.cfi_restore 14
  85              		.cfi_restore 3
  86              		.cfi_def_cfa_offset 0
  93:Generated_Source\PSoC5/USBUART_pm.c ****         USBUART_EpStateInit();
  87              		.loc 1 93 0
  88 0012 FFF7FEBF 		b	USBUART_EpStateInit
  89              	.LVL2:
  90              	.L9:
  91 0016 00BF     		.align	2
  92              	.L8:
  93 0018 00000000 		.word	USBUART_configuration
  94              		.cfi_endproc
  95              	.LFE2:
  96              		.size	USBUART_RestoreConfig, .-USBUART_RestoreConfig
  97              		.section	.text.USBUART_Suspend,"ax",%progbits
  98              		.align	2
  99              		.global	USBUART_Suspend
 100              		.thumb
 101              		.thumb_func
 102              		.type	USBUART_Suspend, %function
 103              	USBUART_Suspend:
 104              	.LFB3:
  96:Generated_Source\PSoC5/USBUART_pm.c **** 
  97:Generated_Source\PSoC5/USBUART_pm.c **** 
  98:Generated_Source\PSoC5/USBUART_pm.c **** /*******************************************************************************
  99:Generated_Source\PSoC5/USBUART_pm.c **** * Function Name: USBUART_Suspend
 100:Generated_Source\PSoC5/USBUART_pm.c **** ****************************************************************************//**
 101:Generated_Source\PSoC5/USBUART_pm.c **** *
 102:Generated_Source\PSoC5/USBUART_pm.c **** *  This function prepares the USBFS component to enter low power mode. The 
 103:Generated_Source\PSoC5/USBUART_pm.c **** *  interrupt on falling edge on Dp pin is configured to wakeup device when the 
 104:Generated_Source\PSoC5/USBUART_pm.c **** *  host drives resume condition. The pull-up is enabled on the Dp line while 
 105:Generated_Source\PSoC5/USBUART_pm.c **** *  device is in low power mode. The supported low power modes are Deep Sleep 
 106:Generated_Source\PSoC5/USBUART_pm.c **** *  (PSoC 4200L) and Sleep (PSoC 3/ PSoC 5LP).
 107:Generated_Source\PSoC5/USBUART_pm.c **** *  
 108:Generated_Source\PSoC5/USBUART_pm.c **** *  *Note* For PSoC 4200L devices, this function should not be called before 
 109:Generated_Source\PSoC5/USBUART_pm.c **** *  entering Sleep.
 110:Generated_Source\PSoC5/USBUART_pm.c **** *  
 111:Generated_Source\PSoC5/USBUART_pm.c **** *  *Note* After enter low power mode, the data which is left in the IN or OUT 
 112:Generated_Source\PSoC5/USBUART_pm.c **** *  endpoint buffers is not restored after wakeup and lost. Therefore it should 
 113:Generated_Source\PSoC5/USBUART_pm.c **** *  be stored in the SRAM for OUT endpoint or read by the host for IN endpoint 
 114:Generated_Source\PSoC5/USBUART_pm.c **** *  before enter low power mode.
 115:Generated_Source\PSoC5/USBUART_pm.c **** *
 116:Generated_Source\PSoC5/USBUART_pm.c **** * \globalvars
 117:Generated_Source\PSoC5/USBUART_pm.c **** *  USBUART_backup.enable:  modified.
 118:Generated_Source\PSoC5/USBUART_pm.c **** *
 119:Generated_Source\PSoC5/USBUART_pm.c **** * \reentrant
 120:Generated_Source\PSoC5/USBUART_pm.c **** *  No.
 121:Generated_Source\PSoC5/USBUART_pm.c **** *
 122:Generated_Source\PSoC5/USBUART_pm.c **** *******************************************************************************/
 123:Generated_Source\PSoC5/USBUART_pm.c **** void USBUART_Suspend(void) 
ARM GAS  C:\Users\ingan\AppData\Local\Temp\ccLWlD3p.s 			page 5


 124:Generated_Source\PSoC5/USBUART_pm.c **** {
 105              		.loc 1 124 0
 106              		.cfi_startproc
 107              		@ args = 0, pretend = 0, frame = 0
 108              		@ frame_needed = 0, uses_anonymous_args = 0
 109 0000 2DE9F041 		push	{r4, r5, r6, r7, r8, lr}
 110              		.cfi_def_cfa_offset 24
 111              		.cfi_offset 4, -24
 112              		.cfi_offset 5, -20
 113              		.cfi_offset 6, -16
 114              		.cfi_offset 7, -12
 115              		.cfi_offset 8, -8
 116              		.cfi_offset 14, -4
 125:Generated_Source\PSoC5/USBUART_pm.c ****     uint8 enableInterrupts;
 126:Generated_Source\PSoC5/USBUART_pm.c **** 
 127:Generated_Source\PSoC5/USBUART_pm.c ****     enableInterrupts = CyEnterCriticalSection();
 117              		.loc 1 127 0
 118 0004 FFF7FEFF 		bl	CyEnterCriticalSection
 119              	.LVL3:
 128:Generated_Source\PSoC5/USBUART_pm.c **** 
 129:Generated_Source\PSoC5/USBUART_pm.c ****     if (0u != (USBUART_CR0_REG & USBUART_CR0_ENABLE))
 120              		.loc 1 129 0
 121 0008 2A4C     		ldr	r4, .L15
 127:Generated_Source\PSoC5/USBUART_pm.c **** 
 122              		.loc 1 127 0
 123 000a 0546     		mov	r5, r0
 124              	.LVL4:
 125              		.loc 1 129 0
 126 000c 2378     		ldrb	r3, [r4]	@ zero_extendqisi2
 127 000e 1B06     		lsls	r3, r3, #24
 128 0010 0FD4     		bmi	.L14
 130:Generated_Source\PSoC5/USBUART_pm.c ****     {
 131:Generated_Source\PSoC5/USBUART_pm.c ****         /* USB block is enabled. */
 132:Generated_Source\PSoC5/USBUART_pm.c ****         USBUART_backup.enableState = 1u;
 133:Generated_Source\PSoC5/USBUART_pm.c **** 
 134:Generated_Source\PSoC5/USBUART_pm.c ****     #if (USBUART_EP_MANAGEMENT_DMA)
 135:Generated_Source\PSoC5/USBUART_pm.c ****         USBUART_Stop_DMA(USBUART_MAX_EP);
 136:Generated_Source\PSoC5/USBUART_pm.c ****     #endif /* (USBUART_EP_MANAGEMENT_DMA) */
 137:Generated_Source\PSoC5/USBUART_pm.c **** 
 138:Generated_Source\PSoC5/USBUART_pm.c ****     #if (CY_PSOC4)
 139:Generated_Source\PSoC5/USBUART_pm.c ****         /* Suspend enter sequence. */
 140:Generated_Source\PSoC5/USBUART_pm.c ****         USBUART_POWER_CTRL_REG |= (USBUART_POWER_CTRL_SUSPEND |
 141:Generated_Source\PSoC5/USBUART_pm.c ****                                             USBUART_POWER_CTRL_SUSPEND_DEL);
 142:Generated_Source\PSoC5/USBUART_pm.c **** 
 143:Generated_Source\PSoC5/USBUART_pm.c ****         /* Store state of USB regulator and disable it. */
 144:Generated_Source\PSoC5/USBUART_pm.c ****         USBUART_backup.mode = (uint8)  (USBUART_CR1_REG & USBUART_CR1_REG_ENABLE);
 145:Generated_Source\PSoC5/USBUART_pm.c ****         USBUART_CR1_REG    &= (uint32) ~USBUART_CR1_REG_ENABLE;
 146:Generated_Source\PSoC5/USBUART_pm.c ****         
 147:Generated_Source\PSoC5/USBUART_pm.c ****         /* Store SIE interrupt sources. Valid bits are 0 - 4. */
 148:Generated_Source\PSoC5/USBUART_pm.c ****         USBUART_backup.intrSeiMask = (uint8) USBUART_INTR_SIE_MASK_REG;
 149:Generated_Source\PSoC5/USBUART_pm.c **** 
 150:Generated_Source\PSoC5/USBUART_pm.c ****     #else
 151:Generated_Source\PSoC5/USBUART_pm.c ****         /* Ensure USB transmit enable is low (USB_USBIO_CR0.ten). - Manual Transmission - Disabled.
 152:Generated_Source\PSoC5/USBUART_pm.c ****         USBUART_USBIO_CR0_REG &= (uint8) ~USBUART_USBIO_CR0_TEN;
 153:Generated_Source\PSoC5/USBUART_pm.c ****         CyDelayUs(USBUART_WAIT_REG_STABILITY_50NS);  /*~50ns delay. */
 154:Generated_Source\PSoC5/USBUART_pm.c **** 
 155:Generated_Source\PSoC5/USBUART_pm.c ****         /* Disable the USBIO by asserting PM.USB_CR0.fsusbio_pd_n(Inverted) and pd_pullup_hv(Invert
ARM GAS  C:\Users\ingan\AppData\Local\Temp\ccLWlD3p.s 			page 6


 156:Generated_Source\PSoC5/USBUART_pm.c ****         USBUART_PM_USB_CR0_REG &= (uint8) ~(USBUART_PM_USB_CR0_PD_N |
 157:Generated_Source\PSoC5/USBUART_pm.c ****                                                      USBUART_PM_USB_CR0_PD_PULLUP_N);
 158:Generated_Source\PSoC5/USBUART_pm.c **** 
 159:Generated_Source\PSoC5/USBUART_pm.c ****         /* Disable the SIE. */
 160:Generated_Source\PSoC5/USBUART_pm.c ****         USBUART_CR0_REG &= (uint8) ~USBUART_CR0_ENABLE;
 161:Generated_Source\PSoC5/USBUART_pm.c **** 
 162:Generated_Source\PSoC5/USBUART_pm.c ****         CyDelayUs(USBUART_WAIT_REG_STABILITY_50NS);  /* ~50ns delay. */
 163:Generated_Source\PSoC5/USBUART_pm.c ****         /* Store mode and disable VRegulator. */
 164:Generated_Source\PSoC5/USBUART_pm.c ****         USBUART_backup.mode = (uint8) (USBUART_CR1_REG & USBUART_CR1_REG_ENABLE);
 165:Generated_Source\PSoC5/USBUART_pm.c ****         USBUART_CR1_REG    &= (uint8) ~USBUART_CR1_REG_ENABLE;
 166:Generated_Source\PSoC5/USBUART_pm.c **** 
 167:Generated_Source\PSoC5/USBUART_pm.c ****         CyDelayUs(USBUART_WAIT_REG_STABILITY_1US); /* min 0.5us delay required. */
 168:Generated_Source\PSoC5/USBUART_pm.c **** 
 169:Generated_Source\PSoC5/USBUART_pm.c ****         /* Disable the USBIO reference by setting PM.USB_CR0.fsusbio_ref_en.*/
 170:Generated_Source\PSoC5/USBUART_pm.c ****         USBUART_PM_USB_CR0_REG &= (uint8) ~USBUART_PM_USB_CR0_REF_EN;
 171:Generated_Source\PSoC5/USBUART_pm.c **** 
 172:Generated_Source\PSoC5/USBUART_pm.c ****         /* Switch DP and DM terminals to GPIO mode and disconnect 1.5k pull-up. */
 173:Generated_Source\PSoC5/USBUART_pm.c ****         USBUART_USBIO_CR1_REG |= USBUART_USBIO_CR1_IOMODE;
 174:Generated_Source\PSoC5/USBUART_pm.c **** 
 175:Generated_Source\PSoC5/USBUART_pm.c ****         /* Disable USBFS block. */
 176:Generated_Source\PSoC5/USBUART_pm.c ****         /* Clear power active and standby mode templates: disable USB block. */
 177:Generated_Source\PSoC5/USBUART_pm.c ****         USBUART_PM_ACT_CFG_REG  &= (uint8) ~USBUART_PM_ACT_EN_FSUSB;
 178:Generated_Source\PSoC5/USBUART_pm.c ****         USBUART_PM_STBY_CFG_REG &= (uint8) ~USBUART_PM_STBY_EN_FSUSB;
 179:Generated_Source\PSoC5/USBUART_pm.c **** 
 180:Generated_Source\PSoC5/USBUART_pm.c ****         CyDelayUs(USBUART_WAIT_REG_STABILITY_1US); /* min 0.5us delay required. */
 181:Generated_Source\PSoC5/USBUART_pm.c ****     #endif /* (CY_PSOC4) */
 182:Generated_Source\PSoC5/USBUART_pm.c ****     }
 183:Generated_Source\PSoC5/USBUART_pm.c ****     else
 184:Generated_Source\PSoC5/USBUART_pm.c ****     {
 185:Generated_Source\PSoC5/USBUART_pm.c ****         USBUART_backup.enableState = 0u;
 129              		.loc 1 185 0
 130 0012 294B     		ldr	r3, .L15+4
 131 0014 0022     		movs	r2, #0
 132 0016 1A70     		strb	r2, [r3]
 133              	.L12:
 186:Generated_Source\PSoC5/USBUART_pm.c ****     }
 187:Generated_Source\PSoC5/USBUART_pm.c **** 
 188:Generated_Source\PSoC5/USBUART_pm.c ****     CyExitCriticalSection(enableInterrupts);
 134              		.loc 1 188 0
 135 0018 2846     		mov	r0, r5
 136 001a FFF7FEFF 		bl	CyExitCriticalSection
 137              	.LVL5:
 189:Generated_Source\PSoC5/USBUART_pm.c **** 
 190:Generated_Source\PSoC5/USBUART_pm.c **** #if (USBUART_DP_ISR_ACTIVE)
 191:Generated_Source\PSoC5/USBUART_pm.c ****     /* Clear active mode Dp interrupt source history. */
 192:Generated_Source\PSoC5/USBUART_pm.c ****     (void) USBUART_Dp_ClearInterrupt();
 138              		.loc 1 192 0
 139 001e FFF7FEFF 		bl	USBUART_Dp_ClearInterrupt
 140              	.LVL6:
 193:Generated_Source\PSoC5/USBUART_pm.c ****     CyIntClearPending(USBUART_DP_INTC_VECT_NUM);
 141              		.loc 1 193 0
 142 0022 2649     		ldr	r1, .L15+8
 194:Generated_Source\PSoC5/USBUART_pm.c **** 
 195:Generated_Source\PSoC5/USBUART_pm.c ****     CyIntEnable      (USBUART_DP_INTC_VECT_NUM);
 143              		.loc 1 195 0
 144 0024 264A     		ldr	r2, .L15+12
 193:Generated_Source\PSoC5/USBUART_pm.c ****     CyIntClearPending(USBUART_DP_INTC_VECT_NUM);
ARM GAS  C:\Users\ingan\AppData\Local\Temp\ccLWlD3p.s 			page 7


 145              		.loc 1 193 0
 146 0026 4FF48053 		mov	r3, #4096
 147 002a 0B60     		str	r3, [r1]
 148              		.loc 1 195 0
 149 002c 1360     		str	r3, [r2]
 150 002e BDE8F081 		pop	{r4, r5, r6, r7, r8, pc}
 151              	.LVL7:
 152              	.L14:
 132:Generated_Source\PSoC5/USBUART_pm.c **** 
 153              		.loc 1 132 0
 154 0032 DFF88480 		ldr	r8, .L15+4
 155 0036 0127     		movs	r7, #1
 135:Generated_Source\PSoC5/USBUART_pm.c ****     #endif /* (USBUART_EP_MANAGEMENT_DMA) */
 156              		.loc 1 135 0
 157 0038 0920     		movs	r0, #9
 132:Generated_Source\PSoC5/USBUART_pm.c **** 
 158              		.loc 1 132 0
 159 003a 88F80070 		strb	r7, [r8]
 135:Generated_Source\PSoC5/USBUART_pm.c ****     #endif /* (USBUART_EP_MANAGEMENT_DMA) */
 160              		.loc 1 135 0
 161 003e FFF7FEFF 		bl	USBUART_Stop_DMA
 162              	.LVL8:
 152:Generated_Source\PSoC5/USBUART_pm.c ****         CyDelayUs(USBUART_WAIT_REG_STABILITY_50NS);  /*~50ns delay. */
 163              		.loc 1 152 0
 164 0042 204A     		ldr	r2, .L15+16
 156:Generated_Source\PSoC5/USBUART_pm.c ****                                                      USBUART_PM_USB_CR0_PD_PULLUP_N);
 165              		.loc 1 156 0
 166 0044 204E     		ldr	r6, .L15+20
 152:Generated_Source\PSoC5/USBUART_pm.c ****         CyDelayUs(USBUART_WAIT_REG_STABILITY_50NS);  /*~50ns delay. */
 167              		.loc 1 152 0
 168 0046 1378     		ldrb	r3, [r2]	@ zero_extendqisi2
 153:Generated_Source\PSoC5/USBUART_pm.c **** 
 169              		.loc 1 153 0
 170 0048 0020     		movs	r0, #0
 152:Generated_Source\PSoC5/USBUART_pm.c ****         CyDelayUs(USBUART_WAIT_REG_STABILITY_50NS);  /*~50ns delay. */
 171              		.loc 1 152 0
 172 004a 03F07F03 		and	r3, r3, #127
 173 004e 1370     		strb	r3, [r2]
 153:Generated_Source\PSoC5/USBUART_pm.c **** 
 174              		.loc 1 153 0
 175 0050 FFF7FEFF 		bl	CyDelayUs
 176              	.LVL9:
 156:Generated_Source\PSoC5/USBUART_pm.c ****                                                      USBUART_PM_USB_CR0_PD_PULLUP_N);
 177              		.loc 1 156 0
 178 0054 3378     		ldrb	r3, [r6]	@ zero_extendqisi2
 162:Generated_Source\PSoC5/USBUART_pm.c ****         /* Store mode and disable VRegulator. */
 179              		.loc 1 162 0
 180 0056 0020     		movs	r0, #0
 156:Generated_Source\PSoC5/USBUART_pm.c ****                                                      USBUART_PM_USB_CR0_PD_PULLUP_N);
 181              		.loc 1 156 0
 182 0058 03F0F903 		and	r3, r3, #249
 183 005c 3370     		strb	r3, [r6]
 160:Generated_Source\PSoC5/USBUART_pm.c **** 
 184              		.loc 1 160 0
 185 005e 2378     		ldrb	r3, [r4]	@ zero_extendqisi2
 186 0060 03F07F03 		and	r3, r3, #127
 187 0064 2370     		strb	r3, [r4]
ARM GAS  C:\Users\ingan\AppData\Local\Temp\ccLWlD3p.s 			page 8


 162:Generated_Source\PSoC5/USBUART_pm.c ****         /* Store mode and disable VRegulator. */
 188              		.loc 1 162 0
 189 0066 FFF7FEFF 		bl	CyDelayUs
 190              	.LVL10:
 164:Generated_Source\PSoC5/USBUART_pm.c ****         USBUART_CR1_REG    &= (uint8) ~USBUART_CR1_REG_ENABLE;
 191              		.loc 1 164 0
 192 006a 184A     		ldr	r2, .L15+24
 167:Generated_Source\PSoC5/USBUART_pm.c **** 
 193              		.loc 1 167 0
 194 006c 3846     		mov	r0, r7
 164:Generated_Source\PSoC5/USBUART_pm.c ****         USBUART_CR1_REG    &= (uint8) ~USBUART_CR1_REG_ENABLE;
 195              		.loc 1 164 0
 196 006e 1378     		ldrb	r3, [r2]	@ zero_extendqisi2
 165:Generated_Source\PSoC5/USBUART_pm.c **** 
 197              		.loc 1 165 0
 198 0070 1178     		ldrb	r1, [r2]	@ zero_extendqisi2
 164:Generated_Source\PSoC5/USBUART_pm.c ****         USBUART_CR1_REG    &= (uint8) ~USBUART_CR1_REG_ENABLE;
 199              		.loc 1 164 0
 200 0072 3B40     		ands	r3, r3, r7
 165:Generated_Source\PSoC5/USBUART_pm.c **** 
 201              		.loc 1 165 0
 202 0074 01F0FE01 		and	r1, r1, #254
 203 0078 1170     		strb	r1, [r2]
 164:Generated_Source\PSoC5/USBUART_pm.c ****         USBUART_CR1_REG    &= (uint8) ~USBUART_CR1_REG_ENABLE;
 204              		.loc 1 164 0
 205 007a 88F80130 		strb	r3, [r8, #1]
 167:Generated_Source\PSoC5/USBUART_pm.c **** 
 206              		.loc 1 167 0
 207 007e FFF7FEFF 		bl	CyDelayUs
 208              	.LVL11:
 170:Generated_Source\PSoC5/USBUART_pm.c **** 
 209              		.loc 1 170 0
 210 0082 3378     		ldrb	r3, [r6]	@ zero_extendqisi2
 173:Generated_Source\PSoC5/USBUART_pm.c **** 
 211              		.loc 1 173 0
 212 0084 124A     		ldr	r2, .L15+28
 170:Generated_Source\PSoC5/USBUART_pm.c **** 
 213              		.loc 1 170 0
 214 0086 03F0FE03 		and	r3, r3, #254
 215 008a 3370     		strb	r3, [r6]
 173:Generated_Source\PSoC5/USBUART_pm.c **** 
 216              		.loc 1 173 0
 217 008c 1378     		ldrb	r3, [r2]	@ zero_extendqisi2
 177:Generated_Source\PSoC5/USBUART_pm.c ****         USBUART_PM_STBY_CFG_REG &= (uint8) ~USBUART_PM_STBY_EN_FSUSB;
 218              		.loc 1 177 0
 219 008e 1149     		ldr	r1, .L15+32
 173:Generated_Source\PSoC5/USBUART_pm.c **** 
 220              		.loc 1 173 0
 221 0090 43F02003 		orr	r3, r3, #32
 222 0094 1370     		strb	r3, [r2]
 177:Generated_Source\PSoC5/USBUART_pm.c ****         USBUART_PM_STBY_CFG_REG &= (uint8) ~USBUART_PM_STBY_EN_FSUSB;
 223              		.loc 1 177 0
 224 0096 0B78     		ldrb	r3, [r1]	@ zero_extendqisi2
 178:Generated_Source\PSoC5/USBUART_pm.c **** 
 225              		.loc 1 178 0
 226 0098 A2F5E252 		sub	r2, r2, #7232
 177:Generated_Source\PSoC5/USBUART_pm.c ****         USBUART_PM_STBY_CFG_REG &= (uint8) ~USBUART_PM_STBY_EN_FSUSB;
ARM GAS  C:\Users\ingan\AppData\Local\Temp\ccLWlD3p.s 			page 9


 227              		.loc 1 177 0
 228 009c 03F0FE03 		and	r3, r3, #254
 178:Generated_Source\PSoC5/USBUART_pm.c **** 
 229              		.loc 1 178 0
 230 00a0 1D3A     		subs	r2, r2, #29
 177:Generated_Source\PSoC5/USBUART_pm.c ****         USBUART_PM_STBY_CFG_REG &= (uint8) ~USBUART_PM_STBY_EN_FSUSB;
 231              		.loc 1 177 0
 232 00a2 0B70     		strb	r3, [r1]
 178:Generated_Source\PSoC5/USBUART_pm.c **** 
 233              		.loc 1 178 0
 234 00a4 1378     		ldrb	r3, [r2]	@ zero_extendqisi2
 180:Generated_Source\PSoC5/USBUART_pm.c ****     #endif /* (CY_PSOC4) */
 235              		.loc 1 180 0
 236 00a6 3846     		mov	r0, r7
 178:Generated_Source\PSoC5/USBUART_pm.c **** 
 237              		.loc 1 178 0
 238 00a8 03F0FE03 		and	r3, r3, #254
 239 00ac 1370     		strb	r3, [r2]
 180:Generated_Source\PSoC5/USBUART_pm.c ****     #endif /* (CY_PSOC4) */
 240              		.loc 1 180 0
 241 00ae FFF7FEFF 		bl	CyDelayUs
 242              	.LVL12:
 243 00b2 B1E7     		b	.L12
 244              	.L16:
 245              		.align	2
 246              	.L15:
 247 00b4 08600040 		.word	1073766408
 248 00b8 00000000 		.word	.LANCHOR0
 249 00bc 80E200E0 		.word	-536812928
 250 00c0 00E100E0 		.word	-536813312
 251 00c4 10600040 		.word	1073766416
 252 00c8 94430040 		.word	1073759124
 253 00cc 09600040 		.word	1073766409
 254 00d0 12600040 		.word	1073766418
 255 00d4 A5430040 		.word	1073759141
 256              		.cfi_endproc
 257              	.LFE3:
 258              		.size	USBUART_Suspend, .-USBUART_Suspend
 259              		.section	.text.USBUART_Resume,"ax",%progbits
 260              		.align	2
 261              		.global	USBUART_Resume
 262              		.thumb
 263              		.thumb_func
 264              		.type	USBUART_Resume, %function
 265              	USBUART_Resume:
 266              	.LFB4:
 196:Generated_Source\PSoC5/USBUART_pm.c **** #endif /* (USBUART_DP_ISR_ACTIVE). */
 197:Generated_Source\PSoC5/USBUART_pm.c **** }
 198:Generated_Source\PSoC5/USBUART_pm.c **** 
 199:Generated_Source\PSoC5/USBUART_pm.c **** 
 200:Generated_Source\PSoC5/USBUART_pm.c **** /*******************************************************************************
 201:Generated_Source\PSoC5/USBUART_pm.c **** * Function Name: USBUART_Resume
 202:Generated_Source\PSoC5/USBUART_pm.c **** ****************************************************************************//**
 203:Generated_Source\PSoC5/USBUART_pm.c **** *
 204:Generated_Source\PSoC5/USBUART_pm.c **** *  This function prepares the USBFS component for active mode operation after 
 205:Generated_Source\PSoC5/USBUART_pm.c **** *  exit low power mode. It restores the component active mode configuration such 
 206:Generated_Source\PSoC5/USBUART_pm.c **** *  as device address assigned previously by the host, endpoints buffer and disables 
ARM GAS  C:\Users\ingan\AppData\Local\Temp\ccLWlD3p.s 			page 10


 207:Generated_Source\PSoC5/USBUART_pm.c **** *  interrupt on Dp pin.
 208:Generated_Source\PSoC5/USBUART_pm.c **** *  The supported low power modes are Deep Sleep (PSoC 4200L) and Sleep 
 209:Generated_Source\PSoC5/USBUART_pm.c **** *  (PSoC 3/ PSoC 5LP).
 210:Generated_Source\PSoC5/USBUART_pm.c **** *  
 211:Generated_Source\PSoC5/USBUART_pm.c **** *  *Note* For PSoC 4200L devices, this function should not be called after 
 212:Generated_Source\PSoC5/USBUART_pm.c **** *  exiting Sleep.
 213:Generated_Source\PSoC5/USBUART_pm.c **** *  
 214:Generated_Source\PSoC5/USBUART_pm.c **** *  *Note* To resume communication with the host, the data endpoints must be 
 215:Generated_Source\PSoC5/USBUART_pm.c **** *  managed: the OUT endpoints must be enabled and IN endpoints must be loaded 
 216:Generated_Source\PSoC5/USBUART_pm.c **** *  with data. For DMA with Automatic Buffer Management, all endpoints buffers 
 217:Generated_Source\PSoC5/USBUART_pm.c **** *  must be initialized again before making them available to the host.
 218:Generated_Source\PSoC5/USBUART_pm.c **** *
 219:Generated_Source\PSoC5/USBUART_pm.c **** *
 220:Generated_Source\PSoC5/USBUART_pm.c **** * \globalvars
 221:Generated_Source\PSoC5/USBUART_pm.c **** *  USBUART_backup - checked.
 222:Generated_Source\PSoC5/USBUART_pm.c **** *
 223:Generated_Source\PSoC5/USBUART_pm.c **** * \reentrant
 224:Generated_Source\PSoC5/USBUART_pm.c **** *  No.
 225:Generated_Source\PSoC5/USBUART_pm.c **** *
 226:Generated_Source\PSoC5/USBUART_pm.c **** *******************************************************************************/
 227:Generated_Source\PSoC5/USBUART_pm.c **** void USBUART_Resume(void) 
 228:Generated_Source\PSoC5/USBUART_pm.c **** {
 267              		.loc 1 228 0
 268              		.cfi_startproc
 269              		@ args = 0, pretend = 0, frame = 0
 270              		@ frame_needed = 0, uses_anonymous_args = 0
 271 0000 F8B5     		push	{r3, r4, r5, r6, r7, lr}
 272              		.cfi_def_cfa_offset 24
 273              		.cfi_offset 3, -24
 274              		.cfi_offset 4, -20
 275              		.cfi_offset 5, -16
 276              		.cfi_offset 6, -12
 277              		.cfi_offset 7, -8
 278              		.cfi_offset 14, -4
 229:Generated_Source\PSoC5/USBUART_pm.c ****     uint8 enableInterrupts;
 230:Generated_Source\PSoC5/USBUART_pm.c **** 
 231:Generated_Source\PSoC5/USBUART_pm.c ****     enableInterrupts = CyEnterCriticalSection();
 279              		.loc 1 231 0
 280 0002 FFF7FEFF 		bl	CyEnterCriticalSection
 281              	.LVL13:
 232:Generated_Source\PSoC5/USBUART_pm.c **** 
 233:Generated_Source\PSoC5/USBUART_pm.c ****     if (0u != USBUART_backup.enableState)
 282              		.loc 1 233 0
 283 0006 2D4D     		ldr	r5, .L26
 231:Generated_Source\PSoC5/USBUART_pm.c **** 
 284              		.loc 1 231 0
 285 0008 0646     		mov	r6, r0
 286              	.LVL14:
 287              		.loc 1 233 0
 288 000a 2B78     		ldrb	r3, [r5]	@ zero_extendqisi2
 289 000c 23B9     		cbnz	r3, .L25
 290              	.L19:
 234:Generated_Source\PSoC5/USBUART_pm.c ****     {
 235:Generated_Source\PSoC5/USBUART_pm.c ****     #if (USBUART_DP_ISR_ACTIVE)
 236:Generated_Source\PSoC5/USBUART_pm.c ****         CyIntDisable(USBUART_DP_INTC_VECT_NUM);
 237:Generated_Source\PSoC5/USBUART_pm.c ****     #endif /* (USBUART_DP_ISR_ACTIVE) */
 238:Generated_Source\PSoC5/USBUART_pm.c **** 
ARM GAS  C:\Users\ingan\AppData\Local\Temp\ccLWlD3p.s 			page 11


 239:Generated_Source\PSoC5/USBUART_pm.c ****     #if (CY_PSOC4)
 240:Generated_Source\PSoC5/USBUART_pm.c ****         /* Enable clock to USB IP. */
 241:Generated_Source\PSoC5/USBUART_pm.c ****         USBUART_USB_CLK_EN_REG |= USBUART_USB_CLK_CSR_CLK_EN;
 242:Generated_Source\PSoC5/USBUART_pm.c **** 
 243:Generated_Source\PSoC5/USBUART_pm.c ****         /* Restore arbiter configuration for DMA transfers. */
 244:Generated_Source\PSoC5/USBUART_pm.c ****         #if (USBUART_EP_MANAGEMENT_DMA)
 245:Generated_Source\PSoC5/USBUART_pm.c ****             #if (USBUART_ARB_ISR_ACTIVE)
 246:Generated_Source\PSoC5/USBUART_pm.c ****                 /* Enable ARB EP interrupt sources. */
 247:Generated_Source\PSoC5/USBUART_pm.c ****                 USBUART_ARB_INT_EN_REG = USBUART_DEFAULT_ARB_INT_EN;
 248:Generated_Source\PSoC5/USBUART_pm.c ****             #endif /* (USBUART_EP_MANAGEMENT_DMA) */
 249:Generated_Source\PSoC5/USBUART_pm.c **** 
 250:Generated_Source\PSoC5/USBUART_pm.c ****             /* Configure arbiter for Manual or Auto DMA operation and clear 
 251:Generated_Source\PSoC5/USBUART_pm.c ****             * configuration completion. 
 252:Generated_Source\PSoC5/USBUART_pm.c ****             */
 253:Generated_Source\PSoC5/USBUART_pm.c ****             USBUART_ARB_CFG_REG = USBUART_DEFAULT_ARB_CFG;
 254:Generated_Source\PSoC5/USBUART_pm.c ****         #endif /* (USBUART_EP_MANAGEMENT_DMA) */
 255:Generated_Source\PSoC5/USBUART_pm.c **** 
 256:Generated_Source\PSoC5/USBUART_pm.c ****         /* Restore level (hi, lo, med) for each interrupt source. */
 257:Generated_Source\PSoC5/USBUART_pm.c ****         USBUART_INTR_LVL_SEL_REG = USBUART_DEFAULT_INTR_LVL_SEL;
 258:Generated_Source\PSoC5/USBUART_pm.c ****         
 259:Generated_Source\PSoC5/USBUART_pm.c ****         /* Store SIE interrupt sources. */
 260:Generated_Source\PSoC5/USBUART_pm.c ****         USBUART_INTR_SIE_MASK_REG = (uint32) USBUART_backup.intrSeiMask;
 261:Generated_Source\PSoC5/USBUART_pm.c **** 
 262:Generated_Source\PSoC5/USBUART_pm.c ****         /* Set EP0.CR: ACK Setup, NAK IN/OUT. */
 263:Generated_Source\PSoC5/USBUART_pm.c ****         USBUART_EP0_CR_REG = USBUART_MODE_NAK_IN_OUT;
 264:Generated_Source\PSoC5/USBUART_pm.c **** 
 265:Generated_Source\PSoC5/USBUART_pm.c ****         /* Restore data EP1-8 configuration. */
 266:Generated_Source\PSoC5/USBUART_pm.c ****         USBUART_RestoreConfig();
 267:Generated_Source\PSoC5/USBUART_pm.c **** 
 268:Generated_Source\PSoC5/USBUART_pm.c ****         /* Restore state of USB regulator and wait until it supples stable power. */
 269:Generated_Source\PSoC5/USBUART_pm.c ****         USBUART_CR1_REG |= USBUART_backup.mode;
 270:Generated_Source\PSoC5/USBUART_pm.c ****         CyDelayUs(USBUART_WAIT_VREF_STABILITY);
 271:Generated_Source\PSoC5/USBUART_pm.c **** 
 272:Generated_Source\PSoC5/USBUART_pm.c ****         /* Suspend exit sequence. */
 273:Generated_Source\PSoC5/USBUART_pm.c ****         USBUART_POWER_CTRL_REG &= (uint32) ~USBUART_POWER_CTRL_SUSPEND;
 274:Generated_Source\PSoC5/USBUART_pm.c ****         CyDelayUs(USBUART_WAIT_SUSPEND_DEL_DISABLE);
 275:Generated_Source\PSoC5/USBUART_pm.c ****         USBUART_POWER_CTRL_REG &= (uint32) ~USBUART_POWER_CTRL_SUSPEND_DEL;
 276:Generated_Source\PSoC5/USBUART_pm.c **** 
 277:Generated_Source\PSoC5/USBUART_pm.c ****     #else
 278:Generated_Source\PSoC5/USBUART_pm.c ****         /* Set power active and standby mode templates: enable USB block. */
 279:Generated_Source\PSoC5/USBUART_pm.c ****         USBUART_PM_ACT_CFG_REG  |= USBUART_PM_ACT_EN_FSUSB;
 280:Generated_Source\PSoC5/USBUART_pm.c ****         USBUART_PM_STBY_CFG_REG |= USBUART_PM_STBY_EN_FSUSB;
 281:Generated_Source\PSoC5/USBUART_pm.c **** 
 282:Generated_Source\PSoC5/USBUART_pm.c ****         /* Enable core clock. */
 283:Generated_Source\PSoC5/USBUART_pm.c ****         USBUART_USB_CLK_EN_REG |= USBUART_USB_CLK_ENABLE;
 284:Generated_Source\PSoC5/USBUART_pm.c **** 
 285:Generated_Source\PSoC5/USBUART_pm.c ****         /* Enable the USBIO reference by setting PM.USB_CR0.fsusbio_ref_en.*/
 286:Generated_Source\PSoC5/USBUART_pm.c ****         USBUART_PM_USB_CR0_REG |= USBUART_PM_USB_CR0_REF_EN;
 287:Generated_Source\PSoC5/USBUART_pm.c **** 
 288:Generated_Source\PSoC5/USBUART_pm.c ****         /* The reference is available ~40us after power restored. */
 289:Generated_Source\PSoC5/USBUART_pm.c ****         CyDelayUs(USBUART_WAIT_VREF_RESTORE);
 290:Generated_Source\PSoC5/USBUART_pm.c ****         /* Restore state of USB regulator and wait until it supples stable power. */
 291:Generated_Source\PSoC5/USBUART_pm.c ****         USBUART_CR1_REG |= USBUART_backup.mode;
 292:Generated_Source\PSoC5/USBUART_pm.c ****         CyDelayUs(USBUART_WAIT_VREF_STABILITY);   /*~50ns delay. */
 293:Generated_Source\PSoC5/USBUART_pm.c **** 
 294:Generated_Source\PSoC5/USBUART_pm.c ****         /* Enable USBIO. */
 295:Generated_Source\PSoC5/USBUART_pm.c ****         USBUART_PM_USB_CR0_REG |= USBUART_PM_USB_CR0_PD_N;
ARM GAS  C:\Users\ingan\AppData\Local\Temp\ccLWlD3p.s 			page 12


 296:Generated_Source\PSoC5/USBUART_pm.c ****         CyDelayUs(USBUART_WAIT_PD_PULLUP_N_ENABLE);
 297:Generated_Source\PSoC5/USBUART_pm.c ****         /* Set the USBIO pull-up enable. */
 298:Generated_Source\PSoC5/USBUART_pm.c ****         USBUART_PM_USB_CR0_REG |= USBUART_PM_USB_CR0_PD_PULLUP_N;
 299:Generated_Source\PSoC5/USBUART_pm.c **** 
 300:Generated_Source\PSoC5/USBUART_pm.c ****         /* Restore arbiter configuration for DMA transfers. */
 301:Generated_Source\PSoC5/USBUART_pm.c ****         #if (USBUART_EP_MANAGEMENT_DMA)
 302:Generated_Source\PSoC5/USBUART_pm.c ****             #if (USBUART_ARB_ISR_ACTIVE)
 303:Generated_Source\PSoC5/USBUART_pm.c ****                 /* Enable ARB EP interrupt sources. */
 304:Generated_Source\PSoC5/USBUART_pm.c ****                 USBUART_ARB_INT_EN_REG = USBUART_DEFAULT_ARB_INT_EN;
 305:Generated_Source\PSoC5/USBUART_pm.c ****             #endif /* (USBUART_EP_MANAGEMENT_DMA) */
 306:Generated_Source\PSoC5/USBUART_pm.c **** 
 307:Generated_Source\PSoC5/USBUART_pm.c ****             /* Configure arbiter for Manual or Auto DMA operation and clear 
 308:Generated_Source\PSoC5/USBUART_pm.c ****             * configuration completion. 
 309:Generated_Source\PSoC5/USBUART_pm.c ****             */
 310:Generated_Source\PSoC5/USBUART_pm.c ****             USBUART_ARB_CFG_REG = USBUART_DEFAULT_ARB_CFG;
 311:Generated_Source\PSoC5/USBUART_pm.c ****         #endif /* (USBUART_EP_MANAGEMENT_DMA) */
 312:Generated_Source\PSoC5/USBUART_pm.c **** 
 313:Generated_Source\PSoC5/USBUART_pm.c ****         /* Set EP0.CR: ACK Setup, STALL IN/OUT. */
 314:Generated_Source\PSoC5/USBUART_pm.c ****         USBUART_EP0_CR_REG = USBUART_MODE_STALL_IN_OUT;
 315:Generated_Source\PSoC5/USBUART_pm.c **** 
 316:Generated_Source\PSoC5/USBUART_pm.c ****         /* Enable the USB IP to respond to USB traffic with the last address. */
 317:Generated_Source\PSoC5/USBUART_pm.c ****         USBUART_CR0_REG |= USBUART_CR0_ENABLE;
 318:Generated_Source\PSoC5/USBUART_pm.c ****         CyDelayCycles(USBUART_WAIT_CR0_REG_STABILITY);
 319:Generated_Source\PSoC5/USBUART_pm.c **** 
 320:Generated_Source\PSoC5/USBUART_pm.c ****         /* Enable D+ pull-up and keep USB control on IO. */
 321:Generated_Source\PSoC5/USBUART_pm.c ****         USBUART_USBIO_CR1_REG = USBUART_USBIO_CR1_USBPUEN;
 322:Generated_Source\PSoC5/USBUART_pm.c **** 
 323:Generated_Source\PSoC5/USBUART_pm.c ****         /* Restore data EP1-8 configuration. */
 324:Generated_Source\PSoC5/USBUART_pm.c ****         USBUART_RestoreConfig();
 325:Generated_Source\PSoC5/USBUART_pm.c ****     #endif /* (CY_PSOC4) */
 326:Generated_Source\PSoC5/USBUART_pm.c ****     }
 327:Generated_Source\PSoC5/USBUART_pm.c **** 
 328:Generated_Source\PSoC5/USBUART_pm.c ****     CyExitCriticalSection(enableInterrupts);
 291              		.loc 1 328 0
 292 000e 3046     		mov	r0, r6
 329:Generated_Source\PSoC5/USBUART_pm.c **** }
 293              		.loc 1 329 0
 294 0010 BDE8F840 		pop	{r3, r4, r5, r6, r7, lr}
 295              		.cfi_remember_state
 296              		.cfi_restore 14
 297              		.cfi_restore 7
 298              		.cfi_restore 6
 299              		.cfi_restore 5
 300              		.cfi_restore 4
 301              		.cfi_restore 3
 302              		.cfi_def_cfa_offset 0
 303              	.LVL15:
 328:Generated_Source\PSoC5/USBUART_pm.c **** }
 304              		.loc 1 328 0
 305 0014 FFF7FEBF 		b	CyExitCriticalSection
 306              	.LVL16:
 307              	.L25:
 308              		.cfi_restore_state
 236:Generated_Source\PSoC5/USBUART_pm.c ****     #endif /* (USBUART_DP_ISR_ACTIVE) */
 309              		.loc 1 236 0
 310 0018 294B     		ldr	r3, .L26+4
 279:Generated_Source\PSoC5/USBUART_pm.c ****         USBUART_PM_STBY_CFG_REG |= USBUART_PM_STBY_EN_FSUSB;
ARM GAS  C:\Users\ingan\AppData\Local\Temp\ccLWlD3p.s 			page 13


 311              		.loc 1 279 0
 312 001a 2A4A     		ldr	r2, .L26+8
 236:Generated_Source\PSoC5/USBUART_pm.c ****     #endif /* (USBUART_DP_ISR_ACTIVE) */
 313              		.loc 1 236 0
 314 001c 4FF48051 		mov	r1, #4096
 315 0020 1960     		str	r1, [r3]
 279:Generated_Source\PSoC5/USBUART_pm.c ****         USBUART_PM_STBY_CFG_REG |= USBUART_PM_STBY_EN_FSUSB;
 316              		.loc 1 279 0
 317 0022 1378     		ldrb	r3, [r2]	@ zero_extendqisi2
 280:Generated_Source\PSoC5/USBUART_pm.c **** 
 318              		.loc 1 280 0
 319 0024 2849     		ldr	r1, .L26+12
 279:Generated_Source\PSoC5/USBUART_pm.c ****         USBUART_PM_STBY_CFG_REG |= USBUART_PM_STBY_EN_FSUSB;
 320              		.loc 1 279 0
 321 0026 43F00103 		orr	r3, r3, #1
 322 002a 1370     		strb	r3, [r2]
 280:Generated_Source\PSoC5/USBUART_pm.c **** 
 323              		.loc 1 280 0
 324 002c 0B78     		ldrb	r3, [r1]	@ zero_extendqisi2
 283:Generated_Source\PSoC5/USBUART_pm.c **** 
 325              		.loc 1 283 0
 326 002e 02F5E752 		add	r2, r2, #7392
 280:Generated_Source\PSoC5/USBUART_pm.c **** 
 327              		.loc 1 280 0
 328 0032 43F00103 		orr	r3, r3, #1
 329 0036 0B70     		strb	r3, [r1]
 283:Generated_Source\PSoC5/USBUART_pm.c **** 
 330              		.loc 1 283 0
 331 0038 1832     		adds	r2, r2, #24
 332 003a 1378     		ldrb	r3, [r2]	@ zero_extendqisi2
 286:Generated_Source\PSoC5/USBUART_pm.c **** 
 333              		.loc 1 286 0
 334 003c 234C     		ldr	r4, .L26+16
 283:Generated_Source\PSoC5/USBUART_pm.c **** 
 335              		.loc 1 283 0
 336 003e 43F00103 		orr	r3, r3, #1
 337 0042 1370     		strb	r3, [r2]
 286:Generated_Source\PSoC5/USBUART_pm.c **** 
 338              		.loc 1 286 0
 339 0044 2378     		ldrb	r3, [r4]	@ zero_extendqisi2
 289:Generated_Source\PSoC5/USBUART_pm.c ****         /* Restore state of USB regulator and wait until it supples stable power. */
 340              		.loc 1 289 0
 341 0046 2820     		movs	r0, #40
 286:Generated_Source\PSoC5/USBUART_pm.c **** 
 342              		.loc 1 286 0
 343 0048 43F00103 		orr	r3, r3, #1
 344 004c 2370     		strb	r3, [r4]
 289:Generated_Source\PSoC5/USBUART_pm.c ****         /* Restore state of USB regulator and wait until it supples stable power. */
 345              		.loc 1 289 0
 346 004e FFF7FEFF 		bl	CyDelayUs
 347              	.LVL17:
 291:Generated_Source\PSoC5/USBUART_pm.c ****         CyDelayUs(USBUART_WAIT_VREF_STABILITY);   /*~50ns delay. */
 348              		.loc 1 291 0
 349 0052 1F4A     		ldr	r2, .L26+20
 350 0054 6B78     		ldrb	r3, [r5, #1]	@ zero_extendqisi2
 351 0056 1178     		ldrb	r1, [r2]	@ zero_extendqisi2
 292:Generated_Source\PSoC5/USBUART_pm.c **** 
ARM GAS  C:\Users\ingan\AppData\Local\Temp\ccLWlD3p.s 			page 14


 352              		.loc 1 292 0
 353 0058 0020     		movs	r0, #0
 291:Generated_Source\PSoC5/USBUART_pm.c ****         CyDelayUs(USBUART_WAIT_VREF_STABILITY);   /*~50ns delay. */
 354              		.loc 1 291 0
 355 005a 0B43     		orrs	r3, r3, r1
 356 005c 1370     		strb	r3, [r2]
 292:Generated_Source\PSoC5/USBUART_pm.c **** 
 357              		.loc 1 292 0
 358 005e FFF7FEFF 		bl	CyDelayUs
 359              	.LVL18:
 295:Generated_Source\PSoC5/USBUART_pm.c ****         CyDelayUs(USBUART_WAIT_PD_PULLUP_N_ENABLE);
 360              		.loc 1 295 0
 361 0062 2378     		ldrb	r3, [r4]	@ zero_extendqisi2
 296:Generated_Source\PSoC5/USBUART_pm.c ****         /* Set the USBIO pull-up enable. */
 362              		.loc 1 296 0
 363 0064 0220     		movs	r0, #2
 295:Generated_Source\PSoC5/USBUART_pm.c ****         CyDelayUs(USBUART_WAIT_PD_PULLUP_N_ENABLE);
 364              		.loc 1 295 0
 365 0066 0343     		orrs	r3, r3, r0
 366 0068 2370     		strb	r3, [r4]
 296:Generated_Source\PSoC5/USBUART_pm.c ****         /* Set the USBIO pull-up enable. */
 367              		.loc 1 296 0
 368 006a FFF7FEFF 		bl	CyDelayUs
 369              	.LVL19:
 298:Generated_Source\PSoC5/USBUART_pm.c **** 
 370              		.loc 1 298 0
 371 006e 2378     		ldrb	r3, [r4]	@ zero_extendqisi2
 314:Generated_Source\PSoC5/USBUART_pm.c **** 
 372              		.loc 1 314 0
 373 0070 1849     		ldr	r1, .L26+24
 310:Generated_Source\PSoC5/USBUART_pm.c ****         #endif /* (USBUART_EP_MANAGEMENT_DMA) */
 374              		.loc 1 310 0
 375 0072 1948     		ldr	r0, .L26+28
 298:Generated_Source\PSoC5/USBUART_pm.c **** 
 376              		.loc 1 298 0
 377 0074 43F00403 		orr	r3, r3, #4
 304:Generated_Source\PSoC5/USBUART_pm.c ****             #endif /* (USBUART_EP_MANAGEMENT_DMA) */
 378              		.loc 1 304 0
 379 0078 184F     		ldr	r7, .L26+32
 298:Generated_Source\PSoC5/USBUART_pm.c **** 
 380              		.loc 1 298 0
 381 007a 2370     		strb	r3, [r4]
 317:Generated_Source\PSoC5/USBUART_pm.c ****         CyDelayCycles(USBUART_WAIT_CR0_REG_STABILITY);
 382              		.loc 1 317 0
 383 007c 184A     		ldr	r2, .L26+36
 304:Generated_Source\PSoC5/USBUART_pm.c ****             #endif /* (USBUART_EP_MANAGEMENT_DMA) */
 384              		.loc 1 304 0
 385 007e 4FF0070E 		mov	lr, #7
 314:Generated_Source\PSoC5/USBUART_pm.c **** 
 386              		.loc 1 314 0
 387 0082 0323     		movs	r3, #3
 310:Generated_Source\PSoC5/USBUART_pm.c ****         #endif /* (USBUART_EP_MANAGEMENT_DMA) */
 388              		.loc 1 310 0
 389 0084 2025     		movs	r5, #32
 304:Generated_Source\PSoC5/USBUART_pm.c ****             #endif /* (USBUART_EP_MANAGEMENT_DMA) */
 390              		.loc 1 304 0
 391 0086 87F800E0 		strb	lr, [r7]
ARM GAS  C:\Users\ingan\AppData\Local\Temp\ccLWlD3p.s 			page 15


 310:Generated_Source\PSoC5/USBUART_pm.c ****         #endif /* (USBUART_EP_MANAGEMENT_DMA) */
 392              		.loc 1 310 0
 393 008a 0570     		strb	r5, [r0]
 314:Generated_Source\PSoC5/USBUART_pm.c **** 
 394              		.loc 1 314 0
 395 008c 0B70     		strb	r3, [r1]
 317:Generated_Source\PSoC5/USBUART_pm.c ****         CyDelayCycles(USBUART_WAIT_CR0_REG_STABILITY);
 396              		.loc 1 317 0
 397 008e 1378     		ldrb	r3, [r2]	@ zero_extendqisi2
 318:Generated_Source\PSoC5/USBUART_pm.c **** 
 398              		.loc 1 318 0
 399 0090 0120     		movs	r0, #1
 317:Generated_Source\PSoC5/USBUART_pm.c ****         CyDelayCycles(USBUART_WAIT_CR0_REG_STABILITY);
 400              		.loc 1 317 0
 401 0092 43F08003 		orr	r3, r3, #128
 402 0096 1370     		strb	r3, [r2]
 318:Generated_Source\PSoC5/USBUART_pm.c **** 
 403              		.loc 1 318 0
 404 0098 FFF7FEFF 		bl	CyDelayCycles
 405              	.LVL20:
 321:Generated_Source\PSoC5/USBUART_pm.c **** 
 406              		.loc 1 321 0
 407 009c 114A     		ldr	r2, .L26+40
 408 009e 0421     		movs	r1, #4
 409              	.LBB4:
 410              	.LBB5:
  90:Generated_Source\PSoC5/USBUART_pm.c ****     {
 411              		.loc 1 90 0
 412 00a0 114B     		ldr	r3, .L26+44
 413              	.LBE5:
 414              	.LBE4:
 321:Generated_Source\PSoC5/USBUART_pm.c **** 
 415              		.loc 1 321 0
 416 00a2 1170     		strb	r1, [r2]
 417              	.LBB7:
 418              	.LBB6:
  90:Generated_Source\PSoC5/USBUART_pm.c ****     {
 419              		.loc 1 90 0
 420 00a4 1B78     		ldrb	r3, [r3]	@ zero_extendqisi2
 421 00a6 002B     		cmp	r3, #0
 422 00a8 B1D0     		beq	.L19
  92:Generated_Source\PSoC5/USBUART_pm.c ****         USBUART_EpStateInit();
 423              		.loc 1 92 0
 424 00aa FFF7FEFF 		bl	USBUART_ConfigReg
 425              	.LVL21:
  93:Generated_Source\PSoC5/USBUART_pm.c ****     }
 426              		.loc 1 93 0
 427 00ae FFF7FEFF 		bl	USBUART_EpStateInit
 428              	.LVL22:
 429              	.LBE6:
 430              	.LBE7:
 328:Generated_Source\PSoC5/USBUART_pm.c **** }
 431              		.loc 1 328 0
 432 00b2 3046     		mov	r0, r6
 433              		.loc 1 329 0
 434 00b4 BDE8F840 		pop	{r3, r4, r5, r6, r7, lr}
 435              		.cfi_restore 3
ARM GAS  C:\Users\ingan\AppData\Local\Temp\ccLWlD3p.s 			page 16


 436              		.cfi_restore 4
 437              		.cfi_restore 5
 438              		.cfi_restore 6
 439              		.cfi_restore 7
 440              		.cfi_restore 14
 441              		.cfi_def_cfa_offset 0
 442              	.LVL23:
 328:Generated_Source\PSoC5/USBUART_pm.c **** }
 443              		.loc 1 328 0
 444 00b8 FFF7FEBF 		b	CyExitCriticalSection
 445              	.LVL24:
 446              	.L27:
 447              		.align	2
 448              	.L26:
 449 00bc 00000000 		.word	.LANCHOR0
 450 00c0 80E100E0 		.word	-536813184
 451 00c4 A5430040 		.word	1073759141
 452 00c8 B5430040 		.word	1073759157
 453 00cc 94430040 		.word	1073759124
 454 00d0 09600040 		.word	1073766409
 455 00d4 28600040 		.word	1073766440
 456 00d8 9C600040 		.word	1073766556
 457 00dc 9E600040 		.word	1073766558
 458 00e0 08600040 		.word	1073766408
 459 00e4 12600040 		.word	1073766418
 460 00e8 00000000 		.word	USBUART_configuration
 461              		.cfi_endproc
 462              	.LFE4:
 463              		.size	USBUART_Resume, .-USBUART_Resume
 464              		.bss
 465              		.align	2
 466              		.set	.LANCHOR0,. + 0
 467              		.type	USBUART_backup, %object
 468              		.size	USBUART_backup, 2
 469              	USBUART_backup:
 470 0000 0000     		.space	2
 471              		.text
 472              	.Letext0:
 473              		.file 2 "Generated_Source\\PSoC5\\cytypes.h"
 474              		.file 3 "Generated_Source\\PSoC5\\USBUART.h"
 475              		.file 4 "Generated_Source\\PSoC5\\USBUART_Dp.h"
 476              		.file 5 "Generated_Source\\PSoC5\\USBUART_pvt.h"
 477              		.file 6 "Generated_Source\\PSoC5\\CyLib.h"