ARM GAS  C:\Users\ingan\AppData\Local\Temp\ccnIrFBK.s 			page 1


   1              		.syntax unified
   2              		.cpu cortex-m3
   3              		.fpu softvfp
   4              		.eabi_attribute 20, 1
   5              		.eabi_attribute 21, 1
   6              		.eabi_attribute 23, 3
   7              		.eabi_attribute 24, 1
   8              		.eabi_attribute 25, 1
   9              		.eabi_attribute 26, 1
  10              		.eabi_attribute 30, 2
  11              		.eabi_attribute 34, 1
  12              		.eabi_attribute 18, 4
  13              		.thumb
  14              		.syntax unified
  15              		.file	"USBUART_ep2_dma.c"
  16              		.text
  17              	.Ltext0:
  18              		.cfi_sections	.debug_frame
  19              		.section	.text.USBUART_ep2_DmaInitialize,"ax",%progbits
  20              		.align	2
  21              		.global	USBUART_ep2_DmaInitialize
  22              		.thumb
  23              		.thumb_func
  24              		.type	USBUART_ep2_DmaInitialize, %function
  25              	USBUART_ep2_DmaInitialize:
  26              	.LFB0:
  27              		.file 1 "Generated_Source\\PSoC5\\USBUART_ep2_dma.c"
   1:Generated_Source\PSoC5/USBUART_ep2_dma.c **** /***************************************************************************
   2:Generated_Source\PSoC5/USBUART_ep2_dma.c **** * File Name: USBUART_ep2_dma.c  
   3:Generated_Source\PSoC5/USBUART_ep2_dma.c **** * Version 1.70
   4:Generated_Source\PSoC5/USBUART_ep2_dma.c **** *
   5:Generated_Source\PSoC5/USBUART_ep2_dma.c **** *  Description:
   6:Generated_Source\PSoC5/USBUART_ep2_dma.c **** *   Provides an API for the DMAC component. The API includes functions
   7:Generated_Source\PSoC5/USBUART_ep2_dma.c **** *   for the DMA controller, DMA channels and Transfer Descriptors.
   8:Generated_Source\PSoC5/USBUART_ep2_dma.c **** *
   9:Generated_Source\PSoC5/USBUART_ep2_dma.c **** *
  10:Generated_Source\PSoC5/USBUART_ep2_dma.c **** *   Note:
  11:Generated_Source\PSoC5/USBUART_ep2_dma.c **** *     This module requires the developer to finish or fill in the auto
  12:Generated_Source\PSoC5/USBUART_ep2_dma.c **** *     generated funcions and setup the dma channel and TD's.
  13:Generated_Source\PSoC5/USBUART_ep2_dma.c **** *
  14:Generated_Source\PSoC5/USBUART_ep2_dma.c **** ********************************************************************************
  15:Generated_Source\PSoC5/USBUART_ep2_dma.c **** * Copyright 2008-2010, Cypress Semiconductor Corporation.  All rights reserved.
  16:Generated_Source\PSoC5/USBUART_ep2_dma.c **** * You may use this file only in accordance with the license, terms, conditions, 
  17:Generated_Source\PSoC5/USBUART_ep2_dma.c **** * disclaimers, and limitations in the end user license agreement accompanying 
  18:Generated_Source\PSoC5/USBUART_ep2_dma.c **** * the software package with which this file was provided.
  19:Generated_Source\PSoC5/USBUART_ep2_dma.c **** ********************************************************************************/
  20:Generated_Source\PSoC5/USBUART_ep2_dma.c **** #include <CYLIB.H>
  21:Generated_Source\PSoC5/USBUART_ep2_dma.c **** #include <CYDMAC.H>
  22:Generated_Source\PSoC5/USBUART_ep2_dma.c **** #include <USBUART_ep2_dma.H>
  23:Generated_Source\PSoC5/USBUART_ep2_dma.c **** 
  24:Generated_Source\PSoC5/USBUART_ep2_dma.c **** 
  25:Generated_Source\PSoC5/USBUART_ep2_dma.c **** 
  26:Generated_Source\PSoC5/USBUART_ep2_dma.c **** /****************************************************************************
  27:Generated_Source\PSoC5/USBUART_ep2_dma.c **** * 
  28:Generated_Source\PSoC5/USBUART_ep2_dma.c **** * The following defines are available in Cyfitter.h
  29:Generated_Source\PSoC5/USBUART_ep2_dma.c **** * 
  30:Generated_Source\PSoC5/USBUART_ep2_dma.c **** * 
ARM GAS  C:\Users\ingan\AppData\Local\Temp\ccnIrFBK.s 			page 2


  31:Generated_Source\PSoC5/USBUART_ep2_dma.c **** * 
  32:Generated_Source\PSoC5/USBUART_ep2_dma.c **** * USBUART_ep2__DRQ_CTL_REG
  33:Generated_Source\PSoC5/USBUART_ep2_dma.c **** * 
  34:Generated_Source\PSoC5/USBUART_ep2_dma.c **** * 
  35:Generated_Source\PSoC5/USBUART_ep2_dma.c **** * USBUART_ep2__DRQ_NUMBER
  36:Generated_Source\PSoC5/USBUART_ep2_dma.c **** * 
  37:Generated_Source\PSoC5/USBUART_ep2_dma.c **** * Number of TD's used by this channel.
  38:Generated_Source\PSoC5/USBUART_ep2_dma.c **** * USBUART_ep2__NUMBEROF_TDS
  39:Generated_Source\PSoC5/USBUART_ep2_dma.c **** * 
  40:Generated_Source\PSoC5/USBUART_ep2_dma.c **** * Priority of this channel.
  41:Generated_Source\PSoC5/USBUART_ep2_dma.c **** * USBUART_ep2__PRIORITY
  42:Generated_Source\PSoC5/USBUART_ep2_dma.c **** * 
  43:Generated_Source\PSoC5/USBUART_ep2_dma.c **** * True if USBUART_ep2_TERMIN_SEL is used.
  44:Generated_Source\PSoC5/USBUART_ep2_dma.c **** * USBUART_ep2__TERMIN_EN
  45:Generated_Source\PSoC5/USBUART_ep2_dma.c **** * 
  46:Generated_Source\PSoC5/USBUART_ep2_dma.c **** * TERMIN interrupt line to signal terminate.
  47:Generated_Source\PSoC5/USBUART_ep2_dma.c **** * USBUART_ep2__TERMIN_SEL
  48:Generated_Source\PSoC5/USBUART_ep2_dma.c **** * 
  49:Generated_Source\PSoC5/USBUART_ep2_dma.c **** * 
  50:Generated_Source\PSoC5/USBUART_ep2_dma.c **** * True if USBUART_ep2_TERMOUT0_SEL is used.
  51:Generated_Source\PSoC5/USBUART_ep2_dma.c **** * USBUART_ep2__TERMOUT0_EN
  52:Generated_Source\PSoC5/USBUART_ep2_dma.c **** * 
  53:Generated_Source\PSoC5/USBUART_ep2_dma.c **** * 
  54:Generated_Source\PSoC5/USBUART_ep2_dma.c **** * TERMOUT0 interrupt line to signal completion.
  55:Generated_Source\PSoC5/USBUART_ep2_dma.c **** * USBUART_ep2__TERMOUT0_SEL
  56:Generated_Source\PSoC5/USBUART_ep2_dma.c **** * 
  57:Generated_Source\PSoC5/USBUART_ep2_dma.c **** * 
  58:Generated_Source\PSoC5/USBUART_ep2_dma.c **** * True if USBUART_ep2_TERMOUT1_SEL is used.
  59:Generated_Source\PSoC5/USBUART_ep2_dma.c **** * USBUART_ep2__TERMOUT1_EN
  60:Generated_Source\PSoC5/USBUART_ep2_dma.c **** * 
  61:Generated_Source\PSoC5/USBUART_ep2_dma.c **** * 
  62:Generated_Source\PSoC5/USBUART_ep2_dma.c **** * TERMOUT1 interrupt line to signal completion.
  63:Generated_Source\PSoC5/USBUART_ep2_dma.c **** * USBUART_ep2__TERMOUT1_SEL
  64:Generated_Source\PSoC5/USBUART_ep2_dma.c **** * 
  65:Generated_Source\PSoC5/USBUART_ep2_dma.c **** ****************************************************************************/
  66:Generated_Source\PSoC5/USBUART_ep2_dma.c **** 
  67:Generated_Source\PSoC5/USBUART_ep2_dma.c **** 
  68:Generated_Source\PSoC5/USBUART_ep2_dma.c **** /* Zero based index of USBUART_ep2 dma channel */
  69:Generated_Source\PSoC5/USBUART_ep2_dma.c **** uint8 USBUART_ep2_DmaHandle = DMA_INVALID_CHANNEL;
  70:Generated_Source\PSoC5/USBUART_ep2_dma.c **** 
  71:Generated_Source\PSoC5/USBUART_ep2_dma.c **** /*********************************************************************
  72:Generated_Source\PSoC5/USBUART_ep2_dma.c **** * Function Name: uint8 USBUART_ep2_DmaInitalize
  73:Generated_Source\PSoC5/USBUART_ep2_dma.c **** **********************************************************************
  74:Generated_Source\PSoC5/USBUART_ep2_dma.c **** * Summary:
  75:Generated_Source\PSoC5/USBUART_ep2_dma.c **** *   Allocates and initialises a channel of the DMAC to be used by the
  76:Generated_Source\PSoC5/USBUART_ep2_dma.c **** *   caller.
  77:Generated_Source\PSoC5/USBUART_ep2_dma.c **** *
  78:Generated_Source\PSoC5/USBUART_ep2_dma.c **** * Parameters:
  79:Generated_Source\PSoC5/USBUART_ep2_dma.c **** *   BurstCount.
  80:Generated_Source\PSoC5/USBUART_ep2_dma.c **** *       
  81:Generated_Source\PSoC5/USBUART_ep2_dma.c **** *       
  82:Generated_Source\PSoC5/USBUART_ep2_dma.c **** *   ReqestPerBurst.
  83:Generated_Source\PSoC5/USBUART_ep2_dma.c **** *       
  84:Generated_Source\PSoC5/USBUART_ep2_dma.c **** *       
  85:Generated_Source\PSoC5/USBUART_ep2_dma.c **** *   UpperSrcAddress.
  86:Generated_Source\PSoC5/USBUART_ep2_dma.c **** *       
  87:Generated_Source\PSoC5/USBUART_ep2_dma.c **** *       
ARM GAS  C:\Users\ingan\AppData\Local\Temp\ccnIrFBK.s 			page 3


  88:Generated_Source\PSoC5/USBUART_ep2_dma.c **** *   UpperDestAddress.
  89:Generated_Source\PSoC5/USBUART_ep2_dma.c **** *       
  90:Generated_Source\PSoC5/USBUART_ep2_dma.c **** *
  91:Generated_Source\PSoC5/USBUART_ep2_dma.c **** * Return:
  92:Generated_Source\PSoC5/USBUART_ep2_dma.c **** *   The channel that can be used by the caller for DMA activity.
  93:Generated_Source\PSoC5/USBUART_ep2_dma.c **** *   DMA_INVALID_CHANNEL (0xFF) if there are no channels left. 
  94:Generated_Source\PSoC5/USBUART_ep2_dma.c **** *
  95:Generated_Source\PSoC5/USBUART_ep2_dma.c **** *
  96:Generated_Source\PSoC5/USBUART_ep2_dma.c **** *******************************************************************/
  97:Generated_Source\PSoC5/USBUART_ep2_dma.c **** uint8 USBUART_ep2_DmaInitialize(uint8 BurstCount, uint8 ReqestPerBurst, uint16 UpperSrcAddress, uin
  98:Generated_Source\PSoC5/USBUART_ep2_dma.c **** {
  28              		.loc 1 98 0
  29              		.cfi_startproc
  30              		@ args = 0, pretend = 0, frame = 0
  31              		@ frame_needed = 0, uses_anonymous_args = 0
  32              	.LVL0:
  33 0000 2DE9F041 		push	{r4, r5, r6, r7, r8, lr}
  34              		.cfi_def_cfa_offset 24
  35              		.cfi_offset 4, -24
  36              		.cfi_offset 5, -20
  37              		.cfi_offset 6, -16
  38              		.cfi_offset 7, -12
  39              		.cfi_offset 8, -8
  40              		.cfi_offset 14, -4
  41 0004 1746     		mov	r7, r2
  42 0006 9846     		mov	r8, r3
  43 0008 82B0     		sub	sp, sp, #8
  44              		.cfi_def_cfa_offset 32
  99:Generated_Source\PSoC5/USBUART_ep2_dma.c **** 
 100:Generated_Source\PSoC5/USBUART_ep2_dma.c ****     /* Allocate a DMA channel. */
 101:Generated_Source\PSoC5/USBUART_ep2_dma.c ****     USBUART_ep2_DmaHandle = (uint8)USBUART_ep2__DRQ_NUMBER;
  45              		.loc 1 101 0
  46 000a 0C4C     		ldr	r4, .L3
 102:Generated_Source\PSoC5/USBUART_ep2_dma.c **** 
 103:Generated_Source\PSoC5/USBUART_ep2_dma.c ****     /* Configure the channel. */
 104:Generated_Source\PSoC5/USBUART_ep2_dma.c ****     (void)CyDmaChSetConfiguration(USBUART_ep2_DmaHandle,
  47              		.loc 1 104 0
  48 000c 0025     		movs	r5, #0
 101:Generated_Source\PSoC5/USBUART_ep2_dma.c **** 
  49              		.loc 1 101 0
  50 000e 0126     		movs	r6, #1
  51              		.loc 1 104 0
  52 0010 2B46     		mov	r3, r5
  53              	.LVL1:
  54 0012 0A46     		mov	r2, r1
  55              	.LVL2:
  56 0014 0195     		str	r5, [sp, #4]
  57 0016 0146     		mov	r1, r0
  58              	.LVL3:
  59 0018 0095     		str	r5, [sp]
  60 001a 3046     		mov	r0, r6
  61              	.LVL4:
 101:Generated_Source\PSoC5/USBUART_ep2_dma.c **** 
  62              		.loc 1 101 0
  63 001c 2670     		strb	r6, [r4]
  64              		.loc 1 104 0
  65 001e FFF7FEFF 		bl	CyDmaChSetConfiguration
ARM GAS  C:\Users\ingan\AppData\Local\Temp\ccnIrFBK.s 			page 4


  66              	.LVL5:
 105:Generated_Source\PSoC5/USBUART_ep2_dma.c ****                                   BurstCount,
 106:Generated_Source\PSoC5/USBUART_ep2_dma.c ****                                   ReqestPerBurst,
 107:Generated_Source\PSoC5/USBUART_ep2_dma.c ****                                   (uint8)USBUART_ep2__TERMOUT0_SEL,
 108:Generated_Source\PSoC5/USBUART_ep2_dma.c ****                                   (uint8)USBUART_ep2__TERMOUT1_SEL,
 109:Generated_Source\PSoC5/USBUART_ep2_dma.c ****                                   (uint8)USBUART_ep2__TERMIN_SEL);
 110:Generated_Source\PSoC5/USBUART_ep2_dma.c **** 
 111:Generated_Source\PSoC5/USBUART_ep2_dma.c ****     /* Set the extended address for the transfers */
 112:Generated_Source\PSoC5/USBUART_ep2_dma.c ****     (void)CyDmaChSetExtendedAddress(USBUART_ep2_DmaHandle, UpperSrcAddress, UpperDestAddress);
  67              		.loc 1 112 0
  68 0022 4246     		mov	r2, r8
  69 0024 3946     		mov	r1, r7
  70 0026 2078     		ldrb	r0, [r4]	@ zero_extendqisi2
  71 0028 FFF7FEFF 		bl	CyDmaChSetExtendedAddress
  72              	.LVL6:
 113:Generated_Source\PSoC5/USBUART_ep2_dma.c **** 
 114:Generated_Source\PSoC5/USBUART_ep2_dma.c ****     /* Set the priority for this channel */
 115:Generated_Source\PSoC5/USBUART_ep2_dma.c ****     (void)CyDmaChPriority(USBUART_ep2_DmaHandle, (uint8)USBUART_ep2__PRIORITY);
  73              		.loc 1 115 0
  74 002c 2078     		ldrb	r0, [r4]	@ zero_extendqisi2
  75 002e 0221     		movs	r1, #2
  76 0030 FFF7FEFF 		bl	CyDmaChPriority
  77              	.LVL7:
 116:Generated_Source\PSoC5/USBUART_ep2_dma.c ****     
 117:Generated_Source\PSoC5/USBUART_ep2_dma.c ****     return USBUART_ep2_DmaHandle;
 118:Generated_Source\PSoC5/USBUART_ep2_dma.c **** }
  78              		.loc 1 118 0
  79 0034 2078     		ldrb	r0, [r4]	@ zero_extendqisi2
  80 0036 02B0     		add	sp, sp, #8
  81              		.cfi_def_cfa_offset 24
  82              		@ sp needed
  83 0038 BDE8F081 		pop	{r4, r5, r6, r7, r8, pc}
  84              	.L4:
  85              		.align	2
  86              	.L3:
  87 003c 00000000 		.word	.LANCHOR0
  88              		.cfi_endproc
  89              	.LFE0:
  90              		.size	USBUART_ep2_DmaInitialize, .-USBUART_ep2_DmaInitialize
  91              		.section	.text.USBUART_ep2_DmaRelease,"ax",%progbits
  92              		.align	2
  93              		.global	USBUART_ep2_DmaRelease
  94              		.thumb
  95              		.thumb_func
  96              		.type	USBUART_ep2_DmaRelease, %function
  97              	USBUART_ep2_DmaRelease:
  98              	.LFB1:
 119:Generated_Source\PSoC5/USBUART_ep2_dma.c **** 
 120:Generated_Source\PSoC5/USBUART_ep2_dma.c **** /*********************************************************************
 121:Generated_Source\PSoC5/USBUART_ep2_dma.c **** * Function Name: void USBUART_ep2_DmaRelease
 122:Generated_Source\PSoC5/USBUART_ep2_dma.c **** **********************************************************************
 123:Generated_Source\PSoC5/USBUART_ep2_dma.c **** * Summary:
 124:Generated_Source\PSoC5/USBUART_ep2_dma.c **** *   Frees the channel associated with USBUART_ep2.
 125:Generated_Source\PSoC5/USBUART_ep2_dma.c **** *
 126:Generated_Source\PSoC5/USBUART_ep2_dma.c **** *
 127:Generated_Source\PSoC5/USBUART_ep2_dma.c **** * Parameters:
 128:Generated_Source\PSoC5/USBUART_ep2_dma.c **** *   void.
ARM GAS  C:\Users\ingan\AppData\Local\Temp\ccnIrFBK.s 			page 5


 129:Generated_Source\PSoC5/USBUART_ep2_dma.c **** *
 130:Generated_Source\PSoC5/USBUART_ep2_dma.c **** *
 131:Generated_Source\PSoC5/USBUART_ep2_dma.c **** *
 132:Generated_Source\PSoC5/USBUART_ep2_dma.c **** * Return:
 133:Generated_Source\PSoC5/USBUART_ep2_dma.c **** *   void.
 134:Generated_Source\PSoC5/USBUART_ep2_dma.c **** *
 135:Generated_Source\PSoC5/USBUART_ep2_dma.c **** *******************************************************************/
 136:Generated_Source\PSoC5/USBUART_ep2_dma.c **** void USBUART_ep2_DmaRelease(void) 
 137:Generated_Source\PSoC5/USBUART_ep2_dma.c **** {
  99              		.loc 1 137 0
 100              		.cfi_startproc
 101              		@ args = 0, pretend = 0, frame = 0
 102              		@ frame_needed = 0, uses_anonymous_args = 0
 103              		@ link register save eliminated.
 138:Generated_Source\PSoC5/USBUART_ep2_dma.c ****     /* Disable the channel */
 139:Generated_Source\PSoC5/USBUART_ep2_dma.c ****     (void)CyDmaChDisable(USBUART_ep2_DmaHandle);
 104              		.loc 1 139 0
 105 0000 014B     		ldr	r3, .L6
 106 0002 1878     		ldrb	r0, [r3]	@ zero_extendqisi2
 107 0004 FFF7FEBF 		b	CyDmaChDisable
 108              	.LVL8:
 109              	.L7:
 110              		.align	2
 111              	.L6:
 112 0008 00000000 		.word	.LANCHOR0
 113              		.cfi_endproc
 114              	.LFE1:
 115              		.size	USBUART_ep2_DmaRelease, .-USBUART_ep2_DmaRelease
 116              		.global	USBUART_ep2_DmaHandle
 117              		.data
 118              		.set	.LANCHOR0,. + 0
 119              		.type	USBUART_ep2_DmaHandle, %object
 120              		.size	USBUART_ep2_DmaHandle, 1
 121              	USBUART_ep2_DmaHandle:
 122 0000 FF       		.byte	-1
 123              		.text
 124              	.Letext0:
 125              		.file 2 "Generated_Source\\PSoC5/cytypes.h"
 126              		.file 3 "Generated_Source\\PSoC5/CYDMAC.H"