ARM GAS  C:\Users\ingan\AppData\Local\Temp\cc5yuDXv.s 			page 1


   1              		.syntax unified
   2              		.cpu cortex-m3
   3              		.fpu softvfp
   4              		.eabi_attribute 20, 1
   5              		.eabi_attribute 21, 1
   6              		.eabi_attribute 23, 3
   7              		.eabi_attribute 24, 1
   8              		.eabi_attribute 25, 1
   9              		.eabi_attribute 26, 1
  10              		.eabi_attribute 30, 2
  11              		.eabi_attribute 34, 1
  12              		.eabi_attribute 18, 4
  13              		.thumb
  14              		.syntax unified
  15              		.file	"USBUART_std.c"
  16              		.text
  17              	.Ltext0:
  18              		.cfi_sections	.debug_frame
  19              		.section	.text.USBUART_ConfigAltChanged.part.0,"ax",%progbits
  20              		.align	2
  21              		.thumb
  22              		.thumb_func
  23              		.type	USBUART_ConfigAltChanged.part.0, %function
  24              	USBUART_ConfigAltChanged.part.0:
  25              	.LFB13:
  26              		.file 1 "Generated_Source\\PSoC5\\USBUART_std.c"
   1:Generated_Source\PSoC5/USBUART_std.c **** /***************************************************************************//**
   2:Generated_Source\PSoC5/USBUART_std.c **** * \file USBUART_std.c
   3:Generated_Source\PSoC5/USBUART_std.c **** * \version 3.20
   4:Generated_Source\PSoC5/USBUART_std.c **** *
   5:Generated_Source\PSoC5/USBUART_std.c **** * \brief
   6:Generated_Source\PSoC5/USBUART_std.c **** *  This file contains the USB Standard request handler.
   7:Generated_Source\PSoC5/USBUART_std.c **** *
   8:Generated_Source\PSoC5/USBUART_std.c **** ********************************************************************************
   9:Generated_Source\PSoC5/USBUART_std.c **** * \copyright
  10:Generated_Source\PSoC5/USBUART_std.c **** * Copyright 2008-2016, Cypress Semiconductor Corporation.  All rights reserved.
  11:Generated_Source\PSoC5/USBUART_std.c **** * You may use this file only in accordance with the license, terms, conditions,
  12:Generated_Source\PSoC5/USBUART_std.c **** * disclaimers, and limitations in the end user license agreement accompanying
  13:Generated_Source\PSoC5/USBUART_std.c **** * the software package with which this file was provided.
  14:Generated_Source\PSoC5/USBUART_std.c **** *******************************************************************************/
  15:Generated_Source\PSoC5/USBUART_std.c **** 
  16:Generated_Source\PSoC5/USBUART_std.c **** #include "USBUART_pvt.h"
  17:Generated_Source\PSoC5/USBUART_std.c **** 
  18:Generated_Source\PSoC5/USBUART_std.c **** /***************************************
  19:Generated_Source\PSoC5/USBUART_std.c **** *   Static data allocation
  20:Generated_Source\PSoC5/USBUART_std.c **** ***************************************/
  21:Generated_Source\PSoC5/USBUART_std.c **** 
  22:Generated_Source\PSoC5/USBUART_std.c **** #if defined(USBUART_ENABLE_FWSN_STRING)
  23:Generated_Source\PSoC5/USBUART_std.c ****     static volatile uint8* USBUART_fwSerialNumberStringDescriptor;
  24:Generated_Source\PSoC5/USBUART_std.c ****     static volatile uint8  USBUART_snStringConfirm = USBUART_FALSE;
  25:Generated_Source\PSoC5/USBUART_std.c **** #endif  /* (USBUART_ENABLE_FWSN_STRING) */
  26:Generated_Source\PSoC5/USBUART_std.c **** 
  27:Generated_Source\PSoC5/USBUART_std.c **** #if defined(USBUART_ENABLE_FWSN_STRING)
  28:Generated_Source\PSoC5/USBUART_std.c ****     /***************************************************************************
  29:Generated_Source\PSoC5/USBUART_std.c ****     * Function Name: USBUART_SerialNumString
  30:Generated_Source\PSoC5/USBUART_std.c ****     ************************************************************************//**
  31:Generated_Source\PSoC5/USBUART_std.c ****     *
ARM GAS  C:\Users\ingan\AppData\Local\Temp\cc5yuDXv.s 			page 2


  32:Generated_Source\PSoC5/USBUART_std.c ****     *  This function is available only when the User Call Back option in the 
  33:Generated_Source\PSoC5/USBUART_std.c ****     *  Serial Number String descriptor properties is selected. Application 
  34:Generated_Source\PSoC5/USBUART_std.c ****     *  firmware can provide the source of the USB device serial number string 
  35:Generated_Source\PSoC5/USBUART_std.c ****     *  descriptor during run time. The default string is used if the application 
  36:Generated_Source\PSoC5/USBUART_std.c ****     *  firmware does not use this function or sets the wrong string descriptor.
  37:Generated_Source\PSoC5/USBUART_std.c ****     *
  38:Generated_Source\PSoC5/USBUART_std.c ****     *  \param snString:  Pointer to the user-defined string descriptor. The 
  39:Generated_Source\PSoC5/USBUART_std.c ****     *  string descriptor should meet the Universal Serial Bus Specification 
  40:Generated_Source\PSoC5/USBUART_std.c ****     *  revision 2.0 chapter 9.6.7
  41:Generated_Source\PSoC5/USBUART_std.c ****     *  Offset|Size|Value|Description
  42:Generated_Source\PSoC5/USBUART_std.c ****     *  ------|----|------|---------------------------------
  43:Generated_Source\PSoC5/USBUART_std.c ****     *  0     |1   |N     |Size of this descriptor in bytes
  44:Generated_Source\PSoC5/USBUART_std.c ****     *  1     |1   |0x03  |STRING Descriptor Type
  45:Generated_Source\PSoC5/USBUART_std.c ****     *  2     |N-2 |Number|UNICODE encoded string
  46:Generated_Source\PSoC5/USBUART_std.c ****     *  
  47:Generated_Source\PSoC5/USBUART_std.c ****     * *For example:* uint8 snString[16]={0x0E,0x03,'F',0,'W',0,'S',0,'N',0,'0',0,'1',0};
  48:Generated_Source\PSoC5/USBUART_std.c ****     *
  49:Generated_Source\PSoC5/USBUART_std.c ****     * \reentrant
  50:Generated_Source\PSoC5/USBUART_std.c ****     *  No.
  51:Generated_Source\PSoC5/USBUART_std.c ****     *
  52:Generated_Source\PSoC5/USBUART_std.c ****     ***************************************************************************/
  53:Generated_Source\PSoC5/USBUART_std.c ****     void  USBUART_SerialNumString(uint8 snString[]) 
  54:Generated_Source\PSoC5/USBUART_std.c ****     {
  55:Generated_Source\PSoC5/USBUART_std.c ****         USBUART_snStringConfirm = USBUART_FALSE;
  56:Generated_Source\PSoC5/USBUART_std.c ****         
  57:Generated_Source\PSoC5/USBUART_std.c ****         if (snString != NULL)
  58:Generated_Source\PSoC5/USBUART_std.c ****         {
  59:Generated_Source\PSoC5/USBUART_std.c ****             /* Check descriptor validation */
  60:Generated_Source\PSoC5/USBUART_std.c ****             if ((snString[0u] > 1u) && (snString[1u] == USBUART_DESCR_STRING))
  61:Generated_Source\PSoC5/USBUART_std.c ****             {
  62:Generated_Source\PSoC5/USBUART_std.c ****                 USBUART_fwSerialNumberStringDescriptor = snString;
  63:Generated_Source\PSoC5/USBUART_std.c ****                 USBUART_snStringConfirm = USBUART_TRUE;
  64:Generated_Source\PSoC5/USBUART_std.c ****             }
  65:Generated_Source\PSoC5/USBUART_std.c ****         }
  66:Generated_Source\PSoC5/USBUART_std.c ****     }
  67:Generated_Source\PSoC5/USBUART_std.c **** #endif  /* USBUART_ENABLE_FWSN_STRING */
  68:Generated_Source\PSoC5/USBUART_std.c **** 
  69:Generated_Source\PSoC5/USBUART_std.c **** 
  70:Generated_Source\PSoC5/USBUART_std.c **** /*******************************************************************************
  71:Generated_Source\PSoC5/USBUART_std.c **** * Function Name: USBUART_HandleStandardRqst
  72:Generated_Source\PSoC5/USBUART_std.c **** ****************************************************************************//**
  73:Generated_Source\PSoC5/USBUART_std.c **** *
  74:Generated_Source\PSoC5/USBUART_std.c **** *  This Routine dispatches standard requests
  75:Generated_Source\PSoC5/USBUART_std.c **** *
  76:Generated_Source\PSoC5/USBUART_std.c **** *
  77:Generated_Source\PSoC5/USBUART_std.c **** * \return
  78:Generated_Source\PSoC5/USBUART_std.c **** *  TRUE if request handled.
  79:Generated_Source\PSoC5/USBUART_std.c **** *
  80:Generated_Source\PSoC5/USBUART_std.c **** * \reentrant
  81:Generated_Source\PSoC5/USBUART_std.c **** *  No.
  82:Generated_Source\PSoC5/USBUART_std.c **** *
  83:Generated_Source\PSoC5/USBUART_std.c **** *******************************************************************************/
  84:Generated_Source\PSoC5/USBUART_std.c **** uint8 USBUART_HandleStandardRqst(void) 
  85:Generated_Source\PSoC5/USBUART_std.c **** {
  86:Generated_Source\PSoC5/USBUART_std.c ****     uint8 requestHandled = USBUART_FALSE;
  87:Generated_Source\PSoC5/USBUART_std.c ****     uint8 interfaceNumber;
  88:Generated_Source\PSoC5/USBUART_std.c ****     uint8 configurationN;
ARM GAS  C:\Users\ingan\AppData\Local\Temp\cc5yuDXv.s 			page 3


  89:Generated_Source\PSoC5/USBUART_std.c ****     uint8 bmRequestType = USBUART_bmRequestTypeReg;
  90:Generated_Source\PSoC5/USBUART_std.c **** 
  91:Generated_Source\PSoC5/USBUART_std.c **** #if defined(USBUART_ENABLE_STRINGS)
  92:Generated_Source\PSoC5/USBUART_std.c ****     volatile uint8 *pStr = 0u;
  93:Generated_Source\PSoC5/USBUART_std.c ****     #if defined(USBUART_ENABLE_DESCRIPTOR_STRINGS)
  94:Generated_Source\PSoC5/USBUART_std.c ****         uint8 nStr;
  95:Generated_Source\PSoC5/USBUART_std.c ****         uint8 descrLength;
  96:Generated_Source\PSoC5/USBUART_std.c ****     #endif /* (USBUART_ENABLE_DESCRIPTOR_STRINGS) */
  97:Generated_Source\PSoC5/USBUART_std.c **** #endif /* (USBUART_ENABLE_STRINGS) */
  98:Generated_Source\PSoC5/USBUART_std.c ****     
  99:Generated_Source\PSoC5/USBUART_std.c ****     static volatile uint8 USBUART_tBuffer[USBUART_STATUS_LENGTH_MAX];
 100:Generated_Source\PSoC5/USBUART_std.c ****     const T_USBUART_LUT CYCODE *pTmp;
 101:Generated_Source\PSoC5/USBUART_std.c **** 
 102:Generated_Source\PSoC5/USBUART_std.c ****     USBUART_currentTD.count = 0u;
 103:Generated_Source\PSoC5/USBUART_std.c **** 
 104:Generated_Source\PSoC5/USBUART_std.c ****     if (USBUART_RQST_DIR_D2H == (bmRequestType & USBUART_RQST_DIR_MASK))
 105:Generated_Source\PSoC5/USBUART_std.c ****     {
 106:Generated_Source\PSoC5/USBUART_std.c ****         /* Control Read */
 107:Generated_Source\PSoC5/USBUART_std.c ****         switch (USBUART_bRequestReg)
 108:Generated_Source\PSoC5/USBUART_std.c ****         {
 109:Generated_Source\PSoC5/USBUART_std.c ****             case USBUART_GET_DESCRIPTOR:
 110:Generated_Source\PSoC5/USBUART_std.c ****                 if (USBUART_DESCR_DEVICE ==USBUART_wValueHiReg)
 111:Generated_Source\PSoC5/USBUART_std.c ****                 {
 112:Generated_Source\PSoC5/USBUART_std.c ****                     pTmp = USBUART_GetDeviceTablePtr();
 113:Generated_Source\PSoC5/USBUART_std.c ****                     USBUART_currentTD.pData = (volatile uint8 *)pTmp->p_list;
 114:Generated_Source\PSoC5/USBUART_std.c ****                     USBUART_currentTD.count = USBUART_DEVICE_DESCR_LENGTH;
 115:Generated_Source\PSoC5/USBUART_std.c ****                     
 116:Generated_Source\PSoC5/USBUART_std.c ****                     requestHandled  = USBUART_InitControlRead();
 117:Generated_Source\PSoC5/USBUART_std.c ****                 }
 118:Generated_Source\PSoC5/USBUART_std.c ****                 else if (USBUART_DESCR_CONFIG == USBUART_wValueHiReg)
 119:Generated_Source\PSoC5/USBUART_std.c ****                 {
 120:Generated_Source\PSoC5/USBUART_std.c ****                     pTmp = USBUART_GetConfigTablePtr((uint8) USBUART_wValueLoReg);
 121:Generated_Source\PSoC5/USBUART_std.c ****                     
 122:Generated_Source\PSoC5/USBUART_std.c ****                     /* Verify that requested descriptor exists */
 123:Generated_Source\PSoC5/USBUART_std.c ****                     if (pTmp != NULL)
 124:Generated_Source\PSoC5/USBUART_std.c ****                     {
 125:Generated_Source\PSoC5/USBUART_std.c ****                         USBUART_currentTD.pData = (volatile uint8 *)pTmp->p_list;
 126:Generated_Source\PSoC5/USBUART_std.c ****                         USBUART_currentTD.count = (uint16)((uint16)(USBUART_currentTD.pData)[USBUAR
 127:Generated_Source\PSoC5/USBUART_std.c ****                                                                             (USBUART_currentTD.pDat
 128:Generated_Source\PSoC5/USBUART_std.c ****                         requestHandled  = USBUART_InitControlRead();
 129:Generated_Source\PSoC5/USBUART_std.c ****                     }
 130:Generated_Source\PSoC5/USBUART_std.c ****                 }
 131:Generated_Source\PSoC5/USBUART_std.c ****                 
 132:Generated_Source\PSoC5/USBUART_std.c ****             #if(USBUART_BOS_ENABLE)
 133:Generated_Source\PSoC5/USBUART_std.c ****                 else if (USBUART_DESCR_BOS == USBUART_wValueHiReg)
 134:Generated_Source\PSoC5/USBUART_std.c ****                 {
 135:Generated_Source\PSoC5/USBUART_std.c ****                     pTmp = USBUART_GetBOSPtr();
 136:Generated_Source\PSoC5/USBUART_std.c ****                     
 137:Generated_Source\PSoC5/USBUART_std.c ****                     /* Verify that requested descriptor exists */
 138:Generated_Source\PSoC5/USBUART_std.c ****                     if (pTmp != NULL)
 139:Generated_Source\PSoC5/USBUART_std.c ****                     {
 140:Generated_Source\PSoC5/USBUART_std.c ****                         USBUART_currentTD.pData = (volatile uint8 *)pTmp;
 141:Generated_Source\PSoC5/USBUART_std.c ****                         USBUART_currentTD.count = ((uint16)((uint16)(USBUART_currentTD.pData)[USBUA
 142:Generated_Source\PSoC5/USBUART_std.c ****                                                                              (USBUART_currentTD.pDa
 143:Generated_Source\PSoC5/USBUART_std.c ****                         requestHandled  = USBUART_InitControlRead();
 144:Generated_Source\PSoC5/USBUART_std.c ****                     }
 145:Generated_Source\PSoC5/USBUART_std.c ****                 }
ARM GAS  C:\Users\ingan\AppData\Local\Temp\cc5yuDXv.s 			page 4


 146:Generated_Source\PSoC5/USBUART_std.c ****             #endif /*(USBUART_BOS_ENABLE)*/
 147:Generated_Source\PSoC5/USBUART_std.c ****             
 148:Generated_Source\PSoC5/USBUART_std.c ****             #if defined(USBUART_ENABLE_STRINGS)
 149:Generated_Source\PSoC5/USBUART_std.c ****                 else if (USBUART_DESCR_STRING == USBUART_wValueHiReg)
 150:Generated_Source\PSoC5/USBUART_std.c ****                 {
 151:Generated_Source\PSoC5/USBUART_std.c ****                 /* Descriptor Strings */
 152:Generated_Source\PSoC5/USBUART_std.c ****                 #if defined(USBUART_ENABLE_DESCRIPTOR_STRINGS)
 153:Generated_Source\PSoC5/USBUART_std.c ****                     nStr = 0u;
 154:Generated_Source\PSoC5/USBUART_std.c ****                     pStr = (volatile uint8 *) &USBUART_STRING_DESCRIPTORS[0u];
 155:Generated_Source\PSoC5/USBUART_std.c ****                     
 156:Generated_Source\PSoC5/USBUART_std.c ****                     while ((USBUART_wValueLoReg > nStr) && (*pStr != 0u))
 157:Generated_Source\PSoC5/USBUART_std.c ****                     {
 158:Generated_Source\PSoC5/USBUART_std.c ****                         /* Read descriptor length from 1st byte */
 159:Generated_Source\PSoC5/USBUART_std.c ****                         descrLength = *pStr;
 160:Generated_Source\PSoC5/USBUART_std.c ****                         /* Move to next string descriptor */
 161:Generated_Source\PSoC5/USBUART_std.c ****                         pStr = &pStr[descrLength];
 162:Generated_Source\PSoC5/USBUART_std.c ****                         nStr++;
 163:Generated_Source\PSoC5/USBUART_std.c ****                     }
 164:Generated_Source\PSoC5/USBUART_std.c ****                 #endif /* (USBUART_ENABLE_DESCRIPTOR_STRINGS) */
 165:Generated_Source\PSoC5/USBUART_std.c ****                 
 166:Generated_Source\PSoC5/USBUART_std.c ****                 /* Microsoft OS String */
 167:Generated_Source\PSoC5/USBUART_std.c ****                 #if defined(USBUART_ENABLE_MSOS_STRING)
 168:Generated_Source\PSoC5/USBUART_std.c ****                     if (USBUART_STRING_MSOS == USBUART_wValueLoReg)
 169:Generated_Source\PSoC5/USBUART_std.c ****                     {
 170:Generated_Source\PSoC5/USBUART_std.c ****                         pStr = (volatile uint8 *)& USBUART_MSOS_DESCRIPTOR[0u];
 171:Generated_Source\PSoC5/USBUART_std.c ****                     }
 172:Generated_Source\PSoC5/USBUART_std.c ****                 #endif /* (USBUART_ENABLE_MSOS_STRING) */
 173:Generated_Source\PSoC5/USBUART_std.c ****                 
 174:Generated_Source\PSoC5/USBUART_std.c ****                 /* SN string */
 175:Generated_Source\PSoC5/USBUART_std.c ****                 #if defined(USBUART_ENABLE_SN_STRING)
 176:Generated_Source\PSoC5/USBUART_std.c ****                     if ((USBUART_wValueLoReg != 0u) && 
 177:Generated_Source\PSoC5/USBUART_std.c ****                         (USBUART_wValueLoReg == USBUART_DEVICE0_DESCR[USBUART_DEVICE_DESCR_SN_SHIFT
 178:Generated_Source\PSoC5/USBUART_std.c ****                     {
 179:Generated_Source\PSoC5/USBUART_std.c ****                     #if defined(USBUART_ENABLE_IDSN_STRING)
 180:Generated_Source\PSoC5/USBUART_std.c ****                         /* Read DIE ID and generate string descriptor in RAM */
 181:Generated_Source\PSoC5/USBUART_std.c ****                         USBUART_ReadDieID(USBUART_idSerialNumberStringDescriptor);
 182:Generated_Source\PSoC5/USBUART_std.c ****                         pStr = USBUART_idSerialNumberStringDescriptor;
 183:Generated_Source\PSoC5/USBUART_std.c ****                     #elif defined(USBUART_ENABLE_FWSN_STRING)
 184:Generated_Source\PSoC5/USBUART_std.c ****                         
 185:Generated_Source\PSoC5/USBUART_std.c ****                         if(USBUART_snStringConfirm != USBUART_FALSE)
 186:Generated_Source\PSoC5/USBUART_std.c ****                         {
 187:Generated_Source\PSoC5/USBUART_std.c ****                             pStr = USBUART_fwSerialNumberStringDescriptor;
 188:Generated_Source\PSoC5/USBUART_std.c ****                         }
 189:Generated_Source\PSoC5/USBUART_std.c ****                         else
 190:Generated_Source\PSoC5/USBUART_std.c ****                         {
 191:Generated_Source\PSoC5/USBUART_std.c ****                             pStr = (volatile uint8 *)&USBUART_SN_STRING_DESCRIPTOR[0u];
 192:Generated_Source\PSoC5/USBUART_std.c ****                         }
 193:Generated_Source\PSoC5/USBUART_std.c ****                     #else
 194:Generated_Source\PSoC5/USBUART_std.c ****                         pStr = (volatile uint8 *)&USBUART_SN_STRING_DESCRIPTOR[0u];
 195:Generated_Source\PSoC5/USBUART_std.c ****                     #endif  /* (USBUART_ENABLE_IDSN_STRING) */
 196:Generated_Source\PSoC5/USBUART_std.c ****                     }
 197:Generated_Source\PSoC5/USBUART_std.c ****                 #endif /* (USBUART_ENABLE_SN_STRING) */
 198:Generated_Source\PSoC5/USBUART_std.c ****                 
 199:Generated_Source\PSoC5/USBUART_std.c ****                     if (*pStr != 0u)
 200:Generated_Source\PSoC5/USBUART_std.c ****                     {
 201:Generated_Source\PSoC5/USBUART_std.c ****                         USBUART_currentTD.count = *pStr;
 202:Generated_Source\PSoC5/USBUART_std.c ****                         USBUART_currentTD.pData = pStr;
ARM GAS  C:\Users\ingan\AppData\Local\Temp\cc5yuDXv.s 			page 5


 203:Generated_Source\PSoC5/USBUART_std.c ****                         requestHandled  = USBUART_InitControlRead();
 204:Generated_Source\PSoC5/USBUART_std.c ****                     }
 205:Generated_Source\PSoC5/USBUART_std.c ****                 }
 206:Generated_Source\PSoC5/USBUART_std.c ****             #endif /*  USBUART_ENABLE_STRINGS */
 207:Generated_Source\PSoC5/USBUART_std.c ****                 else
 208:Generated_Source\PSoC5/USBUART_std.c ****                 {
 209:Generated_Source\PSoC5/USBUART_std.c ****                     requestHandled = USBUART_DispatchClassRqst();
 210:Generated_Source\PSoC5/USBUART_std.c ****                 }
 211:Generated_Source\PSoC5/USBUART_std.c ****                 break;
 212:Generated_Source\PSoC5/USBUART_std.c ****                 
 213:Generated_Source\PSoC5/USBUART_std.c ****             case USBUART_GET_STATUS:
 214:Generated_Source\PSoC5/USBUART_std.c ****                 switch (bmRequestType & USBUART_RQST_RCPT_MASK)
 215:Generated_Source\PSoC5/USBUART_std.c ****                 {
 216:Generated_Source\PSoC5/USBUART_std.c ****                     case USBUART_RQST_RCPT_EP:
 217:Generated_Source\PSoC5/USBUART_std.c ****                         USBUART_currentTD.count = USBUART_EP_STATUS_LENGTH;
 218:Generated_Source\PSoC5/USBUART_std.c ****                         USBUART_tBuffer[0u]     = USBUART_EP[USBUART_wIndexLoReg & USBUART_DIR_UNUS
 219:Generated_Source\PSoC5/USBUART_std.c ****                         USBUART_tBuffer[1u]     = 0u;
 220:Generated_Source\PSoC5/USBUART_std.c ****                         USBUART_currentTD.pData = &USBUART_tBuffer[0u];
 221:Generated_Source\PSoC5/USBUART_std.c ****                         
 222:Generated_Source\PSoC5/USBUART_std.c ****                         requestHandled  = USBUART_InitControlRead();
 223:Generated_Source\PSoC5/USBUART_std.c ****                         break;
 224:Generated_Source\PSoC5/USBUART_std.c ****                     case USBUART_RQST_RCPT_DEV:
 225:Generated_Source\PSoC5/USBUART_std.c ****                         USBUART_currentTD.count = USBUART_DEVICE_STATUS_LENGTH;
 226:Generated_Source\PSoC5/USBUART_std.c ****                         USBUART_tBuffer[0u]     = USBUART_deviceStatus;
 227:Generated_Source\PSoC5/USBUART_std.c ****                         USBUART_tBuffer[1u]     = 0u;
 228:Generated_Source\PSoC5/USBUART_std.c ****                         USBUART_currentTD.pData = &USBUART_tBuffer[0u];
 229:Generated_Source\PSoC5/USBUART_std.c ****                         
 230:Generated_Source\PSoC5/USBUART_std.c ****                         requestHandled  = USBUART_InitControlRead();
 231:Generated_Source\PSoC5/USBUART_std.c ****                         break;
 232:Generated_Source\PSoC5/USBUART_std.c ****                     default:    /* requestHandled is initialized as FALSE by default */
 233:Generated_Source\PSoC5/USBUART_std.c ****                         break;
 234:Generated_Source\PSoC5/USBUART_std.c ****                 }
 235:Generated_Source\PSoC5/USBUART_std.c ****                 break;
 236:Generated_Source\PSoC5/USBUART_std.c ****                 
 237:Generated_Source\PSoC5/USBUART_std.c ****             case USBUART_GET_CONFIGURATION:
 238:Generated_Source\PSoC5/USBUART_std.c ****                 USBUART_currentTD.count = 1u;
 239:Generated_Source\PSoC5/USBUART_std.c ****                 USBUART_currentTD.pData = (volatile uint8 *) &USBUART_configuration;
 240:Generated_Source\PSoC5/USBUART_std.c ****                 requestHandled  = USBUART_InitControlRead();
 241:Generated_Source\PSoC5/USBUART_std.c ****                 break;
 242:Generated_Source\PSoC5/USBUART_std.c ****                 
 243:Generated_Source\PSoC5/USBUART_std.c ****             case USBUART_GET_INTERFACE:
 244:Generated_Source\PSoC5/USBUART_std.c ****                 USBUART_currentTD.count = 1u;
 245:Generated_Source\PSoC5/USBUART_std.c ****                 USBUART_currentTD.pData = (volatile uint8 *) &USBUART_interfaceSetting[USBUART_wInd
 246:Generated_Source\PSoC5/USBUART_std.c ****                 requestHandled  = USBUART_InitControlRead();
 247:Generated_Source\PSoC5/USBUART_std.c ****                 break;
 248:Generated_Source\PSoC5/USBUART_std.c ****                 
 249:Generated_Source\PSoC5/USBUART_std.c ****             default: /* requestHandled is initialized as FALSE by default */
 250:Generated_Source\PSoC5/USBUART_std.c ****                 break;
 251:Generated_Source\PSoC5/USBUART_std.c ****         }
 252:Generated_Source\PSoC5/USBUART_std.c ****     }
 253:Generated_Source\PSoC5/USBUART_std.c ****     else
 254:Generated_Source\PSoC5/USBUART_std.c ****     {
 255:Generated_Source\PSoC5/USBUART_std.c ****         /* Control Write */
 256:Generated_Source\PSoC5/USBUART_std.c ****         switch (USBUART_bRequestReg)
 257:Generated_Source\PSoC5/USBUART_std.c ****         {
 258:Generated_Source\PSoC5/USBUART_std.c ****             case USBUART_SET_ADDRESS:
 259:Generated_Source\PSoC5/USBUART_std.c ****                 /* Store address to be set in USBUART_NoDataControlStatusStage(). */
ARM GAS  C:\Users\ingan\AppData\Local\Temp\cc5yuDXv.s 			page 6


 260:Generated_Source\PSoC5/USBUART_std.c ****                 USBUART_deviceAddress = (uint8) USBUART_wValueLoReg;
 261:Generated_Source\PSoC5/USBUART_std.c ****                 requestHandled = USBUART_InitNoDataControlTransfer();
 262:Generated_Source\PSoC5/USBUART_std.c ****                 break;
 263:Generated_Source\PSoC5/USBUART_std.c ****                 
 264:Generated_Source\PSoC5/USBUART_std.c ****             case USBUART_SET_CONFIGURATION:
 265:Generated_Source\PSoC5/USBUART_std.c ****                 configurationN = USBUART_wValueLoReg;
 266:Generated_Source\PSoC5/USBUART_std.c ****                 
 267:Generated_Source\PSoC5/USBUART_std.c ****                 /* Verify that configuration descriptor exists */
 268:Generated_Source\PSoC5/USBUART_std.c ****                 if(configurationN > 0u)
 269:Generated_Source\PSoC5/USBUART_std.c ****                 {
 270:Generated_Source\PSoC5/USBUART_std.c ****                     pTmp = USBUART_GetConfigTablePtr((uint8) configurationN - 1u);
 271:Generated_Source\PSoC5/USBUART_std.c ****                 }
 272:Generated_Source\PSoC5/USBUART_std.c ****                 
 273:Generated_Source\PSoC5/USBUART_std.c ****                 /* Responds with a Request Error when configuration number is invalid */
 274:Generated_Source\PSoC5/USBUART_std.c ****                 if (((configurationN > 0u) && (pTmp != NULL)) || (configurationN == 0u))
 275:Generated_Source\PSoC5/USBUART_std.c ****                 {
 276:Generated_Source\PSoC5/USBUART_std.c ****                     /* Set new configuration if it has been changed */
 277:Generated_Source\PSoC5/USBUART_std.c ****                     if(configurationN != USBUART_configuration)
 278:Generated_Source\PSoC5/USBUART_std.c ****                     {
 279:Generated_Source\PSoC5/USBUART_std.c ****                         USBUART_configuration = (uint8) configurationN;
 280:Generated_Source\PSoC5/USBUART_std.c ****                         USBUART_configurationChanged = USBUART_TRUE;
 281:Generated_Source\PSoC5/USBUART_std.c ****                         USBUART_Config(USBUART_TRUE);
 282:Generated_Source\PSoC5/USBUART_std.c ****                     }
 283:Generated_Source\PSoC5/USBUART_std.c ****                     requestHandled = USBUART_InitNoDataControlTransfer();
 284:Generated_Source\PSoC5/USBUART_std.c ****                 }
 285:Generated_Source\PSoC5/USBUART_std.c ****                 break;
 286:Generated_Source\PSoC5/USBUART_std.c ****                 
 287:Generated_Source\PSoC5/USBUART_std.c ****             case USBUART_SET_INTERFACE:
 288:Generated_Source\PSoC5/USBUART_std.c ****                 if (0u != USBUART_ValidateAlternateSetting())
 289:Generated_Source\PSoC5/USBUART_std.c ****                 {
 290:Generated_Source\PSoC5/USBUART_std.c ****                     /* Get interface number from the request. */
 291:Generated_Source\PSoC5/USBUART_std.c ****                     interfaceNumber = USBUART_wIndexLoReg;
 292:Generated_Source\PSoC5/USBUART_std.c ****                     USBUART_interfaceNumber = (uint8) USBUART_wIndexLoReg;
 293:Generated_Source\PSoC5/USBUART_std.c ****                      
 294:Generated_Source\PSoC5/USBUART_std.c ****                     /* Check if alternate settings is changed for interface. */
 295:Generated_Source\PSoC5/USBUART_std.c ****                     if (USBUART_interfaceSettingLast[interfaceNumber] != USBUART_interfaceSetting[i
 296:Generated_Source\PSoC5/USBUART_std.c ****                     {
 297:Generated_Source\PSoC5/USBUART_std.c ****                         USBUART_configurationChanged = USBUART_TRUE;
 298:Generated_Source\PSoC5/USBUART_std.c ****                     
 299:Generated_Source\PSoC5/USBUART_std.c ****                         /* Change alternate setting for the endpoints. */
 300:Generated_Source\PSoC5/USBUART_std.c ****                     #if (USBUART_EP_MANAGEMENT_MANUAL && USBUART_EP_ALLOC_DYNAMIC)
 301:Generated_Source\PSoC5/USBUART_std.c ****                         USBUART_Config(USBUART_FALSE);
 302:Generated_Source\PSoC5/USBUART_std.c ****                     #else
 303:Generated_Source\PSoC5/USBUART_std.c ****                         USBUART_ConfigAltChanged();
 304:Generated_Source\PSoC5/USBUART_std.c ****                     #endif /* (USBUART_EP_MANAGEMENT_MANUAL && USBUART_EP_ALLOC_DYNAMIC) */
 305:Generated_Source\PSoC5/USBUART_std.c ****                     }
 306:Generated_Source\PSoC5/USBUART_std.c ****                     
 307:Generated_Source\PSoC5/USBUART_std.c ****                     requestHandled = USBUART_InitNoDataControlTransfer();
 308:Generated_Source\PSoC5/USBUART_std.c ****                 }
 309:Generated_Source\PSoC5/USBUART_std.c ****                 break;
 310:Generated_Source\PSoC5/USBUART_std.c ****                 
 311:Generated_Source\PSoC5/USBUART_std.c ****             case USBUART_CLEAR_FEATURE:
 312:Generated_Source\PSoC5/USBUART_std.c ****                 switch (bmRequestType & USBUART_RQST_RCPT_MASK)
 313:Generated_Source\PSoC5/USBUART_std.c ****                 {
 314:Generated_Source\PSoC5/USBUART_std.c ****                     case USBUART_RQST_RCPT_EP:
 315:Generated_Source\PSoC5/USBUART_std.c ****                         if (USBUART_wValueLoReg == USBUART_ENDPOINT_HALT)
 316:Generated_Source\PSoC5/USBUART_std.c ****                         {
ARM GAS  C:\Users\ingan\AppData\Local\Temp\cc5yuDXv.s 			page 7


 317:Generated_Source\PSoC5/USBUART_std.c ****                             requestHandled = USBUART_ClearEndpointHalt();
 318:Generated_Source\PSoC5/USBUART_std.c ****                         }
 319:Generated_Source\PSoC5/USBUART_std.c ****                         break;
 320:Generated_Source\PSoC5/USBUART_std.c ****                     case USBUART_RQST_RCPT_DEV:
 321:Generated_Source\PSoC5/USBUART_std.c ****                         /* Clear device REMOTE_WAKEUP */
 322:Generated_Source\PSoC5/USBUART_std.c ****                         if (USBUART_wValueLoReg == USBUART_DEVICE_REMOTE_WAKEUP)
 323:Generated_Source\PSoC5/USBUART_std.c ****                         {
 324:Generated_Source\PSoC5/USBUART_std.c ****                             USBUART_deviceStatus &= (uint8)~USBUART_DEVICE_STATUS_REMOTE_WAKEUP;
 325:Generated_Source\PSoC5/USBUART_std.c ****                             requestHandled = USBUART_InitNoDataControlTransfer();
 326:Generated_Source\PSoC5/USBUART_std.c ****                         }
 327:Generated_Source\PSoC5/USBUART_std.c ****                         break;
 328:Generated_Source\PSoC5/USBUART_std.c ****                     case USBUART_RQST_RCPT_IFC:
 329:Generated_Source\PSoC5/USBUART_std.c ****                         /* Validate interfaceNumber */
 330:Generated_Source\PSoC5/USBUART_std.c ****                         if (USBUART_wIndexLoReg < USBUART_MAX_INTERFACES_NUMBER)
 331:Generated_Source\PSoC5/USBUART_std.c ****                         {
 332:Generated_Source\PSoC5/USBUART_std.c ****                             USBUART_interfaceStatus[USBUART_wIndexLoReg] &= (uint8) ~USBUART_wValue
 333:Generated_Source\PSoC5/USBUART_std.c ****                             requestHandled = USBUART_InitNoDataControlTransfer();
 334:Generated_Source\PSoC5/USBUART_std.c ****                         }
 335:Generated_Source\PSoC5/USBUART_std.c ****                         break;
 336:Generated_Source\PSoC5/USBUART_std.c ****                     default:    /* requestHandled is initialized as FALSE by default */
 337:Generated_Source\PSoC5/USBUART_std.c ****                         break;
 338:Generated_Source\PSoC5/USBUART_std.c ****                 }
 339:Generated_Source\PSoC5/USBUART_std.c ****                 break;
 340:Generated_Source\PSoC5/USBUART_std.c ****                 
 341:Generated_Source\PSoC5/USBUART_std.c ****             case USBUART_SET_FEATURE:
 342:Generated_Source\PSoC5/USBUART_std.c ****                 switch (bmRequestType & USBUART_RQST_RCPT_MASK)
 343:Generated_Source\PSoC5/USBUART_std.c ****                 {
 344:Generated_Source\PSoC5/USBUART_std.c ****                     case USBUART_RQST_RCPT_EP:
 345:Generated_Source\PSoC5/USBUART_std.c ****                         if (USBUART_wValueLoReg == USBUART_ENDPOINT_HALT)
 346:Generated_Source\PSoC5/USBUART_std.c ****                         {
 347:Generated_Source\PSoC5/USBUART_std.c ****                             requestHandled = USBUART_SetEndpointHalt();
 348:Generated_Source\PSoC5/USBUART_std.c ****                         }
 349:Generated_Source\PSoC5/USBUART_std.c ****                         break;
 350:Generated_Source\PSoC5/USBUART_std.c ****                         
 351:Generated_Source\PSoC5/USBUART_std.c ****                     case USBUART_RQST_RCPT_DEV:
 352:Generated_Source\PSoC5/USBUART_std.c ****                         /* Set device REMOTE_WAKEUP */
 353:Generated_Source\PSoC5/USBUART_std.c ****                         if (USBUART_wValueLoReg == USBUART_DEVICE_REMOTE_WAKEUP)
 354:Generated_Source\PSoC5/USBUART_std.c ****                         {
 355:Generated_Source\PSoC5/USBUART_std.c ****                             USBUART_deviceStatus |= USBUART_DEVICE_STATUS_REMOTE_WAKEUP;
 356:Generated_Source\PSoC5/USBUART_std.c ****                             requestHandled = USBUART_InitNoDataControlTransfer();
 357:Generated_Source\PSoC5/USBUART_std.c ****                         }
 358:Generated_Source\PSoC5/USBUART_std.c ****                         break;
 359:Generated_Source\PSoC5/USBUART_std.c ****                         
 360:Generated_Source\PSoC5/USBUART_std.c ****                     case USBUART_RQST_RCPT_IFC:
 361:Generated_Source\PSoC5/USBUART_std.c ****                         /* Validate interfaceNumber */
 362:Generated_Source\PSoC5/USBUART_std.c ****                         if (USBUART_wIndexLoReg < USBUART_MAX_INTERFACES_NUMBER)
 363:Generated_Source\PSoC5/USBUART_std.c ****                         {
 364:Generated_Source\PSoC5/USBUART_std.c ****                             USBUART_interfaceStatus[USBUART_wIndexLoReg] &= (uint8) ~USBUART_wValue
 365:Generated_Source\PSoC5/USBUART_std.c ****                             requestHandled = USBUART_InitNoDataControlTransfer();
 366:Generated_Source\PSoC5/USBUART_std.c ****                         }
 367:Generated_Source\PSoC5/USBUART_std.c ****                         break;
 368:Generated_Source\PSoC5/USBUART_std.c ****                     
 369:Generated_Source\PSoC5/USBUART_std.c ****                     default:    /* requestHandled is initialized as FALSE by default */
 370:Generated_Source\PSoC5/USBUART_std.c ****                         break;
 371:Generated_Source\PSoC5/USBUART_std.c ****                 }
 372:Generated_Source\PSoC5/USBUART_std.c ****                 break;
 373:Generated_Source\PSoC5/USBUART_std.c ****                 
ARM GAS  C:\Users\ingan\AppData\Local\Temp\cc5yuDXv.s 			page 8


 374:Generated_Source\PSoC5/USBUART_std.c ****             default:    /* requestHandled is initialized as FALSE by default */
 375:Generated_Source\PSoC5/USBUART_std.c ****                 break;
 376:Generated_Source\PSoC5/USBUART_std.c ****         }
 377:Generated_Source\PSoC5/USBUART_std.c ****     }
 378:Generated_Source\PSoC5/USBUART_std.c ****     
 379:Generated_Source\PSoC5/USBUART_std.c ****     return (requestHandled);
 380:Generated_Source\PSoC5/USBUART_std.c **** }
 381:Generated_Source\PSoC5/USBUART_std.c **** 
 382:Generated_Source\PSoC5/USBUART_std.c **** 
 383:Generated_Source\PSoC5/USBUART_std.c **** #if defined(USBUART_ENABLE_IDSN_STRING)
 384:Generated_Source\PSoC5/USBUART_std.c ****     /***************************************************************************
 385:Generated_Source\PSoC5/USBUART_std.c ****     * Function Name: USBUART_ReadDieID
 386:Generated_Source\PSoC5/USBUART_std.c ****     ************************************************************************//**
 387:Generated_Source\PSoC5/USBUART_std.c ****     *
 388:Generated_Source\PSoC5/USBUART_std.c ****     *  This routine read Die ID and generate Serial Number string descriptor.
 389:Generated_Source\PSoC5/USBUART_std.c ****     *
 390:Generated_Source\PSoC5/USBUART_std.c ****     *  \param descr:  pointer on string descriptor. This string size has to be equal or
 391:Generated_Source\PSoC5/USBUART_std.c ****     *          greater than USBUART_IDSN_DESCR_LENGTH.
 392:Generated_Source\PSoC5/USBUART_std.c ****     *
 393:Generated_Source\PSoC5/USBUART_std.c ****     *
 394:Generated_Source\PSoC5/USBUART_std.c ****     * \reentrant
 395:Generated_Source\PSoC5/USBUART_std.c ****     *  No.
 396:Generated_Source\PSoC5/USBUART_std.c ****     *
 397:Generated_Source\PSoC5/USBUART_std.c ****     ***************************************************************************/
 398:Generated_Source\PSoC5/USBUART_std.c ****     void USBUART_ReadDieID(uint8 descr[]) 
 399:Generated_Source\PSoC5/USBUART_std.c ****     {
 400:Generated_Source\PSoC5/USBUART_std.c ****         const char8 CYCODE hex[] = "0123456789ABCDEF";
 401:Generated_Source\PSoC5/USBUART_std.c ****         uint8 i;
 402:Generated_Source\PSoC5/USBUART_std.c ****         uint8 j = 0u;
 403:Generated_Source\PSoC5/USBUART_std.c ****         uint8 uniqueId[8u];
 404:Generated_Source\PSoC5/USBUART_std.c **** 
 405:Generated_Source\PSoC5/USBUART_std.c ****         if (NULL != descr)
 406:Generated_Source\PSoC5/USBUART_std.c ****         {
 407:Generated_Source\PSoC5/USBUART_std.c ****             /* Initialize descriptor header. */
 408:Generated_Source\PSoC5/USBUART_std.c ****             descr[0u] = USBUART_IDSN_DESCR_LENGTH;
 409:Generated_Source\PSoC5/USBUART_std.c ****             descr[1u] = USBUART_DESCR_STRING;
 410:Generated_Source\PSoC5/USBUART_std.c ****             
 411:Generated_Source\PSoC5/USBUART_std.c ****             /* Unique ID size is 8 bytes. */
 412:Generated_Source\PSoC5/USBUART_std.c ****             CyGetUniqueId((uint32 *) uniqueId);
 413:Generated_Source\PSoC5/USBUART_std.c **** 
 414:Generated_Source\PSoC5/USBUART_std.c ****             /* Fill descriptor with unique device ID. */
 415:Generated_Source\PSoC5/USBUART_std.c ****             for (i = 2u; i < USBUART_IDSN_DESCR_LENGTH; i += 4u)
 416:Generated_Source\PSoC5/USBUART_std.c ****             {
 417:Generated_Source\PSoC5/USBUART_std.c ****                 descr[i]      = (uint8) hex[(uniqueId[j] >> 4u)];
 418:Generated_Source\PSoC5/USBUART_std.c ****                 descr[i + 1u] = 0u;
 419:Generated_Source\PSoC5/USBUART_std.c ****                 descr[i + 2u] = (uint8) hex[(uniqueId[j] & 0x0Fu)];
 420:Generated_Source\PSoC5/USBUART_std.c ****                 descr[i + 3u] = 0u;
 421:Generated_Source\PSoC5/USBUART_std.c ****                 ++j;
 422:Generated_Source\PSoC5/USBUART_std.c ****             }
 423:Generated_Source\PSoC5/USBUART_std.c ****         }
 424:Generated_Source\PSoC5/USBUART_std.c ****     }
 425:Generated_Source\PSoC5/USBUART_std.c **** #endif /* (USBUART_ENABLE_IDSN_STRING) */
 426:Generated_Source\PSoC5/USBUART_std.c **** 
 427:Generated_Source\PSoC5/USBUART_std.c **** 
 428:Generated_Source\PSoC5/USBUART_std.c **** /*******************************************************************************
 429:Generated_Source\PSoC5/USBUART_std.c **** * Function Name: USBUART_ConfigReg
 430:Generated_Source\PSoC5/USBUART_std.c **** ****************************************************************************//**
ARM GAS  C:\Users\ingan\AppData\Local\Temp\cc5yuDXv.s 			page 9


 431:Generated_Source\PSoC5/USBUART_std.c **** *
 432:Generated_Source\PSoC5/USBUART_std.c **** *  This routine configures hardware registers from the variables.
 433:Generated_Source\PSoC5/USBUART_std.c **** *  It is called from USBUART_Config() function and from RestoreConfig
 434:Generated_Source\PSoC5/USBUART_std.c **** *  after Wakeup.
 435:Generated_Source\PSoC5/USBUART_std.c **** *
 436:Generated_Source\PSoC5/USBUART_std.c **** *******************************************************************************/
 437:Generated_Source\PSoC5/USBUART_std.c **** void USBUART_ConfigReg(void) 
 438:Generated_Source\PSoC5/USBUART_std.c **** {
 439:Generated_Source\PSoC5/USBUART_std.c ****     uint8 ep;
 440:Generated_Source\PSoC5/USBUART_std.c **** 
 441:Generated_Source\PSoC5/USBUART_std.c **** #if (USBUART_EP_MANAGEMENT_DMA_AUTO)
 442:Generated_Source\PSoC5/USBUART_std.c ****     uint8 epType = 0u;
 443:Generated_Source\PSoC5/USBUART_std.c **** #endif /* (USBUART_EP_MANAGEMENT_DMA_AUTO) */
 444:Generated_Source\PSoC5/USBUART_std.c **** 
 445:Generated_Source\PSoC5/USBUART_std.c ****     /* Go thought all endpoints and set hardware configuration */
 446:Generated_Source\PSoC5/USBUART_std.c ****     for (ep = USBUART_EP1; ep < USBUART_MAX_EP; ++ep)
 447:Generated_Source\PSoC5/USBUART_std.c ****     {
 448:Generated_Source\PSoC5/USBUART_std.c ****         USBUART_ARB_EP_BASE.arbEp[ep].epCfg = USBUART_ARB_EPX_CFG_DEFAULT;
 449:Generated_Source\PSoC5/USBUART_std.c ****         
 450:Generated_Source\PSoC5/USBUART_std.c ****     #if (USBUART_EP_MANAGEMENT_DMA)
 451:Generated_Source\PSoC5/USBUART_std.c ****         /* Enable arbiter endpoint interrupt sources */
 452:Generated_Source\PSoC5/USBUART_std.c ****         USBUART_ARB_EP_BASE.arbEp[ep].epIntEn = USBUART_ARB_EPX_INT_MASK;
 453:Generated_Source\PSoC5/USBUART_std.c ****     #endif /* (USBUART_EP_MANAGEMENT_DMA) */
 454:Generated_Source\PSoC5/USBUART_std.c ****     
 455:Generated_Source\PSoC5/USBUART_std.c ****         if (USBUART_EP[ep].epMode != USBUART_MODE_DISABLE)
 456:Generated_Source\PSoC5/USBUART_std.c ****         {
 457:Generated_Source\PSoC5/USBUART_std.c ****             if (0u != (USBUART_EP[ep].addr & USBUART_DIR_IN))
 458:Generated_Source\PSoC5/USBUART_std.c ****             {
 459:Generated_Source\PSoC5/USBUART_std.c ****                 USBUART_SIE_EP_BASE.sieEp[ep].epCr0 = USBUART_MODE_NAK_IN;
 460:Generated_Source\PSoC5/USBUART_std.c ****                 
 461:Generated_Source\PSoC5/USBUART_std.c ****             #if (USBUART_EP_MANAGEMENT_DMA_AUTO && CY_PSOC4)
 462:Generated_Source\PSoC5/USBUART_std.c ****                 /* Clear DMA_TERMIN for IN endpoint. */
 463:Generated_Source\PSoC5/USBUART_std.c ****                 USBUART_ARB_EP_BASE.arbEp[ep].epIntEn &= (uint32) ~USBUART_ARB_EPX_INT_DMA_TERMIN;
 464:Generated_Source\PSoC5/USBUART_std.c ****             #endif /* (USBUART_EP_MANAGEMENT_DMA_AUTO && CY_PSOC4) */
 465:Generated_Source\PSoC5/USBUART_std.c ****             }
 466:Generated_Source\PSoC5/USBUART_std.c ****             else
 467:Generated_Source\PSoC5/USBUART_std.c ****             {
 468:Generated_Source\PSoC5/USBUART_std.c ****                 USBUART_SIE_EP_BASE.sieEp[ep].epCr0 = USBUART_MODE_NAK_OUT;
 469:Generated_Source\PSoC5/USBUART_std.c **** 
 470:Generated_Source\PSoC5/USBUART_std.c ****             #if (USBUART_EP_MANAGEMENT_DMA_AUTO)
 471:Generated_Source\PSoC5/USBUART_std.c ****                 /* (CY_PSOC4): DMA_TERMIN for OUT endpoint is set above. */
 472:Generated_Source\PSoC5/USBUART_std.c ****                 
 473:Generated_Source\PSoC5/USBUART_std.c ****                 /* Prepare endpoint type mask. */
 474:Generated_Source\PSoC5/USBUART_std.c ****                 epType |= (uint8) (0x01u << (ep - USBUART_EP1));
 475:Generated_Source\PSoC5/USBUART_std.c ****             #endif /* (USBUART_EP_MANAGEMENT_DMA_AUTO) */
 476:Generated_Source\PSoC5/USBUART_std.c ****             }
 477:Generated_Source\PSoC5/USBUART_std.c ****         }
 478:Generated_Source\PSoC5/USBUART_std.c ****         else
 479:Generated_Source\PSoC5/USBUART_std.c ****         {
 480:Generated_Source\PSoC5/USBUART_std.c ****             USBUART_SIE_EP_BASE.sieEp[ep].epCr0 = USBUART_MODE_STALL_DATA_EP;
 481:Generated_Source\PSoC5/USBUART_std.c ****         }
 482:Generated_Source\PSoC5/USBUART_std.c ****         
 483:Generated_Source\PSoC5/USBUART_std.c ****     #if (!USBUART_EP_MANAGEMENT_DMA_AUTO)
 484:Generated_Source\PSoC5/USBUART_std.c ****         #if (CY_PSOC4)
 485:Generated_Source\PSoC5/USBUART_std.c ****             USBUART_ARB_EP16_BASE.arbEp[ep].rwRa16  = (uint32) USBUART_EP[ep].buffOffset;
 486:Generated_Source\PSoC5/USBUART_std.c ****             USBUART_ARB_EP16_BASE.arbEp[ep].rwWa16  = (uint32) USBUART_EP[ep].buffOffset;
 487:Generated_Source\PSoC5/USBUART_std.c ****         #else
ARM GAS  C:\Users\ingan\AppData\Local\Temp\cc5yuDXv.s 			page 10


 488:Generated_Source\PSoC5/USBUART_std.c ****             USBUART_ARB_EP_BASE.arbEp[ep].rwRa    = LO8(USBUART_EP[ep].buffOffset);
 489:Generated_Source\PSoC5/USBUART_std.c ****             USBUART_ARB_EP_BASE.arbEp[ep].rwRaMsb = HI8(USBUART_EP[ep].buffOffset);
 490:Generated_Source\PSoC5/USBUART_std.c ****             USBUART_ARB_EP_BASE.arbEp[ep].rwWa    = LO8(USBUART_EP[ep].buffOffset);
 491:Generated_Source\PSoC5/USBUART_std.c ****             USBUART_ARB_EP_BASE.arbEp[ep].rwWaMsb = HI8(USBUART_EP[ep].buffOffset);
 492:Generated_Source\PSoC5/USBUART_std.c ****         #endif /* (CY_PSOC4) */
 493:Generated_Source\PSoC5/USBUART_std.c ****     #endif /* (!USBUART_EP_MANAGEMENT_DMA_AUTO) */
 494:Generated_Source\PSoC5/USBUART_std.c ****     }
 495:Generated_Source\PSoC5/USBUART_std.c **** 
 496:Generated_Source\PSoC5/USBUART_std.c **** #if (USBUART_EP_MANAGEMENT_DMA_AUTO)
 497:Generated_Source\PSoC5/USBUART_std.c ****      /* BUF_SIZE depend on DMA_THRESS value:0x55-32 bytes  0x44-16 bytes 0x33-8 bytes 0x22-4 bytes 
 498:Generated_Source\PSoC5/USBUART_std.c ****     USBUART_BUF_SIZE_REG = USBUART_DMA_BUF_SIZE;
 499:Generated_Source\PSoC5/USBUART_std.c **** 
 500:Generated_Source\PSoC5/USBUART_std.c ****     /* Configure DMA burst threshold */
 501:Generated_Source\PSoC5/USBUART_std.c **** #if (CY_PSOC4)
 502:Generated_Source\PSoC5/USBUART_std.c ****     USBUART_DMA_THRES16_REG   = USBUART_DMA_BYTES_PER_BURST;
 503:Generated_Source\PSoC5/USBUART_std.c **** #else
 504:Generated_Source\PSoC5/USBUART_std.c ****     USBUART_DMA_THRES_REG     = USBUART_DMA_BYTES_PER_BURST;
 505:Generated_Source\PSoC5/USBUART_std.c ****     USBUART_DMA_THRES_MSB_REG = 0u;
 506:Generated_Source\PSoC5/USBUART_std.c **** #endif /* (CY_PSOC4) */
 507:Generated_Source\PSoC5/USBUART_std.c ****     USBUART_EP_ACTIVE_REG = USBUART_DEFAULT_ARB_INT_EN;
 508:Generated_Source\PSoC5/USBUART_std.c ****     USBUART_EP_TYPE_REG   = epType;
 509:Generated_Source\PSoC5/USBUART_std.c ****     
 510:Generated_Source\PSoC5/USBUART_std.c ****     /* Cfg_cmp bit set to 1 once configuration is complete. */
 511:Generated_Source\PSoC5/USBUART_std.c ****     /* Lock arbiter configtuation */
 512:Generated_Source\PSoC5/USBUART_std.c ****     USBUART_ARB_CFG_REG |= (uint8)  USBUART_ARB_CFG_CFG_CMP;
 513:Generated_Source\PSoC5/USBUART_std.c ****     /* Cfg_cmp bit set to 0 during configuration of PFSUSB Registers. */
 514:Generated_Source\PSoC5/USBUART_std.c ****     USBUART_ARB_CFG_REG &= (uint8) ~USBUART_ARB_CFG_CFG_CMP;
 515:Generated_Source\PSoC5/USBUART_std.c **** 
 516:Generated_Source\PSoC5/USBUART_std.c **** #endif /* (USBUART_EP_MANAGEMENT_DMA_AUTO) */
 517:Generated_Source\PSoC5/USBUART_std.c **** 
 518:Generated_Source\PSoC5/USBUART_std.c ****     /* Enable interrupt SIE interurpt source from EP0-EP1 */
 519:Generated_Source\PSoC5/USBUART_std.c ****     USBUART_SIE_EP_INT_EN_REG = (uint8) USBUART_DEFAULT_SIE_EP_INT_EN;
 520:Generated_Source\PSoC5/USBUART_std.c **** }
 521:Generated_Source\PSoC5/USBUART_std.c **** 
 522:Generated_Source\PSoC5/USBUART_std.c **** 
 523:Generated_Source\PSoC5/USBUART_std.c **** /*******************************************************************************
 524:Generated_Source\PSoC5/USBUART_std.c **** * Function Name: USBUART_EpStateInit
 525:Generated_Source\PSoC5/USBUART_std.c **** ****************************************************************************//**
 526:Generated_Source\PSoC5/USBUART_std.c **** *
 527:Generated_Source\PSoC5/USBUART_std.c **** *  This routine initialize state of Data end points based of its type: 
 528:Generated_Source\PSoC5/USBUART_std.c **** *   IN  - USBUART_IN_BUFFER_EMPTY (USBUART_EVENT_PENDING)
 529:Generated_Source\PSoC5/USBUART_std.c **** *   OUT - USBUART_OUT_BUFFER_EMPTY (USBUART_NO_EVENT_PENDING)
 530:Generated_Source\PSoC5/USBUART_std.c **** *
 531:Generated_Source\PSoC5/USBUART_std.c **** *******************************************************************************/
 532:Generated_Source\PSoC5/USBUART_std.c **** void USBUART_EpStateInit(void) 
 533:Generated_Source\PSoC5/USBUART_std.c **** {
 534:Generated_Source\PSoC5/USBUART_std.c ****     uint8 i;
 535:Generated_Source\PSoC5/USBUART_std.c **** 
 536:Generated_Source\PSoC5/USBUART_std.c ****     for (i = USBUART_EP1; i < USBUART_MAX_EP; i++)
 537:Generated_Source\PSoC5/USBUART_std.c ****     { 
 538:Generated_Source\PSoC5/USBUART_std.c ****         if (0u != (USBUART_EP[i].addr & USBUART_DIR_IN))
 539:Generated_Source\PSoC5/USBUART_std.c ****         {
 540:Generated_Source\PSoC5/USBUART_std.c ****             /* IN Endpoint */
 541:Generated_Source\PSoC5/USBUART_std.c ****             USBUART_EP[i].apiEpState = USBUART_EVENT_PENDING;
 542:Generated_Source\PSoC5/USBUART_std.c ****         }
 543:Generated_Source\PSoC5/USBUART_std.c ****         else
 544:Generated_Source\PSoC5/USBUART_std.c ****         {
ARM GAS  C:\Users\ingan\AppData\Local\Temp\cc5yuDXv.s 			page 11


 545:Generated_Source\PSoC5/USBUART_std.c ****             /* OUT Endpoint */
 546:Generated_Source\PSoC5/USBUART_std.c ****             USBUART_EP[i].apiEpState = USBUART_NO_EVENT_PENDING;
 547:Generated_Source\PSoC5/USBUART_std.c ****         }
 548:Generated_Source\PSoC5/USBUART_std.c ****     }
 549:Generated_Source\PSoC5/USBUART_std.c ****                     
 550:Generated_Source\PSoC5/USBUART_std.c **** }
 551:Generated_Source\PSoC5/USBUART_std.c **** 
 552:Generated_Source\PSoC5/USBUART_std.c **** 
 553:Generated_Source\PSoC5/USBUART_std.c **** /*******************************************************************************
 554:Generated_Source\PSoC5/USBUART_std.c **** * Function Name: USBUART_Config
 555:Generated_Source\PSoC5/USBUART_std.c **** ****************************************************************************//**
 556:Generated_Source\PSoC5/USBUART_std.c **** *
 557:Generated_Source\PSoC5/USBUART_std.c **** *  This routine configures endpoints for the entire configuration by scanning
 558:Generated_Source\PSoC5/USBUART_std.c **** *  the configuration descriptor.
 559:Generated_Source\PSoC5/USBUART_std.c **** *
 560:Generated_Source\PSoC5/USBUART_std.c **** *  \param clearAltSetting: It configures the bAlternateSetting 0 for each interface.
 561:Generated_Source\PSoC5/USBUART_std.c **** *
 562:Generated_Source\PSoC5/USBUART_std.c **** * USBUART_interfaceClass - Initialized class array for each interface.
 563:Generated_Source\PSoC5/USBUART_std.c **** *   It is used for handling Class specific requests depend on interface class.
 564:Generated_Source\PSoC5/USBUART_std.c **** *   Different classes in multiple Alternate settings does not supported.
 565:Generated_Source\PSoC5/USBUART_std.c **** *
 566:Generated_Source\PSoC5/USBUART_std.c **** * \reentrant
 567:Generated_Source\PSoC5/USBUART_std.c **** *  No.
 568:Generated_Source\PSoC5/USBUART_std.c **** *
 569:Generated_Source\PSoC5/USBUART_std.c **** *******************************************************************************/
 570:Generated_Source\PSoC5/USBUART_std.c **** void USBUART_Config(uint8 clearAltSetting) 
 571:Generated_Source\PSoC5/USBUART_std.c **** {
 572:Generated_Source\PSoC5/USBUART_std.c ****     uint8 ep;
 573:Generated_Source\PSoC5/USBUART_std.c ****     uint8 curEp;
 574:Generated_Source\PSoC5/USBUART_std.c ****     uint8 i;
 575:Generated_Source\PSoC5/USBUART_std.c ****     uint8 epType;
 576:Generated_Source\PSoC5/USBUART_std.c ****     const uint8 *pDescr;
 577:Generated_Source\PSoC5/USBUART_std.c ****     
 578:Generated_Source\PSoC5/USBUART_std.c ****     #if (!USBUART_EP_MANAGEMENT_DMA_AUTO)
 579:Generated_Source\PSoC5/USBUART_std.c ****         uint16 buffCount = 0u;
 580:Generated_Source\PSoC5/USBUART_std.c ****     #endif /* (!USBUART_EP_MANAGEMENT_DMA_AUTO) */
 581:Generated_Source\PSoC5/USBUART_std.c **** 
 582:Generated_Source\PSoC5/USBUART_std.c ****     const T_USBUART_LUT CYCODE *pTmp;
 583:Generated_Source\PSoC5/USBUART_std.c ****     const T_USBUART_EP_SETTINGS_BLOCK CYCODE *pEP;
 584:Generated_Source\PSoC5/USBUART_std.c **** 
 585:Generated_Source\PSoC5/USBUART_std.c ****     /* Clear endpoints settings */
 586:Generated_Source\PSoC5/USBUART_std.c ****     for (ep = 0u; ep < USBUART_MAX_EP; ++ep)
 587:Generated_Source\PSoC5/USBUART_std.c ****     {
 588:Generated_Source\PSoC5/USBUART_std.c ****         USBUART_EP[ep].attrib     = 0u;
 589:Generated_Source\PSoC5/USBUART_std.c ****         USBUART_EP[ep].hwEpState  = 0u;
 590:Generated_Source\PSoC5/USBUART_std.c ****         USBUART_EP[ep].epToggle   = 0u;
 591:Generated_Source\PSoC5/USBUART_std.c ****         USBUART_EP[ep].bufferSize = 0u;
 592:Generated_Source\PSoC5/USBUART_std.c ****         USBUART_EP[ep].interface  = 0u;
 593:Generated_Source\PSoC5/USBUART_std.c ****         USBUART_EP[ep].apiEpState = USBUART_NO_EVENT_PENDING;
 594:Generated_Source\PSoC5/USBUART_std.c ****         USBUART_EP[ep].epMode     = USBUART_MODE_DISABLE;   
 595:Generated_Source\PSoC5/USBUART_std.c ****     }
 596:Generated_Source\PSoC5/USBUART_std.c **** 
 597:Generated_Source\PSoC5/USBUART_std.c ****     /* Clear Alternate settings for all interfaces. */
 598:Generated_Source\PSoC5/USBUART_std.c ****     if (0u != clearAltSetting)
 599:Generated_Source\PSoC5/USBUART_std.c ****     {
 600:Generated_Source\PSoC5/USBUART_std.c ****         for (i = 0u; i < USBUART_MAX_INTERFACES_NUMBER; ++i)
 601:Generated_Source\PSoC5/USBUART_std.c ****         {
ARM GAS  C:\Users\ingan\AppData\Local\Temp\cc5yuDXv.s 			page 12


 602:Generated_Source\PSoC5/USBUART_std.c ****             USBUART_interfaceSetting[i]     = 0u;
 603:Generated_Source\PSoC5/USBUART_std.c ****             USBUART_interfaceSettingLast[i] = 0u;
 604:Generated_Source\PSoC5/USBUART_std.c ****         }
 605:Generated_Source\PSoC5/USBUART_std.c ****     }
 606:Generated_Source\PSoC5/USBUART_std.c **** 
 607:Generated_Source\PSoC5/USBUART_std.c ****     /* Init Endpoints and Device Status if configured */
 608:Generated_Source\PSoC5/USBUART_std.c ****     if (USBUART_configuration > 0u)
 609:Generated_Source\PSoC5/USBUART_std.c ****     {
 610:Generated_Source\PSoC5/USBUART_std.c ****         #if defined(USBUART_ENABLE_CDC_CLASS)
 611:Generated_Source\PSoC5/USBUART_std.c ****             uint8 cdcComNums = 0u;
 612:Generated_Source\PSoC5/USBUART_std.c ****         #endif  /* (USBUART_ENABLE_CDC_CLASS) */  
 613:Generated_Source\PSoC5/USBUART_std.c **** 
 614:Generated_Source\PSoC5/USBUART_std.c ****         pTmp = USBUART_GetConfigTablePtr(USBUART_configuration - 1u);
 615:Generated_Source\PSoC5/USBUART_std.c ****         
 616:Generated_Source\PSoC5/USBUART_std.c ****         /* Set Power status for current configuration */
 617:Generated_Source\PSoC5/USBUART_std.c ****         pDescr = (const uint8 *)pTmp->p_list;
 618:Generated_Source\PSoC5/USBUART_std.c ****         if ((pDescr[USBUART_CONFIG_DESCR_ATTRIB] & USBUART_CONFIG_DESCR_ATTRIB_SELF_POWERED) != 0u)
 619:Generated_Source\PSoC5/USBUART_std.c ****         {
 620:Generated_Source\PSoC5/USBUART_std.c ****             USBUART_deviceStatus |= (uint8)  USBUART_DEVICE_STATUS_SELF_POWERED;
 621:Generated_Source\PSoC5/USBUART_std.c ****         }
 622:Generated_Source\PSoC5/USBUART_std.c ****         else
 623:Generated_Source\PSoC5/USBUART_std.c ****         {
 624:Generated_Source\PSoC5/USBUART_std.c ****             USBUART_deviceStatus &= (uint8) ~USBUART_DEVICE_STATUS_SELF_POWERED;
 625:Generated_Source\PSoC5/USBUART_std.c ****         }
 626:Generated_Source\PSoC5/USBUART_std.c ****         
 627:Generated_Source\PSoC5/USBUART_std.c ****         /* Move to next element */
 628:Generated_Source\PSoC5/USBUART_std.c ****         pTmp = &pTmp[1u];
 629:Generated_Source\PSoC5/USBUART_std.c ****         ep = pTmp->c;  /* For this table, c is the number of endpoints configurations  */
 630:Generated_Source\PSoC5/USBUART_std.c **** 
 631:Generated_Source\PSoC5/USBUART_std.c ****         #if (USBUART_EP_MANAGEMENT_MANUAL && USBUART_EP_ALLOC_DYNAMIC)
 632:Generated_Source\PSoC5/USBUART_std.c ****             /* Configure for dynamic EP memory allocation */
 633:Generated_Source\PSoC5/USBUART_std.c ****             /* p_list points the endpoint setting table. */
 634:Generated_Source\PSoC5/USBUART_std.c ****             pEP = (T_USBUART_EP_SETTINGS_BLOCK *) pTmp->p_list;
 635:Generated_Source\PSoC5/USBUART_std.c ****             
 636:Generated_Source\PSoC5/USBUART_std.c ****             for (i = 0u; i < ep; i++)
 637:Generated_Source\PSoC5/USBUART_std.c ****             {     
 638:Generated_Source\PSoC5/USBUART_std.c ****                 /* Compare current Alternate setting with EP Alt */
 639:Generated_Source\PSoC5/USBUART_std.c ****                 if (USBUART_interfaceSetting[pEP->interface] == pEP->altSetting)
 640:Generated_Source\PSoC5/USBUART_std.c ****                 {                                                          
 641:Generated_Source\PSoC5/USBUART_std.c ****                     curEp  = pEP->addr & USBUART_DIR_UNUSED;
 642:Generated_Source\PSoC5/USBUART_std.c ****                     epType = pEP->attributes & USBUART_EP_TYPE_MASK;
 643:Generated_Source\PSoC5/USBUART_std.c ****                     
 644:Generated_Source\PSoC5/USBUART_std.c ****                     USBUART_EP[curEp].addr       = pEP->addr;
 645:Generated_Source\PSoC5/USBUART_std.c ****                     USBUART_EP[curEp].attrib     = pEP->attributes;
 646:Generated_Source\PSoC5/USBUART_std.c ****                     USBUART_EP[curEp].bufferSize = pEP->bufferSize;
 647:Generated_Source\PSoC5/USBUART_std.c **** 
 648:Generated_Source\PSoC5/USBUART_std.c ****                     if (0u != (pEP->addr & USBUART_DIR_IN))
 649:Generated_Source\PSoC5/USBUART_std.c ****                     {
 650:Generated_Source\PSoC5/USBUART_std.c ****                         /* IN Endpoint */
 651:Generated_Source\PSoC5/USBUART_std.c ****                         USBUART_EP[curEp].epMode     = USBUART_GET_ACTIVE_IN_EP_CR0_MODE(epType);
 652:Generated_Source\PSoC5/USBUART_std.c ****                         USBUART_EP[curEp].apiEpState = USBUART_EVENT_PENDING;
 653:Generated_Source\PSoC5/USBUART_std.c ****                     
 654:Generated_Source\PSoC5/USBUART_std.c ****                     #if (defined(USBUART_ENABLE_MIDI_STREAMING) && (USBUART_MIDI_IN_BUFF_SIZE > 0))
 655:Generated_Source\PSoC5/USBUART_std.c ****                         if ((pEP->bMisc == USBUART_CLASS_AUDIO) && (epType == USBUART_EP_TYPE_BULK)
 656:Generated_Source\PSoC5/USBUART_std.c ****                         {
 657:Generated_Source\PSoC5/USBUART_std.c ****                             USBUART_midi_in_ep = curEp;
 658:Generated_Source\PSoC5/USBUART_std.c ****                         }
ARM GAS  C:\Users\ingan\AppData\Local\Temp\cc5yuDXv.s 			page 13


 659:Generated_Source\PSoC5/USBUART_std.c ****                     #endif  /* (USBUART_ENABLE_MIDI_STREAMING) */
 660:Generated_Source\PSoC5/USBUART_std.c ****                     }
 661:Generated_Source\PSoC5/USBUART_std.c ****                     else
 662:Generated_Source\PSoC5/USBUART_std.c ****                     {
 663:Generated_Source\PSoC5/USBUART_std.c ****                         /* OUT Endpoint */
 664:Generated_Source\PSoC5/USBUART_std.c ****                         USBUART_EP[curEp].epMode     = USBUART_GET_ACTIVE_OUT_EP_CR0_MODE(epType);
 665:Generated_Source\PSoC5/USBUART_std.c ****                         USBUART_EP[curEp].apiEpState = USBUART_NO_EVENT_PENDING;
 666:Generated_Source\PSoC5/USBUART_std.c ****                         
 667:Generated_Source\PSoC5/USBUART_std.c ****                     #if (defined(USBUART_ENABLE_MIDI_STREAMING) && (USBUART_MIDI_OUT_BUFF_SIZE > 0)
 668:Generated_Source\PSoC5/USBUART_std.c ****                         if ((pEP->bMisc == USBUART_CLASS_AUDIO) && (epType == USBUART_EP_TYPE_BULK)
 669:Generated_Source\PSoC5/USBUART_std.c ****                         {
 670:Generated_Source\PSoC5/USBUART_std.c ****                             USBUART_midi_out_ep = curEp;
 671:Generated_Source\PSoC5/USBUART_std.c ****                         }
 672:Generated_Source\PSoC5/USBUART_std.c ****                     #endif  /* (USBUART_ENABLE_MIDI_STREAMING) */
 673:Generated_Source\PSoC5/USBUART_std.c ****                     }
 674:Generated_Source\PSoC5/USBUART_std.c **** 
 675:Generated_Source\PSoC5/USBUART_std.c ****                 #if(defined (USBUART_ENABLE_CDC_CLASS))
 676:Generated_Source\PSoC5/USBUART_std.c ****                     if((pEP->bMisc == USBUART_CLASS_CDC_DATA) ||(pEP->bMisc == USBUART_CLASS_CDC))
 677:Generated_Source\PSoC5/USBUART_std.c ****                     {
 678:Generated_Source\PSoC5/USBUART_std.c ****                         cdcComNums = USBUART_Cdc_EpInit(pEP, curEp, cdcComNums);
 679:Generated_Source\PSoC5/USBUART_std.c ****                     }
 680:Generated_Source\PSoC5/USBUART_std.c ****                 #endif  /* (USBUART_ENABLE_CDC_CLASS) */
 681:Generated_Source\PSoC5/USBUART_std.c ****                 }
 682:Generated_Source\PSoC5/USBUART_std.c ****                 
 683:Generated_Source\PSoC5/USBUART_std.c ****                 pEP = &pEP[1u];
 684:Generated_Source\PSoC5/USBUART_std.c ****             }
 685:Generated_Source\PSoC5/USBUART_std.c ****             
 686:Generated_Source\PSoC5/USBUART_std.c ****         #else
 687:Generated_Source\PSoC5/USBUART_std.c ****             for (i = USBUART_EP1; i < USBUART_MAX_EP; ++i)
 688:Generated_Source\PSoC5/USBUART_std.c ****             {
 689:Generated_Source\PSoC5/USBUART_std.c ****                 /* p_list points the endpoint setting table. */
 690:Generated_Source\PSoC5/USBUART_std.c ****                 pEP = (const T_USBUART_EP_SETTINGS_BLOCK CYCODE *) pTmp->p_list;
 691:Generated_Source\PSoC5/USBUART_std.c ****                 /* Find max length for each EP and select it (length could be different in differen
 692:Generated_Source\PSoC5/USBUART_std.c ****                 /* but other settings should be correct with regards to Interface alt Setting */
 693:Generated_Source\PSoC5/USBUART_std.c ****                 
 694:Generated_Source\PSoC5/USBUART_std.c ****                 for (curEp = 0u; curEp < ep; ++curEp)
 695:Generated_Source\PSoC5/USBUART_std.c ****                 {
 696:Generated_Source\PSoC5/USBUART_std.c ****                     if (i == (pEP->addr & USBUART_DIR_UNUSED))
 697:Generated_Source\PSoC5/USBUART_std.c ****                     {
 698:Generated_Source\PSoC5/USBUART_std.c ****                         /* Compare endpoint buffers size with current size to find greater. */
 699:Generated_Source\PSoC5/USBUART_std.c ****                         if (USBUART_EP[i].bufferSize < pEP->bufferSize)
 700:Generated_Source\PSoC5/USBUART_std.c ****                         {
 701:Generated_Source\PSoC5/USBUART_std.c ****                             USBUART_EP[i].bufferSize = pEP->bufferSize;
 702:Generated_Source\PSoC5/USBUART_std.c ****                         }
 703:Generated_Source\PSoC5/USBUART_std.c ****                         
 704:Generated_Source\PSoC5/USBUART_std.c ****                         /* Compare current Alternate setting with EP Alt */
 705:Generated_Source\PSoC5/USBUART_std.c ****                         if (USBUART_interfaceSetting[pEP->interface] == pEP->altSetting)
 706:Generated_Source\PSoC5/USBUART_std.c ****                         {                            
 707:Generated_Source\PSoC5/USBUART_std.c ****                             USBUART_EP[i].addr = pEP->addr;
 708:Generated_Source\PSoC5/USBUART_std.c ****                             USBUART_EP[i].attrib = pEP->attributes;
 709:Generated_Source\PSoC5/USBUART_std.c ****                             
 710:Generated_Source\PSoC5/USBUART_std.c ****                             epType = pEP->attributes & USBUART_EP_TYPE_MASK;
 711:Generated_Source\PSoC5/USBUART_std.c ****                             
 712:Generated_Source\PSoC5/USBUART_std.c ****                             if (0u != (pEP->addr & USBUART_DIR_IN))
 713:Generated_Source\PSoC5/USBUART_std.c ****                             {
 714:Generated_Source\PSoC5/USBUART_std.c ****                                 /* IN Endpoint */
 715:Generated_Source\PSoC5/USBUART_std.c ****                                 USBUART_EP[i].epMode     = USBUART_GET_ACTIVE_IN_EP_CR0_MODE(epType
ARM GAS  C:\Users\ingan\AppData\Local\Temp\cc5yuDXv.s 			page 14


 716:Generated_Source\PSoC5/USBUART_std.c ****                                 USBUART_EP[i].apiEpState = USBUART_EVENT_PENDING;
 717:Generated_Source\PSoC5/USBUART_std.c ****                                 
 718:Generated_Source\PSoC5/USBUART_std.c ****                             #if (defined(USBUART_ENABLE_MIDI_STREAMING) && (USBUART_MIDI_IN_BUFF_SI
 719:Generated_Source\PSoC5/USBUART_std.c ****                                 if ((pEP->bMisc == USBUART_CLASS_AUDIO) && (epType == USBUART_EP_TY
 720:Generated_Source\PSoC5/USBUART_std.c ****                                 {
 721:Generated_Source\PSoC5/USBUART_std.c ****                                     USBUART_midi_in_ep = i;
 722:Generated_Source\PSoC5/USBUART_std.c ****                                 }
 723:Generated_Source\PSoC5/USBUART_std.c ****                             #endif  /* (USBUART_ENABLE_MIDI_STREAMING) */
 724:Generated_Source\PSoC5/USBUART_std.c ****                             }
 725:Generated_Source\PSoC5/USBUART_std.c ****                             else
 726:Generated_Source\PSoC5/USBUART_std.c ****                             {
 727:Generated_Source\PSoC5/USBUART_std.c ****                                 /* OUT Endpoint */
 728:Generated_Source\PSoC5/USBUART_std.c ****                                 USBUART_EP[i].epMode     = USBUART_GET_ACTIVE_OUT_EP_CR0_MODE(epTyp
 729:Generated_Source\PSoC5/USBUART_std.c ****                                 USBUART_EP[i].apiEpState = USBUART_NO_EVENT_PENDING;
 730:Generated_Source\PSoC5/USBUART_std.c ****                                 
 731:Generated_Source\PSoC5/USBUART_std.c ****                             #if (defined(USBUART_ENABLE_MIDI_STREAMING) && (USBUART_MIDI_OUT_BUFF_S
 732:Generated_Source\PSoC5/USBUART_std.c ****                                 if ((pEP->bMisc == USBUART_CLASS_AUDIO) && (epType == USBUART_EP_TY
 733:Generated_Source\PSoC5/USBUART_std.c ****                                 {
 734:Generated_Source\PSoC5/USBUART_std.c ****                                     USBUART_midi_out_ep = i;
 735:Generated_Source\PSoC5/USBUART_std.c ****                                 }
 736:Generated_Source\PSoC5/USBUART_std.c ****                             #endif  /* (USBUART_ENABLE_MIDI_STREAMING) */
 737:Generated_Source\PSoC5/USBUART_std.c ****                             }
 738:Generated_Source\PSoC5/USBUART_std.c **** 
 739:Generated_Source\PSoC5/USBUART_std.c ****                         #if (defined(USBUART_ENABLE_CDC_CLASS))
 740:Generated_Source\PSoC5/USBUART_std.c ****                             if((pEP->bMisc == USBUART_CLASS_CDC_DATA) ||(pEP->bMisc == USBUART_CLAS
 741:Generated_Source\PSoC5/USBUART_std.c ****                             {
 742:Generated_Source\PSoC5/USBUART_std.c ****                                 cdcComNums = USBUART_Cdc_EpInit(pEP, i, cdcComNums);
 743:Generated_Source\PSoC5/USBUART_std.c ****                             }
 744:Generated_Source\PSoC5/USBUART_std.c ****                         #endif  /* (USBUART_ENABLE_CDC_CLASS) */
 745:Generated_Source\PSoC5/USBUART_std.c **** 
 746:Generated_Source\PSoC5/USBUART_std.c ****                             #if (USBUART_EP_MANAGEMENT_DMA_AUTO)
 747:Generated_Source\PSoC5/USBUART_std.c ****                                 break;  /* Use first EP setting in Auto memory management */
 748:Generated_Source\PSoC5/USBUART_std.c ****                             #endif /* (USBUART_EP_MANAGEMENT_DMA_AUTO) */
 749:Generated_Source\PSoC5/USBUART_std.c ****                         }
 750:Generated_Source\PSoC5/USBUART_std.c ****                     }
 751:Generated_Source\PSoC5/USBUART_std.c ****                     
 752:Generated_Source\PSoC5/USBUART_std.c ****                     pEP = &pEP[1u];
 753:Generated_Source\PSoC5/USBUART_std.c ****                 }
 754:Generated_Source\PSoC5/USBUART_std.c ****             }
 755:Generated_Source\PSoC5/USBUART_std.c ****         #endif /*  (USBUART_EP_MANAGEMENT_MANUAL && USBUART_EP_ALLOC_DYNAMIC) */
 756:Generated_Source\PSoC5/USBUART_std.c **** 
 757:Generated_Source\PSoC5/USBUART_std.c ****         /* Init class array for each interface and interface number for each EP.
 758:Generated_Source\PSoC5/USBUART_std.c ****         *  It is used for handling Class specific requests directed to either an
 759:Generated_Source\PSoC5/USBUART_std.c ****         *  interface or the endpoint.
 760:Generated_Source\PSoC5/USBUART_std.c ****         */
 761:Generated_Source\PSoC5/USBUART_std.c ****         /* p_list points the endpoint setting table. */
 762:Generated_Source\PSoC5/USBUART_std.c ****         pEP = (const T_USBUART_EP_SETTINGS_BLOCK CYCODE *) pTmp->p_list;
 763:Generated_Source\PSoC5/USBUART_std.c ****         for (i = 0u; i < ep; i++)
 764:Generated_Source\PSoC5/USBUART_std.c ****         {
 765:Generated_Source\PSoC5/USBUART_std.c ****             /* Configure interface number for each EP */
 766:Generated_Source\PSoC5/USBUART_std.c ****             USBUART_EP[pEP->addr & USBUART_DIR_UNUSED].interface = pEP->interface;
 767:Generated_Source\PSoC5/USBUART_std.c ****             pEP = &pEP[1u];
 768:Generated_Source\PSoC5/USBUART_std.c ****         }
 769:Generated_Source\PSoC5/USBUART_std.c ****         
 770:Generated_Source\PSoC5/USBUART_std.c ****         /* Init pointer on interface class table */
 771:Generated_Source\PSoC5/USBUART_std.c ****         USBUART_interfaceClass = USBUART_GetInterfaceClassTablePtr();
 772:Generated_Source\PSoC5/USBUART_std.c ****         
ARM GAS  C:\Users\ingan\AppData\Local\Temp\cc5yuDXv.s 			page 15


 773:Generated_Source\PSoC5/USBUART_std.c ****     /* Set the endpoint buffer addresses */
 774:Generated_Source\PSoC5/USBUART_std.c ****     #if (!USBUART_EP_MANAGEMENT_DMA_AUTO)
 775:Generated_Source\PSoC5/USBUART_std.c ****         buffCount = 0u;
 776:Generated_Source\PSoC5/USBUART_std.c ****         for (ep = USBUART_EP1; ep < USBUART_MAX_EP; ++ep)
 777:Generated_Source\PSoC5/USBUART_std.c ****         {
 778:Generated_Source\PSoC5/USBUART_std.c ****             USBUART_EP[ep].buffOffset = buffCount;        
 779:Generated_Source\PSoC5/USBUART_std.c ****             buffCount += USBUART_EP[ep].bufferSize;
 780:Generated_Source\PSoC5/USBUART_std.c ****             
 781:Generated_Source\PSoC5/USBUART_std.c ****         #if (USBUART_GEN_16BITS_EP_ACCESS)
 782:Generated_Source\PSoC5/USBUART_std.c ****             /* Align EP buffers to be event size to access 16-bits DR register. */
 783:Generated_Source\PSoC5/USBUART_std.c ****             buffCount += (0u != (buffCount & 0x01u)) ? 1u : 0u;
 784:Generated_Source\PSoC5/USBUART_std.c ****         #endif /* (USBUART_GEN_16BITS_EP_ACCESS) */            
 785:Generated_Source\PSoC5/USBUART_std.c ****         }
 786:Generated_Source\PSoC5/USBUART_std.c ****     #endif /* (!USBUART_EP_MANAGEMENT_DMA_AUTO) */
 787:Generated_Source\PSoC5/USBUART_std.c **** 
 788:Generated_Source\PSoC5/USBUART_std.c ****         /* Configure hardware registers */
 789:Generated_Source\PSoC5/USBUART_std.c ****         USBUART_ConfigReg();
 790:Generated_Source\PSoC5/USBUART_std.c ****     }
 791:Generated_Source\PSoC5/USBUART_std.c **** }
 792:Generated_Source\PSoC5/USBUART_std.c **** 
 793:Generated_Source\PSoC5/USBUART_std.c **** 
 794:Generated_Source\PSoC5/USBUART_std.c **** /*******************************************************************************
 795:Generated_Source\PSoC5/USBUART_std.c **** * Function Name: USBUART_ConfigAltChanged
 796:Generated_Source\PSoC5/USBUART_std.c **** ****************************************************************************//**
 797:Generated_Source\PSoC5/USBUART_std.c **** *
 798:Generated_Source\PSoC5/USBUART_std.c **** *  This routine update configuration for the required endpoints only.
 799:Generated_Source\PSoC5/USBUART_std.c **** *  It is called after SET_INTERFACE request when Static memory allocation used.
 800:Generated_Source\PSoC5/USBUART_std.c **** *
 801:Generated_Source\PSoC5/USBUART_std.c **** * \reentrant
 802:Generated_Source\PSoC5/USBUART_std.c **** *  No.
 803:Generated_Source\PSoC5/USBUART_std.c **** *
 804:Generated_Source\PSoC5/USBUART_std.c **** *******************************************************************************/
 805:Generated_Source\PSoC5/USBUART_std.c **** void USBUART_ConfigAltChanged(void) 
  27              		.loc 1 805 0
  28              		.cfi_startproc
  29              		@ args = 0, pretend = 0, frame = 0
  30              		@ frame_needed = 0, uses_anonymous_args = 0
 806:Generated_Source\PSoC5/USBUART_std.c **** {
 807:Generated_Source\PSoC5/USBUART_std.c ****     uint8 ep;
 808:Generated_Source\PSoC5/USBUART_std.c ****     uint8 curEp;
 809:Generated_Source\PSoC5/USBUART_std.c ****     uint8 epType;
 810:Generated_Source\PSoC5/USBUART_std.c ****     uint8 i;
 811:Generated_Source\PSoC5/USBUART_std.c ****     uint8 interfaceNum;
 812:Generated_Source\PSoC5/USBUART_std.c **** 
 813:Generated_Source\PSoC5/USBUART_std.c ****     const T_USBUART_LUT CYCODE *pTmp;
 814:Generated_Source\PSoC5/USBUART_std.c ****     const T_USBUART_EP_SETTINGS_BLOCK CYCODE *pEP;
 815:Generated_Source\PSoC5/USBUART_std.c **** 
 816:Generated_Source\PSoC5/USBUART_std.c ****     /* Init Endpoints and Device Status if configured */
 817:Generated_Source\PSoC5/USBUART_std.c ****     if (USBUART_configuration > 0u)
 818:Generated_Source\PSoC5/USBUART_std.c ****     {
 819:Generated_Source\PSoC5/USBUART_std.c ****         /* Get number of endpoints configurations (ep). */
 820:Generated_Source\PSoC5/USBUART_std.c ****         pTmp = USBUART_GetConfigTablePtr(USBUART_configuration - 1u);
  31              		.loc 1 820 0
  32 0000 4F4B     		ldr	r3, .L19
  33              	.LBB24:
  34              	.LBB25:
 821:Generated_Source\PSoC5/USBUART_std.c ****         pTmp = &pTmp[1u];
ARM GAS  C:\Users\ingan\AppData\Local\Temp\cc5yuDXv.s 			page 16


 822:Generated_Source\PSoC5/USBUART_std.c ****         ep = pTmp->c;
 823:Generated_Source\PSoC5/USBUART_std.c **** 
 824:Generated_Source\PSoC5/USBUART_std.c ****         /* Get pointer to endpoints setting table (pEP). */
 825:Generated_Source\PSoC5/USBUART_std.c ****         pEP = (const T_USBUART_EP_SETTINGS_BLOCK CYCODE *) pTmp->p_list;
 826:Generated_Source\PSoC5/USBUART_std.c ****         
 827:Generated_Source\PSoC5/USBUART_std.c ****         /* Look through all possible endpoint configurations. Find endpoints 
 828:Generated_Source\PSoC5/USBUART_std.c ****         * which belong to current interface and alternate settings for 
 829:Generated_Source\PSoC5/USBUART_std.c ****         * re-configuration.
 830:Generated_Source\PSoC5/USBUART_std.c ****         */
 831:Generated_Source\PSoC5/USBUART_std.c ****         interfaceNum = USBUART_interfaceNumber;
 832:Generated_Source\PSoC5/USBUART_std.c ****         for (i = 0u; i < ep; i++)
 833:Generated_Source\PSoC5/USBUART_std.c ****         {
 834:Generated_Source\PSoC5/USBUART_std.c ****             /* Find endpoints which belong to current interface and alternate settings. */
 835:Generated_Source\PSoC5/USBUART_std.c ****             if ((interfaceNum == pEP->interface) && 
 836:Generated_Source\PSoC5/USBUART_std.c ****                 (USBUART_interfaceSetting[interfaceNum] == pEP->altSetting))
 837:Generated_Source\PSoC5/USBUART_std.c ****             {
 838:Generated_Source\PSoC5/USBUART_std.c ****                 curEp  = ((uint8) pEP->addr & USBUART_DIR_UNUSED);
 839:Generated_Source\PSoC5/USBUART_std.c ****                 epType = ((uint8) pEP->attributes & USBUART_EP_TYPE_MASK);
 840:Generated_Source\PSoC5/USBUART_std.c ****                 
 841:Generated_Source\PSoC5/USBUART_std.c ****                 /* Change the SIE mode for the selected EP to NAK ALL */
 842:Generated_Source\PSoC5/USBUART_std.c ****                 USBUART_EP[curEp].epToggle   = 0u;
 843:Generated_Source\PSoC5/USBUART_std.c ****                 USBUART_EP[curEp].addr       = pEP->addr;
 844:Generated_Source\PSoC5/USBUART_std.c ****                 USBUART_EP[curEp].attrib     = pEP->attributes;
 845:Generated_Source\PSoC5/USBUART_std.c ****                 USBUART_EP[curEp].bufferSize = pEP->bufferSize;
 846:Generated_Source\PSoC5/USBUART_std.c **** 
 847:Generated_Source\PSoC5/USBUART_std.c ****                 if (0u != (pEP->addr & USBUART_DIR_IN))
 848:Generated_Source\PSoC5/USBUART_std.c ****                 {
 849:Generated_Source\PSoC5/USBUART_std.c ****                     /* IN Endpoint */
 850:Generated_Source\PSoC5/USBUART_std.c ****                     USBUART_EP[curEp].epMode     = USBUART_GET_ACTIVE_IN_EP_CR0_MODE(epType);
 851:Generated_Source\PSoC5/USBUART_std.c ****                     USBUART_EP[curEp].apiEpState = USBUART_EVENT_PENDING;
 852:Generated_Source\PSoC5/USBUART_std.c ****                 }
 853:Generated_Source\PSoC5/USBUART_std.c ****                 else
 854:Generated_Source\PSoC5/USBUART_std.c ****                 {
 855:Generated_Source\PSoC5/USBUART_std.c ****                     /* OUT Endpoint */
 856:Generated_Source\PSoC5/USBUART_std.c ****                     USBUART_EP[curEp].epMode     = USBUART_GET_ACTIVE_OUT_EP_CR0_MODE(epType);
 857:Generated_Source\PSoC5/USBUART_std.c ****                     USBUART_EP[curEp].apiEpState = USBUART_NO_EVENT_PENDING;
 858:Generated_Source\PSoC5/USBUART_std.c ****                 }
 859:Generated_Source\PSoC5/USBUART_std.c ****                 
 860:Generated_Source\PSoC5/USBUART_std.c ****                 /* Make SIE to NAK any endpoint requests */
 861:Generated_Source\PSoC5/USBUART_std.c ****                 USBUART_SIE_EP_BASE.sieEp[curEp].epCr0 = USBUART_MODE_NAK_IN_OUT;
 862:Generated_Source\PSoC5/USBUART_std.c **** 
 863:Generated_Source\PSoC5/USBUART_std.c ****             #if (USBUART_EP_MANAGEMENT_DMA_AUTO)
 864:Generated_Source\PSoC5/USBUART_std.c ****                 /* Clear IN data ready. */
 865:Generated_Source\PSoC5/USBUART_std.c ****                 USBUART_ARB_EP_BASE.arbEp[curEp].epCfg &= (uint8) ~USBUART_ARB_EPX_CFG_IN_DATA_RDY;
 866:Generated_Source\PSoC5/USBUART_std.c **** 
 867:Generated_Source\PSoC5/USBUART_std.c ****                 /* Select endpoint number of reconfiguration */
 868:Generated_Source\PSoC5/USBUART_std.c ****                 USBUART_DYN_RECONFIG_REG = (uint8) ((curEp - 1u) << USBUART_DYN_RECONFIG_EP_SHIFT);
 869:Generated_Source\PSoC5/USBUART_std.c ****                 
 870:Generated_Source\PSoC5/USBUART_std.c ****                 /* Request for dynamic re-configuration of endpoint. */
 871:Generated_Source\PSoC5/USBUART_std.c ****                 USBUART_DYN_RECONFIG_REG |= USBUART_DYN_RECONFIG_ENABLE;
 872:Generated_Source\PSoC5/USBUART_std.c ****                 
 873:Generated_Source\PSoC5/USBUART_std.c ****                 /* Wait until block is ready for re-configuration */
 874:Generated_Source\PSoC5/USBUART_std.c ****                 while (0u == (USBUART_DYN_RECONFIG_REG & USBUART_DYN_RECONFIG_RDY_STS))
 875:Generated_Source\PSoC5/USBUART_std.c ****                 {
 876:Generated_Source\PSoC5/USBUART_std.c ****                 }
 877:Generated_Source\PSoC5/USBUART_std.c ****                 
 878:Generated_Source\PSoC5/USBUART_std.c ****                 /* Once DYN_RECONFIG_RDY_STS bit is set, FW can change the EP configuration. */
ARM GAS  C:\Users\ingan\AppData\Local\Temp\cc5yuDXv.s 			page 17


 879:Generated_Source\PSoC5/USBUART_std.c ****                 /* Change EP Type with new direction */
 880:Generated_Source\PSoC5/USBUART_std.c ****                 if (0u != (pEP->addr & USBUART_DIR_IN))
 881:Generated_Source\PSoC5/USBUART_std.c ****                 {
 882:Generated_Source\PSoC5/USBUART_std.c ****                     /* Set endpoint type: 0 - IN and 1 - OUT. */
 883:Generated_Source\PSoC5/USBUART_std.c ****                     USBUART_EP_TYPE_REG &= (uint8) ~(uint8)((uint8) 0x01u << (curEp - 1u));
 884:Generated_Source\PSoC5/USBUART_std.c ****                     
 885:Generated_Source\PSoC5/USBUART_std.c ****                 #if (CY_PSOC4)
 886:Generated_Source\PSoC5/USBUART_std.c ****                     /* Clear DMA_TERMIN for IN endpoint */
 887:Generated_Source\PSoC5/USBUART_std.c ****                     USBUART_ARB_EP_BASE.arbEp[curEp].epIntEn &= (uint32) ~USBUART_ARB_EPX_INT_DMA_T
 888:Generated_Source\PSoC5/USBUART_std.c ****                 #endif /* (CY_PSOC4) */
 889:Generated_Source\PSoC5/USBUART_std.c ****                 }
 890:Generated_Source\PSoC5/USBUART_std.c ****                 else
 891:Generated_Source\PSoC5/USBUART_std.c ****                 {
 892:Generated_Source\PSoC5/USBUART_std.c ****                     /* Set endpoint type: 0 - IN and 1- OUT. */
 893:Generated_Source\PSoC5/USBUART_std.c ****                     USBUART_EP_TYPE_REG |= (uint8) ((uint8) 0x01u << (curEp - 1u));
 894:Generated_Source\PSoC5/USBUART_std.c ****                     
 895:Generated_Source\PSoC5/USBUART_std.c ****                 #if (CY_PSOC4)
 896:Generated_Source\PSoC5/USBUART_std.c ****                     /* Set DMA_TERMIN for OUT endpoint */
 897:Generated_Source\PSoC5/USBUART_std.c ****                     USBUART_ARB_EP_BASE.arbEp[curEp].epIntEn |= (uint32) USBUART_ARB_EPX_INT_DMA_TE
 898:Generated_Source\PSoC5/USBUART_std.c ****                 #endif /* (CY_PSOC4) */
 899:Generated_Source\PSoC5/USBUART_std.c ****                 }
 900:Generated_Source\PSoC5/USBUART_std.c ****                 
 901:Generated_Source\PSoC5/USBUART_std.c ****                 /* Complete dynamic re-configuration: all endpoint related status and signals 
 902:Generated_Source\PSoC5/USBUART_std.c ****                 * are set into the default state.
 903:Generated_Source\PSoC5/USBUART_std.c ****                 */
 904:Generated_Source\PSoC5/USBUART_std.c ****                 USBUART_DYN_RECONFIG_REG &= (uint8) ~USBUART_DYN_RECONFIG_ENABLE;
 905:Generated_Source\PSoC5/USBUART_std.c **** 
 906:Generated_Source\PSoC5/USBUART_std.c ****             #else
 907:Generated_Source\PSoC5/USBUART_std.c ****                 USBUART_SIE_EP_BASE.sieEp[curEp].epCnt0 = HI8(USBUART_EP[curEp].bufferSize);
 908:Generated_Source\PSoC5/USBUART_std.c ****                 USBUART_SIE_EP_BASE.sieEp[curEp].epCnt1 = LO8(USBUART_EP[curEp].bufferSize);
 909:Generated_Source\PSoC5/USBUART_std.c ****                 
 910:Generated_Source\PSoC5/USBUART_std.c ****                 #if (CY_PSOC4)
 911:Generated_Source\PSoC5/USBUART_std.c ****                     USBUART_ARB_EP16_BASE.arbEp[curEp].rwRa16  = (uint32) USBUART_EP[curEp].buffOff
 912:Generated_Source\PSoC5/USBUART_std.c ****                     USBUART_ARB_EP16_BASE.arbEp[curEp].rwWa16  = (uint32) USBUART_EP[curEp].buffOff
 913:Generated_Source\PSoC5/USBUART_std.c ****                 #else
 914:Generated_Source\PSoC5/USBUART_std.c ****                     USBUART_ARB_EP_BASE.arbEp[curEp].rwRa    = LO8(USBUART_EP[curEp].buffOffset);
 915:Generated_Source\PSoC5/USBUART_std.c ****                     USBUART_ARB_EP_BASE.arbEp[curEp].rwRaMsb = HI8(USBUART_EP[curEp].buffOffset);
 916:Generated_Source\PSoC5/USBUART_std.c ****                     USBUART_ARB_EP_BASE.arbEp[curEp].rwWa    = LO8(USBUART_EP[curEp].buffOffset);
 917:Generated_Source\PSoC5/USBUART_std.c ****                     USBUART_ARB_EP_BASE.arbEp[curEp].rwWaMsb = HI8(USBUART_EP[curEp].buffOffset);
 918:Generated_Source\PSoC5/USBUART_std.c ****                 #endif /* (CY_PSOC4) */                
 919:Generated_Source\PSoC5/USBUART_std.c ****             #endif /* (USBUART_EP_MANAGEMENT_DMA_AUTO) */
 920:Generated_Source\PSoC5/USBUART_std.c ****             }
 921:Generated_Source\PSoC5/USBUART_std.c ****             
 922:Generated_Source\PSoC5/USBUART_std.c ****             pEP = &pEP[1u]; /* Get next EP element */
 923:Generated_Source\PSoC5/USBUART_std.c ****         }
 924:Generated_Source\PSoC5/USBUART_std.c ****         
 925:Generated_Source\PSoC5/USBUART_std.c ****         /* The main loop has to re-enable DMA and OUT endpoint */
 926:Generated_Source\PSoC5/USBUART_std.c ****     }
 927:Generated_Source\PSoC5/USBUART_std.c **** }
 928:Generated_Source\PSoC5/USBUART_std.c **** 
 929:Generated_Source\PSoC5/USBUART_std.c **** 
 930:Generated_Source\PSoC5/USBUART_std.c **** /*******************************************************************************
 931:Generated_Source\PSoC5/USBUART_std.c **** * Function Name: USBUART_GetConfigTablePtr
 932:Generated_Source\PSoC5/USBUART_std.c **** ****************************************************************************//**
 933:Generated_Source\PSoC5/USBUART_std.c **** *
 934:Generated_Source\PSoC5/USBUART_std.c **** *  This routine returns a pointer a configuration table entry
 935:Generated_Source\PSoC5/USBUART_std.c **** *
ARM GAS  C:\Users\ingan\AppData\Local\Temp\cc5yuDXv.s 			page 18


 936:Generated_Source\PSoC5/USBUART_std.c **** *  \param confIndex:  Configuration Index
 937:Generated_Source\PSoC5/USBUART_std.c **** *
 938:Generated_Source\PSoC5/USBUART_std.c **** * \return
 939:Generated_Source\PSoC5/USBUART_std.c **** *  Device Descriptor pointer or NULL when descriptor does not exist.
 940:Generated_Source\PSoC5/USBUART_std.c **** *
 941:Generated_Source\PSoC5/USBUART_std.c **** *******************************************************************************/
 942:Generated_Source\PSoC5/USBUART_std.c **** const T_USBUART_LUT CYCODE *USBUART_GetConfigTablePtr(uint8 confIndex)
 943:Generated_Source\PSoC5/USBUART_std.c ****                                                         
 944:Generated_Source\PSoC5/USBUART_std.c **** {
 945:Generated_Source\PSoC5/USBUART_std.c ****     /* Device Table */
 946:Generated_Source\PSoC5/USBUART_std.c ****     const T_USBUART_LUT CYCODE *pTmp;
 947:Generated_Source\PSoC5/USBUART_std.c **** 
 948:Generated_Source\PSoC5/USBUART_std.c ****     pTmp = (const T_USBUART_LUT CYCODE *) USBUART_TABLE[USBUART_device].p_list;
  35              		.loc 1 948 0
  36 0002 5049     		ldr	r1, .L19+4
  37              	.LBE25:
  38              	.LBE24:
 820:Generated_Source\PSoC5/USBUART_std.c ****         pTmp = &pTmp[1u];
  39              		.loc 1 820 0
  40 0004 1B78     		ldrb	r3, [r3]	@ zero_extendqisi2
  41              	.LBB29:
  42              	.LBB26:
  43              		.loc 1 948 0
  44 0006 504A     		ldr	r2, .L19+8
  45 0008 0978     		ldrb	r1, [r1]	@ zero_extendqisi2
  46              	.LBE26:
  47              	.LBE29:
 820:Generated_Source\PSoC5/USBUART_std.c ****         pTmp = &pTmp[1u];
  48              		.loc 1 820 0
  49 000a 013B     		subs	r3, r3, #1
  50              	.LBB30:
  51              	.LBB27:
  52              		.loc 1 948 0
  53 000c 02EBC102 		add	r2, r2, r1, lsl #3
  54 0010 5268     		ldr	r2, [r2, #4]
  55              	.LBE27:
  56              	.LBE30:
 820:Generated_Source\PSoC5/USBUART_std.c ****         pTmp = &pTmp[1u];
  57              		.loc 1 820 0
  58 0012 DBB2     		uxtb	r3, r3
  59              	.LVL0:
  60              	.LBB31:
  61              	.LBB28:
 949:Generated_Source\PSoC5/USBUART_std.c **** 
 950:Generated_Source\PSoC5/USBUART_std.c ****     /* The first entry points to the Device Descriptor,
 951:Generated_Source\PSoC5/USBUART_std.c ****     *  the second entry point to the BOS Descriptor
 952:Generated_Source\PSoC5/USBUART_std.c ****     *  the rest configuration entries.
 953:Generated_Source\PSoC5/USBUART_std.c ****     *  Set pointer to the first Configuration Descriptor
 954:Generated_Source\PSoC5/USBUART_std.c ****     */
 955:Generated_Source\PSoC5/USBUART_std.c ****     pTmp = &pTmp[2u];
 956:Generated_Source\PSoC5/USBUART_std.c ****     /* For this table, c is the number of configuration descriptors  */
 957:Generated_Source\PSoC5/USBUART_std.c ****     if(confIndex >= pTmp->c)   /* Verify that required configuration descriptor exists */
  62              		.loc 1 957 0
  63 0014 117C     		ldrb	r1, [r2, #16]	@ zero_extendqisi2
  64 0016 9942     		cmp	r1, r3
  65 0018 40F28280 		bls	.L2
 958:Generated_Source\PSoC5/USBUART_std.c ****     {
ARM GAS  C:\Users\ingan\AppData\Local\Temp\cc5yuDXv.s 			page 19


 959:Generated_Source\PSoC5/USBUART_std.c ****         pTmp = (const T_USBUART_LUT CYCODE *) NULL;
 960:Generated_Source\PSoC5/USBUART_std.c ****     }
 961:Generated_Source\PSoC5/USBUART_std.c ****     else
 962:Generated_Source\PSoC5/USBUART_std.c ****     {
 963:Generated_Source\PSoC5/USBUART_std.c ****         pTmp = (const T_USBUART_LUT CYCODE *) pTmp[confIndex].p_list;
  66              		.loc 1 963 0
  67 001c 02EBC303 		add	r3, r2, r3, lsl #3
  68              	.LVL1:
  69 0020 5B69     		ldr	r3, [r3, #20]
  70              	.LVL2:
  71              	.LBE28:
  72              	.LBE31:
 831:Generated_Source\PSoC5/USBUART_std.c ****         for (i = 0u; i < ep; i++)
  73              		.loc 1 831 0
  74 0022 4A49     		ldr	r1, .L19+12
 822:Generated_Source\PSoC5/USBUART_std.c **** 
  75              		.loc 1 822 0
  76 0024 1A7A     		ldrb	r2, [r3, #8]	@ zero_extendqisi2
  77              	.LVL3:
 831:Generated_Source\PSoC5/USBUART_std.c ****         for (i = 0u; i < ep; i++)
  78              		.loc 1 831 0
  79 0026 0878     		ldrb	r0, [r1]	@ zero_extendqisi2
 825:Generated_Source\PSoC5/USBUART_std.c ****         
  80              		.loc 1 825 0
  81 0028 DB68     		ldr	r3, [r3, #12]
  82              	.LVL4:
 831:Generated_Source\PSoC5/USBUART_std.c ****         for (i = 0u; i < ep; i++)
  83              		.loc 1 831 0
  84 002a C0B2     		uxtb	r0, r0
  85              	.LVL5:
 832:Generated_Source\PSoC5/USBUART_std.c ****         {
  86              		.loc 1 832 0
  87 002c 002A     		cmp	r2, #0
  88 002e 00F08680 		beq	.L15
  89 0032 511E     		subs	r1, r2, #1
  90 0034 C9B2     		uxtb	r1, r1
  91 0036 0231     		adds	r1, r1, #2
 805:Generated_Source\PSoC5/USBUART_std.c **** {
  92              		.loc 1 805 0
  93 0038 2DE9F047 		push	{r4, r5, r6, r7, r8, r9, r10, lr}
  94              		.cfi_def_cfa_offset 32
  95              		.cfi_offset 4, -32
  96              		.cfi_offset 5, -28
  97              		.cfi_offset 6, -24
  98              		.cfi_offset 7, -20
  99              		.cfi_offset 8, -16
 100              		.cfi_offset 9, -12
 101              		.cfi_offset 10, -8
 102              		.cfi_offset 14, -4
 103 003c 03EBC101 		add	r1, r3, r1, lsl #3
 836:Generated_Source\PSoC5/USBUART_std.c ****             {
 104              		.loc 1 836 0
 105 0040 434D     		ldr	r5, .L19+16
 842:Generated_Source\PSoC5/USBUART_std.c ****                 USBUART_EP[curEp].addr       = pEP->addr;
 106              		.loc 1 842 0
 107 0042 444E     		ldr	r6, .L19+20
 108 0044 0833     		adds	r3, r3, #8
ARM GAS  C:\Users\ingan\AppData\Local\Temp\cc5yuDXv.s 			page 20


 109              	.LVL6:
 110 0046 0027     		movs	r7, #0
 861:Generated_Source\PSoC5/USBUART_std.c **** 
 111              		.loc 1 861 0
 112 0048 4FF0010E 		mov	lr, #1
 113 004c 02E0     		b	.L9
 114              	.LVL7:
 115              	.L4:
 116 004e 0833     		adds	r3, r3, #8
 117              	.LVL8:
 832:Generated_Source\PSoC5/USBUART_std.c ****         {
 118              		.loc 1 832 0
 119 0050 8B42     		cmp	r3, r1
 120 0052 63D0     		beq	.L17
 121              	.LVL9:
 122              	.L9:
 835:Generated_Source\PSoC5/USBUART_std.c ****                 (USBUART_interfaceSetting[interfaceNum] == pEP->altSetting))
 123              		.loc 1 835 0
 124 0054 13F8082C 		ldrb	r2, [r3, #-8]	@ zero_extendqisi2
 125 0058 8242     		cmp	r2, r0
 126 005a F8D1     		bne	.L4
 836:Generated_Source\PSoC5/USBUART_std.c ****             {
 127              		.loc 1 836 0
 128 005c 2A5C     		ldrb	r2, [r5, r0]	@ zero_extendqisi2
 835:Generated_Source\PSoC5/USBUART_std.c ****                 (USBUART_interfaceSetting[interfaceNum] == pEP->altSetting))
 129              		.loc 1 835 0
 130 005e 13F8074C 		ldrb	r4, [r3, #-7]	@ zero_extendqisi2
 131 0062 9442     		cmp	r4, r2
 132 0064 F3D1     		bne	.L4
 838:Generated_Source\PSoC5/USBUART_std.c ****                 epType = ((uint8) pEP->attributes & USBUART_EP_TYPE_MASK);
 133              		.loc 1 838 0
 134 0066 13F8062C 		ldrb	r2, [r3, #-6]	@ zero_extendqisi2
 839:Generated_Source\PSoC5/USBUART_std.c ****                 
 135              		.loc 1 839 0
 136 006a 13F805CC 		ldrb	ip, [r3, #-5]	@ zero_extendqisi2
 838:Generated_Source\PSoC5/USBUART_std.c ****                 epType = ((uint8) pEP->attributes & USBUART_EP_TYPE_MASK);
 137              		.loc 1 838 0
 138 006e 02F07F02 		and	r2, r2, #127
 139              	.LVL10:
 842:Generated_Source\PSoC5/USBUART_std.c ****                 USBUART_EP[curEp].addr       = pEP->addr;
 140              		.loc 1 842 0
 141 0072 4FEA4208 		lsl	r8, r2, #1
 142 0076 08EB0209 		add	r9, r8, r2
 143 007a 06EB8904 		add	r4, r6, r9, lsl #2
 144 007e E770     		strb	r7, [r4, #3]
 843:Generated_Source\PSoC5/USBUART_std.c ****                 USBUART_EP[curEp].attrib     = pEP->attributes;
 145              		.loc 1 843 0
 146 0080 13F806AC 		ldrb	r10, [r3, #-6]	@ zero_extendqisi2
 839:Generated_Source\PSoC5/USBUART_std.c ****                 
 147              		.loc 1 839 0
 148 0084 0CF0030C 		and	ip, ip, #3
 149              	.LVL11:
 843:Generated_Source\PSoC5/USBUART_std.c ****                 USBUART_EP[curEp].attrib     = pEP->attributes;
 150              		.loc 1 843 0
 151 0088 84F804A0 		strb	r10, [r4, #4]
 844:Generated_Source\PSoC5/USBUART_std.c ****                 USBUART_EP[curEp].bufferSize = pEP->bufferSize;
 152              		.loc 1 844 0
ARM GAS  C:\Users\ingan\AppData\Local\Temp\cc5yuDXv.s 			page 21


 153 008c 13F805AC 		ldrb	r10, [r3, #-5]	@ zero_extendqisi2
 154 0090 06F829A0 		strb	r10, [r6, r9, lsl #2]
 845:Generated_Source\PSoC5/USBUART_std.c **** 
 155              		.loc 1 845 0
 156 0094 33F8049C 		ldrh	r9, [r3, #-4]
 157 0098 A4F80890 		strh	r9, [r4, #8]	@ movhi
 847:Generated_Source\PSoC5/USBUART_std.c ****                 {
 158              		.loc 1 847 0
 159 009c 13F9069C 		ldrsb	r9, [r3, #-6]
 160 00a0 B9F1000F 		cmp	r9, #0
 161 00a4 3FDB     		blt	.L18
 856:Generated_Source\PSoC5/USBUART_std.c ****                     USBUART_EP[curEp].apiEpState = USBUART_NO_EVENT_PENDING;
 162              		.loc 1 856 0
 163 00a6 BCF1010F 		cmp	ip, #1
 164 00aa 0CBF     		ite	eq
 165 00ac 4FF0050C 		moveq	ip, #5
 166              	.LVL12:
 167 00b0 4FF0090C 		movne	ip, #9
 168 00b4 84F805C0 		strb	ip, [r4, #5]
 857:Generated_Source\PSoC5/USBUART_std.c ****                 }
 169              		.loc 1 857 0
 170 00b8 6770     		strb	r7, [r4, #1]
 171              	.L7:
 172 00ba DFF8A0C0 		ldr	ip, .L19+28
 173 00be 4FEA0219 		lsl	r9, r2, #4
 174 00c2 CC44     		add	ip, ip, r9
 907:Generated_Source\PSoC5/USBUART_std.c ****                 USBUART_SIE_EP_BASE.sieEp[curEp].epCnt1 = LO8(USBUART_EP[curEp].bufferSize);
 175              		.loc 1 907 0
 176 00c4 4244     		add	r2, r2, r8
 177              	.LVL13:
 861:Generated_Source\PSoC5/USBUART_std.c **** 
 178              		.loc 1 861 0
 179 00c6 8CF802E0 		strb	lr, [ip, #2]
 907:Generated_Source\PSoC5/USBUART_std.c ****                 USBUART_SIE_EP_BASE.sieEp[curEp].epCnt1 = LO8(USBUART_EP[curEp].bufferSize);
 180              		.loc 1 907 0
 181 00ca 06EB8202 		add	r2, r6, r2, lsl #2
 182 00ce B2F80880 		ldrh	r8, [r2, #8]
 183 00d2 214C     		ldr	r4, .L19+24
 184 00d4 C8F30728 		ubfx	r8, r8, #8, #8
 185 00d8 8CF80080 		strb	r8, [ip]
 908:Generated_Source\PSoC5/USBUART_std.c ****                 
 186              		.loc 1 908 0
 187 00dc B2F80880 		ldrh	r8, [r2, #8]
 188 00e0 4C44     		add	r4, r4, r9
 189 00e2 5FFA88F8 		uxtb	r8, r8
 190 00e6 8CF80180 		strb	r8, [ip, #1]
 914:Generated_Source\PSoC5/USBUART_std.c ****                     USBUART_ARB_EP_BASE.arbEp[curEp].rwRaMsb = HI8(USBUART_EP[curEp].buffOffset);
 191              		.loc 1 914 0
 192 00ea B2F806C0 		ldrh	ip, [r2, #6]
 193 00ee 0833     		adds	r3, r3, #8
 194              	.LVL14:
 195 00f0 5FFA8CFC 		uxtb	ip, ip
 196 00f4 84F806C0 		strb	ip, [r4, #6]
 915:Generated_Source\PSoC5/USBUART_std.c ****                     USBUART_ARB_EP_BASE.arbEp[curEp].rwWa    = LO8(USBUART_EP[curEp].buffOffset);
 197              		.loc 1 915 0
 198 00f8 B2F806C0 		ldrh	ip, [r2, #6]
 832:Generated_Source\PSoC5/USBUART_std.c ****         {
ARM GAS  C:\Users\ingan\AppData\Local\Temp\cc5yuDXv.s 			page 22


 199              		.loc 1 832 0
 200 00fc 8B42     		cmp	r3, r1
 915:Generated_Source\PSoC5/USBUART_std.c ****                     USBUART_ARB_EP_BASE.arbEp[curEp].rwWa    = LO8(USBUART_EP[curEp].buffOffset);
 201              		.loc 1 915 0
 202 00fe CCF3072C 		ubfx	ip, ip, #8, #8
 203 0102 84F807C0 		strb	ip, [r4, #7]
 916:Generated_Source\PSoC5/USBUART_std.c ****                     USBUART_ARB_EP_BASE.arbEp[curEp].rwWaMsb = HI8(USBUART_EP[curEp].buffOffset);
 204              		.loc 1 916 0
 205 0106 B2F806C0 		ldrh	ip, [r2, #6]
 206 010a 5FFA8CFC 		uxtb	ip, ip
 207 010e 84F804C0 		strb	ip, [r4, #4]
 917:Generated_Source\PSoC5/USBUART_std.c ****                 #endif /* (CY_PSOC4) */                
 208              		.loc 1 917 0
 209 0112 D288     		ldrh	r2, [r2, #6]
 210 0114 C2F30722 		ubfx	r2, r2, #8, #8
 211 0118 6271     		strb	r2, [r4, #5]
 212              	.LVL15:
 832:Generated_Source\PSoC5/USBUART_std.c ****         {
 213              		.loc 1 832 0
 214 011a 9BD1     		bne	.L9
 215              	.L17:
 216 011c BDE8F087 		pop	{r4, r5, r6, r7, r8, r9, r10, pc}
 217              	.LVL16:
 218              	.L2:
 219              		.cfi_def_cfa_offset 0
 220              		.cfi_restore 4
 221              		.cfi_restore 5
 222              		.cfi_restore 6
 223              		.cfi_restore 7
 224              		.cfi_restore 8
 225              		.cfi_restore 9
 226              		.cfi_restore 10
 227              		.cfi_restore 14
 822:Generated_Source\PSoC5/USBUART_std.c **** 
 228              		.loc 1 822 0
 229 0120 0023     		movs	r3, #0
 230 0122 1B7A     		ldrb	r3, [r3, #8]	@ zero_extendqisi2
 231 0124 FFDE     		.inst	0xdeff
 232              	.LVL17:
 233              	.L18:
 234              		.cfi_def_cfa_offset 32
 235              		.cfi_offset 4, -32
 236              		.cfi_offset 5, -28
 237              		.cfi_offset 6, -24
 238              		.cfi_offset 7, -20
 239              		.cfi_offset 8, -16
 240              		.cfi_offset 9, -12
 241              		.cfi_offset 10, -8
 242              		.cfi_offset 14, -4
 850:Generated_Source\PSoC5/USBUART_std.c ****                     USBUART_EP[curEp].apiEpState = USBUART_EVENT_PENDING;
 243              		.loc 1 850 0
 244 0126 BCF1010F 		cmp	ip, #1
 245 012a 0CBF     		ite	eq
 246 012c 4FF0070C 		moveq	ip, #7
 247              	.LVL18:
 248 0130 4FF00D0C 		movne	ip, #13
 249 0134 84F805C0 		strb	ip, [r4, #5]
ARM GAS  C:\Users\ingan\AppData\Local\Temp\cc5yuDXv.s 			page 23


 851:Generated_Source\PSoC5/USBUART_std.c ****                 }
 250              		.loc 1 851 0
 251 0138 84F801E0 		strb	lr, [r4, #1]
 252 013c BDE7     		b	.L7
 253              	.LVL19:
 254              	.L15:
 255              		.cfi_def_cfa_offset 0
 256              		.cfi_restore 4
 257              		.cfi_restore 5
 258              		.cfi_restore 6
 259              		.cfi_restore 7
 260              		.cfi_restore 8
 261              		.cfi_restore 9
 262              		.cfi_restore 10
 263              		.cfi_restore 14
 264 013e 7047     		bx	lr
 265              	.L20:
 266              		.align	2
 267              	.L19:
 268 0140 00000000 		.word	USBUART_configuration
 269 0144 00000000 		.word	USBUART_device
 270 0148 00000000 		.word	USBUART_TABLE
 271 014c 00000000 		.word	USBUART_interfaceNumber
 272 0150 00000000 		.word	USBUART_interfaceSetting
 273 0154 00000000 		.word	USBUART_EP
 274 0158 70600040 		.word	1073766512
 275 015c FC5F0040 		.word	1073766396
 276              		.cfi_endproc
 277              	.LFE13:
 278              		.size	USBUART_ConfigAltChanged.part.0, .-USBUART_ConfigAltChanged.part.0
 279              		.section	.text.USBUART_ReadDieID,"ax",%progbits
 280              		.align	2
 281              		.global	USBUART_ReadDieID
 282              		.thumb
 283              		.thumb_func
 284              		.type	USBUART_ReadDieID, %function
 285              	USBUART_ReadDieID:
 286              	.LFB1:
 399:Generated_Source\PSoC5/USBUART_std.c ****         const char8 CYCODE hex[] = "0123456789ABCDEF";
 287              		.loc 1 399 0
 288              		.cfi_startproc
 289              		@ args = 0, pretend = 0, frame = 32
 290              		@ frame_needed = 0, uses_anonymous_args = 0
 291              	.LVL20:
 292 0000 2DE9F043 		push	{r4, r5, r6, r7, r8, r9, lr}
 293              		.cfi_def_cfa_offset 28
 294              		.cfi_offset 4, -28
 295              		.cfi_offset 5, -24
 296              		.cfi_offset 6, -20
 297              		.cfi_offset 7, -16
 298              		.cfi_offset 8, -12
 299              		.cfi_offset 9, -8
 300              		.cfi_offset 14, -4
 301 0004 0446     		mov	r4, r0
 302 0006 89B0     		sub	sp, sp, #36
 303              		.cfi_def_cfa_offset 64
 400:Generated_Source\PSoC5/USBUART_std.c ****         uint8 i;
ARM GAS  C:\Users\ingan\AppData\Local\Temp\cc5yuDXv.s 			page 24


 304              		.loc 1 400 0
 305 0008 4E4E     		ldr	r6, .L25
 306 000a 03AD     		add	r5, sp, #12
 307 000c 0FCE     		ldmia	r6!, {r0, r1, r2, r3}
 308              	.LVL21:
 309 000e 0FC5     		stmia	r5!, {r0, r1, r2, r3}
 310 0010 3368     		ldr	r3, [r6]
 311 0012 2B70     		strb	r3, [r5]
 312              	.LVL22:
 405:Generated_Source\PSoC5/USBUART_std.c ****         {
 313              		.loc 1 405 0
 314 0014 002C     		cmp	r4, #0
 315 0016 00F09180 		beq	.L21
 408:Generated_Source\PSoC5/USBUART_std.c ****             descr[1u] = USBUART_DESCR_STRING;
 316              		.loc 1 408 0
 317 001a 2222     		movs	r2, #34
 409:Generated_Source\PSoC5/USBUART_std.c ****             
 318              		.loc 1 409 0
 319 001c 0323     		movs	r3, #3
 408:Generated_Source\PSoC5/USBUART_std.c ****             descr[1u] = USBUART_DESCR_STRING;
 320              		.loc 1 408 0
 321 001e 2270     		strb	r2, [r4]
 409:Generated_Source\PSoC5/USBUART_std.c ****             
 322              		.loc 1 409 0
 323 0020 6370     		strb	r3, [r4, #1]
 412:Generated_Source\PSoC5/USBUART_std.c **** 
 324              		.loc 1 412 0
 325 0022 01A8     		add	r0, sp, #4
 326 0024 FFF7FEFF 		bl	CyGetUniqueId
 327              	.LVL23:
 417:Generated_Source\PSoC5/USBUART_std.c ****                 descr[i + 1u] = 0u;
 328              		.loc 1 417 0
 329 0028 9DF80610 		ldrb	r1, [sp, #6]	@ zero_extendqisi2
 330 002c 9DF80450 		ldrb	r5, [sp, #4]	@ zero_extendqisi2
 331 0030 9DF80500 		ldrb	r0, [sp, #5]	@ zero_extendqisi2
 419:Generated_Source\PSoC5/USBUART_std.c ****                 descr[i + 3u] = 0u;
 332              		.loc 1 419 0
 333 0034 0DF1200E 		add	lr, sp, #32
 334 0038 01F00F08 		and	r8, r1, #15
 417:Generated_Source\PSoC5/USBUART_std.c ****                 descr[i + 1u] = 0u;
 335              		.loc 1 417 0
 336 003c 9DF80720 		ldrb	r2, [sp, #7]	@ zero_extendqisi2
 419:Generated_Source\PSoC5/USBUART_std.c ****                 descr[i + 3u] = 0u;
 337              		.loc 1 419 0
 338 0040 F044     		add	r8, r8, lr
 339 0042 05F00F07 		and	r7, r5, #15
 340 0046 00F00F06 		and	r6, r0, #15
 417:Generated_Source\PSoC5/USBUART_std.c ****                 descr[i + 1u] = 0u;
 341              		.loc 1 417 0
 342 004a 0EEB1515 		add	r5, lr, r5, lsr #4
 343 004e 15F814CC 		ldrb	ip, [r5, #-20]	@ zero_extendqisi2
 419:Generated_Source\PSoC5/USBUART_std.c ****                 descr[i + 3u] = 0u;
 344              		.loc 1 419 0
 345 0052 7644     		add	r6, r6, lr
 346 0054 18F8145C 		ldrb	r5, [r8, #-20]	@ zero_extendqisi2
 417:Generated_Source\PSoC5/USBUART_std.c ****                 descr[i + 1u] = 0u;
 347              		.loc 1 417 0
ARM GAS  C:\Users\ingan\AppData\Local\Temp\cc5yuDXv.s 			page 25


 348 0058 0EEB1010 		add	r0, lr, r0, lsr #4
 349 005c 0EEB1111 		add	r1, lr, r1, lsr #4
 419:Generated_Source\PSoC5/USBUART_std.c ****                 descr[i + 3u] = 0u;
 350              		.loc 1 419 0
 351 0060 0DF12008 		add	r8, sp, #32
 352 0064 7744     		add	r7, r7, lr
 417:Generated_Source\PSoC5/USBUART_std.c ****                 descr[i + 1u] = 0u;
 353              		.loc 1 417 0
 354 0066 9DF80830 		ldrb	r3, [sp, #8]	@ zero_extendqisi2
 419:Generated_Source\PSoC5/USBUART_std.c ****                 descr[i + 3u] = 0u;
 355              		.loc 1 419 0
 356 006a 17F814EC 		ldrb	lr, [r7, #-20]	@ zero_extendqisi2
 357 006e 16F8147C 		ldrb	r7, [r6, #-20]	@ zero_extendqisi2
 417:Generated_Source\PSoC5/USBUART_std.c ****                 descr[i + 1u] = 0u;
 358              		.loc 1 417 0
 359 0072 10F8146C 		ldrb	r6, [r0, #-20]	@ zero_extendqisi2
 360 0076 11F8140C 		ldrb	r0, [r1, #-20]	@ zero_extendqisi2
 419:Generated_Source\PSoC5/USBUART_std.c ****                 descr[i + 3u] = 0u;
 361              		.loc 1 419 0
 362 007a 02F00F01 		and	r1, r2, #15
 417:Generated_Source\PSoC5/USBUART_std.c ****                 descr[i + 1u] = 0u;
 363              		.loc 1 417 0
 364 007e 08EB1212 		add	r2, r8, r2, lsr #4
 365 0082 12F8149C 		ldrb	r9, [r2, #-20]	@ zero_extendqisi2
 366 0086 08AA     		add	r2, sp, #32
 367 0088 02EB1312 		add	r2, r2, r3, lsr #4
 419:Generated_Source\PSoC5/USBUART_std.c ****                 descr[i + 3u] = 0u;
 368              		.loc 1 419 0
 369 008c 4144     		add	r1, r1, r8
 370 008e 11F8148C 		ldrb	r8, [r1, #-20]	@ zero_extendqisi2
 371 0092 03F00F03 		and	r3, r3, #15
 417:Generated_Source\PSoC5/USBUART_std.c ****                 descr[i + 1u] = 0u;
 372              		.loc 1 417 0
 373 0096 12F8141C 		ldrb	r1, [r2, #-20]	@ zero_extendqisi2
 419:Generated_Source\PSoC5/USBUART_std.c ****                 descr[i + 3u] = 0u;
 374              		.loc 1 419 0
 375 009a 08AA     		add	r2, sp, #32
 376 009c 1A44     		add	r2, r2, r3
 418:Generated_Source\PSoC5/USBUART_std.c ****                 descr[i + 2u] = (uint8) hex[(uniqueId[j] & 0x0Fu)];
 377              		.loc 1 418 0
 378 009e 0023     		movs	r3, #0
 417:Generated_Source\PSoC5/USBUART_std.c ****                 descr[i + 1u] = 0u;
 379              		.loc 1 417 0
 380 00a0 84F802C0 		strb	ip, [r4, #2]
 419:Generated_Source\PSoC5/USBUART_std.c ****                 descr[i + 3u] = 0u;
 381              		.loc 1 419 0
 382 00a4 2772     		strb	r7, [r4, #8]
 417:Generated_Source\PSoC5/USBUART_std.c ****                 descr[i + 1u] = 0u;
 383              		.loc 1 417 0
 384 00a6 A671     		strb	r6, [r4, #6]
 419:Generated_Source\PSoC5/USBUART_std.c ****                 descr[i + 3u] = 0u;
 385              		.loc 1 419 0
 386 00a8 2573     		strb	r5, [r4, #12]
 417:Generated_Source\PSoC5/USBUART_std.c ****                 descr[i + 1u] = 0u;
 387              		.loc 1 417 0
 388 00aa A072     		strb	r0, [r4, #10]
 389 00ac A174     		strb	r1, [r4, #18]
ARM GAS  C:\Users\ingan\AppData\Local\Temp\cc5yuDXv.s 			page 26


 419:Generated_Source\PSoC5/USBUART_std.c ****                 descr[i + 3u] = 0u;
 390              		.loc 1 419 0
 391 00ae 84F804E0 		strb	lr, [r4, #4]
 392 00b2 84F81080 		strb	r8, [r4, #16]
 417:Generated_Source\PSoC5/USBUART_std.c ****                 descr[i + 1u] = 0u;
 393              		.loc 1 417 0
 394 00b6 84F80E90 		strb	r9, [r4, #14]
 418:Generated_Source\PSoC5/USBUART_std.c ****                 descr[i + 2u] = (uint8) hex[(uniqueId[j] & 0x0Fu)];
 395              		.loc 1 418 0
 396 00ba E370     		strb	r3, [r4, #3]
 420:Generated_Source\PSoC5/USBUART_std.c ****                 ++j;
 397              		.loc 1 420 0
 398 00bc 6371     		strb	r3, [r4, #5]
 399              	.LVL24:
 418:Generated_Source\PSoC5/USBUART_std.c ****                 descr[i + 2u] = (uint8) hex[(uniqueId[j] & 0x0Fu)];
 400              		.loc 1 418 0
 401 00be E371     		strb	r3, [r4, #7]
 420:Generated_Source\PSoC5/USBUART_std.c ****                 ++j;
 402              		.loc 1 420 0
 403 00c0 6372     		strb	r3, [r4, #9]
 404              	.LVL25:
 418:Generated_Source\PSoC5/USBUART_std.c ****                 descr[i + 2u] = (uint8) hex[(uniqueId[j] & 0x0Fu)];
 405              		.loc 1 418 0
 406 00c2 E372     		strb	r3, [r4, #11]
 420:Generated_Source\PSoC5/USBUART_std.c ****                 ++j;
 407              		.loc 1 420 0
 408 00c4 6373     		strb	r3, [r4, #13]
 409              	.LVL26:
 418:Generated_Source\PSoC5/USBUART_std.c ****                 descr[i + 2u] = (uint8) hex[(uniqueId[j] & 0x0Fu)];
 410              		.loc 1 418 0
 411 00c6 E373     		strb	r3, [r4, #15]
 420:Generated_Source\PSoC5/USBUART_std.c ****                 ++j;
 412              		.loc 1 420 0
 413 00c8 6374     		strb	r3, [r4, #17]
 414              	.LVL27:
 418:Generated_Source\PSoC5/USBUART_std.c ****                 descr[i + 2u] = (uint8) hex[(uniqueId[j] & 0x0Fu)];
 415              		.loc 1 418 0
 416 00ca E374     		strb	r3, [r4, #19]
 419:Generated_Source\PSoC5/USBUART_std.c ****                 descr[i + 3u] = 0u;
 417              		.loc 1 419 0
 418 00cc 12F814EC 		ldrb	lr, [r2, #-20]	@ zero_extendqisi2
 417:Generated_Source\PSoC5/USBUART_std.c ****                 descr[i + 1u] = 0u;
 419              		.loc 1 417 0
 420 00d0 9DF80900 		ldrb	r0, [sp, #9]	@ zero_extendqisi2
 421 00d4 9DF80A10 		ldrb	r1, [sp, #10]	@ zero_extendqisi2
 422 00d8 9DF80B20 		ldrb	r2, [sp, #11]	@ zero_extendqisi2
 419:Generated_Source\PSoC5/USBUART_std.c ****                 descr[i + 3u] = 0u;
 423              		.loc 1 419 0
 424 00dc 08AD     		add	r5, sp, #32
 425 00de 00F00F07 		and	r7, r0, #15
 426 00e2 01F00F06 		and	r6, r1, #15
 427 00e6 2F44     		add	r7, r7, r5
 417:Generated_Source\PSoC5/USBUART_std.c ****                 descr[i + 1u] = 0u;
 428              		.loc 1 417 0
 429 00e8 05EB1010 		add	r0, r5, r0, lsr #4
 430 00ec 05EB1111 		add	r1, r5, r1, lsr #4
 419:Generated_Source\PSoC5/USBUART_std.c ****                 descr[i + 3u] = 0u;
ARM GAS  C:\Users\ingan\AppData\Local\Temp\cc5yuDXv.s 			page 27


 431              		.loc 1 419 0
 432 00f0 0DF1200C 		add	ip, sp, #32
 433 00f4 2E44     		add	r6, r6, r5
 434 00f6 02F00F05 		and	r5, r2, #15
 435 00fa 6544     		add	r5, r5, ip
 417:Generated_Source\PSoC5/USBUART_std.c ****                 descr[i + 1u] = 0u;
 436              		.loc 1 417 0
 437 00fc 0CEB1212 		add	r2, ip, r2, lsr #4
 419:Generated_Source\PSoC5/USBUART_std.c ****                 descr[i + 3u] = 0u;
 438              		.loc 1 419 0
 439 0100 16F8146C 		ldrb	r6, [r6, #-20]	@ zero_extendqisi2
 440 0104 17F814CC 		ldrb	ip, [r7, #-20]	@ zero_extendqisi2
 417:Generated_Source\PSoC5/USBUART_std.c ****                 descr[i + 1u] = 0u;
 441              		.loc 1 417 0
 442 0108 12F8142C 		ldrb	r2, [r2, #-20]	@ zero_extendqisi2
 443 010c 10F8147C 		ldrb	r7, [r0, #-20]	@ zero_extendqisi2
 444 0110 11F8140C 		ldrb	r0, [r1, #-20]	@ zero_extendqisi2
 419:Generated_Source\PSoC5/USBUART_std.c ****                 descr[i + 3u] = 0u;
 445              		.loc 1 419 0
 446 0114 15F8141C 		ldrb	r1, [r5, #-20]	@ zero_extendqisi2
 447 0118 84F814E0 		strb	lr, [r4, #20]
 420:Generated_Source\PSoC5/USBUART_std.c ****                 ++j;
 448              		.loc 1 420 0
 449 011c 6375     		strb	r3, [r4, #21]
 450              	.LVL28:
 418:Generated_Source\PSoC5/USBUART_std.c ****                 descr[i + 2u] = (uint8) hex[(uniqueId[j] & 0x0Fu)];
 451              		.loc 1 418 0
 452 011e E375     		strb	r3, [r4, #23]
 420:Generated_Source\PSoC5/USBUART_std.c ****                 ++j;
 453              		.loc 1 420 0
 454 0120 6376     		strb	r3, [r4, #25]
 455              	.LVL29:
 418:Generated_Source\PSoC5/USBUART_std.c ****                 descr[i + 2u] = (uint8) hex[(uniqueId[j] & 0x0Fu)];
 456              		.loc 1 418 0
 457 0122 E376     		strb	r3, [r4, #27]
 420:Generated_Source\PSoC5/USBUART_std.c ****                 ++j;
 458              		.loc 1 420 0
 459 0124 6377     		strb	r3, [r4, #29]
 460              	.LVL30:
 418:Generated_Source\PSoC5/USBUART_std.c ****                 descr[i + 2u] = (uint8) hex[(uniqueId[j] & 0x0Fu)];
 461              		.loc 1 418 0
 462 0126 E377     		strb	r3, [r4, #31]
 420:Generated_Source\PSoC5/USBUART_std.c ****                 ++j;
 463              		.loc 1 420 0
 464 0128 84F82130 		strb	r3, [r4, #33]
 465              	.LVL31:
 419:Generated_Source\PSoC5/USBUART_std.c ****                 descr[i + 3u] = 0u;
 466              		.loc 1 419 0
 467 012c 84F818C0 		strb	ip, [r4, #24]
 417:Generated_Source\PSoC5/USBUART_std.c ****                 descr[i + 1u] = 0u;
 468              		.loc 1 417 0
 469 0130 A775     		strb	r7, [r4, #22]
 419:Generated_Source\PSoC5/USBUART_std.c ****                 descr[i + 3u] = 0u;
 470              		.loc 1 419 0
 471 0132 2677     		strb	r6, [r4, #28]
 417:Generated_Source\PSoC5/USBUART_std.c ****                 descr[i + 1u] = 0u;
 472              		.loc 1 417 0
ARM GAS  C:\Users\ingan\AppData\Local\Temp\cc5yuDXv.s 			page 28


 473 0134 A076     		strb	r0, [r4, #26]
 419:Generated_Source\PSoC5/USBUART_std.c ****                 descr[i + 3u] = 0u;
 474              		.loc 1 419 0
 475 0136 84F82010 		strb	r1, [r4, #32]
 417:Generated_Source\PSoC5/USBUART_std.c ****                 descr[i + 1u] = 0u;
 476              		.loc 1 417 0
 477 013a A277     		strb	r2, [r4, #30]
 478              	.LVL32:
 479              	.L21:
 424:Generated_Source\PSoC5/USBUART_std.c **** #endif /* (USBUART_ENABLE_IDSN_STRING) */
 480              		.loc 1 424 0
 481 013c 09B0     		add	sp, sp, #36
 482              		.cfi_def_cfa_offset 28
 483              		@ sp needed
 484 013e BDE8F083 		pop	{r4, r5, r6, r7, r8, r9, pc}
 485              	.LVL33:
 486              	.L26:
 487 0142 00BF     		.align	2
 488              	.L25:
 489 0144 00000000 		.word	.LC0
 490              		.cfi_endproc
 491              	.LFE1:
 492              		.size	USBUART_ReadDieID, .-USBUART_ReadDieID
 493              		.section	.text.USBUART_ConfigReg,"ax",%progbits
 494              		.align	2
 495              		.global	USBUART_ConfigReg
 496              		.thumb
 497              		.thumb_func
 498              		.type	USBUART_ConfigReg, %function
 499              	USBUART_ConfigReg:
 500              	.LFB2:
 438:Generated_Source\PSoC5/USBUART_std.c ****     uint8 ep;
 501              		.loc 1 438 0
 502              		.cfi_startproc
 503              		@ args = 0, pretend = 0, frame = 0
 504              		@ frame_needed = 0, uses_anonymous_args = 0
 505              		@ link register save eliminated.
 506              	.LVL34:
 507 0000 30B4     		push	{r4, r5}
 508              		.cfi_def_cfa_offset 8
 509              		.cfi_offset 4, -8
 510              		.cfi_offset 5, -4
 448:Generated_Source\PSoC5/USBUART_std.c ****         
 511              		.loc 1 448 0
 512 0002 A24A     		ldr	r2, .L53
 513 0004 0C21     		movs	r1, #12
 452:Generated_Source\PSoC5/USBUART_std.c ****     #endif /* (USBUART_EP_MANAGEMENT_DMA) */
 514              		.loc 1 452 0
 515 0006 1F20     		movs	r0, #31
 455:Generated_Source\PSoC5/USBUART_std.c ****         {
 516              		.loc 1 455 0
 517 0008 A14B     		ldr	r3, .L53+4
 448:Generated_Source\PSoC5/USBUART_std.c ****         
 518              		.loc 1 448 0
 519 000a 1170     		strb	r1, [r2]
 452:Generated_Source\PSoC5/USBUART_std.c ****     #endif /* (USBUART_EP_MANAGEMENT_DMA) */
 520              		.loc 1 452 0
ARM GAS  C:\Users\ingan\AppData\Local\Temp\cc5yuDXv.s 			page 29


 521 000c 5070     		strb	r0, [r2, #1]
 455:Generated_Source\PSoC5/USBUART_std.c ****         {
 522              		.loc 1 455 0
 523 000e 5A7C     		ldrb	r2, [r3, #17]	@ zero_extendqisi2
 524 0010 002A     		cmp	r2, #0
 525 0012 40F0F380 		bne	.L28
 480:Generated_Source\PSoC5/USBUART_std.c ****         }
 526              		.loc 1 480 0
 527 0016 9F4A     		ldr	r2, .L53+8
 528 0018 8021     		movs	r1, #128
 529 001a 9170     		strb	r1, [r2, #2]
 530              	.L29:
 488:Generated_Source\PSoC5/USBUART_std.c ****             USBUART_ARB_EP_BASE.arbEp[ep].rwRaMsb = HI8(USBUART_EP[ep].buffOffset);
 531              		.loc 1 488 0
 532 001c 598A     		ldrh	r1, [r3, #18]
 533 001e 9B4A     		ldr	r2, .L53
 534 0020 C9B2     		uxtb	r1, r1
 535 0022 9171     		strb	r1, [r2, #6]
 489:Generated_Source\PSoC5/USBUART_std.c ****             USBUART_ARB_EP_BASE.arbEp[ep].rwWa    = LO8(USBUART_EP[ep].buffOffset);
 536              		.loc 1 489 0
 537 0024 598A     		ldrh	r1, [r3, #18]
 448:Generated_Source\PSoC5/USBUART_std.c ****         
 538              		.loc 1 448 0
 539 0026 9C48     		ldr	r0, .L53+12
 489:Generated_Source\PSoC5/USBUART_std.c ****             USBUART_ARB_EP_BASE.arbEp[ep].rwWa    = LO8(USBUART_EP[ep].buffOffset);
 540              		.loc 1 489 0
 541 0028 C1F30721 		ubfx	r1, r1, #8, #8
 542 002c D171     		strb	r1, [r2, #7]
 490:Generated_Source\PSoC5/USBUART_std.c ****             USBUART_ARB_EP_BASE.arbEp[ep].rwWaMsb = HI8(USBUART_EP[ep].buffOffset);
 543              		.loc 1 490 0
 544 002e 598A     		ldrh	r1, [r3, #18]
 448:Generated_Source\PSoC5/USBUART_std.c ****         
 545              		.loc 1 448 0
 546 0030 0C24     		movs	r4, #12
 490:Generated_Source\PSoC5/USBUART_std.c ****             USBUART_ARB_EP_BASE.arbEp[ep].rwWaMsb = HI8(USBUART_EP[ep].buffOffset);
 547              		.loc 1 490 0
 548 0032 C9B2     		uxtb	r1, r1
 549 0034 1171     		strb	r1, [r2, #4]
 491:Generated_Source\PSoC5/USBUART_std.c ****         #endif /* (CY_PSOC4) */
 550              		.loc 1 491 0
 551 0036 598A     		ldrh	r1, [r3, #18]
 452:Generated_Source\PSoC5/USBUART_std.c ****     #endif /* (USBUART_EP_MANAGEMENT_DMA) */
 552              		.loc 1 452 0
 553 0038 1F25     		movs	r5, #31
 491:Generated_Source\PSoC5/USBUART_std.c ****         #endif /* (CY_PSOC4) */
 554              		.loc 1 491 0
 555 003a C1F30721 		ubfx	r1, r1, #8, #8
 556 003e 5171     		strb	r1, [r2, #5]
 557              	.LVL35:
 448:Generated_Source\PSoC5/USBUART_std.c ****         
 558              		.loc 1 448 0
 559 0040 0470     		strb	r4, [r0]
 452:Generated_Source\PSoC5/USBUART_std.c ****     #endif /* (USBUART_EP_MANAGEMENT_DMA) */
 560              		.loc 1 452 0
 561 0042 4570     		strb	r5, [r0, #1]
 455:Generated_Source\PSoC5/USBUART_std.c ****         {
 562              		.loc 1 455 0
ARM GAS  C:\Users\ingan\AppData\Local\Temp\cc5yuDXv.s 			page 30


 563 0044 5A7F     		ldrb	r2, [r3, #29]	@ zero_extendqisi2
 488:Generated_Source\PSoC5/USBUART_std.c ****             USBUART_ARB_EP_BASE.arbEp[ep].rwRaMsb = HI8(USBUART_EP[ep].buffOffset);
 564              		.loc 1 488 0
 565 0046 9249     		ldr	r1, .L53+4
 455:Generated_Source\PSoC5/USBUART_std.c ****         {
 566              		.loc 1 455 0
 567 0048 002A     		cmp	r2, #0
 568 004a 40F01581 		bne	.L31
 480:Generated_Source\PSoC5/USBUART_std.c ****         }
 569              		.loc 1 480 0
 570 004e 934A     		ldr	r2, .L53+16
 571 0050 8021     		movs	r1, #128
 572 0052 9170     		strb	r1, [r2, #2]
 573              	.L32:
 488:Generated_Source\PSoC5/USBUART_std.c ****             USBUART_ARB_EP_BASE.arbEp[ep].rwRaMsb = HI8(USBUART_EP[ep].buffOffset);
 574              		.loc 1 488 0
 575 0054 D98B     		ldrh	r1, [r3, #30]
 576 0056 904A     		ldr	r2, .L53+12
 577 0058 C9B2     		uxtb	r1, r1
 578 005a 9171     		strb	r1, [r2, #6]
 489:Generated_Source\PSoC5/USBUART_std.c ****             USBUART_ARB_EP_BASE.arbEp[ep].rwWa    = LO8(USBUART_EP[ep].buffOffset);
 579              		.loc 1 489 0
 580 005c D98B     		ldrh	r1, [r3, #30]
 448:Generated_Source\PSoC5/USBUART_std.c ****         
 581              		.loc 1 448 0
 582 005e 9048     		ldr	r0, .L53+20
 489:Generated_Source\PSoC5/USBUART_std.c ****             USBUART_ARB_EP_BASE.arbEp[ep].rwWa    = LO8(USBUART_EP[ep].buffOffset);
 583              		.loc 1 489 0
 584 0060 C1F30721 		ubfx	r1, r1, #8, #8
 585 0064 D171     		strb	r1, [r2, #7]
 490:Generated_Source\PSoC5/USBUART_std.c ****             USBUART_ARB_EP_BASE.arbEp[ep].rwWaMsb = HI8(USBUART_EP[ep].buffOffset);
 586              		.loc 1 490 0
 587 0066 D98B     		ldrh	r1, [r3, #30]
 448:Generated_Source\PSoC5/USBUART_std.c ****         
 588              		.loc 1 448 0
 589 0068 0C24     		movs	r4, #12
 490:Generated_Source\PSoC5/USBUART_std.c ****             USBUART_ARB_EP_BASE.arbEp[ep].rwWaMsb = HI8(USBUART_EP[ep].buffOffset);
 590              		.loc 1 490 0
 591 006a C9B2     		uxtb	r1, r1
 592 006c 1171     		strb	r1, [r2, #4]
 491:Generated_Source\PSoC5/USBUART_std.c ****         #endif /* (CY_PSOC4) */
 593              		.loc 1 491 0
 594 006e D98B     		ldrh	r1, [r3, #30]
 452:Generated_Source\PSoC5/USBUART_std.c ****     #endif /* (USBUART_EP_MANAGEMENT_DMA) */
 595              		.loc 1 452 0
 596 0070 1F25     		movs	r5, #31
 491:Generated_Source\PSoC5/USBUART_std.c ****         #endif /* (CY_PSOC4) */
 597              		.loc 1 491 0
 598 0072 C1F30721 		ubfx	r1, r1, #8, #8
 599 0076 5171     		strb	r1, [r2, #5]
 600              	.LVL36:
 448:Generated_Source\PSoC5/USBUART_std.c ****         
 601              		.loc 1 448 0
 602 0078 0470     		strb	r4, [r0]
 452:Generated_Source\PSoC5/USBUART_std.c ****     #endif /* (USBUART_EP_MANAGEMENT_DMA) */
 603              		.loc 1 452 0
 604 007a 4570     		strb	r5, [r0, #1]
ARM GAS  C:\Users\ingan\AppData\Local\Temp\cc5yuDXv.s 			page 31


 455:Generated_Source\PSoC5/USBUART_std.c ****         {
 605              		.loc 1 455 0
 606 007c 93F82920 		ldrb	r2, [r3, #41]	@ zero_extendqisi2
 488:Generated_Source\PSoC5/USBUART_std.c ****             USBUART_ARB_EP_BASE.arbEp[ep].rwRaMsb = HI8(USBUART_EP[ep].buffOffset);
 607              		.loc 1 488 0
 608 0080 8349     		ldr	r1, .L53+4
 455:Generated_Source\PSoC5/USBUART_std.c ****         {
 609              		.loc 1 455 0
 610 0082 002A     		cmp	r2, #0
 611 0084 40F0EE80 		bne	.L34
 480:Generated_Source\PSoC5/USBUART_std.c ****         }
 612              		.loc 1 480 0
 613 0088 864A     		ldr	r2, .L53+24
 614 008a 8021     		movs	r1, #128
 615 008c 9170     		strb	r1, [r2, #2]
 616              	.L35:
 488:Generated_Source\PSoC5/USBUART_std.c ****             USBUART_ARB_EP_BASE.arbEp[ep].rwRaMsb = HI8(USBUART_EP[ep].buffOffset);
 617              		.loc 1 488 0
 618 008e 598D     		ldrh	r1, [r3, #42]
 619 0090 834A     		ldr	r2, .L53+20
 620 0092 C9B2     		uxtb	r1, r1
 621 0094 9171     		strb	r1, [r2, #6]
 489:Generated_Source\PSoC5/USBUART_std.c ****             USBUART_ARB_EP_BASE.arbEp[ep].rwWa    = LO8(USBUART_EP[ep].buffOffset);
 622              		.loc 1 489 0
 623 0096 598D     		ldrh	r1, [r3, #42]
 448:Generated_Source\PSoC5/USBUART_std.c ****         
 624              		.loc 1 448 0
 625 0098 8348     		ldr	r0, .L53+28
 489:Generated_Source\PSoC5/USBUART_std.c ****             USBUART_ARB_EP_BASE.arbEp[ep].rwWa    = LO8(USBUART_EP[ep].buffOffset);
 626              		.loc 1 489 0
 627 009a C1F30721 		ubfx	r1, r1, #8, #8
 628 009e D171     		strb	r1, [r2, #7]
 490:Generated_Source\PSoC5/USBUART_std.c ****             USBUART_ARB_EP_BASE.arbEp[ep].rwWaMsb = HI8(USBUART_EP[ep].buffOffset);
 629              		.loc 1 490 0
 630 00a0 598D     		ldrh	r1, [r3, #42]
 448:Generated_Source\PSoC5/USBUART_std.c ****         
 631              		.loc 1 448 0
 632 00a2 0C24     		movs	r4, #12
 490:Generated_Source\PSoC5/USBUART_std.c ****             USBUART_ARB_EP_BASE.arbEp[ep].rwWaMsb = HI8(USBUART_EP[ep].buffOffset);
 633              		.loc 1 490 0
 634 00a4 C9B2     		uxtb	r1, r1
 635 00a6 1171     		strb	r1, [r2, #4]
 491:Generated_Source\PSoC5/USBUART_std.c ****         #endif /* (CY_PSOC4) */
 636              		.loc 1 491 0
 637 00a8 598D     		ldrh	r1, [r3, #42]
 452:Generated_Source\PSoC5/USBUART_std.c ****     #endif /* (USBUART_EP_MANAGEMENT_DMA) */
 638              		.loc 1 452 0
 639 00aa 1F25     		movs	r5, #31
 491:Generated_Source\PSoC5/USBUART_std.c ****         #endif /* (CY_PSOC4) */
 640              		.loc 1 491 0
 641 00ac C1F30721 		ubfx	r1, r1, #8, #8
 642 00b0 5171     		strb	r1, [r2, #5]
 643              	.LVL37:
 448:Generated_Source\PSoC5/USBUART_std.c ****         
 644              		.loc 1 448 0
 645 00b2 0470     		strb	r4, [r0]
 452:Generated_Source\PSoC5/USBUART_std.c ****     #endif /* (USBUART_EP_MANAGEMENT_DMA) */
ARM GAS  C:\Users\ingan\AppData\Local\Temp\cc5yuDXv.s 			page 32


 646              		.loc 1 452 0
 647 00b4 4570     		strb	r5, [r0, #1]
 455:Generated_Source\PSoC5/USBUART_std.c ****         {
 648              		.loc 1 455 0
 649 00b6 93F83520 		ldrb	r2, [r3, #53]	@ zero_extendqisi2
 488:Generated_Source\PSoC5/USBUART_std.c ****             USBUART_ARB_EP_BASE.arbEp[ep].rwRaMsb = HI8(USBUART_EP[ep].buffOffset);
 650              		.loc 1 488 0
 651 00ba 7549     		ldr	r1, .L53+4
 455:Generated_Source\PSoC5/USBUART_std.c ****         {
 652              		.loc 1 455 0
 653 00bc 002A     		cmp	r2, #0
 654 00be 40F0C780 		bne	.L37
 480:Generated_Source\PSoC5/USBUART_std.c ****         }
 655              		.loc 1 480 0
 656 00c2 7A4A     		ldr	r2, .L53+32
 657 00c4 8021     		movs	r1, #128
 658 00c6 9170     		strb	r1, [r2, #2]
 659              	.L38:
 488:Generated_Source\PSoC5/USBUART_std.c ****             USBUART_ARB_EP_BASE.arbEp[ep].rwRaMsb = HI8(USBUART_EP[ep].buffOffset);
 660              		.loc 1 488 0
 661 00c8 D98E     		ldrh	r1, [r3, #54]
 662 00ca 774A     		ldr	r2, .L53+28
 663 00cc C9B2     		uxtb	r1, r1
 664 00ce 9171     		strb	r1, [r2, #6]
 489:Generated_Source\PSoC5/USBUART_std.c ****             USBUART_ARB_EP_BASE.arbEp[ep].rwWa    = LO8(USBUART_EP[ep].buffOffset);
 665              		.loc 1 489 0
 666 00d0 D98E     		ldrh	r1, [r3, #54]
 448:Generated_Source\PSoC5/USBUART_std.c ****         
 667              		.loc 1 448 0
 668 00d2 7748     		ldr	r0, .L53+36
 489:Generated_Source\PSoC5/USBUART_std.c ****             USBUART_ARB_EP_BASE.arbEp[ep].rwWa    = LO8(USBUART_EP[ep].buffOffset);
 669              		.loc 1 489 0
 670 00d4 C1F30721 		ubfx	r1, r1, #8, #8
 671 00d8 D171     		strb	r1, [r2, #7]
 490:Generated_Source\PSoC5/USBUART_std.c ****             USBUART_ARB_EP_BASE.arbEp[ep].rwWaMsb = HI8(USBUART_EP[ep].buffOffset);
 672              		.loc 1 490 0
 673 00da D98E     		ldrh	r1, [r3, #54]
 448:Generated_Source\PSoC5/USBUART_std.c ****         
 674              		.loc 1 448 0
 675 00dc 0C24     		movs	r4, #12
 490:Generated_Source\PSoC5/USBUART_std.c ****             USBUART_ARB_EP_BASE.arbEp[ep].rwWaMsb = HI8(USBUART_EP[ep].buffOffset);
 676              		.loc 1 490 0
 677 00de C9B2     		uxtb	r1, r1
 678 00e0 1171     		strb	r1, [r2, #4]
 491:Generated_Source\PSoC5/USBUART_std.c ****         #endif /* (CY_PSOC4) */
 679              		.loc 1 491 0
 680 00e2 D98E     		ldrh	r1, [r3, #54]
 452:Generated_Source\PSoC5/USBUART_std.c ****     #endif /* (USBUART_EP_MANAGEMENT_DMA) */
 681              		.loc 1 452 0
 682 00e4 1F25     		movs	r5, #31
 491:Generated_Source\PSoC5/USBUART_std.c ****         #endif /* (CY_PSOC4) */
 683              		.loc 1 491 0
 684 00e6 C1F30721 		ubfx	r1, r1, #8, #8
 685 00ea 5171     		strb	r1, [r2, #5]
 686              	.LVL38:
 448:Generated_Source\PSoC5/USBUART_std.c ****         
 687              		.loc 1 448 0
ARM GAS  C:\Users\ingan\AppData\Local\Temp\cc5yuDXv.s 			page 33


 688 00ec 0470     		strb	r4, [r0]
 452:Generated_Source\PSoC5/USBUART_std.c ****     #endif /* (USBUART_EP_MANAGEMENT_DMA) */
 689              		.loc 1 452 0
 690 00ee 4570     		strb	r5, [r0, #1]
 455:Generated_Source\PSoC5/USBUART_std.c ****         {
 691              		.loc 1 455 0
 692 00f0 93F84120 		ldrb	r2, [r3, #65]	@ zero_extendqisi2
 488:Generated_Source\PSoC5/USBUART_std.c ****             USBUART_ARB_EP_BASE.arbEp[ep].rwRaMsb = HI8(USBUART_EP[ep].buffOffset);
 693              		.loc 1 488 0
 694 00f4 6649     		ldr	r1, .L53+4
 455:Generated_Source\PSoC5/USBUART_std.c ****         {
 695              		.loc 1 455 0
 696 00f6 002A     		cmp	r2, #0
 697 00f8 40F0A080 		bne	.L40
 480:Generated_Source\PSoC5/USBUART_std.c ****         }
 698              		.loc 1 480 0
 699 00fc 6D4A     		ldr	r2, .L53+40
 700 00fe 8021     		movs	r1, #128
 701 0100 9170     		strb	r1, [r2, #2]
 702              	.L41:
 488:Generated_Source\PSoC5/USBUART_std.c ****             USBUART_ARB_EP_BASE.arbEp[ep].rwRaMsb = HI8(USBUART_EP[ep].buffOffset);
 703              		.loc 1 488 0
 704 0102 B3F84210 		ldrh	r1, [r3, #66]
 705 0106 6A4A     		ldr	r2, .L53+36
 706 0108 C9B2     		uxtb	r1, r1
 707 010a 9171     		strb	r1, [r2, #6]
 489:Generated_Source\PSoC5/USBUART_std.c ****             USBUART_ARB_EP_BASE.arbEp[ep].rwWa    = LO8(USBUART_EP[ep].buffOffset);
 708              		.loc 1 489 0
 709 010c B3F84210 		ldrh	r1, [r3, #66]
 448:Generated_Source\PSoC5/USBUART_std.c ****         
 710              		.loc 1 448 0
 711 0110 6948     		ldr	r0, .L53+44
 489:Generated_Source\PSoC5/USBUART_std.c ****             USBUART_ARB_EP_BASE.arbEp[ep].rwWa    = LO8(USBUART_EP[ep].buffOffset);
 712              		.loc 1 489 0
 713 0112 C1F30721 		ubfx	r1, r1, #8, #8
 714 0116 D171     		strb	r1, [r2, #7]
 490:Generated_Source\PSoC5/USBUART_std.c ****             USBUART_ARB_EP_BASE.arbEp[ep].rwWaMsb = HI8(USBUART_EP[ep].buffOffset);
 715              		.loc 1 490 0
 716 0118 B3F84210 		ldrh	r1, [r3, #66]
 448:Generated_Source\PSoC5/USBUART_std.c ****         
 717              		.loc 1 448 0
 718 011c 0C24     		movs	r4, #12
 490:Generated_Source\PSoC5/USBUART_std.c ****             USBUART_ARB_EP_BASE.arbEp[ep].rwWaMsb = HI8(USBUART_EP[ep].buffOffset);
 719              		.loc 1 490 0
 720 011e C9B2     		uxtb	r1, r1
 721 0120 1171     		strb	r1, [r2, #4]
 491:Generated_Source\PSoC5/USBUART_std.c ****         #endif /* (CY_PSOC4) */
 722              		.loc 1 491 0
 723 0122 B3F84210 		ldrh	r1, [r3, #66]
 452:Generated_Source\PSoC5/USBUART_std.c ****     #endif /* (USBUART_EP_MANAGEMENT_DMA) */
 724              		.loc 1 452 0
 725 0126 1F25     		movs	r5, #31
 491:Generated_Source\PSoC5/USBUART_std.c ****         #endif /* (CY_PSOC4) */
 726              		.loc 1 491 0
 727 0128 C1F30721 		ubfx	r1, r1, #8, #8
 728 012c 5171     		strb	r1, [r2, #5]
 729              	.LVL39:
ARM GAS  C:\Users\ingan\AppData\Local\Temp\cc5yuDXv.s 			page 34


 448:Generated_Source\PSoC5/USBUART_std.c ****         
 730              		.loc 1 448 0
 731 012e 0470     		strb	r4, [r0]
 452:Generated_Source\PSoC5/USBUART_std.c ****     #endif /* (USBUART_EP_MANAGEMENT_DMA) */
 732              		.loc 1 452 0
 733 0130 4570     		strb	r5, [r0, #1]
 455:Generated_Source\PSoC5/USBUART_std.c ****         {
 734              		.loc 1 455 0
 735 0132 93F84D20 		ldrb	r2, [r3, #77]	@ zero_extendqisi2
 488:Generated_Source\PSoC5/USBUART_std.c ****             USBUART_ARB_EP_BASE.arbEp[ep].rwRaMsb = HI8(USBUART_EP[ep].buffOffset);
 736              		.loc 1 488 0
 737 0136 5649     		ldr	r1, .L53+4
 455:Generated_Source\PSoC5/USBUART_std.c ****         {
 738              		.loc 1 455 0
 739 0138 002A     		cmp	r2, #0
 740 013a 75D1     		bne	.L43
 480:Generated_Source\PSoC5/USBUART_std.c ****         }
 741              		.loc 1 480 0
 742 013c 5F4A     		ldr	r2, .L53+48
 743 013e 8021     		movs	r1, #128
 744 0140 9170     		strb	r1, [r2, #2]
 745              	.L44:
 488:Generated_Source\PSoC5/USBUART_std.c ****             USBUART_ARB_EP_BASE.arbEp[ep].rwRaMsb = HI8(USBUART_EP[ep].buffOffset);
 746              		.loc 1 488 0
 747 0142 B3F84E10 		ldrh	r1, [r3, #78]
 748 0146 5C4A     		ldr	r2, .L53+44
 749 0148 C9B2     		uxtb	r1, r1
 750 014a 9171     		strb	r1, [r2, #6]
 489:Generated_Source\PSoC5/USBUART_std.c ****             USBUART_ARB_EP_BASE.arbEp[ep].rwWa    = LO8(USBUART_EP[ep].buffOffset);
 751              		.loc 1 489 0
 752 014c B3F84E10 		ldrh	r1, [r3, #78]
 448:Generated_Source\PSoC5/USBUART_std.c ****         
 753              		.loc 1 448 0
 754 0150 5B48     		ldr	r0, .L53+52
 489:Generated_Source\PSoC5/USBUART_std.c ****             USBUART_ARB_EP_BASE.arbEp[ep].rwWa    = LO8(USBUART_EP[ep].buffOffset);
 755              		.loc 1 489 0
 756 0152 C1F30721 		ubfx	r1, r1, #8, #8
 757 0156 D171     		strb	r1, [r2, #7]
 490:Generated_Source\PSoC5/USBUART_std.c ****             USBUART_ARB_EP_BASE.arbEp[ep].rwWaMsb = HI8(USBUART_EP[ep].buffOffset);
 758              		.loc 1 490 0
 759 0158 B3F84E10 		ldrh	r1, [r3, #78]
 448:Generated_Source\PSoC5/USBUART_std.c ****         
 760              		.loc 1 448 0
 761 015c 0C24     		movs	r4, #12
 490:Generated_Source\PSoC5/USBUART_std.c ****             USBUART_ARB_EP_BASE.arbEp[ep].rwWaMsb = HI8(USBUART_EP[ep].buffOffset);
 762              		.loc 1 490 0
 763 015e C9B2     		uxtb	r1, r1
 764 0160 1171     		strb	r1, [r2, #4]
 491:Generated_Source\PSoC5/USBUART_std.c ****         #endif /* (CY_PSOC4) */
 765              		.loc 1 491 0
 766 0162 B3F84E10 		ldrh	r1, [r3, #78]
 452:Generated_Source\PSoC5/USBUART_std.c ****     #endif /* (USBUART_EP_MANAGEMENT_DMA) */
 767              		.loc 1 452 0
 768 0166 1F25     		movs	r5, #31
 491:Generated_Source\PSoC5/USBUART_std.c ****         #endif /* (CY_PSOC4) */
 769              		.loc 1 491 0
 770 0168 C1F30721 		ubfx	r1, r1, #8, #8
ARM GAS  C:\Users\ingan\AppData\Local\Temp\cc5yuDXv.s 			page 35


 771 016c 5171     		strb	r1, [r2, #5]
 772              	.LVL40:
 448:Generated_Source\PSoC5/USBUART_std.c ****         
 773              		.loc 1 448 0
 774 016e 0470     		strb	r4, [r0]
 452:Generated_Source\PSoC5/USBUART_std.c ****     #endif /* (USBUART_EP_MANAGEMENT_DMA) */
 775              		.loc 1 452 0
 776 0170 4570     		strb	r5, [r0, #1]
 455:Generated_Source\PSoC5/USBUART_std.c ****         {
 777              		.loc 1 455 0
 778 0172 93F85920 		ldrb	r2, [r3, #89]	@ zero_extendqisi2
 488:Generated_Source\PSoC5/USBUART_std.c ****             USBUART_ARB_EP_BASE.arbEp[ep].rwRaMsb = HI8(USBUART_EP[ep].buffOffset);
 779              		.loc 1 488 0
 780 0176 4649     		ldr	r1, .L53+4
 455:Generated_Source\PSoC5/USBUART_std.c ****         {
 781              		.loc 1 455 0
 782 0178 002A     		cmp	r2, #0
 783 017a 4BD1     		bne	.L46
 480:Generated_Source\PSoC5/USBUART_std.c ****         }
 784              		.loc 1 480 0
 785 017c 514A     		ldr	r2, .L53+56
 786 017e 8021     		movs	r1, #128
 787 0180 9170     		strb	r1, [r2, #2]
 788              	.L47:
 488:Generated_Source\PSoC5/USBUART_std.c ****             USBUART_ARB_EP_BASE.arbEp[ep].rwRaMsb = HI8(USBUART_EP[ep].buffOffset);
 789              		.loc 1 488 0
 790 0182 B3F85A10 		ldrh	r1, [r3, #90]
 791 0186 4E4A     		ldr	r2, .L53+52
 792 0188 C9B2     		uxtb	r1, r1
 793 018a 9171     		strb	r1, [r2, #6]
 489:Generated_Source\PSoC5/USBUART_std.c ****             USBUART_ARB_EP_BASE.arbEp[ep].rwWa    = LO8(USBUART_EP[ep].buffOffset);
 794              		.loc 1 489 0
 795 018c B3F85A10 		ldrh	r1, [r3, #90]
 448:Generated_Source\PSoC5/USBUART_std.c ****         
 796              		.loc 1 448 0
 797 0190 4D48     		ldr	r0, .L53+60
 489:Generated_Source\PSoC5/USBUART_std.c ****             USBUART_ARB_EP_BASE.arbEp[ep].rwWa    = LO8(USBUART_EP[ep].buffOffset);
 798              		.loc 1 489 0
 799 0192 C1F30721 		ubfx	r1, r1, #8, #8
 800 0196 D171     		strb	r1, [r2, #7]
 490:Generated_Source\PSoC5/USBUART_std.c ****             USBUART_ARB_EP_BASE.arbEp[ep].rwWaMsb = HI8(USBUART_EP[ep].buffOffset);
 801              		.loc 1 490 0
 802 0198 B3F85A10 		ldrh	r1, [r3, #90]
 448:Generated_Source\PSoC5/USBUART_std.c ****         
 803              		.loc 1 448 0
 804 019c 0C24     		movs	r4, #12
 490:Generated_Source\PSoC5/USBUART_std.c ****             USBUART_ARB_EP_BASE.arbEp[ep].rwWaMsb = HI8(USBUART_EP[ep].buffOffset);
 805              		.loc 1 490 0
 806 019e C9B2     		uxtb	r1, r1
 807 01a0 1171     		strb	r1, [r2, #4]
 491:Generated_Source\PSoC5/USBUART_std.c ****         #endif /* (CY_PSOC4) */
 808              		.loc 1 491 0
 809 01a2 B3F85A10 		ldrh	r1, [r3, #90]
 452:Generated_Source\PSoC5/USBUART_std.c ****     #endif /* (USBUART_EP_MANAGEMENT_DMA) */
 810              		.loc 1 452 0
 811 01a6 1F25     		movs	r5, #31
 491:Generated_Source\PSoC5/USBUART_std.c ****         #endif /* (CY_PSOC4) */
ARM GAS  C:\Users\ingan\AppData\Local\Temp\cc5yuDXv.s 			page 36


 812              		.loc 1 491 0
 813 01a8 C1F30721 		ubfx	r1, r1, #8, #8
 814 01ac 5171     		strb	r1, [r2, #5]
 815              	.LVL41:
 448:Generated_Source\PSoC5/USBUART_std.c ****         
 816              		.loc 1 448 0
 817 01ae 0470     		strb	r4, [r0]
 452:Generated_Source\PSoC5/USBUART_std.c ****     #endif /* (USBUART_EP_MANAGEMENT_DMA) */
 818              		.loc 1 452 0
 819 01b0 4570     		strb	r5, [r0, #1]
 455:Generated_Source\PSoC5/USBUART_std.c ****         {
 820              		.loc 1 455 0
 821 01b2 93F86520 		ldrb	r2, [r3, #101]	@ zero_extendqisi2
 488:Generated_Source\PSoC5/USBUART_std.c ****             USBUART_ARB_EP_BASE.arbEp[ep].rwRaMsb = HI8(USBUART_EP[ep].buffOffset);
 822              		.loc 1 488 0
 823 01b6 3649     		ldr	r1, .L53+4
 455:Generated_Source\PSoC5/USBUART_std.c ****         {
 824              		.loc 1 455 0
 825 01b8 42B3     		cbz	r2, .L49
 457:Generated_Source\PSoC5/USBUART_std.c ****             {
 826              		.loc 1 457 0
 827 01ba 91F86420 		ldrb	r2, [r1, #100]	@ zero_extendqisi2
 828 01be 12F0800F 		tst	r2, #128
 459:Generated_Source\PSoC5/USBUART_std.c ****                 
 829              		.loc 1 459 0
 830 01c2 424A     		ldr	r2, .L53+64
 468:Generated_Source\PSoC5/USBUART_std.c **** 
 831              		.loc 1 468 0
 832 01c4 0ABF     		itet	eq
 833 01c6 0821     		moveq	r1, #8
 459:Generated_Source\PSoC5/USBUART_std.c ****                 
 834              		.loc 1 459 0
 835 01c8 9470     		strbne	r4, [r2, #2]
 468:Generated_Source\PSoC5/USBUART_std.c **** 
 836              		.loc 1 468 0
 837 01ca 9170     		strbeq	r1, [r2, #2]
 838              	.L51:
 488:Generated_Source\PSoC5/USBUART_std.c ****             USBUART_ARB_EP_BASE.arbEp[ep].rwRaMsb = HI8(USBUART_EP[ep].buffOffset);
 839              		.loc 1 488 0 discriminator 2
 840 01cc B3F86610 		ldrh	r1, [r3, #102]
 841 01d0 3D4A     		ldr	r2, .L53+60
 842 01d2 C9B2     		uxtb	r1, r1
 843 01d4 9171     		strb	r1, [r2, #6]
 489:Generated_Source\PSoC5/USBUART_std.c ****             USBUART_ARB_EP_BASE.arbEp[ep].rwWa    = LO8(USBUART_EP[ep].buffOffset);
 844              		.loc 1 489 0 discriminator 2
 845 01d6 B3F86610 		ldrh	r1, [r3, #102]
 519:Generated_Source\PSoC5/USBUART_std.c **** }
 846              		.loc 1 519 0 discriminator 2
 847 01da 3D48     		ldr	r0, .L53+68
 489:Generated_Source\PSoC5/USBUART_std.c ****             USBUART_ARB_EP_BASE.arbEp[ep].rwWa    = LO8(USBUART_EP[ep].buffOffset);
 848              		.loc 1 489 0 discriminator 2
 849 01dc C1F30721 		ubfx	r1, r1, #8, #8
 850 01e0 D171     		strb	r1, [r2, #7]
 490:Generated_Source\PSoC5/USBUART_std.c ****             USBUART_ARB_EP_BASE.arbEp[ep].rwWaMsb = HI8(USBUART_EP[ep].buffOffset);
 851              		.loc 1 490 0 discriminator 2
 852 01e2 B3F86610 		ldrh	r1, [r3, #102]
 519:Generated_Source\PSoC5/USBUART_std.c **** }
ARM GAS  C:\Users\ingan\AppData\Local\Temp\cc5yuDXv.s 			page 37


 853              		.loc 1 519 0 discriminator 2
 854 01e6 FF24     		movs	r4, #255
 490:Generated_Source\PSoC5/USBUART_std.c ****             USBUART_ARB_EP_BASE.arbEp[ep].rwWaMsb = HI8(USBUART_EP[ep].buffOffset);
 855              		.loc 1 490 0 discriminator 2
 856 01e8 C9B2     		uxtb	r1, r1
 857 01ea 1171     		strb	r1, [r2, #4]
 491:Generated_Source\PSoC5/USBUART_std.c ****         #endif /* (CY_PSOC4) */
 858              		.loc 1 491 0 discriminator 2
 859 01ec B3F86630 		ldrh	r3, [r3, #102]
 860 01f0 C3F30723 		ubfx	r3, r3, #8, #8
 861 01f4 5371     		strb	r3, [r2, #5]
 862              	.LVL42:
 519:Generated_Source\PSoC5/USBUART_std.c **** }
 863              		.loc 1 519 0 discriminator 2
 864 01f6 0470     		strb	r4, [r0]
 520:Generated_Source\PSoC5/USBUART_std.c **** 
 865              		.loc 1 520 0 discriminator 2
 866 01f8 30BC     		pop	{r4, r5}
 867              		.cfi_remember_state
 868              		.cfi_restore 5
 869              		.cfi_restore 4
 870              		.cfi_def_cfa_offset 0
 871 01fa 7047     		bx	lr
 872              	.LVL43:
 873              	.L28:
 874              		.cfi_restore_state
 457:Generated_Source\PSoC5/USBUART_std.c ****             {
 875              		.loc 1 457 0
 876 01fc 1A7C     		ldrb	r2, [r3, #16]	@ zero_extendqisi2
 877 01fe 12F0800F 		tst	r2, #128
 459:Generated_Source\PSoC5/USBUART_std.c ****                 
 878              		.loc 1 459 0
 879 0202 244A     		ldr	r2, .L53+8
 468:Generated_Source\PSoC5/USBUART_std.c **** 
 880              		.loc 1 468 0
 881 0204 08BF     		it	eq
 882 0206 0821     		moveq	r1, #8
 459:Generated_Source\PSoC5/USBUART_std.c ****                 
 883              		.loc 1 459 0
 884 0208 9170     		strb	r1, [r2, #2]
 885 020a 07E7     		b	.L29
 886              	.LVL44:
 887              	.L49:
 480:Generated_Source\PSoC5/USBUART_std.c ****         }
 888              		.loc 1 480 0
 889 020c 2F4A     		ldr	r2, .L53+64
 890 020e 8021     		movs	r1, #128
 891 0210 9170     		strb	r1, [r2, #2]
 892 0212 DBE7     		b	.L51
 893              	.LVL45:
 894              	.L46:
 457:Generated_Source\PSoC5/USBUART_std.c ****             {
 895              		.loc 1 457 0
 896 0214 91F85820 		ldrb	r2, [r1, #88]	@ zero_extendqisi2
 897 0218 12F0800F 		tst	r2, #128
 459:Generated_Source\PSoC5/USBUART_std.c ****                 
 898              		.loc 1 459 0
ARM GAS  C:\Users\ingan\AppData\Local\Temp\cc5yuDXv.s 			page 38


 899 021c 294A     		ldr	r2, .L53+56
 468:Generated_Source\PSoC5/USBUART_std.c **** 
 900              		.loc 1 468 0
 901 021e 06BF     		itte	eq
 902 0220 0821     		moveq	r1, #8
 903 0222 9170     		strbeq	r1, [r2, #2]
 459:Generated_Source\PSoC5/USBUART_std.c ****                 
 904              		.loc 1 459 0
 905 0224 9470     		strbne	r4, [r2, #2]
 906 0226 ACE7     		b	.L47
 907              	.LVL46:
 908              	.L43:
 457:Generated_Source\PSoC5/USBUART_std.c ****             {
 909              		.loc 1 457 0
 910 0228 91F84C20 		ldrb	r2, [r1, #76]	@ zero_extendqisi2
 911 022c 12F0800F 		tst	r2, #128
 459:Generated_Source\PSoC5/USBUART_std.c ****                 
 912              		.loc 1 459 0
 913 0230 224A     		ldr	r2, .L53+48
 468:Generated_Source\PSoC5/USBUART_std.c **** 
 914              		.loc 1 468 0
 915 0232 06BF     		itte	eq
 916 0234 0821     		moveq	r1, #8
 917 0236 9170     		strbeq	r1, [r2, #2]
 459:Generated_Source\PSoC5/USBUART_std.c ****                 
 918              		.loc 1 459 0
 919 0238 9470     		strbne	r4, [r2, #2]
 920 023a 82E7     		b	.L44
 921              	.LVL47:
 922              	.L40:
 457:Generated_Source\PSoC5/USBUART_std.c ****             {
 923              		.loc 1 457 0
 924 023c 91F84020 		ldrb	r2, [r1, #64]	@ zero_extendqisi2
 925 0240 12F0800F 		tst	r2, #128
 459:Generated_Source\PSoC5/USBUART_std.c ****                 
 926              		.loc 1 459 0
 927 0244 1B4A     		ldr	r2, .L53+40
 468:Generated_Source\PSoC5/USBUART_std.c **** 
 928              		.loc 1 468 0
 929 0246 06BF     		itte	eq
 930 0248 0821     		moveq	r1, #8
 931 024a 9170     		strbeq	r1, [r2, #2]
 459:Generated_Source\PSoC5/USBUART_std.c ****                 
 932              		.loc 1 459 0
 933 024c 9470     		strbne	r4, [r2, #2]
 934 024e 58E7     		b	.L41
 935              	.LVL48:
 936              	.L37:
 457:Generated_Source\PSoC5/USBUART_std.c ****             {
 937              		.loc 1 457 0
 938 0250 91F83420 		ldrb	r2, [r1, #52]	@ zero_extendqisi2
 939 0254 12F0800F 		tst	r2, #128
 459:Generated_Source\PSoC5/USBUART_std.c ****                 
 940              		.loc 1 459 0
 941 0258 144A     		ldr	r2, .L53+32
 468:Generated_Source\PSoC5/USBUART_std.c **** 
 942              		.loc 1 468 0
ARM GAS  C:\Users\ingan\AppData\Local\Temp\cc5yuDXv.s 			page 39


 943 025a 06BF     		itte	eq
 944 025c 0821     		moveq	r1, #8
 945 025e 9170     		strbeq	r1, [r2, #2]
 459:Generated_Source\PSoC5/USBUART_std.c ****                 
 946              		.loc 1 459 0
 947 0260 9470     		strbne	r4, [r2, #2]
 948 0262 31E7     		b	.L38
 949              	.LVL49:
 950              	.L34:
 457:Generated_Source\PSoC5/USBUART_std.c ****             {
 951              		.loc 1 457 0
 952 0264 91F82820 		ldrb	r2, [r1, #40]	@ zero_extendqisi2
 953 0268 12F0800F 		tst	r2, #128
 459:Generated_Source\PSoC5/USBUART_std.c ****                 
 954              		.loc 1 459 0
 955 026c 0D4A     		ldr	r2, .L53+24
 468:Generated_Source\PSoC5/USBUART_std.c **** 
 956              		.loc 1 468 0
 957 026e 06BF     		itte	eq
 958 0270 0821     		moveq	r1, #8
 959 0272 9170     		strbeq	r1, [r2, #2]
 459:Generated_Source\PSoC5/USBUART_std.c ****                 
 960              		.loc 1 459 0
 961 0274 9470     		strbne	r4, [r2, #2]
 962 0276 0AE7     		b	.L35
 963              	.LVL50:
 964              	.L31:
 457:Generated_Source\PSoC5/USBUART_std.c ****             {
 965              		.loc 1 457 0
 966 0278 0A7F     		ldrb	r2, [r1, #28]	@ zero_extendqisi2
 967 027a 12F0800F 		tst	r2, #128
 459:Generated_Source\PSoC5/USBUART_std.c ****                 
 968              		.loc 1 459 0
 969 027e 074A     		ldr	r2, .L53+16
 468:Generated_Source\PSoC5/USBUART_std.c **** 
 970              		.loc 1 468 0
 971 0280 06BF     		itte	eq
 972 0282 0821     		moveq	r1, #8
 973 0284 9170     		strbeq	r1, [r2, #2]
 459:Generated_Source\PSoC5/USBUART_std.c ****                 
 974              		.loc 1 459 0
 975 0286 9470     		strbne	r4, [r2, #2]
 976 0288 E4E6     		b	.L32
 977              	.L54:
 978 028a 00BF     		.align	2
 979              	.L53:
 980 028c 80600040 		.word	1073766528
 981 0290 00000000 		.word	USBUART_EP
 982 0294 0C600040 		.word	1073766412
 983 0298 90600040 		.word	1073766544
 984 029c 1C600040 		.word	1073766428
 985 02a0 A0600040 		.word	1073766560
 986 02a4 2C600040 		.word	1073766444
 987 02a8 B0600040 		.word	1073766576
 988 02ac 3C600040 		.word	1073766460
 989 02b0 C0600040 		.word	1073766592
 990 02b4 4C600040 		.word	1073766476
ARM GAS  C:\Users\ingan\AppData\Local\Temp\cc5yuDXv.s 			page 40


 991 02b8 D0600040 		.word	1073766608
 992 02bc 5C600040 		.word	1073766492
 993 02c0 E0600040 		.word	1073766624
 994 02c4 6C600040 		.word	1073766508
 995 02c8 F0600040 		.word	1073766640
 996 02cc 7C600040 		.word	1073766524
 997 02d0 0A600040 		.word	1073766410
 998              		.cfi_endproc
 999              	.LFE2:
 1000              		.size	USBUART_ConfigReg, .-USBUART_ConfigReg
 1001              		.section	.text.USBUART_EpStateInit,"ax",%progbits
 1002              		.align	2
 1003              		.global	USBUART_EpStateInit
 1004              		.thumb
 1005              		.thumb_func
 1006              		.type	USBUART_EpStateInit, %function
 1007              	USBUART_EpStateInit:
 1008              	.LFB3:
 533:Generated_Source\PSoC5/USBUART_std.c ****     uint8 i;
 1009              		.loc 1 533 0
 1010              		.cfi_startproc
 1011              		@ args = 0, pretend = 0, frame = 0
 1012              		@ frame_needed = 0, uses_anonymous_args = 0
 1013              		@ link register save eliminated.
 1014              	.LVL51:
 538:Generated_Source\PSoC5/USBUART_std.c ****         {
 1015              		.loc 1 538 0
 1016 0000 224B     		ldr	r3, .L72
 1017 0002 1A7C     		ldrb	r2, [r3, #16]	@ zero_extendqisi2
 1018 0004 1206     		lsls	r2, r2, #24
 546:Generated_Source\PSoC5/USBUART_std.c ****         }
 1019              		.loc 1 546 0
 1020 0006 54BF     		ite	pl
 1021 0008 0022     		movpl	r2, #0
 541:Generated_Source\PSoC5/USBUART_std.c ****         }
 1022              		.loc 1 541 0
 1023 000a 0122     		movmi	r2, #1
 1024 000c 5A73     		strb	r2, [r3, #13]
 538:Generated_Source\PSoC5/USBUART_std.c ****         {
 1025              		.loc 1 538 0
 1026 000e 197F     		ldrb	r1, [r3, #28]	@ zero_extendqisi2
 1027 0010 1E4A     		ldr	r2, .L72
 1028 0012 0806     		lsls	r0, r1, #24
 546:Generated_Source\PSoC5/USBUART_std.c ****         }
 1029              		.loc 1 546 0
 1030 0014 54BF     		ite	pl
 1031 0016 0021     		movpl	r1, #0
 541:Generated_Source\PSoC5/USBUART_std.c ****         }
 1032              		.loc 1 541 0
 1033 0018 0121     		movmi	r1, #1
 1034 001a 5176     		strb	r1, [r2, #25]
 538:Generated_Source\PSoC5/USBUART_std.c ****         {
 1035              		.loc 1 538 0
 1036 001c 93F82810 		ldrb	r1, [r3, #40]	@ zero_extendqisi2
 1037 0020 1A4A     		ldr	r2, .L72
 1038 0022 0906     		lsls	r1, r1, #24
 546:Generated_Source\PSoC5/USBUART_std.c ****         }
ARM GAS  C:\Users\ingan\AppData\Local\Temp\cc5yuDXv.s 			page 41


 1039              		.loc 1 546 0
 1040 0024 54BF     		ite	pl
 1041 0026 0021     		movpl	r1, #0
 541:Generated_Source\PSoC5/USBUART_std.c ****         }
 1042              		.loc 1 541 0
 1043 0028 0121     		movmi	r1, #1
 1044 002a 82F82510 		strb	r1, [r2, #37]
 538:Generated_Source\PSoC5/USBUART_std.c ****         {
 1045              		.loc 1 538 0
 1046 002e 93F83410 		ldrb	r1, [r3, #52]	@ zero_extendqisi2
 1047 0032 164A     		ldr	r2, .L72
 1048 0034 0806     		lsls	r0, r1, #24
 546:Generated_Source\PSoC5/USBUART_std.c ****         }
 1049              		.loc 1 546 0
 1050 0036 54BF     		ite	pl
 1051 0038 0021     		movpl	r1, #0
 541:Generated_Source\PSoC5/USBUART_std.c ****         }
 1052              		.loc 1 541 0
 1053 003a 0121     		movmi	r1, #1
 1054 003c 82F83110 		strb	r1, [r2, #49]
 538:Generated_Source\PSoC5/USBUART_std.c ****         {
 1055              		.loc 1 538 0
 1056 0040 93F84010 		ldrb	r1, [r3, #64]	@ zero_extendqisi2
 1057 0044 114A     		ldr	r2, .L72
 1058 0046 0906     		lsls	r1, r1, #24
 546:Generated_Source\PSoC5/USBUART_std.c ****         }
 1059              		.loc 1 546 0
 1060 0048 54BF     		ite	pl
 1061 004a 0021     		movpl	r1, #0
 541:Generated_Source\PSoC5/USBUART_std.c ****         }
 1062              		.loc 1 541 0
 1063 004c 0121     		movmi	r1, #1
 1064 004e 82F83D10 		strb	r1, [r2, #61]
 538:Generated_Source\PSoC5/USBUART_std.c ****         {
 1065              		.loc 1 538 0
 1066 0052 93F84C10 		ldrb	r1, [r3, #76]	@ zero_extendqisi2
 1067 0056 0D4A     		ldr	r2, .L72
 1068 0058 0806     		lsls	r0, r1, #24
 546:Generated_Source\PSoC5/USBUART_std.c ****         }
 1069              		.loc 1 546 0
 1070 005a 54BF     		ite	pl
 1071 005c 0021     		movpl	r1, #0
 541:Generated_Source\PSoC5/USBUART_std.c ****         }
 1072              		.loc 1 541 0
 1073 005e 0121     		movmi	r1, #1
 1074 0060 82F84910 		strb	r1, [r2, #73]
 538:Generated_Source\PSoC5/USBUART_std.c ****         {
 1075              		.loc 1 538 0
 1076 0064 93F85810 		ldrb	r1, [r3, #88]	@ zero_extendqisi2
 1077 0068 084A     		ldr	r2, .L72
 1078 006a 0906     		lsls	r1, r1, #24
 546:Generated_Source\PSoC5/USBUART_std.c ****         }
 1079              		.loc 1 546 0
 1080 006c 54BF     		ite	pl
 1081 006e 0021     		movpl	r1, #0
 541:Generated_Source\PSoC5/USBUART_std.c ****         }
 1082              		.loc 1 541 0
ARM GAS  C:\Users\ingan\AppData\Local\Temp\cc5yuDXv.s 			page 42


 1083 0070 0121     		movmi	r1, #1
 1084 0072 82F85510 		strb	r1, [r2, #85]
 538:Generated_Source\PSoC5/USBUART_std.c ****         {
 1085              		.loc 1 538 0
 1086 0076 93F86420 		ldrb	r2, [r3, #100]	@ zero_extendqisi2
 1087 007a 044B     		ldr	r3, .L72
 1088 007c 1206     		lsls	r2, r2, #24
 541:Generated_Source\PSoC5/USBUART_std.c ****         }
 1089              		.loc 1 541 0
 1090 007e 4CBF     		ite	mi
 1091 0080 0122     		movmi	r2, #1
 546:Generated_Source\PSoC5/USBUART_std.c ****         }
 1092              		.loc 1 546 0
 1093 0082 0022     		movpl	r2, #0
 1094 0084 83F86120 		strb	r2, [r3, #97]
 1095              	.LVL52:
 1096 0088 7047     		bx	lr
 1097              	.L73:
 1098 008a 00BF     		.align	2
 1099              	.L72:
 1100 008c 00000000 		.word	USBUART_EP
 1101              		.cfi_endproc
 1102              	.LFE3:
 1103              		.size	USBUART_EpStateInit, .-USBUART_EpStateInit
 1104              		.section	.text.USBUART_Config,"ax",%progbits
 1105              		.align	2
 1106              		.global	USBUART_Config
 1107              		.thumb
 1108              		.thumb_func
 1109              		.type	USBUART_Config, %function
 1110              	USBUART_Config:
 1111              	.LFB4:
 571:Generated_Source\PSoC5/USBUART_std.c ****     uint8 ep;
 1112              		.loc 1 571 0
 1113              		.cfi_startproc
 1114              		@ args = 0, pretend = 0, frame = 16
 1115              		@ frame_needed = 0, uses_anonymous_args = 0
 1116              	.LVL53:
 1117 0000 2DE9F04F 		push	{r4, r5, r6, r7, r8, r9, r10, fp, lr}
 1118              		.cfi_def_cfa_offset 36
 1119              		.cfi_offset 4, -36
 1120              		.cfi_offset 5, -32
 1121              		.cfi_offset 6, -28
 1122              		.cfi_offset 7, -24
 1123              		.cfi_offset 8, -20
 1124              		.cfi_offset 9, -16
 1125              		.cfi_offset 10, -12
 1126              		.cfi_offset 11, -8
 1127              		.cfi_offset 14, -4
 588:Generated_Source\PSoC5/USBUART_std.c ****         USBUART_EP[ep].hwEpState  = 0u;
 1128              		.loc 1 588 0
 1129 0004 594D     		ldr	r5, .L137
 1130 0006 0023     		movs	r3, #0
 1131 0008 2B70     		strb	r3, [r5]
 571:Generated_Source\PSoC5/USBUART_std.c ****     uint8 ep;
 1132              		.loc 1 571 0
 1133 000a 85B0     		sub	sp, sp, #20
ARM GAS  C:\Users\ingan\AppData\Local\Temp\cc5yuDXv.s 			page 43


 1134              		.cfi_def_cfa_offset 56
 589:Generated_Source\PSoC5/USBUART_std.c ****         USBUART_EP[ep].epToggle   = 0u;
 1135              		.loc 1 589 0
 1136 000c AB70     		strb	r3, [r5, #2]
 590:Generated_Source\PSoC5/USBUART_std.c ****         USBUART_EP[ep].bufferSize = 0u;
 1137              		.loc 1 590 0
 1138 000e EB70     		strb	r3, [r5, #3]
 591:Generated_Source\PSoC5/USBUART_std.c ****         USBUART_EP[ep].interface  = 0u;
 1139              		.loc 1 591 0
 1140 0010 2B81     		strh	r3, [r5, #8]	@ movhi
 592:Generated_Source\PSoC5/USBUART_std.c ****         USBUART_EP[ep].apiEpState = USBUART_NO_EVENT_PENDING;
 1141              		.loc 1 592 0
 1142 0012 AB72     		strb	r3, [r5, #10]
 593:Generated_Source\PSoC5/USBUART_std.c ****         USBUART_EP[ep].epMode     = USBUART_MODE_DISABLE;   
 1143              		.loc 1 593 0
 1144 0014 6B70     		strb	r3, [r5, #1]
 594:Generated_Source\PSoC5/USBUART_std.c ****     }
 1145              		.loc 1 594 0
 1146 0016 6B71     		strb	r3, [r5, #5]
 1147              	.LVL54:
 588:Generated_Source\PSoC5/USBUART_std.c ****         USBUART_EP[ep].hwEpState  = 0u;
 1148              		.loc 1 588 0
 1149 0018 2B73     		strb	r3, [r5, #12]
 589:Generated_Source\PSoC5/USBUART_std.c ****         USBUART_EP[ep].epToggle   = 0u;
 1150              		.loc 1 589 0
 1151 001a AB73     		strb	r3, [r5, #14]
 590:Generated_Source\PSoC5/USBUART_std.c ****         USBUART_EP[ep].bufferSize = 0u;
 1152              		.loc 1 590 0
 1153 001c EB73     		strb	r3, [r5, #15]
 591:Generated_Source\PSoC5/USBUART_std.c ****         USBUART_EP[ep].interface  = 0u;
 1154              		.loc 1 591 0
 1155 001e AB82     		strh	r3, [r5, #20]	@ movhi
 592:Generated_Source\PSoC5/USBUART_std.c ****         USBUART_EP[ep].apiEpState = USBUART_NO_EVENT_PENDING;
 1156              		.loc 1 592 0
 1157 0020 AB75     		strb	r3, [r5, #22]
 593:Generated_Source\PSoC5/USBUART_std.c ****         USBUART_EP[ep].epMode     = USBUART_MODE_DISABLE;   
 1158              		.loc 1 593 0
 1159 0022 6B73     		strb	r3, [r5, #13]
 594:Generated_Source\PSoC5/USBUART_std.c ****     }
 1160              		.loc 1 594 0
 1161 0024 6B74     		strb	r3, [r5, #17]
 1162              	.LVL55:
 588:Generated_Source\PSoC5/USBUART_std.c ****         USBUART_EP[ep].hwEpState  = 0u;
 1163              		.loc 1 588 0
 1164 0026 2B76     		strb	r3, [r5, #24]
 589:Generated_Source\PSoC5/USBUART_std.c ****         USBUART_EP[ep].epToggle   = 0u;
 1165              		.loc 1 589 0
 1166 0028 AB76     		strb	r3, [r5, #26]
 590:Generated_Source\PSoC5/USBUART_std.c ****         USBUART_EP[ep].bufferSize = 0u;
 1167              		.loc 1 590 0
 1168 002a EB76     		strb	r3, [r5, #27]
 591:Generated_Source\PSoC5/USBUART_std.c ****         USBUART_EP[ep].interface  = 0u;
 1169              		.loc 1 591 0
 1170 002c 2B84     		strh	r3, [r5, #32]	@ movhi
 592:Generated_Source\PSoC5/USBUART_std.c ****         USBUART_EP[ep].apiEpState = USBUART_NO_EVENT_PENDING;
 1171              		.loc 1 592 0
 1172 002e 85F82230 		strb	r3, [r5, #34]
ARM GAS  C:\Users\ingan\AppData\Local\Temp\cc5yuDXv.s 			page 44


 593:Generated_Source\PSoC5/USBUART_std.c ****         USBUART_EP[ep].epMode     = USBUART_MODE_DISABLE;   
 1173              		.loc 1 593 0
 1174 0032 6B76     		strb	r3, [r5, #25]
 594:Generated_Source\PSoC5/USBUART_std.c ****     }
 1175              		.loc 1 594 0
 1176 0034 6B77     		strb	r3, [r5, #29]
 1177              	.LVL56:
 588:Generated_Source\PSoC5/USBUART_std.c ****         USBUART_EP[ep].hwEpState  = 0u;
 1178              		.loc 1 588 0
 1179 0036 85F82430 		strb	r3, [r5, #36]
 589:Generated_Source\PSoC5/USBUART_std.c ****         USBUART_EP[ep].epToggle   = 0u;
 1180              		.loc 1 589 0
 1181 003a 85F82630 		strb	r3, [r5, #38]
 590:Generated_Source\PSoC5/USBUART_std.c ****         USBUART_EP[ep].bufferSize = 0u;
 1182              		.loc 1 590 0
 1183 003e 85F82730 		strb	r3, [r5, #39]
 591:Generated_Source\PSoC5/USBUART_std.c ****         USBUART_EP[ep].interface  = 0u;
 1184              		.loc 1 591 0
 1185 0042 AB85     		strh	r3, [r5, #44]	@ movhi
 592:Generated_Source\PSoC5/USBUART_std.c ****         USBUART_EP[ep].apiEpState = USBUART_NO_EVENT_PENDING;
 1186              		.loc 1 592 0
 1187 0044 85F82E30 		strb	r3, [r5, #46]
 593:Generated_Source\PSoC5/USBUART_std.c ****         USBUART_EP[ep].epMode     = USBUART_MODE_DISABLE;   
 1188              		.loc 1 593 0
 1189 0048 85F82530 		strb	r3, [r5, #37]
 594:Generated_Source\PSoC5/USBUART_std.c ****     }
 1190              		.loc 1 594 0
 1191 004c 85F82930 		strb	r3, [r5, #41]
 1192              	.LVL57:
 588:Generated_Source\PSoC5/USBUART_std.c ****         USBUART_EP[ep].hwEpState  = 0u;
 1193              		.loc 1 588 0
 1194 0050 85F83030 		strb	r3, [r5, #48]
 589:Generated_Source\PSoC5/USBUART_std.c ****         USBUART_EP[ep].epToggle   = 0u;
 1195              		.loc 1 589 0
 1196 0054 85F83230 		strb	r3, [r5, #50]
 590:Generated_Source\PSoC5/USBUART_std.c ****         USBUART_EP[ep].bufferSize = 0u;
 1197              		.loc 1 590 0
 1198 0058 85F83330 		strb	r3, [r5, #51]
 591:Generated_Source\PSoC5/USBUART_std.c ****         USBUART_EP[ep].interface  = 0u;
 1199              		.loc 1 591 0
 1200 005c 2B87     		strh	r3, [r5, #56]	@ movhi
 592:Generated_Source\PSoC5/USBUART_std.c ****         USBUART_EP[ep].apiEpState = USBUART_NO_EVENT_PENDING;
 1201              		.loc 1 592 0
 1202 005e 85F83A30 		strb	r3, [r5, #58]
 593:Generated_Source\PSoC5/USBUART_std.c ****         USBUART_EP[ep].epMode     = USBUART_MODE_DISABLE;   
 1203              		.loc 1 593 0
 1204 0062 85F83130 		strb	r3, [r5, #49]
 594:Generated_Source\PSoC5/USBUART_std.c ****     }
 1205              		.loc 1 594 0
 1206 0066 85F83530 		strb	r3, [r5, #53]
 1207              	.LVL58:
 588:Generated_Source\PSoC5/USBUART_std.c ****         USBUART_EP[ep].hwEpState  = 0u;
 1208              		.loc 1 588 0
 1209 006a 85F83C30 		strb	r3, [r5, #60]
 589:Generated_Source\PSoC5/USBUART_std.c ****         USBUART_EP[ep].epToggle   = 0u;
 1210              		.loc 1 589 0
 1211 006e 85F83E30 		strb	r3, [r5, #62]
ARM GAS  C:\Users\ingan\AppData\Local\Temp\cc5yuDXv.s 			page 45


 590:Generated_Source\PSoC5/USBUART_std.c ****         USBUART_EP[ep].bufferSize = 0u;
 1212              		.loc 1 590 0
 1213 0072 85F83F30 		strb	r3, [r5, #63]
 591:Generated_Source\PSoC5/USBUART_std.c ****         USBUART_EP[ep].interface  = 0u;
 1214              		.loc 1 591 0
 1215 0076 A5F84430 		strh	r3, [r5, #68]	@ movhi
 592:Generated_Source\PSoC5/USBUART_std.c ****         USBUART_EP[ep].apiEpState = USBUART_NO_EVENT_PENDING;
 1216              		.loc 1 592 0
 1217 007a 85F84630 		strb	r3, [r5, #70]
 593:Generated_Source\PSoC5/USBUART_std.c ****         USBUART_EP[ep].epMode     = USBUART_MODE_DISABLE;   
 1218              		.loc 1 593 0
 1219 007e 85F83D30 		strb	r3, [r5, #61]
 594:Generated_Source\PSoC5/USBUART_std.c ****     }
 1220              		.loc 1 594 0
 1221 0082 85F84130 		strb	r3, [r5, #65]
 1222              	.LVL59:
 588:Generated_Source\PSoC5/USBUART_std.c ****         USBUART_EP[ep].hwEpState  = 0u;
 1223              		.loc 1 588 0
 1224 0086 85F84830 		strb	r3, [r5, #72]
 589:Generated_Source\PSoC5/USBUART_std.c ****         USBUART_EP[ep].epToggle   = 0u;
 1225              		.loc 1 589 0
 1226 008a 85F84A30 		strb	r3, [r5, #74]
 590:Generated_Source\PSoC5/USBUART_std.c ****         USBUART_EP[ep].bufferSize = 0u;
 1227              		.loc 1 590 0
 1228 008e 85F84B30 		strb	r3, [r5, #75]
 591:Generated_Source\PSoC5/USBUART_std.c ****         USBUART_EP[ep].interface  = 0u;
 1229              		.loc 1 591 0
 1230 0092 A5F85030 		strh	r3, [r5, #80]	@ movhi
 592:Generated_Source\PSoC5/USBUART_std.c ****         USBUART_EP[ep].apiEpState = USBUART_NO_EVENT_PENDING;
 1231              		.loc 1 592 0
 1232 0096 85F85230 		strb	r3, [r5, #82]
 593:Generated_Source\PSoC5/USBUART_std.c ****         USBUART_EP[ep].epMode     = USBUART_MODE_DISABLE;   
 1233              		.loc 1 593 0
 1234 009a 85F84930 		strb	r3, [r5, #73]
 594:Generated_Source\PSoC5/USBUART_std.c ****     }
 1235              		.loc 1 594 0
 1236 009e 85F84D30 		strb	r3, [r5, #77]
 1237              	.LVL60:
 588:Generated_Source\PSoC5/USBUART_std.c ****         USBUART_EP[ep].hwEpState  = 0u;
 1238              		.loc 1 588 0
 1239 00a2 85F85430 		strb	r3, [r5, #84]
 589:Generated_Source\PSoC5/USBUART_std.c ****         USBUART_EP[ep].epToggle   = 0u;
 1240              		.loc 1 589 0
 1241 00a6 85F85630 		strb	r3, [r5, #86]
 590:Generated_Source\PSoC5/USBUART_std.c ****         USBUART_EP[ep].bufferSize = 0u;
 1242              		.loc 1 590 0
 1243 00aa 85F85730 		strb	r3, [r5, #87]
 591:Generated_Source\PSoC5/USBUART_std.c ****         USBUART_EP[ep].interface  = 0u;
 1244              		.loc 1 591 0
 1245 00ae A5F85C30 		strh	r3, [r5, #92]	@ movhi
 592:Generated_Source\PSoC5/USBUART_std.c ****         USBUART_EP[ep].apiEpState = USBUART_NO_EVENT_PENDING;
 1246              		.loc 1 592 0
 1247 00b2 85F85E30 		strb	r3, [r5, #94]
 593:Generated_Source\PSoC5/USBUART_std.c ****         USBUART_EP[ep].epMode     = USBUART_MODE_DISABLE;   
 1248              		.loc 1 593 0
 1249 00b6 85F85530 		strb	r3, [r5, #85]
 594:Generated_Source\PSoC5/USBUART_std.c ****     }
ARM GAS  C:\Users\ingan\AppData\Local\Temp\cc5yuDXv.s 			page 46


 1250              		.loc 1 594 0
 1251 00ba 85F85930 		strb	r3, [r5, #89]
 1252              	.LVL61:
 588:Generated_Source\PSoC5/USBUART_std.c ****         USBUART_EP[ep].hwEpState  = 0u;
 1253              		.loc 1 588 0
 1254 00be 85F86030 		strb	r3, [r5, #96]
 589:Generated_Source\PSoC5/USBUART_std.c ****         USBUART_EP[ep].epToggle   = 0u;
 1255              		.loc 1 589 0
 1256 00c2 85F86230 		strb	r3, [r5, #98]
 590:Generated_Source\PSoC5/USBUART_std.c ****         USBUART_EP[ep].bufferSize = 0u;
 1257              		.loc 1 590 0
 1258 00c6 85F86330 		strb	r3, [r5, #99]
 591:Generated_Source\PSoC5/USBUART_std.c ****         USBUART_EP[ep].interface  = 0u;
 1259              		.loc 1 591 0
 1260 00ca A5F86830 		strh	r3, [r5, #104]	@ movhi
 592:Generated_Source\PSoC5/USBUART_std.c ****         USBUART_EP[ep].apiEpState = USBUART_NO_EVENT_PENDING;
 1261              		.loc 1 592 0
 1262 00ce 85F86A30 		strb	r3, [r5, #106]
 593:Generated_Source\PSoC5/USBUART_std.c ****         USBUART_EP[ep].epMode     = USBUART_MODE_DISABLE;   
 1263              		.loc 1 593 0
 1264 00d2 85F86130 		strb	r3, [r5, #97]
 594:Generated_Source\PSoC5/USBUART_std.c ****     }
 1265              		.loc 1 594 0
 1266 00d6 85F86530 		strb	r3, [r5, #101]
 1267              	.LVL62:
 598:Generated_Source\PSoC5/USBUART_std.c ****     {
 1268              		.loc 1 598 0
 1269 00da 28B1     		cbz	r0, .L75
 1270              	.LVL63:
 602:Generated_Source\PSoC5/USBUART_std.c ****             USBUART_interfaceSettingLast[i] = 0u;
 1271              		.loc 1 602 0 discriminator 1
 1272 00dc 2449     		ldr	r1, .L137+4
 603:Generated_Source\PSoC5/USBUART_std.c ****         }
 1273              		.loc 1 603 0 discriminator 1
 1274 00de 254A     		ldr	r2, .L137+8
 602:Generated_Source\PSoC5/USBUART_std.c ****             USBUART_interfaceSettingLast[i] = 0u;
 1275              		.loc 1 602 0 discriminator 1
 1276 00e0 0B70     		strb	r3, [r1]
 603:Generated_Source\PSoC5/USBUART_std.c ****         }
 1277              		.loc 1 603 0 discriminator 1
 1278 00e2 1370     		strb	r3, [r2]
 1279              	.LVL64:
 602:Generated_Source\PSoC5/USBUART_std.c ****             USBUART_interfaceSettingLast[i] = 0u;
 1280              		.loc 1 602 0 discriminator 1
 1281 00e4 4B70     		strb	r3, [r1, #1]
 603:Generated_Source\PSoC5/USBUART_std.c ****         }
 1282              		.loc 1 603 0 discriminator 1
 1283 00e6 5370     		strb	r3, [r2, #1]
 1284              	.LVL65:
 1285              	.L75:
 608:Generated_Source\PSoC5/USBUART_std.c ****     {
 1286              		.loc 1 608 0
 1287 00e8 234B     		ldr	r3, .L137+12
 1288 00ea 1B78     		ldrb	r3, [r3]	@ zero_extendqisi2
 1289 00ec 002B     		cmp	r3, #0
 1290 00ee 00F05482 		beq	.L74
 1291              	.LVL66:
ARM GAS  C:\Users\ingan\AppData\Local\Temp\cc5yuDXv.s 			page 47


 1292              	.LBB43:
 1293              	.LBB44:
 1294              	.LBB45:
 614:Generated_Source\PSoC5/USBUART_std.c ****         
 1295              		.loc 1 614 0
 1296 00f2 214B     		ldr	r3, .L137+12
 1297              	.LBB46:
 1298              	.LBB47:
 948:Generated_Source\PSoC5/USBUART_std.c **** 
 1299              		.loc 1 948 0
 1300 00f4 214A     		ldr	r2, .L137+16
 1301              	.LBE47:
 1302              	.LBE46:
 614:Generated_Source\PSoC5/USBUART_std.c ****         
 1303              		.loc 1 614 0
 1304 00f6 1B78     		ldrb	r3, [r3]	@ zero_extendqisi2
 1305              	.LBB51:
 1306              	.LBB48:
 948:Generated_Source\PSoC5/USBUART_std.c **** 
 1307              		.loc 1 948 0
 1308 00f8 2149     		ldr	r1, .L137+20
 1309 00fa 1278     		ldrb	r2, [r2]	@ zero_extendqisi2
 1310              	.LBE48:
 1311              	.LBE51:
 614:Generated_Source\PSoC5/USBUART_std.c ****         
 1312              		.loc 1 614 0
 1313 00fc 013B     		subs	r3, r3, #1
 1314              	.LBB52:
 1315              	.LBB49:
 948:Generated_Source\PSoC5/USBUART_std.c **** 
 1316              		.loc 1 948 0
 1317 00fe 01EBC202 		add	r2, r1, r2, lsl #3
 1318 0102 5268     		ldr	r2, [r2, #4]
 1319              	.LBE49:
 1320              	.LBE52:
 614:Generated_Source\PSoC5/USBUART_std.c ****         
 1321              		.loc 1 614 0
 1322 0104 DBB2     		uxtb	r3, r3
 1323              	.LVL67:
 1324              	.LBB53:
 1325              	.LBB50:
 957:Generated_Source\PSoC5/USBUART_std.c ****     {
 1326              		.loc 1 957 0
 1327 0106 117C     		ldrb	r1, [r2, #16]	@ zero_extendqisi2
 1328 0108 9942     		cmp	r1, r3
 1329 010a 40F24982 		bls	.L77
 1330              		.loc 1 963 0
 1331 010e 02EBC303 		add	r3, r2, r3, lsl #3
 1332              	.LVL68:
 1333 0112 D3F814A0 		ldr	r10, [r3, #20]
 1334              	.LVL69:
 1335              	.LBE50:
 1336              	.LBE53:
 620:Generated_Source\PSoC5/USBUART_std.c ****         }
 1337              		.loc 1 620 0
 1338 0116 1B4A     		ldr	r2, .L137+24
 618:Generated_Source\PSoC5/USBUART_std.c ****         {
ARM GAS  C:\Users\ingan\AppData\Local\Temp\cc5yuDXv.s 			page 48


 1339              		.loc 1 618 0
 1340 0118 DAF80430 		ldr	r3, [r10, #4]
 629:Generated_Source\PSoC5/USBUART_std.c **** 
 1341              		.loc 1 629 0
 1342 011c 9AF808B0 		ldrb	fp, [r10, #8]	@ zero_extendqisi2
 1343              	.LVL70:
 618:Generated_Source\PSoC5/USBUART_std.c ****         {
 1344              		.loc 1 618 0
 1345 0120 DB79     		ldrb	r3, [r3, #7]	@ zero_extendqisi2
 629:Generated_Source\PSoC5/USBUART_std.c **** 
 1346              		.loc 1 629 0
 1347 0122 0126     		movs	r6, #1
 618:Generated_Source\PSoC5/USBUART_std.c ****         {
 1348              		.loc 1 618 0
 1349 0124 13F0400F 		tst	r3, #64
 620:Generated_Source\PSoC5/USBUART_std.c ****         }
 1350              		.loc 1 620 0
 1351 0128 1378     		ldrb	r3, [r2]	@ zero_extendqisi2
 629:Generated_Source\PSoC5/USBUART_std.c **** 
 1352              		.loc 1 629 0
 1353 012a DAF80C40 		ldr	r4, [r10, #12]
 620:Generated_Source\PSoC5/USBUART_std.c ****         }
 1354              		.loc 1 620 0
 1355 012e 14BF     		ite	ne
 1356 0130 43F00103 		orrne	r3, r3, #1
 624:Generated_Source\PSoC5/USBUART_std.c ****         }
 1357              		.loc 1 624 0
 1358 0134 03F0FE03 		andeq	r3, r3, #254
 1359 0138 1370     		strb	r3, [r2]
 1360 013a 0BF1FF33 		add	r3, fp, #-1
 1361 013e DBB2     		uxtb	r3, r3
 1362 0140 0393     		str	r3, [sp, #12]
 1363 0142 3344     		add	r3, r3, r6
 1364 0144 DB00     		lsls	r3, r3, #3
 1365 0146 0193     		str	r3, [sp, #4]
 1366 0148 5346     		mov	r3, r10
 705:Generated_Source\PSoC5/USBUART_std.c ****                         {                            
 1367              		.loc 1 705 0
 1368 014a DFF82490 		ldr	r9, .L137+4
 611:Generated_Source\PSoC5/USBUART_std.c ****         #endif  /* (USBUART_ENABLE_CDC_CLASS) */  
 1369              		.loc 1 611 0
 1370 014e 0022     		movs	r2, #0
 1371              	.LVL71:
 1372              	.L88:
 1373 0150 5FFA86FA 		uxtb	r10, r6
 1374              	.LVL72:
 694:Generated_Source\PSoC5/USBUART_std.c ****                 {
 1375              		.loc 1 694 0
 1376 0154 BBF1000F 		cmp	fp, #0
 1377 0158 00F03082 		beq	.L118
 1378 015c 0199     		ldr	r1, [sp, #4]
 699:Generated_Source\PSoC5/USBUART_std.c ****                         {
 1379              		.loc 1 699 0
 1380 015e 06EB4608 		add	r8, r6, r6, lsl #1
 1381 0162 4FEA8808 		lsl	r8, r8, #2
 1382 0166 6718     		adds	r7, r4, r1
 1383 0168 11E0     		b	.L87
ARM GAS  C:\Users\ingan\AppData\Local\Temp\cc5yuDXv.s 			page 49


 1384              	.L138:
 1385 016a 00BF     		.align	2
 1386              	.L137:
 1387 016c 00000000 		.word	USBUART_EP
 1388 0170 00000000 		.word	USBUART_interfaceSetting
 1389 0174 00000000 		.word	USBUART_interfaceSettingLast
 1390 0178 00000000 		.word	USBUART_configuration
 1391 017c 00000000 		.word	USBUART_device
 1392 0180 00000000 		.word	USBUART_TABLE
 1393 0184 00000000 		.word	USBUART_deviceStatus
 1394              	.LVL73:
 1395              	.L81:
 752:Generated_Source\PSoC5/USBUART_std.c ****                 }
 1396              		.loc 1 752 0
 1397 0188 0834     		adds	r4, r4, #8
 1398              	.LVL74:
 694:Generated_Source\PSoC5/USBUART_std.c ****                 {
 1399              		.loc 1 694 0
 1400 018a BC42     		cmp	r4, r7
 1401 018c 3CD0     		beq	.L135
 1402              	.LVL75:
 1403              	.L87:
 696:Generated_Source\PSoC5/USBUART_std.c ****                     {
 1404              		.loc 1 696 0
 1405 018e A178     		ldrb	r1, [r4, #2]	@ zero_extendqisi2
 1406 0190 01F07F0E 		and	lr, r1, #127
 1407 0194 7645     		cmp	r6, lr
 1408 0196 F7D1     		bne	.L81
 699:Generated_Source\PSoC5/USBUART_std.c ****                         {
 1409              		.loc 1 699 0
 1410 0198 05EB080C 		add	ip, r5, r8
 1411 019c BCF808E0 		ldrh	lr, [ip, #8]
 1412 01a0 A088     		ldrh	r0, [r4, #4]
 1413 01a2 1FFA8EFE 		uxth	lr, lr
 1414 01a6 8645     		cmp	lr, r0
 701:Generated_Source\PSoC5/USBUART_std.c ****                         }
 1415              		.loc 1 701 0
 1416 01a8 38BF     		it	cc
 1417 01aa ACF80800 		strhcc	r0, [ip, #8]	@ movhi
 705:Generated_Source\PSoC5/USBUART_std.c ****                         {                            
 1418              		.loc 1 705 0
 1419 01ae 2078     		ldrb	r0, [r4]	@ zero_extendqisi2
 1420 01b0 94F801E0 		ldrb	lr, [r4, #1]	@ zero_extendqisi2
 1421 01b4 19F80000 		ldrb	r0, [r9, r0]	@ zero_extendqisi2
 1422 01b8 8645     		cmp	lr, r0
 1423 01ba E5D1     		bne	.L81
 707:Generated_Source\PSoC5/USBUART_std.c ****                             USBUART_EP[i].attrib = pEP->attributes;
 1424              		.loc 1 707 0
 1425 01bc 05EB0800 		add	r0, r5, r8
 1426 01c0 0171     		strb	r1, [r0, #4]
 708:Generated_Source\PSoC5/USBUART_std.c ****                             
 1427              		.loc 1 708 0
 1428 01c2 E178     		ldrb	r1, [r4, #3]	@ zero_extendqisi2
 1429 01c4 05F80810 		strb	r1, [r5, r8]
 712:Generated_Source\PSoC5/USBUART_std.c ****                             {
 1430              		.loc 1 712 0
 1431 01c8 94F902E0 		ldrsb	lr, [r4, #2]
ARM GAS  C:\Users\ingan\AppData\Local\Temp\cc5yuDXv.s 			page 50


 710:Generated_Source\PSoC5/USBUART_std.c ****                             
 1432              		.loc 1 710 0
 1433 01cc E178     		ldrb	r1, [r4, #3]	@ zero_extendqisi2
 712:Generated_Source\PSoC5/USBUART_std.c ****                             {
 1434              		.loc 1 712 0
 1435 01ce BEF1000F 		cmp	lr, #0
 710:Generated_Source\PSoC5/USBUART_std.c ****                             
 1436              		.loc 1 710 0
 1437 01d2 01F00301 		and	r1, r1, #3
 1438              	.LVL76:
 712:Generated_Source\PSoC5/USBUART_std.c ****                             {
 1439              		.loc 1 712 0
 1440 01d6 C0F2E681 		blt	.L136
 728:Generated_Source\PSoC5/USBUART_std.c ****                                 USBUART_EP[i].apiEpState = USBUART_NO_EVENT_PENDING;
 1441              		.loc 1 728 0
 1442 01da 0129     		cmp	r1, #1
 1443 01dc 14BF     		ite	ne
 1444 01de 0921     		movne	r1, #9
 1445              	.LVL77:
 1446 01e0 0521     		moveq	r1, #5
 1447 01e2 4171     		strb	r1, [r0, #5]
 1448              	.LVL78:
 729:Generated_Source\PSoC5/USBUART_std.c ****                                 
 1449              		.loc 1 729 0
 1450 01e4 4FF00001 		mov	r1, #0
 1451 01e8 4170     		strb	r1, [r0, #1]
 1452              	.L85:
 740:Generated_Source\PSoC5/USBUART_std.c ****                             {
 1453              		.loc 1 740 0
 1454 01ea A179     		ldrb	r1, [r4, #6]	@ zero_extendqisi2
 1455 01ec 01F0F701 		and	r1, r1, #247
 1456 01f0 0229     		cmp	r1, #2
 1457 01f2 C9D1     		bne	.L81
 742:Generated_Source\PSoC5/USBUART_std.c ****                             }
 1458              		.loc 1 742 0
 1459 01f4 2046     		mov	r0, r4
 1460 01f6 5146     		mov	r1, r10
 1461 01f8 0293     		str	r3, [sp, #8]
 1462 01fa FFF7FEFF 		bl	USBUART_Cdc_EpInit
 1463              	.LVL79:
 752:Generated_Source\PSoC5/USBUART_std.c ****                 }
 1464              		.loc 1 752 0
 1465 01fe 0834     		adds	r4, r4, #8
 1466              	.LVL80:
 694:Generated_Source\PSoC5/USBUART_std.c ****                 {
 1467              		.loc 1 694 0
 1468 0200 BC42     		cmp	r4, r7
 742:Generated_Source\PSoC5/USBUART_std.c ****                             }
 1469              		.loc 1 742 0
 1470 0202 0246     		mov	r2, r0
 1471 0204 029B     		ldr	r3, [sp, #8]
 1472              	.LVL81:
 694:Generated_Source\PSoC5/USBUART_std.c ****                 {
 1473              		.loc 1 694 0
 1474 0206 C2D1     		bne	.L87
 1475              	.L135:
 1476 0208 D968     		ldr	r1, [r3, #12]
ARM GAS  C:\Users\ingan\AppData\Local\Temp\cc5yuDXv.s 			page 51


 1477              	.LVL82:
 1478              	.L80:
 1479 020a 0136     		adds	r6, r6, #1
 1480              	.LVL83:
 687:Generated_Source\PSoC5/USBUART_std.c ****             {
 1481              		.loc 1 687 0
 1482 020c 092E     		cmp	r6, #9
 1483 020e 0C46     		mov	r4, r1
 1484 0210 9ED1     		bne	.L88
 1485              	.LVL84:
 763:Generated_Source\PSoC5/USBUART_std.c ****         {
 1486              		.loc 1 763 0
 1487 0212 BBF1000F 		cmp	fp, #0
 1488 0216 13D0     		beq	.L93
 1489 0218 0398     		ldr	r0, [sp, #12]
 1490 021a 01F10802 		add	r2, r1, #8
 1491              	.LVL85:
 1492 021e 0230     		adds	r0, r0, #2
 1493 0220 01EBC000 		add	r0, r1, r0, lsl #3
 1494              	.LVL86:
 1495              	.L92:
 766:Generated_Source\PSoC5/USBUART_std.c ****             pEP = &pEP[1u];
 1496              		.loc 1 766 0
 1497 0224 12F8063C 		ldrb	r3, [r2, #-6]	@ zero_extendqisi2
 1498 0228 12F8081C 		ldrb	r1, [r2, #-8]	@ zero_extendqisi2
 1499 022c 03F07F03 		and	r3, r3, #127
 1500 0230 03EB4303 		add	r3, r3, r3, lsl #1
 1501 0234 0832     		adds	r2, r2, #8
 1502              	.LVL87:
 1503 0236 05EB8303 		add	r3, r5, r3, lsl #2
 763:Generated_Source\PSoC5/USBUART_std.c ****         {
 1504              		.loc 1 763 0
 1505 023a 8242     		cmp	r2, r0
 766:Generated_Source\PSoC5/USBUART_std.c ****             pEP = &pEP[1u];
 1506              		.loc 1 766 0
 1507 023c 9972     		strb	r1, [r3, #10]
 1508              	.LVL88:
 763:Generated_Source\PSoC5/USBUART_std.c ****         {
 1509              		.loc 1 763 0
 1510 023e F1D1     		bne	.L92
 1511              	.L93:
 1512              	.LBB54:
 1513              	.LBB55:
 964:Generated_Source\PSoC5/USBUART_std.c ****     }
 965:Generated_Source\PSoC5/USBUART_std.c **** 
 966:Generated_Source\PSoC5/USBUART_std.c ****     return (pTmp);
 967:Generated_Source\PSoC5/USBUART_std.c **** }
 968:Generated_Source\PSoC5/USBUART_std.c **** 
 969:Generated_Source\PSoC5/USBUART_std.c **** 
 970:Generated_Source\PSoC5/USBUART_std.c **** #if (USBUART_BOS_ENABLE)
 971:Generated_Source\PSoC5/USBUART_std.c ****     /*******************************************************************************
 972:Generated_Source\PSoC5/USBUART_std.c ****     * Function Name: USBUART_GetBOSPtr
 973:Generated_Source\PSoC5/USBUART_std.c ****     ****************************************************************************//**
 974:Generated_Source\PSoC5/USBUART_std.c ****     *
 975:Generated_Source\PSoC5/USBUART_std.c ****     *  This routine returns a pointer a BOS table entry
 976:Generated_Source\PSoC5/USBUART_std.c ****     *
 977:Generated_Source\PSoC5/USBUART_std.c ****     *  
ARM GAS  C:\Users\ingan\AppData\Local\Temp\cc5yuDXv.s 			page 52


 978:Generated_Source\PSoC5/USBUART_std.c ****     *
 979:Generated_Source\PSoC5/USBUART_std.c ****     * \return
 980:Generated_Source\PSoC5/USBUART_std.c ****     *  BOS Descriptor pointer or NULL when descriptor does not exist.
 981:Generated_Source\PSoC5/USBUART_std.c ****     *
 982:Generated_Source\PSoC5/USBUART_std.c ****     *******************************************************************************/
 983:Generated_Source\PSoC5/USBUART_std.c ****     const T_USBUART_LUT CYCODE *USBUART_GetBOSPtr(void)
 984:Generated_Source\PSoC5/USBUART_std.c ****                                                             
 985:Generated_Source\PSoC5/USBUART_std.c ****     {
 986:Generated_Source\PSoC5/USBUART_std.c ****         /* Device Table */
 987:Generated_Source\PSoC5/USBUART_std.c ****         const T_USBUART_LUT CYCODE *pTmp;
 988:Generated_Source\PSoC5/USBUART_std.c **** 
 989:Generated_Source\PSoC5/USBUART_std.c ****         pTmp = (const T_USBUART_LUT CYCODE *) USBUART_TABLE[USBUART_device].p_list;
 990:Generated_Source\PSoC5/USBUART_std.c **** 
 991:Generated_Source\PSoC5/USBUART_std.c ****         /* The first entry points to the Device Descriptor,
 992:Generated_Source\PSoC5/USBUART_std.c ****         *  the second entry points to the BOS Descriptor
 993:Generated_Source\PSoC5/USBUART_std.c ****         */
 994:Generated_Source\PSoC5/USBUART_std.c ****         pTmp = &pTmp[1u];
 995:Generated_Source\PSoC5/USBUART_std.c ****         pTmp = (const T_USBUART_LUT CYCODE *) pTmp->p_list;
 996:Generated_Source\PSoC5/USBUART_std.c ****         return (pTmp);
 997:Generated_Source\PSoC5/USBUART_std.c ****     }
 998:Generated_Source\PSoC5/USBUART_std.c **** #endif /* (USBUART_BOS_ENABLE) */
 999:Generated_Source\PSoC5/USBUART_std.c **** 
1000:Generated_Source\PSoC5/USBUART_std.c **** 
1001:Generated_Source\PSoC5/USBUART_std.c **** /*******************************************************************************
1002:Generated_Source\PSoC5/USBUART_std.c **** * Function Name: USBUART_GetDeviceTablePtr
1003:Generated_Source\PSoC5/USBUART_std.c **** ****************************************************************************//**
1004:Generated_Source\PSoC5/USBUART_std.c **** *
1005:Generated_Source\PSoC5/USBUART_std.c **** *  This routine returns a pointer to the Device table
1006:Generated_Source\PSoC5/USBUART_std.c **** *
1007:Generated_Source\PSoC5/USBUART_std.c **** * \return
1008:Generated_Source\PSoC5/USBUART_std.c **** *  Device Table pointer
1009:Generated_Source\PSoC5/USBUART_std.c **** *
1010:Generated_Source\PSoC5/USBUART_std.c **** *******************************************************************************/
1011:Generated_Source\PSoC5/USBUART_std.c **** const T_USBUART_LUT CYCODE *USBUART_GetDeviceTablePtr(void)
1012:Generated_Source\PSoC5/USBUART_std.c ****                                                             
1013:Generated_Source\PSoC5/USBUART_std.c **** {
1014:Generated_Source\PSoC5/USBUART_std.c ****     /* Device Table */
1015:Generated_Source\PSoC5/USBUART_std.c ****     return( (const T_USBUART_LUT CYCODE *) USBUART_TABLE[USBUART_device].p_list );
1016:Generated_Source\PSoC5/USBUART_std.c **** }
1017:Generated_Source\PSoC5/USBUART_std.c **** 
1018:Generated_Source\PSoC5/USBUART_std.c **** 
1019:Generated_Source\PSoC5/USBUART_std.c **** /*******************************************************************************
1020:Generated_Source\PSoC5/USBUART_std.c **** * Function Name: USB_GetInterfaceClassTablePtr
1021:Generated_Source\PSoC5/USBUART_std.c **** ****************************************************************************//**
1022:Generated_Source\PSoC5/USBUART_std.c **** *
1023:Generated_Source\PSoC5/USBUART_std.c **** *  This routine returns Interface Class table pointer, which contains
1024:Generated_Source\PSoC5/USBUART_std.c **** *  the relation between interface number and interface class.
1025:Generated_Source\PSoC5/USBUART_std.c **** *
1026:Generated_Source\PSoC5/USBUART_std.c **** * \return
1027:Generated_Source\PSoC5/USBUART_std.c **** *  Interface Class table pointer.
1028:Generated_Source\PSoC5/USBUART_std.c **** *
1029:Generated_Source\PSoC5/USBUART_std.c **** *******************************************************************************/
1030:Generated_Source\PSoC5/USBUART_std.c **** const uint8 CYCODE *USBUART_GetInterfaceClassTablePtr(void)
1031:Generated_Source\PSoC5/USBUART_std.c ****                                                         
1032:Generated_Source\PSoC5/USBUART_std.c **** {
1033:Generated_Source\PSoC5/USBUART_std.c ****     const T_USBUART_LUT CYCODE *pTmp;
1034:Generated_Source\PSoC5/USBUART_std.c ****     const uint8 CYCODE *pInterfaceClass;
ARM GAS  C:\Users\ingan\AppData\Local\Temp\cc5yuDXv.s 			page 53


1035:Generated_Source\PSoC5/USBUART_std.c ****     uint8 currentInterfacesNum;
1036:Generated_Source\PSoC5/USBUART_std.c **** 
1037:Generated_Source\PSoC5/USBUART_std.c ****     pTmp = USBUART_GetConfigTablePtr(USBUART_configuration - 1u);
 1514              		.loc 1 1037 0
 1515 0240 B84B     		ldr	r3, .L139
 1516              	.LBB56:
 1517              	.LBB57:
 948:Generated_Source\PSoC5/USBUART_std.c **** 
 1518              		.loc 1 948 0
 1519 0242 B94A     		ldr	r2, .L139+4
 1520              	.LBE57:
 1521              	.LBE56:
 1522              		.loc 1 1037 0
 1523 0244 1B78     		ldrb	r3, [r3]	@ zero_extendqisi2
 1524              	.LBB61:
 1525              	.LBB58:
 948:Generated_Source\PSoC5/USBUART_std.c **** 
 1526              		.loc 1 948 0
 1527 0246 B949     		ldr	r1, .L139+8
 1528 0248 1278     		ldrb	r2, [r2]	@ zero_extendqisi2
 1529              	.LBE58:
 1530              	.LBE61:
 1531              		.loc 1 1037 0
 1532 024a 013B     		subs	r3, r3, #1
 1533              	.LBB62:
 1534              	.LBB59:
 948:Generated_Source\PSoC5/USBUART_std.c **** 
 1535              		.loc 1 948 0
 1536 024c 01EBC202 		add	r2, r1, r2, lsl #3
 1537 0250 5268     		ldr	r2, [r2, #4]
 1538              	.LBE59:
 1539              	.LBE62:
 1540              		.loc 1 1037 0
 1541 0252 DBB2     		uxtb	r3, r3
 1542              	.LVL89:
 1543              	.LBB63:
 1544              	.LBB60:
 957:Generated_Source\PSoC5/USBUART_std.c ****     {
 1545              		.loc 1 957 0
 1546 0254 117C     		ldrb	r1, [r2, #16]	@ zero_extendqisi2
 1547 0256 9942     		cmp	r1, r3
 1548 0258 40F2AE81 		bls	.L121
 963:Generated_Source\PSoC5/USBUART_std.c ****     }
 1549              		.loc 1 963 0
 1550 025c 02EBC303 		add	r3, r2, r3, lsl #3
 1551              	.LVL90:
 1552 0260 5B69     		ldr	r3, [r3, #20]
 1553              	.LVL91:
 1554              	.LBE60:
 1555              	.LBE63:
1038:Generated_Source\PSoC5/USBUART_std.c ****     if (pTmp != NULL)
 1556              		.loc 1 1038 0
 1557 0262 23B1     		cbz	r3, .L90
 1558              	.LVL92:
1039:Generated_Source\PSoC5/USBUART_std.c ****     {
1040:Generated_Source\PSoC5/USBUART_std.c ****         currentInterfacesNum  = ((const uint8 *) pTmp->p_list)[USBUART_CONFIG_DESCR_NUM_INTERFACES]
 1559              		.loc 1 1040 0
ARM GAS  C:\Users\ingan\AppData\Local\Temp\cc5yuDXv.s 			page 54


 1560 0264 5A68     		ldr	r2, [r3, #4]
1041:Generated_Source\PSoC5/USBUART_std.c ****         /* Third entry in the LUT starts the Interface Table pointers */
1042:Generated_Source\PSoC5/USBUART_std.c ****         /* The INTERFACE_CLASS table is located after all interfaces */
1043:Generated_Source\PSoC5/USBUART_std.c ****         pTmp = &pTmp[currentInterfacesNum + 2u];
 1561              		.loc 1 1043 0
 1562 0266 1279     		ldrb	r2, [r2, #4]	@ zero_extendqisi2
 1563              	.LVL93:
1044:Generated_Source\PSoC5/USBUART_std.c ****         pInterfaceClass = (const uint8 CYCODE *) pTmp->p_list;
 1564              		.loc 1 1044 0
 1565 0268 03EBC203 		add	r3, r3, r2, lsl #3
 1566              	.LVL94:
 1567 026c 5B69     		ldr	r3, [r3, #20]
 1568              	.LVL95:
 1569              	.L90:
 1570              	.LBE55:
 1571              	.LBE54:
 778:Generated_Source\PSoC5/USBUART_std.c ****             buffCount += USBUART_EP[ep].bufferSize;
 1572              		.loc 1 778 0
 1573 026e 0022     		movs	r2, #0
 1574 0270 6A82     		strh	r2, [r5, #18]	@ movhi
 779:Generated_Source\PSoC5/USBUART_std.c ****             
 1575              		.loc 1 779 0
 1576 0272 AC8A     		ldrh	r4, [r5, #20]
 771:Generated_Source\PSoC5/USBUART_std.c ****         
 1577              		.loc 1 771 0
 1578 0274 AE4E     		ldr	r6, .L139+12
 779:Generated_Source\PSoC5/USBUART_std.c ****             
 1579              		.loc 1 779 0
 1580 0276 A4B2     		uxth	r4, r4
 783:Generated_Source\PSoC5/USBUART_std.c ****         #endif /* (USBUART_GEN_16BITS_EP_ACCESS) */            
 1581              		.loc 1 783 0
 1582 0278 04F00102 		and	r2, r4, #1
 1583 027c 1444     		add	r4, r4, r2
 1584 027e A4B2     		uxth	r4, r4
 778:Generated_Source\PSoC5/USBUART_std.c ****             buffCount += USBUART_EP[ep].bufferSize;
 1585              		.loc 1 778 0
 1586 0280 EC83     		strh	r4, [r5, #30]	@ movhi
 779:Generated_Source\PSoC5/USBUART_std.c ****             
 1587              		.loc 1 779 0
 1588 0282 2A8C     		ldrh	r2, [r5, #32]
 771:Generated_Source\PSoC5/USBUART_std.c ****         
 1589              		.loc 1 771 0
 1590 0284 3360     		str	r3, [r6]
 779:Generated_Source\PSoC5/USBUART_std.c ****             
 1591              		.loc 1 779 0
 1592 0286 1444     		add	r4, r4, r2
 1593 0288 A4B2     		uxth	r4, r4
 783:Generated_Source\PSoC5/USBUART_std.c ****         #endif /* (USBUART_GEN_16BITS_EP_ACCESS) */            
 1594              		.loc 1 783 0
 1595 028a 04F00102 		and	r2, r4, #1
 1596 028e 1444     		add	r4, r4, r2
 1597 0290 A4B2     		uxth	r4, r4
 778:Generated_Source\PSoC5/USBUART_std.c ****             buffCount += USBUART_EP[ep].bufferSize;
 1598              		.loc 1 778 0
 1599 0292 6C85     		strh	r4, [r5, #42]	@ movhi
 779:Generated_Source\PSoC5/USBUART_std.c ****             
 1600              		.loc 1 779 0
ARM GAS  C:\Users\ingan\AppData\Local\Temp\cc5yuDXv.s 			page 55


 1601 0294 AA8D     		ldrh	r2, [r5, #44]
 1602              	.LBB65:
 1603              	.LBB66:
 448:Generated_Source\PSoC5/USBUART_std.c ****         
 1604              		.loc 1 448 0
 1605 0296 A749     		ldr	r1, .L139+16
 1606              	.LBE66:
 1607              	.LBE65:
 779:Generated_Source\PSoC5/USBUART_std.c ****             
 1608              		.loc 1 779 0
 1609 0298 1444     		add	r4, r4, r2
 1610 029a A4B2     		uxth	r4, r4
 783:Generated_Source\PSoC5/USBUART_std.c ****         #endif /* (USBUART_GEN_16BITS_EP_ACCESS) */            
 1611              		.loc 1 783 0
 1612 029c 04F00102 		and	r2, r4, #1
 1613 02a0 1444     		add	r4, r4, r2
 1614 02a2 A4B2     		uxth	r4, r4
 778:Generated_Source\PSoC5/USBUART_std.c ****             buffCount += USBUART_EP[ep].bufferSize;
 1615              		.loc 1 778 0
 1616 02a4 EC86     		strh	r4, [r5, #54]	@ movhi
 779:Generated_Source\PSoC5/USBUART_std.c ****             
 1617              		.loc 1 779 0
 1618 02a6 2A8F     		ldrh	r2, [r5, #56]
 1619              	.LBB71:
 1620              	.LBB67:
 448:Generated_Source\PSoC5/USBUART_std.c ****         
 1621              		.loc 1 448 0
 1622 02a8 0C20     		movs	r0, #12
 1623              	.LVL96:
 1624              	.LBE67:
 1625              	.LBE71:
 779:Generated_Source\PSoC5/USBUART_std.c ****             
 1626              		.loc 1 779 0
 1627 02aa A318     		adds	r3, r4, r2
 1628 02ac 9AB2     		uxth	r2, r3
 1629              	.LVL97:
 783:Generated_Source\PSoC5/USBUART_std.c ****         #endif /* (USBUART_GEN_16BITS_EP_ACCESS) */            
 1630              		.loc 1 783 0
 1631 02ae 02F00103 		and	r3, r2, #1
 1632 02b2 1344     		add	r3, r3, r2
 1633 02b4 9AB2     		uxth	r2, r3
 1634              	.LVL98:
 778:Generated_Source\PSoC5/USBUART_std.c ****             buffCount += USBUART_EP[ep].bufferSize;
 1635              		.loc 1 778 0
 1636 02b6 A5F84220 		strh	r2, [r5, #66]	@ movhi
 779:Generated_Source\PSoC5/USBUART_std.c ****             
 1637              		.loc 1 779 0
 1638 02ba B5F84430 		ldrh	r3, [r5, #68]
 1639              	.LBB72:
 1640              	.LBB68:
 452:Generated_Source\PSoC5/USBUART_std.c ****     #endif /* (USBUART_EP_MANAGEMENT_DMA) */
 1641              		.loc 1 452 0
 1642 02be 1F24     		movs	r4, #31
 1643              	.LBE68:
 1644              	.LBE72:
 779:Generated_Source\PSoC5/USBUART_std.c ****             
 1645              		.loc 1 779 0
ARM GAS  C:\Users\ingan\AppData\Local\Temp\cc5yuDXv.s 			page 56


 1646 02c0 1344     		add	r3, r3, r2
 1647 02c2 9AB2     		uxth	r2, r3
 1648              	.LVL99:
 783:Generated_Source\PSoC5/USBUART_std.c ****         #endif /* (USBUART_GEN_16BITS_EP_ACCESS) */            
 1649              		.loc 1 783 0
 1650 02c4 02F00103 		and	r3, r2, #1
 1651 02c8 1344     		add	r3, r3, r2
 1652 02ca 9AB2     		uxth	r2, r3
 1653              	.LVL100:
 778:Generated_Source\PSoC5/USBUART_std.c ****             buffCount += USBUART_EP[ep].bufferSize;
 1654              		.loc 1 778 0
 1655 02cc A5F84E20 		strh	r2, [r5, #78]	@ movhi
 779:Generated_Source\PSoC5/USBUART_std.c ****             
 1656              		.loc 1 779 0
 1657 02d0 B5F85030 		ldrh	r3, [r5, #80]
 778:Generated_Source\PSoC5/USBUART_std.c ****             buffCount += USBUART_EP[ep].bufferSize;
 1658              		.loc 1 778 0
 1659 02d4 984E     		ldr	r6, .L139+20
 779:Generated_Source\PSoC5/USBUART_std.c ****             
 1660              		.loc 1 779 0
 1661 02d6 1344     		add	r3, r3, r2
 1662 02d8 9AB2     		uxth	r2, r3
 1663              	.LVL101:
 783:Generated_Source\PSoC5/USBUART_std.c ****         #endif /* (USBUART_GEN_16BITS_EP_ACCESS) */            
 1664              		.loc 1 783 0
 1665 02da 02F00103 		and	r3, r2, #1
 1666 02de 1344     		add	r3, r3, r2
 1667 02e0 9AB2     		uxth	r2, r3
 1668              	.LVL102:
 778:Generated_Source\PSoC5/USBUART_std.c ****             buffCount += USBUART_EP[ep].bufferSize;
 1669              		.loc 1 778 0
 1670 02e2 A5F85A20 		strh	r2, [r5, #90]	@ movhi
 779:Generated_Source\PSoC5/USBUART_std.c ****             
 1671              		.loc 1 779 0
 1672 02e6 B5F85C30 		ldrh	r3, [r5, #92]
 1673 02ea 1344     		add	r3, r3, r2
 1674 02ec 9BB2     		uxth	r3, r3
 1675              	.LVL103:
 783:Generated_Source\PSoC5/USBUART_std.c ****         #endif /* (USBUART_GEN_16BITS_EP_ACCESS) */            
 1676              		.loc 1 783 0
 1677 02ee 03F00102 		and	r2, r3, #1
 1678 02f2 1344     		add	r3, r3, r2
 1679              	.LVL104:
 1680 02f4 9BB2     		uxth	r3, r3
 1681              	.LVL105:
 778:Generated_Source\PSoC5/USBUART_std.c ****             buffCount += USBUART_EP[ep].bufferSize;
 1682              		.loc 1 778 0
 1683 02f6 A5F86630 		strh	r3, [r5, #102]	@ movhi
 779:Generated_Source\PSoC5/USBUART_std.c ****             
 1684              		.loc 1 779 0
 1685 02fa B5F86830 		ldrh	r3, [r5, #104]
 1686              	.LVL106:
 1687              	.LBB73:
 1688              	.LBB69:
 448:Generated_Source\PSoC5/USBUART_std.c ****         
 1689              		.loc 1 448 0
 1690 02fe 0870     		strb	r0, [r1]
ARM GAS  C:\Users\ingan\AppData\Local\Temp\cc5yuDXv.s 			page 57


 452:Generated_Source\PSoC5/USBUART_std.c ****     #endif /* (USBUART_EP_MANAGEMENT_DMA) */
 1691              		.loc 1 452 0
 1692 0300 4C70     		strb	r4, [r1, #1]
 455:Generated_Source\PSoC5/USBUART_std.c ****         {
 1693              		.loc 1 455 0
 1694 0302 6B7C     		ldrb	r3, [r5, #17]	@ zero_extendqisi2
 1695 0304 002B     		cmp	r3, #0
 1696 0306 00F07781 		beq	.L94
 457:Generated_Source\PSoC5/USBUART_std.c ****             {
 1697              		.loc 1 457 0
 1698 030a 337C     		ldrb	r3, [r6, #16]	@ zero_extendqisi2
 1699 030c 13F0800F 		tst	r3, #128
 459:Generated_Source\PSoC5/USBUART_std.c ****                 
 1700              		.loc 1 459 0
 1701 0310 8A4B     		ldr	r3, .L139+24
 468:Generated_Source\PSoC5/USBUART_std.c **** 
 1702              		.loc 1 468 0
 1703 0312 06BF     		itte	eq
 1704 0314 0822     		moveq	r2, #8
 1705 0316 9A70     		strbeq	r2, [r3, #2]
 459:Generated_Source\PSoC5/USBUART_std.c ****                 
 1706              		.loc 1 459 0
 1707 0318 9870     		strbne	r0, [r3, #2]
 1708              	.L96:
 488:Generated_Source\PSoC5/USBUART_std.c ****             USBUART_ARB_EP_BASE.arbEp[ep].rwRaMsb = HI8(USBUART_EP[ep].buffOffset);
 1709              		.loc 1 488 0
 1710 031a 6A8A     		ldrh	r2, [r5, #18]
 1711 031c 854B     		ldr	r3, .L139+16
 1712 031e D2B2     		uxtb	r2, r2
 1713 0320 9A71     		strb	r2, [r3, #6]
 489:Generated_Source\PSoC5/USBUART_std.c ****             USBUART_ARB_EP_BASE.arbEp[ep].rwWa    = LO8(USBUART_EP[ep].buffOffset);
 1714              		.loc 1 489 0
 1715 0322 6A8A     		ldrh	r2, [r5, #18]
 448:Generated_Source\PSoC5/USBUART_std.c ****         
 1716              		.loc 1 448 0
 1717 0324 8649     		ldr	r1, .L139+28
 489:Generated_Source\PSoC5/USBUART_std.c ****             USBUART_ARB_EP_BASE.arbEp[ep].rwWa    = LO8(USBUART_EP[ep].buffOffset);
 1718              		.loc 1 489 0
 1719 0326 C2F30722 		ubfx	r2, r2, #8, #8
 1720 032a DA71     		strb	r2, [r3, #7]
 490:Generated_Source\PSoC5/USBUART_std.c ****             USBUART_ARB_EP_BASE.arbEp[ep].rwWaMsb = HI8(USBUART_EP[ep].buffOffset);
 1721              		.loc 1 490 0
 1722 032c 6A8A     		ldrh	r2, [r5, #18]
 448:Generated_Source\PSoC5/USBUART_std.c ****         
 1723              		.loc 1 448 0
 1724 032e 0C20     		movs	r0, #12
 490:Generated_Source\PSoC5/USBUART_std.c ****             USBUART_ARB_EP_BASE.arbEp[ep].rwWaMsb = HI8(USBUART_EP[ep].buffOffset);
 1725              		.loc 1 490 0
 1726 0330 D2B2     		uxtb	r2, r2
 1727 0332 1A71     		strb	r2, [r3, #4]
 491:Generated_Source\PSoC5/USBUART_std.c ****         #endif /* (CY_PSOC4) */
 1728              		.loc 1 491 0
 1729 0334 6A8A     		ldrh	r2, [r5, #18]
 452:Generated_Source\PSoC5/USBUART_std.c ****     #endif /* (USBUART_EP_MANAGEMENT_DMA) */
 1730              		.loc 1 452 0
 1731 0336 1F24     		movs	r4, #31
 491:Generated_Source\PSoC5/USBUART_std.c ****         #endif /* (CY_PSOC4) */
ARM GAS  C:\Users\ingan\AppData\Local\Temp\cc5yuDXv.s 			page 58


 1732              		.loc 1 491 0
 1733 0338 C2F30722 		ubfx	r2, r2, #8, #8
 1734 033c 5A71     		strb	r2, [r3, #5]
 1735              	.LVL107:
 448:Generated_Source\PSoC5/USBUART_std.c ****         
 1736              		.loc 1 448 0
 1737 033e 0870     		strb	r0, [r1]
 452:Generated_Source\PSoC5/USBUART_std.c ****     #endif /* (USBUART_EP_MANAGEMENT_DMA) */
 1738              		.loc 1 452 0
 1739 0340 4C70     		strb	r4, [r1, #1]
 455:Generated_Source\PSoC5/USBUART_std.c ****         {
 1740              		.loc 1 455 0
 1741 0342 6B7F     		ldrb	r3, [r5, #29]	@ zero_extendqisi2
 488:Generated_Source\PSoC5/USBUART_std.c ****             USBUART_ARB_EP_BASE.arbEp[ep].rwRaMsb = HI8(USBUART_EP[ep].buffOffset);
 1742              		.loc 1 488 0
 1743 0344 7C4A     		ldr	r2, .L139+20
 455:Generated_Source\PSoC5/USBUART_std.c ****         {
 1744              		.loc 1 455 0
 1745 0346 002B     		cmp	r3, #0
 1746 0348 00F05281 		beq	.L97
 457:Generated_Source\PSoC5/USBUART_std.c ****             {
 1747              		.loc 1 457 0
 1748 034c 137F     		ldrb	r3, [r2, #28]	@ zero_extendqisi2
 1749 034e 13F0800F 		tst	r3, #128
 459:Generated_Source\PSoC5/USBUART_std.c ****                 
 1750              		.loc 1 459 0
 1751 0352 7C4B     		ldr	r3, .L139+32
 468:Generated_Source\PSoC5/USBUART_std.c **** 
 1752              		.loc 1 468 0
 1753 0354 06BF     		itte	eq
 1754 0356 0822     		moveq	r2, #8
 1755 0358 9A70     		strbeq	r2, [r3, #2]
 459:Generated_Source\PSoC5/USBUART_std.c ****                 
 1756              		.loc 1 459 0
 1757 035a 9870     		strbne	r0, [r3, #2]
 1758              	.L99:
 488:Generated_Source\PSoC5/USBUART_std.c ****             USBUART_ARB_EP_BASE.arbEp[ep].rwRaMsb = HI8(USBUART_EP[ep].buffOffset);
 1759              		.loc 1 488 0
 1760 035c EA8B     		ldrh	r2, [r5, #30]
 1761 035e 784B     		ldr	r3, .L139+28
 1762 0360 D2B2     		uxtb	r2, r2
 1763 0362 9A71     		strb	r2, [r3, #6]
 489:Generated_Source\PSoC5/USBUART_std.c ****             USBUART_ARB_EP_BASE.arbEp[ep].rwWa    = LO8(USBUART_EP[ep].buffOffset);
 1764              		.loc 1 489 0
 1765 0364 EA8B     		ldrh	r2, [r5, #30]
 448:Generated_Source\PSoC5/USBUART_std.c ****         
 1766              		.loc 1 448 0
 1767 0366 7849     		ldr	r1, .L139+36
 489:Generated_Source\PSoC5/USBUART_std.c ****             USBUART_ARB_EP_BASE.arbEp[ep].rwWa    = LO8(USBUART_EP[ep].buffOffset);
 1768              		.loc 1 489 0
 1769 0368 C2F30722 		ubfx	r2, r2, #8, #8
 1770 036c DA71     		strb	r2, [r3, #7]
 490:Generated_Source\PSoC5/USBUART_std.c ****             USBUART_ARB_EP_BASE.arbEp[ep].rwWaMsb = HI8(USBUART_EP[ep].buffOffset);
 1771              		.loc 1 490 0
 1772 036e EA8B     		ldrh	r2, [r5, #30]
 448:Generated_Source\PSoC5/USBUART_std.c ****         
 1773              		.loc 1 448 0
ARM GAS  C:\Users\ingan\AppData\Local\Temp\cc5yuDXv.s 			page 59


 1774 0370 0C20     		movs	r0, #12
 490:Generated_Source\PSoC5/USBUART_std.c ****             USBUART_ARB_EP_BASE.arbEp[ep].rwWaMsb = HI8(USBUART_EP[ep].buffOffset);
 1775              		.loc 1 490 0
 1776 0372 D2B2     		uxtb	r2, r2
 1777 0374 1A71     		strb	r2, [r3, #4]
 491:Generated_Source\PSoC5/USBUART_std.c ****         #endif /* (CY_PSOC4) */
 1778              		.loc 1 491 0
 1779 0376 EA8B     		ldrh	r2, [r5, #30]
 452:Generated_Source\PSoC5/USBUART_std.c ****     #endif /* (USBUART_EP_MANAGEMENT_DMA) */
 1780              		.loc 1 452 0
 1781 0378 1F24     		movs	r4, #31
 491:Generated_Source\PSoC5/USBUART_std.c ****         #endif /* (CY_PSOC4) */
 1782              		.loc 1 491 0
 1783 037a C2F30722 		ubfx	r2, r2, #8, #8
 1784 037e 5A71     		strb	r2, [r3, #5]
 1785              	.LVL108:
 448:Generated_Source\PSoC5/USBUART_std.c ****         
 1786              		.loc 1 448 0
 1787 0380 0870     		strb	r0, [r1]
 452:Generated_Source\PSoC5/USBUART_std.c ****     #endif /* (USBUART_EP_MANAGEMENT_DMA) */
 1788              		.loc 1 452 0
 1789 0382 4C70     		strb	r4, [r1, #1]
 455:Generated_Source\PSoC5/USBUART_std.c ****         {
 1790              		.loc 1 455 0
 1791 0384 95F82930 		ldrb	r3, [r5, #41]	@ zero_extendqisi2
 488:Generated_Source\PSoC5/USBUART_std.c ****             USBUART_ARB_EP_BASE.arbEp[ep].rwRaMsb = HI8(USBUART_EP[ep].buffOffset);
 1792              		.loc 1 488 0
 1793 0388 6B4A     		ldr	r2, .L139+20
 455:Generated_Source\PSoC5/USBUART_std.c ****         {
 1794              		.loc 1 455 0
 1795 038a 002B     		cmp	r3, #0
 1796 038c 00F02C81 		beq	.L100
 457:Generated_Source\PSoC5/USBUART_std.c ****             {
 1797              		.loc 1 457 0
 1798 0390 92F82830 		ldrb	r3, [r2, #40]	@ zero_extendqisi2
 1799 0394 13F0800F 		tst	r3, #128
 459:Generated_Source\PSoC5/USBUART_std.c ****                 
 1800              		.loc 1 459 0
 1801 0398 6C4B     		ldr	r3, .L139+40
 468:Generated_Source\PSoC5/USBUART_std.c **** 
 1802              		.loc 1 468 0
 1803 039a 06BF     		itte	eq
 1804 039c 0822     		moveq	r2, #8
 1805 039e 9A70     		strbeq	r2, [r3, #2]
 459:Generated_Source\PSoC5/USBUART_std.c ****                 
 1806              		.loc 1 459 0
 1807 03a0 9870     		strbne	r0, [r3, #2]
 1808              	.L102:
 488:Generated_Source\PSoC5/USBUART_std.c ****             USBUART_ARB_EP_BASE.arbEp[ep].rwRaMsb = HI8(USBUART_EP[ep].buffOffset);
 1809              		.loc 1 488 0
 1810 03a2 6A8D     		ldrh	r2, [r5, #42]
 1811 03a4 684B     		ldr	r3, .L139+36
 1812 03a6 D2B2     		uxtb	r2, r2
 1813 03a8 9A71     		strb	r2, [r3, #6]
 489:Generated_Source\PSoC5/USBUART_std.c ****             USBUART_ARB_EP_BASE.arbEp[ep].rwWa    = LO8(USBUART_EP[ep].buffOffset);
 1814              		.loc 1 489 0
 1815 03aa 6A8D     		ldrh	r2, [r5, #42]
ARM GAS  C:\Users\ingan\AppData\Local\Temp\cc5yuDXv.s 			page 60


 448:Generated_Source\PSoC5/USBUART_std.c ****         
 1816              		.loc 1 448 0
 1817 03ac 6849     		ldr	r1, .L139+44
 489:Generated_Source\PSoC5/USBUART_std.c ****             USBUART_ARB_EP_BASE.arbEp[ep].rwWa    = LO8(USBUART_EP[ep].buffOffset);
 1818              		.loc 1 489 0
 1819 03ae C2F30722 		ubfx	r2, r2, #8, #8
 1820 03b2 DA71     		strb	r2, [r3, #7]
 490:Generated_Source\PSoC5/USBUART_std.c ****             USBUART_ARB_EP_BASE.arbEp[ep].rwWaMsb = HI8(USBUART_EP[ep].buffOffset);
 1821              		.loc 1 490 0
 1822 03b4 6A8D     		ldrh	r2, [r5, #42]
 448:Generated_Source\PSoC5/USBUART_std.c ****         
 1823              		.loc 1 448 0
 1824 03b6 0C20     		movs	r0, #12
 490:Generated_Source\PSoC5/USBUART_std.c ****             USBUART_ARB_EP_BASE.arbEp[ep].rwWaMsb = HI8(USBUART_EP[ep].buffOffset);
 1825              		.loc 1 490 0
 1826 03b8 D2B2     		uxtb	r2, r2
 1827 03ba 1A71     		strb	r2, [r3, #4]
 491:Generated_Source\PSoC5/USBUART_std.c ****         #endif /* (CY_PSOC4) */
 1828              		.loc 1 491 0
 1829 03bc 6A8D     		ldrh	r2, [r5, #42]
 452:Generated_Source\PSoC5/USBUART_std.c ****     #endif /* (USBUART_EP_MANAGEMENT_DMA) */
 1830              		.loc 1 452 0
 1831 03be 1F24     		movs	r4, #31
 491:Generated_Source\PSoC5/USBUART_std.c ****         #endif /* (CY_PSOC4) */
 1832              		.loc 1 491 0
 1833 03c0 C2F30722 		ubfx	r2, r2, #8, #8
 1834 03c4 5A71     		strb	r2, [r3, #5]
 1835              	.LVL109:
 448:Generated_Source\PSoC5/USBUART_std.c ****         
 1836              		.loc 1 448 0
 1837 03c6 0870     		strb	r0, [r1]
 452:Generated_Source\PSoC5/USBUART_std.c ****     #endif /* (USBUART_EP_MANAGEMENT_DMA) */
 1838              		.loc 1 452 0
 1839 03c8 4C70     		strb	r4, [r1, #1]
 455:Generated_Source\PSoC5/USBUART_std.c ****         {
 1840              		.loc 1 455 0
 1841 03ca 95F83530 		ldrb	r3, [r5, #53]	@ zero_extendqisi2
 488:Generated_Source\PSoC5/USBUART_std.c ****             USBUART_ARB_EP_BASE.arbEp[ep].rwRaMsb = HI8(USBUART_EP[ep].buffOffset);
 1842              		.loc 1 488 0
 1843 03ce 5A4A     		ldr	r2, .L139+20
 455:Generated_Source\PSoC5/USBUART_std.c ****         {
 1844              		.loc 1 455 0
 1845 03d0 002B     		cmp	r3, #0
 1846 03d2 00F00581 		beq	.L103
 457:Generated_Source\PSoC5/USBUART_std.c ****             {
 1847              		.loc 1 457 0
 1848 03d6 92F83430 		ldrb	r3, [r2, #52]	@ zero_extendqisi2
 1849 03da 13F0800F 		tst	r3, #128
 459:Generated_Source\PSoC5/USBUART_std.c ****                 
 1850              		.loc 1 459 0
 1851 03de 5D4B     		ldr	r3, .L139+48
 468:Generated_Source\PSoC5/USBUART_std.c **** 
 1852              		.loc 1 468 0
 1853 03e0 06BF     		itte	eq
 1854 03e2 0822     		moveq	r2, #8
 1855 03e4 9A70     		strbeq	r2, [r3, #2]
 459:Generated_Source\PSoC5/USBUART_std.c ****                 
ARM GAS  C:\Users\ingan\AppData\Local\Temp\cc5yuDXv.s 			page 61


 1856              		.loc 1 459 0
 1857 03e6 9870     		strbne	r0, [r3, #2]
 1858              	.L105:
 488:Generated_Source\PSoC5/USBUART_std.c ****             USBUART_ARB_EP_BASE.arbEp[ep].rwRaMsb = HI8(USBUART_EP[ep].buffOffset);
 1859              		.loc 1 488 0
 1860 03e8 EA8E     		ldrh	r2, [r5, #54]
 1861 03ea 594B     		ldr	r3, .L139+44
 1862 03ec D2B2     		uxtb	r2, r2
 1863 03ee 9A71     		strb	r2, [r3, #6]
 489:Generated_Source\PSoC5/USBUART_std.c ****             USBUART_ARB_EP_BASE.arbEp[ep].rwWa    = LO8(USBUART_EP[ep].buffOffset);
 1864              		.loc 1 489 0
 1865 03f0 EA8E     		ldrh	r2, [r5, #54]
 448:Generated_Source\PSoC5/USBUART_std.c ****         
 1866              		.loc 1 448 0
 1867 03f2 5949     		ldr	r1, .L139+52
 489:Generated_Source\PSoC5/USBUART_std.c ****             USBUART_ARB_EP_BASE.arbEp[ep].rwWa    = LO8(USBUART_EP[ep].buffOffset);
 1868              		.loc 1 489 0
 1869 03f4 C2F30722 		ubfx	r2, r2, #8, #8
 1870 03f8 DA71     		strb	r2, [r3, #7]
 490:Generated_Source\PSoC5/USBUART_std.c ****             USBUART_ARB_EP_BASE.arbEp[ep].rwWaMsb = HI8(USBUART_EP[ep].buffOffset);
 1871              		.loc 1 490 0
 1872 03fa EA8E     		ldrh	r2, [r5, #54]
 448:Generated_Source\PSoC5/USBUART_std.c ****         
 1873              		.loc 1 448 0
 1874 03fc 0C20     		movs	r0, #12
 490:Generated_Source\PSoC5/USBUART_std.c ****             USBUART_ARB_EP_BASE.arbEp[ep].rwWaMsb = HI8(USBUART_EP[ep].buffOffset);
 1875              		.loc 1 490 0
 1876 03fe D2B2     		uxtb	r2, r2
 1877 0400 1A71     		strb	r2, [r3, #4]
 491:Generated_Source\PSoC5/USBUART_std.c ****         #endif /* (CY_PSOC4) */
 1878              		.loc 1 491 0
 1879 0402 EA8E     		ldrh	r2, [r5, #54]
 452:Generated_Source\PSoC5/USBUART_std.c ****     #endif /* (USBUART_EP_MANAGEMENT_DMA) */
 1880              		.loc 1 452 0
 1881 0404 1F24     		movs	r4, #31
 491:Generated_Source\PSoC5/USBUART_std.c ****         #endif /* (CY_PSOC4) */
 1882              		.loc 1 491 0
 1883 0406 C2F30722 		ubfx	r2, r2, #8, #8
 1884 040a 5A71     		strb	r2, [r3, #5]
 1885              	.LVL110:
 448:Generated_Source\PSoC5/USBUART_std.c ****         
 1886              		.loc 1 448 0
 1887 040c 0870     		strb	r0, [r1]
 452:Generated_Source\PSoC5/USBUART_std.c ****     #endif /* (USBUART_EP_MANAGEMENT_DMA) */
 1888              		.loc 1 452 0
 1889 040e 4C70     		strb	r4, [r1, #1]
 455:Generated_Source\PSoC5/USBUART_std.c ****         {
 1890              		.loc 1 455 0
 1891 0410 95F84130 		ldrb	r3, [r5, #65]	@ zero_extendqisi2
 488:Generated_Source\PSoC5/USBUART_std.c ****             USBUART_ARB_EP_BASE.arbEp[ep].rwRaMsb = HI8(USBUART_EP[ep].buffOffset);
 1892              		.loc 1 488 0
 1893 0414 484A     		ldr	r2, .L139+20
 455:Generated_Source\PSoC5/USBUART_std.c ****         {
 1894              		.loc 1 455 0
 1895 0416 002B     		cmp	r3, #0
 1896 0418 00F0DE80 		beq	.L106
 457:Generated_Source\PSoC5/USBUART_std.c ****             {
ARM GAS  C:\Users\ingan\AppData\Local\Temp\cc5yuDXv.s 			page 62


 1897              		.loc 1 457 0
 1898 041c 92F84030 		ldrb	r3, [r2, #64]	@ zero_extendqisi2
 1899 0420 13F0800F 		tst	r3, #128
 459:Generated_Source\PSoC5/USBUART_std.c ****                 
 1900              		.loc 1 459 0
 1901 0424 4D4B     		ldr	r3, .L139+56
 468:Generated_Source\PSoC5/USBUART_std.c **** 
 1902              		.loc 1 468 0
 1903 0426 06BF     		itte	eq
 1904 0428 0822     		moveq	r2, #8
 1905 042a 9A70     		strbeq	r2, [r3, #2]
 459:Generated_Source\PSoC5/USBUART_std.c ****                 
 1906              		.loc 1 459 0
 1907 042c 9870     		strbne	r0, [r3, #2]
 1908              	.L108:
 488:Generated_Source\PSoC5/USBUART_std.c ****             USBUART_ARB_EP_BASE.arbEp[ep].rwRaMsb = HI8(USBUART_EP[ep].buffOffset);
 1909              		.loc 1 488 0
 1910 042e B5F84220 		ldrh	r2, [r5, #66]
 1911 0432 494B     		ldr	r3, .L139+52
 1912 0434 D2B2     		uxtb	r2, r2
 1913 0436 9A71     		strb	r2, [r3, #6]
 489:Generated_Source\PSoC5/USBUART_std.c ****             USBUART_ARB_EP_BASE.arbEp[ep].rwWa    = LO8(USBUART_EP[ep].buffOffset);
 1914              		.loc 1 489 0
 1915 0438 B5F84220 		ldrh	r2, [r5, #66]
 448:Generated_Source\PSoC5/USBUART_std.c ****         
 1916              		.loc 1 448 0
 1917 043c 4849     		ldr	r1, .L139+60
 489:Generated_Source\PSoC5/USBUART_std.c ****             USBUART_ARB_EP_BASE.arbEp[ep].rwWa    = LO8(USBUART_EP[ep].buffOffset);
 1918              		.loc 1 489 0
 1919 043e C2F30722 		ubfx	r2, r2, #8, #8
 1920 0442 DA71     		strb	r2, [r3, #7]
 490:Generated_Source\PSoC5/USBUART_std.c ****             USBUART_ARB_EP_BASE.arbEp[ep].rwWaMsb = HI8(USBUART_EP[ep].buffOffset);
 1921              		.loc 1 490 0
 1922 0444 B5F84220 		ldrh	r2, [r5, #66]
 448:Generated_Source\PSoC5/USBUART_std.c ****         
 1923              		.loc 1 448 0
 1924 0448 0C20     		movs	r0, #12
 490:Generated_Source\PSoC5/USBUART_std.c ****             USBUART_ARB_EP_BASE.arbEp[ep].rwWaMsb = HI8(USBUART_EP[ep].buffOffset);
 1925              		.loc 1 490 0
 1926 044a D2B2     		uxtb	r2, r2
 1927 044c 1A71     		strb	r2, [r3, #4]
 491:Generated_Source\PSoC5/USBUART_std.c ****         #endif /* (CY_PSOC4) */
 1928              		.loc 1 491 0
 1929 044e B5F84220 		ldrh	r2, [r5, #66]
 452:Generated_Source\PSoC5/USBUART_std.c ****     #endif /* (USBUART_EP_MANAGEMENT_DMA) */
 1930              		.loc 1 452 0
 1931 0452 1F24     		movs	r4, #31
 491:Generated_Source\PSoC5/USBUART_std.c ****         #endif /* (CY_PSOC4) */
 1932              		.loc 1 491 0
 1933 0454 C2F30722 		ubfx	r2, r2, #8, #8
 1934 0458 5A71     		strb	r2, [r3, #5]
 1935              	.LVL111:
 448:Generated_Source\PSoC5/USBUART_std.c ****         
 1936              		.loc 1 448 0
 1937 045a 0870     		strb	r0, [r1]
 452:Generated_Source\PSoC5/USBUART_std.c ****     #endif /* (USBUART_EP_MANAGEMENT_DMA) */
 1938              		.loc 1 452 0
ARM GAS  C:\Users\ingan\AppData\Local\Temp\cc5yuDXv.s 			page 63


 1939 045c 4C70     		strb	r4, [r1, #1]
 455:Generated_Source\PSoC5/USBUART_std.c ****         {
 1940              		.loc 1 455 0
 1941 045e 95F84D30 		ldrb	r3, [r5, #77]	@ zero_extendqisi2
 488:Generated_Source\PSoC5/USBUART_std.c ****             USBUART_ARB_EP_BASE.arbEp[ep].rwRaMsb = HI8(USBUART_EP[ep].buffOffset);
 1942              		.loc 1 488 0
 1943 0462 354A     		ldr	r2, .L139+20
 455:Generated_Source\PSoC5/USBUART_std.c ****         {
 1944              		.loc 1 455 0
 1945 0464 002B     		cmp	r3, #0
 1946 0466 00F0B380 		beq	.L109
 457:Generated_Source\PSoC5/USBUART_std.c ****             {
 1947              		.loc 1 457 0
 1948 046a 92F84C30 		ldrb	r3, [r2, #76]	@ zero_extendqisi2
 1949 046e 13F0800F 		tst	r3, #128
 459:Generated_Source\PSoC5/USBUART_std.c ****                 
 1950              		.loc 1 459 0
 1951 0472 3C4B     		ldr	r3, .L139+64
 468:Generated_Source\PSoC5/USBUART_std.c **** 
 1952              		.loc 1 468 0
 1953 0474 06BF     		itte	eq
 1954 0476 0822     		moveq	r2, #8
 1955 0478 9A70     		strbeq	r2, [r3, #2]
 459:Generated_Source\PSoC5/USBUART_std.c ****                 
 1956              		.loc 1 459 0
 1957 047a 9870     		strbne	r0, [r3, #2]
 1958              	.L111:
 488:Generated_Source\PSoC5/USBUART_std.c ****             USBUART_ARB_EP_BASE.arbEp[ep].rwRaMsb = HI8(USBUART_EP[ep].buffOffset);
 1959              		.loc 1 488 0
 1960 047c B5F84E20 		ldrh	r2, [r5, #78]
 1961 0480 374B     		ldr	r3, .L139+60
 1962 0482 D2B2     		uxtb	r2, r2
 1963 0484 9A71     		strb	r2, [r3, #6]
 489:Generated_Source\PSoC5/USBUART_std.c ****             USBUART_ARB_EP_BASE.arbEp[ep].rwWa    = LO8(USBUART_EP[ep].buffOffset);
 1964              		.loc 1 489 0
 1965 0486 B5F84E20 		ldrh	r2, [r5, #78]
 448:Generated_Source\PSoC5/USBUART_std.c ****         
 1966              		.loc 1 448 0
 1967 048a 3749     		ldr	r1, .L139+68
 489:Generated_Source\PSoC5/USBUART_std.c ****             USBUART_ARB_EP_BASE.arbEp[ep].rwWa    = LO8(USBUART_EP[ep].buffOffset);
 1968              		.loc 1 489 0
 1969 048c C2F30722 		ubfx	r2, r2, #8, #8
 1970 0490 DA71     		strb	r2, [r3, #7]
 490:Generated_Source\PSoC5/USBUART_std.c ****             USBUART_ARB_EP_BASE.arbEp[ep].rwWaMsb = HI8(USBUART_EP[ep].buffOffset);
 1971              		.loc 1 490 0
 1972 0492 B5F84E20 		ldrh	r2, [r5, #78]
 448:Generated_Source\PSoC5/USBUART_std.c ****         
 1973              		.loc 1 448 0
 1974 0496 0C20     		movs	r0, #12
 490:Generated_Source\PSoC5/USBUART_std.c ****             USBUART_ARB_EP_BASE.arbEp[ep].rwWaMsb = HI8(USBUART_EP[ep].buffOffset);
 1975              		.loc 1 490 0
 1976 0498 D2B2     		uxtb	r2, r2
 1977 049a 1A71     		strb	r2, [r3, #4]
 491:Generated_Source\PSoC5/USBUART_std.c ****         #endif /* (CY_PSOC4) */
 1978              		.loc 1 491 0
 1979 049c B5F84E20 		ldrh	r2, [r5, #78]
 452:Generated_Source\PSoC5/USBUART_std.c ****     #endif /* (USBUART_EP_MANAGEMENT_DMA) */
ARM GAS  C:\Users\ingan\AppData\Local\Temp\cc5yuDXv.s 			page 64


 1980              		.loc 1 452 0
 1981 04a0 1F24     		movs	r4, #31
 491:Generated_Source\PSoC5/USBUART_std.c ****         #endif /* (CY_PSOC4) */
 1982              		.loc 1 491 0
 1983 04a2 C2F30722 		ubfx	r2, r2, #8, #8
 1984 04a6 5A71     		strb	r2, [r3, #5]
 1985              	.LVL112:
 448:Generated_Source\PSoC5/USBUART_std.c ****         
 1986              		.loc 1 448 0
 1987 04a8 0870     		strb	r0, [r1]
 452:Generated_Source\PSoC5/USBUART_std.c ****     #endif /* (USBUART_EP_MANAGEMENT_DMA) */
 1988              		.loc 1 452 0
 1989 04aa 4C70     		strb	r4, [r1, #1]
 455:Generated_Source\PSoC5/USBUART_std.c ****         {
 1990              		.loc 1 455 0
 1991 04ac 95F85930 		ldrb	r3, [r5, #89]	@ zero_extendqisi2
 488:Generated_Source\PSoC5/USBUART_std.c ****             USBUART_ARB_EP_BASE.arbEp[ep].rwRaMsb = HI8(USBUART_EP[ep].buffOffset);
 1992              		.loc 1 488 0
 1993 04b0 214A     		ldr	r2, .L139+20
 455:Generated_Source\PSoC5/USBUART_std.c ****         {
 1994              		.loc 1 455 0
 1995 04b2 002B     		cmp	r3, #0
 1996 04b4 00F08880 		beq	.L112
 457:Generated_Source\PSoC5/USBUART_std.c ****             {
 1997              		.loc 1 457 0
 1998 04b8 92F85830 		ldrb	r3, [r2, #88]	@ zero_extendqisi2
 1999 04bc 13F0800F 		tst	r3, #128
 459:Generated_Source\PSoC5/USBUART_std.c ****                 
 2000              		.loc 1 459 0
 2001 04c0 2A4B     		ldr	r3, .L139+72
 468:Generated_Source\PSoC5/USBUART_std.c **** 
 2002              		.loc 1 468 0
 2003 04c2 06BF     		itte	eq
 2004 04c4 0822     		moveq	r2, #8
 2005 04c6 9A70     		strbeq	r2, [r3, #2]
 459:Generated_Source\PSoC5/USBUART_std.c ****                 
 2006              		.loc 1 459 0
 2007 04c8 9870     		strbne	r0, [r3, #2]
 2008              	.L114:
 488:Generated_Source\PSoC5/USBUART_std.c ****             USBUART_ARB_EP_BASE.arbEp[ep].rwRaMsb = HI8(USBUART_EP[ep].buffOffset);
 2009              		.loc 1 488 0
 2010 04ca B5F85A20 		ldrh	r2, [r5, #90]
 2011 04ce 264B     		ldr	r3, .L139+68
 2012 04d0 D2B2     		uxtb	r2, r2
 2013 04d2 9A71     		strb	r2, [r3, #6]
 489:Generated_Source\PSoC5/USBUART_std.c ****             USBUART_ARB_EP_BASE.arbEp[ep].rwWa    = LO8(USBUART_EP[ep].buffOffset);
 2014              		.loc 1 489 0
 2015 04d4 B5F85A20 		ldrh	r2, [r5, #90]
 448:Generated_Source\PSoC5/USBUART_std.c ****         
 2016              		.loc 1 448 0
 2017 04d8 2549     		ldr	r1, .L139+76
 489:Generated_Source\PSoC5/USBUART_std.c ****             USBUART_ARB_EP_BASE.arbEp[ep].rwWa    = LO8(USBUART_EP[ep].buffOffset);
 2018              		.loc 1 489 0
 2019 04da C2F30722 		ubfx	r2, r2, #8, #8
 2020 04de DA71     		strb	r2, [r3, #7]
 490:Generated_Source\PSoC5/USBUART_std.c ****             USBUART_ARB_EP_BASE.arbEp[ep].rwWaMsb = HI8(USBUART_EP[ep].buffOffset);
 2021              		.loc 1 490 0
ARM GAS  C:\Users\ingan\AppData\Local\Temp\cc5yuDXv.s 			page 65


 2022 04e0 B5F85A20 		ldrh	r2, [r5, #90]
 448:Generated_Source\PSoC5/USBUART_std.c ****         
 2023              		.loc 1 448 0
 2024 04e4 0C20     		movs	r0, #12
 490:Generated_Source\PSoC5/USBUART_std.c ****             USBUART_ARB_EP_BASE.arbEp[ep].rwWaMsb = HI8(USBUART_EP[ep].buffOffset);
 2025              		.loc 1 490 0
 2026 04e6 D2B2     		uxtb	r2, r2
 2027 04e8 1A71     		strb	r2, [r3, #4]
 491:Generated_Source\PSoC5/USBUART_std.c ****         #endif /* (CY_PSOC4) */
 2028              		.loc 1 491 0
 2029 04ea B5F85A20 		ldrh	r2, [r5, #90]
 452:Generated_Source\PSoC5/USBUART_std.c ****     #endif /* (USBUART_EP_MANAGEMENT_DMA) */
 2030              		.loc 1 452 0
 2031 04ee 1F24     		movs	r4, #31
 491:Generated_Source\PSoC5/USBUART_std.c ****         #endif /* (CY_PSOC4) */
 2032              		.loc 1 491 0
 2033 04f0 C2F30722 		ubfx	r2, r2, #8, #8
 2034 04f4 5A71     		strb	r2, [r3, #5]
 2035              	.LVL113:
 448:Generated_Source\PSoC5/USBUART_std.c ****         
 2036              		.loc 1 448 0
 2037 04f6 0870     		strb	r0, [r1]
 452:Generated_Source\PSoC5/USBUART_std.c ****     #endif /* (USBUART_EP_MANAGEMENT_DMA) */
 2038              		.loc 1 452 0
 2039 04f8 4C70     		strb	r4, [r1, #1]
 455:Generated_Source\PSoC5/USBUART_std.c ****         {
 2040              		.loc 1 455 0
 2041 04fa 95F86530 		ldrb	r3, [r5, #101]	@ zero_extendqisi2
 488:Generated_Source\PSoC5/USBUART_std.c ****             USBUART_ARB_EP_BASE.arbEp[ep].rwRaMsb = HI8(USBUART_EP[ep].buffOffset);
 2042              		.loc 1 488 0
 2043 04fe 0E4A     		ldr	r2, .L139+20
 455:Generated_Source\PSoC5/USBUART_std.c ****         {
 2044              		.loc 1 455 0
 2045 0500 002B     		cmp	r3, #0
 2046 0502 5DD0     		beq	.L115
 457:Generated_Source\PSoC5/USBUART_std.c ****             {
 2047              		.loc 1 457 0
 2048 0504 92F86430 		ldrb	r3, [r2, #100]	@ zero_extendqisi2
 2049 0508 13F0800F 		tst	r3, #128
 459:Generated_Source\PSoC5/USBUART_std.c ****                 
 2050              		.loc 1 459 0
 2051 050c 194B     		ldr	r3, .L139+80
 468:Generated_Source\PSoC5/USBUART_std.c **** 
 2052              		.loc 1 468 0
 2053 050e 0ABF     		itet	eq
 2054 0510 0822     		moveq	r2, #8
 459:Generated_Source\PSoC5/USBUART_std.c ****                 
 2055              		.loc 1 459 0
 2056 0512 9870     		strbne	r0, [r3, #2]
 468:Generated_Source\PSoC5/USBUART_std.c **** 
 2057              		.loc 1 468 0
 2058 0514 9A70     		strbeq	r2, [r3, #2]
 2059              	.L117:
 488:Generated_Source\PSoC5/USBUART_std.c ****             USBUART_ARB_EP_BASE.arbEp[ep].rwRaMsb = HI8(USBUART_EP[ep].buffOffset);
 2060              		.loc 1 488 0
 2061 0516 B5F86620 		ldrh	r2, [r5, #102]
 2062 051a 154B     		ldr	r3, .L139+76
ARM GAS  C:\Users\ingan\AppData\Local\Temp\cc5yuDXv.s 			page 66


 2063 051c D2B2     		uxtb	r2, r2
 2064 051e 9A71     		strb	r2, [r3, #6]
 2065 0520 2AE0     		b	.L140
 2066              	.L141:
 2067 0522 00BF     		.align	2
 2068              	.L139:
 2069 0524 00000000 		.word	USBUART_configuration
 2070 0528 00000000 		.word	USBUART_device
 2071 052c 00000000 		.word	USBUART_TABLE
 2072 0530 00000000 		.word	USBUART_interfaceClass
 2073 0534 80600040 		.word	1073766528
 2074 0538 00000000 		.word	USBUART_EP
 2075 053c 0C600040 		.word	1073766412
 2076 0540 90600040 		.word	1073766544
 2077 0544 1C600040 		.word	1073766428
 2078 0548 A0600040 		.word	1073766560
 2079 054c 2C600040 		.word	1073766444
 2080 0550 B0600040 		.word	1073766576
 2081 0554 3C600040 		.word	1073766460
 2082 0558 C0600040 		.word	1073766592
 2083 055c 4C600040 		.word	1073766476
 2084 0560 D0600040 		.word	1073766608
 2085 0564 5C600040 		.word	1073766492
 2086 0568 E0600040 		.word	1073766624
 2087 056c 6C600040 		.word	1073766508
 2088 0570 F0600040 		.word	1073766640
 2089 0574 7C600040 		.word	1073766524
 2090              	.L140:
 489:Generated_Source\PSoC5/USBUART_std.c ****             USBUART_ARB_EP_BASE.arbEp[ep].rwWa    = LO8(USBUART_EP[ep].buffOffset);
 2091              		.loc 1 489 0
 2092 0578 B5F86620 		ldrh	r2, [r5, #102]
 519:Generated_Source\PSoC5/USBUART_std.c **** }
 2093              		.loc 1 519 0
 2094 057c 2049     		ldr	r1, .L142
 489:Generated_Source\PSoC5/USBUART_std.c ****             USBUART_ARB_EP_BASE.arbEp[ep].rwWa    = LO8(USBUART_EP[ep].buffOffset);
 2095              		.loc 1 489 0
 2096 057e C2F30722 		ubfx	r2, r2, #8, #8
 2097 0582 DA71     		strb	r2, [r3, #7]
 490:Generated_Source\PSoC5/USBUART_std.c ****             USBUART_ARB_EP_BASE.arbEp[ep].rwWaMsb = HI8(USBUART_EP[ep].buffOffset);
 2098              		.loc 1 490 0
 2099 0584 B5F86620 		ldrh	r2, [r5, #102]
 519:Generated_Source\PSoC5/USBUART_std.c **** }
 2100              		.loc 1 519 0
 2101 0588 FF20     		movs	r0, #255
 490:Generated_Source\PSoC5/USBUART_std.c ****             USBUART_ARB_EP_BASE.arbEp[ep].rwWaMsb = HI8(USBUART_EP[ep].buffOffset);
 2102              		.loc 1 490 0
 2103 058a D2B2     		uxtb	r2, r2
 2104 058c 1A71     		strb	r2, [r3, #4]
 491:Generated_Source\PSoC5/USBUART_std.c ****         #endif /* (CY_PSOC4) */
 2105              		.loc 1 491 0
 2106 058e B5F86620 		ldrh	r2, [r5, #102]
 2107 0592 C2F30722 		ubfx	r2, r2, #8, #8
 2108 0596 5A71     		strb	r2, [r3, #5]
 2109              	.LVL114:
 519:Generated_Source\PSoC5/USBUART_std.c **** }
 2110              		.loc 1 519 0
 2111 0598 0870     		strb	r0, [r1]
ARM GAS  C:\Users\ingan\AppData\Local\Temp\cc5yuDXv.s 			page 67


 2112              	.LVL115:
 2113              	.L74:
 2114              	.LBE69:
 2115              	.LBE73:
 2116              	.LBE45:
 2117              	.LBE44:
 2118              	.LBE43:
 791:Generated_Source\PSoC5/USBUART_std.c **** 
 2119              		.loc 1 791 0
 2120 059a 05B0     		add	sp, sp, #20
 2121              		.cfi_remember_state
 2122              		.cfi_def_cfa_offset 36
 2123              		@ sp needed
 2124 059c BDE8F08F 		pop	{r4, r5, r6, r7, r8, r9, r10, fp, pc}
 2125              	.LVL116:
 2126              	.L77:
 2127              		.cfi_restore_state
 2128              	.LBB78:
 2129              	.LBB77:
 2130              	.LBB76:
 617:Generated_Source\PSoC5/USBUART_std.c ****         if ((pDescr[USBUART_CONFIG_DESCR_ATTRIB] & USBUART_CONFIG_DESCR_ATTRIB_SELF_POWERED) != 0u)
 2131              		.loc 1 617 0
 2132 05a0 0023     		movs	r3, #0
 2133 05a2 5B68     		ldr	r3, [r3, #4]
 2134 05a4 FFDE     		.inst	0xdeff
 2135              	.LVL117:
 2136              	.L136:
 715:Generated_Source\PSoC5/USBUART_std.c ****                                 USBUART_EP[i].apiEpState = USBUART_EVENT_PENDING;
 2137              		.loc 1 715 0
 2138 05a6 0129     		cmp	r1, #1
 2139 05a8 14BF     		ite	ne
 2140 05aa 0D21     		movne	r1, #13
 2141              	.LVL118:
 2142 05ac 0721     		moveq	r1, #7
 2143 05ae 4171     		strb	r1, [r0, #5]
 2144              	.LVL119:
 716:Generated_Source\PSoC5/USBUART_std.c ****                                 
 2145              		.loc 1 716 0
 2146 05b0 4FF00101 		mov	r1, #1
 2147 05b4 4170     		strb	r1, [r0, #1]
 2148 05b6 18E6     		b	.L85
 2149              	.LVL120:
 2150              	.L121:
 2151              	.LBB74:
 2152              	.LBB64:
1045:Generated_Source\PSoC5/USBUART_std.c ****     }
1046:Generated_Source\PSoC5/USBUART_std.c ****     else
1047:Generated_Source\PSoC5/USBUART_std.c ****     {
1048:Generated_Source\PSoC5/USBUART_std.c ****         pInterfaceClass = (const uint8 CYCODE *) NULL;
 2153              		.loc 1 1048 0
 2154 05b8 0023     		movs	r3, #0
 2155              	.LVL121:
 2156 05ba 58E6     		b	.L90
 2157              	.LVL122:
 2158              	.L118:
 2159              	.LBE64:
 2160              	.LBE74:
ARM GAS  C:\Users\ingan\AppData\Local\Temp\cc5yuDXv.s 			page 68


 694:Generated_Source\PSoC5/USBUART_std.c ****                 {
 2161              		.loc 1 694 0
 2162 05bc 2146     		mov	r1, r4
 2163 05be 24E6     		b	.L80
 2164              	.LVL123:
 2165              	.L115:
 2166              	.LBB75:
 2167              	.LBB70:
 480:Generated_Source\PSoC5/USBUART_std.c ****         }
 2168              		.loc 1 480 0
 2169 05c0 104B     		ldr	r3, .L142+4
 2170 05c2 8022     		movs	r2, #128
 2171 05c4 9A70     		strb	r2, [r3, #2]
 2172 05c6 A6E7     		b	.L117
 2173              	.LVL124:
 2174              	.L112:
 2175 05c8 0F4B     		ldr	r3, .L142+8
 2176 05ca 8022     		movs	r2, #128
 2177 05cc 9A70     		strb	r2, [r3, #2]
 2178 05ce 7CE7     		b	.L114
 2179              	.LVL125:
 2180              	.L109:
 2181 05d0 0E4B     		ldr	r3, .L142+12
 2182 05d2 8022     		movs	r2, #128
 2183 05d4 9A70     		strb	r2, [r3, #2]
 2184 05d6 51E7     		b	.L111
 2185              	.LVL126:
 2186              	.L106:
 2187 05d8 0D4B     		ldr	r3, .L142+16
 2188 05da 8022     		movs	r2, #128
 2189 05dc 9A70     		strb	r2, [r3, #2]
 2190 05de 26E7     		b	.L108
 2191              	.LVL127:
 2192              	.L103:
 2193 05e0 0C4B     		ldr	r3, .L142+20
 2194 05e2 8022     		movs	r2, #128
 2195 05e4 9A70     		strb	r2, [r3, #2]
 2196 05e6 FFE6     		b	.L105
 2197              	.LVL128:
 2198              	.L100:
 2199 05e8 0B4B     		ldr	r3, .L142+24
 2200 05ea 8022     		movs	r2, #128
 2201 05ec 9A70     		strb	r2, [r3, #2]
 2202 05ee D8E6     		b	.L102
 2203              	.LVL129:
 2204              	.L97:
 2205 05f0 0A4B     		ldr	r3, .L142+28
 2206 05f2 8022     		movs	r2, #128
 2207 05f4 9A70     		strb	r2, [r3, #2]
 2208 05f6 B1E6     		b	.L99
 2209              	.LVL130:
 2210              	.L94:
 2211 05f8 094B     		ldr	r3, .L142+32
 2212 05fa 8022     		movs	r2, #128
 2213 05fc 9A70     		strb	r2, [r3, #2]
 2214 05fe 8CE6     		b	.L96
 2215              	.L143:
ARM GAS  C:\Users\ingan\AppData\Local\Temp\cc5yuDXv.s 			page 69


 2216              		.align	2
 2217              	.L142:
 2218 0600 0A600040 		.word	1073766410
 2219 0604 7C600040 		.word	1073766524
 2220 0608 6C600040 		.word	1073766508
 2221 060c 5C600040 		.word	1073766492
 2222 0610 4C600040 		.word	1073766476
 2223 0614 3C600040 		.word	1073766460
 2224 0618 2C600040 		.word	1073766444
 2225 061c 1C600040 		.word	1073766428
 2226 0620 0C600040 		.word	1073766412
 2227              	.LBE70:
 2228              	.LBE75:
 2229              	.LBE76:
 2230              	.LBE77:
 2231              	.LBE78:
 2232              		.cfi_endproc
 2233              	.LFE4:
 2234              		.size	USBUART_Config, .-USBUART_Config
 2235              		.section	.text.USBUART_HandleStandardRqst,"ax",%progbits
 2236              		.align	2
 2237              		.global	USBUART_HandleStandardRqst
 2238              		.thumb
 2239              		.thumb_func
 2240              		.type	USBUART_HandleStandardRqst, %function
 2241              	USBUART_HandleStandardRqst:
 2242              	.LFB0:
  85:Generated_Source\PSoC5/USBUART_std.c ****     uint8 requestHandled = USBUART_FALSE;
 2243              		.loc 1 85 0
 2244              		.cfi_startproc
 2245              		@ args = 0, pretend = 0, frame = 0
 2246              		@ frame_needed = 0, uses_anonymous_args = 0
 2247              	.LVL131:
 2248 0000 70B5     		push	{r4, r5, r6, lr}
 2249              		.cfi_def_cfa_offset 16
 2250              		.cfi_offset 4, -16
 2251              		.cfi_offset 5, -12
 2252              		.cfi_offset 6, -8
 2253              		.cfi_offset 14, -4
  89:Generated_Source\PSoC5/USBUART_std.c **** 
 2254              		.loc 1 89 0
 2255 0002 A34A     		ldr	r2, .L226
 102:Generated_Source\PSoC5/USBUART_std.c **** 
 2256              		.loc 1 102 0
 2257 0004 A34C     		ldr	r4, .L226+4
  89:Generated_Source\PSoC5/USBUART_std.c **** 
 2258              		.loc 1 89 0
 2259 0006 1378     		ldrb	r3, [r2]	@ zero_extendqisi2
 102:Generated_Source\PSoC5/USBUART_std.c **** 
 2260              		.loc 1 102 0
 2261 0008 0021     		movs	r1, #0
  89:Generated_Source\PSoC5/USBUART_std.c **** 
 2262              		.loc 1 89 0
 2263 000a DBB2     		uxtb	r3, r3
 2264              	.LVL132:
 102:Generated_Source\PSoC5/USBUART_std.c **** 
 2265              		.loc 1 102 0
ARM GAS  C:\Users\ingan\AppData\Local\Temp\cc5yuDXv.s 			page 70


 2266 000c 2180     		strh	r1, [r4]	@ movhi
 104:Generated_Source\PSoC5/USBUART_std.c ****     {
 2267              		.loc 1 104 0
 2268 000e 1906     		lsls	r1, r3, #24
 107:Generated_Source\PSoC5/USBUART_std.c ****         {
 2269              		.loc 1 107 0
 2270 0010 5278     		ldrb	r2, [r2, #1]	@ zero_extendqisi2
 104:Generated_Source\PSoC5/USBUART_std.c ****     {
 2271              		.loc 1 104 0
 2272 0012 16D4     		bmi	.L218
 256:Generated_Source\PSoC5/USBUART_std.c ****         {
 2273              		.loc 1 256 0
 2274 0014 013A     		subs	r2, r2, #1
 2275 0016 0A2A     		cmp	r2, #10
 2276 0018 11D8     		bhi	.L206
 2277 001a DFE812F0 		tbh	[pc, r2, lsl #1]
 2278              	.L163:
 2279 001e 6500     		.2byte	(.L162-.L163)/2
 2280 0020 1000     		.2byte	(.L206-.L163)/2
 2281 0022 9B00     		.2byte	(.L164-.L163)/2
 2282 0024 1000     		.2byte	(.L206-.L163)/2
 2283 0026 CC00     		.2byte	(.L165-.L163)/2
 2284 0028 1000     		.2byte	(.L206-.L163)/2
 2285 002a 1000     		.2byte	(.L206-.L163)/2
 2286 002c 1000     		.2byte	(.L206-.L163)/2
 2287 002e D500     		.2byte	(.L166-.L163)/2
 2288 0030 1000     		.2byte	(.L206-.L163)/2
 2289 0032 2D00     		.2byte	(.L167-.L163)/2
 2290              	.LVL133:
 2291              		.p2align 1
 2292              	.L182:
 362:Generated_Source\PSoC5/USBUART_std.c ****                         {
 2293              		.loc 1 362 0
 2294 0034 964B     		ldr	r3, .L226
 2295 0036 1A79     		ldrb	r2, [r3, #4]	@ zero_extendqisi2
 2296 0038 012A     		cmp	r2, #1
 2297 003a 40F27B81 		bls	.L219
 2298              	.LVL134:
 2299              	.L206:
 380:Generated_Source\PSoC5/USBUART_std.c **** 
 2300              		.loc 1 380 0
 2301 003e 0020     		movs	r0, #0
 2302 0040 70BD     		pop	{r4, r5, r6, pc}
 2303              	.LVL135:
 2304              	.L218:
 107:Generated_Source\PSoC5/USBUART_std.c ****         {
 2305              		.loc 1 107 0
 2306 0042 0A2A     		cmp	r2, #10
 2307 0044 FBD8     		bhi	.L206
 2308 0046 01A1     		adr	r1, .L148
 2309 0048 51F822F0 		ldr	pc, [r1, r2, lsl #2]
 2310              		.p2align 2
 2311              	.L148:
 2312 004c C9020000 		.word	.L147+1
 2313 0050 3F000000 		.word	.L206+1
 2314 0054 3F000000 		.word	.L206+1
 2315 0058 3F000000 		.word	.L206+1
ARM GAS  C:\Users\ingan\AppData\Local\Temp\cc5yuDXv.s 			page 71


 2316 005c 3F000000 		.word	.L206+1
 2317 0060 3F000000 		.word	.L206+1
 2318 0064 27020000 		.word	.L149+1
 2319 0068 3F000000 		.word	.L206+1
 2320 006c FF020000 		.word	.L150+1
 2321 0070 3F000000 		.word	.L206+1
 2322 0074 11020000 		.word	.L151+1
 2323              		.p2align 1
 2324              	.L167:
 2325              	.LVL136:
 2326              	.LBB95:
 2327              	.LBB96:
1049:Generated_Source\PSoC5/USBUART_std.c ****     }
1050:Generated_Source\PSoC5/USBUART_std.c **** 
1051:Generated_Source\PSoC5/USBUART_std.c ****     return (pInterfaceClass);
1052:Generated_Source\PSoC5/USBUART_std.c **** }
1053:Generated_Source\PSoC5/USBUART_std.c **** 
1054:Generated_Source\PSoC5/USBUART_std.c **** 
1055:Generated_Source\PSoC5/USBUART_std.c **** /*******************************************************************************
1056:Generated_Source\PSoC5/USBUART_std.c **** * Function Name: USBUART_TerminateEP
1057:Generated_Source\PSoC5/USBUART_std.c **** ****************************************************************************//**
1058:Generated_Source\PSoC5/USBUART_std.c **** *
1059:Generated_Source\PSoC5/USBUART_std.c **** *  This function terminates the specified USBFS endpoint.
1060:Generated_Source\PSoC5/USBUART_std.c **** *  This function should be used before endpoint reconfiguration.
1061:Generated_Source\PSoC5/USBUART_std.c **** *
1062:Generated_Source\PSoC5/USBUART_std.c **** *  \param ep Contains the data endpoint number.
1063:Generated_Source\PSoC5/USBUART_std.c **** *
1064:Generated_Source\PSoC5/USBUART_std.c **** *  \reentrant
1065:Generated_Source\PSoC5/USBUART_std.c **** *  No.
1066:Generated_Source\PSoC5/USBUART_std.c **** *
1067:Generated_Source\PSoC5/USBUART_std.c **** * \sideeffect
1068:Generated_Source\PSoC5/USBUART_std.c **** * 
1069:Generated_Source\PSoC5/USBUART_std.c **** * The device responds with a NAK for any transactions on the selected endpoint.
1070:Generated_Source\PSoC5/USBUART_std.c **** *   
1071:Generated_Source\PSoC5/USBUART_std.c **** *******************************************************************************/
1072:Generated_Source\PSoC5/USBUART_std.c **** void USBUART_TerminateEP(uint8 epNumber) 
1073:Generated_Source\PSoC5/USBUART_std.c **** {
1074:Generated_Source\PSoC5/USBUART_std.c ****     /* Get endpoint number */
1075:Generated_Source\PSoC5/USBUART_std.c ****     epNumber &= USBUART_DIR_UNUSED;
1076:Generated_Source\PSoC5/USBUART_std.c **** 
1077:Generated_Source\PSoC5/USBUART_std.c ****     if ((epNumber > USBUART_EP0) && (epNumber < USBUART_MAX_EP))
1078:Generated_Source\PSoC5/USBUART_std.c ****     {
1079:Generated_Source\PSoC5/USBUART_std.c ****         /* Set the endpoint Halt */
1080:Generated_Source\PSoC5/USBUART_std.c ****         USBUART_EP[epNumber].hwEpState |= USBUART_ENDPOINT_STATUS_HALT;
1081:Generated_Source\PSoC5/USBUART_std.c **** 
1082:Generated_Source\PSoC5/USBUART_std.c ****         /* Clear the data toggle */
1083:Generated_Source\PSoC5/USBUART_std.c ****         USBUART_EP[epNumber].epToggle = 0u;
1084:Generated_Source\PSoC5/USBUART_std.c ****         USBUART_EP[epNumber].apiEpState = USBUART_NO_EVENT_ALLOWED;
1085:Generated_Source\PSoC5/USBUART_std.c **** 
1086:Generated_Source\PSoC5/USBUART_std.c ****         if ((USBUART_EP[epNumber].addr & USBUART_DIR_IN) != 0u)
1087:Generated_Source\PSoC5/USBUART_std.c ****         {   
1088:Generated_Source\PSoC5/USBUART_std.c ****             /* IN Endpoint */
1089:Generated_Source\PSoC5/USBUART_std.c ****             USBUART_SIE_EP_BASE.sieEp[epNumber].epCr0 = USBUART_MODE_NAK_IN;
1090:Generated_Source\PSoC5/USBUART_std.c ****         }
1091:Generated_Source\PSoC5/USBUART_std.c ****         else
1092:Generated_Source\PSoC5/USBUART_std.c ****         {
1093:Generated_Source\PSoC5/USBUART_std.c ****             /* OUT Endpoint */
ARM GAS  C:\Users\ingan\AppData\Local\Temp\cc5yuDXv.s 			page 72


1094:Generated_Source\PSoC5/USBUART_std.c ****             USBUART_SIE_EP_BASE.sieEp[epNumber].epCr0 = USBUART_MODE_NAK_OUT;
1095:Generated_Source\PSoC5/USBUART_std.c ****         }
1096:Generated_Source\PSoC5/USBUART_std.c ****     }
1097:Generated_Source\PSoC5/USBUART_std.c **** }
1098:Generated_Source\PSoC5/USBUART_std.c **** 
1099:Generated_Source\PSoC5/USBUART_std.c **** 
1100:Generated_Source\PSoC5/USBUART_std.c **** /*******************************************************************************
1101:Generated_Source\PSoC5/USBUART_std.c **** * Function Name: USBUART_SetEndpointHalt
1102:Generated_Source\PSoC5/USBUART_std.c **** ****************************************************************************//**
1103:Generated_Source\PSoC5/USBUART_std.c **** *
1104:Generated_Source\PSoC5/USBUART_std.c **** *  This routine handles set endpoint halt.
1105:Generated_Source\PSoC5/USBUART_std.c **** *
1106:Generated_Source\PSoC5/USBUART_std.c **** * \return
1107:Generated_Source\PSoC5/USBUART_std.c **** *  requestHandled.
1108:Generated_Source\PSoC5/USBUART_std.c **** *
1109:Generated_Source\PSoC5/USBUART_std.c **** * \reentrant
1110:Generated_Source\PSoC5/USBUART_std.c **** *  No.
1111:Generated_Source\PSoC5/USBUART_std.c **** *
1112:Generated_Source\PSoC5/USBUART_std.c **** *******************************************************************************/
1113:Generated_Source\PSoC5/USBUART_std.c **** uint8 USBUART_SetEndpointHalt(void) 
1114:Generated_Source\PSoC5/USBUART_std.c **** {
1115:Generated_Source\PSoC5/USBUART_std.c ****     uint8 requestHandled = USBUART_FALSE;
1116:Generated_Source\PSoC5/USBUART_std.c ****     uint8 ep;
1117:Generated_Source\PSoC5/USBUART_std.c ****     
1118:Generated_Source\PSoC5/USBUART_std.c ****     /* Set endpoint halt */
1119:Generated_Source\PSoC5/USBUART_std.c ****     ep = USBUART_wIndexLoReg & USBUART_DIR_UNUSED;
1120:Generated_Source\PSoC5/USBUART_std.c **** 
1121:Generated_Source\PSoC5/USBUART_std.c ****     if ((ep > USBUART_EP0) && (ep < USBUART_MAX_EP))
1122:Generated_Source\PSoC5/USBUART_std.c ****     {
1123:Generated_Source\PSoC5/USBUART_std.c ****         /* Set the endpoint Halt */
1124:Generated_Source\PSoC5/USBUART_std.c ****         USBUART_EP[ep].hwEpState |= (USBUART_ENDPOINT_STATUS_HALT);
1125:Generated_Source\PSoC5/USBUART_std.c **** 
1126:Generated_Source\PSoC5/USBUART_std.c ****         /* Clear the data toggle */
1127:Generated_Source\PSoC5/USBUART_std.c ****         USBUART_EP[ep].epToggle = 0u;
1128:Generated_Source\PSoC5/USBUART_std.c ****         USBUART_EP[ep].apiEpState |= USBUART_NO_EVENT_ALLOWED;
1129:Generated_Source\PSoC5/USBUART_std.c **** 
1130:Generated_Source\PSoC5/USBUART_std.c ****         if ((USBUART_EP[ep].addr & USBUART_DIR_IN) != 0u)
1131:Generated_Source\PSoC5/USBUART_std.c ****         {
1132:Generated_Source\PSoC5/USBUART_std.c ****             /* IN Endpoint */
1133:Generated_Source\PSoC5/USBUART_std.c ****             USBUART_SIE_EP_BASE.sieEp[ep].epCr0 = (USBUART_MODE_STALL_DATA_EP | 
1134:Generated_Source\PSoC5/USBUART_std.c ****                                                             USBUART_MODE_ACK_IN);
1135:Generated_Source\PSoC5/USBUART_std.c ****         }
1136:Generated_Source\PSoC5/USBUART_std.c ****         else
1137:Generated_Source\PSoC5/USBUART_std.c ****         {
1138:Generated_Source\PSoC5/USBUART_std.c ****             /* OUT Endpoint */
1139:Generated_Source\PSoC5/USBUART_std.c ****             USBUART_SIE_EP_BASE.sieEp[ep].epCr0 = (USBUART_MODE_STALL_DATA_EP | 
1140:Generated_Source\PSoC5/USBUART_std.c ****                                                             USBUART_MODE_ACK_OUT);
1141:Generated_Source\PSoC5/USBUART_std.c ****         }
1142:Generated_Source\PSoC5/USBUART_std.c ****         requestHandled = USBUART_InitNoDataControlTransfer();
1143:Generated_Source\PSoC5/USBUART_std.c ****     }
1144:Generated_Source\PSoC5/USBUART_std.c **** 
1145:Generated_Source\PSoC5/USBUART_std.c ****     return (requestHandled);
1146:Generated_Source\PSoC5/USBUART_std.c **** }
1147:Generated_Source\PSoC5/USBUART_std.c **** 
1148:Generated_Source\PSoC5/USBUART_std.c **** 
1149:Generated_Source\PSoC5/USBUART_std.c **** /*******************************************************************************
1150:Generated_Source\PSoC5/USBUART_std.c **** * Function Name: USBUART_ClearEndpointHalt
ARM GAS  C:\Users\ingan\AppData\Local\Temp\cc5yuDXv.s 			page 73


1151:Generated_Source\PSoC5/USBUART_std.c **** ****************************************************************************//**
1152:Generated_Source\PSoC5/USBUART_std.c **** *
1153:Generated_Source\PSoC5/USBUART_std.c **** *  This routine handles clear endpoint halt.
1154:Generated_Source\PSoC5/USBUART_std.c **** *
1155:Generated_Source\PSoC5/USBUART_std.c **** * \return
1156:Generated_Source\PSoC5/USBUART_std.c **** *  requestHandled.
1157:Generated_Source\PSoC5/USBUART_std.c **** *
1158:Generated_Source\PSoC5/USBUART_std.c **** * \reentrant
1159:Generated_Source\PSoC5/USBUART_std.c **** *  No.
1160:Generated_Source\PSoC5/USBUART_std.c **** *
1161:Generated_Source\PSoC5/USBUART_std.c **** *******************************************************************************/
1162:Generated_Source\PSoC5/USBUART_std.c **** uint8 USBUART_ClearEndpointHalt(void) 
1163:Generated_Source\PSoC5/USBUART_std.c **** {
1164:Generated_Source\PSoC5/USBUART_std.c ****     uint8 requestHandled = USBUART_FALSE;
1165:Generated_Source\PSoC5/USBUART_std.c ****     uint8 ep;
1166:Generated_Source\PSoC5/USBUART_std.c **** 
1167:Generated_Source\PSoC5/USBUART_std.c ****     /* Clear endpoint halt */
1168:Generated_Source\PSoC5/USBUART_std.c ****     ep = USBUART_wIndexLoReg & USBUART_DIR_UNUSED;
1169:Generated_Source\PSoC5/USBUART_std.c **** 
1170:Generated_Source\PSoC5/USBUART_std.c ****     if ((ep > USBUART_EP0) && (ep < USBUART_MAX_EP))
1171:Generated_Source\PSoC5/USBUART_std.c ****     {
1172:Generated_Source\PSoC5/USBUART_std.c ****         /* Clear the endpoint Halt */
1173:Generated_Source\PSoC5/USBUART_std.c ****         USBUART_EP[ep].hwEpState &= (uint8) ~USBUART_ENDPOINT_STATUS_HALT;
1174:Generated_Source\PSoC5/USBUART_std.c **** 
1175:Generated_Source\PSoC5/USBUART_std.c ****         /* Clear the data toggle */
1176:Generated_Source\PSoC5/USBUART_std.c ****         USBUART_EP[ep].epToggle = 0u;
1177:Generated_Source\PSoC5/USBUART_std.c ****         
1178:Generated_Source\PSoC5/USBUART_std.c ****         /* Clear toggle bit for already armed packet */
1179:Generated_Source\PSoC5/USBUART_std.c ****         USBUART_SIE_EP_BASE.sieEp[ep].epCnt0 &= (uint8) ~(uint8)USBUART_EPX_CNT_DATA_TOGGLE;
1180:Generated_Source\PSoC5/USBUART_std.c ****         
1181:Generated_Source\PSoC5/USBUART_std.c ****         /* Return API State as it was defined before */
1182:Generated_Source\PSoC5/USBUART_std.c ****         USBUART_EP[ep].apiEpState &= (uint8) ~USBUART_NO_EVENT_ALLOWED;
1183:Generated_Source\PSoC5/USBUART_std.c **** 
1184:Generated_Source\PSoC5/USBUART_std.c ****         if ((USBUART_EP[ep].addr & USBUART_DIR_IN) != 0u)
1185:Generated_Source\PSoC5/USBUART_std.c ****         {
1186:Generated_Source\PSoC5/USBUART_std.c ****             /* IN Endpoint */
1187:Generated_Source\PSoC5/USBUART_std.c ****             if(USBUART_EP[ep].apiEpState == USBUART_IN_BUFFER_EMPTY)
1188:Generated_Source\PSoC5/USBUART_std.c ****             {       
1189:Generated_Source\PSoC5/USBUART_std.c ****                 /* Wait for next packet from application */
1190:Generated_Source\PSoC5/USBUART_std.c ****                 USBUART_SIE_EP_BASE.sieEp[ep].epCr0 = USBUART_MODE_NAK_IN;
1191:Generated_Source\PSoC5/USBUART_std.c ****             }
1192:Generated_Source\PSoC5/USBUART_std.c ****             else    /* Continue armed transfer */
1193:Generated_Source\PSoC5/USBUART_std.c ****             {
1194:Generated_Source\PSoC5/USBUART_std.c ****                 USBUART_SIE_EP_BASE.sieEp[ep].epCr0 = USBUART_MODE_ACK_IN;
1195:Generated_Source\PSoC5/USBUART_std.c ****             }
1196:Generated_Source\PSoC5/USBUART_std.c ****         }
1197:Generated_Source\PSoC5/USBUART_std.c ****         else
1198:Generated_Source\PSoC5/USBUART_std.c ****         {
1199:Generated_Source\PSoC5/USBUART_std.c ****             /* OUT Endpoint */
1200:Generated_Source\PSoC5/USBUART_std.c ****             if (USBUART_EP[ep].apiEpState == USBUART_OUT_BUFFER_FULL)
1201:Generated_Source\PSoC5/USBUART_std.c ****             {       
1202:Generated_Source\PSoC5/USBUART_std.c ****                 /* Allow application to read full buffer */
1203:Generated_Source\PSoC5/USBUART_std.c ****                 USBUART_SIE_EP_BASE.sieEp[ep].epCr0 = USBUART_MODE_NAK_OUT;
1204:Generated_Source\PSoC5/USBUART_std.c ****             }
1205:Generated_Source\PSoC5/USBUART_std.c ****             else    /* Mark endpoint as empty, so it will be reloaded */
1206:Generated_Source\PSoC5/USBUART_std.c ****             {
1207:Generated_Source\PSoC5/USBUART_std.c ****                 USBUART_SIE_EP_BASE.sieEp[ep].epCr0 = USBUART_MODE_ACK_OUT;
ARM GAS  C:\Users\ingan\AppData\Local\Temp\cc5yuDXv.s 			page 74


1208:Generated_Source\PSoC5/USBUART_std.c ****             }
1209:Generated_Source\PSoC5/USBUART_std.c ****         }
1210:Generated_Source\PSoC5/USBUART_std.c ****         
1211:Generated_Source\PSoC5/USBUART_std.c ****         requestHandled = USBUART_InitNoDataControlTransfer();
1212:Generated_Source\PSoC5/USBUART_std.c ****     }
1213:Generated_Source\PSoC5/USBUART_std.c **** 
1214:Generated_Source\PSoC5/USBUART_std.c ****     return(requestHandled);
1215:Generated_Source\PSoC5/USBUART_std.c **** }
1216:Generated_Source\PSoC5/USBUART_std.c **** 
1217:Generated_Source\PSoC5/USBUART_std.c **** 
1218:Generated_Source\PSoC5/USBUART_std.c **** /*******************************************************************************
1219:Generated_Source\PSoC5/USBUART_std.c **** * Function Name: USBUART_ValidateAlternateSetting
1220:Generated_Source\PSoC5/USBUART_std.c **** ****************************************************************************//**
1221:Generated_Source\PSoC5/USBUART_std.c **** *
1222:Generated_Source\PSoC5/USBUART_std.c **** *  Validates (and records) a SET INTERFACE request.
1223:Generated_Source\PSoC5/USBUART_std.c **** *
1224:Generated_Source\PSoC5/USBUART_std.c **** * \return
1225:Generated_Source\PSoC5/USBUART_std.c **** *  requestHandled.
1226:Generated_Source\PSoC5/USBUART_std.c **** *
1227:Generated_Source\PSoC5/USBUART_std.c **** * \reentrant
1228:Generated_Source\PSoC5/USBUART_std.c **** *  No.
1229:Generated_Source\PSoC5/USBUART_std.c **** *
1230:Generated_Source\PSoC5/USBUART_std.c **** *******************************************************************************/
1231:Generated_Source\PSoC5/USBUART_std.c **** uint8 USBUART_ValidateAlternateSetting(void) 
1232:Generated_Source\PSoC5/USBUART_std.c **** {
1233:Generated_Source\PSoC5/USBUART_std.c ****     uint8 requestHandled = USBUART_FALSE;
1234:Generated_Source\PSoC5/USBUART_std.c ****     
1235:Generated_Source\PSoC5/USBUART_std.c ****     uint8 interfaceNum;
1236:Generated_Source\PSoC5/USBUART_std.c ****     uint8 curInterfacesNum;
1237:Generated_Source\PSoC5/USBUART_std.c ****     const T_USBUART_LUT CYCODE *pTmp;
1238:Generated_Source\PSoC5/USBUART_std.c ****     
1239:Generated_Source\PSoC5/USBUART_std.c ****     /* Get interface number from the request. */
1240:Generated_Source\PSoC5/USBUART_std.c ****     interfaceNum = (uint8) USBUART_wIndexLoReg;
 2328              		.loc 1 1240 0
 2329 0078 854B     		ldr	r3, .L226
 2330              	.LVL137:
1241:Generated_Source\PSoC5/USBUART_std.c ****     
1242:Generated_Source\PSoC5/USBUART_std.c ****     /* Get number of interfaces for current configuration. */
1243:Generated_Source\PSoC5/USBUART_std.c ****     pTmp = USBUART_GetConfigTablePtr(USBUART_configuration - 1u);
 2331              		.loc 1 1243 0
 2332 007a 8748     		ldr	r0, .L226+8
 2333              	.LBB97:
 2334              	.LBB98:
 948:Generated_Source\PSoC5/USBUART_std.c **** 
 2335              		.loc 1 948 0
 2336 007c 874C     		ldr	r4, .L226+12
 2337              	.LBE98:
 2338              	.LBE97:
1240:Generated_Source\PSoC5/USBUART_std.c ****     
 2339              		.loc 1 1240 0
 2340 007e 1A79     		ldrb	r2, [r3, #4]	@ zero_extendqisi2
 2341              	.LBB104:
 2342              	.LBB99:
 948:Generated_Source\PSoC5/USBUART_std.c **** 
 2343              		.loc 1 948 0
 2344 0080 8749     		ldr	r1, .L226+16
 2345              	.LBE99:
ARM GAS  C:\Users\ingan\AppData\Local\Temp\cc5yuDXv.s 			page 75


 2346              	.LBE104:
