ARM GAS  C:\Users\ingan\AppData\Local\Temp\cc00nNWn.s 			page 1


   1              		.syntax unified
   2              		.cpu cortex-m3
   3              		.fpu softvfp
   4              		.eabi_attribute 20, 1
   5              		.eabi_attribute 21, 1
   6              		.eabi_attribute 23, 3
   7              		.eabi_attribute 24, 1
   8              		.eabi_attribute 25, 1
   9              		.eabi_attribute 26, 1
  10              		.eabi_attribute 30, 2
  11              		.eabi_attribute 34, 1
  12              		.eabi_attribute 18, 4
  13              		.thumb
  14              		.syntax unified
  15              		.file	"USBUART_cdc.c"
  16              		.text
  17              	.Ltext0:
  18              		.cfi_sections	.debug_frame
  19              		.section	.text.USBUART_DispatchCDCClassRqst,"ax",%progbits
  20              		.align	2
  21              		.global	USBUART_DispatchCDCClassRqst
  22              		.thumb
  23              		.thumb_func
  24              		.type	USBUART_DispatchCDCClassRqst, %function
  25              	USBUART_DispatchCDCClassRqst:
  26              	.LFB0:
  27              		.file 1 "Generated_Source\\PSoC5\\USBUART_cdc.c"
   1:Generated_Source\PSoC5/USBUART_cdc.c **** /***************************************************************************//**
   2:Generated_Source\PSoC5/USBUART_cdc.c **** * \file USBUART_cdc.c
   3:Generated_Source\PSoC5/USBUART_cdc.c **** * \version 3.20
   4:Generated_Source\PSoC5/USBUART_cdc.c **** *
   5:Generated_Source\PSoC5/USBUART_cdc.c **** * \brief
   6:Generated_Source\PSoC5/USBUART_cdc.c **** *  This file contains the USB CDC class request handler.
   7:Generated_Source\PSoC5/USBUART_cdc.c **** *
   8:Generated_Source\PSoC5/USBUART_cdc.c **** * Related Document:
   9:Generated_Source\PSoC5/USBUART_cdc.c **** *  Universal Serial Bus Class Definitions for Communication Devices Version 1.1
  10:Generated_Source\PSoC5/USBUART_cdc.c **** *
  11:Generated_Source\PSoC5/USBUART_cdc.c **** ********************************************************************************
  12:Generated_Source\PSoC5/USBUART_cdc.c **** * \copyright
  13:Generated_Source\PSoC5/USBUART_cdc.c **** * Copyright 2012-2016, Cypress Semiconductor Corporation.  All rights reserved.
  14:Generated_Source\PSoC5/USBUART_cdc.c **** * You may use this file only in accordance with the license, terms, conditions,
  15:Generated_Source\PSoC5/USBUART_cdc.c **** * disclaimers, and limitations in the end user license agreement accompanying
  16:Generated_Source\PSoC5/USBUART_cdc.c **** * the software package with which this file was provided.
  17:Generated_Source\PSoC5/USBUART_cdc.c **** *******************************************************************************/
  18:Generated_Source\PSoC5/USBUART_cdc.c **** 
  19:Generated_Source\PSoC5/USBUART_cdc.c **** #include "USBUART_cdc.h"
  20:Generated_Source\PSoC5/USBUART_cdc.c **** #include "USBUART_pvt.h"
  21:Generated_Source\PSoC5/USBUART_cdc.c **** #include "cyapicallbacks.h"
  22:Generated_Source\PSoC5/USBUART_cdc.c **** 
  23:Generated_Source\PSoC5/USBUART_cdc.c **** #if defined(USBUART_ENABLE_CDC_CLASS)
  24:Generated_Source\PSoC5/USBUART_cdc.c **** 
  25:Generated_Source\PSoC5/USBUART_cdc.c **** /*******************************************************************************
  26:Generated_Source\PSoC5/USBUART_cdc.c **** *    CDC Variables
  27:Generated_Source\PSoC5/USBUART_cdc.c **** *******************************************************************************/
  28:Generated_Source\PSoC5/USBUART_cdc.c **** 
  29:Generated_Source\PSoC5/USBUART_cdc.c **** /*PUBLIC*/
  30:Generated_Source\PSoC5/USBUART_cdc.c **** /** Contains the current line coding structure. The host sets it using a
ARM GAS  C:\Users\ingan\AppData\Local\Temp\cc00nNWn.s 			page 2


  31:Generated_Source\PSoC5/USBUART_cdc.c ****  * SET_LINE_CODING request and returns it to the user code using the
  32:Generated_Source\PSoC5/USBUART_cdc.c ****  * USBUART_GetDTERate(), USBUART_GetCharFormat(),
  33:Generated_Source\PSoC5/USBUART_cdc.c ****  * USBUART_GetParityType(), and USBUART_GetDataBits() APIs.
  34:Generated_Source\PSoC5/USBUART_cdc.c ****  * It is an array of 2 elements for COM port 1 and COM port 2 for MultiCOM port
  35:Generated_Source\PSoC5/USBUART_cdc.c ****  * support. In case of 1 COM port, data is in 0 element.*/
  36:Generated_Source\PSoC5/USBUART_cdc.c **** volatile uint8 USBUART_linesCoding[USBUART_MAX_MULTI_COM_NUM][USBUART_LINE_CODING_SIZE] =
  37:Generated_Source\PSoC5/USBUART_cdc.c **** {
  38:Generated_Source\PSoC5/USBUART_cdc.c ****     /*COM Port 1*/
  39:Generated_Source\PSoC5/USBUART_cdc.c ****     {
  40:Generated_Source\PSoC5/USBUART_cdc.c ****     0x00u, 0xC2u, 0x01u, 0x00u,     /* Data terminal rate 115200 */
  41:Generated_Source\PSoC5/USBUART_cdc.c ****     0x00u,                          /* 1 Stop bit */
  42:Generated_Source\PSoC5/USBUART_cdc.c ****     0x00u,                          /* None parity */
  43:Generated_Source\PSoC5/USBUART_cdc.c ****     0x08u                           /* 8 data bits */
  44:Generated_Source\PSoC5/USBUART_cdc.c ****     },
  45:Generated_Source\PSoC5/USBUART_cdc.c ****     /*COM Port 2*/
  46:Generated_Source\PSoC5/USBUART_cdc.c ****     {
  47:Generated_Source\PSoC5/USBUART_cdc.c ****     0x00u, 0xC2u, 0x01u, 0x00u,     /* Data terminal rate 115200 */
  48:Generated_Source\PSoC5/USBUART_cdc.c ****     0x00u,                          /* 1 Stop bit */
  49:Generated_Source\PSoC5/USBUART_cdc.c ****     0x00u,                          /* None parity */
  50:Generated_Source\PSoC5/USBUART_cdc.c ****     0x08u                           /* 8 data bits */
  51:Generated_Source\PSoC5/USBUART_cdc.c ****     }
  52:Generated_Source\PSoC5/USBUART_cdc.c **** };
  53:Generated_Source\PSoC5/USBUART_cdc.c **** 
  54:Generated_Source\PSoC5/USBUART_cdc.c **** /**Used as a flag for the USBUART_IsLineChanged() API, to inform it that the
  55:Generated_Source\PSoC5/USBUART_cdc.c ****  * host has been sent a request to change line coding or control bitmap. It is 
  56:Generated_Source\PSoC5/USBUART_cdc.c ****  * an array of 2 elements for COM port 1 and COM port 2 for MultiCOM port 
  57:Generated_Source\PSoC5/USBUART_cdc.c ****  * support. In case of 1 COM port, data is in 0 element.*/
  58:Generated_Source\PSoC5/USBUART_cdc.c **** volatile uint8  USBUART_linesChanged[USBUART_MAX_MULTI_COM_NUM];
  59:Generated_Source\PSoC5/USBUART_cdc.c **** /** Contains the current control-signal bitmap. The host sets it using a
  60:Generated_Source\PSoC5/USBUART_cdc.c ****  * SET_CONTROL_LINE request and returns it to the user code using the 
  61:Generated_Source\PSoC5/USBUART_cdc.c ****  * USBUART_GetLineControl() API. It is an array of 2 elements for COM 
  62:Generated_Source\PSoC5/USBUART_cdc.c ****  * port 1 and COM port 2 for MultiCOM port support. In case of 1 COM port, data 
  63:Generated_Source\PSoC5/USBUART_cdc.c ****  * is in 0 element.*/
  64:Generated_Source\PSoC5/USBUART_cdc.c **** volatile uint16 USBUART_linesControlBitmap[USBUART_MAX_MULTI_COM_NUM];
  65:Generated_Source\PSoC5/USBUART_cdc.c **** /** Contains the 16-bit serial state value that was sent using the 
  66:Generated_Source\PSoC5/USBUART_cdc.c ****  * \ref USBUART_SendSerialState() API. . It is an array of 2 elements 
  67:Generated_Source\PSoC5/USBUART_cdc.c ****  * for COM port 1 and COM port 2 for MultiCOM port support. In case of 1 COM 
  68:Generated_Source\PSoC5/USBUART_cdc.c ****  * port, data is in 0 element.*/
  69:Generated_Source\PSoC5/USBUART_cdc.c **** volatile uint16 USBUART_serialStateBitmap[USBUART_MAX_MULTI_COM_NUM];
  70:Generated_Source\PSoC5/USBUART_cdc.c **** /** Contains the data IN endpoint number. It is initialized after a 
  71:Generated_Source\PSoC5/USBUART_cdc.c ****  * SET_CONFIGURATION request based on a user descriptor. It is used in CDC APIs 
  72:Generated_Source\PSoC5/USBUART_cdc.c ****  * to send data to the PC. It is an array of 2 elements for COM port 1 and COM 
  73:Generated_Source\PSoC5/USBUART_cdc.c ****  * port 2 for MultiCOM port support. In case of 1 COM port, data is in 0 element.*/
  74:Generated_Source\PSoC5/USBUART_cdc.c **** volatile uint8  USBUART_cdcDataInEp[USBUART_MAX_MULTI_COM_NUM];
  75:Generated_Source\PSoC5/USBUART_cdc.c **** /** Contains the data OUT endpoint number. It is initialized after a 
  76:Generated_Source\PSoC5/USBUART_cdc.c ****  * SET_CONFIGURATION request based on user descriptor. It is used in CDC APIs to 
  77:Generated_Source\PSoC5/USBUART_cdc.c ****  * receive data from the PC. It is an array of 2 elements for COM port 1 and COM  
  78:Generated_Source\PSoC5/USBUART_cdc.c ****  * port 2 for MultiCOM port support. In case of 1 COM port, data is in 0 element.*/
  79:Generated_Source\PSoC5/USBUART_cdc.c **** volatile uint8  USBUART_cdcDataOutEp[USBUART_MAX_MULTI_COM_NUM];
  80:Generated_Source\PSoC5/USBUART_cdc.c **** /** Contains the data IN endpoint number for COMMUNICATION interface. It is 
  81:Generated_Source\PSoC5/USBUART_cdc.c ****  * initialized after a SET_CONFIGURATION request based on a user descriptor. It 
  82:Generated_Source\PSoC5/USBUART_cdc.c ****  * is used in CDC APIs to send data to the PC. It is an array of 2 elements for 
  83:Generated_Source\PSoC5/USBUART_cdc.c ****  * COM port 1 and COM port 2 for MultiCOM port support. In case of 1 COM port, 
  84:Generated_Source\PSoC5/USBUART_cdc.c ****  * data is in 0 element.*/
  85:Generated_Source\PSoC5/USBUART_cdc.c **** volatile uint8  USBUART_cdcCommInInterruptEp[USBUART_MAX_MULTI_COM_NUM];
  86:Generated_Source\PSoC5/USBUART_cdc.c **** 
  87:Generated_Source\PSoC5/USBUART_cdc.c **** /*PRIVATE*/
ARM GAS  C:\Users\ingan\AppData\Local\Temp\cc00nNWn.s 			page 3


  88:Generated_Source\PSoC5/USBUART_cdc.c **** 
  89:Generated_Source\PSoC5/USBUART_cdc.c **** #define USBUART_CDC_IN_EP      (0u)
  90:Generated_Source\PSoC5/USBUART_cdc.c **** #define USBUART_CDC_OUT_EP     (1u)
  91:Generated_Source\PSoC5/USBUART_cdc.c **** #define USBUART_CDC_NOTE_EP    (2u)
  92:Generated_Source\PSoC5/USBUART_cdc.c **** 
  93:Generated_Source\PSoC5/USBUART_cdc.c **** #define USBUART_CDC_EP_MASK    (0x01u)
  94:Generated_Source\PSoC5/USBUART_cdc.c **** 
  95:Generated_Source\PSoC5/USBUART_cdc.c **** #define USBUART_GET_EP_COM_NUM(cdcComNums, epType) (((cdcComNums) >> (epType)) & USBUART_CDC_EP_MAS
  96:Generated_Source\PSoC5/USBUART_cdc.c **** 
  97:Generated_Source\PSoC5/USBUART_cdc.c **** 
  98:Generated_Source\PSoC5/USBUART_cdc.c **** /***************************************
  99:Generated_Source\PSoC5/USBUART_cdc.c **** *     Static Function Prototypes
 100:Generated_Source\PSoC5/USBUART_cdc.c **** ***************************************/
 101:Generated_Source\PSoC5/USBUART_cdc.c **** #if (USBUART_ENABLE_CDC_CLASS_API != 0u)
 102:Generated_Source\PSoC5/USBUART_cdc.c ****     static uint16 USBUART_StrLen(const char8 string[]) ;
 103:Generated_Source\PSoC5/USBUART_cdc.c ****     static t_USBUART_cdc_notification USBUART_serialStateNotification =
 104:Generated_Source\PSoC5/USBUART_cdc.c ****     {
 105:Generated_Source\PSoC5/USBUART_cdc.c **** 
 106:Generated_Source\PSoC5/USBUART_cdc.c ****         USBUART_SERIAL_STATE_REQUEST_TYPE, /* bRequestType    */
 107:Generated_Source\PSoC5/USBUART_cdc.c ****         USBUART_SERIAL_STATE,              /* bNotification   */
 108:Generated_Source\PSoC5/USBUART_cdc.c ****         0u,                                         /* wValue          */
 109:Generated_Source\PSoC5/USBUART_cdc.c ****         0u,                                         /* wValueMSB       */
 110:Generated_Source\PSoC5/USBUART_cdc.c ****         0u,                                         /* wIndex          */
 111:Generated_Source\PSoC5/USBUART_cdc.c ****         0u,                                         /* wIndexMSB       */
 112:Generated_Source\PSoC5/USBUART_cdc.c ****         USBUART_SERIAL_STATE_LENGTH,       /* wLength         */
 113:Generated_Source\PSoC5/USBUART_cdc.c ****         0u,                                         /* wLengthMSB      */
 114:Generated_Source\PSoC5/USBUART_cdc.c ****         0u,                                         /* wSerialState    */
 115:Generated_Source\PSoC5/USBUART_cdc.c ****         0u,                                         /* wSerialStateMSB */
 116:Generated_Source\PSoC5/USBUART_cdc.c ****     };
 117:Generated_Source\PSoC5/USBUART_cdc.c ****     static uint8 USBUART_activeCom = 0u;
 118:Generated_Source\PSoC5/USBUART_cdc.c **** #endif /* (USBUART_ENABLE_CDC_CLASS_API != 0u) */
 119:Generated_Source\PSoC5/USBUART_cdc.c **** 
 120:Generated_Source\PSoC5/USBUART_cdc.c **** 
 121:Generated_Source\PSoC5/USBUART_cdc.c **** /***************************************
 122:Generated_Source\PSoC5/USBUART_cdc.c **** * Custom Declarations
 123:Generated_Source\PSoC5/USBUART_cdc.c **** ***************************************/
 124:Generated_Source\PSoC5/USBUART_cdc.c **** 
 125:Generated_Source\PSoC5/USBUART_cdc.c **** /* `#START CDC_CUSTOM_DECLARATIONS` Place your declaration here */
 126:Generated_Source\PSoC5/USBUART_cdc.c **** 
 127:Generated_Source\PSoC5/USBUART_cdc.c **** /* `#END` */
 128:Generated_Source\PSoC5/USBUART_cdc.c **** 
 129:Generated_Source\PSoC5/USBUART_cdc.c **** 
 130:Generated_Source\PSoC5/USBUART_cdc.c **** /*******************************************************************************
 131:Generated_Source\PSoC5/USBUART_cdc.c **** * Function Name: USBUART_DispatchCDCClassRqst
 132:Generated_Source\PSoC5/USBUART_cdc.c **** ****************************************************************************//**
 133:Generated_Source\PSoC5/USBUART_cdc.c **** *
 134:Generated_Source\PSoC5/USBUART_cdc.c **** *  This routine dispatches CDC class requests.
 135:Generated_Source\PSoC5/USBUART_cdc.c **** *
 136:Generated_Source\PSoC5/USBUART_cdc.c **** * \return
 137:Generated_Source\PSoC5/USBUART_cdc.c **** *  requestHandled
 138:Generated_Source\PSoC5/USBUART_cdc.c **** *
 139:Generated_Source\PSoC5/USBUART_cdc.c **** * \globalvars
 140:Generated_Source\PSoC5/USBUART_cdc.c **** *   USBUART_linesCoding: Contains the current line coding structure.
 141:Generated_Source\PSoC5/USBUART_cdc.c **** *     It is set by the Host using SET_LINE_CODING request and returned to the
 142:Generated_Source\PSoC5/USBUART_cdc.c **** *     user code by the USBFS_GetDTERate(), USBFS_GetCharFormat(),
 143:Generated_Source\PSoC5/USBUART_cdc.c **** *     USBFS_GetParityType(), USBFS_GetDataBits() APIs.
 144:Generated_Source\PSoC5/USBUART_cdc.c **** *   USBUART_linesControlBitmap: Contains the current control signal
ARM GAS  C:\Users\ingan\AppData\Local\Temp\cc00nNWn.s 			page 4


 145:Generated_Source\PSoC5/USBUART_cdc.c **** *     bitmap. It is set by the Host using SET_CONTROL_LINE request and returned
 146:Generated_Source\PSoC5/USBUART_cdc.c **** *     to the user code by the USBFS_GetLineControl() API.
 147:Generated_Source\PSoC5/USBUART_cdc.c **** *   USBUART_linesChanged: This variable is used as a flag for the
 148:Generated_Source\PSoC5/USBUART_cdc.c **** *     USBFS_IsLineChanged() API, to be aware that Host has been sent request
 149:Generated_Source\PSoC5/USBUART_cdc.c **** *     for changing Line Coding or Control Bitmap.
 150:Generated_Source\PSoC5/USBUART_cdc.c **** *
 151:Generated_Source\PSoC5/USBUART_cdc.c **** * \reentrant
 152:Generated_Source\PSoC5/USBUART_cdc.c **** *  No.
 153:Generated_Source\PSoC5/USBUART_cdc.c **** *
 154:Generated_Source\PSoC5/USBUART_cdc.c **** *******************************************************************************/
 155:Generated_Source\PSoC5/USBUART_cdc.c **** uint8 USBUART_DispatchCDCClassRqst(void) 
 156:Generated_Source\PSoC5/USBUART_cdc.c **** {
  28              		.loc 1 156 0
  29              		.cfi_startproc
  30              		@ args = 0, pretend = 0, frame = 0
  31              		@ frame_needed = 0, uses_anonymous_args = 0
  32              		@ link register save eliminated.
  33              	.LVL0:
 157:Generated_Source\PSoC5/USBUART_cdc.c ****     uint8 requestHandled = USBUART_FALSE;
 158:Generated_Source\PSoC5/USBUART_cdc.c ****     uint8 comPort;
 159:Generated_Source\PSoC5/USBUART_cdc.c **** 
 160:Generated_Source\PSoC5/USBUART_cdc.c ****     comPort = USBUART_GetInterfaceComPort((uint8)USBUART_wIndexLoReg);
  34              		.loc 1 160 0
  35 0000 264B     		ldr	r3, .L17
  36              	.LBB6:
  37              	.LBB7:
 161:Generated_Source\PSoC5/USBUART_cdc.c **** 
 162:Generated_Source\PSoC5/USBUART_cdc.c ****     /* Check request direction: D2H or H2D. */
 163:Generated_Source\PSoC5/USBUART_cdc.c ****     if (0u != (USBUART_bmRequestTypeReg & USBUART_RQST_DIR_D2H))
 164:Generated_Source\PSoC5/USBUART_cdc.c ****     {
 165:Generated_Source\PSoC5/USBUART_cdc.c ****         /* Handle direction from device to host. */
 166:Generated_Source\PSoC5/USBUART_cdc.c **** 
 167:Generated_Source\PSoC5/USBUART_cdc.c ****         switch (USBUART_bRequestReg)
 168:Generated_Source\PSoC5/USBUART_cdc.c ****         {
 169:Generated_Source\PSoC5/USBUART_cdc.c ****             case USBUART_CDC_GET_LINE_CODING:
 170:Generated_Source\PSoC5/USBUART_cdc.c ****                 USBUART_currentTD.count = USBUART_LINE_CODING_SIZE;
 171:Generated_Source\PSoC5/USBUART_cdc.c ****                 USBUART_currentTD.pData = USBUART_linesCoding[comPort];
 172:Generated_Source\PSoC5/USBUART_cdc.c ****                 requestHandled  = USBUART_InitControlRead();
 173:Generated_Source\PSoC5/USBUART_cdc.c ****                 break;
 174:Generated_Source\PSoC5/USBUART_cdc.c **** 
 175:Generated_Source\PSoC5/USBUART_cdc.c ****             /* `#START CDC_READ_REQUESTS` Place other request handler here */
 176:Generated_Source\PSoC5/USBUART_cdc.c **** 
 177:Generated_Source\PSoC5/USBUART_cdc.c ****             /* `#END` */
 178:Generated_Source\PSoC5/USBUART_cdc.c **** 
 179:Generated_Source\PSoC5/USBUART_cdc.c ****             default:
 180:Generated_Source\PSoC5/USBUART_cdc.c ****             /* Do not handle this request unless callback is defined. */
 181:Generated_Source\PSoC5/USBUART_cdc.c ****             #ifdef USBUART_DISPATCH_CDC_CLASS_CDC_READ_REQUESTS_CALLBACK
 182:Generated_Source\PSoC5/USBUART_cdc.c ****                 requestHandled = USBUART_DispatchCDCClass_CDC_READ_REQUESTS_Callback();
 183:Generated_Source\PSoC5/USBUART_cdc.c ****             #endif /* (USBUART_DISPATCH_CDC_CLASS_CDC_READ_REQUESTS_CALLBACK) */
 184:Generated_Source\PSoC5/USBUART_cdc.c ****                 break;
 185:Generated_Source\PSoC5/USBUART_cdc.c ****         }
 186:Generated_Source\PSoC5/USBUART_cdc.c ****     }
 187:Generated_Source\PSoC5/USBUART_cdc.c ****     else
 188:Generated_Source\PSoC5/USBUART_cdc.c ****     {
 189:Generated_Source\PSoC5/USBUART_cdc.c ****         /* Handle direction from host to device. */
 190:Generated_Source\PSoC5/USBUART_cdc.c **** 
 191:Generated_Source\PSoC5/USBUART_cdc.c ****         switch (USBUART_bRequestReg)
ARM GAS  C:\Users\ingan\AppData\Local\Temp\cc00nNWn.s 			page 5


 192:Generated_Source\PSoC5/USBUART_cdc.c ****         {
 193:Generated_Source\PSoC5/USBUART_cdc.c ****             case USBUART_CDC_SET_LINE_CODING:
 194:Generated_Source\PSoC5/USBUART_cdc.c ****                 USBUART_currentTD.count  = USBUART_LINE_CODING_SIZE;
 195:Generated_Source\PSoC5/USBUART_cdc.c ****                 USBUART_currentTD.pData  = USBUART_linesCoding[comPort];
 196:Generated_Source\PSoC5/USBUART_cdc.c ****                 USBUART_linesChanged[comPort] |= USBUART_LINE_CODING_CHANGED;
 197:Generated_Source\PSoC5/USBUART_cdc.c **** 
 198:Generated_Source\PSoC5/USBUART_cdc.c ****                 requestHandled = USBUART_InitControlWrite();
 199:Generated_Source\PSoC5/USBUART_cdc.c ****                 break;
 200:Generated_Source\PSoC5/USBUART_cdc.c **** 
 201:Generated_Source\PSoC5/USBUART_cdc.c ****             case USBUART_CDC_SET_CONTROL_LINE_STATE:
 202:Generated_Source\PSoC5/USBUART_cdc.c ****                 USBUART_linesControlBitmap[comPort] = (uint8) USBUART_wValueLoReg;
 203:Generated_Source\PSoC5/USBUART_cdc.c ****                 USBUART_linesChanged[comPort]      |= USBUART_LINE_CONTROL_CHANGED;
 204:Generated_Source\PSoC5/USBUART_cdc.c **** 
 205:Generated_Source\PSoC5/USBUART_cdc.c ****                 requestHandled = USBUART_InitNoDataControlTransfer();
 206:Generated_Source\PSoC5/USBUART_cdc.c ****                 break;
 207:Generated_Source\PSoC5/USBUART_cdc.c **** 
 208:Generated_Source\PSoC5/USBUART_cdc.c ****             /* `#START CDC_WRITE_REQUESTS` Place other request handler here */
 209:Generated_Source\PSoC5/USBUART_cdc.c **** 
 210:Generated_Source\PSoC5/USBUART_cdc.c ****             /* `#END` */
 211:Generated_Source\PSoC5/USBUART_cdc.c **** 
 212:Generated_Source\PSoC5/USBUART_cdc.c ****             default:
 213:Generated_Source\PSoC5/USBUART_cdc.c ****                 /* Do not handle this request unless callback is defined. */
 214:Generated_Source\PSoC5/USBUART_cdc.c ****             #ifdef USBUART_DISPATCH_CDC_CLASS_CDC_WRITE_REQUESTS_CALLBACK
 215:Generated_Source\PSoC5/USBUART_cdc.c ****                 requestHandled = USBUART_DispatchCDCClass_CDC_WRITE_REQUESTS_Callback();
 216:Generated_Source\PSoC5/USBUART_cdc.c ****             #endif /* (USBUART_DISPATCH_CDC_CLASS_CDC_WRITE_REQUESTS_CALLBACK) */
 217:Generated_Source\PSoC5/USBUART_cdc.c ****                 break;
 218:Generated_Source\PSoC5/USBUART_cdc.c ****         }
 219:Generated_Source\PSoC5/USBUART_cdc.c ****     }
 220:Generated_Source\PSoC5/USBUART_cdc.c **** 
 221:Generated_Source\PSoC5/USBUART_cdc.c ****     return(requestHandled);
 222:Generated_Source\PSoC5/USBUART_cdc.c **** }
 223:Generated_Source\PSoC5/USBUART_cdc.c **** 
 224:Generated_Source\PSoC5/USBUART_cdc.c **** 
 225:Generated_Source\PSoC5/USBUART_cdc.c **** /***************************************************************************
 226:Generated_Source\PSoC5/USBUART_cdc.c **** * Function Name: USBUART_GetInterfaceComPort
 227:Generated_Source\PSoC5/USBUART_cdc.c **** ************************************************************************//**
 228:Generated_Source\PSoC5/USBUART_cdc.c **** *   \internal
 229:Generated_Source\PSoC5/USBUART_cdc.c **** *  Internal function which gets number of COM port by specified interface
 230:Generated_Source\PSoC5/USBUART_cdc.c **** *   number.
 231:Generated_Source\PSoC5/USBUART_cdc.c **** *
 232:Generated_Source\PSoC5/USBUART_cdc.c **** * \param uint8 interface
 233:Generated_Source\PSoC5/USBUART_cdc.c **** *  Interface number
 234:Generated_Source\PSoC5/USBUART_cdc.c **** *
 235:Generated_Source\PSoC5/USBUART_cdc.c **** * \return
 236:Generated_Source\PSoC5/USBUART_cdc.c **** *  COM port number (0 or 1) or error 0xFF
 237:Generated_Source\PSoC5/USBUART_cdc.c **** *
 238:Generated_Source\PSoC5/USBUART_cdc.c **** ***************************************************************************/
 239:Generated_Source\PSoC5/USBUART_cdc.c **** uint8 USBUART_GetInterfaceComPort(uint8 interface) 
 240:Generated_Source\PSoC5/USBUART_cdc.c **** {
 241:Generated_Source\PSoC5/USBUART_cdc.c ****     uint8 comPort = 0u;
 242:Generated_Source\PSoC5/USBUART_cdc.c ****     uint8 res = 0xFFu;
 243:Generated_Source\PSoC5/USBUART_cdc.c ****     uint8 notEp;
 244:Generated_Source\PSoC5/USBUART_cdc.c **** 
 245:Generated_Source\PSoC5/USBUART_cdc.c ****     while (comPort < USBUART_MAX_MULTI_COM_NUM)
 246:Generated_Source\PSoC5/USBUART_cdc.c ****     {
 247:Generated_Source\PSoC5/USBUART_cdc.c ****         notEp = USBUART_cdcCommInInterruptEp[comPort];
  38              		.loc 1 247 0
ARM GAS  C:\Users\ingan\AppData\Local\Temp\cc00nNWn.s 			page 6


  39 0002 2748     		ldr	r0, .L17+4
  40              	.LBE7:
  41              	.LBE6:
 160:Generated_Source\PSoC5/USBUART_cdc.c **** 
  42              		.loc 1 160 0
  43 0004 1B79     		ldrb	r3, [r3, #4]	@ zero_extendqisi2
  44              	.LBB11:
  45              	.LBB8:
  46              		.loc 1 247 0
  47 0006 0278     		ldrb	r2, [r0]	@ zero_extendqisi2
 248:Generated_Source\PSoC5/USBUART_cdc.c **** 
 249:Generated_Source\PSoC5/USBUART_cdc.c ****         if (USBUART_EP[notEp].interface == interface)
  48              		.loc 1 249 0
  49 0008 2649     		ldr	r1, .L17+8
  50 000a 02EB4202 		add	r2, r2, r2, lsl #1
  51 000e 01EB8202 		add	r2, r1, r2, lsl #2
  52 0012 927A     		ldrb	r2, [r2, #10]	@ zero_extendqisi2
  53              	.LBE8:
  54              	.LBE11:
 160:Generated_Source\PSoC5/USBUART_cdc.c **** 
  55              		.loc 1 160 0
  56 0014 DBB2     		uxtb	r3, r3
  57              	.LVL1:
  58              	.LBB12:
  59              	.LBB9:
  60              		.loc 1 249 0
  61 0016 9342     		cmp	r3, r2
  62 0018 34D0     		beq	.L9
  63              	.LVL2:
 247:Generated_Source\PSoC5/USBUART_cdc.c **** 
  64              		.loc 1 247 0
  65 001a 4278     		ldrb	r2, [r0, #1]	@ zero_extendqisi2
  66              	.LVL3:
  67              		.loc 1 249 0
  68 001c 02EB4202 		add	r2, r2, r2, lsl #1
  69              	.LVL4:
  70 0020 01EB8201 		add	r1, r1, r2, lsl #2
  71 0024 8A7A     		ldrb	r2, [r1, #10]	@ zero_extendqisi2
 247:Generated_Source\PSoC5/USBUART_cdc.c **** 
  72              		.loc 1 247 0
  73 0026 9342     		cmp	r3, r2
  74 0028 14BF     		ite	ne
  75 002a FF23     		movne	r3, #255
  76 002c 0123     		moveq	r3, #1
  77              	.LVL5:
  78              	.L3:
  79              	.LBE9:
  80              	.LBE12:
 163:Generated_Source\PSoC5/USBUART_cdc.c ****     {
  81              		.loc 1 163 0
  82 002e 1B49     		ldr	r1, .L17
  83 0030 0A78     		ldrb	r2, [r1]	@ zero_extendqisi2
  84 0032 12F0800F 		tst	r2, #128
 167:Generated_Source\PSoC5/USBUART_cdc.c ****         {
  85              		.loc 1 167 0
  86 0036 4A78     		ldrb	r2, [r1, #1]	@ zero_extendqisi2
 163:Generated_Source\PSoC5/USBUART_cdc.c ****     {
ARM GAS  C:\Users\ingan\AppData\Local\Temp\cc00nNWn.s 			page 7


  87              		.loc 1 163 0
  88 0038 20D1     		bne	.L15
 191:Generated_Source\PSoC5/USBUART_cdc.c ****         {
  89              		.loc 1 191 0
  90 003a D2B2     		uxtb	r2, r2
  91 003c 202A     		cmp	r2, #32
  92 003e 0CD0     		beq	.L7
  93 0040 222A     		cmp	r2, #34
  94 0042 1DD1     		bne	.L5
 202:Generated_Source\PSoC5/USBUART_cdc.c ****                 USBUART_linesChanged[comPort]      |= USBUART_LINE_CONTROL_CHANGED;
  95              		.loc 1 202 0
  96 0044 8A78     		ldrb	r2, [r1, #2]	@ zero_extendqisi2
  97 0046 1848     		ldr	r0, .L17+12
 203:Generated_Source\PSoC5/USBUART_cdc.c **** 
  98              		.loc 1 203 0
  99 0048 1849     		ldr	r1, .L17+16
 202:Generated_Source\PSoC5/USBUART_cdc.c ****                 USBUART_linesChanged[comPort]      |= USBUART_LINE_CONTROL_CHANGED;
 100              		.loc 1 202 0
 101 004a 20F81320 		strh	r2, [r0, r3, lsl #1]	@ movhi
 203:Generated_Source\PSoC5/USBUART_cdc.c **** 
 102              		.loc 1 203 0
 103 004e CA5C     		ldrb	r2, [r1, r3]	@ zero_extendqisi2
 104 0050 42F00202 		orr	r2, r2, #2
 105 0054 CA54     		strb	r2, [r1, r3]
 205:Generated_Source\PSoC5/USBUART_cdc.c ****                 break;
 106              		.loc 1 205 0
 107 0056 FFF7FEBF 		b	USBUART_InitNoDataControlTransfer
 108              	.LVL6:
 109              	.L7:
 156:Generated_Source\PSoC5/USBUART_cdc.c ****     uint8 requestHandled = USBUART_FALSE;
 110              		.loc 1 156 0
 111 005a 10B4     		push	{r4}
 112              		.cfi_def_cfa_offset 4
 113              		.cfi_offset 4, -4
 195:Generated_Source\PSoC5/USBUART_cdc.c ****                 USBUART_linesChanged[comPort] |= USBUART_LINE_CODING_CHANGED;
 114              		.loc 1 195 0
 115 005c 1449     		ldr	r1, .L17+20
 194:Generated_Source\PSoC5/USBUART_cdc.c ****                 USBUART_currentTD.pData  = USBUART_linesCoding[comPort];
 116              		.loc 1 194 0
 117 005e 1548     		ldr	r0, .L17+24
 195:Generated_Source\PSoC5/USBUART_cdc.c ****                 USBUART_linesChanged[comPort] |= USBUART_LINE_CODING_CHANGED;
 118              		.loc 1 195 0
 119 0060 C3EBC302 		rsb	r2, r3, r3, lsl #3
 120 0064 0A44     		add	r2, r2, r1
 194:Generated_Source\PSoC5/USBUART_cdc.c ****                 USBUART_currentTD.pData  = USBUART_linesCoding[comPort];
 121              		.loc 1 194 0
 122 0066 0724     		movs	r4, #7
 196:Generated_Source\PSoC5/USBUART_cdc.c **** 
 123              		.loc 1 196 0
 124 0068 1049     		ldr	r1, .L17+16
 194:Generated_Source\PSoC5/USBUART_cdc.c ****                 USBUART_currentTD.pData  = USBUART_linesCoding[comPort];
 125              		.loc 1 194 0
 126 006a 0480     		strh	r4, [r0]	@ movhi
 195:Generated_Source\PSoC5/USBUART_cdc.c ****                 USBUART_linesChanged[comPort] |= USBUART_LINE_CODING_CHANGED;
 127              		.loc 1 195 0
 128 006c 4260     		str	r2, [r0, #4]
 196:Generated_Source\PSoC5/USBUART_cdc.c **** 
ARM GAS  C:\Users\ingan\AppData\Local\Temp\cc00nNWn.s 			page 8


 129              		.loc 1 196 0
 130 006e CA5C     		ldrb	r2, [r1, r3]	@ zero_extendqisi2
 131 0070 42F00102 		orr	r2, r2, #1
 132 0074 CA54     		strb	r2, [r1, r3]
 222:Generated_Source\PSoC5/USBUART_cdc.c **** 
 133              		.loc 1 222 0
 134 0076 10BC     		pop	{r4}
 135              		.cfi_restore 4
 136              		.cfi_def_cfa_offset 0
 198:Generated_Source\PSoC5/USBUART_cdc.c ****                 break;
 137              		.loc 1 198 0
 138 0078 FFF7FEBF 		b	USBUART_InitControlWrite
 139              	.LVL7:
 140              	.L15:
 167:Generated_Source\PSoC5/USBUART_cdc.c ****         {
 141              		.loc 1 167 0
 142 007c 212A     		cmp	r2, #33
 143 007e 03D0     		beq	.L16
 144              	.L5:
 145              	.LVL8:
 222:Generated_Source\PSoC5/USBUART_cdc.c **** 
 146              		.loc 1 222 0
 147 0080 0020     		movs	r0, #0
 148 0082 7047     		bx	lr
 149              	.LVL9:
 150              	.L9:
 151              	.LBB13:
 152              	.LBB10:
 247:Generated_Source\PSoC5/USBUART_cdc.c **** 
 153              		.loc 1 247 0
 154 0084 0023     		movs	r3, #0
 155              	.LVL10:
 156 0086 D2E7     		b	.L3
 157              	.LVL11:
 158              	.L16:
 159              	.LBE10:
 160              	.LBE13:
 171:Generated_Source\PSoC5/USBUART_cdc.c ****                 requestHandled  = USBUART_InitControlRead();
 161              		.loc 1 171 0
 162 0088 0949     		ldr	r1, .L17+20
 170:Generated_Source\PSoC5/USBUART_cdc.c ****                 USBUART_currentTD.pData = USBUART_linesCoding[comPort];
 163              		.loc 1 170 0
 164 008a 0A4A     		ldr	r2, .L17+24
 171:Generated_Source\PSoC5/USBUART_cdc.c ****                 requestHandled  = USBUART_InitControlRead();
 165              		.loc 1 171 0
 166 008c C3EBC303 		rsb	r3, r3, r3, lsl #3
 167 0090 0B44     		add	r3, r3, r1
 170:Generated_Source\PSoC5/USBUART_cdc.c ****                 USBUART_currentTD.pData = USBUART_linesCoding[comPort];
 168              		.loc 1 170 0
 169 0092 0721     		movs	r1, #7
 170 0094 1180     		strh	r1, [r2]	@ movhi
 171:Generated_Source\PSoC5/USBUART_cdc.c ****                 requestHandled  = USBUART_InitControlRead();
 171              		.loc 1 171 0
 172 0096 5360     		str	r3, [r2, #4]
 172:Generated_Source\PSoC5/USBUART_cdc.c ****                 break;
 173              		.loc 1 172 0
 174 0098 FFF7FEBF 		b	USBUART_InitControlRead
ARM GAS  C:\Users\ingan\AppData\Local\Temp\cc00nNWn.s 			page 9


 175              	.LVL12:
 176              	.L18:
 177              		.align	2
 178              	.L17:
 179 009c 00600040 		.word	1073766400
 180 00a0 00000000 		.word	USBUART_cdcCommInInterruptEp
 181 00a4 00000000 		.word	USBUART_EP
 182 00a8 00000000 		.word	USBUART_linesControlBitmap
 183 00ac 00000000 		.word	USBUART_linesChanged
 184 00b0 00000000 		.word	.LANCHOR0
 185 00b4 00000000 		.word	USBUART_currentTD
 186              		.cfi_endproc
 187              	.LFE0:
 188              		.size	USBUART_DispatchCDCClassRqst, .-USBUART_DispatchCDCClassRqst
 189              		.section	.text.USBUART_GetInterfaceComPort,"ax",%progbits
 190              		.align	2
 191              		.global	USBUART_GetInterfaceComPort
 192              		.thumb
 193              		.thumb_func
 194              		.type	USBUART_GetInterfaceComPort, %function
 195              	USBUART_GetInterfaceComPort:
 196              	.LFB1:
 240:Generated_Source\PSoC5/USBUART_cdc.c ****     uint8 comPort = 0u;
 197              		.loc 1 240 0
 198              		.cfi_startproc
 199              		@ args = 0, pretend = 0, frame = 0
 200              		@ frame_needed = 0, uses_anonymous_args = 0
 201              		@ link register save eliminated.
 202              	.LVL13:
 247:Generated_Source\PSoC5/USBUART_cdc.c **** 
 203              		.loc 1 247 0
 204 0000 0B49     		ldr	r1, .L24
 205              		.loc 1 249 0
 206 0002 0C4A     		ldr	r2, .L24+4
 247:Generated_Source\PSoC5/USBUART_cdc.c **** 
 207              		.loc 1 247 0
 208 0004 0B78     		ldrb	r3, [r1]	@ zero_extendqisi2
 209              	.LVL14:
 210              		.loc 1 249 0
 211 0006 03EB4303 		add	r3, r3, r3, lsl #1
 212              	.LVL15:
 213 000a 02EB8303 		add	r3, r2, r3, lsl #2
 214 000e 9B7A     		ldrb	r3, [r3, #10]	@ zero_extendqisi2
 215 0010 9842     		cmp	r0, r3
 216 0012 0AD0     		beq	.L22
 217              	.LVL16:
 247:Generated_Source\PSoC5/USBUART_cdc.c **** 
 218              		.loc 1 247 0
 219 0014 4B78     		ldrb	r3, [r1, #1]	@ zero_extendqisi2
 220              	.LVL17:
 221              		.loc 1 249 0
 222 0016 03EB4303 		add	r3, r3, r3, lsl #1
 223              	.LVL18:
 224 001a 02EB8302 		add	r2, r2, r3, lsl #2
 225 001e 937A     		ldrb	r3, [r2, #10]	@ zero_extendqisi2
 250:Generated_Source\PSoC5/USBUART_cdc.c ****         {
 251:Generated_Source\PSoC5/USBUART_cdc.c ****             res = comPort;
ARM GAS  C:\Users\ingan\AppData\Local\Temp\cc00nNWn.s 			page 10


 252:Generated_Source\PSoC5/USBUART_cdc.c ****             comPort = USBUART_MAX_MULTI_COM_NUM;
 253:Generated_Source\PSoC5/USBUART_cdc.c ****         }
 254:Generated_Source\PSoC5/USBUART_cdc.c **** 
 255:Generated_Source\PSoC5/USBUART_cdc.c ****         comPort++;
 226              		.loc 1 255 0
 227 0020 8342     		cmp	r3, r0
 228 0022 14BF     		ite	ne
 229 0024 FF20     		movne	r0, #255
 230 0026 0120     		moveq	r0, #1
 231              	.LVL19:
 232 0028 7047     		bx	lr
 233              	.LVL20:
 234              	.L22:
 241:Generated_Source\PSoC5/USBUART_cdc.c ****     uint8 res = 0xFFu;
 235              		.loc 1 241 0
 236 002a 0020     		movs	r0, #0
 237              	.LVL21:
 256:Generated_Source\PSoC5/USBUART_cdc.c ****     }
 257:Generated_Source\PSoC5/USBUART_cdc.c ****     return (res);
 258:Generated_Source\PSoC5/USBUART_cdc.c **** }
 238              		.loc 1 258 0
 239 002c 7047     		bx	lr
 240              	.L25:
 241 002e 00BF     		.align	2
 242              	.L24:
 243 0030 00000000 		.word	USBUART_cdcCommInInterruptEp
 244 0034 00000000 		.word	USBUART_EP
 245              		.cfi_endproc
 246              	.LFE1:
 247              		.size	USBUART_GetInterfaceComPort, .-USBUART_GetInterfaceComPort
 248              		.section	.text.USBUART_CDC_Init,"ax",%progbits
 249              		.align	2
 250              		.global	USBUART_CDC_Init
 251              		.thumb
 252              		.thumb_func
 253              		.type	USBUART_CDC_Init, %function
 254              	USBUART_CDC_Init:
 255              	.LFB2:
 259:Generated_Source\PSoC5/USBUART_cdc.c **** 
 260:Generated_Source\PSoC5/USBUART_cdc.c **** 
 261:Generated_Source\PSoC5/USBUART_cdc.c **** /***************************************
 262:Generated_Source\PSoC5/USBUART_cdc.c **** * Optional CDC APIs
 263:Generated_Source\PSoC5/USBUART_cdc.c **** ***************************************/
 264:Generated_Source\PSoC5/USBUART_cdc.c **** #if (USBUART_ENABLE_CDC_CLASS_API != 0u)
 265:Generated_Source\PSoC5/USBUART_cdc.c **** /***************************************************************************
 266:Generated_Source\PSoC5/USBUART_cdc.c **** * Function Name: USBUART_CDC_Init
 267:Generated_Source\PSoC5/USBUART_cdc.c **** ************************************************************************//**
 268:Generated_Source\PSoC5/USBUART_cdc.c **** *
 269:Generated_Source\PSoC5/USBUART_cdc.c **** *  This function initializes the CDC interface to be ready to receive data
 270:Generated_Source\PSoC5/USBUART_cdc.c **** *  from the PC. The API set active communication port to 0 in the case of 
 271:Generated_Source\PSoC5/USBUART_cdc.c **** *  multiple communication port support.This API should be called after the 
 272:Generated_Source\PSoC5/USBUART_cdc.c **** *  device has been started and configured using USBUART_Start() API to 
 273:Generated_Source\PSoC5/USBUART_cdc.c **** *  initialize and start the USBFS component operation. Then call the 
 274:Generated_Source\PSoC5/USBUART_cdc.c **** *  USBUART_GetConfiguration() API to wait until the host has enumerated and 
 275:Generated_Source\PSoC5/USBUART_cdc.c **** *  configured the device. For example:
 276:Generated_Source\PSoC5/USBUART_cdc.c **** *
 277:Generated_Source\PSoC5/USBUART_cdc.c **** *  \snippet /USBFS_sut_02.cydsn/main.c wait for enumeration
ARM GAS  C:\Users\ingan\AppData\Local\Temp\cc00nNWn.s 			page 11


 278:Generated_Source\PSoC5/USBUART_cdc.c **** *
 279:Generated_Source\PSoC5/USBUART_cdc.c **** * \return
 280:Generated_Source\PSoC5/USBUART_cdc.c **** *  cystatus:
 281:Generated_Source\PSoC5/USBUART_cdc.c **** *   Return Value    Description
 282:Generated_Source\PSoC5/USBUART_cdc.c **** *   USBUART_SUCCESS   CDC interface was initialized correctly
 283:Generated_Source\PSoC5/USBUART_cdc.c **** *   USBUART_FAILURE   CDC interface was not initialized
 284:Generated_Source\PSoC5/USBUART_cdc.c **** *
 285:Generated_Source\PSoC5/USBUART_cdc.c **** * \globalvars
 286:Generated_Source\PSoC5/USBUART_cdc.c **** *   USBUART_linesChanged: Initialized to zero.
 287:Generated_Source\PSoC5/USBUART_cdc.c **** *   USBUART_cdcDataOutEp: Used as an OUT endpoint number.
 288:Generated_Source\PSoC5/USBUART_cdc.c **** *
 289:Generated_Source\PSoC5/USBUART_cdc.c **** * \reentrant
 290:Generated_Source\PSoC5/USBUART_cdc.c **** *  No.
 291:Generated_Source\PSoC5/USBUART_cdc.c **** *
 292:Generated_Source\PSoC5/USBUART_cdc.c **** *******************************************************************************/
 293:Generated_Source\PSoC5/USBUART_cdc.c **** uint8 USBUART_CDC_Init(void) 
 294:Generated_Source\PSoC5/USBUART_cdc.c **** {
 256              		.loc 1 294 0
 257              		.cfi_startproc
 258              		@ args = 0, pretend = 0, frame = 0
 259              		@ frame_needed = 0, uses_anonymous_args = 0
 260              	.LVL22:
 261 0000 10B5     		push	{r4, lr}
 262              		.cfi_def_cfa_offset 8
 263              		.cfi_offset 4, -8
 264              		.cfi_offset 14, -4
 295:Generated_Source\PSoC5/USBUART_cdc.c ****     uint8 comPort;
 296:Generated_Source\PSoC5/USBUART_cdc.c ****     uint8 outEp;
 297:Generated_Source\PSoC5/USBUART_cdc.c ****     uint8 ret = USBUART_SUCCESS;
 298:Generated_Source\PSoC5/USBUART_cdc.c **** 
 299:Generated_Source\PSoC5/USBUART_cdc.c ****     USBUART_activeCom = 0u;
 300:Generated_Source\PSoC5/USBUART_cdc.c ****     USBUART_linesChanged[USBUART_COM_PORT1] = 0u;
 265              		.loc 1 300 0
 266 0002 174A     		ldr	r2, .L39
 299:Generated_Source\PSoC5/USBUART_cdc.c ****     USBUART_linesChanged[USBUART_COM_PORT1] = 0u;
 267              		.loc 1 299 0
 268 0004 0023     		movs	r3, #0
 301:Generated_Source\PSoC5/USBUART_cdc.c ****     USBUART_linesChanged[USBUART_COM_PORT2] = 0u;
 302:Generated_Source\PSoC5/USBUART_cdc.c **** 
 303:Generated_Source\PSoC5/USBUART_cdc.c ****     for(comPort = 0u; comPort<USBUART_MAX_MULTI_COM_NUM; comPort++)
 304:Generated_Source\PSoC5/USBUART_cdc.c ****     {
 305:Generated_Source\PSoC5/USBUART_cdc.c ****         outEp = USBUART_cdcDataOutEp[comPort];
 269              		.loc 1 305 0
 270 0006 174C     		ldr	r4, .L39+4
 300:Generated_Source\PSoC5/USBUART_cdc.c ****     USBUART_linesChanged[USBUART_COM_PORT2] = 0u;
 271              		.loc 1 300 0
 272 0008 1370     		strb	r3, [r2]
 301:Generated_Source\PSoC5/USBUART_cdc.c ****     USBUART_linesChanged[USBUART_COM_PORT2] = 0u;
 273              		.loc 1 301 0
 274 000a 5370     		strb	r3, [r2, #1]
 275              	.LVL23:
 276              		.loc 1 305 0
 277 000c 2078     		ldrb	r0, [r4]	@ zero_extendqisi2
 299:Generated_Source\PSoC5/USBUART_cdc.c ****     USBUART_linesChanged[USBUART_COM_PORT1] = 0u;
 278              		.loc 1 299 0
 279 000e 1649     		ldr	r1, .L39+8
 280              		.loc 1 305 0
ARM GAS  C:\Users\ingan\AppData\Local\Temp\cc00nNWn.s 			page 12


 281 0010 C0B2     		uxtb	r0, r0
 282              	.LVL24:
 306:Generated_Source\PSoC5/USBUART_cdc.c ****         if((0u != outEp) && (USBUART_MAX_EP > outEp))
 283              		.loc 1 306 0
 284 0012 421E     		subs	r2, r0, #1
 285 0014 072A     		cmp	r2, #7
 299:Generated_Source\PSoC5/USBUART_cdc.c ****     USBUART_linesChanged[USBUART_COM_PORT1] = 0u;
 286              		.loc 1 299 0
 287 0016 0B70     		strb	r3, [r1]
 288              		.loc 1 306 0
 289 0018 1FD9     		bls	.L36
 290              	.LVL25:
 291              	.L27:
 305:Generated_Source\PSoC5/USBUART_cdc.c ****         if((0u != outEp) && (USBUART_MAX_EP > outEp))
 292              		.loc 1 305 0
 293 001a 6078     		ldrb	r0, [r4, #1]	@ zero_extendqisi2
 294 001c C0B2     		uxtb	r0, r0
 295              	.LVL26:
 296              		.loc 1 306 0
 297 001e 431E     		subs	r3, r0, #1
 298 0020 072B     		cmp	r3, #7
 299 0022 17D9     		bls	.L37
 300              	.LVL27:
 301              	.L28:
 307:Generated_Source\PSoC5/USBUART_cdc.c ****         {
 308:Generated_Source\PSoC5/USBUART_cdc.c ****             USBUART_EnableOutEP(outEp);
 309:Generated_Source\PSoC5/USBUART_cdc.c ****         }
 310:Generated_Source\PSoC5/USBUART_cdc.c **** 
 311:Generated_Source\PSoC5/USBUART_cdc.c ****     }
 312:Generated_Source\PSoC5/USBUART_cdc.c **** 
 313:Generated_Source\PSoC5/USBUART_cdc.c ****     /* COM Port 1 should be correct to proceed. */
 314:Generated_Source\PSoC5/USBUART_cdc.c ****     if ((0u == USBUART_cdcDataInEp[USBUART_COM_PORT1]) \
 302              		.loc 1 314 0
 303 0024 114B     		ldr	r3, .L39+12
 304 0026 1A78     		ldrb	r2, [r3]	@ zero_extendqisi2
 305 0028 12B1     		cbz	r2, .L34
 315:Generated_Source\PSoC5/USBUART_cdc.c ****             || (0u == USBUART_cdcDataOutEp[USBUART_COM_PORT1]) \
 306              		.loc 1 315 0
 307 002a 2278     		ldrb	r2, [r4]	@ zero_extendqisi2
 308 002c 0D49     		ldr	r1, .L39+4
 309 002e 0AB9     		cbnz	r2, .L38
 310              	.L34:
 316:Generated_Source\PSoC5/USBUART_cdc.c ****             || (0u ==  USBUART_cdcCommInInterruptEp[USBUART_COM_PORT1])
 317:Generated_Source\PSoC5/USBUART_cdc.c ****             || (USBUART_cdcDataInEp[USBUART_COM_PORT1] >= USBUART_MAX_EP)
 318:Generated_Source\PSoC5/USBUART_cdc.c ****             || (USBUART_cdcDataOutEp[USBUART_COM_PORT1] >= USBUART_MAX_EP)
 319:Generated_Source\PSoC5/USBUART_cdc.c ****             || (USBUART_cdcCommInInterruptEp[USBUART_COM_PORT1] >= USBUART_MAX_EP))
 320:Generated_Source\PSoC5/USBUART_cdc.c ****     {
 321:Generated_Source\PSoC5/USBUART_cdc.c ****         ret = USBUART_FAILURE;
 311              		.loc 1 321 0
 312 0030 0120     		movs	r0, #1
 313              	.LVL28:
 322:Generated_Source\PSoC5/USBUART_cdc.c ****     }
 323:Generated_Source\PSoC5/USBUART_cdc.c **** 
 324:Generated_Source\PSoC5/USBUART_cdc.c ****     return (ret);
 325:Generated_Source\PSoC5/USBUART_cdc.c **** }
 314              		.loc 1 325 0
 315 0032 10BD     		pop	{r4, pc}
ARM GAS  C:\Users\ingan\AppData\Local\Temp\cc00nNWn.s 			page 13


 316              	.LVL29:
 317              	.L38:
 316:Generated_Source\PSoC5/USBUART_cdc.c ****             || (0u ==  USBUART_cdcCommInInterruptEp[USBUART_COM_PORT1])
 318              		.loc 1 316 0
 319 0034 0E4A     		ldr	r2, .L39+16
 320 0036 1078     		ldrb	r0, [r2]	@ zero_extendqisi2
 321 0038 0028     		cmp	r0, #0
 322 003a F9D0     		beq	.L34
 317:Generated_Source\PSoC5/USBUART_cdc.c ****             || (USBUART_cdcDataOutEp[USBUART_COM_PORT1] >= USBUART_MAX_EP)
 323              		.loc 1 317 0
 324 003c 1B78     		ldrb	r3, [r3]	@ zero_extendqisi2
 325 003e 082B     		cmp	r3, #8
 326 0040 F6D8     		bhi	.L34
 318:Generated_Source\PSoC5/USBUART_cdc.c ****             || (USBUART_cdcCommInInterruptEp[USBUART_COM_PORT1] >= USBUART_MAX_EP))
 327              		.loc 1 318 0
 328 0042 0B78     		ldrb	r3, [r1]	@ zero_extendqisi2
 329 0044 082B     		cmp	r3, #8
 330 0046 F3D8     		bhi	.L34
 319:Generated_Source\PSoC5/USBUART_cdc.c ****     {
 331              		.loc 1 319 0
 332 0048 1078     		ldrb	r0, [r2]	@ zero_extendqisi2
 297:Generated_Source\PSoC5/USBUART_cdc.c **** 
 333              		.loc 1 297 0
 334 004a 0828     		cmp	r0, #8
 335 004c 94BF     		ite	ls
 336 004e 0020     		movls	r0, #0
 337 0050 0120     		movhi	r0, #1
 338 0052 10BD     		pop	{r4, pc}
 339              	.LVL30:
 340              	.L37:
 308:Generated_Source\PSoC5/USBUART_cdc.c ****         }
 341              		.loc 1 308 0
 342 0054 FFF7FEFF 		bl	USBUART_EnableOutEP
 343              	.LVL31:
 344 0058 E4E7     		b	.L28
 345              	.LVL32:
 346              	.L36:
 347 005a FFF7FEFF 		bl	USBUART_EnableOutEP
 348              	.LVL33:
 349 005e DCE7     		b	.L27
 350              	.L40:
 351              		.align	2
 352              	.L39:
 353 0060 00000000 		.word	USBUART_linesChanged
 354 0064 00000000 		.word	USBUART_cdcDataOutEp
 355 0068 00000000 		.word	.LANCHOR1
 356 006c 00000000 		.word	USBUART_cdcDataInEp
 357 0070 00000000 		.word	USBUART_cdcCommInInterruptEp
 358              		.cfi_endproc
 359              	.LFE2:
 360              		.size	USBUART_CDC_Init, .-USBUART_CDC_Init
 361              		.section	.text.USBUART_PutData,"ax",%progbits
 362              		.align	2
 363              		.global	USBUART_PutData
 364              		.thumb
 365              		.thumb_func
 366              		.type	USBUART_PutData, %function
ARM GAS  C:\Users\ingan\AppData\Local\Temp\cc00nNWn.s 			page 14


 367              	USBUART_PutData:
 368              	.LFB3:
 326:Generated_Source\PSoC5/USBUART_cdc.c **** 
 327:Generated_Source\PSoC5/USBUART_cdc.c **** 
 328:Generated_Source\PSoC5/USBUART_cdc.c **** /*******************************************************************************
 329:Generated_Source\PSoC5/USBUART_cdc.c **** * Function Name: USBUART_PutData
 330:Generated_Source\PSoC5/USBUART_cdc.c **** ****************************************************************************//**
 331:Generated_Source\PSoC5/USBUART_cdc.c **** *
 332:Generated_Source\PSoC5/USBUART_cdc.c **** *  This function sends a specified number of bytes from the location specified
 333:Generated_Source\PSoC5/USBUART_cdc.c **** *  by a pointer to the PC. The USBUART_CDCIsReady() function should be
 334:Generated_Source\PSoC5/USBUART_cdc.c **** *  called before sending new data, to be sure that the previous data has
 335:Generated_Source\PSoC5/USBUART_cdc.c **** *  finished sending.
 336:Generated_Source\PSoC5/USBUART_cdc.c **** *  If the last sent packet is less than maximum packet size the USB transfer
 337:Generated_Source\PSoC5/USBUART_cdc.c **** *  of this short packet will identify the end of the segment. If the last sent
 338:Generated_Source\PSoC5/USBUART_cdc.c **** *  packet is exactly maximum packet size, it shall be followed by a zero-length
 339:Generated_Source\PSoC5/USBUART_cdc.c **** *  packet (which is a short packet) to assure the end of segment is properly
 340:Generated_Source\PSoC5/USBUART_cdc.c **** *  identified. To send zero-length packet, use USBUART_PutData() API
 341:Generated_Source\PSoC5/USBUART_cdc.c **** *  with length parameter set to zero.
 342:Generated_Source\PSoC5/USBUART_cdc.c **** *
 343:Generated_Source\PSoC5/USBUART_cdc.c **** *  \param pData: pointer to the buffer containing data to be sent.
 344:Generated_Source\PSoC5/USBUART_cdc.c **** *  \param length: Specifies the number of bytes to send from the pData
 345:Generated_Source\PSoC5/USBUART_cdc.c **** *  buffer. Maximum length will be limited by the maximum packet
 346:Generated_Source\PSoC5/USBUART_cdc.c **** *  size for the endpoint. Data will be lost if length is greater than Max
 347:Generated_Source\PSoC5/USBUART_cdc.c **** *  Packet Size.
 348:Generated_Source\PSoC5/USBUART_cdc.c **** *
 349:Generated_Source\PSoC5/USBUART_cdc.c **** * \globalvars
 350:Generated_Source\PSoC5/USBUART_cdc.c **** *
 351:Generated_Source\PSoC5/USBUART_cdc.c **** *   USBUART_cdcDataInEp: CDC IN endpoint number used for sending
 352:Generated_Source\PSoC5/USBUART_cdc.c **** *     data.
 353:Generated_Source\PSoC5/USBUART_cdc.c **** *
 354:Generated_Source\PSoC5/USBUART_cdc.c **** * \reentrant
 355:Generated_Source\PSoC5/USBUART_cdc.c **** *  No.
 356:Generated_Source\PSoC5/USBUART_cdc.c **** *
 357:Generated_Source\PSoC5/USBUART_cdc.c **** *******************************************************************************/
 358:Generated_Source\PSoC5/USBUART_cdc.c **** void USBUART_PutData(const uint8* pData, uint16 length) 
 359:Generated_Source\PSoC5/USBUART_cdc.c **** {
 369              		.loc 1 359 0
 370              		.cfi_startproc
 371              		@ args = 0, pretend = 0, frame = 0
 372              		@ frame_needed = 0, uses_anonymous_args = 0
 373              		@ link register save eliminated.
 374              	.LVL34:
 375 0000 0A46     		mov	r2, r1
 376 0002 30B4     		push	{r4, r5}
 377              		.cfi_def_cfa_offset 8
 378              		.cfi_offset 4, -8
 379              		.cfi_offset 5, -4
 360:Generated_Source\PSoC5/USBUART_cdc.c ****     uint8 epNumber = USBUART_cdcDataInEp[USBUART_activeCom];
 380              		.loc 1 360 0
 381 0004 0A4B     		ldr	r3, .L44
 382 0006 0B49     		ldr	r1, .L44+4
 383              	.LVL35:
 384 0008 1B78     		ldrb	r3, [r3]	@ zero_extendqisi2
 361:Generated_Source\PSoC5/USBUART_cdc.c **** 
 362:Generated_Source\PSoC5/USBUART_cdc.c ****     /* Limit length to maximum packet size for endpoint. */
 363:Generated_Source\PSoC5/USBUART_cdc.c ****     if (length > USBUART_EP[epNumber].bufferSize)
 385              		.loc 1 363 0
ARM GAS  C:\Users\ingan\AppData\Local\Temp\cc00nNWn.s 			page 15


 386 000a 0B4C     		ldr	r4, .L44+8
 360:Generated_Source\PSoC5/USBUART_cdc.c ****     uint8 epNumber = USBUART_cdcDataInEp[USBUART_activeCom];
 387              		.loc 1 360 0
 388 000c CB5C     		ldrb	r3, [r1, r3]	@ zero_extendqisi2
 359:Generated_Source\PSoC5/USBUART_cdc.c ****     uint8 epNumber = USBUART_cdcDataInEp[USBUART_activeCom];
 389              		.loc 1 359 0
 390 000e 0146     		mov	r1, r0
 360:Generated_Source\PSoC5/USBUART_cdc.c ****     uint8 epNumber = USBUART_cdcDataInEp[USBUART_activeCom];
 391              		.loc 1 360 0
 392 0010 DBB2     		uxtb	r3, r3
 393              	.LVL36:
 394              		.loc 1 363 0
 395 0012 03EB4300 		add	r0, r3, r3, lsl #1
 396              	.LVL37:
 397 0016 04EB8004 		add	r4, r4, r0, lsl #2
 398 001a 2589     		ldrh	r5, [r4, #8]
 364:Generated_Source\PSoC5/USBUART_cdc.c ****     {
 365:Generated_Source\PSoC5/USBUART_cdc.c ****         /* Caution: Data will be lost if length is greater than Max Packet Size. */
 366:Generated_Source\PSoC5/USBUART_cdc.c ****         length = USBUART_EP[epNumber].bufferSize;
 367:Generated_Source\PSoC5/USBUART_cdc.c **** 
 368:Generated_Source\PSoC5/USBUART_cdc.c ****         /* Halt CPU in debug mode */
 369:Generated_Source\PSoC5/USBUART_cdc.c ****         CYASSERT(0u != 0u);
 370:Generated_Source\PSoC5/USBUART_cdc.c ****     }
 371:Generated_Source\PSoC5/USBUART_cdc.c **** 
 372:Generated_Source\PSoC5/USBUART_cdc.c ****     USBUART_LoadInEP(epNumber, pData, length);
 399              		.loc 1 372 0
 400 001c 1846     		mov	r0, r3
 363:Generated_Source\PSoC5/USBUART_cdc.c ****     {
 401              		.loc 1 363 0
 402 001e ADB2     		uxth	r5, r5
 403 0020 9542     		cmp	r5, r2
 366:Generated_Source\PSoC5/USBUART_cdc.c **** 
 404              		.loc 1 366 0
 405 0022 38BF     		it	cc
 406 0024 2289     		ldrhcc	r2, [r4, #8]
 373:Generated_Source\PSoC5/USBUART_cdc.c **** }
 407              		.loc 1 373 0
 408 0026 30BC     		pop	{r4, r5}
 409              		.cfi_restore 5
 410              		.cfi_restore 4
 411              		.cfi_def_cfa_offset 0
 366:Generated_Source\PSoC5/USBUART_cdc.c **** 
 412              		.loc 1 366 0
 413 0028 38BF     		it	cc
 414 002a 92B2     		uxthcc	r2, r2
 415              	.LVL38:
 372:Generated_Source\PSoC5/USBUART_cdc.c **** }
 416              		.loc 1 372 0
 417 002c FFF7FEBF 		b	USBUART_LoadInEP
 418              	.LVL39:
 419              	.L45:
 420              		.align	2
 421              	.L44:
 422 0030 00000000 		.word	.LANCHOR1
 423 0034 00000000 		.word	USBUART_cdcDataInEp
 424 0038 00000000 		.word	USBUART_EP
 425              		.cfi_endproc
ARM GAS  C:\Users\ingan\AppData\Local\Temp\cc00nNWn.s 			page 16


 426              	.LFE3:
 427              		.size	USBUART_PutData, .-USBUART_PutData
 428              		.section	.text.USBUART_PutString,"ax",%progbits
 429              		.align	2
 430              		.global	USBUART_PutString
 431              		.thumb
 432              		.thumb_func
 433              		.type	USBUART_PutString, %function
 434              	USBUART_PutString:
 435              	.LFB5:
 374:Generated_Source\PSoC5/USBUART_cdc.c **** 
 375:Generated_Source\PSoC5/USBUART_cdc.c **** 
 376:Generated_Source\PSoC5/USBUART_cdc.c **** /*******************************************************************************
 377:Generated_Source\PSoC5/USBUART_cdc.c **** * Function Name: USBUART_StrLen
 378:Generated_Source\PSoC5/USBUART_cdc.c **** ****************************************************************************//**
 379:Generated_Source\PSoC5/USBUART_cdc.c **** *
 380:Generated_Source\PSoC5/USBUART_cdc.c **** *  Calculates length of a null terminated string.
 381:Generated_Source\PSoC5/USBUART_cdc.c **** *
 382:Generated_Source\PSoC5/USBUART_cdc.c **** *  \param string: pointer to the string.
 383:Generated_Source\PSoC5/USBUART_cdc.c **** *
 384:Generated_Source\PSoC5/USBUART_cdc.c **** * \return
 385:Generated_Source\PSoC5/USBUART_cdc.c **** *  Length of the string
 386:Generated_Source\PSoC5/USBUART_cdc.c **** *
 387:Generated_Source\PSoC5/USBUART_cdc.c **** *******************************************************************************/
 388:Generated_Source\PSoC5/USBUART_cdc.c **** static uint16 USBUART_StrLen(const char8 string[]) 
 389:Generated_Source\PSoC5/USBUART_cdc.c **** {
 390:Generated_Source\PSoC5/USBUART_cdc.c ****     uint16 len = 0u;
 391:Generated_Source\PSoC5/USBUART_cdc.c **** 
 392:Generated_Source\PSoC5/USBUART_cdc.c ****     while (string[len] != (char8)0)
 393:Generated_Source\PSoC5/USBUART_cdc.c ****     {
 394:Generated_Source\PSoC5/USBUART_cdc.c ****         len++;
 395:Generated_Source\PSoC5/USBUART_cdc.c ****     }
 396:Generated_Source\PSoC5/USBUART_cdc.c **** 
 397:Generated_Source\PSoC5/USBUART_cdc.c ****     return ((uint16) len);
 398:Generated_Source\PSoC5/USBUART_cdc.c **** }
 399:Generated_Source\PSoC5/USBUART_cdc.c **** 
 400:Generated_Source\PSoC5/USBUART_cdc.c **** 
 401:Generated_Source\PSoC5/USBUART_cdc.c **** /***************************************************************************
 402:Generated_Source\PSoC5/USBUART_cdc.c **** * Function Name: USBUART_PutString
 403:Generated_Source\PSoC5/USBUART_cdc.c **** ************************************************************************//**
 404:Generated_Source\PSoC5/USBUART_cdc.c **** *
 405:Generated_Source\PSoC5/USBUART_cdc.c **** *  This function sends a null terminated string to the PC. This function will
 406:Generated_Source\PSoC5/USBUART_cdc.c **** *  block if there is not enough memory to place the whole string. It will block
 407:Generated_Source\PSoC5/USBUART_cdc.c **** *  until the entire string has been written to the transmit buffer.
 408:Generated_Source\PSoC5/USBUART_cdc.c **** *  The USBUART_CDCIsReady() function should be called before
 409:Generated_Source\PSoC5/USBUART_cdc.c **** *  sending data with a new call to USBUART_PutString(), to be sure
 410:Generated_Source\PSoC5/USBUART_cdc.c **** *  that the previous data has finished sending. This function sends
 411:Generated_Source\PSoC5/USBUART_cdc.c **** *  zero-length packet automatically, if the length of the last packet, sent
 412:Generated_Source\PSoC5/USBUART_cdc.c **** *  by this API, is equal to Max Packet Size
 413:Generated_Source\PSoC5/USBUART_cdc.c **** *
 414:Generated_Source\PSoC5/USBUART_cdc.c **** *  \param string: pointer to the string to be sent to the PC.
 415:Generated_Source\PSoC5/USBUART_cdc.c **** *
 416:Generated_Source\PSoC5/USBUART_cdc.c **** * \globalvars
 417:Generated_Source\PSoC5/USBUART_cdc.c **** *
 418:Generated_Source\PSoC5/USBUART_cdc.c **** *   USBUART_cdcDataInEp: CDC IN endpoint number used for sending
 419:Generated_Source\PSoC5/USBUART_cdc.c **** *     data.
 420:Generated_Source\PSoC5/USBUART_cdc.c **** *
ARM GAS  C:\Users\ingan\AppData\Local\Temp\cc00nNWn.s 			page 17


 421:Generated_Source\PSoC5/USBUART_cdc.c **** * \reentrant
 422:Generated_Source\PSoC5/USBUART_cdc.c **** *  No.
 423:Generated_Source\PSoC5/USBUART_cdc.c **** *
 424:Generated_Source\PSoC5/USBUART_cdc.c **** ***************************************************************************/
 425:Generated_Source\PSoC5/USBUART_cdc.c **** void USBUART_PutString(const char8 string[]) 
 426:Generated_Source\PSoC5/USBUART_cdc.c **** {
 436              		.loc 1 426 0
 437              		.cfi_startproc
 438              		@ args = 0, pretend = 0, frame = 0
 439              		@ frame_needed = 0, uses_anonymous_args = 0
 440              	.LVL40:
 441 0000 2DE9F843 		push	{r3, r4, r5, r6, r7, r8, r9, lr}
 442              		.cfi_def_cfa_offset 32
 443              		.cfi_offset 3, -32
 444              		.cfi_offset 4, -28
 445              		.cfi_offset 5, -24
 446              		.cfi_offset 6, -20
 447              		.cfi_offset 7, -16
 448              		.cfi_offset 8, -12
 449              		.cfi_offset 9, -8
 450              		.cfi_offset 14, -4
 427:Generated_Source\PSoC5/USBUART_cdc.c ****     uint16 strLength;
 428:Generated_Source\PSoC5/USBUART_cdc.c ****     uint16 sendLength;
 429:Generated_Source\PSoC5/USBUART_cdc.c ****     uint16 bufIndex = 0u;
 430:Generated_Source\PSoC5/USBUART_cdc.c **** 
 431:Generated_Source\PSoC5/USBUART_cdc.c ****     uint8  epNumber = USBUART_cdcDataInEp[USBUART_activeCom];
 451              		.loc 1 431 0
 452 0004 224B     		ldr	r3, .L63
 453 0006 234A     		ldr	r2, .L63+4
 454 0008 1B78     		ldrb	r3, [r3]	@ zero_extendqisi2
 455              	.LBB14:
 456              	.LBB15:
 392:Generated_Source\PSoC5/USBUART_cdc.c ****     {
 457              		.loc 1 392 0
 458 000a 0478     		ldrb	r4, [r0]	@ zero_extendqisi2
 459              	.LBE15:
 460              	.LBE14:
 461              		.loc 1 431 0
 462 000c D75C     		ldrb	r7, [r2, r3]	@ zero_extendqisi2
 426:Generated_Source\PSoC5/USBUART_cdc.c ****     uint16 strLength;
 463              		.loc 1 426 0
 464 000e 8046     		mov	r8, r0
 465              		.loc 1 431 0
 466 0010 FFB2     		uxtb	r7, r7
 467              	.LVL41:
 468              	.LBB18:
 469              	.LBB16:
 392:Generated_Source\PSoC5/USBUART_cdc.c ****     {
 470              		.loc 1 392 0
 471 0012 34B1     		cbz	r4, .L47
 472 0014 0024     		movs	r4, #0
 473              	.LVL42:
 474              	.L48:
 394:Generated_Source\PSoC5/USBUART_cdc.c ****     }
 475              		.loc 1 394 0
 476 0016 0134     		adds	r4, r4, #1
 477              	.LVL43:
ARM GAS  C:\Users\ingan\AppData\Local\Temp\cc00nNWn.s 			page 18


 478 0018 A4B2     		uxth	r4, r4
 479              	.LVL44:
 392:Generated_Source\PSoC5/USBUART_cdc.c ****     {
 480              		.loc 1 392 0
 481 001a 18F80430 		ldrb	r3, [r8, r4]	@ zero_extendqisi2
 482 001e 002B     		cmp	r3, #0
 483 0020 F9D1     		bne	.L48
 484              	.LVL45:
 485              	.L47:
 486 0022 1D4B     		ldr	r3, .L63+8
 487              	.LBE16:
 488              	.LBE18:
 432:Generated_Source\PSoC5/USBUART_cdc.c **** 
 433:Generated_Source\PSoC5/USBUART_cdc.c ****     /* Get length string length (it is terminated with zero). */
 434:Generated_Source\PSoC5/USBUART_cdc.c ****     strLength = USBUART_StrLen(string);
 435:Generated_Source\PSoC5/USBUART_cdc.c **** 
 436:Generated_Source\PSoC5/USBUART_cdc.c ****     do
 437:Generated_Source\PSoC5/USBUART_cdc.c ****     {
 438:Generated_Source\PSoC5/USBUART_cdc.c ****         /* Limit length to maximum packet size of endpoint. */
 439:Generated_Source\PSoC5/USBUART_cdc.c ****         sendLength = (strLength > USBUART_EP[epNumber].bufferSize) ?
 489              		.loc 1 439 0
 490 0024 07EB4705 		add	r5, r7, r7, lsl #1
 491 0028 03EB8505 		add	r5, r3, r5, lsl #2
 492              	.LBB19:
 493              	.LBB17:
 390:Generated_Source\PSoC5/USBUART_cdc.c **** 
 494              		.loc 1 390 0
 495 002c 4FF00009 		mov	r9, #0
 496              	.LVL46:
 497              	.L53:
 498              	.LBE17:
 499              	.LBE19:
 500              		.loc 1 439 0
 501 0030 2B89     		ldrh	r3, [r5, #8]
 502 0032 9BB2     		uxth	r3, r3
 503 0034 9C42     		cmp	r4, r3
 504 0036 19D9     		bls	.L49
 505              		.loc 1 439 0 is_stmt 0 discriminator 1
 506 0038 2B89     		ldrh	r3, [r5, #8]
 440:Generated_Source\PSoC5/USBUART_cdc.c ****                                   USBUART_EP[epNumber].bufferSize : strLength;
 441:Generated_Source\PSoC5/USBUART_cdc.c **** 
 442:Generated_Source\PSoC5/USBUART_cdc.c ****         /* Load IN endpoint and expose it to host. */
 443:Generated_Source\PSoC5/USBUART_cdc.c ****         USBUART_LoadInEP(epNumber, (const uint8 *)&string[bufIndex], sendLength);
 507              		.loc 1 443 0 is_stmt 1 discriminator 1
 508 003a 08EB0901 		add	r1, r8, r9
 439:Generated_Source\PSoC5/USBUART_cdc.c ****                                   USBUART_EP[epNumber].bufferSize : strLength;
 509              		.loc 1 439 0 discriminator 1
 510 003e 9EB2     		uxth	r6, r3
 511              	.LVL47:
 444:Generated_Source\PSoC5/USBUART_cdc.c ****         strLength -= sendLength;
 512              		.loc 1 444 0 discriminator 1
 513 0040 A41B     		subs	r4, r4, r6
 514              	.LVL48:
 443:Generated_Source\PSoC5/USBUART_cdc.c ****         strLength -= sendLength;
 515              		.loc 1 443 0 discriminator 1
 516 0042 3246     		mov	r2, r6
 517 0044 3846     		mov	r0, r7
ARM GAS  C:\Users\ingan\AppData\Local\Temp\cc00nNWn.s 			page 19


 518              		.loc 1 444 0 discriminator 1
 519 0046 A4B2     		uxth	r4, r4
 443:Generated_Source\PSoC5/USBUART_cdc.c ****         strLength -= sendLength;
 520              		.loc 1 443 0 discriminator 1
 521 0048 FFF7FEFF 		bl	USBUART_LoadInEP
 522              	.LVL49:
 445:Generated_Source\PSoC5/USBUART_cdc.c **** 
 446:Generated_Source\PSoC5/USBUART_cdc.c ****         /* If more data are present to send or full packet was sent */
 447:Generated_Source\PSoC5/USBUART_cdc.c ****         if ((strLength > 0u) || (sendLength == USBUART_EP[epNumber].bufferSize))
 523              		.loc 1 447 0 discriminator 1
 524 004c ECB1     		cbz	r4, .L61
 525              	.LVL50:
 526              	.L50:
 448:Generated_Source\PSoC5/USBUART_cdc.c ****         {
 449:Generated_Source\PSoC5/USBUART_cdc.c ****             bufIndex += sendLength;
 527              		.loc 1 449 0
 528 004e 4E44     		add	r6, r6, r9
 529 0050 1FFA86F9 		uxth	r9, r6
 530              	.LVL51:
 531              	.L52:
 450:Generated_Source\PSoC5/USBUART_cdc.c **** 
 451:Generated_Source\PSoC5/USBUART_cdc.c ****             /* Wait until host read data from IN endpoint buffer. */
 452:Generated_Source\PSoC5/USBUART_cdc.c ****             while (USBUART_IN_BUFFER_FULL == USBUART_EP[epNumber].apiEpState)
 532              		.loc 1 452 0 discriminator 1
 533 0054 6B78     		ldrb	r3, [r5, #1]	@ zero_extendqisi2
 534 0056 002B     		cmp	r3, #0
 535 0058 FCD0     		beq	.L52
 453:Generated_Source\PSoC5/USBUART_cdc.c ****             {
 454:Generated_Source\PSoC5/USBUART_cdc.c ****             }
 455:Generated_Source\PSoC5/USBUART_cdc.c **** 
 456:Generated_Source\PSoC5/USBUART_cdc.c ****             /* If last packet is exactly maximum packet size, it shall be followed
 457:Generated_Source\PSoC5/USBUART_cdc.c ****             * by a zero-length packet to assure the end of segment is properly
 458:Generated_Source\PSoC5/USBUART_cdc.c ****             * identified by the terminal.
 459:Generated_Source\PSoC5/USBUART_cdc.c ****             */
 460:Generated_Source\PSoC5/USBUART_cdc.c ****             if (0u == strLength)
 536              		.loc 1 460 0
 537 005a 002C     		cmp	r4, #0
 538 005c E8D1     		bne	.L53
 461:Generated_Source\PSoC5/USBUART_cdc.c ****             {
 462:Generated_Source\PSoC5/USBUART_cdc.c ****                 USBUART_LoadInEP(epNumber, NULL, 0u);
 539              		.loc 1 462 0
 540 005e 3846     		mov	r0, r7
 541 0060 2246     		mov	r2, r4
 542 0062 2146     		mov	r1, r4
 463:Generated_Source\PSoC5/USBUART_cdc.c ****             }
 464:Generated_Source\PSoC5/USBUART_cdc.c ****         }
 465:Generated_Source\PSoC5/USBUART_cdc.c ****     }
 466:Generated_Source\PSoC5/USBUART_cdc.c ****     while (strLength > 0u);
 467:Generated_Source\PSoC5/USBUART_cdc.c **** }
 543              		.loc 1 467 0
 544 0064 BDE8F843 		pop	{r3, r4, r5, r6, r7, r8, r9, lr}
 545              		.cfi_remember_state
 546              		.cfi_restore 14
 547              		.cfi_restore 9
 548              		.cfi_restore 8
 549              		.cfi_restore 7
 550              		.cfi_restore 6
ARM GAS  C:\Users\ingan\AppData\Local\Temp\cc00nNWn.s 			page 20


 551              		.cfi_restore 5
 552              		.cfi_restore 4
 553              		.cfi_restore 3
 554              		.cfi_def_cfa_offset 0
 555              	.LVL52:
 462:Generated_Source\PSoC5/USBUART_cdc.c ****             }
 556              		.loc 1 462 0
 557 0068 FFF7FEBF 		b	USBUART_LoadInEP
 558              	.LVL53:
 559              	.L49:
 560              		.cfi_restore_state
 443:Generated_Source\PSoC5/USBUART_cdc.c ****         strLength -= sendLength;
 561              		.loc 1 443 0
 562 006c 2246     		mov	r2, r4
 563 006e 08EB0901 		add	r1, r8, r9
 564 0072 3846     		mov	r0, r7
 565 0074 FFF7FEFF 		bl	USBUART_LoadInEP
 566              	.LVL54:
 567              	.L54:
 447:Generated_Source\PSoC5/USBUART_cdc.c ****         {
 568              		.loc 1 447 0 discriminator 1
 569 0078 2B89     		ldrh	r3, [r5, #8]
 570 007a 9BB2     		uxth	r3, r3
 571 007c A342     		cmp	r3, r4
 572 007e 01D0     		beq	.L62
 573 0080 BDE8F883 		pop	{r3, r4, r5, r6, r7, r8, r9, pc}
 574              	.LVL55:
 575              	.L62:
 576 0084 2646     		mov	r6, r4
 577 0086 0024     		movs	r4, #0
 578              	.LVL56:
 579 0088 E1E7     		b	.L50
 580              	.LVL57:
 581              	.L61:
 439:Generated_Source\PSoC5/USBUART_cdc.c ****                                   USBUART_EP[epNumber].bufferSize : strLength;
 582              		.loc 1 439 0
 583 008a 3446     		mov	r4, r6
 584              	.LVL58:
 585 008c F4E7     		b	.L54
 586              	.L64:
 587 008e 00BF     		.align	2
 588              	.L63:
 589 0090 00000000 		.word	.LANCHOR1
 590 0094 00000000 		.word	USBUART_cdcDataInEp
 591 0098 00000000 		.word	USBUART_EP
 592              		.cfi_endproc
 593              	.LFE5:
 594              		.size	USBUART_PutString, .-USBUART_PutString
 595              		.section	.text.USBUART_PutChar,"ax",%progbits
 596              		.align	2
 597              		.global	USBUART_PutChar
 598              		.thumb
 599              		.thumb_func
 600              		.type	USBUART_PutChar, %function
 601              	USBUART_PutChar:
 602              	.LFB6:
 468:Generated_Source\PSoC5/USBUART_cdc.c **** 
ARM GAS  C:\Users\ingan\AppData\Local\Temp\cc00nNWn.s 			page 21


 469:Generated_Source\PSoC5/USBUART_cdc.c **** 
 470:Generated_Source\PSoC5/USBUART_cdc.c **** /***************************************************************************
 471:Generated_Source\PSoC5/USBUART_cdc.c **** * Function Name: USBUART_PutChar
 472:Generated_Source\PSoC5/USBUART_cdc.c **** ************************************************************************//**
 473:Generated_Source\PSoC5/USBUART_cdc.c **** *
 474:Generated_Source\PSoC5/USBUART_cdc.c **** *  This function writes a single character to the PC at a time. This is an
 475:Generated_Source\PSoC5/USBUART_cdc.c **** *  inefficient way to send large amounts of data.
 476:Generated_Source\PSoC5/USBUART_cdc.c **** *
 477:Generated_Source\PSoC5/USBUART_cdc.c **** *  \param txDataByte: Character to be sent to the PC.
 478:Generated_Source\PSoC5/USBUART_cdc.c **** *
 479:Generated_Source\PSoC5/USBUART_cdc.c **** *  \globalvars
 480:Generated_Source\PSoC5/USBUART_cdc.c **** *
 481:Generated_Source\PSoC5/USBUART_cdc.c **** *   USBUART_cdcDataInEp: CDC IN endpoint number used for sending
 482:Generated_Source\PSoC5/USBUART_cdc.c **** *     data.
 483:Generated_Source\PSoC5/USBUART_cdc.c **** *
 484:Generated_Source\PSoC5/USBUART_cdc.c **** *  \reentrant
 485:Generated_Source\PSoC5/USBUART_cdc.c **** *  No.
 486:Generated_Source\PSoC5/USBUART_cdc.c **** *
 487:Generated_Source\PSoC5/USBUART_cdc.c **** ***************************************************************************/
 488:Generated_Source\PSoC5/USBUART_cdc.c **** void USBUART_PutChar(char8 txDataByte) 
 489:Generated_Source\PSoC5/USBUART_cdc.c **** {
 603              		.loc 1 489 0
 604              		.cfi_startproc
 605              		@ args = 0, pretend = 0, frame = 8
 606              		@ frame_needed = 0, uses_anonymous_args = 0
 607              	.LVL59:
 608 0000 00B5     		push	{lr}
 609              		.cfi_def_cfa_offset 4
 610              		.cfi_offset 14, -4
 490:Generated_Source\PSoC5/USBUART_cdc.c ****     uint8 dataByte;
 491:Generated_Source\PSoC5/USBUART_cdc.c ****     dataByte = (uint8) txDataByte;
 492:Generated_Source\PSoC5/USBUART_cdc.c **** 
 493:Generated_Source\PSoC5/USBUART_cdc.c ****     USBUART_LoadInEP(USBUART_cdcDataInEp[USBUART_activeCom], &dataByte, 1u);
 611              		.loc 1 493 0
 612 0002 074B     		ldr	r3, .L67
 489:Generated_Source\PSoC5/USBUART_cdc.c ****     uint8 dataByte;
 613              		.loc 1 489 0
 614 0004 83B0     		sub	sp, sp, #12
 615              		.cfi_def_cfa_offset 16
 616              		.loc 1 493 0
 617 0006 1B78     		ldrb	r3, [r3]	@ zero_extendqisi2
 618 0008 064A     		ldr	r2, .L67+4
 491:Generated_Source\PSoC5/USBUART_cdc.c **** 
 619              		.loc 1 491 0
 620 000a 02A9     		add	r1, sp, #8
 621 000c 01F8010D 		strb	r0, [r1, #-1]!
 622              		.loc 1 493 0
 623 0010 D05C     		ldrb	r0, [r2, r3]	@ zero_extendqisi2
 624              	.LVL60:
 625 0012 0122     		movs	r2, #1
 626 0014 FFF7FEFF 		bl	USBUART_LoadInEP
 627              	.LVL61:
 494:Generated_Source\PSoC5/USBUART_cdc.c **** }
 628              		.loc 1 494 0
 629 0018 03B0     		add	sp, sp, #12
 630              		.cfi_def_cfa_offset 4
 631              		@ sp needed
ARM GAS  C:\Users\ingan\AppData\Local\Temp\cc00nNWn.s 			page 22


 632 001a 5DF804FB 		ldr	pc, [sp], #4
 633              	.L68:
 634 001e 00BF     		.align	2
 635              	.L67:
 636 0020 00000000 		.word	.LANCHOR1
 637 0024 00000000 		.word	USBUART_cdcDataInEp
 638              		.cfi_endproc
 639              	.LFE6:
 640              		.size	USBUART_PutChar, .-USBUART_PutChar
 641              		.section	.text.USBUART_PutCRLF,"ax",%progbits
 642              		.align	2
 643              		.global	USBUART_PutCRLF
 644              		.thumb
 645              		.thumb_func
 646              		.type	USBUART_PutCRLF, %function
 647              	USBUART_PutCRLF:
 648              	.LFB7:
 495:Generated_Source\PSoC5/USBUART_cdc.c **** 
 496:Generated_Source\PSoC5/USBUART_cdc.c **** 
 497:Generated_Source\PSoC5/USBUART_cdc.c **** /*******************************************************************************
 498:Generated_Source\PSoC5/USBUART_cdc.c **** * Function Name: USBUART_PutCRLF
 499:Generated_Source\PSoC5/USBUART_cdc.c **** ****************************************************************************//**
 500:Generated_Source\PSoC5/USBUART_cdc.c **** *
 501:Generated_Source\PSoC5/USBUART_cdc.c **** *  This function sends a carriage return (0x0D) and line feed (0x0A) to the
 502:Generated_Source\PSoC5/USBUART_cdc.c **** *  PC. This APIis provided to mimic API provided by our other UART components
 503:Generated_Source\PSoC5/USBUART_cdc.c **** *
 504:Generated_Source\PSoC5/USBUART_cdc.c **** * \globalvars
 505:Generated_Source\PSoC5/USBUART_cdc.c **** *
 506:Generated_Source\PSoC5/USBUART_cdc.c **** *   USBUART_cdcDataInEp: CDC IN endpoint number used for sending
 507:Generated_Source\PSoC5/USBUART_cdc.c **** *     data.
 508:Generated_Source\PSoC5/USBUART_cdc.c **** *
 509:Generated_Source\PSoC5/USBUART_cdc.c **** * \reentrant
 510:Generated_Source\PSoC5/USBUART_cdc.c **** *  No.
 511:Generated_Source\PSoC5/USBUART_cdc.c **** *
 512:Generated_Source\PSoC5/USBUART_cdc.c **** *******************************************************************************/
 513:Generated_Source\PSoC5/USBUART_cdc.c **** void USBUART_PutCRLF(void) 
 514:Generated_Source\PSoC5/USBUART_cdc.c **** {
 649              		.loc 1 514 0
 650              		.cfi_startproc
 651              		@ args = 0, pretend = 0, frame = 8
 652              		@ frame_needed = 0, uses_anonymous_args = 0
 653 0000 00B5     		push	{lr}
 654              		.cfi_def_cfa_offset 4
 655              		.cfi_offset 14, -4
 515:Generated_Source\PSoC5/USBUART_cdc.c ****     const uint8 CYCODE txData[] = {0x0Du, 0x0Au};
 516:Generated_Source\PSoC5/USBUART_cdc.c **** 
 517:Generated_Source\PSoC5/USBUART_cdc.c ****     USBUART_LoadInEP(USBUART_cdcDataInEp[USBUART_activeCom], (const uint8 *)txData, 2u);
 656              		.loc 1 517 0
 657 0002 084B     		ldr	r3, .L71
 658 0004 0849     		ldr	r1, .L71+4
 659 0006 1A78     		ldrb	r2, [r3]	@ zero_extendqisi2
 515:Generated_Source\PSoC5/USBUART_cdc.c ****     const uint8 CYCODE txData[] = {0x0Du, 0x0Au};
 660              		.loc 1 515 0
 661 0008 084B     		ldr	r3, .L71+8
 514:Generated_Source\PSoC5/USBUART_cdc.c ****     const uint8 CYCODE txData[] = {0x0Du, 0x0Au};
 662              		.loc 1 514 0
 663 000a 83B0     		sub	sp, sp, #12
ARM GAS  C:\Users\ingan\AppData\Local\Temp\cc00nNWn.s 			page 23


 664              		.cfi_def_cfa_offset 16
 515:Generated_Source\PSoC5/USBUART_cdc.c ****     const uint8 CYCODE txData[] = {0x0Du, 0x0Au};
 665              		.loc 1 515 0
 666 000c 1B88     		ldrh	r3, [r3]	@ unaligned
 667              		.loc 1 517 0
 668 000e 885C     		ldrb	r0, [r1, r2]	@ zero_extendqisi2
 669 0010 0222     		movs	r2, #2
 670 0012 01A9     		add	r1, sp, #4
 515:Generated_Source\PSoC5/USBUART_cdc.c ****     const uint8 CYCODE txData[] = {0x0Du, 0x0Au};
 671              		.loc 1 515 0
 672 0014 ADF80430 		strh	r3, [sp, #4]	@ unaligned
 673              		.loc 1 517 0
 674 0018 FFF7FEFF 		bl	USBUART_LoadInEP
 675              	.LVL62:
 518:Generated_Source\PSoC5/USBUART_cdc.c **** }
 676              		.loc 1 518 0
 677 001c 03B0     		add	sp, sp, #12
 678              		.cfi_def_cfa_offset 4
 679              		@ sp needed
 680 001e 5DF804FB 		ldr	pc, [sp], #4
 681              	.L72:
 682 0022 00BF     		.align	2
 683              	.L71:
 684 0024 00000000 		.word	.LANCHOR1
 685 0028 00000000 		.word	USBUART_cdcDataInEp
 686 002c 00000000 		.word	.LANCHOR2
 687              		.cfi_endproc
 688              	.LFE7:
 689              		.size	USBUART_PutCRLF, .-USBUART_PutCRLF
 690              		.section	.text.USBUART_GetCount,"ax",%progbits
 691              		.align	2
 692              		.global	USBUART_GetCount
 693              		.thumb
 694              		.thumb_func
 695              		.type	USBUART_GetCount, %function
 696              	USBUART_GetCount:
 697              	.LFB8:
 519:Generated_Source\PSoC5/USBUART_cdc.c **** 
 520:Generated_Source\PSoC5/USBUART_cdc.c **** 
 521:Generated_Source\PSoC5/USBUART_cdc.c **** /*******************************************************************************
 522:Generated_Source\PSoC5/USBUART_cdc.c **** * Function Name: USBUART_GetCount
 523:Generated_Source\PSoC5/USBUART_cdc.c **** ****************************************************************************//**
 524:Generated_Source\PSoC5/USBUART_cdc.c **** *
 525:Generated_Source\PSoC5/USBUART_cdc.c **** *  This function returns the number of bytes that were received from the PC.
 526:Generated_Source\PSoC5/USBUART_cdc.c **** *  The returned length value should be passed to USBUART_GetData() as
 527:Generated_Source\PSoC5/USBUART_cdc.c **** *  a parameter to read all received data. If all of the received data is not
 528:Generated_Source\PSoC5/USBUART_cdc.c **** *  read at one time by the USBUART_GetData() API, the unread data will
 529:Generated_Source\PSoC5/USBUART_cdc.c **** *  be lost.
 530:Generated_Source\PSoC5/USBUART_cdc.c **** *
 531:Generated_Source\PSoC5/USBUART_cdc.c **** * \return
 532:Generated_Source\PSoC5/USBUART_cdc.c **** *  Returns the number of received bytes. The maximum amount of received data at
 533:Generated_Source\PSoC5/USBUART_cdc.c **** *  a time is limited by the maximum packet size for the endpoint.
 534:Generated_Source\PSoC5/USBUART_cdc.c **** *
 535:Generated_Source\PSoC5/USBUART_cdc.c **** * \globalvars
 536:Generated_Source\PSoC5/USBUART_cdc.c **** *   USBUART_cdcDataOutEp: CDC OUT endpoint number used.
 537:Generated_Source\PSoC5/USBUART_cdc.c **** *
 538:Generated_Source\PSoC5/USBUART_cdc.c **** *******************************************************************************/
ARM GAS  C:\Users\ingan\AppData\Local\Temp\cc00nNWn.s 			page 24


 539:Generated_Source\PSoC5/USBUART_cdc.c **** uint16 USBUART_GetCount(void) 
 540:Generated_Source\PSoC5/USBUART_cdc.c **** {
 698              		.loc 1 540 0
 699              		.cfi_startproc
 700              		@ args = 0, pretend = 0, frame = 0
 701              		@ frame_needed = 0, uses_anonymous_args = 0
 702              		@ link register save eliminated.
 541:Generated_Source\PSoC5/USBUART_cdc.c ****     uint16 bytesCount;
 542:Generated_Source\PSoC5/USBUART_cdc.c **** 
 543:Generated_Source\PSoC5/USBUART_cdc.c ****     uint8  epNumber = USBUART_cdcDataOutEp[USBUART_activeCom];
 703              		.loc 1 543 0
 704 0000 084B     		ldr	r3, .L76
 705 0002 0949     		ldr	r1, .L76+4
 706 0004 1A78     		ldrb	r2, [r3]	@ zero_extendqisi2
 544:Generated_Source\PSoC5/USBUART_cdc.c **** 
 545:Generated_Source\PSoC5/USBUART_cdc.c ****     if (USBUART_OUT_BUFFER_FULL == USBUART_EP[epNumber].apiEpState)
 707              		.loc 1 545 0
 708 0006 094B     		ldr	r3, .L76+8
 543:Generated_Source\PSoC5/USBUART_cdc.c **** 
 709              		.loc 1 543 0
 710 0008 885C     		ldrb	r0, [r1, r2]	@ zero_extendqisi2
 711 000a C0B2     		uxtb	r0, r0
 712              	.LVL63:
 713              		.loc 1 545 0
 714 000c 00EB4002 		add	r2, r0, r0, lsl #1
 715 0010 03EB8203 		add	r3, r3, r2, lsl #2
 716 0014 5B78     		ldrb	r3, [r3, #1]	@ zero_extendqisi2
 717 0016 012B     		cmp	r3, #1
 718 0018 01D0     		beq	.L75
 719              	.LVL64:
 546:Generated_Source\PSoC5/USBUART_cdc.c ****     {
 547:Generated_Source\PSoC5/USBUART_cdc.c ****         bytesCount = USBUART_GetEPCount(epNumber);
 548:Generated_Source\PSoC5/USBUART_cdc.c ****     }
 549:Generated_Source\PSoC5/USBUART_cdc.c ****     else
 550:Generated_Source\PSoC5/USBUART_cdc.c ****     {
 551:Generated_Source\PSoC5/USBUART_cdc.c ****         bytesCount = 0u;
 552:Generated_Source\PSoC5/USBUART_cdc.c ****     }
 553:Generated_Source\PSoC5/USBUART_cdc.c **** 
 554:Generated_Source\PSoC5/USBUART_cdc.c ****     return (bytesCount);
 555:Generated_Source\PSoC5/USBUART_cdc.c **** }
 720              		.loc 1 555 0
 721 001a 0020     		movs	r0, #0
 722              	.LVL65:
 723 001c 7047     		bx	lr
 724              	.LVL66:
 725              	.L75:
 547:Generated_Source\PSoC5/USBUART_cdc.c ****     }
 726              		.loc 1 547 0
 727 001e FFF7FEBF 		b	USBUART_GetEPCount
 728              	.LVL67:
 729              	.L77:
 730 0022 00BF     		.align	2
 731              	.L76:
 732 0024 00000000 		.word	.LANCHOR1
 733 0028 00000000 		.word	USBUART_cdcDataOutEp
 734 002c 00000000 		.word	USBUART_EP
 735              		.cfi_endproc
ARM GAS  C:\Users\ingan\AppData\Local\Temp\cc00nNWn.s 			page 25


 736              	.LFE8:
 737              		.size	USBUART_GetCount, .-USBUART_GetCount
 738              		.section	.text.USBUART_DataIsReady,"ax",%progbits
 739              		.align	2
 740              		.global	USBUART_DataIsReady
 741              		.thumb
 742              		.thumb_func
 743              		.type	USBUART_DataIsReady, %function
 744              	USBUART_DataIsReady:
 745              	.LFB9:
 556:Generated_Source\PSoC5/USBUART_cdc.c **** 
 557:Generated_Source\PSoC5/USBUART_cdc.c **** 
 558:Generated_Source\PSoC5/USBUART_cdc.c **** /*******************************************************************************
 559:Generated_Source\PSoC5/USBUART_cdc.c **** * Function Name: USBUART_DataIsReady
 560:Generated_Source\PSoC5/USBUART_cdc.c **** ****************************************************************************//**
 561:Generated_Source\PSoC5/USBUART_cdc.c **** *
 562:Generated_Source\PSoC5/USBUART_cdc.c **** *  This function returns a non-zero value if the component received data or
 563:Generated_Source\PSoC5/USBUART_cdc.c **** *  received zero-length packet. The USBUART_GetAll() or
 564:Generated_Source\PSoC5/USBUART_cdc.c **** *  USBUART_GetData() API should be called to read data from the buffer
 565:Generated_Source\PSoC5/USBUART_cdc.c **** *  and reinitialize the OUT endpoint even when a zero-length packet is
 566:Generated_Source\PSoC5/USBUART_cdc.c **** *  received. These APIs will return zero value when zero-length packet is
 567:Generated_Source\PSoC5/USBUART_cdc.c **** *  received.
 568:Generated_Source\PSoC5/USBUART_cdc.c **** *
 569:Generated_Source\PSoC5/USBUART_cdc.c **** * \return
 570:Generated_Source\PSoC5/USBUART_cdc.c **** *  If the OUT packet is received, this function returns a non-zero value.
 571:Generated_Source\PSoC5/USBUART_cdc.c **** *  Otherwise, it returns zero.
 572:Generated_Source\PSoC5/USBUART_cdc.c **** *
 573:Generated_Source\PSoC5/USBUART_cdc.c **** * \globalvars
 574:Generated_Source\PSoC5/USBUART_cdc.c **** *   USBUART_cdcDataOutEp: CDC OUT endpoint number used.
 575:Generated_Source\PSoC5/USBUART_cdc.c **** *
 576:Generated_Source\PSoC5/USBUART_cdc.c **** *******************************************************************************/
 577:Generated_Source\PSoC5/USBUART_cdc.c **** uint8 USBUART_DataIsReady(void) 
 578:Generated_Source\PSoC5/USBUART_cdc.c **** {
 746              		.loc 1 578 0
 747              		.cfi_startproc
 748              		@ args = 0, pretend = 0, frame = 0
 749              		@ frame_needed = 0, uses_anonymous_args = 0
 750              		@ link register save eliminated.
 579:Generated_Source\PSoC5/USBUART_cdc.c ****     return (USBUART_GetEPState(USBUART_cdcDataOutEp[USBUART_activeCom]));
 751              		.loc 1 579 0
 752 0000 024B     		ldr	r3, .L79
 753 0002 034A     		ldr	r2, .L79+4
 754 0004 1B78     		ldrb	r3, [r3]	@ zero_extendqisi2
 755 0006 D05C     		ldrb	r0, [r2, r3]	@ zero_extendqisi2
 756 0008 FFF7FEBF 		b	USBUART_GetEPState
 757              	.LVL68:
 758              	.L80:
 759              		.align	2
 760              	.L79:
 761 000c 00000000 		.word	.LANCHOR1
 762 0010 00000000 		.word	USBUART_cdcDataOutEp
 763              		.cfi_endproc
 764              	.LFE9:
 765              		.size	USBUART_DataIsReady, .-USBUART_DataIsReady
 766              		.section	.text.USBUART_CDCIsReady,"ax",%progbits
 767              		.align	2
 768              		.global	USBUART_CDCIsReady
ARM GAS  C:\Users\ingan\AppData\Local\Temp\cc00nNWn.s 			page 26


 769              		.thumb
 770              		.thumb_func
 771              		.type	USBUART_CDCIsReady, %function
 772              	USBUART_CDCIsReady:
 773              	.LFB10:
 580:Generated_Source\PSoC5/USBUART_cdc.c **** }
 581:Generated_Source\PSoC5/USBUART_cdc.c **** 
 582:Generated_Source\PSoC5/USBUART_cdc.c **** 
 583:Generated_Source\PSoC5/USBUART_cdc.c **** /*******************************************************************************
 584:Generated_Source\PSoC5/USBUART_cdc.c **** * Function Name: USBUART_CDCIsReady
 585:Generated_Source\PSoC5/USBUART_cdc.c **** ****************************************************************************//**
 586:Generated_Source\PSoC5/USBUART_cdc.c **** *
 587:Generated_Source\PSoC5/USBUART_cdc.c **** *  This function returns a non-zero value if the component is ready to send more
 588:Generated_Source\PSoC5/USBUART_cdc.c **** *  data to the PC; otherwise, it returns zero. The function should be called
 589:Generated_Source\PSoC5/USBUART_cdc.c **** *  before sending new data when using any of the following APIs:
 590:Generated_Source\PSoC5/USBUART_cdc.c **** *  USBUART_PutData(),USBUART_PutString(),
 591:Generated_Source\PSoC5/USBUART_cdc.c **** *  USBUART_PutChar or USBUART_PutCRLF(),
 592:Generated_Source\PSoC5/USBUART_cdc.c **** *  to be sure that the previous data has finished sending.
 593:Generated_Source\PSoC5/USBUART_cdc.c **** *
 594:Generated_Source\PSoC5/USBUART_cdc.c **** * \return
 595:Generated_Source\PSoC5/USBUART_cdc.c **** *  If the buffer can accept new data, this function returns a non-zero value.
 596:Generated_Source\PSoC5/USBUART_cdc.c **** *  Otherwise, it returns zero.
 597:Generated_Source\PSoC5/USBUART_cdc.c **** *
 598:Generated_Source\PSoC5/USBUART_cdc.c **** * \globalvars
 599:Generated_Source\PSoC5/USBUART_cdc.c **** *   USBUART_cdcDataInEp: CDC IN endpoint number used.
 600:Generated_Source\PSoC5/USBUART_cdc.c **** *
 601:Generated_Source\PSoC5/USBUART_cdc.c **** *******************************************************************************/
 602:Generated_Source\PSoC5/USBUART_cdc.c **** uint8 USBUART_CDCIsReady(void) 
 603:Generated_Source\PSoC5/USBUART_cdc.c **** {
 774              		.loc 1 603 0
 775              		.cfi_startproc
 776              		@ args = 0, pretend = 0, frame = 0
 777              		@ frame_needed = 0, uses_anonymous_args = 0
 778              		@ link register save eliminated.
 604:Generated_Source\PSoC5/USBUART_cdc.c ****     return (USBUART_GetEPState(USBUART_cdcDataInEp[USBUART_activeCom]));
 779              		.loc 1 604 0
 780 0000 024B     		ldr	r3, .L82
 781 0002 034A     		ldr	r2, .L82+4
 782 0004 1B78     		ldrb	r3, [r3]	@ zero_extendqisi2
 783 0006 D05C     		ldrb	r0, [r2, r3]	@ zero_extendqisi2
 784 0008 FFF7FEBF 		b	USBUART_GetEPState
 785              	.LVL69:
 786              	.L83:
 787              		.align	2
 788              	.L82:
 789 000c 00000000 		.word	.LANCHOR1
 790 0010 00000000 		.word	USBUART_cdcDataInEp
 791              		.cfi_endproc
 792              	.LFE10:
 793              		.size	USBUART_CDCIsReady, .-USBUART_CDCIsReady
 794              		.section	.text.USBUART_GetData,"ax",%progbits
 795              		.align	2
 796              		.global	USBUART_GetData
 797              		.thumb
 798              		.thumb_func
 799              		.type	USBUART_GetData, %function
 800              	USBUART_GetData:
ARM GAS  C:\Users\ingan\AppData\Local\Temp\cc00nNWn.s 			page 27


 801              	.LFB11:
 605:Generated_Source\PSoC5/USBUART_cdc.c **** }
 606:Generated_Source\PSoC5/USBUART_cdc.c **** 
 607:Generated_Source\PSoC5/USBUART_cdc.c **** 
 608:Generated_Source\PSoC5/USBUART_cdc.c **** /***************************************************************************
 609:Generated_Source\PSoC5/USBUART_cdc.c **** * Function Name: USBUART_GetData
 610:Generated_Source\PSoC5/USBUART_cdc.c **** ************************************************************************//**
 611:Generated_Source\PSoC5/USBUART_cdc.c **** *
 612:Generated_Source\PSoC5/USBUART_cdc.c **** *  This function gets a specified number of bytes from the input buffer and
 613:Generated_Source\PSoC5/USBUART_cdc.c **** *  places them in a data array specified by the passed pointer.
 614:Generated_Source\PSoC5/USBUART_cdc.c **** *  The USBUART_DataIsReady() API should be called first, to be sure
 615:Generated_Source\PSoC5/USBUART_cdc.c **** *  that data is received from the host. If all received data will not be read at
 616:Generated_Source\PSoC5/USBUART_cdc.c **** *  once, the unread data will be lost. The USBUART_GetData() API should
 617:Generated_Source\PSoC5/USBUART_cdc.c **** *  be called to get the number of bytes that were received.
 618:Generated_Source\PSoC5/USBUART_cdc.c **** *
 619:Generated_Source\PSoC5/USBUART_cdc.c **** *  \param pData: Pointer to the data array where data will be placed.
 620:Generated_Source\PSoC5/USBUART_cdc.c **** *  \param Length: Number of bytes to read into the data array from the RX buffer.
 621:Generated_Source\PSoC5/USBUART_cdc.c **** *          Maximum length is limited by the the number of received bytes
 622:Generated_Source\PSoC5/USBUART_cdc.c **** *          or 64 bytes.
 623:Generated_Source\PSoC5/USBUART_cdc.c **** *
 624:Generated_Source\PSoC5/USBUART_cdc.c **** * \return
 625:Generated_Source\PSoC5/USBUART_cdc.c **** *         Number of bytes which function moves from endpoint RAM into the
 626:Generated_Source\PSoC5/USBUART_cdc.c **** *         data array. The function moves fewer than the requested number
 627:Generated_Source\PSoC5/USBUART_cdc.c **** *         of bytes if the host sends fewer bytes than requested or sends
 628:Generated_Source\PSoC5/USBUART_cdc.c **** *         zero-length packet.
 629:Generated_Source\PSoC5/USBUART_cdc.c **** *
 630:Generated_Source\PSoC5/USBUART_cdc.c **** * \globalvars
 631:Generated_Source\PSoC5/USBUART_cdc.c **** *   USBUART_cdcDataOutEp: CDC OUT endpoint number used.
 632:Generated_Source\PSoC5/USBUART_cdc.c **** *
 633:Generated_Source\PSoC5/USBUART_cdc.c **** * \reentrant
 634:Generated_Source\PSoC5/USBUART_cdc.c **** *  No.
 635:Generated_Source\PSoC5/USBUART_cdc.c **** *
 636:Generated_Source\PSoC5/USBUART_cdc.c **** ***************************************************************************/
 637:Generated_Source\PSoC5/USBUART_cdc.c **** uint16 USBUART_GetData(uint8* pData, uint16 length) 
 638:Generated_Source\PSoC5/USBUART_cdc.c **** {
 802              		.loc 1 638 0
 803              		.cfi_startproc
 804              		@ args = 0, pretend = 0, frame = 0
 805              		@ frame_needed = 0, uses_anonymous_args = 0
 806              	.LVL70:
 807 0000 38B5     		push	{r3, r4, r5, lr}
 808              		.cfi_def_cfa_offset 16
 809              		.cfi_offset 3, -16
 810              		.cfi_offset 4, -12
 811              		.cfi_offset 5, -8
 812              		.cfi_offset 14, -4
 639:Generated_Source\PSoC5/USBUART_cdc.c ****     uint8 epNumber = USBUART_cdcDataOutEp[USBUART_activeCom];
 813              		.loc 1 639 0
 814 0002 0A4B     		ldr	r3, .L89
 815 0004 0A4C     		ldr	r4, .L89+4
 816 0006 1B78     		ldrb	r3, [r3]	@ zero_extendqisi2
 640:Generated_Source\PSoC5/USBUART_cdc.c **** 
 641:Generated_Source\PSoC5/USBUART_cdc.c ****     /* Read data from OUT endpoint buffer. */
 642:Generated_Source\PSoC5/USBUART_cdc.c ****     length = USBUART_ReadOutEP(epNumber, pData, length);
 817              		.loc 1 642 0
 818 0008 0A46     		mov	r2, r1
 639:Generated_Source\PSoC5/USBUART_cdc.c ****     uint8 epNumber = USBUART_cdcDataOutEp[USBUART_activeCom];
ARM GAS  C:\Users\ingan\AppData\Local\Temp\cc00nNWn.s 			page 28


 819              		.loc 1 639 0
 820 000a E45C     		ldrb	r4, [r4, r3]	@ zero_extendqisi2
 821              		.loc 1 642 0
 822 000c 0146     		mov	r1, r0
 823              	.LVL71:
 639:Generated_Source\PSoC5/USBUART_cdc.c ****     uint8 epNumber = USBUART_cdcDataOutEp[USBUART_activeCom];
 824              		.loc 1 639 0
 825 000e E4B2     		uxtb	r4, r4
 826              	.LVL72:
 827              		.loc 1 642 0
 828 0010 2046     		mov	r0, r4
 829              	.LVL73:
 830 0012 FFF7FEFF 		bl	USBUART_ReadOutEP
 831              	.LVL74:
 832 0016 0546     		mov	r5, r0
 833              	.LVL75:
 834              	.L85:
 643:Generated_Source\PSoC5/USBUART_cdc.c **** 
 644:Generated_Source\PSoC5/USBUART_cdc.c **** #if (USBUART_EP_MANAGEMENT_DMA_MANUAL)
 645:Generated_Source\PSoC5/USBUART_cdc.c ****     /* Wait until DMA complete transferring data from OUT endpoint buffer. */
 646:Generated_Source\PSoC5/USBUART_cdc.c ****     while (USBUART_OUT_BUFFER_FULL == USBUART_GetEPState(epNumber))
 835              		.loc 1 646 0 discriminator 1
 836 0018 2046     		mov	r0, r4
 837 001a FFF7FEFF 		bl	USBUART_GetEPState
 838              	.LVL76:
 839 001e 0128     		cmp	r0, #1
 840 0020 FAD0     		beq	.L85
 647:Generated_Source\PSoC5/USBUART_cdc.c ****     {
 648:Generated_Source\PSoC5/USBUART_cdc.c ****     }
 649:Generated_Source\PSoC5/USBUART_cdc.c **** 
 650:Generated_Source\PSoC5/USBUART_cdc.c ****     /* Enable OUT endpoint to communicate with host. */
 651:Generated_Source\PSoC5/USBUART_cdc.c ****     USBUART_EnableOutEP(epNumber);
 841              		.loc 1 651 0
 842 0022 2046     		mov	r0, r4
 843 0024 FFF7FEFF 		bl	USBUART_EnableOutEP
 844              	.LVL77:
 652:Generated_Source\PSoC5/USBUART_cdc.c **** #endif /* (USBUART_EP_MANAGEMENT_DMA_MANUAL) */
 653:Generated_Source\PSoC5/USBUART_cdc.c **** 
 654:Generated_Source\PSoC5/USBUART_cdc.c ****     return (length);
 655:Generated_Source\PSoC5/USBUART_cdc.c **** }
 845              		.loc 1 655 0
 846 0028 2846     		mov	r0, r5
 847 002a 38BD     		pop	{r3, r4, r5, pc}
 848              	.LVL78:
 849              	.L90:
 850              		.align	2
 851              	.L89:
 852 002c 00000000 		.word	.LANCHOR1
 853 0030 00000000 		.word	USBUART_cdcDataOutEp
 854              		.cfi_endproc
 855              	.LFE11:
 856              		.size	USBUART_GetData, .-USBUART_GetData
 857              		.section	.text.USBUART_GetAll,"ax",%progbits
 858              		.align	2
 859              		.global	USBUART_GetAll
 860              		.thumb
 861              		.thumb_func
ARM GAS  C:\Users\ingan\AppData\Local\Temp\cc00nNWn.s 			page 29


 862              		.type	USBUART_GetAll, %function
 863              	USBUART_GetAll:
 864              	.LFB12:
 656:Generated_Source\PSoC5/USBUART_cdc.c **** 
 657:Generated_Source\PSoC5/USBUART_cdc.c **** 
 658:Generated_Source\PSoC5/USBUART_cdc.c **** /*******************************************************************************
 659:Generated_Source\PSoC5/USBUART_cdc.c **** * Function Name: USBUART_GetAll
 660:Generated_Source\PSoC5/USBUART_cdc.c **** ****************************************************************************//**
 661:Generated_Source\PSoC5/USBUART_cdc.c **** *
 662:Generated_Source\PSoC5/USBUART_cdc.c **** *  This function gets all bytes of received data from the input buffer and
 663:Generated_Source\PSoC5/USBUART_cdc.c **** *  places them into a specified data array. The
 664:Generated_Source\PSoC5/USBUART_cdc.c **** *  USBUART_DataIsReady() API should be called first, to be sure
 665:Generated_Source\PSoC5/USBUART_cdc.c **** *  that data is received from the host.
 666:Generated_Source\PSoC5/USBUART_cdc.c **** *
 667:Generated_Source\PSoC5/USBUART_cdc.c **** *  \param pData: Pointer to the data array where data will be placed.
 668:Generated_Source\PSoC5/USBUART_cdc.c **** *
 669:Generated_Source\PSoC5/USBUART_cdc.c **** * \return
 670:Generated_Source\PSoC5/USBUART_cdc.c **** *  Number of bytes received. The maximum amount of the received at a time
 671:Generated_Source\PSoC5/USBUART_cdc.c **** *  data is 64 bytes.
 672:Generated_Source\PSoC5/USBUART_cdc.c **** *
 673:Generated_Source\PSoC5/USBUART_cdc.c **** * \globalvars
 674:Generated_Source\PSoC5/USBUART_cdc.c **** *   - \ref USBUART_cdcDataOutEp: CDC OUT endpoint number used.
 675:Generated_Source\PSoC5/USBUART_cdc.c **** *   - \ref USBUART_EP[].bufferSize: EP max packet size is used as a
 676:Generated_Source\PSoC5/USBUART_cdc.c **** *     length to read all data from the EP buffer.
 677:Generated_Source\PSoC5/USBUART_cdc.c **** *
 678:Generated_Source\PSoC5/USBUART_cdc.c **** * \reentrant
 679:Generated_Source\PSoC5/USBUART_cdc.c **** *  No.
 680:Generated_Source\PSoC5/USBUART_cdc.c **** *
 681:Generated_Source\PSoC5/USBUART_cdc.c **** *******************************************************************************/
 682:Generated_Source\PSoC5/USBUART_cdc.c **** uint16 USBUART_GetAll(uint8* pData) 
 683:Generated_Source\PSoC5/USBUART_cdc.c **** {
 865              		.loc 1 683 0
 866              		.cfi_startproc
 867              		@ args = 0, pretend = 0, frame = 0
 868              		@ frame_needed = 0, uses_anonymous_args = 0
 869              	.LVL79:
 870 0000 38B5     		push	{r3, r4, r5, lr}
 871              		.cfi_def_cfa_offset 16
 872              		.cfi_offset 3, -16
 873              		.cfi_offset 4, -12
 874              		.cfi_offset 5, -8
 875              		.cfi_offset 14, -4
 684:Generated_Source\PSoC5/USBUART_cdc.c ****     uint8 epNumber = USBUART_cdcDataOutEp[USBUART_activeCom];
 876              		.loc 1 684 0
 877 0002 0D4B     		ldr	r3, .L96
 878 0004 0D49     		ldr	r1, .L96+4
 879 0006 1A78     		ldrb	r2, [r3]	@ zero_extendqisi2
 685:Generated_Source\PSoC5/USBUART_cdc.c ****     uint16 dataLength;
 686:Generated_Source\PSoC5/USBUART_cdc.c **** 
 687:Generated_Source\PSoC5/USBUART_cdc.c ****     /* Read data from OUT endpoint buffer. */
 688:Generated_Source\PSoC5/USBUART_cdc.c ****     dataLength = USBUART_ReadOutEP(epNumber, pData, USBUART_EP[epNumber].bufferSize);
 880              		.loc 1 688 0
 881 0008 0D4B     		ldr	r3, .L96+8
 684:Generated_Source\PSoC5/USBUART_cdc.c ****     uint8 epNumber = USBUART_cdcDataOutEp[USBUART_activeCom];
 882              		.loc 1 684 0
 883 000a 8C5C     		ldrb	r4, [r1, r2]	@ zero_extendqisi2
 884              		.loc 1 688 0
ARM GAS  C:\Users\ingan\AppData\Local\Temp\cc00nNWn.s 			page 30


 885 000c 0146     		mov	r1, r0
 684:Generated_Source\PSoC5/USBUART_cdc.c ****     uint8 epNumber = USBUART_cdcDataOutEp[USBUART_activeCom];
 886              		.loc 1 684 0
 887 000e E4B2     		uxtb	r4, r4
 888              	.LVL80:
 889              		.loc 1 688 0
 890 0010 04EB4402 		add	r2, r4, r4, lsl #1
 891 0014 03EB8203 		add	r3, r3, r2, lsl #2
 892 0018 1A89     		ldrh	r2, [r3, #8]
 893 001a 2046     		mov	r0, r4
 894              	.LVL81:
 895 001c 92B2     		uxth	r2, r2
 896 001e FFF7FEFF 		bl	USBUART_ReadOutEP
 897              	.LVL82:
 898 0022 0546     		mov	r5, r0
 899              	.LVL83:
 900              	.L92:
 689:Generated_Source\PSoC5/USBUART_cdc.c **** 
 690:Generated_Source\PSoC5/USBUART_cdc.c **** #if (USBUART_EP_MANAGEMENT_DMA_MANUAL)
 691:Generated_Source\PSoC5/USBUART_cdc.c ****     /* Wait until DMA complete transferring data from OUT endpoint buffer. */
 692:Generated_Source\PSoC5/USBUART_cdc.c ****     while (USBUART_OUT_BUFFER_FULL == USBUART_GetEPState(epNumber))
 901              		.loc 1 692 0 discriminator 1
 902 0024 2046     		mov	r0, r4
 903 0026 FFF7FEFF 		bl	USBUART_GetEPState
 904              	.LVL84:
 905 002a 0128     		cmp	r0, #1
 906 002c FAD0     		beq	.L92
 693:Generated_Source\PSoC5/USBUART_cdc.c ****     {
 694:Generated_Source\PSoC5/USBUART_cdc.c ****     }
 695:Generated_Source\PSoC5/USBUART_cdc.c **** 
 696:Generated_Source\PSoC5/USBUART_cdc.c ****     /* Enable OUT endpoint to communicate with host. */
 697:Generated_Source\PSoC5/USBUART_cdc.c ****     USBUART_EnableOutEP(epNumber);
 907              		.loc 1 697 0
 908 002e 2046     		mov	r0, r4
 909 0030 FFF7FEFF 		bl	USBUART_EnableOutEP
 910              	.LVL85:
 698:Generated_Source\PSoC5/USBUART_cdc.c **** #endif /* (USBUART_EP_MANAGEMENT_DMA_MANUAL) */
 699:Generated_Source\PSoC5/USBUART_cdc.c **** 
 700:Generated_Source\PSoC5/USBUART_cdc.c ****     return (dataLength);
 701:Generated_Source\PSoC5/USBUART_cdc.c **** }
 911              		.loc 1 701 0
 912 0034 2846     		mov	r0, r5
 913 0036 38BD     		pop	{r3, r4, r5, pc}
 914              	.LVL86:
 915              	.L97:
 916              		.align	2
 917              	.L96:
 918 0038 00000000 		.word	.LANCHOR1
 919 003c 00000000 		.word	USBUART_cdcDataOutEp
 920 0040 00000000 		.word	USBUART_EP
 921              		.cfi_endproc
 922              	.LFE12:
 923              		.size	USBUART_GetAll, .-USBUART_GetAll
 924              		.section	.text.USBUART_GetChar,"ax",%progbits
 925              		.align	2
 926              		.global	USBUART_GetChar
 927              		.thumb
ARM GAS  C:\Users\ingan\AppData\Local\Temp\cc00nNWn.s 			page 31


 928              		.thumb_func
 929              		.type	USBUART_GetChar, %function
 930              	USBUART_GetChar:
 931              	.LFB13:
 702:Generated_Source\PSoC5/USBUART_cdc.c **** 
 703:Generated_Source\PSoC5/USBUART_cdc.c **** 
 704:Generated_Source\PSoC5/USBUART_cdc.c **** /***************************************************************************
 705:Generated_Source\PSoC5/USBUART_cdc.c **** * Function Name: USBUART_GetChar
 706:Generated_Source\PSoC5/USBUART_cdc.c **** ************************************************************************//**
 707:Generated_Source\PSoC5/USBUART_cdc.c **** *
 708:Generated_Source\PSoC5/USBUART_cdc.c **** *  This function reads one byte of received data from the buffer. If more than
 709:Generated_Source\PSoC5/USBUART_cdc.c **** *  one byte has been received from the host, the rest of the data will be lost.
 710:Generated_Source\PSoC5/USBUART_cdc.c **** *
 711:Generated_Source\PSoC5/USBUART_cdc.c **** * \return
 712:Generated_Source\PSoC5/USBUART_cdc.c **** *  Received one character.
 713:Generated_Source\PSoC5/USBUART_cdc.c **** *
 714:Generated_Source\PSoC5/USBUART_cdc.c **** * \globalvars
 715:Generated_Source\PSoC5/USBUART_cdc.c **** *   USBUART_cdcDataOutEp: CDC OUT endpoint number used.
 716:Generated_Source\PSoC5/USBUART_cdc.c **** *
 717:Generated_Source\PSoC5/USBUART_cdc.c **** * \reentrant
 718:Generated_Source\PSoC5/USBUART_cdc.c **** *  No.
 719:Generated_Source\PSoC5/USBUART_cdc.c **** *
 720:Generated_Source\PSoC5/USBUART_cdc.c **** ***************************************************************************/
 721:Generated_Source\PSoC5/USBUART_cdc.c **** uint8 USBUART_GetChar(void) 
 722:Generated_Source\PSoC5/USBUART_cdc.c **** {
 932              		.loc 1 722 0
 933              		.cfi_startproc
 934              		@ args = 0, pretend = 0, frame = 8
 935              		@ frame_needed = 0, uses_anonymous_args = 0
 936 0000 10B5     		push	{r4, lr}
 937              		.cfi_def_cfa_offset 8
 938              		.cfi_offset 4, -8
 939              		.cfi_offset 14, -4
 723:Generated_Source\PSoC5/USBUART_cdc.c ****      uint8 rxData;
 724:Generated_Source\PSoC5/USBUART_cdc.c ****      uint8 epNumber = USBUART_cdcDataOutEp[USBUART_activeCom];
 940              		.loc 1 724 0
 941 0002 0C4B     		ldr	r3, .L103
 942 0004 0C49     		ldr	r1, .L103+4
 943 0006 1B78     		ldrb	r3, [r3]	@ zero_extendqisi2
 722:Generated_Source\PSoC5/USBUART_cdc.c ****      uint8 rxData;
 944              		.loc 1 722 0
 945 0008 82B0     		sub	sp, sp, #8
 946              		.cfi_def_cfa_offset 16
 947              		.loc 1 724 0
 948 000a CC5C     		ldrb	r4, [r1, r3]	@ zero_extendqisi2
 725:Generated_Source\PSoC5/USBUART_cdc.c **** 
 726:Generated_Source\PSoC5/USBUART_cdc.c ****     (void) USBUART_ReadOutEP(epNumber, &rxData, 1u);
 949              		.loc 1 726 0
 950 000c 0122     		movs	r2, #1
 724:Generated_Source\PSoC5/USBUART_cdc.c **** 
 951              		.loc 1 724 0
 952 000e E4B2     		uxtb	r4, r4
 953              	.LVL87:
 954              		.loc 1 726 0
 955 0010 0DF10701 		add	r1, sp, #7
 956 0014 2046     		mov	r0, r4
 957 0016 FFF7FEFF 		bl	USBUART_ReadOutEP
ARM GAS  C:\Users\ingan\AppData\Local\Temp\cc00nNWn.s 			page 32


 958              	.LVL88:
 959              	.L99:
 727:Generated_Source\PSoC5/USBUART_cdc.c **** 
 728:Generated_Source\PSoC5/USBUART_cdc.c **** #if (USBUART_EP_MANAGEMENT_DMA_MANUAL)
 729:Generated_Source\PSoC5/USBUART_cdc.c ****     /* Wait until DMA complete transferring data from OUT endpoint buffer. */
 730:Generated_Source\PSoC5/USBUART_cdc.c ****     while (USBUART_OUT_BUFFER_FULL == USBUART_GetEPState(epNumber))
 960              		.loc 1 730 0 discriminator 1
 961 001a 2046     		mov	r0, r4
 962 001c FFF7FEFF 		bl	USBUART_GetEPState
 963              	.LVL89:
 964 0020 0128     		cmp	r0, #1
 965 0022 FAD0     		beq	.L99
 731:Generated_Source\PSoC5/USBUART_cdc.c ****     {
 732:Generated_Source\PSoC5/USBUART_cdc.c ****     }
 733:Generated_Source\PSoC5/USBUART_cdc.c **** 
 734:Generated_Source\PSoC5/USBUART_cdc.c ****     /* Enable OUT endpoint to communicate with host. */
 735:Generated_Source\PSoC5/USBUART_cdc.c ****     USBUART_EnableOutEP(epNumber);
 966              		.loc 1 735 0
 967 0024 2046     		mov	r0, r4
 968 0026 FFF7FEFF 		bl	USBUART_EnableOutEP
 969              	.LVL90:
 736:Generated_Source\PSoC5/USBUART_cdc.c **** #endif /* (USBUART_EP_MANAGEMENT_DMA_MANUAL) */
 737:Generated_Source\PSoC5/USBUART_cdc.c **** 
 738:Generated_Source\PSoC5/USBUART_cdc.c ****     return (rxData);
 739:Generated_Source\PSoC5/USBUART_cdc.c **** }
 970              		.loc 1 739 0
 971 002a 9DF80700 		ldrb	r0, [sp, #7]	@ zero_extendqisi2
 972 002e 02B0     		add	sp, sp, #8
 973              		.cfi_def_cfa_offset 8
 974              		@ sp needed
 975 0030 10BD     		pop	{r4, pc}
 976              	.LVL91:
 977              	.L104:
 978 0032 00BF     		.align	2
 979              	.L103:
 980 0034 00000000 		.word	.LANCHOR1
 981 0038 00000000 		.word	USBUART_cdcDataOutEp
 982              		.cfi_endproc
 983              	.LFE13:
 984              		.size	USBUART_GetChar, .-USBUART_GetChar
 985              		.section	.text.USBUART_IsLineChanged,"ax",%progbits
 986              		.align	2
 987              		.global	USBUART_IsLineChanged
 988              		.thumb
 989              		.thumb_func
 990              		.type	USBUART_IsLineChanged, %function
 991              	USBUART_IsLineChanged:
 992              	.LFB14:
 740:Generated_Source\PSoC5/USBUART_cdc.c **** 
 741:Generated_Source\PSoC5/USBUART_cdc.c **** 
 742:Generated_Source\PSoC5/USBUART_cdc.c **** /*******************************************************************************
 743:Generated_Source\PSoC5/USBUART_cdc.c **** * Function Name: USBUART_IsLineChanged
 744:Generated_Source\PSoC5/USBUART_cdc.c **** ****************************************************************************//**
 745:Generated_Source\PSoC5/USBUART_cdc.c **** *
 746:Generated_Source\PSoC5/USBUART_cdc.c **** *  This function returns clear on read status of the line. It returns not zero
 747:Generated_Source\PSoC5/USBUART_cdc.c **** *  value when the host sends updated coding or control information to the
 748:Generated_Source\PSoC5/USBUART_cdc.c **** *  device. The USBUART_GetDTERate(), USBUART_GetCharFormat()
ARM GAS  C:\Users\ingan\AppData\Local\Temp\cc00nNWn.s 			page 33


 749:Generated_Source\PSoC5/USBUART_cdc.c **** *  or USBUART_GetParityType() or USBUART_GetDataBits() API
 750:Generated_Source\PSoC5/USBUART_cdc.c **** *  should be called to read data coding information.
 751:Generated_Source\PSoC5/USBUART_cdc.c **** *  The USBUART_GetLineControl() API should be called to read line
 752:Generated_Source\PSoC5/USBUART_cdc.c **** *  control information.
 753:Generated_Source\PSoC5/USBUART_cdc.c **** *
 754:Generated_Source\PSoC5/USBUART_cdc.c **** * \return
 755:Generated_Source\PSoC5/USBUART_cdc.c **** *  If SET_LINE_CODING or CDC_SET_CONTROL_LINE_STATE requests are received, it
 756:Generated_Source\PSoC5/USBUART_cdc.c **** *  returns a non-zero value. Otherwise, it returns zero.
 757:Generated_Source\PSoC5/USBUART_cdc.c **** *  Return Value                 | Description
 758:Generated_Source\PSoC5/USBUART_cdc.c **** *  -----------------------------|--------------------------
 759:Generated_Source\PSoC5/USBUART_cdc.c **** *  USBUART_LINE_CODING_CHANGED  | Line coding changed
 760:Generated_Source\PSoC5/USBUART_cdc.c **** *  USBUART_LINE_CONTROL_CHANGED |   Line control changed
 761:Generated_Source\PSoC5/USBUART_cdc.c **** *
 762:Generated_Source\PSoC5/USBUART_cdc.c **** * \globalvars
 763:Generated_Source\PSoC5/USBUART_cdc.c **** *  - \ref USBUART_transferState: it is checked to be sure then OUT
 764:Generated_Source\PSoC5/USBUART_cdc.c **** *    data phase has been complete, and data written to the lineCoding or
 765:Generated_Source\PSoC5/USBUART_cdc.c **** *    Control Bitmap buffer.
 766:Generated_Source\PSoC5/USBUART_cdc.c **** *  - \ref USBUART_linesChanged: used as a flag to be aware that
 767:Generated_Source\PSoC5/USBUART_cdc.c **** *    Host has been sent request for changing Line Coding or Control Bitmap.
 768:Generated_Source\PSoC5/USBUART_cdc.c **** *
 769:Generated_Source\PSoC5/USBUART_cdc.c **** *******************************************************************************/
 770:Generated_Source\PSoC5/USBUART_cdc.c **** uint8 USBUART_IsLineChanged(void) 
 771:Generated_Source\PSoC5/USBUART_cdc.c **** {
 993              		.loc 1 771 0
 994              		.cfi_startproc
 995              		@ args = 0, pretend = 0, frame = 0
 996              		@ frame_needed = 0, uses_anonymous_args = 0
 997              		@ link register save eliminated.
 998              	.LVL92:
 772:Generated_Source\PSoC5/USBUART_cdc.c ****     uint8 state = 0u;
 773:Generated_Source\PSoC5/USBUART_cdc.c **** 
 774:Generated_Source\PSoC5/USBUART_cdc.c ****     /* transferState is checked to be sure then OUT data phase has been complete */
 775:Generated_Source\PSoC5/USBUART_cdc.c ****     if (USBUART_transferState == USBUART_TRANS_STATE_IDLE)
 999              		.loc 1 775 0
 1000 0000 094B     		ldr	r3, .L111
 1001 0002 1B78     		ldrb	r3, [r3]	@ zero_extendqisi2
 1002 0004 73B9     		cbnz	r3, .L107
 771:Generated_Source\PSoC5/USBUART_cdc.c ****     uint8 state = 0u;
 1003              		.loc 1 771 0
 1004 0006 10B4     		push	{r4}
 1005              		.cfi_def_cfa_offset 4
 1006              		.cfi_offset 4, -4
 1007 0008 03F0FF04 		and	r4, r3, #255
 776:Generated_Source\PSoC5/USBUART_cdc.c ****     {
 777:Generated_Source\PSoC5/USBUART_cdc.c ****         if (USBUART_linesChanged[USBUART_activeCom] != 0u)
 1008              		.loc 1 777 0
 1009 000c 074B     		ldr	r3, .L111+4
 1010 000e 084A     		ldr	r2, .L111+8
 1011 0010 1B78     		ldrb	r3, [r3]	@ zero_extendqisi2
 1012 0012 D15C     		ldrb	r1, [r2, r3]	@ zero_extendqisi2
 1013 0014 01F0FF00 		and	r0, r1, #255
 1014 0018 11B1     		cbz	r1, .L106
 778:Generated_Source\PSoC5/USBUART_cdc.c ****         {
 779:Generated_Source\PSoC5/USBUART_cdc.c ****             state = USBUART_linesChanged[USBUART_activeCom];
 1015              		.loc 1 779 0
 1016 001a D05C     		ldrb	r0, [r2, r3]	@ zero_extendqisi2
 780:Generated_Source\PSoC5/USBUART_cdc.c ****             USBUART_linesChanged[USBUART_activeCom] = 0u;
ARM GAS  C:\Users\ingan\AppData\Local\Temp\cc00nNWn.s 			page 34


 1017              		.loc 1 780 0
 1018 001c D454     		strb	r4, [r2, r3]
 779:Generated_Source\PSoC5/USBUART_cdc.c ****             USBUART_linesChanged[USBUART_activeCom] = 0u;
 1019              		.loc 1 779 0
 1020 001e C0B2     		uxtb	r0, r0
 1021              	.LVL93:
 1022              	.L106:
 781:Generated_Source\PSoC5/USBUART_cdc.c ****         }
 782:Generated_Source\PSoC5/USBUART_cdc.c ****     }
 783:Generated_Source\PSoC5/USBUART_cdc.c **** 
 784:Generated_Source\PSoC5/USBUART_cdc.c ****     return (state);
 785:Generated_Source\PSoC5/USBUART_cdc.c **** }
 1023              		.loc 1 785 0
 1024 0020 10BC     		pop	{r4}
 1025              		.cfi_restore 4
 1026              		.cfi_def_cfa_offset 0
 1027 0022 7047     		bx	lr
 1028              	.LVL94:
 1029              	.L107:
 772:Generated_Source\PSoC5/USBUART_cdc.c **** 
 1030              		.loc 1 772 0
 1031 0024 0020     		movs	r0, #0
 1032 0026 7047     		bx	lr
 1033              	.L112:
 1034              		.align	2
 1035              	.L111:
 1036 0028 00000000 		.word	USBUART_transferState
 1037 002c 00000000 		.word	.LANCHOR1
 1038 0030 00000000 		.word	USBUART_linesChanged
 1039              		.cfi_endproc
 1040              	.LFE14:
 1041              		.size	USBUART_IsLineChanged, .-USBUART_IsLineChanged
 1042              		.section	.text.USBUART_GetDTERate,"ax",%progbits
 1043              		.align	2
 1044              		.global	USBUART_GetDTERate
 1045              		.thumb
 1046              		.thumb_func
 1047              		.type	USBUART_GetDTERate, %function
 1048              	USBUART_GetDTERate:
 1049              	.LFB15:
 786:Generated_Source\PSoC5/USBUART_cdc.c **** 
 787:Generated_Source\PSoC5/USBUART_cdc.c **** 
 788:Generated_Source\PSoC5/USBUART_cdc.c **** /***************************************************************************
 789:Generated_Source\PSoC5/USBUART_cdc.c **** * Function Name: USBUART_GetDTERate
 790:Generated_Source\PSoC5/USBUART_cdc.c **** ************************************************************************//**
 791:Generated_Source\PSoC5/USBUART_cdc.c **** *
 792:Generated_Source\PSoC5/USBUART_cdc.c **** *  This function returns the data terminal rate set for this port in bits
 793:Generated_Source\PSoC5/USBUART_cdc.c **** *  per second.
 794:Generated_Source\PSoC5/USBUART_cdc.c **** *
 795:Generated_Source\PSoC5/USBUART_cdc.c **** * \return
 796:Generated_Source\PSoC5/USBUART_cdc.c **** *  Returns a uint32 value of the data rate in bits per second.
 797:Generated_Source\PSoC5/USBUART_cdc.c **** *
 798:Generated_Source\PSoC5/USBUART_cdc.c **** * \globalvars
 799:Generated_Source\PSoC5/USBUART_cdc.c **** *  USBUART_linesCoding: First four bytes converted to uint32
 800:Generated_Source\PSoC5/USBUART_cdc.c **** *    depend on compiler, and returned as a data rate.
 801:Generated_Source\PSoC5/USBUART_cdc.c **** *
 802:Generated_Source\PSoC5/USBUART_cdc.c **** *******************************************************************************/
ARM GAS  C:\Users\ingan\AppData\Local\Temp\cc00nNWn.s 			page 35


 803:Generated_Source\PSoC5/USBUART_cdc.c **** uint32 USBUART_GetDTERate(void) 
 804:Generated_Source\PSoC5/USBUART_cdc.c **** {
 1050              		.loc 1 804 0
 1051              		.cfi_startproc
 1052              		@ args = 0, pretend = 0, frame = 0
 1053              		@ frame_needed = 0, uses_anonymous_args = 0
 1054              		@ link register save eliminated.
 1055 0000 10B4     		push	{r4}
 1056              		.cfi_def_cfa_offset 4
 1057              		.cfi_offset 4, -4
 805:Generated_Source\PSoC5/USBUART_cdc.c ****     uint32 rate;
 806:Generated_Source\PSoC5/USBUART_cdc.c **** 
 807:Generated_Source\PSoC5/USBUART_cdc.c ****     rate = USBUART_linesCoding[USBUART_activeCom][USBUART_LINE_CODING_RATE + 3u];
 1058              		.loc 1 807 0
 1059 0002 094B     		ldr	r3, .L115
 1060 0004 094C     		ldr	r4, .L115+4
 1061 0006 1B78     		ldrb	r3, [r3]	@ zero_extendqisi2
 1062 0008 C3EBC303 		rsb	r3, r3, r3, lsl #3
 1063 000c E218     		adds	r2, r4, r3
 1064 000e D078     		ldrb	r0, [r2, #3]	@ zero_extendqisi2
 1065              	.LVL95:
 808:Generated_Source\PSoC5/USBUART_cdc.c ****     rate = (rate << 8u) | USBUART_linesCoding[USBUART_activeCom][USBUART_LINE_CODING_RATE + 2u];
 1066              		.loc 1 808 0
 1067 0010 9178     		ldrb	r1, [r2, #2]	@ zero_extendqisi2
 1068              	.LVL96:
 809:Generated_Source\PSoC5/USBUART_cdc.c ****     rate = (rate << 8u) | USBUART_linesCoding[USBUART_activeCom][USBUART_LINE_CODING_RATE + 1u];
 1069              		.loc 1 809 0
 1070 0012 5278     		ldrb	r2, [r2, #1]	@ zero_extendqisi2
 1071 0014 41EA0021 		orr	r1, r1, r0, lsl #8
 1072              	.LVL97:
 810:Generated_Source\PSoC5/USBUART_cdc.c ****     rate = (rate << 8u) | USBUART_linesCoding[USBUART_activeCom][USBUART_LINE_CODING_RATE];
 1073              		.loc 1 810 0
 1074 0018 E05C     		ldrb	r0, [r4, r3]	@ zero_extendqisi2
 1075 001a 42EA0123 		orr	r3, r2, r1, lsl #8
 1076              	.LVL98:
 811:Generated_Source\PSoC5/USBUART_cdc.c **** 
 812:Generated_Source\PSoC5/USBUART_cdc.c ****     return (rate);
 813:Generated_Source\PSoC5/USBUART_cdc.c **** }
 1077              		.loc 1 813 0
 1078 001e 40EA0320 		orr	r0, r0, r3, lsl #8
 1079              	.LVL99:
 1080 0022 10BC     		pop	{r4}
 1081              		.cfi_restore 4
 1082              		.cfi_def_cfa_offset 0
 1083 0024 7047     		bx	lr
 1084              	.L116:
 1085 0026 00BF     		.align	2
 1086              	.L115:
 1087 0028 00000000 		.word	.LANCHOR1
 1088 002c 00000000 		.word	.LANCHOR0
 1089              		.cfi_endproc
 1090              	.LFE15:
 1091              		.size	USBUART_GetDTERate, .-USBUART_GetDTERate
 1092              		.section	.text.USBUART_GetCharFormat,"ax",%progbits
 1093              		.align	2
 1094              		.global	USBUART_GetCharFormat
 1095              		.thumb
ARM GAS  C:\Users\ingan\AppData\Local\Temp\cc00nNWn.s 			page 36


 1096              		.thumb_func
 1097              		.type	USBUART_GetCharFormat, %function
 1098              	USBUART_GetCharFormat:
 1099              	.LFB16:
 814:Generated_Source\PSoC5/USBUART_cdc.c **** 
 815:Generated_Source\PSoC5/USBUART_cdc.c **** 
 816:Generated_Source\PSoC5/USBUART_cdc.c **** /*******************************************************************************
 817:Generated_Source\PSoC5/USBUART_cdc.c **** * Function Name: USBUART_GetCharFormat
 818:Generated_Source\PSoC5/USBUART_cdc.c **** ****************************************************************************//**
 819:Generated_Source\PSoC5/USBUART_cdc.c **** *
 820:Generated_Source\PSoC5/USBUART_cdc.c **** *  Returns the number of stop bits.
 821:Generated_Source\PSoC5/USBUART_cdc.c **** *
 822:Generated_Source\PSoC5/USBUART_cdc.c **** * \return
 823:Generated_Source\PSoC5/USBUART_cdc.c **** *  Returns the number of stop bits.
 824:Generated_Source\PSoC5/USBUART_cdc.c **** *  Return               |Value Description
 825:Generated_Source\PSoC5/USBUART_cdc.c **** *  ---------------------|-------------------
 826:Generated_Source\PSoC5/USBUART_cdc.c **** *  USBUART_1_STOPBIT    | 1 stop bit
 827:Generated_Source\PSoC5/USBUART_cdc.c **** *  USBUART_1_5_STOPBITS | 1,5 stop bits
 828:Generated_Source\PSoC5/USBUART_cdc.c **** *  USBUART_2_STOPBITS   | 2 stop bits
 829:Generated_Source\PSoC5/USBUART_cdc.c **** *
 830:Generated_Source\PSoC5/USBUART_cdc.c **** *
 831:Generated_Source\PSoC5/USBUART_cdc.c **** * \globalvars
 832:Generated_Source\PSoC5/USBUART_cdc.c **** *  USBUART_linesCoding: used to get a parameter.
 833:Generated_Source\PSoC5/USBUART_cdc.c **** *
 834:Generated_Source\PSoC5/USBUART_cdc.c **** *******************************************************************************/
 835:Generated_Source\PSoC5/USBUART_cdc.c **** uint8 USBUART_GetCharFormat(void) 
 836:Generated_Source\PSoC5/USBUART_cdc.c **** {
 1100              		.loc 1 836 0
 1101              		.cfi_startproc
 1102              		@ args = 0, pretend = 0, frame = 0
 1103              		@ frame_needed = 0, uses_anonymous_args = 0
 1104              		@ link register save eliminated.
 837:Generated_Source\PSoC5/USBUART_cdc.c ****     return (USBUART_linesCoding[USBUART_activeCom][USBUART_LINE_CODING_STOP_BITS]);
 1105              		.loc 1 837 0
 1106 0000 034B     		ldr	r3, .L118
 1107 0002 044A     		ldr	r2, .L118+4
 1108 0004 1B78     		ldrb	r3, [r3]	@ zero_extendqisi2
 1109 0006 C3EBC303 		rsb	r3, r3, r3, lsl #3
 1110 000a 1344     		add	r3, r3, r2
 1111 000c 1879     		ldrb	r0, [r3, #4]	@ zero_extendqisi2
 838:Generated_Source\PSoC5/USBUART_cdc.c **** }
 1112              		.loc 1 838 0
 1113 000e 7047     		bx	lr
 1114              	.L119:
 1115              		.align	2
 1116              	.L118:
 1117 0010 00000000 		.word	.LANCHOR1
 1118 0014 00000000 		.word	.LANCHOR0
 1119              		.cfi_endproc
 1120              	.LFE16:
 1121              		.size	USBUART_GetCharFormat, .-USBUART_GetCharFormat
 1122              		.section	.text.USBUART_GetParityType,"ax",%progbits
 1123              		.align	2
 1124              		.global	USBUART_GetParityType
 1125              		.thumb
 1126              		.thumb_func
 1127              		.type	USBUART_GetParityType, %function
ARM GAS  C:\Users\ingan\AppData\Local\Temp\cc00nNWn.s 			page 37


 1128              	USBUART_GetParityType:
 1129              	.LFB17:
 839:Generated_Source\PSoC5/USBUART_cdc.c **** 
 840:Generated_Source\PSoC5/USBUART_cdc.c **** 
 841:Generated_Source\PSoC5/USBUART_cdc.c **** /*******************************************************************************
 842:Generated_Source\PSoC5/USBUART_cdc.c **** * Function Name: USBUART_GetParityType
 843:Generated_Source\PSoC5/USBUART_cdc.c **** ****************************************************************************//**
 844:Generated_Source\PSoC5/USBUART_cdc.c **** *
 845:Generated_Source\PSoC5/USBUART_cdc.c **** *  This function returns the parity type for the CDC port.
 846:Generated_Source\PSoC5/USBUART_cdc.c **** *
 847:Generated_Source\PSoC5/USBUART_cdc.c **** * \return
 848:Generated_Source\PSoC5/USBUART_cdc.c **** *  Returns the parity type.
 849:Generated_Source\PSoC5/USBUART_cdc.c **** *   Return               | Value Description
 850:Generated_Source\PSoC5/USBUART_cdc.c **** *  ----------------------|-------------------
 851:Generated_Source\PSoC5/USBUART_cdc.c **** *  USBUART_PARITY_NONE   | 1 stop bit
 852:Generated_Source\PSoC5/USBUART_cdc.c **** *  USBUART_PARITY_ODD    | 1,5 stop bits
 853:Generated_Source\PSoC5/USBUART_cdc.c **** *  USBUART_PARITY_EVEN   | 2 stop bits
 854:Generated_Source\PSoC5/USBUART_cdc.c **** *  USBUART_PARITY_MARK   | Mark
 855:Generated_Source\PSoC5/USBUART_cdc.c **** *  USBUART_PARITY_SPACE  | Space
 856:Generated_Source\PSoC5/USBUART_cdc.c **** *
 857:Generated_Source\PSoC5/USBUART_cdc.c **** * \globalvars
 858:Generated_Source\PSoC5/USBUART_cdc.c **** *  USBUART_linesCoding: used to get a parameter.
 859:Generated_Source\PSoC5/USBUART_cdc.c **** *
 860:Generated_Source\PSoC5/USBUART_cdc.c **** *******************************************************************************/
 861:Generated_Source\PSoC5/USBUART_cdc.c **** uint8 USBUART_GetParityType(void) 
 862:Generated_Source\PSoC5/USBUART_cdc.c **** {
 1130              		.loc 1 862 0
 1131              		.cfi_startproc
 1132              		@ args = 0, pretend = 0, frame = 0
 1133              		@ frame_needed = 0, uses_anonymous_args = 0
 1134              		@ link register save eliminated.
 863:Generated_Source\PSoC5/USBUART_cdc.c ****     return (USBUART_linesCoding[USBUART_activeCom][USBUART_LINE_CODING_PARITY]);
 1135              		.loc 1 863 0
 1136 0000 034B     		ldr	r3, .L121
 1137 0002 044A     		ldr	r2, .L121+4
 1138 0004 1B78     		ldrb	r3, [r3]	@ zero_extendqisi2
 1139 0006 C3EBC303 		rsb	r3, r3, r3, lsl #3
 1140 000a 1344     		add	r3, r3, r2
 1141 000c 5879     		ldrb	r0, [r3, #5]	@ zero_extendqisi2
 864:Generated_Source\PSoC5/USBUART_cdc.c **** }
 1142              		.loc 1 864 0
 1143 000e 7047     		bx	lr
 1144              	.L122:
 1145              		.align	2
 1146              	.L121:
 1147 0010 00000000 		.word	.LANCHOR1
 1148 0014 00000000 		.word	.LANCHOR0
 1149              		.cfi_endproc
 1150              	.LFE17:
 1151              		.size	USBUART_GetParityType, .-USBUART_GetParityType
 1152              		.section	.text.USBUART_GetDataBits,"ax",%progbits
 1153              		.align	2
 1154              		.global	USBUART_GetDataBits
 1155              		.thumb
 1156              		.thumb_func
 1157              		.type	USBUART_GetDataBits, %function
 1158              	USBUART_GetDataBits:
ARM GAS  C:\Users\ingan\AppData\Local\Temp\cc00nNWn.s 			page 38


 1159              	.LFB18:
 865:Generated_Source\PSoC5/USBUART_cdc.c **** 
 866:Generated_Source\PSoC5/USBUART_cdc.c **** 
 867:Generated_Source\PSoC5/USBUART_cdc.c **** /***************************************************************************
 868:Generated_Source\PSoC5/USBUART_cdc.c **** * Function Name: USBUART_GetDataBits
 869:Generated_Source\PSoC5/USBUART_cdc.c **** ************************************************************************//**
 870:Generated_Source\PSoC5/USBUART_cdc.c **** *
 871:Generated_Source\PSoC5/USBUART_cdc.c **** *  This function returns the number of data bits for the CDC port.
 872:Generated_Source\PSoC5/USBUART_cdc.c **** *
 873:Generated_Source\PSoC5/USBUART_cdc.c **** * \return
 874:Generated_Source\PSoC5/USBUART_cdc.c **** *  Returns the number of data bits.
 875:Generated_Source\PSoC5/USBUART_cdc.c **** *  The number of data bits can be 5, 6, 7, 8 or 16.
 876:Generated_Source\PSoC5/USBUART_cdc.c **** *
 877:Generated_Source\PSoC5/USBUART_cdc.c **** * \globalvars
 878:Generated_Source\PSoC5/USBUART_cdc.c **** *  USBUART_linesCoding: used to get a parameter.
 879:Generated_Source\PSoC5/USBUART_cdc.c **** *
 880:Generated_Source\PSoC5/USBUART_cdc.c **** *******************************************************************************/
 881:Generated_Source\PSoC5/USBUART_cdc.c **** uint8 USBUART_GetDataBits(void) 
 882:Generated_Source\PSoC5/USBUART_cdc.c **** {
 1160              		.loc 1 882 0
 1161              		.cfi_startproc
 1162              		@ args = 0, pretend = 0, frame = 0
 1163              		@ frame_needed = 0, uses_anonymous_args = 0
 1164              		@ link register save eliminated.
 883:Generated_Source\PSoC5/USBUART_cdc.c ****     return (USBUART_linesCoding[USBUART_activeCom][USBUART_LINE_CODING_DATA_BITS]);
 1165              		.loc 1 883 0
 1166 0000 034B     		ldr	r3, .L124
 1167 0002 044A     		ldr	r2, .L124+4
 1168 0004 1B78     		ldrb	r3, [r3]	@ zero_extendqisi2
 1169 0006 C3EBC303 		rsb	r3, r3, r3, lsl #3
 1170 000a 1344     		add	r3, r3, r2
 1171 000c 9879     		ldrb	r0, [r3, #6]	@ zero_extendqisi2
 884:Generated_Source\PSoC5/USBUART_cdc.c **** }
 1172              		.loc 1 884 0
 1173 000e 7047     		bx	lr
 1174              	.L125:
 1175              		.align	2
 1176              	.L124:
 1177 0010 00000000 		.word	.LANCHOR1
 1178 0014 00000000 		.word	.LANCHOR0
 1179              		.cfi_endproc
 1180              	.LFE18:
 1181              		.size	USBUART_GetDataBits, .-USBUART_GetDataBits
 1182              		.section	.text.USBUART_GetLineControl,"ax",%progbits
 1183              		.align	2
 1184              		.global	USBUART_GetLineControl
 1185              		.thumb
 1186              		.thumb_func
 1187              		.type	USBUART_GetLineControl, %function
 1188              	USBUART_GetLineControl:
 1189              	.LFB19:
 885:Generated_Source\PSoC5/USBUART_cdc.c **** 
 886:Generated_Source\PSoC5/USBUART_cdc.c **** 
 887:Generated_Source\PSoC5/USBUART_cdc.c **** /***************************************************************************
 888:Generated_Source\PSoC5/USBUART_cdc.c **** * Function Name: USBUART_GetLineControl
 889:Generated_Source\PSoC5/USBUART_cdc.c **** ************************************************************************//**
 890:Generated_Source\PSoC5/USBUART_cdc.c **** *
ARM GAS  C:\Users\ingan\AppData\Local\Temp\cc00nNWn.s 			page 39


 891:Generated_Source\PSoC5/USBUART_cdc.c **** *  This function returns Line control bitmap that the host sends to the
 892:Generated_Source\PSoC5/USBUART_cdc.c **** *  device.
 893:Generated_Source\PSoC5/USBUART_cdc.c **** *
 894:Generated_Source\PSoC5/USBUART_cdc.c **** * \return
 895:Generated_Source\PSoC5/USBUART_cdc.c **** *  Returns Line control bitmap.
 896:Generated_Source\PSoC5/USBUART_cdc.c **** *  Return                   |Value Notes
 897:Generated_Source\PSoC5/USBUART_cdc.c **** *  -------------------------|-----------------------------------------------
 898:Generated_Source\PSoC5/USBUART_cdc.c **** *  USBUART_LINE_CONTROL_DTR |Indicates that a DTR signal is present. This signal corresponds to V.2
 899:Generated_Source\PSoC5/USBUART_cdc.c **** *  USBUART_LINE_CONTROL_RTS |Carrier control for half-duplex modems. This signal corresponds to V.2
 900:Generated_Source\PSoC5/USBUART_cdc.c **** *  RESERVED                 |The rest of the bits are reserved.
 901:Generated_Source\PSoC5/USBUART_cdc.c **** *
 902:Generated_Source\PSoC5/USBUART_cdc.c **** *  *Note* Some terminal emulation programs do not properly handle these
 903:Generated_Source\PSoC5/USBUART_cdc.c **** *  control signals. They update information about DTR and RTS state only
 904:Generated_Source\PSoC5/USBUART_cdc.c **** *  when the RTS signal changes the state.
 905:Generated_Source\PSoC5/USBUART_cdc.c **** *
 906:Generated_Source\PSoC5/USBUART_cdc.c **** * \globalvars
 907:Generated_Source\PSoC5/USBUART_cdc.c **** *  USBUART_linesControlBitmap: used to get a parameter.
 908:Generated_Source\PSoC5/USBUART_cdc.c **** *
 909:Generated_Source\PSoC5/USBUART_cdc.c **** *******************************************************************************/
 910:Generated_Source\PSoC5/USBUART_cdc.c **** uint16 USBUART_GetLineControl(void) 
 911:Generated_Source\PSoC5/USBUART_cdc.c **** {
 1190              		.loc 1 911 0
 1191              		.cfi_startproc
 1192              		@ args = 0, pretend = 0, frame = 0
 1193              		@ frame_needed = 0, uses_anonymous_args = 0
 1194              		@ link register save eliminated.
 912:Generated_Source\PSoC5/USBUART_cdc.c ****     return (USBUART_linesControlBitmap[USBUART_activeCom]);
 1195              		.loc 1 912 0
 1196 0000 034A     		ldr	r2, .L127
 1197 0002 044B     		ldr	r3, .L127+4
 1198 0004 1278     		ldrb	r2, [r2]	@ zero_extendqisi2
 1199 0006 33F81200 		ldrh	r0, [r3, r2, lsl #1]
 913:Generated_Source\PSoC5/USBUART_cdc.c **** }
 1200              		.loc 1 913 0
 1201 000a 80B2     		uxth	r0, r0
 1202 000c 7047     		bx	lr
 1203              	.L128:
 1204 000e 00BF     		.align	2
 1205              	.L127:
 1206 0010 00000000 		.word	.LANCHOR1
 1207 0014 00000000 		.word	USBUART_linesControlBitmap
 1208              		.cfi_endproc
 1209              	.LFE19:
 1210              		.size	USBUART_GetLineControl, .-USBUART_GetLineControl
 1211              		.section	.text.USBUART_SendSerialState,"ax",%progbits
 1212              		.align	2
 1213              		.global	USBUART_SendSerialState
 1214              		.thumb
 1215              		.thumb_func
 1216              		.type	USBUART_SendSerialState, %function
 1217              	USBUART_SendSerialState:
 1218              	.LFB20:
 914:Generated_Source\PSoC5/USBUART_cdc.c **** 
 915:Generated_Source\PSoC5/USBUART_cdc.c **** 
 916:Generated_Source\PSoC5/USBUART_cdc.c **** /*******************************************************************************
 917:Generated_Source\PSoC5/USBUART_cdc.c **** * Function Name: USBUART_SendSerialState
 918:Generated_Source\PSoC5/USBUART_cdc.c **** ****************************************************************************//**
ARM GAS  C:\Users\ingan\AppData\Local\Temp\cc00nNWn.s 			page 40


 919:Generated_Source\PSoC5/USBUART_cdc.c **** *
 920:Generated_Source\PSoC5/USBUART_cdc.c **** *  Sends the serial state notification to the host using the interrupt
 921:Generated_Source\PSoC5/USBUART_cdc.c **** *  endpoint for the COM port selected using the API SetComPort().The
 922:Generated_Source\PSoC5/USBUART_cdc.c **** *  USBUART_NotificationIsReady() API must be called to check if the
 923:Generated_Source\PSoC5/USBUART_cdc.c **** *  Component is ready to send more serial state to the host. The API will
 924:Generated_Source\PSoC5/USBUART_cdc.c **** *  not send the notification data if the interrupt endpoint Max Packet Size
 925:Generated_Source\PSoC5/USBUART_cdc.c **** *  is less than the required 10 bytes.
 926:Generated_Source\PSoC5/USBUART_cdc.c **** *
 927:Generated_Source\PSoC5/USBUART_cdc.c **** * \param uint16 serialState
 928:Generated_Source\PSoC5/USBUART_cdc.c **** *  16-bit value that will be sent from the device to the
 929:Generated_Source\PSoC5/USBUART_cdc.c **** *  host as SERIAL_STATE notification using the IN interrupt endpoint. Refer
 930:Generated_Source\PSoC5/USBUART_cdc.c **** *  to revision 1.2 of the CDC PSTN Subclass specification for bit field
 931:Generated_Source\PSoC5/USBUART_cdc.c **** *  definitions of the 16-bit serial state value.
 932:Generated_Source\PSoC5/USBUART_cdc.c **** *
 933:Generated_Source\PSoC5/USBUART_cdc.c **** *******************************************************************************/
 934:Generated_Source\PSoC5/USBUART_cdc.c **** void USBUART_SendSerialState (uint16 serialState) 
 935:Generated_Source\PSoC5/USBUART_cdc.c **** {
 1219              		.loc 1 935 0
 1220              		.cfi_startproc
 1221              		@ args = 0, pretend = 0, frame = 0
 1222              		@ frame_needed = 0, uses_anonymous_args = 0
 1223              		@ link register save eliminated.
 1224              	.LVL100:
 1225 0000 F0B4     		push	{r4, r5, r6, r7}
 1226              		.cfi_def_cfa_offset 16
 1227              		.cfi_offset 4, -16
 1228              		.cfi_offset 5, -12
 1229              		.cfi_offset 6, -8
 1230              		.cfi_offset 7, -4
 936:Generated_Source\PSoC5/USBUART_cdc.c ****     uint8 epNumber = USBUART_cdcCommInInterruptEp[USBUART_activeCom];
 1231              		.loc 1 936 0
 1232 0002 124A     		ldr	r2, .L133
 1233 0004 124B     		ldr	r3, .L133+4
 1234 0006 1478     		ldrb	r4, [r2]	@ zero_extendqisi2
 937:Generated_Source\PSoC5/USBUART_cdc.c **** 
 938:Generated_Source\PSoC5/USBUART_cdc.c ****     if(USBUART_SERIAL_STATE_SIZE <= USBUART_EP[epNumber].bufferSize)
 1235              		.loc 1 938 0
 1236 0008 124A     		ldr	r2, .L133+8
 936:Generated_Source\PSoC5/USBUART_cdc.c ****     uint8 epNumber = USBUART_cdcCommInInterruptEp[USBUART_activeCom];
 1237              		.loc 1 936 0
 1238 000a 1B5D     		ldrb	r3, [r3, r4]	@ zero_extendqisi2
 1239 000c DBB2     		uxtb	r3, r3
 1240              	.LVL101:
 1241              		.loc 1 938 0
 1242 000e 03EB4301 		add	r1, r3, r3, lsl #1
 1243 0012 02EB8102 		add	r2, r2, r1, lsl #2
 1244 0016 1189     		ldrh	r1, [r2, #8]
 1245 0018 89B2     		uxth	r1, r1
 1246 001a 0929     		cmp	r1, #9
 1247 001c 01D8     		bhi	.L132
 939:Generated_Source\PSoC5/USBUART_cdc.c ****     {
 940:Generated_Source\PSoC5/USBUART_cdc.c ****         /* Save current SERIAL_STATE bitmap. */
 941:Generated_Source\PSoC5/USBUART_cdc.c ****         USBUART_serialStateBitmap[USBUART_activeCom] = serialState;
 942:Generated_Source\PSoC5/USBUART_cdc.c **** 
 943:Generated_Source\PSoC5/USBUART_cdc.c ****         /* Add interface number */
 944:Generated_Source\PSoC5/USBUART_cdc.c ****         USBUART_serialStateNotification.wIndex = USBUART_EP[epNumber].interface;
 945:Generated_Source\PSoC5/USBUART_cdc.c **** 
ARM GAS  C:\Users\ingan\AppData\Local\Temp\cc00nNWn.s 			page 41


 946:Generated_Source\PSoC5/USBUART_cdc.c ****         /*Form SERIAL_STATE data*/
 947:Generated_Source\PSoC5/USBUART_cdc.c ****         USBUART_serialStateNotification.wSerialState =    LO8(USBUART_serialStateBitmap[USBUART_act
 948:Generated_Source\PSoC5/USBUART_cdc.c ****         USBUART_serialStateNotification.wSerialStateMSB = HI8(USBUART_serialStateBitmap[USBUART_act
 949:Generated_Source\PSoC5/USBUART_cdc.c **** 
 950:Generated_Source\PSoC5/USBUART_cdc.c ****         USBUART_LoadInEP(epNumber, (uint8 *) &USBUART_serialStateNotification, sizeof(USBUART_seria
 951:Generated_Source\PSoC5/USBUART_cdc.c ****     }
 952:Generated_Source\PSoC5/USBUART_cdc.c **** }
 1248              		.loc 1 952 0
 1249 001e F0BC     		pop	{r4, r5, r6, r7}
 1250              		.cfi_remember_state
 1251              		.cfi_restore 7
 1252              		.cfi_restore 6
 1253              		.cfi_restore 5
 1254              		.cfi_restore 4
 1255              		.cfi_def_cfa_offset 0
 1256 0020 7047     		bx	lr
 1257              	.L132:
 1258              		.cfi_restore_state
 941:Generated_Source\PSoC5/USBUART_cdc.c **** 
 1259              		.loc 1 941 0
 1260 0022 0D49     		ldr	r1, .L133+12
 944:Generated_Source\PSoC5/USBUART_cdc.c **** 
 1261              		.loc 1 944 0
 1262 0024 0D4D     		ldr	r5, .L133+16
 941:Generated_Source\PSoC5/USBUART_cdc.c **** 
 1263              		.loc 1 941 0
 1264 0026 21F81400 		strh	r0, [r1, r4, lsl #1]	@ movhi
 944:Generated_Source\PSoC5/USBUART_cdc.c **** 
 1265              		.loc 1 944 0
 1266 002a 977A     		ldrb	r7, [r2, #10]	@ zero_extendqisi2
 947:Generated_Source\PSoC5/USBUART_cdc.c ****         USBUART_serialStateNotification.wSerialStateMSB = HI8(USBUART_serialStateBitmap[USBUART_act
 1267              		.loc 1 947 0
 1268 002c 31F81460 		ldrh	r6, [r1, r4, lsl #1]
 948:Generated_Source\PSoC5/USBUART_cdc.c **** 
 1269              		.loc 1 948 0
 1270 0030 31F81420 		ldrh	r2, [r1, r4, lsl #1]
 950:Generated_Source\PSoC5/USBUART_cdc.c ****     }
 1271              		.loc 1 950 0
 1272 0034 1846     		mov	r0, r3
 1273              	.LVL102:
 948:Generated_Source\PSoC5/USBUART_cdc.c **** 
 1274              		.loc 1 948 0
 1275 0036 C2F30723 		ubfx	r3, r2, #8, #8
 1276              	.LVL103:
 950:Generated_Source\PSoC5/USBUART_cdc.c ****     }
 1277              		.loc 1 950 0
 1278 003a 05F11001 		add	r1, r5, #16
 1279              	.LVL104:
 944:Generated_Source\PSoC5/USBUART_cdc.c **** 
 1280              		.loc 1 944 0
 1281 003e 2F75     		strb	r7, [r5, #20]
 947:Generated_Source\PSoC5/USBUART_cdc.c ****         USBUART_serialStateNotification.wSerialStateMSB = HI8(USBUART_serialStateBitmap[USBUART_act
 1282              		.loc 1 947 0
 1283 0040 2E76     		strb	r6, [r5, #24]
 948:Generated_Source\PSoC5/USBUART_cdc.c **** 
 1284              		.loc 1 948 0
 1285 0042 6B76     		strb	r3, [r5, #25]
ARM GAS  C:\Users\ingan\AppData\Local\Temp\cc00nNWn.s 			page 42


 950:Generated_Source\PSoC5/USBUART_cdc.c ****     }
 1286              		.loc 1 950 0
 1287 0044 0A22     		movs	r2, #10
 1288              		.loc 1 952 0
 1289 0046 F0BC     		pop	{r4, r5, r6, r7}
 1290              		.cfi_restore 7
 1291              		.cfi_restore 6
 1292              		.cfi_restore 5
 1293              		.cfi_restore 4
 1294              		.cfi_def_cfa_offset 0
 1295              	.LVL105:
 950:Generated_Source\PSoC5/USBUART_cdc.c ****     }
 1296              		.loc 1 950 0
 1297 0048 FFF7FEBF 		b	USBUART_LoadInEP
 1298              	.LVL106:
 1299              	.L134:
 1300              		.align	2
 1301              	.L133:
 1302 004c 00000000 		.word	.LANCHOR1
 1303 0050 00000000 		.word	USBUART_cdcCommInInterruptEp
 1304 0054 00000000 		.word	USBUART_EP
 1305 0058 00000000 		.word	USBUART_serialStateBitmap
 1306 005c 00000000 		.word	.LANCHOR0
 1307              		.cfi_endproc
 1308              	.LFE20:
 1309              		.size	USBUART_SendSerialState, .-USBUART_SendSerialState
 1310              		.section	.text.USBUART_GetSerialState,"ax",%progbits
 1311              		.align	2
 1312              		.global	USBUART_GetSerialState
 1313              		.thumb
 1314              		.thumb_func
 1315              		.type	USBUART_GetSerialState, %function
 1316              	USBUART_GetSerialState:
 1317              	.LFB21:
 953:Generated_Source\PSoC5/USBUART_cdc.c **** 
 954:Generated_Source\PSoC5/USBUART_cdc.c **** 
 955:Generated_Source\PSoC5/USBUART_cdc.c **** /*******************************************************************************
 956:Generated_Source\PSoC5/USBUART_cdc.c **** * Function Name: USBUART_GetSerialState
 957:Generated_Source\PSoC5/USBUART_cdc.c **** ****************************************************************************//**
 958:Generated_Source\PSoC5/USBUART_cdc.c **** *
 959:Generated_Source\PSoC5/USBUART_cdc.c **** *  This function returns the current serial state value for the COM port
 960:Generated_Source\PSoC5/USBUART_cdc.c **** *  selected using the API SetComPort().
 961:Generated_Source\PSoC5/USBUART_cdc.c **** *
 962:Generated_Source\PSoC5/USBUART_cdc.c **** * \return
 963:Generated_Source\PSoC5/USBUART_cdc.c **** *  16-bit serial state value. Refer to revision 1.2 of the CDC PSTN Subclass
 964:Generated_Source\PSoC5/USBUART_cdc.c **** *  specification for bit field definitions of the 16-bit serial state value.
 965:Generated_Source\PSoC5/USBUART_cdc.c **** *
 966:Generated_Source\PSoC5/USBUART_cdc.c **** *******************************************************************************/
 967:Generated_Source\PSoC5/USBUART_cdc.c **** uint16 USBUART_GetSerialState(void) 
 968:Generated_Source\PSoC5/USBUART_cdc.c **** {
 1318              		.loc 1 968 0
 1319              		.cfi_startproc
 1320              		@ args = 0, pretend = 0, frame = 0
 1321              		@ frame_needed = 0, uses_anonymous_args = 0
 1322              		@ link register save eliminated.
 969:Generated_Source\PSoC5/USBUART_cdc.c ****     return USBUART_serialStateBitmap[USBUART_activeCom];
 1323              		.loc 1 969 0
ARM GAS  C:\Users\ingan\AppData\Local\Temp\cc00nNWn.s 			page 43


 1324 0000 034A     		ldr	r2, .L136
 1325 0002 044B     		ldr	r3, .L136+4
 1326 0004 1278     		ldrb	r2, [r2]	@ zero_extendqisi2
 1327 0006 33F81200 		ldrh	r0, [r3, r2, lsl #1]
 970:Generated_Source\PSoC5/USBUART_cdc.c **** }
 1328              		.loc 1 970 0
 1329 000a 80B2     		uxth	r0, r0
 1330 000c 7047     		bx	lr
 1331              	.L137:
 1332 000e 00BF     		.align	2
 1333              	.L136:
 1334 0010 00000000 		.word	.LANCHOR1
 1335 0014 00000000 		.word	USBUART_serialStateBitmap
 1336              		.cfi_endproc
 1337              	.LFE21:
 1338              		.size	USBUART_GetSerialState, .-USBUART_GetSerialState
 1339              		.section	.text.USBUART_NotificationIsReady,"ax",%progbits
 1340              		.align	2
 1341              		.global	USBUART_NotificationIsReady
 1342              		.thumb
 1343              		.thumb_func
 1344              		.type	USBUART_NotificationIsReady, %function
 1345              	USBUART_NotificationIsReady:
 1346              	.LFB22:
 971:Generated_Source\PSoC5/USBUART_cdc.c **** 
 972:Generated_Source\PSoC5/USBUART_cdc.c **** 
 973:Generated_Source\PSoC5/USBUART_cdc.c **** /*******************************************************************************
 974:Generated_Source\PSoC5/USBUART_cdc.c **** * Function Name: USBUART_NotificationIsReady
 975:Generated_Source\PSoC5/USBUART_cdc.c **** ****************************************************************************//**
 976:Generated_Source\PSoC5/USBUART_cdc.c **** *
 977:Generated_Source\PSoC5/USBUART_cdc.c **** *  This function returns a non-zero value if the Component is ready to send
 978:Generated_Source\PSoC5/USBUART_cdc.c **** *  more notifications to the host; otherwise, it returns zero. The function
 979:Generated_Source\PSoC5/USBUART_cdc.c **** *  should be called before sending new notifications when using
 980:Generated_Source\PSoC5/USBUART_cdc.c **** *  USBUART_SendSerialState() to ensure that any previous
 981:Generated_Source\PSoC5/USBUART_cdc.c **** *  notification data has been already sent to the host.
 982:Generated_Source\PSoC5/USBUART_cdc.c **** *
 983:Generated_Source\PSoC5/USBUART_cdc.c **** * \return
 984:Generated_Source\PSoC5/USBUART_cdc.c **** *  If the buffer can accept new data(endpoint buffer not full), this
 985:Generated_Source\PSoC5/USBUART_cdc.c **** *  function returns a non-zero value. Otherwise, it returns zero.
 986:Generated_Source\PSoC5/USBUART_cdc.c **** *
 987:Generated_Source\PSoC5/USBUART_cdc.c **** * \globalvars
 988:Generated_Source\PSoC5/USBUART_cdc.c **** *   USBUART_cdcDataInEp: CDC IN endpoint number used.
 989:Generated_Source\PSoC5/USBUART_cdc.c **** *
 990:Generated_Source\PSoC5/USBUART_cdc.c **** *******************************************************************************/
 991:Generated_Source\PSoC5/USBUART_cdc.c **** uint8 USBUART_NotificationIsReady(void) 
 992:Generated_Source\PSoC5/USBUART_cdc.c **** {
 1347              		.loc 1 992 0
 1348              		.cfi_startproc
 1349              		@ args = 0, pretend = 0, frame = 0
 1350              		@ frame_needed = 0, uses_anonymous_args = 0
 1351              		@ link register save eliminated.
 993:Generated_Source\PSoC5/USBUART_cdc.c ****     return (USBUART_EP[USBUART_cdcCommInInterruptEp[USBUART_activeCom]].apiEpState);
 1352              		.loc 1 993 0
 1353 0000 054B     		ldr	r3, .L139
 1354 0002 0649     		ldr	r1, .L139+4
 1355 0004 1B78     		ldrb	r3, [r3]	@ zero_extendqisi2
 1356 0006 064A     		ldr	r2, .L139+8
ARM GAS  C:\Users\ingan\AppData\Local\Temp\cc00nNWn.s 			page 44


 1357 0008 CB5C     		ldrb	r3, [r1, r3]	@ zero_extendqisi2
 1358 000a 03EB4303 		add	r3, r3, r3, lsl #1
 1359 000e 02EB8303 		add	r3, r2, r3, lsl #2
 1360 0012 5878     		ldrb	r0, [r3, #1]	@ zero_extendqisi2
 994:Generated_Source\PSoC5/USBUART_cdc.c **** }
 1361              		.loc 1 994 0
 1362 0014 7047     		bx	lr
 1363              	.L140:
 1364 0016 00BF     		.align	2
 1365              	.L139:
 1366 0018 00000000 		.word	.LANCHOR1
 1367 001c 00000000 		.word	USBUART_cdcCommInInterruptEp
 1368 0020 00000000 		.word	USBUART_EP
 1369              		.cfi_endproc
 1370              	.LFE22:
 1371              		.size	USBUART_NotificationIsReady, .-USBUART_NotificationIsReady
 1372              		.section	.text.USBUART_SetComPort,"ax",%progbits
 1373              		.align	2
 1374              		.global	USBUART_SetComPort
 1375              		.thumb
 1376              		.thumb_func
 1377              		.type	USBUART_SetComPort, %function
 1378              	USBUART_SetComPort:
 1379              	.LFB23:
 995:Generated_Source\PSoC5/USBUART_cdc.c **** 
 996:Generated_Source\PSoC5/USBUART_cdc.c **** 
 997:Generated_Source\PSoC5/USBUART_cdc.c **** /*******************************************************************************
 998:Generated_Source\PSoC5/USBUART_cdc.c **** * Function Name: USBUART_SetComPort
 999:Generated_Source\PSoC5/USBUART_cdc.c **** ****************************************************************************//**
1000:Generated_Source\PSoC5/USBUART_cdc.c **** *
1001:Generated_Source\PSoC5/USBUART_cdc.c **** *  This function allows the user to select from one of the two COM ports
1002:Generated_Source\PSoC5/USBUART_cdc.c **** *  they wish to address in the instance of having multiple COM ports
1003:Generated_Source\PSoC5/USBUART_cdc.c **** *  instantiated though the use of a composite device. Once set, all future
1004:Generated_Source\PSoC5/USBUART_cdc.c **** *  function calls related to the USBUART will be affected. This addressed
1005:Generated_Source\PSoC5/USBUART_cdc.c **** *  COM port can be changed during run time.
1006:Generated_Source\PSoC5/USBUART_cdc.c **** *
1007:Generated_Source\PSoC5/USBUART_cdc.c **** * \param comNumber
1008:Generated_Source\PSoC5/USBUART_cdc.c **** *  Contains the COM interface the user wishes to address. Value can either
1009:Generated_Source\PSoC5/USBUART_cdc.c **** *  be 0 or 1 since a maximum of only 2 COM ports can be supported. Note that
1010:Generated_Source\PSoC5/USBUART_cdc.c **** *  this COM port number is not the COM port number assigned on the PC side
1011:Generated_Source\PSoC5/USBUART_cdc.c **** *  for the UART communication. If a value greater than 1 is passed, the
1012:Generated_Source\PSoC5/USBUART_cdc.c **** *  function returns without performing any action.
1013:Generated_Source\PSoC5/USBUART_cdc.c **** *
1014:Generated_Source\PSoC5/USBUART_cdc.c **** *******************************************************************************/
1015:Generated_Source\PSoC5/USBUART_cdc.c **** void USBUART_SetComPort(uint8 comNumber) 
1016:Generated_Source\PSoC5/USBUART_cdc.c **** {
 1380              		.loc 1 1016 0
 1381              		.cfi_startproc
 1382              		@ args = 0, pretend = 0, frame = 0
 1383              		@ frame_needed = 0, uses_anonymous_args = 0
 1384              		@ link register save eliminated.
 1385              	.LVL107:
1017:Generated_Source\PSoC5/USBUART_cdc.c ****     if ((USBUART_activeCom != comNumber) && \
 1386              		.loc 1 1017 0
 1387 0000 034B     		ldr	r3, .L143
 1388 0002 1A78     		ldrb	r2, [r3]	@ zero_extendqisi2
 1389 0004 8242     		cmp	r2, r0
ARM GAS  C:\Users\ingan\AppData\Local\Temp\cc00nNWn.s 			page 45


 1390 0006 02D0     		beq	.L141
 1391              		.loc 1 1017 0 is_stmt 0 discriminator 1
 1392 0008 0128     		cmp	r0, #1
1018:Generated_Source\PSoC5/USBUART_cdc.c ****             (comNumber < USBUART_MAX_MULTI_COM_NUM ))
1019:Generated_Source\PSoC5/USBUART_cdc.c ****     {
1020:Generated_Source\PSoC5/USBUART_cdc.c ****         USBUART_activeCom = comNumber;
 1393              		.loc 1 1020 0 is_stmt 1 discriminator 1
 1394 000a 98BF     		it	ls
 1395 000c 1870     		strbls	r0, [r3]
 1396              	.L141:
 1397 000e 7047     		bx	lr
 1398              	.L144:
 1399              		.align	2
 1400              	.L143:
 1401 0010 00000000 		.word	.LANCHOR1
 1402              		.cfi_endproc
 1403              	.LFE23:
 1404              		.size	USBUART_SetComPort, .-USBUART_SetComPort
 1405              		.section	.text.USBUART_GetComPort,"ax",%progbits
 1406              		.align	2
 1407              		.global	USBUART_GetComPort
 1408              		.thumb
 1409              		.thumb_func
 1410              		.type	USBUART_GetComPort, %function
 1411              	USBUART_GetComPort:
 1412              	.LFB24:
1021:Generated_Source\PSoC5/USBUART_cdc.c ****     }
1022:Generated_Source\PSoC5/USBUART_cdc.c **** }
1023:Generated_Source\PSoC5/USBUART_cdc.c **** 
1024:Generated_Source\PSoC5/USBUART_cdc.c **** 
1025:Generated_Source\PSoC5/USBUART_cdc.c **** /*******************************************************************************
1026:Generated_Source\PSoC5/USBUART_cdc.c **** * Function Name: USBUART_GetComPort
1027:Generated_Source\PSoC5/USBUART_cdc.c **** ****************************************************************************//**
1028:Generated_Source\PSoC5/USBUART_cdc.c **** *
1029:Generated_Source\PSoC5/USBUART_cdc.c **** *  This function returns the current selected COM port that the user is
1030:Generated_Source\PSoC5/USBUART_cdc.c **** *  currently addressing in the instance of having multiple COM ports
1031:Generated_Source\PSoC5/USBUART_cdc.c **** *  instantiated though the use of a composite device.
1032:Generated_Source\PSoC5/USBUART_cdc.c **** *
1033:Generated_Source\PSoC5/USBUART_cdc.c **** * \return
1034:Generated_Source\PSoC5/USBUART_cdc.c **** *  Returns the currently selected COM port. Value can either be 0 or 1 since
1035:Generated_Source\PSoC5/USBUART_cdc.c **** *  a maximum of only 2 COM ports can be supported. . Note that this COM port
1036:Generated_Source\PSoC5/USBUART_cdc.c **** *  number is not the COM port number assigned on the PC side for the UART
1037:Generated_Source\PSoC5/USBUART_cdc.c **** *  communication.
1038:Generated_Source\PSoC5/USBUART_cdc.c **** *
1039:Generated_Source\PSoC5/USBUART_cdc.c **** *******************************************************************************/
1040:Generated_Source\PSoC5/USBUART_cdc.c **** uint8 USBUART_GetComPort(void) 
1041:Generated_Source\PSoC5/USBUART_cdc.c **** {
 1413              		.loc 1 1041 0
 1414              		.cfi_startproc
 1415              		@ args = 0, pretend = 0, frame = 0
 1416              		@ frame_needed = 0, uses_anonymous_args = 0
 1417              		@ link register save eliminated.
1042:Generated_Source\PSoC5/USBUART_cdc.c ****     return (USBUART_activeCom);
 1418              		.loc 1 1042 0
 1419 0000 014B     		ldr	r3, .L146
1043:Generated_Source\PSoC5/USBUART_cdc.c **** }
 1420              		.loc 1 1043 0
ARM GAS  C:\Users\ingan\AppData\Local\Temp\cc00nNWn.s 			page 46


 1421 0002 1878     		ldrb	r0, [r3]	@ zero_extendqisi2
 1422 0004 7047     		bx	lr
 1423              	.L147:
 1424 0006 00BF     		.align	2
 1425              	.L146:
 1426 0008 00000000 		.word	.LANCHOR1
 1427              		.cfi_endproc
 1428              	.LFE24:
 1429              		.size	USBUART_GetComPort, .-USBUART_GetComPort
 1430              		.section	.text.USBUART_Cdc_EpInit,"ax",%progbits
 1431              		.align	2
 1432              		.global	USBUART_Cdc_EpInit
 1433              		.thumb
 1434              		.thumb_func
 1435              		.type	USBUART_Cdc_EpInit, %function
 1436              	USBUART_Cdc_EpInit:
 1437              	.LFB25:
1044:Generated_Source\PSoC5/USBUART_cdc.c **** 
1045:Generated_Source\PSoC5/USBUART_cdc.c **** 
1046:Generated_Source\PSoC5/USBUART_cdc.c **** #endif  /* (USBUART_ENABLE_CDC_CLASS_API) */
1047:Generated_Source\PSoC5/USBUART_cdc.c **** 
1048:Generated_Source\PSoC5/USBUART_cdc.c **** 
1049:Generated_Source\PSoC5/USBUART_cdc.c **** /***************************************************************************
1050:Generated_Source\PSoC5/USBUART_cdc.c **** * Function Name: USBUART_Cdc_EpInit
1051:Generated_Source\PSoC5/USBUART_cdc.c **** ************************************************************************//**
1052:Generated_Source\PSoC5/USBUART_cdc.c **** *
1053:Generated_Source\PSoC5/USBUART_cdc.c **** *  \internal
1054:Generated_Source\PSoC5/USBUART_cdc.c **** *  This routine decide type of endpoint (IN, OUT, Notification) and same to
1055:Generated_Source\PSoC5/USBUART_cdc.c **** *   appropriate global variables  according to COM port number.
1056:Generated_Source\PSoC5/USBUART_cdc.c **** *   USBUART_cdcDataInEp[], USBUART_cdcCommInInterruptEp[],
1057:Generated_Source\PSoC5/USBUART_cdc.c **** *   USBUART_cdcDataOutEp[]
1058:Generated_Source\PSoC5/USBUART_cdc.c **** *
1059:Generated_Source\PSoC5/USBUART_cdc.c **** * \param pEP: Pointer to structure with current EP description.
1060:Generated_Source\PSoC5/USBUART_cdc.c **** * \param epNum: EP number
1061:Generated_Source\PSoC5/USBUART_cdc.c **** * \param cdcComNums: Bit array of current COM ports for CDC IN, OUT,
1062:Generated_Source\PSoC5/USBUART_cdc.c **** *        and notification EPs(0 - COM port 1, 1- COM port 2)
1063:Generated_Source\PSoC5/USBUART_cdc.c **** *
1064:Generated_Source\PSoC5/USBUART_cdc.c **** * \return
1065:Generated_Source\PSoC5/USBUART_cdc.c **** *  Updated cdcComNums
1066:Generated_Source\PSoC5/USBUART_cdc.c **** *
1067:Generated_Source\PSoC5/USBUART_cdc.c **** * \reentrant
1068:Generated_Source\PSoC5/USBUART_cdc.c **** *  No.
1069:Generated_Source\PSoC5/USBUART_cdc.c **** *
1070:Generated_Source\PSoC5/USBUART_cdc.c **** ***************************************************************************/
1071:Generated_Source\PSoC5/USBUART_cdc.c **** uint8 USBUART_Cdc_EpInit(const T_USBUART_EP_SETTINGS_BLOCK CYCODE *pEP, uint8 epNum, uint8 cdcComNu
1072:Generated_Source\PSoC5/USBUART_cdc.c **** {
 1438              		.loc 1 1072 0
 1439              		.cfi_startproc
 1440              		@ args = 0, pretend = 0, frame = 0
 1441              		@ frame_needed = 0, uses_anonymous_args = 0
 1442              		@ link register save eliminated.
 1443              	.LVL108:
1073:Generated_Source\PSoC5/USBUART_cdc.c ****     uint8 epType;
1074:Generated_Source\PSoC5/USBUART_cdc.c **** 
1075:Generated_Source\PSoC5/USBUART_cdc.c ****     epType = pEP->attributes & USBUART_EP_TYPE_MASK;
 1444              		.loc 1 1075 0
 1445 0000 C378     		ldrb	r3, [r0, #3]	@ zero_extendqisi2
ARM GAS  C:\Users\ingan\AppData\Local\Temp\cc00nNWn.s 			page 47


1076:Generated_Source\PSoC5/USBUART_cdc.c **** 
1077:Generated_Source\PSoC5/USBUART_cdc.c ****     if (0u != (pEP->addr & USBUART_DIR_IN))
 1446              		.loc 1 1077 0
 1447 0002 90F90200 		ldrsb	r0, [r0, #2]
 1448              	.LVL109:
1075:Generated_Source\PSoC5/USBUART_cdc.c **** 
 1449              		.loc 1 1075 0
 1450 0006 03F00303 		and	r3, r3, #3
 1451              	.LVL110:
 1452              		.loc 1 1077 0
 1453 000a 0028     		cmp	r0, #0
 1454 000c 09DB     		blt	.L155
1078:Generated_Source\PSoC5/USBUART_cdc.c ****     {
1079:Generated_Source\PSoC5/USBUART_cdc.c ****         if (epType != USBUART_EP_TYPE_INT)
1080:Generated_Source\PSoC5/USBUART_cdc.c ****         {
1081:Generated_Source\PSoC5/USBUART_cdc.c ****             USBUART_cdcDataInEp[USBUART_GET_EP_COM_NUM(cdcComNums, USBUART_CDC_IN_EP)] = epNum;
1082:Generated_Source\PSoC5/USBUART_cdc.c ****             cdcComNums |= (uint8)(USBUART_COM_PORT2 << USBUART_CDC_IN_EP);
1083:Generated_Source\PSoC5/USBUART_cdc.c ****         }
1084:Generated_Source\PSoC5/USBUART_cdc.c ****         else
1085:Generated_Source\PSoC5/USBUART_cdc.c ****         {
1086:Generated_Source\PSoC5/USBUART_cdc.c **** 
1087:Generated_Source\PSoC5/USBUART_cdc.c ****             USBUART_cdcCommInInterruptEp[USBUART_GET_EP_COM_NUM(cdcComNums, USBUART_CDC_NOTE_EP)] =
1088:Generated_Source\PSoC5/USBUART_cdc.c ****             cdcComNums |= (uint8)(USBUART_COM_PORT2 << USBUART_CDC_NOTE_EP);
1089:Generated_Source\PSoC5/USBUART_cdc.c ****         }
1090:Generated_Source\PSoC5/USBUART_cdc.c ****     }
1091:Generated_Source\PSoC5/USBUART_cdc.c ****     else
1092:Generated_Source\PSoC5/USBUART_cdc.c ****     {
1093:Generated_Source\PSoC5/USBUART_cdc.c ****         if (epType != USBUART_EP_TYPE_INT)
 1455              		.loc 1 1093 0
 1456 000e 032B     		cmp	r3, #3
 1457 0010 05D0     		beq	.L151
1094:Generated_Source\PSoC5/USBUART_cdc.c ****         {
1095:Generated_Source\PSoC5/USBUART_cdc.c ****             USBUART_cdcDataOutEp[USBUART_GET_EP_COM_NUM(cdcComNums, USBUART_CDC_OUT_EP)] = epNum;
 1458              		.loc 1 1095 0
 1459 0012 0C48     		ldr	r0, .L156
 1460 0014 C2F34003 		ubfx	r3, r2, #1, #1
 1461              	.LVL111:
 1462 0018 C154     		strb	r1, [r0, r3]
1096:Generated_Source\PSoC5/USBUART_cdc.c ****             cdcComNums |= (uint8)(USBUART_COM_PORT2 << USBUART_CDC_OUT_EP);
 1463              		.loc 1 1096 0
 1464 001a 42F00202 		orr	r2, r2, #2
 1465              	.LVL112:
 1466              	.L151:
1097:Generated_Source\PSoC5/USBUART_cdc.c ****         }
1098:Generated_Source\PSoC5/USBUART_cdc.c ****     }
1099:Generated_Source\PSoC5/USBUART_cdc.c ****     return (cdcComNums);
1100:Generated_Source\PSoC5/USBUART_cdc.c **** }
 1467              		.loc 1 1100 0
 1468 001e 1046     		mov	r0, r2
 1469 0020 7047     		bx	lr
 1470              	.LVL113:
 1471              	.L155:
1079:Generated_Source\PSoC5/USBUART_cdc.c ****         {
 1472              		.loc 1 1079 0
 1473 0022 032B     		cmp	r3, #3
 1474 0024 07D0     		beq	.L150
1081:Generated_Source\PSoC5/USBUART_cdc.c ****             cdcComNums |= (uint8)(USBUART_COM_PORT2 << USBUART_CDC_IN_EP);
ARM GAS  C:\Users\ingan\AppData\Local\Temp\cc00nNWn.s 			page 48


 1475              		.loc 1 1081 0
 1476 0026 0848     		ldr	r0, .L156+4
 1477 0028 02F00103 		and	r3, r2, #1
 1478              	.LVL114:
1082:Generated_Source\PSoC5/USBUART_cdc.c ****         }
 1479              		.loc 1 1082 0
 1480 002c 42F00102 		orr	r2, r2, #1
 1481              	.LVL115:
1081:Generated_Source\PSoC5/USBUART_cdc.c ****             cdcComNums |= (uint8)(USBUART_COM_PORT2 << USBUART_CDC_IN_EP);
 1482              		.loc 1 1081 0
 1483 0030 C154     		strb	r1, [r0, r3]
 1484              		.loc 1 1100 0
 1485 0032 1046     		mov	r0, r2
 1486 0034 7047     		bx	lr
 1487              	.LVL116:
 1488              	.L150:
1087:Generated_Source\PSoC5/USBUART_cdc.c ****             cdcComNums |= (uint8)(USBUART_COM_PORT2 << USBUART_CDC_NOTE_EP);
 1489              		.loc 1 1087 0
 1490 0036 0548     		ldr	r0, .L156+8
 1491 0038 C2F38003 		ubfx	r3, r2, #2, #1
 1492              	.LVL117:
 1493 003c C154     		strb	r1, [r0, r3]
1088:Generated_Source\PSoC5/USBUART_cdc.c ****         }
 1494              		.loc 1 1088 0
 1495 003e 42F00402 		orr	r2, r2, #4
 1496              	.LVL118:
 1497 0042 ECE7     		b	.L151
 1498              	.L157:
 1499              		.align	2
 1500              	.L156:
 1501 0044 00000000 		.word	USBUART_cdcDataOutEp
 1502 0048 00000000 		.word	USBUART_cdcDataInEp
 1503 004c 00000000 		.word	USBUART_cdcCommInInterruptEp
 1504              		.cfi_endproc
 1505              	.LFE25:
 1506              		.size	USBUART_Cdc_EpInit, .-USBUART_Cdc_EpInit
 1507              		.comm	USBUART_cdcCommInInterruptEp,2,4
 1508              		.comm	USBUART_cdcDataOutEp,2,4
 1509              		.comm	USBUART_cdcDataInEp,2,4
 1510              		.comm	USBUART_serialStateBitmap,4,4
 1511              		.comm	USBUART_linesControlBitmap,4,4
 1512              		.comm	USBUART_linesChanged,2,4
 1513              		.global	USBUART_linesCoding
 1514              		.section	.rodata
 1515              		.align	2
 1516              		.set	.LANCHOR2,. + 0
 1517              	.LC0:
 1518 0000 0D       		.byte	13
 1519 0001 0A       		.byte	10
 1520              		.data
 1521              		.align	2
 1522              		.set	.LANCHOR0,. + 0
 1523              		.type	USBUART_linesCoding, %object
 1524              		.size	USBUART_linesCoding, 14
 1525              	USBUART_linesCoding:
 1526 0000 00       		.byte	0
 1527 0001 C2       		.byte	-62
ARM GAS  C:\Users\ingan\AppData\Local\Temp\cc00nNWn.s 			page 49


 1528 0002 01       		.byte	1
 1529 0003 00       		.byte	0
 1530 0004 00       		.byte	0
 1531 0005 00       		.byte	0
 1532 0006 08       		.byte	8
 1533 0007 00       		.byte	0
 1534 0008 C2       		.byte	-62
 1535 0009 01       		.byte	1
 1536 000a 00       		.byte	0
 1537 000b 00       		.byte	0
 1538 000c 00       		.byte	0
 1539 000d 08       		.byte	8
 1540 000e 0000     		.space	2
 1541              		.type	USBUART_serialStateNotification, %object
 1542              		.size	USBUART_serialStateNotification, 10
 1543              	USBUART_serialStateNotification:
 1544 0010 A1       		.byte	-95
 1545 0011 20       		.byte	32
 1546 0012 00       		.byte	0
 1547 0013 00       		.byte	0
 1548 0014 00       		.byte	0
 1549 0015 00       		.byte	0
 1550 0016 02       		.byte	2
 1551 0017 00       		.byte	0
 1552 0018 00       		.byte	0
 1553 0019 00       		.byte	0
 1554              		.bss
 1555              		.set	.LANCHOR1,. + 0
 1556              		.type	USBUART_activeCom, %object
 1557              		.size	USBUART_activeCom, 1
 1558              	USBUART_activeCom:
 1559 0000 00       		.space	1
 1560              		.text
 1561              	.Letext0:
 1562              		.file 2 "Generated_Source\\PSoC5\\cytypes.h"
 1563              		.file 3 "Generated_Source\\PSoC5\\USBUART.h"
 1564              		.file 4 "Generated_Source\\PSoC5\\USBUART_pvt.h"