ARM GAS  C:\Users\ingan\AppData\Local\Temp\cc5yuDXv.s 			page 1


   1              		.syntax unified
   2              		.cpu cortex-m3
   3              		.fpu softvfp
   4              		.eabi_attribute 20, 1
   5              		.eabi_attribute 21, 1
   6              		.eabi_attribute 23, 3
   7              		.eabi_attribute 24, 1
   8              		.eabi_attribute 25, 1
   9              		.eabi_attribute 26, 1
  10              		.eabi_attribute 30, 2
  11              		.eabi_attribute 34, 1
  12              		.eabi_attribute 18, 4
  13              		.thumb
  14              		.syntax unified
  15              		.file	"USBUART_std.c"
  16              		.text
  17              	.Ltext0:
  18              		.cfi_sections	.debug_frame
  19              		.section	.text.USBUART_ConfigAltChanged.part.0,"ax",%progbits
  20              		.align	2
  21              		.thumb
  22              		.thumb_func
  23              		.type	USBUART_ConfigAltChanged.part.0, %function
  24              	USBUART_ConfigAltChanged.part.0:
  25              	.LFB13:
  26              		.file 1 "Generated_Source\\PSoC5\\USBUART_std.c"
   1:Generated_Source\PSoC5/USBUART_std.c **** /***************************************************************************//**
   2:Generated_Source\PSoC5/USBUART_std.c **** * \file USBUART_std.c
   3:Generated_Source\PSoC5/USBUART_std.c **** * \version 3.20
   4:Generated_Source\PSoC5/USBUART_std.c **** *
   5:Generated_Source\PSoC5/USBUART_std.c **** * \brief
   6:Generated_Source\PSoC5/USBUART_std.c **** *  This file contains the USB Standard request handler.
   7:Generated_Source\PSoC5/USBUART_std.c **** *
   8:Generated_Source\PSoC5/USBUART_std.c **** ********************************************************************************
   9:Generated_Source\PSoC5/USBUART_std.c **** * \copyright
  10:Generated_Source\PSoC5/USBUART_std.c **** * Copyright 2008-2016, Cypress Semiconductor Corporation.  All rights reserved.
  11:Generated_Source\PSoC5/USBUART_std.c **** * You may use this file only in accordance with the license, terms, conditions,
  12:Generated_Source\PSoC5/USBUART_std.c **** * disclaimers, and limitations in the end user license agreement accompanying
  13:Generated_Source\PSoC5/USBUART_std.c **** * the software package with which this file was provided.
  14:Generated_Source\PSoC5/USBUART_std.c **** *******************************************************************************/
  15:Generated_Source\PSoC5/USBUART_std.c **** 
  16:Generated_Source\PSoC5/USBUART_std.c **** #include "USBUART_pvt.h"
  17:Generated_Source\PSoC5/USBUART_std.c **** 
  18:Generated_Source\PSoC5/USBUART_std.c **** /***************************************
  19:Generated_Source\PSoC5/USBUART_std.c **** *   Static data allocation
  20:Generated_Source\PSoC5/USBUART_std.c **** ***************************************/
  21:Generated_Source\PSoC5/USBUART_std.c **** 
  22:Generated_Source\PSoC5/USBUART_std.c **** #if defined(USBUART_ENABLE_FWSN_STRING)
  23:Generated_Source\PSoC5/USBUART_std.c ****     static volatile uint8* USBUART_fwSerialNumberStringDescriptor;
  24:Generated_Source\PSoC5/USBUART_std.c ****     static volatile uint8  USBUART_snStringConfirm = USBUART_FALSE;
  25:Generated_Source\PSoC5/USBUART_std.c **** #endif  /* (USBUART_ENABLE_FWSN_STRING) */
  26:Generated_Source\PSoC5/USBUART_std.c **** 
  27:Generated_Source\PSoC5/USBUART_std.c **** #if defined(USBUART_ENABLE_FWSN_STRING)
  28:Generated_Source\PSoC5/USBUART_std.c ****     /***************************************************************************
  29:Generated_Source\PSoC5/USBUART_std.c ****     * Function Name: USBUART_SerialNumString
  30:Generated_Source\PSoC5/USBUART_std.c ****     ************************************************************************//**
  31:Generated_Source\PSoC5/USBUART_std.c ****     *
ARM GAS  C:\Users\ingan\AppData\Local\Temp\cc5yuDXv.s 			page 2


  32:Generated_Source\PSoC5/USBUART_std.c ****     *  This function is available only when the User Call Back option in the 
  33:Generated_Source\PSoC5/USBUART_std.c ****     *  Serial Number String descriptor properties is selected. Application 
  34:Generated_Source\PSoC5/USBUART_std.c ****     *  firmware can provide the source of the USB device serial number string 
  35:Generated_Source\PSoC5/USBUART_std.c ****     *  descriptor during run time. The default string is used if the application 
  36:Generated_Source\PSoC5/USBUART_std.c ****     *  firmware does not use this function or sets the wrong string descriptor.
  37:Generated_Source\PSoC5/USBUART_std.c ****     *
  38:Generated_Source\PSoC5/USBUART_std.c ****     *  \param snString:  Pointer to the user-defined string descriptor. The 
  39:Generated_Source\PSoC5/USBUART_std.c ****     *  string descriptor should meet the Universal Serial Bus Specification 
  40:Generated_Source\PSoC5/USBUART_std.c ****     *  revision 2.0 chapter 9.6.7
  41:Generated_Source\PSoC5/USBUART_std.c ****     *  Offset|Size|Value|Description
  42:Generated_Source\PSoC5/USBUART_std.c ****     *  ------|----|------|---------------------------------
  43:Generated_Source\PSoC5/USBUART_std.c ****     *  0     |1   |N     |Size of this descriptor in bytes
  44:Generated_Source\PSoC5/USBUART_std.c ****     *  1     |1   |0x03  |STRING Descriptor Type
  45:Generated_Source\PSoC5/USBUART_std.c ****     *  2     |N-2 |Number|UNICODE encoded string
  46:Generated_Source\PSoC5/USBUART_std.c ****     *  
  47:Generated_Source\PSoC5/USBUART_std.c ****     * *For example:* uint8 snString[16]={0x0E,0x03,'F',0,'W',0,'S',0,'N',0,'0',0,'1',0};
  48:Generated_Source\PSoC5/USBUART_std.c ****     *
  49:Generated_Source\PSoC5/USBUART_std.c ****     * \reentrant
  50:Generated_Source\PSoC5/USBUART_std.c ****     *  No.
  51:Generated_Source\PSoC5/USBUART_std.c ****     *
  52:Generated_Source\PSoC5/USBUART_std.c ****     ***************************************************************************/
  53:Generated_Source\PSoC5/USBUART_std.c ****     void  USBUART_SerialNumString(uint8 snString[]) 
  54:Generated_Source\PSoC5/USBUART_std.c ****     {
  55:Generated_Source\PSoC5/USBUART_std.c ****         USBUART_snStringConfirm = USBUART_FALSE;
  56:Generated_Source\PSoC5/USBUART_std.c ****         
  57:Generated_Source\PSoC5/USBUART_std.c ****         if (snString != NULL)
  58:Generated_Source\PSoC5/USBUART_std.c ****         {
  59:Generated_Source\PSoC5/USBUART_std.c ****             /* Check descriptor validation */
  60:Generated_Source\PSoC5/USBUART_std.c ****             if ((snString[0u] > 1u) && (snString[1u] == USBUART_DESCR_STRING))
  61:Generated_Source\PSoC5/USBUART_std.c ****             {
  62:Generated_Source\PSoC5/USBUART_std.c ****                 USBUART_fwSerialNumberStringDescriptor = snString;
  63:Generated_Source\PSoC5/USBUART_std.c ****                 USBUART_snStringConfirm = USBUART_TRUE;
  64:Generated_Source\PSoC5/USBUART_std.c ****             }
  65:Generated_Source\PSoC5/USBUART_std.c ****         }
  66:Generated_Source\PSoC5/USBUART_std.c ****     }
  67:Generated_Source\PSoC5/USBUART_std.c **** #endif  /* USBUART_ENABLE_FWSN_STRING */
  68:Generated_Source\PSoC5/USBUART_std.c **** 
  69:Generated_Source\PSoC5/USBUART_std.c **** 
  70:Generated_Source\PSoC5/USBUART_std.c **** /*******************************************************************************
  71:Generated_Source\PSoC5/USBUART_std.c **** * Function Name: USBUART_HandleStandardRqst
  72:Generated_Source\PSoC5/USBUART_std.c **** ****************************************************************************//**
  73:Generated_Source\PSoC5/USBUART_std.c **** *
  74:Generated_Source\PSoC5/USBUART_std.c **** *  This Routine dispatches standard requests
  75:Generated_Source\PSoC5/USBUART_std.c **** *
  76:Generated_Source\PSoC5/USBUART_std.c **** *
  77:Generated_Source\PSoC5/USBUART_std.c **** * \return
  78:Generated_Source\PSoC5/USBUART_std.c **** *  TRUE if request handled.
  79:Generated_Source\PSoC5/USBUART_std.c **** *
  80:Generated_Source\PSoC5/USBUART_std.c **** * \reentrant
  81:Generated_Source\PSoC5/USBUART_std.c **** *  No.
  82:Generated_Source\PSoC5/USBUART_std.c **** *
  83:Generated_Source\PSoC5/USBUART_std.c **** *******************************************************************************/
  84:Generated_Source\PSoC5/USBUART_std.c **** uint8 USBUART_HandleStandardRqst(void) 
  85:Generated_Source\PSoC5/USBUART_std.c **** {
  86:Generated_Source\PSoC5/USBUART_std.c ****     uint8 requestHandled = USBUART_FALSE;
  87:Generated_Source\PSoC5/USBUART_std.c ****     uint8 interfaceNumber;
  88:Generated_Source\PSoC5/USBUART_std.c ****     uint8 configurationN;
ARM GAS  C:\Users\ingan\AppData\Local\Temp\cc5yuDXv.s 			page 3


  89:Generated_Source\PSoC5/USBUART_std.c ****     uint8 bmRequestType = USBUART_bmRequestTypeReg;
  90:Generated_Source\PSoC5/USBUART_std.c **** 
  91:Generated_Source\PSoC5/USBUART_std.c **** #if defined(USBUART_ENABLE_STRINGS)
  92:Generated_Source\PSoC5/USBUART_std.c ****     volatile uint8 *pStr = 0u;
  93:Generated_Source\PSoC5/USBUART_std.c ****     #if defined(USBUART_ENABLE_DESCRIPTOR_STRINGS)
  94:Generated_Source\PSoC5/USBUART_std.c ****         uint8 nStr;
  95:Generated_Source\PSoC5/USBUART_std.c ****         uint8 descrLength;
  96:Generated_Source\PSoC5/USBUART_std.c ****     #endif /* (USBUART_ENABLE_DESCRIPTOR_STRINGS) */
  97:Generated_Source\PSoC5/USBUART_std.c **** #endif /* (USBUART_ENABLE_STRINGS) */
  98:Generated_Source\PSoC5/USBUART_std.c ****     
  99:Generated_Source\PSoC5/USBUART_std.c ****     static volatile uint8 USBUART_tBuffer[USBUART_STATUS_LENGTH_MAX];
 100:Generated_Source\PSoC5/USBUART_std.c ****     const T_USBUART_LUT CYCODE *pTmp;
 101:Generated_Source\PSoC5/USBUART_std.c **** 
 102:Generated_Source\PSoC5/USBUART_std.c ****     USBUART_currentTD.count = 0u;
 103:Generated_Source\PSoC5/USBUART_std.c **** 
 104:Generated_Source\PSoC5/USBUART_std.c ****     if (USBUART_RQST_DIR_D2H == (bmRequestType & USBUART_RQST_DIR_MASK))
 105:Generated_Source\PSoC5/USBUART_std.c ****     {
 106:Generated_Source\PSoC5/USBUART_std.c ****         /* Control Read */
 107:Generated_Source\PSoC5/USBUART_std.c ****         switch (USBUART_bRequestReg)
 108:Generated_Source\PSoC5/USBUART_std.c ****         {
 109:Generated_Source\PSoC5/USBUART_std.c ****             case USBUART_GET_DESCRIPTOR:
 110:Generated_Source\PSoC5/USBUART_std.c ****                 if (USBUART_DESCR_DEVICE ==USBUART_wValueHiReg)
 111:Generated_Source\PSoC5/USBUART_std.c ****                 {
 112:Generated_Source\PSoC5/USBUART_std.c ****                     pTmp = USBUART_GetDeviceTablePtr();
 113:Generated_Source\PSoC5/USBUART_std.c ****                     USBUART_currentTD.pData = (volatile uint8 *)pTmp->p_list;
 114:Generated_Source\PSoC5/USBUART_std.c ****                     USBUART_currentTD.count = USBUART_DEVICE_DESCR_LENGTH;
 115:Generated_Source\PSoC5/USBUART_std.c ****                     
 116:Generated_Source\PSoC5/USBUART_std.c ****                     requestHandled  = USBUART_InitControlRead();
 117:Generated_Source\PSoC5/USBUART_std.c ****                 }
 118:Generated_Source\PSoC5/USBUART_std.c ****                 else if (USBUART_DESCR_CONFIG == USBUART_wValueHiReg)
 119:Generated_Source\PSoC5/USBUART_std.c ****                 {
 120:Generated_Source\PSoC5/USBUART_std.c ****                     pTmp = USBUART_GetConfigTablePtr((uint8) USBUART_wValueLoReg);
 121:Generated_Source\PSoC5/USBUART_std.c ****                     
 122:Generated_Source\PSoC5/USBUART_std.c ****                     /* Verify that requested descriptor exists */
 123:Generated_Source\PSoC5/USBUART_std.c ****                     if (pTmp != NULL)
 124:Generated_Source\PSoC5/USBUART_std.c ****                     {
 125:Generated_Source\PSoC5/USBUART_std.c ****                         USBUART_currentTD.pData = (volatile uint8 *)pTmp->p_list;
 126:Generated_Source\PSoC5/USBUART_std.c ****                         USBUART_currentTD.count = (uint16)((uint16)(USBUART_currentTD.pData)[USBUAR
 127:Generated_Source\PSoC5/USBUART_std.c ****                                                                             (USBUART_currentTD.pDat
 128:Generated_Source\PSoC5/USBUART_std.c ****                         requestHandled  = USBUART_InitControlRead();
 129:Generated_Source\PSoC5/USBUART_std.c ****                     }
 130:Generated_Source\PSoC5/USBUART_std.c ****                 }
 131:Generated_Source\PSoC5/USBUART_std.c ****                 
 132:Generated_Source\PSoC5/USBUART_std.c ****             #if(USBUART_BOS_ENABLE)
 133:Generated_Source\PSoC5/USBUART_std.c ****                 else if (USBUART_DESCR_BOS == USBUART_wValueHiReg)
 134:Generated_Source\PSoC5/USBUART_std.c ****                 {
 135:Generated_Source\PSoC5/USBUART_std.c ****                     pTmp = USBUART_GetBOSPtr();
 136:Generated_Source\PSoC5/USBUART_std.c ****                     
 137:Generated_Source\PSoC5/USBUART_std.c ****                     /* Verify that requested descriptor exists */
 138:Generated_Source\PSoC5/USBUART_std.c ****                     if (pTmp != NULL)
 139:Generated_Source\PSoC5/USBUART_std.c ****                     {
 140:Generated_Source\PSoC5/USBUART_std.c ****                         USBUART_currentTD.pData = (volatile uint8 *)pTmp;
 141:Generated_Source\PSoC5/USBUART_std.c ****                         USBUART_currentTD.count = ((uint16)((uint16)(USBUART_currentTD.pData)[USBUA
 142:Generated_Source\PSoC5/USBUART_std.c ****                                                                              (USBUART_currentTD.pDa
 143:Generated_Source\PSoC5/USBUART_std.c ****                         requestHandled  = USBUART_InitControlRead();
 144:Generated_Source\PSoC5/USBUART_std.c ****                     }
 145:Generated_Source\PSoC5/USBUART_std.c ****                 }
ARM GAS  C:\Users\ingan\AppData\Local\Temp\cc5yuDXv.s 			page 4


 146:Generated_Source\PSoC5/USBUART_std.c ****             #endif /*(USBUART_BOS_ENABLE)*/
 147:Generated_Source\PSoC5/USBUART_std.c ****             
 148:Generated_Source\PSoC5/USBUART_std.c ****             #if defined(USBUART_ENABLE_STRINGS)
 149:Generated_Source\PSoC5/USBUART_std.c ****                 else if (USBUART_DESCR_STRING == USBUART_wValueHiReg)
 150:Generated_Source\PSoC5/USBUART_std.c ****                 {
 151:Generated_Source\PSoC5/USBUART_std.c ****                 /* Descriptor Strings */
 152:Generated_Source\PSoC5/USBUART_std.c ****                 #if defined(USBUART_ENABLE_DESCRIPTOR_STRINGS)
 153:Generated_Source\PSoC5/USBUART_std.c ****                     nStr = 0u;
 154:Generated_Source\PSoC5/USBUART_std.c ****                     pStr = (volatile uint8 *) &USBUART_STRING_DESCRIPTORS[0u];
 155:Generated_Source\PSoC5/USBUART_std.c ****                     
 156:Generated_Source\PSoC5/USBUART_std.c ****                     while ((USBUART_wValueLoReg > nStr) && (*pStr != 0u))
 157:Generated_Source\PSoC5/USBUART_std.c ****                     {
 158:Generated_Source\PSoC5/USBUART_std.c ****                         /* Read descriptor length from 1st byte */
 159:Generated_Source\PSoC5/USBUART_std.c ****                         descrLength = *pStr;
 160:Generated_Source\PSoC5/USBUART_std.c ****                         /* Move to next string descriptor */
 161:Generated_Source\PSoC5/USBUART_std.c ****                         pStr = &pStr[descrLength];
 162:Generated_Source\PSoC5/USBUART_std.c ****                         nStr++;
 163:Generated_Source\PSoC5/USBUART_std.c ****                     }
 164:Generated_Source\PSoC5/USBUART_std.c ****                 #endif /* (USBUART_ENABLE_DESCRIPTOR_STRINGS) */
 165:Generated_Source\PSoC5/USBUART_std.c ****                 
 166:Generated_Source\PSoC5/USBUART_std.c ****                 /* Microsoft OS String */
 167:Generated_Source\PSoC5/USBUART_std.c ****                 #if defined(USBUART_ENABLE_MSOS_STRING)
 168:Generated_Source\PSoC5/USBUART_std.c ****                     if (USBUART_STRING_MSOS == USBUART_wValueLoReg)
 169:Generated_Source\PSoC5/USBUART_std.c ****                     {
 170:Generated_Source\PSoC5/USBUART_std.c ****                         pStr = (volatile uint8 *)& USBUART_MSOS_DESCRIPTOR[0u];
 171:Generated_Source\PSoC5/USBUART_std.c ****                     }
 172:Generated_Source\PSoC5/USBUART_std.c ****                 #endif /* (USBUART_ENABLE_MSOS_STRING) */
 173:Generated_Source\PSoC5/USBUART_std.c ****                 
 174:Generated_Source\PSoC5/USBUART_std.c ****                 /* SN string */
 175:Generated_Source\PSoC5/USBUART_std.c ****                 #if defined(USBUART_ENABLE_SN_STRING)
 176:Generated_Source\PSoC5/USBUART_std.c ****                     if ((USBUART_wValueLoReg != 0u) && 
 177:Generated_Source\PSoC5/USBUART_std.c ****                         (USBUART_wValueLoReg == USBUART_DEVICE0_DESCR[USBUART_DEVICE_DESCR_SN_SHIFT
 178:Generated_Source\PSoC5/USBUART_std.c ****                     {
 179:Generated_Source\PSoC5/USBUART_std.c ****                     #if defined(USBUART_ENABLE_IDSN_STRING)
 180:Generated_Source\PSoC5/USBUART_std.c ****                         /* Read DIE ID and generate string descriptor in RAM */
 181:Generated_Source\PSoC5/USBUART_std.c ****                         USBUART_ReadDieID(USBUART_idSerialNumberStringDescriptor);
 182:Generated_Source\PSoC5/USBUART_std.c ****                         pStr = USBUART_idSerialNumberStringDescriptor;
 183:Generated_Source\PSoC5/USBUART_std.c ****                     #elif defined(USBUART_ENABLE_FWSN_STRING)
 184:Generated_Source\PSoC5/USBUART_std.c ****                         
 185:Generated_Source\PSoC5/USBUART_std.c ****                         if(USBUART_snStringConfirm != USBUART_FALSE)
 186:Generated_Source\PSoC5/USBUART_std.c ****                         {
 187:Generated_Source\PSoC5/USBUART_std.c ****                             pStr = USBUART_fwSerialNumberStringDescriptor;
 188:Generated_Source\PSoC5/USBUART_std.c ****                         }
 189:Generated_Source\PSoC5/USBUART_std.c ****                         else
 190:Generated_Source\PSoC5/USBUART_std.c ****                         {
 191:Generated_Source\PSoC5/USBUART_std.c ****                             pStr = (volatile uint8 *)&USBUART_SN_STRING_DESCRIPTOR[0u];
 192:Generated_Source\PSoC5/USBUART_std.c ****                         }
 193:Generated_Source\PSoC5/USBUART_std.c ****                     #else
 194:Generated_Source\PSoC5/USBUART_std.c ****                         pStr = (volatile uint8 *)&USBUART_SN_STRING_DESCRIPTOR[0u];
 195:Generated_Source\PSoC5/USBUART_std.c ****                     #endif  /* (USBUART_ENABLE_IDSN_STRING) */
 196:Generated_Source\PSoC5/USBUART_std.c ****                     }
 197:Generated_Source\PSoC5/USBUART_std.c ****                 #endif /* (USBUART_ENABLE_SN_STRING) */
 198:Generated_Source\PSoC5/USBUART_std.c ****                 
 199:Generated_Source\PSoC5/USBUART_std.c ****                     if (*pStr != 0u)
 200:Generated_Source\PSoC5/USBUART_std.c ****                     {
 201:Generated_Source\PSoC5/USBUART_std.c ****                         USBUART_currentTD.count = *pStr;
 202:Generated_Source\PSoC5/USBUART_std.c ****                         USBUART_currentTD.pData = pStr;
ARM GAS  C:\Users\ingan\AppData\Local\Temp\cc5yuDXv.s 			page 5


 203:Generated_Source\PSoC5/USBUART_std.c ****                         requestHandled  = USBUART_InitControlRead();
 204:Generated_Source\PSoC5/USBUART_std.c ****                     }
 205:Generated_Source\PSoC5/USBUART_std.c ****                 }
 206:Generated_Source\PSoC5/USBUART_std.c ****             #endif /*  USBUART_ENABLE_STRINGS */
 207:Generated_Source\PSoC5/USBUART_std.c ****                 else
 208:Generated_Source\PSoC5/USBUART_std.c ****                 {
 209:Generated_Source\PSoC5/USBUART_std.c ****                     requestHandled = USBUART_DispatchClassRqst();
 210:Generated_Source\PSoC5/USBUART_std.c ****                 }
 211:Generated_Source\PSoC5/USBUART_std.c ****                 break;
 212:Generated_Source\PSoC5/USBUART_std.c ****                 
 213:Generated_Source\PSoC5/USBUART_std.c ****             case USBUART_GET_STATUS:
 214:Generated_Source\PSoC5/USBUART_std.c ****                 switch (bmRequestType & USBUART_RQST_RCPT_MASK)
 215:Generated_Source\PSoC5/USBUART_std.c ****                 {
 216:Generated_Source\PSoC5/USBUART_std.c ****                     case USBUART_RQST_RCPT_EP:
 217:Generated_Source\PSoC5/USBUART_std.c ****                         USBUART_currentTD.count = USBUART_EP_STATUS_LENGTH;
 218:Generated_Source\PSoC5/USBUART_std.c ****                         USBUART_tBuffer[0u]     = USBUART_EP[USBUART_wIndexLoReg & USBUART_DIR_UNUS
 219:Generated_Source\PSoC5/USBUART_std.c ****                         USBUART_tBuffer[1u]     = 0u;
 220:Generated_Source\PSoC5/USBUART_std.c ****                         USBUART_currentTD.pData = &USBUART_tBuffer[0u];
 221:Generated_Source\PSoC5/USBUART_std.c ****                         
 222:Generated_Source\PSoC5/USBUART_std.c ****                         requestHandled  = USBUART_InitControlRead();
 223:Generated_Source\PSoC5/USBUART_std.c ****                         break;
 224:Generated_Source\PSoC5/USBUART_std.c ****                     case USBUART_RQST_RCPT_DEV:
 225:Generated_Source\PSoC5/USBUART_std.c ****                         USBUART_currentTD.count = USBUART_DEVICE_STATUS_LENGTH;
 226:Generated_Source\PSoC5/USBUART_std.c ****                         USBUART_tBuffer[0u]     = USBUART_deviceStatus;
 227:Generated_Source\PSoC5/USBUART_std.c ****                         USBUART_tBuffer[1u]     = 0u;
 228:Generated_Source\PSoC5/USBUART_std.c ****                         USBUART_currentTD.pData = &USBUART_tBuffer[0u];
 229:Generated_Source\PSoC5/USBUART_std.c ****                         
 230:Generated_Source\PSoC5/USBUART_std.c ****                         requestHandled  = USBUART_InitControlRead();
 231:Generated_Source\PSoC5/USBUART_std.c ****                         break;
 232:Generated_Source\PSoC5/USBUART_std.c ****                     default:    /* requestHandled is initialized as FALSE by default */
 233:Generated_Source\PSoC5/USBUART_std.c ****                         break;
 234:Generated_Source\PSoC5/USBUART_std.c ****                 }
 235:Generated_Source\PSoC5/USBUART_std.c ****                 break;
 236:Generated_Source\PSoC5/USBUART_std.c ****                 
 237:Generated_Source\PSoC5/USBUART_std.c ****             case USBUART_GET_CONFIGURATION:
 238:Generated_Source\PSoC5/USBUART_std.c ****                 USBUART_currentTD.count = 1u;
 239:Generated_Source\PSoC5/USBUART_std.c ****                 USBUART_currentTD.pData = (volatile uint8 *) &USBUART_configuration;
 240:Generated_Source\PSoC5/USBUART_std.c ****                 requestHandled  = USBUART_InitControlRead();
 241:Generated_Source\PSoC5/USBUART_std.c ****                 break;
 242:Generated_Source\PSoC5/USBUART_std.c ****                 
 243:Generated_Source\PSoC5/USBUART_std.c ****             case USBUART_GET_INTERFACE:
 244:Generated_Source\PSoC5/USBUART_std.c ****                 USBUART_currentTD.count = 1u;
 245:Generated_Source\PSoC5/USBUART_std.c ****                 USBUART_currentTD.pData = (volatile uint8 *) &USBUART_interfaceSetting[USBUART_wInd
 246:Generated_Source\PSoC5/USBUART_std.c ****                 requestHandled  = USBUART_InitControlRead();
 247:Generated_Source\PSoC5/USBUART_std.c ****                 break;
 248:Generated_Source\PSoC5/USBUART_std.c ****                 
 249:Generated_Source\PSoC5/USBUART_std.c ****             default: /* requestHandled is initialized as FALSE by default */
 250:Generated_Source\PSoC5/USBUART_std.c ****                 break;
 251:Generated_Source\PSoC5/USBUART_std.c ****         }
 252:Generated_Source\PSoC5/USBUART_std.c ****     }
 253:Generated_Source\PSoC5/USBUART_std.c ****     else
 254:Generated_Source\PSoC5/USBUART_std.c ****     {
 255:Generated_Source\PSoC5/USBUART_std.c ****         /* Control Write */
 256:Generated_Source\PSoC5/USBUART_std.c ****         switch (USBUART_bRequestReg)
 257:Generated_Source\PSoC5/USBUART_std.c ****         {
 258:Generated_Source\PSoC5/USBUART_std.c ****             case USBUART_SET_ADDRESS:
 259:Generated_Source\PSoC5/USBUART_std.c ****                 /* Store address to be set in USBUART_NoDataControlStatusStage(). */
ARM GAS  C:\Users\ingan\AppData\Local\Temp\cc5yuDXv.s 			page 6


 260:Generated_Source\PSoC5/USBUART_std.c ****                 USBUART_deviceAddress = (uint8) USBUART_wValueLoReg;
 261:Generated_Source\PSoC5/USBUART_std.c ****                 requestHandled = USBUART_InitNoDataControlTransfer();
 262:Generated_Source\PSoC5/USBUART_std.c ****                 break;
 263:Generated_Source\PSoC5/USBUART_std.c ****                 
 264:Generated_Source\PSoC5/USBUART_std.c ****             case USBUART_SET_CONFIGURATION:
 265:Generated_Source\PSoC5/USBUART_std.c ****                 configurationN = USBUART_wValueLoReg;
 266:Generated_Source\PSoC5/USBUART_std.c ****                 
 267:Generated_Source\PSoC5/USBUART_std.c ****                 /* Verify that configuration descriptor exists */
 268:Generated_Source\PSoC5/USBUART_std.c ****                 if(configurationN > 0u)
 269:Generated_Source\PSoC5/USBUART_std.c ****                 {
 270:Generated_Source\PSoC5/USBUART_std.c ****                     pTmp = USBUART_GetConfigTablePtr((uint8) configurationN - 1u);
 271:Generated_Source\PSoC5/USBUART_std.c ****                 }
 272:Generated_Source\PSoC5/USBUART_std.c ****                 
 273:Generated_Source\PSoC5/USBUART_std.c ****                 /* Responds with a Request Error when configuration number is invalid */
 274:Generated_Source\PSoC5/USBUART_std.c ****                 if (((configurationN > 0u) && (pTmp != NULL)) || (configurationN == 0u))
 275:Generated_Source\PSoC5/USBUART_std.c ****                 {
 276:Generated_Source\PSoC5/USBUART_std.c ****                     /* Set new configuration if it has been changed */
 277:Generated_Source\PSoC5/USBUART_std.c ****                     if(configurationN != USBUART_configuration)
 278:Generated_Source\PSoC5/USBUART_std.c ****                     {
 279:Generated_Source\PSoC5/USBUART_std.c ****                         USBUART_configuration = (uint8) configurationN;
 280:Generated_Source\PSoC5/USBUART_std.c ****                         USBUART_configurationChanged = USBUART_TRUE;
 281:Generated_Source\PSoC5/USBUART_std.c ****                         USBUART_Config(USBUART_TRUE);
 282:Generated_Source\PSoC5/USBUART_std.c ****                     }
 283:Generated_Source\PSoC5/USBUART_std.c ****                     requestHandled = USBUART_InitNoDataControlTransfer();
 284:Generated_Source\PSoC5/USBUART_std.c ****                 }
 285:Generated_Source\PSoC5/USBUART_std.c ****                 break;
 286:Generated_Source\PSoC5/USBUART_std.c ****                 
 287:Generated_Source\PSoC5/USBUART_std.c ****             case USBUART_SET_INTERFACE:
 288:Generated_Source\PSoC5/USBUART_std.c ****                 if (0u != USBUART_ValidateAlternateSetting())
 289:Generated_Source\PSoC5/USBUART_std.c ****                 {
 290:Generated_Source\PSoC5/USBUART_std.c ****                     /* Get interface number from the request. */
 291:Generated_Source\PSoC5/USBUART_std.c ****                     interfaceNumber = USBUART_wIndexLoReg;
 292:Generated_Source\PSoC5/USBUART_std.c ****                     USBUART_interfaceNumber = (uint8) USBUART_wIndexLoReg;
 293:Generated_Source\PSoC5/USBUART_std.c ****                      
 294:Generated_Source\PSoC5/USBUART_std.c ****                     /* Check if alternate settings is changed for interface. */
 295:Generated_Source\PSoC5/USBUART_std.c ****                     if (USBUART_interfaceSettingLast[interfaceNumber] != USBUART_interfaceSetting[i
 296:Generated_Source\PSoC5/USBUART_std.c ****                     {
 297:Generated_Source\PSoC5/USBUART_std.c ****                         USBUART_configurationChanged = USBUART_TRUE;
 298:Generated_Source\PSoC5/USBUART_std.c ****                     
 299:Generated_Source\PSoC5/USBUART_std.c ****                         /* Change alternate setting for the endpoints. */
 300:Generated_Source\PSoC5/USBUART_std.c ****                     #if (USBUART_EP_MANAGEMENT_MANUAL && USBUART_EP_ALLOC_DYNAMIC)
 301:Generated_Source\PSoC5/USBUART_std.c ****                         USBUART_Config(USBUART_FALSE);
 302:Generated_Source\PSoC5/USBUART_std.c ****                     #else
 303:Generated_Source\PSoC5/USBUART_std.c ****                         USBUART_ConfigAltChanged();
 304:Generated_Source\PSoC5/USBUART_std.c ****                     #endif /* (USBUART_EP_MANAGEMENT_MANUAL && USBUART_EP_ALLOC_DYNAMIC) */
 305:Generated_Source\PSoC5/USBUART_std.c ****                     }
 306:Generated_Source\PSoC5/USBUART_std.c ****                     
 307:Generated_Source\PSoC5/USBUART_std.c ****                     requestHandled = USBUART_InitNoDataControlTransfer();
 308:Generated_Source\PSoC5/USBUART_std.c ****                 }
 309:Generated_Source\PSoC5/USBUART_std.c ****                 break;
 310:Generated_Source\PSoC5/USBUART_std.c ****                 
 311:Generated_Source\PSoC5/USBUART_std.c ****             case USBUART_CLEAR_FEATURE:
 312:Generated_Source\PSoC5/USBUART_std.c ****                 switch (bmRequestType & USBUART_RQST_RCPT_MASK)
 313:Generated_Source\PSoC5/USBUART_std.c ****                 {
 314:Generated_Source\PSoC5/USBUART_std.c ****                     case USBUART_RQST_RCPT_EP:
 315:Generated_Source\PSoC5/USBUART_std.c ****                         if (USBUART_wValueLoReg == USBUART_ENDPOINT_HALT)
 316:Generated_Source\PSoC5/USBUART_std.c ****                         {
ARM GAS  C:\Users\ingan\AppData\Local\Temp\cc5yuDXv.s 			page 7


 317:Generated_Source\PSoC5/USBUART_std.c ****                             requestHandled = USBUART_ClearEndpointHalt();
 318:Generated_Source\PSoC5/USBUART_std.c ****                         }
 319:Generated_Source\PSoC5/USBUART_std.c ****                         break;
 320:Generated_Source\PSoC5/USBUART_std.c ****                     case USBUART_RQST_RCPT_DEV:
 321:Generated_Source\PSoC5/USBUART_std.c ****                         /* Clear device REMOTE_WAKEUP */
 322:Generated_Source\PSoC5/USBUART_std.c ****                         if (USBUART_wValueLoReg == USBUART_DEVICE_REMOTE_WAKEUP)
 323:Generated_Source\PSoC5/USBUART_std.c ****                         {
 324:Generated_Source\PSoC5/USBUART_std.c ****                             USBUART_deviceStatus &= (uint8)~USBUART_DEVICE_STATUS_REMOTE_WAKEUP;
 325:Generated_Source\PSoC5/USBUART_std.c ****                             requestHandled = USBUART_InitNoDataControlTransfer();
 326:Generated_Source\PSoC5/USBUART_std.c ****                         }
 327:Generated_Source\PSoC5/USBUART_std.c ****                         break;
 328:Generated_Source\PSoC5/USBUART_std.c ****                     case USBUART_RQST_RCPT_IFC:
 329:Generated_Source\PSoC5/USBUART_std.c ****                         /* Validate interfaceNumber */
 330:Generated_Source\PSoC5/USBUART_std.c ****                         if (USBUART_wIndexLoReg < USBUART_MAX_INTERFACES_NUMBER)
 331:Generated_Source\PSoC5/USBUART_std.c ****                         {
 332:Generated_Source\PSoC5/USBUART_std.c ****                             USBUART_interfaceStatus[USBUART_wIndexLoReg] &= (uint8) ~USBUART_wValue
 333:Generated_Source\PSoC5/USBUART_std.c ****                             requestHandled = USBUART_InitNoDataControlTransfer();
 334:Generated_Source\PSoC5/USBUART_std.c ****                         }
 335:Generated_Source\PSoC5/USBUART_std.c ****                         break;
 336:Generated_Source\PSoC5/USBUART_std.c ****                     default:    /* requestHandled is initialized as FALSE by default */
 337:Generated_Source\PSoC5/USBUART_std.c ****                         break;
 338:Generated_Source\PSoC5/USBUART_std.c ****                 }
 339:Generated_Source\PSoC5/USBUART_std.c ****                 break;
 340:Generated_Source\PSoC5/USBUART_std.c ****                 
 341:Generated_Source\PSoC5/USBUART_std.c ****             case USBUART_SET_FEATURE:
 342:Generated_Source\PSoC5/USBUART_std.c ****                 switch (bmRequestType & USBUART_RQST_RCPT_MASK)
 343:Generated_Source\PSoC5/USBUART_std.c ****                 {
 344:Generated_Source\PSoC5/USBUART_std.c ****                     case USBUART_RQST_RCPT_EP:
 345:Generated_Source\PSoC5/USBUART_std.c ****                         if (USBUART_wValueLoReg == USBUART_ENDPOINT_HALT)
 346:Generated_Source\PSoC5/USBUART_std.c ****                         {
 347:Generated_Source\PSoC5/USBUART_std.c ****                             requestHandled = USBUART_SetEndpointHalt();
 348:Generated_Source\PSoC5/USBUART_std.c ****                         }
 349:Generated_Source\PSoC5/USBUART_std.c ****                         break;
 350:Generated_Source\PSoC5/USBUART_std.c ****                         
 351:Generated_Source\PSoC5/USBUART_std.c ****                     case USBUART_RQST_RCPT_DEV:
 352:Generated_Source\PSoC5/USBUART_std.c ****                         /* Set device REMOTE_WAKEUP */
 353:Generated_Source\PSoC5/USBUART_std.c ****                         if (USBUART_wValueLoReg == USBUART_DEVICE_REMOTE_WAKEUP)
 354:Generated_Source\PSoC5/USBUART_std.c ****                         {
 355:Generated_Source\PSoC5/USBUART_std.c ****                             USBUART_deviceStatus |= USBUART_DEVICE_STATUS_REMOTE_WAKEUP;
 356:Generated_Source\PSoC5/USBUART_std.c ****                             requestHandled = USBUART_InitNoDataControlTransfer();
 357:Generated_Source\PSoC5/USBUART_std.c ****                         }
 358:Generated_Source\PSoC5/USBUART_std.c ****                         break;
 359:Generated_Source\PSoC5/USBUART_std.c ****                         
 360:Generated_Source\PSoC5/USBUART_std.c ****                     case USBUART_RQST_RCPT_IFC:
 361:Generated_Source\PSoC5/USBUART_std.c ****                         /* Validate interfaceNumber */
 362:Generated_Source\PSoC5/USBUART_std.c ****                         if (USBUART_wIndexLoReg < USBUART_MAX_INTERFACES_NUMBER)
 363:Generated_Source\PSoC5/USBUART_std.c ****                         {
 364:Generated_Source\PSoC5/USBUART_std.c ****                             USBUART_interfaceStatus[USBUART_wIndexLoReg] &= (uint8) ~USBUART_wValue
 365:Generated_Source\PSoC5/USBUART_std.c ****                             requestHandled = USBUART_InitNoDataControlTransfer();
 366:Generated_Source\PSoC5/USBUART_std.c ****                         }
 367:Generated_Source\PSoC5/USBUART_std.c ****                         break;
 368:Generated_Source\PSoC5/USBUART_std.c ****                     
 369:Generated_Source\PSoC5/USBUART_std.c ****                     default:    /* requestHandled is initialized as FALSE by default */
 370:Generated_Source\PSoC5/USBUART_std.c ****                         break;
 371:Generated_Source\PSoC5/USBUART_std.c ****                 }
 372:Generated_Source\PSoC5/USBUART_std.c ****                 break;
 373:Generated_Source\PSoC5/USBUART_std.c ****                 
ARM GAS  C:\Users\ingan\AppData\Local\Temp\cc5yuDXv.s 			page 8


 374:Generated_Source\PSoC5/USBUART_std.c ****             default:    /* requestHandled is initialized as FALSE by default */
 375:Generated_Source\PSoC5/USBUART_std.c ****                 break;
 376:Generated_Source\PSoC5/USBUART_std.c ****         }
 377:Generated_Source\PSoC5/USBUART_std.c ****     }
 378:Generated_Source\PSoC5/USBUART_std.c ****     
 379:Generated_Source\PSoC5/USBUART_std.c ****     return (requestHandled);
 380:Generated_Source\PSoC5/USBUART_std.c **** }
 381:Generated_Source\PSoC5/USBUART_std.c **** 
 382:Generated_Source\PSoC5/USBUART_std.c **** 
 383:Generated_Source\PSoC5/USBUART_std.c **** #if defined(USBUART_ENABLE_IDSN_STRING)
 384:Generated_Source\PSoC5/USBUART_std.c ****     /***************************************************************************
 385:Generated_Source\PSoC5/USBUART_std.c ****     * Function Name: USBUART_ReadDieID
 386:Generated_Source\PSoC5/USBUART_std.c ****     ************************************************************************//**
 387:Generated_Source\PSoC5/USBUART_std.c ****     *
 388:Generated_Source\PSoC5/USBUART_std.c ****     *  This routine read Die ID and generate Serial Number string descriptor.
 389:Generated_Source\PSoC5/USBUART_std.c ****     *
 390:Generated_Source\PSoC5/USBUART_std.c ****     *  \param descr:  pointer on string descriptor. This string size has to be equal or
 391:Generated_Source\PSoC5/USBUART_std.c ****     *          greater than USBUART_IDSN_DESCR_LENGTH.
 392:Generated_Source\PSoC5/USBUART_std.c ****     *
 393:Generated_Source\PSoC5/USBUART_std.c ****     *
 394:Generated_Source\PSoC5/USBUART_std.c ****     * \reentrant
 395:Generated_Source\PSoC5/USBUART_std.c ****     *  No.
 396:Generated_Source\PSoC5/USBUART_std.c ****     *
 397:Generated_Source\PSoC5/USBUART_std.c ****     ***************************************************************************/
 398:Generated_Source\PSoC5/USBUART_std.c ****     void USBUART_ReadDieID(uint8 descr[]) 
 399:Generated_Source\PSoC5/USBUART_std.c ****     {
 400:Generated_Source\PSoC5/USBUART_std.c ****         const char8 CYCODE hex[] = "0123456789ABCDEF";
 401:Generated_Source\PSoC5/USBUART_std.c ****         uint8 i;
 402:Generated_Source\PSoC5/USBUART_std.c ****         uint8 j = 0u;
 403:Generated_Source\PSoC5/USBUART_std.c ****         uint8 uniqueId[8u];
 404:Generated_Source\PSoC5/USBUART_std.c **** 
 405:Generated_Source\PSoC5/USBUART_std.c ****         if (NULL != descr)
 406:Generated_Source\PSoC5/USBUART_std.c ****         {
 407:Generated_Source\PSoC5/USBUART_std.c ****             /* Initialize descriptor header. */
 408:Generated_Source\PSoC5/USBUART_std.c ****             descr[0u] = USBUART_IDSN_DESCR_LENGTH;
 409:Generated_Source\PSoC5/USBUART_std.c ****             descr[1u] = USBUART_DESCR_STRING;
 410:Generated_Source\PSoC5/USBUART_std.c ****             
 411:Generated_Source\PSoC5/USBUART_std.c ****             /* Unique ID size is 8 bytes. */
 412:Generated_Source\PSoC5/USBUART_std.c ****             CyGetUniqueId((uint32 *) uniqueId);
 413:Generated_Source\PSoC5/USBUART_std.c **** 
 414:Generated_Source\PSoC5/USBUART_std.c ****             /* Fill descriptor with unique device ID. */
 415:Generated_Source\PSoC5/USBUART_std.c ****             for (i = 2u; i < USBUART_IDSN_DESCR_LENGTH; i += 4u)
 416:Generated_Source\PSoC5/USBUART_std.c ****             {
 417:Generated_Source\PSoC5/USBUART_std.c ****                 descr[i]      = (uint8) hex[(uniqueId[j] >> 4u)];
 418:Generated_Source\PSoC5/USBUART_std.c ****                 descr[i + 1u] = 0u;
 419:Generated_Source\PSoC5/USBUART_std.c ****                 descr[i + 2u] = (uint8) hex[(uniqueId[j] & 0x0Fu)];
 420:Generated_Source\PSoC5/USBUART_std.c ****                 descr[i + 3u] = 0u;
 421:Generated_Source\PSoC5/USBUART_std.c ****                 ++j;
 422:Generated_Source\PSoC5/USBUART_std.c ****             }
 423:Generated_Source\PSoC5/USBUART_std.c ****         }
 424:Generated_Source\PSoC5/USBUART_std.c ****     }
 425:Generated_Source\PSoC5/USBUART_std.c **** #endif /* (USBUART_ENABLE_IDSN_STRING) */
 426:Generated_Source\PSoC5/USBUART_std.c **** 
 427:Generated_Source\PSoC5/USBUART_std.c **** 
 428:Generated_Source\PSoC5/USBUART_std.c **** /*******************************************************************************
 429:Generated_Source\PSoC5/USBUART_std.c **** * Function Name: USBUART_ConfigReg
 430:Generated_Source\PSoC5/USBUART_std.c **** ****************************************************************************//**
ARM GAS  C:\Users\ingan\AppData\Local\Temp\cc5yuDXv.s 			page 9


 431:Generated_Source\PSoC5/USBUART_std.c **** *
 432:Generated_Source\PSoC5/USBUART_std.c **** *  This routine configures hardware registers from the variables.
 433:Generated_Source\PSoC5/USBUART_std.c **** *  It is called from USBUART_Config() function and from RestoreConfig
 434:Generated_Source\PSoC5/USBUART_std.c **** *  after Wakeup.
 435:Generated_Source\PSoC5/USBUART_std.c **** *
 436:Generated_Source\PSoC5/USBUART_std.c **** *******************************************************************************/
 437:Generated_Source\PSoC5/USBUART_std.c **** void USBUART_ConfigReg(void) 
 438:Generated_Source\PSoC5/USBUART_std.c **** {
 439:Generated_Source\PSoC5/USBUART_std.c ****     uint8 ep;
 440:Generated_Source\PSoC5/USBUART_std.c **** 
 441:Generated_Source\PSoC5/USBUART_std.c **** #if (USBUART_EP_MANAGEMENT_DMA_AUTO)
 442:Generated_Source\PSoC5/USBUART_std.c ****     uint8 epType = 0u;
 443:Generated_Source\PSoC5/USBUART_std.c **** #endif /* (USBUART_EP_MANAGEMENT_DMA_AUTO) */
 444:Generated_Source\PSoC5/USBUART_std.c **** 
 445:Generated_Source\PSoC5/USBUART_std.c ****     /* Go thought all endpoints and set hardware configuration */
 446:Generated_Source\PSoC5/USBUART_std.c ****     for (ep = USBUART_EP1; ep < USBUART_MAX_EP; ++ep)
 447:Generated_Source\PSoC5/USBUART_std.c ****     {
 448:Generated_Source\PSoC5/USBUART_std.c ****         USBUART_ARB_EP_BASE.arbEp[ep].epCfg = USBUART_ARB_EPX_CFG_DEFAULT;
 449:Generated_Source\PSoC5/USBUART_std.c ****         
 450:Generated_Source\PSoC5/USBUART_std.c ****     #if (USBUART_EP_MANAGEMENT_DMA)
 451:Generated_Source\PSoC5/USBUART_std.c ****         /* Enable arbiter endpoint interrupt sources */
 452:Generated_Source\PSoC5/USBUART_std.c ****         USBUART_ARB_EP_BASE.arbEp[ep].epIntEn = USBUART_ARB_EPX_INT_MASK;
 453:Generated_Source\PSoC5/USBUART_std.c ****     #endif /* (USBUART_EP_MANAGEMENT_DMA) */
 454:Generated_Source\PSoC5/USBUART_std.c ****     
 455:Generated_Source\PSoC5/USBUART_std.c ****         if (USBUART_EP[ep].epMode != USBUART_MODE_DISABLE)
 456:Generated_Source\PSoC5/USBUART_std.c ****         {
 457:Generated_Source\PSoC5/USBUART_std.c ****             if (0u != (USBUART_EP[ep].addr & USBUART_DIR_IN))
 458:Generated_Source\PSoC5/USBUART_std.c ****             {
 459:Generated_Source\PSoC5/USBUART_std.c ****                 USBUART_SIE_EP_BASE.sieEp[ep].epCr0 = USBUART_MODE_NAK_IN;
 460:Generated_Source\PSoC5/USBUART_std.c ****                 
 461:Generated_Source\PSoC5/USBUART_std.c ****             #if (USBUART_EP_MANAGEMENT_DMA_AUTO && CY_PSOC4)
 462:Generated_Source\PSoC5/USBUART_std.c ****                 /* Clear DMA_TERMIN for IN endpoint. */
 463:Generated_Source\PSoC5/USBUART_std.c ****                 USBUART_ARB_EP_BASE.arbEp[ep].epIntEn &= (uint32) ~USBUART_ARB_EPX_INT_DMA_TERMIN;
 464:Generated_Source\PSoC5/USBUART_std.c ****             #endif /* (USBUART_EP_MANAGEMENT_DMA_AUTO && CY_PSOC4) */
 465:Generated_Source\PSoC5/USBUART_std.c ****             }
 466:Generated_Source\PSoC5/USBUART_std.c ****             else
 467:Generated_Source\PSoC5/USBUART_std.c ****             {
 468:Generated_Source\PSoC5/USBUART_std.c ****                 USBUART_SIE_EP_BASE.sieEp[ep].epCr0 = USBUART_MODE_NAK_OUT;
 469:Generated_Source\PSoC5/USBUART_std.c **** 
 470:Generated_Source\PSoC5/USBUART_std.c ****             #if (USBUART_EP_MANAGEMENT_DMA_AUTO)
 471:Generated_Source\PSoC5/USBUART_std.c ****                 /* (CY_PSOC4): DMA_TERMIN for OUT endpoint is set above. */
 472:Generated_Source\PSoC5/USBUART_std.c ****                 
 473:Generated_Source\PSoC5/USBUART_std.c ****                 /* Prepare endpoint type mask. */
 474:Generated_Source\PSoC5/USBUART_std.c ****                 epType |= (uint8) (0x01u << (ep - USBUART_EP1));
 475:Generated_Source\PSoC5/USBUART_std.c ****             #endif /* (USBUART_EP_MANAGEMENT_DMA_AUTO) */
 476:Generated_Source\PSoC5/USBUART_std.c ****             }
 477:Generated_Source\PSoC5/USBUART_std.c ****         }
 478:Generated_Source\PSoC5/USBUART_std.c ****         else
 479:Generated_Source\PSoC5/USBUART_std.c ****         {
 480:Generated_Source\PSoC5/USBUART_std.c ****             USBUART_SIE_EP_BASE.sieEp[ep].epCr0 = USBUART_MODE_STALL_DATA_EP;
 481:Generated_Source\PSoC5/USBUART_std.c ****         }
 482:Generated_Source\PSoC5/USBUART_std.c ****         
 483:Generated_Source\PSoC5/USBUART_std.c ****     #if (!USBUART_EP_MANAGEMENT_DMA_AUTO)
 484:Generated_Source\PSoC5/USBUART_std.c ****         #if (CY_PSOC4)
 485:Generated_Source\PSoC5/USBUART_std.c ****             USBUART_ARB_EP16_BASE.arbEp[ep].rwRa16  = (uint32) USBUART_EP[ep].buffOffset;
 486:Generated_Source\PSoC5/USBUART_std.c ****             USBUART_ARB_EP16_BASE.arbEp[ep].rwWa16  = (uint32) USBUART_EP[ep].buffOffset;
 487:Generated_Source\PSoC5/USBUART_std.c ****         #else
ARM GAS  C:\Users\ingan\AppData\Local\Temp\cc5yuDXv.s 			page 10


 488:Generated_Source\PSoC5/USBUART_std.c ****             USBUART_ARB_EP_BASE.arbEp[ep].rwRa    = LO8(USBUART_EP[ep].buffOffset);
 489:Generated_Source\PSoC5/USBUART_std.c ****             USBUART_ARB_EP_BASE.arbEp[ep].rwRaMsb = HI8(USBUART_EP[ep].buffOffset);
 490:Generated_Source\PSoC5/USBUART_std.c ****             USBUART_ARB_EP_BASE.arbEp[ep].rwWa    = LO8(USBUART_EP[ep].buffOffset);
 491:Generated_Source\PSoC5/USBUART_std.c ****             USBUART_ARB_EP_BASE.arbEp[ep].rwWaMsb = HI8(USBUART_EP[ep].buffOffset);
 492:Generated_Source\PSoC5/USBUART_std.c ****         #endif /* (CY_PSOC4) */
 493:Generated_Source\PSoC5/USBUART_std.c ****     #endif /* (!USBUART_EP_MANAGEMENT_DMA_AUTO) */
 494:Generated_Source\PSoC5/USBUART_std.c ****     }
 495:Generated_Source\PSoC5/USBUART_std.c **** 
 496:Generated_Source\PSoC5/USBUART_std.c **** #if (USBUART_EP_MANAGEMENT_DMA_AUTO)
 497:Generated_Source\PSoC5/USBUART_std.c ****      /* BUF_SIZE depend on DMA_THRESS value:0x55-32 bytes  0x44-16 bytes 0x33-8 bytes 0x22-4 bytes 
 498:Generated_Source\PSoC5/USBUART_std.c ****     USBUART_BUF_SIZE_REG = USBUART_DMA_BUF_SIZE;
 499:Generated_Source\PSoC5/USBUART_std.c **** 
 500:Generated_Source\PSoC5/USBUART_std.c ****     /* Configure DMA burst threshold */
 501:Generated_Source\PSoC5/USBUART_std.c **** #if (CY_PSOC4)
 502:Generated_Source\PSoC5/USBUART_std.c ****     USBUART_DMA_THRES16_REG   = USBUART_DMA_BYTES_PER_BURST;
 503:Generated_Source\PSoC5/USBUART_std.c **** #else
 504:Generated_Source\PSoC5/USBUART_std.c ****     USBUART_DMA_THRES_REG     = USBUART_DMA_BYTES_PER_BURST;
 505:Generated_Source\PSoC5/USBUART_std.c ****     USBUART_DMA_THRES_MSB_REG = 0u;
 506:Generated_Source\PSoC5/USBUART_std.c **** #endif /* (CY_PSOC4) */
 507:Generated_Source\PSoC5/USBUART_std.c ****     USBUART_EP_ACTIVE_REG = USBUART_DEFAULT_ARB_INT_EN;
 508:Generated_Source\PSoC5/USBUART_std.c ****     USBUART_EP_TYPE_REG   = epType;
 509:Generated_Source\PSoC5/USBUART_std.c ****     
 510:Generated_Source\PSoC5/USBUART_std.c ****     /* Cfg_cmp bit set to 1 once configuration is complete. */
 511:Generated_Source\PSoC5/USBUART_std.c ****     /* Lock arbiter configtuation */
 512:Generated_Source\PSoC5/USBUART_std.c ****     USBUART_ARB_CFG_REG |= (uint8)  USBUART_ARB_CFG_CFG_CMP;
 513:Generated_Source\PSoC5/USBUART_std.c ****     /* Cfg_cmp bit set to 0 during configuration of PFSUSB Registers. */
 514:Generated_Source\PSoC5/USBUART_std.c ****     USBUART_ARB_CFG_REG &= (uint8) ~USBUART_ARB_CFG_CFG_CMP;
 515:Generated_Source\PSoC5/USBUART_std.c **** 
 516:Generated_Source\PSoC5/USBUART_std.c **** #endif /* (USBUART_EP_MANAGEMENT_DMA_AUTO) */
 517:Generated_Source\PSoC5/USBUART_std.c **** 
 518:Generated_Source\PSoC5/USBUART_std.c ****     /* Enable interrupt SIE interurpt source from EP0-EP1 */
 519:Generated_Source\PSoC5/USBUART_std.c ****     USBUART_SIE_EP_INT_EN_REG = (uint8) USBUART_DEFAULT_SIE_EP_INT_EN;
 520:Generated_Source\PSoC5/USBUART_std.c **** }
 521:Generated_Source\PSoC5/USBUART_std.c **** 
 522:Generated_Source\PSoC5/USBUART_std.c **** 
 523:Generated_Source\PSoC5/USBUART_std.c **** /*******************************************************************************
 524:Generated_Source\PSoC5/USBUART_std.c **** * Function Name: USBUART_EpStateInit
 525:Generated_Source\PSoC5/USBUART_std.c **** ****************************************************************************//**
 526:Generated_Source\PSoC5/USBUART_std.c **** *
 527:Generated_Source\PSoC5/USBUART_std.c **** *  This routine initialize state of Data end points based of its type: 
 528:Generated_Source\PSoC5/USBUART_std.c **** *   IN  - USBUART_IN_BUFFER_EMPTY (USBUART_EVENT_PENDING)
 529:Generated_Source\PSoC5/USBUART_std.c **** *   OUT - USBUART_OUT_BUFFER_EMPTY (USBUART_NO_EVENT_PENDING)
 530:Generated_Source\PSoC5/USBUART_std.c **** *
 531:Generated_Source\PSoC5/USBUART_std.c **** *******************************************************************************/
 532:Generated_Source\PSoC5/USBUART_std.c **** void USBUART_EpStateInit(void) 
 533:Generated_Source\PSoC5/USBUART_std.c **** {
 534:Generated_Source\PSoC5/USBUART_std.c ****     uint8 i;
 535:Generated_Source\PSoC5/USBUART_std.c **** 
 536:Generated_Source\PSoC5/USBUART_std.c ****     for (i = USBUART_EP1; i < USBUART_MAX_EP; i++)
 537:Generated_Source\PSoC5/USBUART_std.c ****     { 
 538:Generated_Source\PSoC5/USBUART_std.c ****         if (0u != (USBUART_EP[i].addr & USBUART_DIR_IN))
 539:Generated_Source\PSoC5/USBUART_std.c ****         {
 540:Generated_Source\PSoC5/USBUART_std.c ****             /* IN Endpoint */
 541:Generated_Source\PSoC5/USBUART_std.c ****             USBUART_EP[i].apiEpState = USBUART_EVENT_PENDING;
 542:Generated_Source\PSoC5/USBUART_std.c ****         }
 543:Generated_Source\PSoC5/USBUART_std.c ****         else
 544:Generated_Source\PSoC5/USBUART_std.c ****         {
ARM GAS  C:\Users\ingan\AppData\Local\Temp\cc5yuDXv.s 			page 11


 545:Generated_Source\PSoC5/USBUART_std.c ****             /* OUT Endpoint */
 546:Generated_Source\PSoC5/USBUART_std.c ****             USBUART_EP[i].apiEpState = USBUART_NO_EVENT_PENDING;
 547:Generated_Source\PSoC5/USBUART_std.c ****         }
 548:Generated_Source\PSoC5/USBUART_std.c ****     }
 549:Generated_Source\PSoC5/USBUART_std.c ****                     
 550:Generated_Source\PSoC5/USBUART_std.c **** }
 551:Generated_Source\PSoC5/USBUART_std.c **** 
 552:Generated_Source\PSoC5/USBUART_std.c **** 
 553:Generated_Source\PSoC5/USBUART_std.c **** /*******************************************************************************
 554:Generated_Source\PSoC5/USBUART_std.c **** * Function Name: USBUART_Config
 555:Generated_Source\PSoC5/USBUART_std.c **** ****************************************************************************//**
 556:Generated_Source\PSoC5/USBUART_std.c **** *
 557:Generated_Source\PSoC5/USBUART_std.c **** *  This routine configures endpoints for the entire configuration by scanning
 558:Generated_Source\PSoC5/USBUART_std.c **** *  the configuration descriptor.
 559:Generated_Source\PSoC5/USBUART_std.c **** *
 560:Generated_Source\PSoC5/USBUART_std.c **** *  \param clearAltSetting: It configures the bAlternateSetting 0 for each interface.
 561:Generated_Source\PSoC5/USBUART_std.c **** *
 562:Generated_Source\PSoC5/USBUART_std.c **** * USBUART_interfaceClass - Initialized class array for each interface.
 563:Generated_Source\PSoC5/USBUART_std.c **** *   It is used for handling Class specific requests depend on interface class.
 564:Generated_Source\PSoC5/USBUART_std.c **** *   Different classes in multiple Alternate settings does not supported.
 565:Generated_Source\PSoC5/USBUART_std.c **** *
 566:Generated_Source\PSoC5/USBUART_std.c **** * \reentrant
 567:Generated_Source\PSoC5/USBUART_std.c **** *  No.
 568:Generated_Source\PSoC5/USBUART_std.c **** *
 569:Generated_Source\PSoC5/USBUART_std.c **** *******************************************************************************/
 570:Generated_Source\PSoC5/USBUART_std.c **** void USBUART_Config(uint8 clearAltSetting) 
 571:Generated_Source\PSoC5/USBUART_std.c **** {
 572:Generated_Source\PSoC5/USBUART_std.c ****     uint8 ep;
 573:Generated_Source\PSoC5/USBUART_std.c ****     uint8 curEp;
 574:Generated_Source\PSoC5/USBUART_std.c ****     uint8 i;
 575:Generated_Source\PSoC5/USBUART_std.c ****     uint8 epType;
 576:Generated_Source\PSoC5/USBUART_std.c ****     const uint8 *pDescr;
 577:Generated_Source\PSoC5/USBUART_std.c ****     
 578:Generated_Source\PSoC5/USBUART_std.c ****     #if (!USBUART_EP_MANAGEMENT_DMA_AUTO)
 579:Generated_Source\PSoC5/USBUART_std.c ****         uint16 buffCount = 0u;
 580:Generated_Source\PSoC5/USBUART_std.c ****     #endif /* (!USBUART_EP_MANAGEMENT_DMA_AUTO) */
 581:Generated_Source\PSoC5/USBUART_std.c **** 
 582:Generated_Source\PSoC5/USBUART_std.c ****     const T_USBUART_LUT CYCODE *pTmp;
 583:Generated_Source\PSoC5/USBUART_std.c ****     const T_USBUART_EP_SETTINGS_BLOCK CYCODE *pEP;
 584:Generated_Source\PSoC5/USBUART_std.c **** 
 585:Generated_Source\PSoC5/USBUART_std.c ****     /* Clear endpoints settings */
 586:Generated_Source\PSoC5/USBUART_std.c ****     for (ep = 0u; ep < USBUART_MAX_EP; ++ep)
 587:Generated_Source\PSoC5/USBUART_std.c ****     {
 588:Generated_Source\PSoC5/USBUART_std.c ****         USBUART_EP[ep].attrib     = 0u;
 589:Generated_Source\PSoC5/USBUART_std.c ****         USBUART_EP[ep].hwEpState  = 0u;
 590:Generated_Source\PSoC5/USBUART_std.c ****         USBUART_EP[ep].epToggle   = 0u;
 591:Generated_Source\PSoC5/USBUART_std.c ****         USBUART_EP[ep].bufferSize = 0u;
 592:Generated_Source\PSoC5/USBUART_std.c ****         USBUART_EP[ep].interface  = 0u;
 593:Generated_Source\PSoC5/USBUART_std.c ****         USBUART_EP[ep].apiEpState = USBUART_NO_EVENT_PENDING;
 594:Generated_Source\PSoC5/USBUART_std.c ****         USBUART_EP[ep].epMode     = USBUART_MODE_DISABLE;   
 595:Generated_Source\PSoC5/USBUART_std.c ****     }
 596:Generated_Source\PSoC5/USBUART_std.c **** 
 597:Generated_Source\PSoC5/USBUART_std.c ****     /* Clear Alternate settings for all interfaces. */
 598:Generated_Source\PSoC5/USBUART_std.c ****     if (0u != clearAltSetting)
 599:Generated_Source\PSoC5/USBUART_std.c ****     {
 600:Generated_Source\PSoC5/USBUART_std.c ****         for (i = 0u; i < USBUART_MAX_INTERFACES_NUMBER; ++i)
 601:Generated_Source\PSoC5/USBUART_std.c ****         {
ARM GAS  C:\Users\ingan\AppData\Local\Temp\cc5yuDXv.s 			page 12


 602:Generated_Source\PSoC5/USBUART_std.c ****             USBUART_interfaceSetting[i]     = 0u;
 603:Generated_Source\PSoC5/USBUART_std.c ****             USBUART_interfaceSettingLast[i] = 0u;
 604:Generated_Source\PSoC5/USBUART_std.c ****         }
 605:Generated_Source\PSoC5/USBUART_std.c ****     }
 606:Generated_Source\PSoC5/USBUART_std.c **** 
 607:Generated_Source\PSoC5/USBUART_std.c ****     /* Init Endpoints and Device Status if configured */
 608:Generated_Source\PSoC5/USBUART_std.c ****     if (USBUART_configuration > 0u)
 609:Generated_Source\PSoC5/USBUART_std.c ****     {
 610:Generated_Source\PSoC5/USBUART_std.c ****         #if defined(USBUART_ENABLE_CDC_CLASS)
 611:Generated_Source\PSoC5/USBUART_std.c ****             uint8 cdcComNums = 0u;
 612:Generated_Source\PSoC5/USBUART_std.c ****         #endif  /* (USBUART_ENABLE_CDC_CLASS) */  
 613:Generated_Source\PSoC5/USBUART_std.c **** 
 614:Generated_Source\PSoC5/USBUART_std.c ****         pTmp = USBUART_GetConfigTablePtr(USBUART_configuration - 1u);
 615:Generated_Source\PSoC5/USBUART_std.c ****         
 616:Generated_Source\PSoC5/USBUART_std.c ****         /* Set Power status for current configuration */
 617:Generated_Source\PSoC5/USBUART_std.c ****         pDescr = (const uint8 *)pTmp->p_list;
 618:Generated_Source\PSoC5/USBUART_std.c ****         if ((pDescr[USBUART_CONFIG_DESCR_ATTRIB] & USBUART_CONFIG_DESCR_ATTRIB_SELF_POWERED) != 0u)
 619:Generated_Source\PSoC5/USBUART_std.c ****         {
 620:Generated_Source\PSoC5/USBUART_std.c ****             USBUART_deviceStatus |= (uint8)  USBUART_DEVICE_STATUS_SELF_POWERED;
 621:Generated_Source\PSoC5/USBUART_std.c ****         }
 622:Generated_Source\PSoC5/USBUART_std.c ****         else
 623:Generated_Source\PSoC5/USBUART_std.c ****         {
 624:Generated_Source\PSoC5/USBUART_std.c ****             USBUART_deviceStatus &= (uint8) ~USBUART_DEVICE_STATUS_SELF_POWERED;
 625:Generated_Source\PSoC5/USBUART_std.c ****         }
 626:Generated_Source\PSoC5/USBUART_std.c ****         
 627:Generated_Source\PSoC5/USBUART_std.c ****         /* Move to next element */
 628:Generated_Source\PSoC5/USBUART_std.c ****         pTmp = &pTmp[1u];
 629:Generated_Source\PSoC5/USBUART_std.c ****         ep = pTmp->c;  /* For this table, c is the number of endpoints configurations  */
 630:Generated_Source\PSoC5/USBUART_std.c **** 
 631:Generated_Source\PSoC5/USBUART_std.c ****         #if (USBUART_EP_MANAGEMENT_MANUAL && USBUART_EP_ALLOC_DYNAMIC)
 632:Generated_Source\PSoC5/USBUART_std.c ****             /* Configure for dynamic EP memory allocation */
 633:Generated_Source\PSoC5/USBUART_std.c ****             /* p_list points the endpoint setting table. */
 634:Generated_Source\PSoC5/USBUART_std.c ****             pEP = (T_USBUART_EP_SETTINGS_BLOCK *) pTmp->p_list;
 635:Generated_Source\PSoC5/USBUART_std.c ****             
 636:Generated_Source\PSoC5/USBUART_std.c ****             for (i = 0u; i < ep; i++)
 637:Generated_Source\PSoC5/USBUART_std.c ****             {     
 638:Generated_Source\PSoC5/USBUART_std.c ****                 /* Compare current Alternate setting with EP Alt */
 639:Generated_Source\PSoC5/USBUART_std.c ****                 if (USBUART_interfaceSetting[pEP->interface] == pEP->altSetting)
 640:Generated_Source\PSoC5/USBUART_std.c ****                 {                                                          
 641:Generated_Source\PSoC5/USBUART_std.c ****                     curEp  = pEP->addr & USBUART_DIR_UNUSED;
 642:Generated_Source\PSoC5/USBUART_std.c ****                     epType = pEP->attributes & USBUART_EP_TYPE_MASK;
 643:Generated_Source\PSoC5/USBUART_std.c ****                     
 644:Generated_Source\PSoC5/USBUART_std.c ****                     USBUART_EP[curEp].addr       = pEP->addr;
 645:Generated_Source\PSoC5/USBUART_std.c ****                     USBUART_EP[curEp].attrib     = pEP->attributes;
 646:Generated_Source\PSoC5/USBUART_std.c ****                     USBUART_EP[curEp].bufferSize = pEP->bufferSize;
 647:Generated_Source\PSoC5/USBUART_std.c **** 
 648:Generated_Source\PSoC5/USBUART_std.c ****                     if (0u != (pEP->addr & USBUART_DIR_IN))
 649:Generated_Source\PSoC5/USBUART_std.c ****                     {
 650:Generated_Source\PSoC5/USBUART_std.c ****                         /* IN Endpoint */
 651:Generated_Source\PSoC5/USBUART_std.c ****                         USBUART_EP[curEp].epMode     = USBUART_GET_ACTIVE_IN_EP_CR0_MODE(epType);
 652:Generated_Source\PSoC5/USBUART_std.c ****                         USBUART_EP[curEp].apiEpState = USBUART_EVENT_PENDING;
 653:Generated_Source\PSoC5/USBUART_std.c ****                     
 654:Generated_Source\PSoC5/USBUART_std.c ****                     #if (defined(USBUART_ENABLE_MIDI_STREAMING) && (USBUART_MIDI_IN_BUFF_SIZE > 0))
 655:Generated_Source\PSoC5/USBUART_std.c ****                         if ((pEP->bMisc == USBUART_CLASS_AUDIO) && (epType == USBUART_EP_TYPE_BULK)
 656:Generated_Source\PSoC5/USBUART_std.c ****                         {
 657:Generated_Source\PSoC5/USBUART_std.c ****                             USBUART_midi_in_ep = curEp;
 658:Generated_Source\PSoC5/USBUART_std.c ****                         }
ARM GAS  C:\Users\ingan\AppData\Local\Temp\cc5yuDXv.s 			page 13


 659:Generated_Source\PSoC5/USBUART_std.c ****                     #endif  /* (USBUART_ENABLE_MIDI_STREAMING) */
 660:Generated_Source\PSoC5/USBUART_std.c ****                     }
 661:Generated_Source\PSoC5/USBUART_std.c ****                     else
 662:Generated_Source\PSoC5/USBUART_std.c ****                     {
 663:Generated_Source\PSoC5/USBUART_std.c ****                         /* OUT Endpoint */
 664:Generated_Source\PSoC5/USBUART_std.c ****                         USBUART_EP[curEp].epMode     = USBUART_GET_ACTIVE_OUT_EP_CR0_MODE(epType);
 665:Generated_Source\PSoC5/USBUART_std.c ****                         USBUART_EP[curEp].apiEpState = USBUART_NO_EVENT_PENDING;
 666:Generated_Source\PSoC5/USBUART_std.c ****                         
 667:Generated_Source\PSoC5/USBUART_std.c ****                     #if (defined(USBUART_ENABLE_MIDI_STREAMING) && (USBUART_MIDI_OUT_BUFF_SIZE > 0)
 668:Generated_Source\PSoC5/USBUART_std.c ****                         if ((pEP->bMisc == USBUART_CLASS_AUDIO) && (epType == USBUART_EP_TYPE_BULK)
 669:Generated_Source\PSoC5/USBUART_std.c ****                         {
 670:Generated_Source\PSoC5/USBUART_std.c ****                             USBUART_midi_out_ep = curEp;
 671:Generated_Source\PSoC5/USBUART_std.c ****                         }
 672:Generated_Source\PSoC5/USBUART_std.c ****                     #endif  /* (USBUART_ENABLE_MIDI_STREAMING) */
 673:Generated_Source\PSoC5/USBUART_std.c ****                     }
 674:Generated_Source\PSoC5/USBUART_std.c **** 
 675:Generated_Source\PSoC5/USBUART_std.c ****                 #if(defined (USBUART_ENABLE_CDC_CLASS))
 676:Generated_Source\PSoC5/USBUART_std.c ****                     if((pEP->bMisc == USBUART_CLASS_CDC_DATA) ||(pEP->bMisc == USBUART_CLASS_CDC))
 677:Generated_Source\PSoC5/USBUART_std.c ****                     {
 678:Generated_Source\PSoC5/USBUART_std.c ****                         cdcComNums = USBUART_Cdc_EpInit(pEP, curEp, cdcComNums);
 679:Generated_Source\PSoC5/USBUART_std.c ****                     }
 680:Generated_Source\PSoC5/USBUART_std.c ****                 #endif  /* (USBUART_ENABLE_CDC_CLASS) */
 681:Generated_Source\PSoC5/USBUART_std.c ****                 }
 682:Generated_Source\PSoC5/USBUART_std.c ****                 
 683:Generated_Source\PSoC5/USBUART_std.c ****                 pEP = &pEP[1u];
 684:Generated_Source\PSoC5/USBUART_std.c ****             }
 685:Generated_Source\PSoC5/USBUART_std.c ****             
 686:Generated_Source\PSoC5/USBUART_std.c ****         #else
 687:Generated_Source\PSoC5/USBUART_std.c ****             for (i = USBUART_EP1; i < USBUART_MAX_EP; ++i)
 688:Generated_Source\PSoC5/USBUART_std.c ****             {
 689:Generated_Source\PSoC5/USBUART_std.c ****                 /* p_list points the endpoint setting table. */
 690:Generated_Source\PSoC5/USBUART_std.c ****                 pEP = (const T_USBUART_EP_SETTINGS_BLOCK CYCODE *) pTmp->p_list;
 691:Generated_Source\PSoC5/USBUART_std.c ****                 /* Find max length for each EP and select it (length could be different in differen
 692:Generated_Source\PSoC5/USBUART_std.c ****                 /* but other settings should be correct with regards to Interface alt Setting */
 693:Generated_Source\PSoC5/USBUART_std.c ****                 
 694:Generated_Source\PSoC5/USBUART_std.c ****                 for (curEp = 0u; curEp < ep; ++curEp)
 695:Generated_Source\PSoC5/USBUART_std.c ****                 {
 696:Generated_Source\PSoC5/USBUART_std.c ****                     if (i == (pEP->addr & USBUART_DIR_UNUSED))
 697:Generated_Source\PSoC5/USBUART_std.c ****                     {
 698:Generated_Source\PSoC5/USBUART_std.c ****                         /* Compare endpoint buffers size with current size to find greater. */
 699:Generated_Source\PSoC5/USBUART_std.c ****                         if (USBUART_EP[i].bufferSize < pEP->bufferSize)
 700:Generated_Source\PSoC5/USBUART_std.c ****                         {
 701:Generated_Source\PSoC5/USBUART_std.c ****                             USBUART_EP[i].bufferSize = pEP->bufferSize;
 702:Generated_Source\PSoC5/USBUART_std.c ****                         }
 703:Generated_Source\PSoC5/USBUART_std.c ****                         
 704:Generated_Source\PSoC5/USBUART_std.c ****                         /* Compare current Alternate setting with EP Alt */
 705:Generated_Source\PSoC5/USBUART_std.c ****                         if (USBUART_interfaceSetting[pEP->interface] == pEP->altSetting)
 706:Generated_Source\PSoC5/USBUART_std.c ****                         {                            
 707:Generated_Source\PSoC5/USBUART_std.c ****                             USBUART_EP[i].addr = pEP->addr;
 708:Generated_Source\PSoC5/USBUART_std.c ****                             USBUART_EP[i].attrib = pEP->attributes;
 709:Generated_Source\PSoC5/USBUART_std.c ****                             
 710:Generated_Source\PSoC5/USBUART_std.c ****                             epType = pEP->attributes & USBUART_EP_TYPE_MASK;
 711:Generated_Source\PSoC5/USBUART_std.c ****                             
 712:Generated_Source\PSoC5/USBUART_std.c ****                             if (0u != (pEP->addr & USBUART_DIR_IN))
 713:Generated_Source\PSoC5/USBUART_std.c ****                             {
 714:Generated_Source\PSoC5/USBUART_std.c ****                                 /* IN Endpoint */
 715:Generated_Source\PSoC5/USBUART_std.c ****                                 USBUART_EP[i].epMode     = USBUART_GET_ACTIVE_IN_EP_CR0_MODE(epType
ARM GAS  C:\Users\ingan\AppData\Local\Temp\cc5yuDXv.s 			page 14


 716:Generated_Source\PSoC5/USBUART_std.c ****                                 USBUART_EP[i].apiEpState = USBUART_EVENT_PENDING;
 717:Generated_Source\PSoC5/USBUART_std.c ****                                 
 718:Generated_Source\PSoC5/USBUART_std.c ****                             #if (defined(USBUART_ENABLE_MIDI_STREAMING) && (USBUART_MIDI_IN_BUFF_SI
 719:Generated_Source\PSoC5/USBUART_std.c ****                                 if ((pEP->bMisc == USBUART_CLASS_AUDIO) && (epType == USBUART_EP_TY
 720:Generated_Source\PSoC5/USBUART_std.c ****                                 {
 721:Generated_Source\PSoC5/USBUART_std.c ****                                     USBUART_midi_in_ep = i;
 722:Generated_Source\PSoC5/USBUART_std.c ****                                 }
 723:Generated_Source\PSoC5/USBUART_std.c ****                             #endif  /* (USBUART_ENABLE_MIDI_STREAMING) */
 724:Generated_Source\PSoC5/USBUART_std.c ****                             }
 725:Generated_Source\PSoC5/USBUART_std.c ****                             else
 726:Generated_Source\PSoC5/USBUART_std.c ****                             {
 727:Generated_Source\PSoC5/USBUART_std.c ****                                 /* OUT Endpoint */
 728:Generated_Source\PSoC5/USBUART_std.c ****                                 USBUART_EP[i].epMode     = USBUART_GET_ACTIVE_OUT_EP_CR0_MODE(epTyp
 729:Generated_Source\PSoC5/USBUART_std.c ****                                 USBUART_EP[i].apiEpState = USBUART_NO_EVENT_PENDING;
 730:Generated_Source\PSoC5/USBUART_std.c ****                                 
 731:Generated_Source\PSoC5/USBUART_std.c ****                             #if (defined(USBUART_ENABLE_MIDI_STREAMING) && (USBUART_MIDI_OUT_BUFF_S
 732:Generated_Source\PSoC5/USBUART_std.c ****                                 if ((pEP->bMisc == USBUART_CLASS_AUDIO) && (epType == USBUART_EP_TY
 733:Generated_Source\PSoC5/USBUART_std.c ****                                 {
 734:Generated_Source\PSoC5/USBUART_std.c ****                                     USBUART_midi_out_ep = i;
 735:Generated_Source\PSoC5/USBUART_std.c ****                                 }
 736:Generated_Source\PSoC5/USBUART_std.c ****                             #endif  /* (USBUART_ENABLE_MIDI_STREAMING) */
 737:Generated_Source\PSoC5/USBUART_std.c ****                             }
 738:Generated_Source\PSoC5/USBUART_std.c **** 
 739:Generated_Source\PSoC5/USBUART_std.c ****                         #if (defined(USBUART_ENABLE_CDC_CLASS))
 740:Generated_Source\PSoC5/USBUART_std.c ****                             if((pEP->bMisc == USBUART_CLASS_CDC_DATA) ||(pEP->bMisc == USBUART_CLAS
 741:Generated_Source\PSoC5/USBUART_std.c ****                             {
 742:Generated_Source\PSoC5/USBUART_std.c ****                                 cdcComNums = USBUART_Cdc_EpInit(pEP, i, cdcComNums);
 743:Generated_Source\PSoC5/USBUART_std.c ****                             }
 744:Generated_Source\PSoC5/USBUART_std.c ****                         #endif  /* (USBUART_ENABLE_CDC_CLASS) */
 745:Generated_Source\PSoC5/USBUART_std.c **** 
 746:Generated_Source\PSoC5/USBUART_std.c ****                             #if (USBUART_EP_MANAGEMENT_DMA_AUTO)
 747:Generated_Source\PSoC5/USBUART_std.c ****                                 break;  /* Use first EP setting in Auto memory management */
 748:Generated_Source\PSoC5/USBUART_std.c ****                             #endif /* (USBUART_EP_MANAGEMENT_DMA_AUTO) */
 749:Generated_Source\PSoC5/USBUART_std.c ****                         }
 750:Generated_Source\PSoC5/USBUART_std.c ****                     }
 751:Generated_Source\PSoC5/USBUART_std.c ****                     
 752:Generated_Source\PSoC5/USBUART_std.c ****                     pEP = &pEP[1u];
 753:Generated_Source\PSoC5/USBUART_std.c ****                 }
 754:Generated_Source\PSoC5/USBUART_std.c ****             }
 755:Generated_Source\PSoC5/USBUART_std.c ****         #endif /*  (USBUART_EP_MANAGEMENT_MANUAL && USBUART_EP_ALLOC_DYNAMIC) */
 756:Generated_Source\PSoC5/USBUART_std.c **** 
 757:Generated_Source\PSoC5/USBUART_std.c ****         /* Init class array for each interface and interface number for each EP.
 758:Generated_Source\PSoC5/USBUART_std.c ****         *  It is used for handling Class specific requests directed to either an
 759:Generated_Source\PSoC5/USBUART_std.c ****         *  interface or the endpoint.
 760:Generated_Source\PSoC5/USBUART_std.c ****         */
 761:Generated_Source\PSoC5/USBUART_std.c ****         /* p_list points the endpoint setting table. */
 762:Generated_Source\PSoC5/USBUART_std.c ****         pEP = (const T_USBUART_EP_SETTINGS_BLOCK CYCODE *) pTmp->p_list;
 763:Generated_Source\PSoC5/USBUART_std.c ****         for (i = 0u; i < ep; i++)
 764:Generated_Source\PSoC5/USBUART_std.c ****         {
 765:Generated_Source\PSoC5/USBUART_std.c ****             /* Configure interface number for each EP */
 766:Generated_Source\PSoC5/USBUART_std.c ****             USBUART_EP[pEP->addr & USBUART_DIR_UNUSED].interface = pEP->interface;
 767:Generated_Source\PSoC5/USBUART_std.c ****             pEP = &pEP[1u];
 768:Generated_Source\PSoC5/USBUART_std.c ****         }
 769:Generated_Source\PSoC5/USBUART_std.c ****         
 770:Generated_Source\PSoC5/USBUART_std.c ****         /* Init pointer on interface class table */
 771:Generated_Source\PSoC5/USBUART_std.c ****         USBUART_interfaceClass = USBUART_GetInterfaceClassTablePtr();
 772:Generated_Source\PSoC5/USBUART_std.c ****         
ARM GAS  C:\Users\ingan\AppData\Local\Temp\cc5yuDXv.s 			page 15


 773:Generated_Source\PSoC5/USBUART_std.c ****     /* Set the endpoint buffer addresses */
 774:Generated_Source\PSoC5/USBUART_std.c ****     #if (!USBUART_EP_MANAGEMENT_DMA_AUTO)
 775:Generated_Source\PSoC5/USBUART_std.c ****         buffCount = 0u;
 776:Generated_Source\PSoC5/USBUART_std.c ****         for (ep = USBUART_EP1; ep < USBUART_MAX_EP; ++ep)
 777:Generated_Source\PSoC5/USBUART_std.c ****         {
 778:Generated_Source\PSoC5/USBUART_std.c ****             USBUART_EP[ep].buffOffset = buffCount;        
 779:Generated_Source\PSoC5/USBUART_std.c ****             buffCount += USBUART_EP[ep].bufferSize;
 780:Generated_Source\PSoC5/USBUART_std.c ****             
 781:Generated_Source\PSoC5/USBUART_std.c ****         #if (USBUART_GEN_16BITS_EP_ACCESS)
 782:Generated_Source\PSoC5/USBUART_std.c ****             /* Align EP buffers to be event size to access 16-bits DR register. */
 783:Generated_Source\PSoC5/USBUART_std.c ****             buffCount += (0u != (buffCount & 0x01u)) ? 1u : 0u;
 784:Generated_Source\PSoC5/USBUART_std.c ****         #endif /* (USBUART_GEN_16BITS_EP_ACCESS) */            
 785:Generated_Source\PSoC5/USBUART_std.c ****         }
 786:Generated_Source\PSoC5/USBUART_std.c ****     #endif /* (!USBUART_EP_MANAGEMENT_DMA_AUTO) */
 787:Generated_Source\PSoC5/USBUART_std.c **** 
 788:Generated_Source\PSoC5/USBUART_std.c ****         /* Configure hardware registers */
 789:Generated_Source\PSoC5/USBUART_std.c ****         USBUART_ConfigReg();
 790:Generated_Source\PSoC5/USBUART_std.c ****     }
 791:Generated_Source\PSoC5/USBUART_std.c **** }
 792:Generated_Source\PSoC5/USBUART_std.c **** 
 793:Generated_Source\PSoC5/USBUART_std.c **** 
 794:Generated_Source\PSoC5/USBUART_std.c **** /*******************************************************************************
 795:Generated_Source\PSoC5/USBUART_std.c **** * Function Name: USBUART_ConfigAltChanged
 796:Generated_Source\PSoC5/USBUART_std.c **** ****************************************************************************//**
 797:Generated_Source\PSoC5/USBUART_std.c **** *
 798:Generated_Source\PSoC5/USBUART_std.c **** *  This routine update configuration for the required endpoints only.
 799:Generated_Source\PSoC5/USBUART_std.c **** *  It is called after SET_INTERFACE request when Static memory allocation used.
 800:Generated_Source\PSoC5/USBUART_std.c **** *
 801:Generated_Source\PSoC5/USBUART_std.c **** * \reentrant
 802:Generated_Source\PSoC5/USBUART_std.c **** *  No.
 803:Generated_Source\PSoC5/USBUART_std.c **** *
 804:Generated_Source\PSoC5/USBUART_std.c **** *******************************************************************************/
 805:Generated_Source\PSoC5/USBUART_std.c **** void USBUART_ConfigAltChanged(void) 
  27              		.loc 1 805 0
  28              		.cfi_startproc
  29              		@ args = 0, pretend = 0, frame = 0
  30              		@ frame_needed = 0, uses_anonymous_args = 0
 806:Generated_Source\PSoC5/USBUART_std.c **** {
 807:Generated_Source\PSoC5/USBUART_std.c ****     uint8 ep;
 808:Generated_Source\PSoC5/USBUART_std.c ****     uint8 curEp;
 809:Generated_Source\PSoC5/USBUART_std.c ****     uint8 epType;
 810:Generated_Source\PSoC5/USBUART_std.c ****     uint8 i;
 811:Generated_Source\PSoC5/USBUART_std.c ****     uint8 interfaceNum;
 812:Generated_Source\PSoC5/USBUART_std.c **** 
 813:Generated_Source\PSoC5/USBUART_std.c ****     const T_USBUART_LUT CYCODE *pTmp;
 814:Generated_Source\PSoC5/USBUART_std.c ****     const T_USBUART_EP_SETTINGS_BLOCK CYCODE *pEP;
 815:Generated_Source\PSoC5/USBUART_std.c **** 
 816:Generated_Source\PSoC5/USBUART_std.c ****     /* Init Endpoints and Device Status if configured */
 817:Generated_Source\PSoC5/USBUART_std.c ****     if (USBUART_configuration > 0u)
 818:Generated_Source\PSoC5/USBUART_std.c ****     {
 819:Generated_Source\PSoC5/USBUART_std.c ****         /* Get number of endpoints configurations (ep). */
 820:Generated_Source\PSoC5/USBUART_std.c ****         pTmp = USBUART_GetConfigTablePtr(USBUART_configuration - 1u);
  31              		.loc 1 820 0
  32 0000 4F4B     		ldr	r3, .L19
  33              	.LBB24:
  34              	.LBB25:
 821:Generated_Source\PSoC5/USBUART_std.c ****         pTmp = &pTmp[1u];
ARM GAS  C:\Users\ingan\AppData\Local\Temp\cc5yuDXv.s 			page 16


 822:Generated_Source\PSoC5/USBUART_std.c ****         ep = pTmp->c;
 823:Generated_Source\PSoC5/USBUART_std.c **** 
 824:Generated_Source\PSoC5/USBUART_std.c ****         /* Get pointer to endpoints setting table (pEP). */
 825:Generated_Source\PSoC5/USBUART_std.c ****         pEP = (const T_USBUART_EP_SETTINGS_BLOCK CYCODE *) pTmp->p_list;
 826:Generated_Source\PSoC5/USBUART_std.c ****         
 827:Generated_Source\PSoC5/USBUART_std.c ****         /* Look through all possible endpoint configurations. Find endpoints 
 828:Generated_Source\PSoC5/USBUART_std.c ****         * which belong to current interface and alternate settings for 
 829:Generated_Source\PSoC5/USBUART_std.c ****         * re-configuration.
 830:Generated_Source\PSoC5/USBUART_std.c ****         */
 831:Generated_Source\PSoC5/USBUART_std.c ****         interfaceNum = USBUART_interfaceNumber;
 832:Generated_Source\PSoC5/USBUART_std.c ****         for (i = 0u; i < ep; i++)
 833:Generated_Source\PSoC5/USBUART_std.c ****         {
 834:Generated_Source\PSoC5/USBUART_std.c ****             /* Find endpoints which belong to current interface and alternate settings. */
 835:Generated_Source\PSoC5/USBUART_std.c ****             if ((interfaceNum == pEP->interface) && 
 836:Generated_Source\PSoC5/USBUART_std.c ****                 (USBUART_interfaceSetting[interfaceNum] == pEP->altSetting))
 837:Generated_Source\PSoC5/USBUART_std.c ****             {
 838:Generated_Source\PSoC5/USBUART_std.c ****                 curEp  = ((uint8) pEP->addr & USBUART_DIR_UNUSED);
 839:Generated_Source\PSoC5/USBUART_std.c ****                 epType = ((uint8) pEP->attributes & USBUART_EP_TYPE_MASK);
 840:Generated_Source\PSoC5/USBUART_std.c ****                 
 841:Generated_Source\PSoC5/USBUART_std.c ****                 /* Change the SIE mode for the selected EP to NAK ALL */
 842:Generated_Source\PSoC5/USBUART_std.c ****                 USBUART_EP[curEp].epToggle   = 0u;
 843:Generated_Source\PSoC5/USBUART_std.c ****                 USBUART_EP[curEp].addr       = pEP->addr;
 844:Generated_Source\PSoC5/USBUART_std.c ****                 USBUART_EP[curEp].attrib     = pEP->attributes;
 845:Generated_Source\PSoC5/USBUART_std.c ****                 USBUART_EP[curEp].bufferSize = pEP->bufferSize;
 846:Generated_Source\PSoC5/USBUART_std.c **** 
 847:Generated_Source\PSoC5/USBUART_std.c ****                 if (0u != (pEP->addr & USBUART_DIR_IN))
 848:Generated_Source\PSoC5/USBUART_std.c ****                 {
 849:Generated_Source\PSoC5/USBUART_std.c ****                     /* IN Endpoint */
 850:Generated_Source\PSoC5/USBUART_std.c ****                     USBUART_EP[curEp].epMode     = USBUART_GET_ACTIVE_IN_EP_CR0_MODE(epType);
 851:Generated_Source\PSoC5/USBUART_std.c ****                     USBUART_EP[curEp].apiEpState = USBUART_EVENT_PENDING;
 852:Generated_Source\PSoC5/USBUART_std.c ****                 }
 853:Generated_Source\PSoC5/USBUART_std.c ****                 else
 854:Generated_Source\PSoC5/USBUART_std.c ****                 {
 855:Generated_Source\PSoC5/USBUART_std.c ****                     /* OUT Endpoint */
 856:Generated_Source\PSoC5/USBUART_std.c ****                     USBUART_EP[curEp].epMode     = USBUART_GET_ACTIVE_OUT_EP_CR0_MODE(epType);
 857:Generated_Source\PSoC5/USBUART_std.c ****                     USBUART_EP[curEp].apiEpState = USBUART_NO_EVENT_PENDING;
 858:Generated_Source\PSoC5/USBUART_std.c ****                 }
 859:Generated_Source\PSoC5/USBUART_std.c ****                 
 860:Generated_Source\PSoC5/USBUART_std.c ****                 /* Make SIE to NAK any endpoint requests */
 861:Generated_Source\PSoC5/USBUART_std.c ****                 USBUART_SIE_EP_BASE.sieEp[curEp].epCr0 = USBUART_MODE_NAK_IN_OUT;
 862:Generated_Source\PSoC5/USBUART_std.c **** 
 863:Generated_Source\PSoC5/USBUART_std.c ****             #if (USBUART_EP_MANAGEMENT_DMA_AUTO)
 864:Generated_Source\PSoC5/USBUART_std.c ****                 /* Clear IN data ready. */
 865:Generated_Source\PSoC5/USBUART_std.c ****                 USBUART_ARB_EP_BASE.arbEp[curEp].epCfg &= (uint8) ~USBUART_ARB_EPX_CFG_IN_DATA_RDY;
 866:Generated_Source\PSoC5/USBUART_std.c **** 
 867:Generated_Source\PSoC5/USBUART_std.c ****                 /* Select endpoint number of reconfiguration */
 868:Generated_Source\PSoC5/USBUART_std.c ****                 USBUART_DYN_RECONFIG_REG = (uint8) ((curEp - 1u) << USBUART_DYN_RECONFIG_EP_SHIFT);
 869:Generated_Source\PSoC5/USBUART_std.c ****                 
 870:Generated_Source\PSoC5/USBUART_std.c ****                 /* Request for dynamic re-configuration of endpoint. */
 871:Generated_Source\PSoC5/USBUART_std.c ****                 USBUART_DYN_RECONFIG_REG |= USBUART_DYN_RECONFIG_ENABLE;
 872:Generated_Source\PSoC5/USBUART_std.c ****                 
 873:Generated_Source\PSoC5/USBUART_std.c ****                 /* Wait until block is ready for re-configuration */
 874:Generated_Source\PSoC5/USBUART_std.c ****                 while (0u == (USBUART_DYN_RECONFIG_REG & USBUART_DYN_RECONFIG_RDY_STS))
 875:Generated_Source\PSoC5/USBUART_std.c ****                 {
 876:Generated_Source\PSoC5/USBUART_std.c ****                 }
 877:Generated_Source\PSoC5/USBUART_std.c ****                 
 878:Generated_Source\PSoC5/USBUART_std.c ****                 /* Once DYN_RECONFIG_RDY_STS bit is set, FW can change the EP configuration. */
ARM GAS  C:\Users\ingan\AppData\Local\Temp\cc5yuDXv.s 			page 17


 879:Generated_Source\PSoC5/USBUART_std.c ****                 /* Change EP Type with new direction */
 880:Generated_Source\PSoC5/USBUART_std.c ****                 if (0u != (pEP->addr & USBUART_DIR_IN))
 881:Generated_Source\PSoC5/USBUART_std.c ****                 {
 882:Generated_Source\PSoC5/USBUART_std.c ****                     /* Set endpoint type: 0 - IN and 1 - OUT. */
 883:Generated_Source\PSoC5/USBUART_std.c ****                     USBUART_EP_TYPE_REG &= (uint8) ~(uint8)((uint8) 0x01u << (curEp - 1u));
 884:Generated_Source\PSoC5/USBUART_std.c ****                     
 885:Generated_Source\PSoC5/USBUART_std.c ****                 #if (CY_PSOC4)
 886:Generated_Source\PSoC5/USBUART_std.c ****                     /* Clear DMA_TERMIN for IN endpoint */
 887:Generated_Source\PSoC5/USBUART_std.c ****                     USBUART_ARB_EP_BASE.arbEp[curEp].epIntEn &= (uint32) ~USBUART_ARB_EPX_INT_DMA_T
 888:Generated_Source\PSoC5/USBUART_std.c ****                 #endif /* (CY_PSOC4) */
 889:Generated_Source\PSoC5/USBUART_std.c ****                 }
 890:Generated_Source\PSoC5/USBUART_std.c ****                 else
 891:Generated_Source\PSoC5/USBUART_std.c ****                 {
 892:Generated_Source\PSoC5/USBUART_std.c ****                     /* Set endpoint type: 0 - IN and 1- OUT. */
 893:Generated_Source\PSoC5/USBUART_std.c ****                     USBUART_EP_TYPE_REG |= (uint8) ((uint8) 0x01u << (curEp - 1u));
 894:Generated_Source\PSoC5/USBUART_std.c ****                     
 895:Generated_Source\PSoC5/USBUART_std.c ****                 #if (CY_PSOC4)
 896:Generated_Source\PSoC5/USBUART_std.c ****                     /* Set DMA_TERMIN for OUT endpoint */
 897:Generated_Source\PSoC5/USBUART_std.c ****                     USBUART_ARB_EP_BASE.arbEp[curEp].epIntEn |= (uint32) USBUART_ARB_EPX_INT_DMA_TE
 898:Generated_Source\PSoC5/USBUART_std.c ****                 #endif /* (CY_PSOC4) */
 899:Generated_Source\PSoC5/USBUART_std.c ****                 }
 900:Generated_Source\PSoC5/USBUART_std.c ****                 
 901:Generated_Source\PSoC5/USBUART_std.c ****                 /* Complete dynamic re-configuration: all endpoint related status and signals 
 902:Generated_Source\PSoC5/USBUART_std.c ****                 * are set into the default state.
 903:Generated_Source\PSoC5/USBUART_std.c ****                 */
 904:Generated_Source\PSoC5/USBUART_std.c ****                 USBUART_DYN_RECONFIG_REG &= (uint8) ~USBUART_DYN_RECONFIG_ENABLE;
 905:Generated_Source\PSoC5/USBUART_std.c **** 
 906:Generated_Source\PSoC5/USBUART_std.c ****             #else
 907:Generated_Source\PSoC5/USBUART_std.c ****                 USBUART_SIE_EP_BASE.sieEp[curEp].epCnt0 = HI8(USBUART_EP[curEp].bufferSize);
 908:Generated_Source\PSoC5/USBUART_std.c ****                 USBUART_SIE_EP_BASE.sieEp[curEp].epCnt1 = LO8(USBUART_EP[curEp].bufferSize);
 909:Generated_Source\PSoC5/USBUART_std.c ****                 
 910:Generated_Source\PSoC5/USBUART_std.c ****                 #if (CY_PSOC4)
 911:Generated_Source\PSoC5/USBUART_std.c ****                     USBUART_ARB_EP16_BASE.arbEp[curEp].rwRa16  = (uint32) USBUART_EP[curEp].buffOff
 912:Generated_Source\PSoC5/USBUART_std.c ****                     USBUART_ARB_EP16_BASE.arbEp[curEp].rwWa16  = (uint32) USBUART_EP[curEp].buffOff
 913:Generated_Source\PSoC5/USBUART_std.c ****                 #else
 914:Generated_Source\PSoC5/USBUART_std.c ****                     USBUART_ARB_EP_BASE.arbEp[curEp].rwRa    = LO8(USBUART_EP[curEp].buffOffset);
 915:Generated_Source\PSoC5/USBUART_std.c ****                     USBUART_ARB_EP_BASE.arbEp[curEp].rwRaMsb = HI8(USBUART_EP[curEp].buffOffset);
 916:Generated_Source\PSoC5/USBUART_std.c ****                     USBUART_ARB_EP_BASE.arbEp[curEp].rwWa    = LO8(USBUART_EP[curEp].buffOffset);
 917:Generated_Source\PSoC5/USBUART_std.c ****                     USBUART_ARB_EP_BASE.arbEp[curEp].rwWaMsb = HI8(USBUART_EP[curEp].buffOffset);
 918:Generated_Source\PSoC5/USBUART_std.c ****                 #endif /* (CY_PSOC4) */                
 919:Generated_Source\PSoC5/USBUART_std.c ****             #endif /* (USBUART_EP_MANAGEMENT_DMA_AUTO) */
 920:Generated_Source\PSoC5/USBUART_std.c ****             }
 921:Generated_Source\PSoC5/USBUART_std.c ****             
 922:Generated_Source\PSoC5/USBUART_std.c ****             pEP = &pEP[1u]; /* Get next EP element */
 923:Generated_Source\PSoC5/USBUART_std.c ****         }
 924:Generated_Source\PSoC5/USBUART_std.c ****         
 925:Generated_Source\PSoC5/USBUART_std.c ****         /* The main loop has to re-enable DMA and OUT endpoint */
 926:Generated_Source\PSoC5/USBUART_std.c ****     }
 927:Generated_Source\PSoC5/USBUART_std.c **** }
 928:Generated_Source\PSoC5/USBUART_std.c **** 
 929:Generated_Source\PSoC5/USBUART_std.c **** 
 930:Generated_Source\PSoC5/USBUART_std.c **** /*******************************************************************************
 931:Generated_Source\PSoC5/USBUART_std.c **** * Function Name: USBUART_GetConfigTablePtr
 932:Generated_Source\PSoC5/USBUART_std.c **** ****************************************************************************//**
 933:Generated_Source\PSoC5/USBUART_std.c **** *
 934:Generated_Source\PSoC5/USBUART_std.c **** *  This routine returns a pointer a configuration table entry
 935:Generated_Source\PSoC5/USBUART_std.c **** *
ARM GAS  C:\Users\ingan\AppData\Local\Temp\cc5yuDXv.s 			page 18


 936:Generated_Source\PSoC5/USBUART_std.c **** *  \param confIndex:  Configuration Index
 937:Generated_Source\PSoC5/USBUART_std.c **** *
 938:Generated_Source\PSoC5/USBUART_std.c **** * \return
 939:Generated_Source\PSoC5/USBUART_std.c **** *  Device Descriptor pointer or NULL when descriptor does not exist.
 940:Generated_Source\PSoC5/USBUART_std.c **** *
 941:Generated_Source\PSoC5/USBUART_std.c **** *******************************************************************************/
 942:Generated_Source\PSoC5/USBUART_std.c **** const T_USBUART_LUT CYCODE *USBUART_GetConfigTablePtr(uint8 confIndex)
 943:Generated_Source\PSoC5/USBUART_std.c ****                                                         
 944:Generated_Source\PSoC5/USBUART_std.c **** {
 945:Generated_Source\PSoC5/USBUART_std.c ****     /* Device Table */
 946:Generated_Source\PSoC5/USBUART_std.c ****     const T_USBUART_LUT CYCODE *pTmp;
 947:Generated_Source\PSoC5/USBUART_std.c **** 
 948:Generated_Source\PSoC5/USBUART_std.c ****     pTmp = (const T_USBUART_LUT CYCODE *) USBUART_TABLE[USBUART_device].p_list;
  35              		.loc 1 948 0
  36 0002 5049     		ldr	r1, .L19+4
  37              	.LBE25:
  38              	.LBE24:
 820:Generated_Source\PSoC5/USBUART_std.c ****         pTmp = &pTmp[1u];
  39              		.loc 1 820 0
  40 0004 1B78     		ldrb	r3, [r3]	@ zero_extendqisi2
  41              	.LBB29:
  42              	.LBB26:
  43              		.loc 1 948 0
  44 0006 504A     		ldr	r2, .L19+8
  45 0008 0978     		ldrb	r1, [r1]	@ zero_extendqisi2
  46              	.LBE26:
  47              	.LBE29:
 820:Generated_Source\PSoC5/USBUART_std.c ****         pTmp = &pTmp[1u];
  48              		.loc 1 820 0
  49 000a 013B     		subs	r3, r3, #1
  50              	.LBB30:
  51              	.LBB27:
  52              		.loc 1 948 0
  53 000c 02EBC102 		add	r2, r2, r1, lsl #3
  54 0010 5268     		ldr	r2, [r2, #4]
  55              	.LBE27:
  56              	.LBE30:
 820:Generated_Source\PSoC5/USBUART_std.c ****         pTmp = &pTmp[1u];
  57              		.loc 1 820 0
  58 0012 DBB2     		uxtb	r3, r3
  59              	.LVL0:
  60              	.LBB31:
  61              	.LBB28:
 949:Generated_Source\PSoC5/USBUART_std.c **** 
 950:Generated_Source\PSoC5/USBUART_std.c ****     /* The first entry points to the Device Descriptor,
 951:Generated_Source\PSoC5/USBUART_std.c ****     *  the second entry point to the BOS Descriptor
 952:Generated_Source\PSoC5/USBUART_std.c ****     *  the rest configuration entries.
 953:Generated_Source\PSoC5/USBUART_std.c ****     *  Set pointer to the first Configuration Descriptor
 954:Generated_Source\PSoC5/USBUART_std.c ****     */
 955:Generated_Source\PSoC5/USBUART_std.c ****     pTmp = &pTmp[2u];
 956:Generated_Source\PSoC5/USBUART_std.c ****     /* For this table, c is the number of configuration descriptors  */
 957:Generated_Source\PSoC5/USBUART_std.c ****     if(confIndex >= pTmp->c)   /* Verify that required configuration descriptor exists */
  62              		.loc 1 957 0
  63 0014 117C     		ldrb	r1, [r2, #16]	@ zero_extendqisi2
  64 0016 9942     		cmp	r1, r3
  65 0018 40F28280 		bls	.L2
 958:Generated_Source\PSoC5/USBUART_std.c ****     {
ARM GAS  C:\Users\ingan\AppData\Local\Temp\cc5yuDXv.s 			page 19


 959:Generated_Source\PSoC5/USBUART_std.c ****         pTmp = (const T_USBUART_LUT CYCODE *) NULL;
 960:Generated_Source\PSoC5/USBUART_std.c ****     }
 961:Generated_Source\PSoC5/USBUART_std.c ****     else
 962:Generated_Source\PSoC5/USBUART_std.c ****     {
 963:Generated_Source\PSoC5/USBUART_std.c ****         pTmp = (const T_USBUART_LUT CYCODE *) pTmp[confIndex].p_list;
  66              		.loc 1 963 0
  67 001c 02EBC303 		add	r3, r2, r3, lsl #3
  68              	.LVL1:
  69 0020 5B69     		ldr	r3, [r3, #20]
  70              	.LVL2:
  71              	.LBE28:
  72              	.LBE31:
 831:Generated_Source\PSoC5/USBUART_std.c ****         for (i = 0u; i < ep; i++)
  73              		.loc 1 831 0
  74 0022 4A49     		ldr	r1, .L19+12
 822:Generated_Source\PSoC5/USBUART_std.c **** 
  75              		.loc 1 822 0
  76 0024 1A7A     		ldrb	r2, [r3, #8]	@ zero_extendqisi2
  77              	.LVL3:
 831:Generated_Source\PSoC5/USBUART_std.c ****         for (i = 0u; i < ep; i++)
  78              		.loc 1 831 0
  79 0026 0878     		ldrb	r0, [r1]	@ zero_extendqisi2
 825:Generated_Source\PSoC5/USBUART_std.c ****         
  80              		.loc 1 825 0
  81 0028 DB68     		ldr	r3, [r3, #12]
  82              	.LVL4:
 831:Generated_Source\PSoC5/USBUART_std.c ****         for (i = 0u; i < ep; i++)
  83              		.loc 1 831 0
  84 002a C0B2     		uxtb	r0, r0
  85              	.LVL5:
 832:Generated_Source\PSoC5/USBUART_std.c ****         {
  86              		.loc 1 832 0
  87 002c 002A     		cmp	r2, #0
  88 002e 00F08680 		beq	.L15
  89 0032 511E     		subs	r1, r2, #1
  90 0034 C9B2     		uxtb	r1, r1
  91 0036 0231     		adds	r1, r1, #2
 805:Generated_Source\PSoC5/USBUART_std.c **** {
  92              		.loc 1 805 0
  93 0038 2DE9F047 		push	{r4, r5, r6, r7, r8, r9, r10, lr}
  94              		.cfi_def_cfa_offset 32
  95              		.cfi_offset 4, -32
  96              		.cfi_offset 5, -28
  97              		.cfi_offset 6, -24
  98              		.cfi_offset 7, -20
  99              		.cfi_offset 8, -16
 100              		.cfi_offset 9, -12
 101              		.cfi_offset 10, -8
 102              		.cfi_offset 14, -4
 103 003c 03EBC101 		add	r1, r3, r1, lsl #3
 836:Generated_Source\PSoC5/USBUART_std.c ****             {
 104              		.loc 1 836 0
 105 0040 434D     		ldr	r5, .L19+16
 842:Generated_Source\PSoC5/USBUART_std.c ****                 USBUART_EP[curEp].addr       = pEP->addr;
 106              		.loc 1 842 0
 107 0042 444E     		ldr	r6, .L19+20
 108 0044 0833     		adds	r3, r3, #8
ARM GAS  C:\Users\ingan\AppData\Local\Temp\cc5yuDXv.s 			page 20


 109              	.LVL6:
 110 0046 0027     		movs	r7, #0
 861:Generated_Source\PSoC5/USBUART_std.c **** 
 111              		.loc 1 861 0
 112 0048 4FF0010E 		mov	lr, #1
 113 004c 02E0     		b	.L9
 114              	.LVL7:
 115              	.L4:
 116 004e 0833     		adds	r3, r3, #8
 117              	.LVL8:
 832:Generated_Source\PSoC5/USBUART_std.c ****         {
 118              		.loc 1 832 0
 119 0050 8B42     		cmp	r3, r1
 120 0052 63D0     		beq	.L17
 121              	.LVL9:
 122              	.L9:
 835:Generated_Source\PSoC5/USBUART_std.c ****                 (USBUART_interfaceSetting[interfaceNum] == pEP->altSetting))
 123              		.loc 1 835 0
 124 0054 13F8082C 		ldrb	r2, [r3, #-8]	@ zero_extendqisi2
 125 0058 8242     		cmp	r2, r0
 126 005a F8D1     		bne	.L4
 836:Generated_Source\PSoC5/USBUART_std.c ****             {
 127              		.loc 1 836 0
 128 005c 2A5C     		ldrb	r2, [r5, r0]	@ zero_extendqisi2
 835:Generated_Source\PSoC5/USBUART_std.c ****                 (USBUART_interfaceSetting[interfaceNum] == pEP->altSetting))
 129              		.loc 1 835 0
 130 005e 13F8074C 		ldrb	r4, [r3, #-7]	@ zero_extendqisi2
 131 0062 9442     		cmp	r4, r2
 132 0064 F3D1     		bne	.L4
 838:Generated_Source\PSoC5/USBUART_std.c ****                 epType = ((uint8) pEP->attributes & USBUART_EP_TYPE_MASK);
 133              		.loc 1 838 0
 134 0066 13F8062C 		ldrb	r2, [r3, #-6]	@ zero_extendqisi2
 839:Generated_Source\PSoC5/USBUART_std.c ****                 
 135              		.loc 1 839 0
 136 006a 13F805CC 		ldrb	ip, [r3, #-5]	@ zero_extendqisi2
 838:Generated_Source\PSoC5/USBUART_std.c ****                 epType = ((uint8) pEP->attributes & USBUART_EP_TYPE_MASK);
 137              		.loc 1 838 0
 138 006e 02F07F02 		and	r2, r2, #127
 139              	.LVL10:
 842:Generated_Source\PSoC5/USBUART_std.c ****                 USBUART_EP[curEp].addr       = pEP->addr;
 140              		.loc 1 842 0
 141 0072 4FEA4208 		lsl	r8, r2, #1
 142 0076 08EB0209 		add	r9, r8, r2
 143 007a 06EB8904 		add	r4, r6, r9, lsl #2
 144 007e E770     		strb	r7, [r4, #3]
 843:Generated_Source\PSoC5/USBUART_std.c ****                 USBUART_EP[curEp].attrib     = pEP->attributes;
 145              		.loc 1 843 0
 146 0080 13F806AC 		ldrb	r10, [r3, #-6]	@ zero_extendqisi2
 839:Generated_Source\PSoC5/USBUART_std.c ****                 
 147              		.loc 1 839 0
 148 0084 0CF0030C 		and	ip, ip, #3
 149              	.LVL11:
 843:Generated_Source\PSoC5/USBUART_std.c ****                 USBUART_EP[curEp].attrib     = pEP->attributes;
 150              		.loc 1 843 0
 151 0088 84F804A0 		strb	r10, [r4, #4]
 844:Generated_Source\PSoC5/USBUART_std.c ****                 USBUART_EP[curEp].bufferSize = pEP->bufferSize;
 152              		.loc 1 844 0
ARM GAS  C:\Users\ingan\AppData\Local\Temp\cc5yuDXv.s 			page 21


 153 008c 13F805AC 		ldrb	r10, [r3, #-5]	@ zero_extendqisi2
 154 0090 06F829A0 		strb	r10, [r6, r9, lsl #2]
 845:Generated_Source\PSoC5/USBUART_std.c **** 
 155              		.loc 1 845 0
 156 0094 33F8049C 		ldrh	r9, [r3, #-4]
 157 0098 A4F80890 		strh	r9, [r4, #8]	@ movhi
 847:Generated_Source\PSoC5/USBUART_std.c ****                 {
 158              		.loc 1 847 0
 159 009c 13F9069C 		ldrsb	r9, [r3, #-6]
 160 00a0 B9F1000F 		cmp	r9, #0
 161 00a4 3FDB     		blt	.L18
 856:Generated_Source\PSoC5/USBUART_std.c ****                     USBUART_EP[curEp].apiEpState = USBUART_NO_EVENT_PENDING;
 162              		.loc 1 856 0
 163 00a6 BCF1010F 		cmp	ip, #1
 164 00aa 0CBF     		ite	eq
 165 00ac 4FF0050C 		moveq	ip, #5
 166              	.LVL12:
 167 00b0 4FF0090C 		movne	ip, #9
 168 00b4 84F805C0 		strb	ip, [r4, #5]
 857:Generated_Source\PSoC5/USBUART_std.c ****                 }
 169              		.loc 1 857 0
 170 00b8 6770     		strb	r7, [r4, #1]
 171              	.L7:
 172 00ba DFF8A0C0 		ldr	ip, .L19+28
 173 00be 4FEA0219 		lsl	r9, r2, #4
 174 00c2 CC44     		add	ip, ip, r9
 907:Generated_Source\PSoC5/USBUART_std.c ****                 USBUART_SIE_EP_BASE.sieEp[curEp].epCnt1 = LO8(USBUART_EP[curEp].bufferSize);
 175              		.loc 1 907 0
 176 00c4 4244     		add	r2, r2, r8
 177              	.LVL13:
 861:Generated_Source\PSoC5/USBUART_std.c **** 
 178              		.loc 1 861 0
 179 00c6 8CF802E0 		strb	lr, [ip, #2]
 907:Generated_Source\PSoC5/USBUART_std.c ****                 USBUART_SIE_EP_BASE.sieEp[curEp].epCnt1 = LO8(USBUART_EP[curEp].bufferSize);
 180              		.loc 1 907 0
 181 00ca 06EB8202 		add	r2, r6, r2, lsl #2
 182 00ce B2F80880 		ldrh	r8, [r2, #8]
 183 00d2 214C     		ldr	r4, .L19+24
 184 00d4 C8F30728 		ubfx	r8, r8, #8, #8
 185 00d8 8CF80080 		strb	r8, [ip]
 908:Generated_Source\PSoC5/USBUART_std.c ****                 
 186              		.loc 1 908 0
 187 00dc B2F80880 		ldrh	r8, [r2, #8]
 188 00e0 4C44     		add	r4, r4, r9
 189 00e2 5FFA88F8 		uxtb	r8, r8
 190 00e6 8CF80180 		strb	r8, [ip, #1]
 914:Generated_Source\PSoC5/USBUART_std.c ****                     USBUART_ARB_EP_BASE.arbEp[curEp].rwRaMsb = HI8(USBUART_EP[curEp].buffOffset);
 191              		.loc 1 914 0
 192 00ea B2F806C0 		ldrh	ip, [r2, #6]
 193 00ee 0833     		adds	r3, r3, #8
 194              	.LVL14:
 195 00f0 5FFA8CFC 		uxtb	ip, ip
 196 00f4 84F806C0 		strb	ip, [r4, #6]
 915:Generated_Source\PSoC5/USBUART_std.c ****                     USBUART_ARB_EP_BASE.arbEp[curEp].rwWa    = LO8(USBUART_EP[curEp].buffOffset);
 197              		.loc 1 915 0
 198 00f8 B2F806C0 		ldrh	ip, [r2, #6]
 832:Generated_Source\PSoC5/USBUART_std.c ****         {
ARM GAS  C:\Users\ingan\AppData\Local\Temp\cc5yuDXv.s 			page 22


 199              		.loc 1 832 0
 200 00fc 8B42     		cmp	r3, r1
 915:Generated_Source\PSoC5/USBUART_std.c ****                     USBUART_ARB_EP_BASE.arbEp[curEp].rwWa    = LO8(USBUART_EP[curEp].buffOffset);
 201              		.loc 1 915 0
 202 00fe CCF3072C 		ubfx	ip, ip, #8, #8
 203 0102 84F807C0 		strb	ip, [r4, #7]
 916:Generated_Source\PSoC5/USBUART_std.c ****                     USBUART_ARB_EP_BASE.arbEp[curEp].rwWaMsb = HI8(USBUART_EP[curEp].buffOffset);
 204              		.loc 1 916 0
 205 0106 B2F806C0 		ldrh	ip, [r2, #6]
 206 010a 5FFA8CFC 		uxtb	ip, ip
 207 010e 84F804C0 		strb	ip, [r4, #4]
 917:Generated_Source\PSoC5/USBUART_std.c ****                 #endif /* (CY_PSOC4) */                
 208              		.loc 1 917 0
 209 0112 D288     		ldrh	r2, [r2, #6]
 210 0114 C2F30722 		ubfx	r2, r2, #8, #8
 211 0118 6271     		strb	r2, [r4, #5]
 212              	.LVL15:
 832:Generated_Source\PSoC5/USBUART_std.c ****         {
 213              		.loc 1 832 0
 214 011a 9BD1     		bne	.L9
 215              	.L17:
 216 011c BDE8F087 		pop	{r4, r5, r6, r7, r8, r9, r10, pc}
 217              	.LVL16:
 218              	.L2:
 219              		.cfi_def_cfa_offset 0
 220              		.cfi_restore 4
 221              		.cfi_restore 5
 222              		.cfi_restore 6
 223              		.cfi_restore 7
 224              		.cfi_restore 8
 225              		.cfi_restore 9
 226              		.cfi_restore 10
 227              		.cfi_restore 14
 822:Generated_Source\PSoC5/USBUART_std.c **** 
 228              		.loc 1 822 0
 229 0120 0023     		movs	r3, #0
 230 0122 1B7A     		ldrb	r3, [r3, #8]	@ zero_extendqisi2
 231 0124 FFDE     		.inst	0xdeff
 232              	.LVL17:
 233              	.L18:
 234              		.cfi_def_cfa_offset 32
 235              		.cfi_offset 4, -32
 236              		.cfi_offset 5, -28
 237              		.cfi_offset 6, -24
 238              		.cfi_offset 7, -20
 239              		.cfi_offset 8, -16
 240              		.cfi_offset 9, -12
 241              		.cfi_offset 10, -8
 242              		.cfi_offset 14, -4
 850:Generated_Source\PSoC5/USBUART_std.c ****                     USBUART_EP[curEp].apiEpState = USBUART_EVENT_PENDING;
 243              		.loc 1 850 0
 244 0126 BCF1010F 		cmp	ip, #1
 245 012a 0CBF     		ite	eq
 246 012c 4FF0070C 		moveq	ip, #7
 247              	.LVL18:
 248 0130 4FF00D0C 		movne	ip, #13
 249 0134 84F805C0 		strb	ip, [r4, #5]
ARM GAS  C:\Users\ingan\AppData\Local\Temp\cc5yuDXv.s 			page 23


 851:Generated_Source\PSoC5/USBUART_std.c ****                 }
 250              		.loc 1 851 0
 251 0138 84F801E0 		strb	lr, [r4, #1]
 252 013c BDE7     		b	.L7
 253              	.LVL19:
 254              	.L15:
 255              		.cfi_def_cfa_offset 0
 256              		.cfi_restore 4
 257              		.cfi_restore 5
 258              		.cfi_restore 6
 259              		.cfi_restore 7
 260              		.cfi_restore 8
 261              		.cfi_restore 9
 262              		.cfi_restore 10
 263              		.cfi_restore 14
 264 013e 7047     		bx	lr
 265              	.L20:
 266              		.align	2
 267              	.L19:
 268 0140 00000000 		.word	USBUART_configuration
 269 0144 00000000 		.word	USBUART_device
 270 0148 00000000 		.word	USBUART_TABLE
 271 014c 00000000 		.word	USBUART_interfaceNumber
 272 0150 00000000 		.word	USBUART_interfaceSetting
 273 0154 00000000 		.word	USBUART_EP
 274 0158 70600040 		.word	1073766512
 275 015c FC5F0040 		.word	1073766396
 276              		.cfi_endproc
 277              	.LFE13:
 278              		.size	USBUART_ConfigAltChanged.part.0, .-USBUART_ConfigAltChanged.part.0
 279              		.section	.text.USBUART_ReadDieID,"ax",%progbits
 280              		.align	2
 281              		.global	USBUART_ReadDieID
 282              		.thumb
 283              		.thumb_func
 284              		.type	USBUART_ReadDieID, %function
 285              	USBUART_ReadDieID:
 286              	.LFB1:
 399:Generated_Source\PSoC5/USBUART_std.c ****         const char8 CYCODE hex[] = "0123456789ABCDEF";
 287              		.loc 1 399 0
 288              		.cfi_startproc
 289              		@ args = 0, pretend = 0, frame = 32
 290              		@ frame_needed = 0, uses_anonymous_args = 0
 291              	.LVL20:
 292 0000 2DE9F043 		push	{r4, r5, r6, r7, r8, r9, lr}
 293              		.cfi_def_cfa_offset 28
 294              		.cfi_offset 4, -28
 295              		.cfi_offset 5, -24
 296              		.cfi_offset 6, -20
 297              		.cfi_offset 7, -16
 298              		.cfi_offset 8, -12
 299              		.cfi_offset 9, -8
 300              		.cfi_offset 14, -4
 301 0004 0446     		mov	r4, r0
 302 0006 89B0     		sub	sp, sp, #36
 303              		.cfi_def_cfa_offset 64
 400:Generated_Source\PSoC5/USBUART_std.c ****         uint8 i;
ARM GAS  C:\Users\ingan\AppData\Local\Temp\cc5yuDXv.s 			page 24


 304              		.loc 1 400 0
 305 0008 4E4E     		ldr	r6, .L25
 306 000a 03AD     		add	r5, sp, #12
 307 000c 0FCE     		ldmia	r6!, {r0, r1, r2, r3}
 308              	.LVL21:
 309 000e 0FC5     		stmia	r5!, {r0, r1, r2, r3}
 310 0010 3368     		ldr	r3, [r6]
 311 0012 2B70     		strb	r3, [r5]
 312              	.LVL22:
 405:Generated_Source\PSoC5/USBUART_std.c ****         {
 313              		.loc 1 405 0
 314 0014 002C     		cmp	r4, #0
 315 0016 00F09180 		beq	.L21
 408:Generated_Source\PSoC5/USBUART_std.c ****             descr[1u] = USBUART_DESCR_STRING;
 316              		.loc 1 408 0
 317 001a 2222     		movs	r2, #34
 409:Generated_Source\PSoC5/USBUART_std.c ****             
 318              		.loc 1 409 0
 319 001c 0323     		movs	r3, #3
 408:Generated_Source\PSoC5/USBUART_std.c ****             descr[1u] = USBUART_DESCR_STRING;
 320              		.loc 1 408 0
 321 001e 2270     		strb	r2, [r4]
 409:Generated_Source\PSoC5/USBUART_std.c ****             
 322              		.loc 1 409 0
 323 0020 6370     		strb	r3, [r4, #1]
 412:Generated_Source\PSoC5/USBUART_std.c **** 
 324              		.loc 1 412 0
 325 0022 01A8     		add	r0, sp, #4
 326 0024 FFF7FEFF 		bl	CyGetUniqueId
 327              	.LVL23:
 417:Generated_Source\PSoC5/USBUART_std.c ****                 descr[i + 1u] = 0u;
 328              		.loc 1 417 0
 329 0028 9DF80610 		ldrb	r1, [sp, #6]	@ zero_extendqisi2
 330 002c 9DF80450 		ldrb	r5, [sp, #4]	@ zero_extendqisi2
 331 0030 9DF80500 		ldrb	r0, [sp, #5]	@ zero_extendqisi2
 419:Generated_Source\PSoC5/USBUART_std.c ****                 descr[i + 3u] = 0u;
 332              		.loc 1 419 0
 333 0034 0DF1200E 		add	lr, sp, #32
 334 0038 01F00F08 		and	r8, r1, #15
 417:Generated_Source\PSoC5/USBUART_std.c ****                 descr[i + 1u] = 0u;
 335              		.loc 1 417 0
 336 003c 9DF80720 		ldrb	r2, [sp, #7]	@ zero_extendqisi2
 419:Generated_Source\PSoC5/USBUART_std.c ****                 descr[i + 3u] = 0u;
 337              		.loc 1 419 0
 338 0040 F044     		add	r8, r8, lr
 339 0042 05F00F07 		and	r7, r5, #15
 340 0046 00F00F06 		and	r6, r0, #15
 417:Generated_Source\PSoC5/USBUART_std.c ****                 descr[i + 1u] = 0u;
 341              		.loc 1 417 0
 342 004a 0EEB1515 		add	r5, lr, r5, lsr #4
 343 004e 15F814CC 		ldrb	ip, [r5, #-20]	@ zero_extendqisi2
 419:Generated_Source\PSoC5/USBUART_std.c ****                 descr[i + 3u] = 0u;
 344              		.loc 1 419 0
 345 0052 7644     		add	r6, r6, lr
 346 0054 18F8145C 		ldrb	r5, [r8, #-20]	@ zero_extendqisi2
 417:Generated_Source\PSoC5/USBUART_std.c ****                 descr[i + 1u] = 0u;
 347              		.loc 1 417 0
ARM GAS  C:\Users\ingan\AppData\Local\Temp\cc5yuDXv.s 			page 25


 348 0058 0EEB1010 		add	r0, lr, r0, lsr #4
 349 005c 0EEB1111 		add	r1, lr, r1, lsr #4
 419:Generated_Source\PSoC5/USBUART_std.c ****                 descr[i + 3u] = 0u;
 350              		.loc 1 419 0
 351 0060 0DF12008 		add	r8, sp, #32
 352 0064 7744     		add	r7, r7, lr
 417:Generated_Source\PSoC5/USBUART_std.c ****                 descr[i + 1u] = 0u;
 353              		.loc 1 417 0
 354 0066 9DF80830 		ldrb	r3, [sp, #8]	@ zero_extendqisi2
 419:Generated_Source\PSoC5/USBUART_std.c ****                 descr[i + 3u] = 0u;
 355              		.loc 1 419 0
 356 006a 17F814EC 		ldrb	lr, [r7, #-20]	@ zero_extendqisi2
 357 006e 16F8147C 		ldrb	r7, [r6, #-20]	@ zero_extendqisi2
 417:Generated_Source\PSoC5/USBUART_std.c ****                 descr[i + 1u] = 0u;
 358              		.loc 1 417 0
 359 0072 10F8146C 		ldrb	r6, [r0, #-20]	@ zero_extendqisi2
 360 0076 11F8140C 		ldrb	r0, [r1, #-20]	@ zero_extendqisi2
 419:Generated_Source\PSoC5/USBUART_std.c ****                 descr[i + 3u] = 0u;
 361              		.loc 1 419 0
 362 007a 02F00F01 		and	r1, r2, #15
 417:Generated_Source\PSoC5/USBUART_std.c ****                 descr[i + 1u] = 0u;
 363              		.loc 1 417 0
 364 007e 08EB1212 		add	r2, r8, r2, lsr #4
 365 0082 12F8149C 		ldrb	r9, [r2, #-20]	@ zero_extendqisi2
 366 0086 08AA     		add	r2, sp, #32
 367 0088 02EB1312 		add	r2, r2, r3, lsr #4
 419:Generated_Source\PSoC5/USBUART_std.c ****                 descr[i + 3u] = 0u;
 368              		.loc 1 419 0
 369 008c 4144     		add	r1, r1, r8
 370 008e 11F8148C 		ldrb	r8, [r1, #-20]	@ zero_extendqisi2
 371 0092 03F00F03 		and	r3, r3, #15
 417:Generated_Source\PSoC5/USBUART_std.c ****                 descr[i + 1u] = 0u;
 372              		.loc 1 417 0
 373 0096 12F8141C 		ldrb	r1, [r2, #-20]	@ zero_extendqisi2
 419:Generated_Source\PSoC5/USBUART_std.c ****                 descr[i + 3u] = 0u;
 374              		.loc 1 419 0
 375 009a 08AA     		add	r2, sp, #32
 376 009c 1A44     		add	r2, r2, r3
 418:Generated_Source\PSoC5/USBUART_std.c ****                 descr[i + 2u] = (uint8) hex[(uniqueId[j] & 0x0Fu)];
 377              		.loc 1 418 0
 378 009e 0023     		movs	r3, #0
 417:Generated_Source\PSoC5/USBUART_std.c ****                 descr[i + 1u] = 0u;
 379              		.loc 1 417 0
 380 00a0 84F802C0 		strb	ip, [r4, #2]
 419:Generated_Source\PSoC5/USBUART_std.c ****                 descr[i + 3u] = 0u;
 381              		.loc 1 419 0
 382 00a4 2772     		strb	r7, [r4, #8]
 417:Generated_Source\PSoC5/USBUART_std.c ****                 descr[i + 1u] = 0u;
 383              		.loc 1 417 0
 384 00a6 A671     		strb	r6, [r4, #6]
 419:Generated_Source\PSoC5/USBUART_std.c ****                 descr[i + 3u] = 0u;
 385              		.loc 1 419 0
 386 00a8 2573     		strb	r5, [r4, #12]
 417:Generated_Source\PSoC5/USBUART_std.c ****                 descr[i + 1u] = 0u;
 387              		.loc 1 417 0
 388 00aa A072     		strb	r0, [r4, #10]
 389 00ac A174     		strb	r1, [r4, #18]
ARM GAS  C:\Users\ingan\AppData\Local\Temp\cc5yuDXv.s 			page 26


 419:Generated_Source\PSoC5/USBUART_std.c ****                 descr[i + 3u] = 0u;
 390              		.loc 1 419 0
 391 00ae 84F804E0 		strb	lr, [r4, #4]
 392 00b2 84F81080 		strb	r8, [r4, #16]
 417:Generated_Source\PSoC5/USBUART_std.c ****                 descr[i + 1u] = 0u;
 393              		.loc 1 417 0
 394 00b6 84F80E90 		strb	r9, [r4, #14]
 418:Generated_Source\PSoC5/USBUART_std.c ****                 descr[i + 2u] = (uint8) hex[(uniqueId[j] & 0x0Fu)];
 395              		.loc 1 418 0
 396 00ba E370     		strb	r3, [r4, #3]
 420:Generated_Source\PSoC5/USBUART_std.c ****                 ++j;
 397              		.loc 1 420 0
 398 00bc 6371     		strb	r3, [r4, #5]
 399              	.LVL24:
 418:Generated_Source\PSoC5/USBUART_std.c ****                 descr[i + 2u] = (uint8) hex[(uniqueId[j] & 0x0Fu)];
 400              		.loc 1 418 0
 401 00be E371     		strb	r3, [r4, #7]
 420:Generated_Source\PSoC5/USBUART_std.c ****                 ++j;
 402              		.loc 1 420 0
 403 00c0 6372     		strb	r3, [r4, #9]
 404              	.LVL25:
 418:Generated_Source\PSoC5/USBUART_std.c ****                 descr[i + 2u] = (uint8) hex[(uniqueId[j] & 0x0Fu)];
 405              		.loc 1 418 0
 406 00c2 E372     		strb	r3, [r4, #11]
 420:Generated_Source\PSoC5/USBUART_std.c ****                 ++j;
 407              		.loc 1 420 0
 408 00c4 6373     		strb	r3, [r4, #13]
 409              	.LVL26:
 418:Generated_Source\PSoC5/USBUART_std.c ****                 descr[i + 2u] = (uint8) hex[(uniqueId[j] & 0x0Fu)];
 410              		.loc 1 418 0
 411 00c6 E373     		strb	r3, [r4, #15]
 420:Generated_Source\PSoC5/USBUART_std.c ****                 ++j;
 412              		.loc 1 420 0
 413 00c8 6374     		strb	r3, [r4, #17]
 414              	.LVL27:
 418:Generated_Source\PSoC5/USBUART_std.c ****                 descr[i + 2u] = (uint8) hex[(uniqueId[j] & 0x0Fu)];
 415              		.loc 1 418 0
 416 00ca E374     		strb	r3, [r4, #19]
 419:Generated_Source\PSoC5/USBUART_std.c ****                 descr[i + 3u] = 0u;
 417              		.loc 1 419 0
 418 00cc 12F814EC 		ldrb	lr, [r2, #-20]	@ zero_extendqisi2
 417:Generated_Source\PSoC5/USBUART_std.c ****                 descr[i + 1u] = 0u;
 419              		.loc 1 417 0
 420 00d0 9DF80900 		ldrb	r0, [sp, #9]	@ zero_extendqisi2
 421 00d4 9DF80A10 		ldrb	r1, [sp, #10]	@ zero_extendqisi2
 422 00d8 9DF80B20 		ldrb	r2, [sp, #11]	@ zero_extendqisi2
 419:Generated_Source\PSoC5/USBUART_std.c ****                 descr[i + 3u] = 0u;
 423              		.loc 1 419 0
 424 00dc 08AD     		add	r5, sp, #32
 425 00de 00F00F07 		and	r7, r0, #15
 426 00e2 01F00F06 		and	r6, r1, #15
 427 00e6 2F44     		add	r7, r7, r5
 417:Generated_Source\PSoC5/USBUART_std.c ****                 descr[i + 1u] = 0u;
 428              		.loc 1 417 0
 429 00e8 05EB1010 		add	r0, r5, r0, lsr #4
 430 00ec 05EB1111 		add	r1, r5, r1, lsr #4
 419:Generated_Source\PSoC5/USBUART_std.c ****                 descr[i + 3u] = 0u;
ARM GAS  C:\Users\ingan\AppData\Local\Temp\cc5yuDXv.s 			page 27


 431              		.loc 1 419 0
 432 00f0 0DF1200C 		add	ip, sp, #32
 433 00f4 2E44     		add	r6, r6, r5
 434 00f6 02F00F05 		and	r5, r2, #15
 435 00fa 6544     		add	r5, r5, ip
 417:Generated_Source\PSoC5/USBUART_std.c ****                 descr[i + 1u] = 0u;
 436              		.loc 1 417 0
 437 00fc 0CEB1212 		add	r2, ip, r2, lsr #4
 419:Generated_Source\PSoC5/USBUART_std.c ****                 descr[i + 3u] = 0u;
 438              		.loc 1 419 0
 439 0100 16F8146C 		ldrb	r6, [r6, #-20]	@ zero_extendqisi2
 440 0104 17F814CC 		ldrb	ip, [r7, #-20]	@ zero_extendqisi2
 417:Generated_Source\PSoC5/USBUART_std.c ****                 descr[i + 1u] = 0u;
 441              		.loc 1 417 0
 442 0108 12F8142C 		ldrb	r2, [r2, #-20]	@ zero_extendqisi2
 443 010c 10F8147C 		ldrb	r7, [r0, #-20]	@ zero_extendqisi2
 444 0110 11F8140C 		ldrb	r0, [r1, #-20]	@ zero_extendqisi2
 419:Generated_Source\PSoC5/USBUART_std.c ****                 descr[i + 3u] = 0u;
 445              		.loc 1 419 0
 446 0114 15F8141C 		ldrb	r1, [r5, #-20]	@ zero_extendqisi2
 447 0118 84F814E0 		strb	lr, [r4, #20]
 420:Generated_Source\PSoC5/USBUART_std.c ****                 ++j;
 448              		.loc 1 420 0
 449 011c 6375     		strb	r3, [r4, #21]
 450              	.LVL28:
 418:Generated_Source\PSoC5/USBUART_std.c ****                 descr[i + 2u] = (uint8) hex[(uniqueId[j] & 0x0Fu)];
 451              		.loc 1 418 0
 452 011e E375     		strb	r3, [r4, #23]
 420:Generated_Source\PSoC5/USBUART_std.c ****                 ++j;
 453              		.loc 1 420 0
 454 0120 6376     		strb	r3, [r4, #25]
 455              	.LVL29:
 418:Generated_Source\PSoC5/USBUART_std.c ****                 descr[i + 2u] = (uint8) hex[(uniqueId[j] & 0x0Fu)];
 456              		.loc 1 418 0
 457 0122 E376     		strb	r3, [r4, #27]
 420:Generated_Source\PSoC5/USBUART_std.c ****                 ++j;
 458              		.loc 1 420 0
 459 0124 6377     		strb	r3, [r4, #29]
 460              	.LVL30:
 418:Generated_Source\PSoC5/USBUART_std.c ****                 descr[i + 2u] = (uint8) hex[(uniqueId[j] & 0x0Fu)];
 461              		.loc 1 418 0
 462 0126 E377     		strb	r3, [r4, #31]
 420:Generated_Source\PSoC5/USBUART_std.c ****                 ++j;
 463              		.loc 1 420 0
 464 0128 84F82130 		strb	r3, [r4, #33]
 465              	.LVL31:
 419:Generated_Source\PSoC5/USBUART_std.c ****                 descr[i + 3u] = 0u;
 466              		.loc 1 419 0
 467 012c 84F818C0 		strb	ip, [r4, #24]
 417:Generated_Source\PSoC5/USBUART_std.c ****                 descr[i + 1u] = 0u;
 468              		.loc 1 417 0
 469 0130 A775     		strb	r7, [r4, #22]
 419:Generated_Source\PSoC5/USBUART_std.c ****                 descr[i + 3u] = 0u;
 470              		.loc 1 419 0
 471 0132 2677     		strb	r6, [r4, #28]
 417:Generated_Source\PSoC5/USBUART_std.c ****                 descr[i + 1u] = 0u;
 472              		.loc 1 417 0
ARM GAS  C:\Users\ingan\AppData\Local\Temp\cc5yuDXv.s 			page 28


 473 0134 A076     		strb	r0, [r4, #26]
 419:Generated_Source\PSoC5/USBUART_std.c ****                 descr[i + 3u] = 0u;
 474              		.loc 1 419 0
 475 0136 84F82010 		strb	r1, [r4, #32]
 417:Generated_Source\PSoC5/USBUART_std.c ****                 descr[i + 1u] = 0u;
 476              		.loc 1 417 0
 477 013a A277     		strb	r2, [r4, #30]
 478              	.LVL32:
 479              	.L21:
 424:Generated_Source\PSoC5/USBUART_std.c **** #endif /* (USBUART_ENABLE_IDSN_STRING) */
 480              		.loc 1 424 0
 481 013c 09B0     		add	sp, sp, #36
 482              		.cfi_def_cfa_offset 28
 483              		@ sp needed
 484 013e BDE8F083 		pop	{r4, r5, r6, r7, r8, r9, pc}
 485              	.LVL33:
 486              	.L26:
 487 0142 00BF     		.align	2
 488              	.L25:
 489 0144 00000000 		.word	.LC0
 490              		.cfi_endproc
 491              	.LFE1:
 492              		.size	USBUART_ReadDieID, .-USBUART_ReadDieID
 493              		.section	.text.USBUART_ConfigReg,"ax",%progbits
 494              		.align	2
 495              		.global	USBUART_ConfigReg
 496              		.thumb
 497              		.thumb_func
 498              		.type	USBUART_ConfigReg, %function
 499              	USBUART_ConfigReg:
 500              	.LFB2:
 438:Generated_Source\PSoC5/USBUART_std.c ****     uint8 ep;
 501              		.loc 1 438 0
 502              		.cfi_startproc
 503              		@ args = 0, pretend = 0, frame = 0
 504              		@ frame_needed = 0, uses_anonymous_args = 0
 505              		@ link register save eliminated.
 506              	.LVL34:
 507 0000 30B4     		push	{r4, r5}
 508              		.cfi_def_cfa_offset 8
 509              		.cfi_offset 4, -8
 510              		.cfi_offset 5, -4
 448:Generated_Source\PSoC5/USBUART_std.c ****         
 511              		.loc 1 448 0
 512 0002 A24A     		ldr	r2, .L53
 513 0004 0C21     		movs	r1, #12
 452:Generated_Source\PSoC5/USBUART_std.c ****     #endif /* (USBUART_EP_MANAGEMENT_DMA) */
 514              		.loc 1 452 0
 515 0006 1F20     		movs	r0, #31
 455:Generated_Source\PSoC5/USBUART_std.c ****         {
 516              		.loc 1 455 0
 517 0008 A14B     		ldr	r3, .L53+4
 448:Generated_Source\PSoC5/USBUART_std.c ****         
 518              		.loc 1 448 0
 519 000a 1170     		strb	r1, [r2]
 452:Generated_Source\PSoC5/USBUART_std.c ****     #endif /* (USBUART_EP_MANAGEMENT_DMA) */
 520              		.loc 1 452 0
ARM GAS  C:\Users\ingan\AppData\Local\Temp\cc5yuDXv.s 			page 29


 521 000c 5070     		strb	r0, [r2, #1]
 455:Generated_Source\PSoC5/USBUART_std.c ****         {
 522              		.loc 1 455 0
 523 000e 5A7C     		ldrb	r2, [r3, #17]	@ zero_extendqisi2
 524 0010 002A     		cmp	r2, #0
 525 0012 40F0F380 		bne	.L28
 480:Generated_Source\PSoC5/USBUART_std.c ****         }
 526              		.loc 1 480 0
 527 0016 9F4A     		ldr	r2, .L53+8
 528 0018 8021     		movs	r1, #128
 529 001a 9170     		strb	r1, [r2, #2]
 530              	.L29:
 488:Generated_Source\PSoC5/USBUART_std.c ****             USBUART_ARB_EP_BASE.arbEp[ep].rwRaMsb = HI8(USBUART_EP[ep].buffOffset);
 531              		.loc 1 488 0
 532 001c 598A     		ldrh	r1, [r3, #18]
 533 001e 9B4A     		ldr	r2, .L53
 534 0020 C9B2     		uxtb	r1, r1
 535 0022 9171     		strb	r1, [r2, #6]
 489:Generated_Source\PSoC5/USBUART_std.c ****             USBUART_ARB_EP_BASE.arbEp[ep].rwWa    = LO8(USBUART_EP[ep].buffOffset);
 536              		.loc 1 489 0
 537 0024 598A     		ldrh	r1, [r3, #18]
 448:Generated_Source\PSoC5/USBUART_std.c ****         
 538              		.loc 1 448 0
 539 0026 9C48     		ldr	r0, .L53+12
 489:Generated_Source\PSoC5/USBUART_std.c ****             USBUART_ARB_EP_BASE.arbEp[ep].rwWa    = LO8(USBUART_EP[ep].buffOffset);
 540              		.loc 1 489 0
 541 0028 C1F30721 		ubfx	r1, r1, #8, #8
 542 002c D171     		strb	r1, [r2, #7]
 490:Generated_Source\PSoC5/USBUART_std.c ****             USBUART_ARB_EP_BASE.arbEp[ep].rwWaMsb = HI8(USBUART_EP[ep].buffOffset);
 543              		.loc 1 490 0
 544 002e 598A     		ldrh	r1, [r3, #18]
 448:Generated_Source\PSoC5/USBUART_std.c ****         
 545              		.loc 1 448 0
 546 0030 0C24     		movs	r4, #12
 490:Generated_Source\PSoC5/USBUART_std.c ****             USBUART_ARB_EP_BASE.arbEp[ep].rwWaMsb = HI8(USBUART_EP[ep].buffOffset);
 547              		.loc 1 490 0
 548 0032 C9B2     		uxtb	r1, r1
 549 0034 1171     		strb	r1, [r2, #4]
 491:Generated_Source\PSoC5/USBUART_std.c ****         #endif /* (CY_PSOC4) */
 550              		.loc 1 491 0
 551 0036 598A     		ldrh	r1, [r3, #18]
 452:Generated_Source\PSoC5/USBUART_std.c ****     #endif /* (USBUART_EP_MANAGEMENT_DMA) */
 552              		.loc 1 452 0
 553 0038 1F25     		movs	r5, #31
 491:Generated_Source\PSoC5/USBUART_std.c ****         #endif /* (CY_PSOC4) */
 554              		.loc 1 491 0
 555 003a C1F30721 		ubfx	r1, r1, #8, #8
 556 003e 5171     		strb	r1, [r2, #5]
 557              	.LVL35:
 448:Generated_Source\PSoC5/USBUART_std.c ****         
 558              		.loc 1 448 0
 559 0040 0470     		strb	r4, [r0]
 452:Generated_Source\PSoC5/USBUART_std.c ****     #endif /* (USBUART_EP_MANAGEMENT_DMA) */
 560              		.loc 1 452 0
 561 0042 4570     		strb	r5, [r0, #1]
 455:Generated_Source\PSoC5/USBUART_std.c ****         {
 562              		.loc 1 455 0
ARM GAS  C:\Users\ingan\AppData\Local\Temp\cc5yuDXv.s 			page 30


 563 0044 5A7F     		ldrb	r2, [r3, #29]	@ zero_extendqisi2
 488:Generated_Source\PSoC5/USBUART_std.c ****             USBUART_ARB_EP_BASE.arbEp[ep].rwRaMsb = HI8(USBUART_EP[ep].buffOffset);
 564              		.loc 1 488 0
 565 0046 9249     		ldr	r1, .L53+4
 455:Generated_Source\PSoC5/USBUART_std.c ****         {
 566              		.loc 1 455 0
 567 0048 002A     		cmp	r2, #0
 568 004a 40F01581 		bne	.L31
 480:Generated_Source\PSoC5/USBUART_std.c ****         }
 569              		.loc 1 480 0
 570 004e 934A     		ldr	r2, .L53+16
 571 0050 8021     		movs	r1, #128
 572 0052 9170     		strb	r1, [r2, #2]
 573              	.L32:
 488:Generated_Source\PSoC5/USBUART_std.c ****             USBUART_ARB_EP_BASE.arbEp[ep].rwRaMsb = HI8(USBUART_EP[ep].buffOffset);
 574              		.loc 1 488 0
 575 0054 D98B     		ldrh	r1, [r3, #30]
 576 0056 904A     		ldr	r2, .L53+12
 577 0058 C9B2     		uxtb	r1, r1
 578 005a 9171     		strb	r1, [r2, #6]
 489:Generated_Source\PSoC5/USBUART_std.c ****             USBUART_ARB_EP_BASE.arbEp[ep].rwWa    = LO8(USBUART_EP[ep].buffOffset);
 579              		.loc 1 489 0
 580 005c D98B     		ldrh	r1, [r3, #30]
 448:Generated_Source\PSoC5/USBUART_std.c ****         
 581              		.loc 1 448 0
 582 005e 9048     		ldr	r0, .L53+20
 489:Generated_Source\PSoC5/USBUART_std.c ****             USBUART_ARB_EP_BASE.arbEp[ep].rwWa    = LO8(USBUART_EP[ep].buffOffset);
 583              		.loc 1 489 0
 584 0060 C1F30721 		ubfx	r1, r1, #8, #8
 585 0064 D171     		strb	r1, [r2, #7]
 490:Generated_Source\PSoC5/USBUART_std.c ****             USBUART_ARB_EP_BASE.arbEp[ep].rwWaMsb = HI8(USBUART_EP[ep].buffOffset);
 586              		.loc 1 490 0
 587 0066 D98B     		ldrh	r1, [r3, #30]
 448:Generated_Source\PSoC5/USBUART_std.c ****         
 588              		.loc 1 448 0
 589 0068 0C24     		movs	r4, #12
 490:Generated_Source\PSoC5/USBUART_std.c ****             USBUART_ARB_EP_BASE.arbEp[ep].rwWaMsb = HI8(USBUART_EP[ep].buffOffset);
 590              		.loc 1 490 0
 591 006a C9B2     		uxtb	r1, r1
 592 006c 1171     		strb	r1, [r2, #4]
 491:Generated_Source\PSoC5/USBUART_std.c ****         #endif /* (CY_PSOC4) */
 593              		.loc 1 491 0
 594 006e D98B     		ldrh	r1, [r3, #30]
 452:Generated_Source\PSoC5/USBUART_std.c ****     #endif /* (USBUART_EP_MANAGEMENT_DMA) */
 595              		.loc 1 452 0
 596 0070 1F25     		movs	r5, #31
 491:Generated_Source\PSoC5/USBUART_std.c ****         #endif /* (CY_PSOC4) */
 597              		.loc 1 491 0
 598 0072 C1F30721 		ubfx	r1, r1, #8, #8
 599 0076 5171     		strb	r1, [r2, #5]
 600              	.LVL36:
 448:Generated_Source\PSoC5/USBUART_std.c ****         
 601              		.loc 1 448 0
 602 0078 0470     		strb	r4, [r0]
 452:Generated_Source\PSoC5/USBUART_std.c ****     #endif /* (USBUART_EP_MANAGEMENT_DMA) */
 603              		.loc 1 452 0
 604 007a 4570     		strb	r5, [r0, #1]
ARM GAS  C:\Users\ingan\AppData\Local\Temp\cc5yuDXv.s 			page 31


 455:Generated_Source\PSoC5/USBUART_std.c ****         {
 605              		.loc 1 455 0
 606 007c 93F82920 		ldrb	r2, [r3, #41]	@ zero_extendqisi2
 488:Generated_Source\PSoC5/USBUART_std.c ****             USBUART_ARB_EP_BASE.arbEp[ep].rwRaMsb = HI8(USBUART_EP[ep].buffOffset);
 607              		.loc 1 488 0
 608 0080 8349     		ldr	r1, .L53+4
 455:Generated_Source\PSoC5/USBUART_std.c ****         {
 609              		.loc 1 455 0
 610 0082 002A     		cmp	r2, #0
 611 0084 40F0EE80 		bne	.L34
 480:Generated_Source\PSoC5/USBUART_std.c ****         }
 612              		.loc 1 480 0
 613 0088 864A     		ldr	r2, .L53+24
 614 008a 8021     		movs	r1, #128
 615 008c 9170     		strb	r1, [r2, #2]
 616              	.L35:
 488:Generated_Source\PSoC5/USBUART_std.c ****             USBUART_ARB_EP_BASE.arbEp[ep].rwRaMsb = HI8(USBUART_EP[ep].buffOffset);
 617              		.loc 1 488 0
 618 008e 598D     		ldrh	r1, [r3, #42]
 619 0090 834A     		ldr	r2, .L53+20
 620 0092 C9B2     		uxtb	r1, r1
 621 0094 9171     		strb	r1, [r2, #6]
 489:Generated_Source\PSoC5/USBUART_std.c ****             USBUART_ARB_EP_BASE.arbEp[ep].rwWa    = LO8(USBUART_EP[ep].buffOffset);
 622              		.loc 1 489 0
 623 0096 598D     		ldrh	r1, [r3, #42]
 448:Generated_Source\PSoC5/USBUART_std.c ****         
 624              		.loc 1 448 0
 625 0098 8348     		ldr	r0, .L53+28
 489:Generated_Source\PSoC5/USBUART_std.c ****             USBUART_ARB_EP_BASE.arbEp[ep].rwWa    = LO8(USBUART_EP[ep].buffOffset);
 626              		.loc 1 489 0
 627 009a C1F30721 		ubfx	r1, r1, #8, #8
 628 009e D171     		strb	r1, [r2, #7]
 490:Generated_Source\PSoC5/USBUART_std.c ****             USBUART_ARB_EP_BASE.arbEp[ep].rwWaMsb = HI8(USBUART_EP[ep].buffOffset);
 629              		.loc 1 490 0
 630 00a0 598D     		ldrh	r1, [r3, #42]
 448:Generated_Source\PSoC5/USBUART_std.c ****         
 631              		.loc 1 448 0
 632 00a2 0C24     		movs	r4, #12
 490:Generated_Source\PSoC5/USBUART_std.c ****             USBUART_ARB_EP_BASE.arbEp[ep].rwWaMsb = HI8(USBUART_EP[ep].buffOffset);
 633              		.loc 1 490 0
 634 00a4 C9B2     		uxtb	r1, r1
 635 00a6 1171     		strb	r1, [r2, #4]
 491:Generated_Source\PSoC5/USBUART_std.c ****         #endif /* (CY_PSOC4) */
 636              		.loc 1 491 0
 637 00a8 598D     		ldrh	r1, [r3, #42]
 452:Generated_Source\PSoC5/USBUART_std.c ****     #endif /* (USBUART_EP_MANAGEMENT_DMA) */
 638              		.loc 1 452 0
 639 00aa 1F25     		movs	r5, #31
 491:Generated_Source\PSoC5/USBUART_std.c ****         #endif /* (CY_PSOC4) */
 640              		.loc 1 491 0
 641 00ac C1F30721 		ubfx	r1, r1, #8, #8
 642 00b0 5171     		strb	r1, [r2, #5]
 643              	.LVL37:
 448:Generated_Source\PSoC5/USBUART_std.c ****         
 644              		.loc 1 448 0
 645 00b2 0470     		strb	r4, [r0]
 452:Generated_Source\PSoC5/USBUART_std.c ****     #endif /* (USBUART_EP_MANAGEMENT_DMA) */
ARM GAS  C:\Users\ingan\AppData\Local\Temp\cc5yuDXv.s 			page 32


 646              		.loc 1 452 0
 647 00b4 4570     		strb	r5, [r0, #1]
 455:Generated_Source\PSoC5/USBUART_std.c ****         {
 648              		.loc 1 455 0
 649 00b6 93F83520 		ldrb	r2, [r3, #53]	@ zero_extendqisi2
 488:Generated_Source\PSoC5/USBUART_std.c ****             USBUART_ARB_EP_BASE.arbEp[ep].rwRaMsb = HI8(USBUART_EP[ep].buffOffset);
 650              		.loc 1 488 0
 651 00ba 7549     		ldr	r1, .L53+4
 455:Generated_Source\PSoC5/USBUART_std.c ****         {
 652              		.loc 1 455 0
 653 00bc 002A     		cmp	r2, #0
 654 00be 40F0C780 		bne	.L37
 480:Generated_Source\PSoC5/USBUART_std.c ****         }
 655              		.loc 1 480 0
 656 00c2 7A4A     		ldr	r2, .L53+32
 657 00c4 8021     		movs	r1, #128
 658 00c6 9170     		strb	r1, [r2, #2]
 659              	.L38:
 488:Generated_Source\PSoC5/USBUART_std.c ****             USBUART_ARB_EP_BASE.arbEp[ep].rwRaMsb = HI8(USBUART_EP[ep].buffOffset);
 660              		.loc 1 488 0
 661 00c8 D98E     		ldrh	r1, [r3, #54]
 662 00ca 774A     		ldr	r2, .L53+28
 663 00cc C9B2     		uxtb	r1, r1
 664 00ce 9171     		strb	r1, [r2, #6]
 489:Generated_Source\PSoC5/USBUART_std.c ****             USBUART_ARB_EP_BASE.arbEp[ep].rwWa    = LO8(USBUART_EP[ep].buffOffset);
 665              		.loc 1 489 0
 666 00d0 D98E     		ldrh	r1, [r3, #54]
 448:Generated_Source\PSoC5/USBUART_std.c ****         
 667              		.loc 1 448 0
 668 00d2 7748     		ldr	r0, .L53+36
 489:Generated_Source\PSoC5/USBUART_std.c ****             USBUART_ARB_EP_BASE.arbEp[ep].rwWa    = LO8(USBUART_EP[ep].buffOffset);
 669              		.loc 1 489 0
 670 00d4 C1F30721 		ubfx	r1, r1, #8, #8
 671 00d8 D171     		strb	r1, [r2, #7]
 490:Generated_Source\PSoC5/USBUART_std.c ****             USBUART_ARB_EP_BASE.arbEp[ep].rwWaMsb = HI8(USBUART_EP[ep].buffOffset);
 672              		.loc 1 490 0
 673 00da D98E     		ldrh	r1, [r3, #54]
 448:Generated_Source\PSoC5/USBUART_std.c ****         
 674              		.loc 1 448 0
 675 00dc 0C24     		movs	r4, #12
 490:Generated_Source\PSoC5/USBUART_std.c ****             USBUART_ARB_EP_BASE.arbEp[ep].rwWaMsb = HI8(USBUART_EP[ep].buffOffset);
 676              		.loc 1 490 0
 677 00de C9B2     		uxtb	r1, r1
 678 00e0 1171     		strb	r1, [r2, #4]
 491:Generated_Source\PSoC5/USBUART_std.c ****         #endif /* (CY_PSOC4) */
 679              		.loc 1 491 0
 680 00e2 D98E     		ldrh	r1, [r3, #54]
 452:Generated_Source\PSoC5/USBUART_std.c ****     #endif /* (USBUART_EP_MANAGEMENT_DMA) */
 681              		.loc 1 452 0
 682 00e4 1F25     		movs	r5, #31
 491:Generated_Source\PSoC5/USBUART_std.c ****         #endif /* (CY_PSOC4) */
 683              		.loc 1 491 0
 684 00e6 C1F30721 		ubfx	r1, r1, #8, #8
 685 00ea 5171     		strb	r1, [r2, #5]
 686              	.LVL38:
 448:Generated_Source\PSoC5/USBUART_std.c ****         
 687              		.loc 1 448 0
ARM GAS  C:\Users\ingan\AppData\Local\Temp\cc5yuDXv.s 			page 33


 688 00ec 0470     		strb	r4, [r0]
 452:Generated_Source\PSoC5/USBUART_std.c ****     #endif /* (USBUART_EP_MANAGEMENT_DMA) */
 689              		.loc 1 452 0
 690 00ee 4570     		strb	r5, [r0, #1]
 455:Generated_Source\PSoC5/USBUART_std.c ****         {
 691              		.loc 1 455 0
 692 00f0 93F84120 		ldrb	r2, [r3, #65]	@ zero_extendqisi2
 488:Generated_Source\PSoC5/USBUART_std.c ****             USBUART_ARB_EP_BASE.arbEp[ep].rwRaMsb = HI8(USBUART_EP[ep].buffOffset);
 693              		.loc 1 488 0
 694 00f4 6649     		ldr	r1, .L53+4
 455:Generated_Source\PSoC5/USBUART_std.c ****         {
 695              		.loc 1 455 0
 696 00f6 002A     		cmp	r2, #0
 697 00f8 40F0A080 		bne	.L40
 480:Generated_Source\PSoC5/USBUART_std.c ****         }
 698              		.loc 1 480 0
 699 00fc 6D4A     		ldr	r2, .L53+40
 700 00fe 8021     		movs	r1, #128
 701 0100 9170     		strb	r1, [r2, #2]
 702              	.L41:
 488:Generated_Source\PSoC5/USBUART_std.c ****             USBUART_ARB_EP_BASE.arbEp[ep].rwRaMsb = HI8(USBUART_EP[ep].buffOffset);
 703              		.loc 1 488 0
 704 0102 B3F84210 		ldrh	r1, [r3, #66]
 705 0106 6A4A     		ldr	r2, .L53+36
 706 0108 C9B2     		uxtb	r1, r1
 707 010a 9171     		strb	r1, [r2, #6]
 489:Generated_Source\PSoC5/USBUART_std.c ****             USBUART_ARB_EP_BASE.arbEp[ep].rwWa    = LO8(USBUART_EP[ep].buffOffset);
 708              		.loc 1 489 0
 709 010c B3F84210 		ldrh	r1, [r3, #66]
 448:Generated_Source\PSoC5/USBUART_std.c ****         
 710              		.loc 1 448 0
 711 0110 6948     		ldr	r0, .L53+44
 489:Generated_Source\PSoC5/USBUART_std.c ****             USBUART_ARB_EP_BASE.arbEp[ep].rwWa    = LO8(USBUART_EP[ep].buffOffset);
 712              		.loc 1 489 0
 713 0112 C1F30721 		ubfx	r1, r1, #8, #8
 714 0116 D171     		strb	r1, [r2, #7]
 490:Generated_Source\PSoC5/USBUART_std.c ****             USBUART_ARB_EP_BASE.arbEp[ep].rwWaMsb = HI8(USBUART_EP[ep].buffOffset);
 715              		.loc 1 490 0
 716 0118 B3F84210 		ldrh	r1, [r3, #66]
 448:Generated_Source\PSoC5/USBUART_std.c ****         
 717              		.loc 1 448 0
 718 011c 0C24     		movs	r4, #12
 490:Generated_Source\PSoC5/USBUART_std.c ****             USBUART_ARB_EP_BASE.arbEp[ep].rwWaMsb = HI8(USBUART_EP[ep].buffOffset);
 719              		.loc 1 490 0
 720 011e C9B2     		uxtb	r1, r1
 721 0120 1171     		strb	r1, [r2, #4]
 491:Generated_Source\PSoC5/USBUART_std.c ****         #endif /* (CY_PSOC4) */
 722              		.loc 1 491 0
 723 0122 B3F84210 		ldrh	r1, [r3, #66]
 452:Generated_Source\PSoC5/USBUART_std.c ****     #endif /* (USBUART_EP_MANAGEMENT_DMA) */
 724              		.loc 1 452 0
 725 0126 1F25     		movs	r5, #31
 491:Generated_Source\PSoC5/USBUART_std.c ****         #endif /* (CY_PSOC4) */
 726              		.loc 1 491 0
 727 0128 C1F30721 		ubfx	r1, r1, #8, #8
 728 012c 5171     		strb	r1, [r2, #5]
 729              	.LVL39:
ARM GAS  C:\Users\ingan\AppData\Local\Temp\cc5yuDXv.s 			page 34


 448:Generated_Source\PSoC5/USBUART_std.c ****         
 730              		.loc 1 448 0
 731 012e 0470     		strb	r4, [r0]
 452:Generated_Source\PSoC5/USBUART_std.c ****     #endif /* (USBUART_EP_MANAGEMENT_DMA) */
 732              		.loc 1 452 0
 733 0130 4570     		strb	r5, [r0, #1]
 455:Generated_Source\PSoC5/USBUART_std.c ****         {
 734              		.loc 1 455 0
 735 0132 93F84D20 		ldrb	r2, [r3, #77]	@ zero_extendqisi2
 488:Generated_Source\PSoC5/USBUART_std.c ****             USBUART_ARB_EP_BASE.arbEp[ep].rwRaMsb = HI8(USBUART_EP[ep].buffOffset);
 736              		.loc 1 488 0
 737 0136 5649     		ldr	r1, .L53+4
 455:Generated_Source\PSoC5/USBUART_std.c ****         {
 738              		.loc 1 455 0
 739 0138 002A     		cmp	r2, #0
 740 013a 75D1     		bne	.L43
 480:Generated_Source\PSoC5/USBUART_std.c ****         }
 741              		.loc 1 480 0
 742 013c 5F4A     		ldr	r2, .L53+48
 743 013e 8021     		movs	r1, #128
 744 0140 9170     		strb	r1, [r2, #2]
 745              	.L44:
 488:Generated_Source\PSoC5/USBUART_std.c ****             USBUART_ARB_EP_BASE.arbEp[ep].rwRaMsb = HI8(USBUART_EP[ep].buffOffset);
 746              		.loc 1 488 0
 747 0142 B3F84E10 		ldrh	r1, [r3, #78]
 748 0146 5C4A     		ldr	r2, .L53+44
 749 0148 C9B2     		uxtb	r1, r1
 750 014a 9171     		strb	r1, [r2, #6]
 489:Generated_Source\PSoC5/USBUART_std.c ****             USBUART_ARB_EP_BASE.arbEp[ep].rwWa    = LO8(USBUART_EP[ep].buffOffset);
 751              		.loc 1 489 0
 752 014c B3F84E10 		ldrh	r1, [r3, #78]
 448:Generated_Source\PSoC5/USBUART_std.c ****         
 753              		.loc 1 448 0
 754 0150 5B48     		ldr	r0, .L53+52
 489:Generated_Source\PSoC5/USBUART_std.c ****             USBUART_ARB_EP_BASE.arbEp[ep].rwWa    = LO8(USBUART_EP[ep].buffOffset);
 755              		.loc 1 489 0
 756 0152 C1F30721 		ubfx	r1, r1, #8, #8
 757 0156 D171     		strb	r1, [r2, #7]
 490:Generated_Source\PSoC5/USBUART_std.c ****             USBUART_ARB_EP_BASE.arbEp[ep].rwWaMsb = HI8(USBUART_EP[ep].buffOffset);
 758              		.loc 1 490 0
 759 0158 B3F84E10 		ldrh	r1, [r3, #78]
 448:Generated_Source\PSoC5/USBUART_std.c ****         
 760              		.loc 1 448 0
 761 015c 0C24     		movs	r4, #12
 490:Generated_Source\PSoC5/USBUART_std.c ****             USBUART_ARB_EP_BASE.arbEp[ep].rwWaMsb = HI8(USBUART_EP[ep].buffOffset);
 762              		.loc 1 490 0
 763 015e C9B2     		uxtb	r1, r1
 764 0160 1171     		strb	r1, [r2, #4]
 491:Generated_Source\PSoC5/USBUART_std.c ****         #endif /* (CY_PSOC4) */
 765              		.loc 1 491 0
 766 0162 B3F84E10 		ldrh	r1, [r3, #78]
 452:Generated_Source\PSoC5/USBUART_std.c ****     #endif /* (USBUART_EP_MANAGEMENT_DMA) */
 767              		.loc 1 452 0
 768 0166 1F25     		movs	r5, #31
 491:Generated_Source\PSoC5/USBUART_std.c ****         #endif /* (CY_PSOC4) */
 769              		.loc 1 491 0
 770 0168 C1F30721 		ubfx	r1, r1, #8, #8
ARM GAS  C:\Users\ingan\AppData\Local\Temp\cc5yuDXv.s 			page 35


 771 016c 5171     		strb	r1, [r2, #5]
 772              	.LVL40:
 448:Generated_Source\PSoC5/USBUART_std.c ****         
 773              		.loc 1 448 0
 774 016e 0470     		strb	r4, [r0]
 452:Generated_Source\PSoC5/USBUART_std.c ****     #endif /* (USBUART_EP_MANAGEMENT_DMA) */
 775              		.loc 1 452 0
 776 0170 4570     		strb	r5, [r0, #1]
 455:Generated_Source\PSoC5/USBUART_std.c ****         {
 777              		.loc 1 455 0
 778 0172 93F85920 		ldrb	r2, [r3, #89]	@ zero_extendqisi2
 488:Generated_Source\PSoC5/USBUART_std.c ****             USBUART_ARB_EP_BASE.arbEp[ep].rwRaMsb = HI8(USBUART_EP[ep].buffOffset);
 779              		.loc 1 488 0
 780 0176 4649     		ldr	r1, .L53+4
 455:Generated_Source\PSoC5/USBUART_std.c ****         {
 781              		.loc 1 455 0
 782 0178 002A     		cmp	r2, #0
 783 017a 4BD1     		bne	.L46
 480:Generated_Source\PSoC5/USBUART_std.c ****         }
 784              		.loc 1 480 0
 785 017c 514A     		ldr	r2, .L53+56
 786 017e 8021     		movs	r1, #128
 787 0180 9170     		strb	r1, [r2, #2]
 788              	.L47:
 488:Generated_Source\PSoC5/USBUART_std.c ****             USBUART_ARB_EP_BASE.arbEp[ep].rwRaMsb = HI8(USBUART_EP[ep].buffOffset);
 789              		.loc 1 488 0
 790 0182 B3F85A10 		ldrh	r1, [r3, #90]
 791 0186 4E4A     		ldr	r2, .L53+52
 792 0188 C9B2     		uxtb	r1, r1
 793 018a 9171     		strb	r1, [r2, #6]
 489:Generated_Source\PSoC5/USBUART_std.c ****             USBUART_ARB_EP_BASE.arbEp[ep].rwWa    = LO8(USBUART_EP[ep].buffOffset);
 794              		.loc 1 489 0
 795 018c B3F85A10 		ldrh	r1, [r3, #90]
 448:Generated_Source\PSoC5/USBUART_std.c ****         
 796              		.loc 1 448 0
 797 0190 4D48     		ldr	r0, .L53+60
 489:Generated_Source\PSoC5/USBUART_std.c ****             USBUART_ARB_EP_BASE.arbEp[ep].rwWa    = LO8(USBUART_EP[ep].buffOffset);
 798              		.loc 1 489 0
 799 0192 C1F30721 		ubfx	r1, r1, #8, #8
 800 0196 D171     		strb	r1, [r2, #7]
 490:Generated_Source\PSoC5/USBUART_std.c ****             USBUART_ARB_EP_BASE.arbEp[ep].rwWaMsb = HI8(USBUART_EP[ep].buffOffset);
 801              		.loc 1 490 0
 802 0198 B3F85A10 		ldrh	r1, [r3, #90]
 448:Generated_Source\PSoC5/USBUART_std.c ****         
 803              		.loc 1 448 0
 804 019c 0C24     		movs	r4, #12
 490:Generated_Source\PSoC5/USBUART_std.c ****             USBUART_ARB_EP_BASE.arbEp[ep].rwWaMsb = HI8(USBUART_EP[ep].buffOffset);
 805              		.loc 1 490 0
 806 019e C9B2     		uxtb	r1, r1
 807 01a0 1171     		strb	r1, [r2, #4]
 491:Generated_Source\PSoC5/USBUART_std.c ****         #endif /* (CY_PSOC4) */
 808              		.loc 1 491 0
 809 01a2 B3F85A10 		ldrh	r1, [r3, #90]
 452:Generated_Source\PSoC5/USBUART_std.c ****     #endif /* (USBUART_EP_MANAGEMENT_DMA) */
 810              		.loc 1 452 0
 811 01a6 1F25     		movs	r5, #31
 491:Generated_Source\PSoC5/USBUART_std.c ****         #endif /* (CY_PSOC4) */
ARM GAS  C:\Users\ingan\AppData\Local\Temp\cc5yuDXv.s 			page 36


 812              		.loc 1 491 0
 813 01a8 C1F30721 		ubfx	r1, r1, #8, #8
 814 01ac 5171     		strb	r1, [r2, #5]
 815              	.LVL41:
 448:Generated_Source\PSoC5/USBUART_std.c ****         
 816              		.loc 1 448 0
 817 01ae 0470     		strb	r4, [r0]
 452:Generated_Source\PSoC5/USBUART_std.c ****     #endif /* (USBUART_EP_MANAGEMENT_DMA) */
 818              		.loc 1 452 0
 819 01b0 4570     		strb	r5, [r0, #1]
 455:Generated_Source\PSoC5/USBUART_std.c ****         {
 820              		.loc 1 455 0
 821 01b2 93F86520 		ldrb	r2, [r3, #101]	@ zero_extendqisi2
 488:Generated_Source\PSoC5/USBUART_std.c ****             USBUART_ARB_EP_BASE.arbEp[ep].rwRaMsb = HI8(USBUART_EP[ep].buffOffset);
 822              		.loc 1 488 0
 823 01b6 3649     		ldr	r1, .L53+4
 455:Generated_Source\PSoC5/USBUART_std.c ****         {
 824              		.loc 1 455 0
 825 01b8 42B3     		cbz	r2, .L49
 457:Generated_Source\PSoC5/USBUART_std.c ****             {
 826              		.loc 1 457 0
 827 01ba 91F86420 		ldrb	r2, [r1, #100]	@ zero_extendqisi2
 828 01be 12F0800F 		tst	r2, #128
 459:Generated_Source\PSoC5/USBUART_std.c ****                 
 829              		.loc 1 459 0
 830 01c2 424A     		ldr	r2, .L53+64
 468:Generated_Source\PSoC5/USBUART_std.c **** 
 831              		.loc 1 468 0
 832 01c4 0ABF     		itet	eq
 833 01c6 0821     		moveq	r1, #8
 459:Generated_Source\PSoC5/USBUART_std.c ****                 
 834              		.loc 1 459 0
 835 01c8 9470     		strbne	r4, [r2, #2]
 468:Generated_Source\PSoC5/USBUART_std.c **** 
 836              		.loc 1 468 0
 837 01ca 9170     		strbeq	r1, [r2, #2]
 838              	.L51:
 488:Generated_Source\PSoC5/USBUART_std.c ****             USBUART_ARB_EP_BASE.arbEp[ep].rwRaMsb = HI8(USBUART_EP[ep].buffOffset);
 839              		.loc 1 488 0 discriminator 2
 840 01cc B3F86610 		ldrh	r1, [r3, #102]
 841 01d0 3D4A     		ldr	r2, .L53+60
 842 01d2 C9B2     		uxtb	r1, r1
 843 01d4 9171     		strb	r1, [r2, #6]
 489:Generated_Source\PSoC5/USBUART_std.c ****             USBUART_ARB_EP_BASE.arbEp[ep].rwWa    = LO8(USBUART_EP[ep].buffOffset);
 844              		.loc 1 489 0 discriminator 2
 845 01d6 B3F86610 		ldrh	r1, [r3, #102]
 519:Generated_Source\PSoC5/USBUART_std.c **** }
 846              		.loc 1 519 0 discriminator 2
 847 01da 3D48     		ldr	r0, .L53+68
 489:Generated_Source\PSoC5/USBUART_std.c ****             USBUART_ARB_EP_BASE.arbEp[ep].rwWa    = LO8(USBUART_EP[ep].buffOffset);
 848              		.loc 1 489 0 discriminator 2
 849 01dc C1F30721 		ubfx	r1, r1, #8, #8
 850 01e0 D171     		strb	r1, [r2, #7]
 490:Generated_Source\PSoC5/USBUART_std.c ****             USBUART_ARB_EP_BASE.arbEp[ep].rwWaMsb = HI8(USBUART_EP[ep].buffOffset);
 851              		.loc 1 490 0 discriminator 2
 852 01e2 B3F86610 		ldrh	r1, [r3, #102]
 519:Generated_Source\PSoC5/USBUART_std.c **** }
ARM GAS  C:\Users\ingan\AppData\Local\Temp\cc5yuDXv.s 			page 37


 853              		.loc 1 519 0 discriminator 2
 854 01e6 FF24     		movs	r4, #255
 490:Generated_Source\PSoC5/USBUART_std.c ****             USBUART_ARB_EP_BASE.arbEp[ep].rwWaMsb = HI8(USBUART_EP[ep].buffOffset);
 855              		.loc 1 490 0 discriminator 2
 856 01e8 C9B2     		uxtb	r1, r1
 857 01ea 1171     		strb	r1, [r2, #4]
 491:Generated_Source\PSoC5/USBUART_std.c ****         #endif /* (CY_PSOC4) */
 858              		.loc 1 491 0 discriminator 2
 859 01ec B3F86630 		ldrh	r3, [r3, #102]
 860 01f0 C3F30723 		ubfx	r3, r3, #8, #8
 861 01f4 5371     		strb	r3, [r2, #5]
 862              	.LVL42:
 519:Generated_Source\PSoC5/USBUART_std.c **** }
 863              		.loc 1 519 0 discriminator 2
 864 01f6 0470     		strb	r4, [r0]
 520:Generated_Source\PSoC5/USBUART_std.c **** 
 865              		.loc 1 520 0 discriminator 2
 866 01f8 30BC     		pop	{r4, r5}
 867              		.cfi_remember_state
 868              		.cfi_restore 5
 869              		.cfi_restore 4
 870              		.cfi_def_cfa_offset 0
 871 01fa 7047     		bx	lr
 872              	.LVL43:
 873              	.L28:
 874              		.cfi_restore_state
 457:Generated_Source\PSoC5/USBUART_std.c ****             {
 875              		.loc 1 457 0
 876 01fc 1A7C     		ldrb	r2, [r3, #16]	@ zero_extendqisi2
 877 01fe 12F0800F 		tst	r2, #128
 459:Generated_Source\PSoC5/USBUART_std.c ****                 
 878              		.loc 1 459 0
 879 0202 244A     		ldr	r2, .L53+8
 468:Generated_Source\PSoC5/USBUART_std.c **** 
 880              		.loc 1 468 0
 881 0204 08BF     		it	eq
 882 0206 0821     		moveq	r1, #8
 459:Generated_Source\PSoC5/USBUART_std.c ****                 
 883              		.loc 1 459 0
 884 0208 9170     		strb	r1, [r2, #2]
 885 020a 07E7     		b	.L29
 886              	.LVL44:
 887              	.L49:
 480:Generated_Source\PSoC5/USBUART_std.c ****         }
 888              		.loc 1 480 0
 889 020c 2F4A     		ldr	r2, .L53+64
 890 020e 8021     		movs	r1, #128
 891 0210 9170     		strb	r1, [r2, #2]
 892 0212 DBE7     		b	.L51
 893              	.LVL45:
 894              	.L46:
 457:Generated_Source\PSoC5/USBUART_std.c ****             {
 895              		.loc 1 457 0
 896 0214 91F85820 		ldrb	r2, [r1, #88]	@ zero_extendqisi2
 897 0218 12F0800F 		tst	r2, #128
 459:Generated_Source\PSoC5/USBUART_std.c ****                 
 898              		.loc 1 459 0
ARM GAS  C:\Users\ingan\AppData\Local\Temp\cc5yuDXv.s 			page 38


 899 021c 294A     		ldr	r2, .L53+56
 468:Generated_Source\PSoC5/USBUART_std.c **** 
 900              		.loc 1 468 0
 901 021e 06BF     		itte	eq
 902 0220 0821     		moveq	r1, #8
 903 0222 9170     		strbeq	r1, [r2, #2]
 459:Generated_Source\PSoC5/USBUART_std.c ****                 
 904              		.loc 1 459 0
 905 0224 9470     		strbne	r4, [r2, #2]
 906 0226 ACE7     		b	.L47
 907              	.LVL46:
 908              	.L43:
 457:Generated_Source\PSoC5/USBUART_std.c ****             {
 909              		.loc 1 457 0
 910 0228 91F84C20 		ldrb	r2, [r1, #76]	@ zero_extendqisi2
 911 022c 12F0800F 		tst	r2, #128
 459:Generated_Source\PSoC5/USBUART_std.c ****                 
 912              		.loc 1 459 0
 913 0230 224A     		ldr	r2, .L53+48
 468:Generated_Source\PSoC5/USBUART_std.c **** 
 914              		.loc 1 468 0
 915 0232 06BF     		itte	eq
 916 0234 0821     		moveq	r1, #8
 917 0236 9170     		strbeq	r1, [r2, #2]
 459:Generated_Source\PSoC5/USBUART_std.c ****                 
 918              		.loc 1 459 0
 919 0238 9470     		strbne	r4, [r2, #2]
 920 023a 82E7     		b	.L44
 921              	.LVL47:
 922              	.L40:
 457:Generated_Source\PSoC5/USBUART_std.c ****             {
 923              		.loc 1 457 0
 924 023c 91F84020 		ldrb	r2, [r1, #64]	@ zero_extendqisi2
 925 0240 12F0800F 		tst	r2, #128
 459:Generated_Source\PSoC5/USBUART_std.c ****                 
 926              		.loc 1 459 0
 927 0244 1B4A     		ldr	r2, .L53+40
 468:Generated_Source\PSoC5/USBUART_std.c **** 
 928              		.loc 1 468 0
 929 0246 06BF     		itte	eq
 930 0248 0821     		moveq	r1, #8
 931 024a 9170     		strbeq	r1, [r2, #2]
 459:Generated_Source\PSoC5/USBUART_std.c ****                 
 932              		.loc 1 459 0
 933 024c 9470     		strbne	r4, [r2, #2]
 934 024e 58E7     		b	.L41
 935              	.LVL48:
 936              	.L37:
 457:Generated_Source\PSoC5/USBUART_std.c ****             {
 937              		.loc 1 457 0
 938 0250 91F83420 		ldrb	r2, [r1, #52]	@ zero_extendqisi2
 939 0254 12F0800F 		tst	r2, #128
 459:Generated_Source\PSoC5/USBUART_std.c ****                 
 940              		.loc 1 459 0
 941 0258 144A     		ldr	r2, .L53+32
 468:Generated_Source\PSoC5/USBUART_std.c **** 
 942              		.loc 1 468 0
ARM GAS  C:\Users\ingan\AppData\Local\Temp\cc5yuDXv.s 			page 39


 943 025a 06BF     		itte	eq
 944 025c 0821     		moveq	r1, #8
 945 025e 9170     		strbeq	r1, [r2, #2]
 459:Generated_Source\PSoC5/USBUART_std.c ****                 
 946              		.loc 1 459 0
 947 0260 9470     		strbne	r4, [r2, #2]
 948 0262 31E7     		b	.L38
 949              	.LVL49:
 950              	.L34:
 457:Generated_Source\PSoC5/USBUART_std.c ****             {
 951              		.loc 1 457 0
 952 0264 91F82820 		ldrb	r2, [r1, #40]	@ zero_extendqisi2
 953 0268 12F0800F 		tst	r2, #128
 459:Generated_Source\PSoC5/USBUART_std.c ****                 
 954              		.loc 1 459 0
 955 026c 0D4A     		ldr	r2, .L53+24
 468:Generated_Source\PSoC5/USBUART_std.c **** 
 956              		.loc 1 468 0
 957 026e 06BF     		itte	eq
 958 0270 0821     		moveq	r1, #8
 959 0272 9170     		strbeq	r1, [r2, #2]
 459:Generated_Source\PSoC5/USBUART_std.c ****                 
 960              		.loc 1 459 0
 961 0274 9470     		strbne	r4, [r2, #2]
 962 0276 0AE7     		b	.L35
 963              	.LVL50:
 964              	.L31:
 457:Generated_Source\PSoC5/USBUART_std.c ****             {
 965              		.loc 1 457 0
 966 0278 0A7F     		ldrb	r2, [r1, #28]	@ zero_extendqisi2
 967 027a 12F0800F 		tst	r2, #128
 459:Generated_Source\PSoC5/USBUART_std.c ****                 
 968              		.loc 1 459 0
 969 027e 074A     		ldr	r2, .L53+16
 468:Generated_Source\PSoC5/USBUART_std.c **** 
 970              		.loc 1 468 0
 971 0280 06BF     		itte	eq
 972 0282 0821     		moveq	r1, #8
 973 0284 9170     		strbeq	r1, [r2, #2]
 459:Generated_Source\PSoC5/USBUART_std.c ****                 
 974              		.loc 1 459 0
 975 0286 9470     		strbne	r4, [r2, #2]
 976 0288 E4E6     		b	.L32
 977              	.L54:
 978 028a 00BF     		.align	2
 979              	.L53:
 980 028c 80600040 		.word	1073766528
 981 0290 00000000 		.word	USBUART_EP
 982 0294 0C600040 		.word	1073766412
 983 0298 90600040 		.word	1073766544
 984 029c 1C600040 		.word	1073766428
 985 02a0 A0600040 		.word	1073766560
 986 02a4 2C600040 		.word	1073766444
 987 02a8 B0600040 		.word	1073766576
 988 02ac 3C600040 		.word	1073766460
 989 02b0 C0600040 		.word	1073766592
 990 02b4 4C600040 		.word	1073766476
ARM GAS  C:\Users\ingan\AppData\Local\Temp\cc5yuDXv.s 			page 40


 991 02b8 D0600040 		.word	1073766608
 992 02bc 5C600040 		.word	1073766492
 993 02c0 E0600040 		.word	1073766624
 994 02c4 6C600040 		.word	1073766508
 995 02c8 F0600040 		.word	1073766640
 996 02cc 7C600040 		.word	1073766524
 997 02d0 0A600040 		.word	1073766410
 998              		.cfi_endproc
 999              	.LFE2:
 1000              		.size	USBUART_ConfigReg, .-USBUART_ConfigReg
 1001              		.section	.text.USBUART_EpStateInit,"ax",%progbits
 1002              		.align	2
 1003              		.global	USBUART_EpStateInit
 1004              		.thumb
 1005              		.thumb_func
 1006              		.type	USBUART_EpStateInit, %function
 1007              	USBUART_EpStateInit:
 1008              	.LFB3:
 533:Generated_Source\PSoC5/USBUART_std.c ****     uint8 i;
 1009              		.loc 1 533 0
 1010              		.cfi_startproc
 1011              		@ args = 0, pretend = 0, frame = 0
 1012              		@ frame_needed = 0, uses_anonymous_args = 0
 1013              		@ link register save eliminated.
 1014              	.LVL51:
 538:Generated_Source\PSoC5/USBUART_std.c ****         {
 1015              		.loc 1 538 0
 1016 0000 224B     		ldr	r3, .L72
 1017 0002 1A7C     		ldrb	r2, [r3, #16]	@ zero_extendqisi2
 1018 0004 1206     		lsls	r2, r2, #24
 546:Generated_Source\PSoC5/USBUART_std.c ****         }
 1019              		.loc 1 546 0
 1020 0006 54BF     		ite	pl
 1021 0008 0022     		movpl	r2, #0
 541:Generated_Source\PSoC5/USBUART_std.c ****         }
 1022              		.loc 1 541 0
 1023 000a 0122     		movmi	r2, #1
 1024 000c 5A73     		strb	r2, [r3, #13]
 538:Generated_Source\PSoC5/USBUART_std.c ****         {
 1025              		.loc 1 538 0
 1026 000e 197F     		ldrb	r1, [r3, #28]	@ zero_extendqisi2
 1027 0010 1E4A     		ldr	r2, .L72
 1028 0012 0806     		lsls	r0, r1, #24
 546:Generated_Source\PSoC5/USBUART_std.c ****         }
 1029              		.loc 1 546 0
 1030 0014 54BF     		ite	pl
 1031 0016 0021     		movpl	r1, #0
 541:Generated_Source\PSoC5/USBUART_std.c ****         }
 1032              		.loc 1 541 0
 1033 0018 0121     		movmi	r1, #1
 1034 001a 5176     		strb	r1, [r2, #25]
 538:Generated_Source\PSoC5/USBUART_std.c ****         {
 1035              		.loc 1 538 0
 1036 001c 93F82810 		ldrb	r1, [r3, #40]	@ zero_extendqisi2
 1037 0020 1A4A     		ldr	r2, .L72
 1038 0022 0906     		lsls	r1, r1, #24
 546:Generated_Source\PSoC5/USBUART_std.c ****         }
ARM GAS  C:\Users\ingan\AppData\Local\Temp\cc5yuDXv.s 			page 41


 1039              		.loc 1 546 0
 1040 0024 54BF     		ite	pl
 1041 0026 0021     		movpl	r1, #0
 541:Generated_Source\PSoC5/USBUART_std.c ****         }
 1042              		.loc 1 541 0
 1043 0028 0121     		movmi	r1, #1
 1044 002a 82F82510 		strb	r1, [r2, #37]
 538:Generated_Source\PSoC5/USBUART_std.c ****         {
 1045              		.loc 1 538 0
 1046 002e 93F83410 		ldrb	r1, [r3, #52]	@ zero_extendqisi2
 1047 0032 164A     		ldr	r2, .L72
 1048 0034 0806     		lsls	r0, r1, #24
 546:Generated_Source\PSoC5/USBUART_std.c ****         }
 1049              		.loc 1 546 0
 1050 0036 54BF     		ite	pl
 1051 0038 0021     		movpl	r1, #0
 541:Generated_Source\PSoC5/USBUART_std.c ****         }
 1052              		.loc 1 541 0
 1053 003a 0121     		movmi	r1, #1
 1054 003c 82F83110 		strb	r1, [r2, #49]
 538:Generated_Source\PSoC5/USBUART_std.c ****         {
 1055              		.loc 1 538 0
 1056 0040 93F84010 		ldrb	r1, [r3, #64]	@ zero_extendqisi2
 1057 0044 114A     		ldr	r2, .L72
 1058 0046 0906     		lsls	r1, r1, #24
 546:Generated_Source\PSoC5/USBUART_std.c ****         }
 1059              		.loc 1 546 0
 1060 0048 54BF     		ite	pl
 1061 004a 0021     		movpl	r1, #0
 541:Generated_Source\PSoC5/USBUART_std.c ****         }
 1062              		.loc 1 541 0
 1063 004c 0121     		movmi	r1, #1
 1064 004e 82F83D10 		strb	r1, [r2, #61]
 538:Generated_Source\PSoC5/USBUART_std.c ****         {
 1065              		.loc 1 538 0
 1066 0052 93F84C10 		ldrb	r1, [r3, #76]	@ zero_extendqisi2
 1067 0056 0D4A     		ldr	r2, .L72
 1068 0058 0806     		lsls	r0, r1, #24
 546:Generated_Source\PSoC5/USBUART_std.c ****         }
 1069              		.loc 1 546 0
 1070 005a 54BF     		ite	pl
 1071 005c 0021     		movpl	r1, #0
 541:Generated_Source\PSoC5/USBUART_std.c ****         }
 1072              		.loc 1 541 0
 1073 005e 0121     		movmi	r1, #1
 1074 0060 82F84910 		strb	r1, [r2, #73]
 538:Generated_Source\PSoC5/USBUART_std.c ****         {
 1075              		.loc 1 538 0
 1076 0064 93F85810 		ldrb	r1, [r3, #88]	@ zero_extendqisi2
 1077 0068 084A     		ldr	r2, .L72
 1078 006a 0906     		lsls	r1, r1, #24
 546:Generated_Source\PSoC5/USBUART_std.c ****         }
 1079              		.loc 1 546 0
 1080 006c 54BF     		ite	pl
 1081 006e 0021     		movpl	r1, #0
 541:Generated_Source\PSoC5/USBUART_std.c ****         }
 1082              		.loc 1 541 0
ARM GAS  C:\Users\ingan\AppData\Local\Temp\cc5yuDXv.s 			page 42


 1083 0070 0121     		movmi	r1, #1
 1084 0072 82F85510 		strb	r1, [r2, #85]
 538:Generated_Source\PSoC5/USBUART_std.c ****         {
 1085              		.loc 1 538 0
 1086 0076 93F86420 		ldrb	r2, [r3, #100]	@ zero_extendqisi2
 1087 007a 044B     		ldr	r3, .L72
 1088 007c 1206     		lsls	r2, r2, #24
 541:Generated_Source\PSoC5/USBUART_std.c ****         }
 1089              		.loc 1 541 0
 1090 007e 4CBF     		ite	mi
 1091 0080 0122     		movmi	r2, #1
 546:Generated_Source\PSoC5/USBUART_std.c ****         }
 1092              		.loc 1 546 0
 1093 0082 0022     		movpl	r2, #0
 1094 0084 83F86120 		strb	r2, [r3, #97]
 1095              	.LVL52:
 1096 0088 7047     		bx	lr
 1097              	.L73:
 1098 008a 00BF     		.align	2
 1099              	.L72:
 1100 008c 00000000 		.word	USBUART_EP
 1101              		.cfi_endproc
 1102              	.LFE3:
 1103              		.size	USBUART_EpStateInit, .-USBUART_EpStateInit
 1104              		.section	.text.USBUART_Config,"ax",%progbits
 1105              		.align	2
 1106              		.global	USBUART_Config
 1107              		.thumb
 1108              		.thumb_func
 1109              		.type	USBUART_Config, %function
 1110              	USBUART_Config:
 1111              	.LFB4:
 571:Generated_Source\PSoC5/USBUART_std.c ****     uint8 ep;
 1112              		.loc 1 571 0
 1113              		.cfi_startproc
 1114              		@ args = 0, pretend = 0, frame = 16
 1115              		@ frame_needed = 0, uses_anonymous_args = 0
 1116              	.LVL53:
 1117 0000 2DE9F04F 		push	{r4, r5, r6, r7, r8, r9, r10, fp, lr}
 1118              		.cfi_def_cfa_offset 36
 1119              		.cfi_offset 4, -36
 1120              		.cfi_offset 5, -32
 1121              		.cfi_offset 6, -28
 1122              		.cfi_offset 7, -24
 1123              		.cfi_offset 8, -20
 1124              		.cfi_offset 9, -16
 1125              		.cfi_offset 10, -12
 1126              		.cfi_offset 11, -8
 1127              		.cfi_offset 14, -4
 588:Generated_Source\PSoC5/USBUART_std.c ****         USBUART_EP[ep].hwEpState  = 0u;
 1128              		.loc 1 588 0
 1129 0004 594D     		ldr	r5, .L137
 1130 0006 0023     		movs	r3, #0
 1131 0008 2B70     		strb	r3, [r5]
 571:Generated_Source\PSoC5/USBUART_std.c ****     uint8 ep;
 1132              		.loc 1 571 0
 1133 000a 85B0     		sub	sp, sp, #20
ARM GAS  C:\Users\ingan\AppData\Local\Temp\cc5yuDXv.s 			page 43


 1134              		.cfi_def_cfa_offset 56
 589:Generated_Source\PSoC5/USBUART_std.c ****         USBUART_EP[ep].epToggle   = 0u;
 1135              		.loc 1 589 0
 1136 000c AB70     		strb	r3, [r5, #2]
 590:Generated_Source\PSoC5/USBUART_std.c ****         USBUART_EP[ep].bufferSize = 0u;
 1137              		.loc 1 590 0
 1138 000e EB70     		strb	r3, [r5, #3]
 591:Generated_Source\PSoC5/USBUART_std.c ****         USBUART_EP[ep].interface  = 0u;
 1139              		.loc 1 591 0
 1140 0010 2B81     		strh	r3, [r5, #8]	@ movhi
 592:Generated_Source\PSoC5/USBUART_std.c ****         USBUART_EP[ep].apiEpState = USBUART_NO_EVENT_PENDING;
 1141              		.loc 1 592 0
 1142 0012 AB72     		strb	r3, [r5, #10]
 593:Generated_Source\PSoC5/USBUART_std.c ****         USBUART_EP[ep].epMode     = USBUART_MODE_DISABLE;   
 1143              		.loc 1 593 0
 1144 0014 6B70     		strb	r3, [r5, #1]
 594:Generated_Source\PSoC5/USBUART_std.c ****     }
 1145              		.loc 1 594 0
 1146 0016 6B71     		strb	r3, [r5, #5]
 1147              	.LVL54:
 588:Generated_Source\PSoC5/USBUART_std.c ****         USBUART_EP[ep].hwEpState  = 0u;
 1148              		.loc 1 588 0
 1149 0018 2B73     		strb	r3, [r5, #12]
 589:Generated_Source\PSoC5/USBUART_std.c ****         USBUART_EP[ep].epToggle   = 0u;
 1150              		.loc 1 589 0
 1151 001a AB73     		strb	r3, [r5, #14]
 590:Generated_Source\PSoC5/USBUART_std.c ****         USBUART_EP[ep].bufferSize = 0u;
 1152              		.loc 1 590 0
 1153 001c EB73     		strb	r3, [r5, #15]
 591:Generated_Source\PSoC5/USBUART_std.c ****         USBUART_EP[ep].interface  = 0u;
 1154              		.loc 1 591 0
 1155 001e AB82     		strh	r3, [r5, #20]	@ movhi
 592:Generated_Source\PSoC5/USBUART_std.c ****         USBUART_EP[ep].apiEpState = USBUART_NO_EVENT_PENDING;
 1156              		.loc 1 592 0
 1157 0020 AB75     		strb	r3, [r5, #22]
 593:Generated_Source\PSoC5/USBUART_std.c ****         USBUART_EP[ep].epMode     = USBUART_MODE_DISABLE;   
 1158              		.loc 1 593 0
 1159 0022 6B73     		strb	r3, [r5, #13]
 594:Generated_Source\PSoC5/USBUART_std.c ****     }
 1160              		.loc 1 594 0
 1161 0024 6B74     		strb	r3, [r5, #17]
 1162              	.LVL55:
 588:Generated_Source\PSoC5/USBUART_std.c ****         USBUART_EP[ep].hwEpState  = 0u;
 1163              		.loc 1 588 0
 1164 0026 2B76     		strb	r3, [r5, #24]
 589:Generated_Source\PSoC5/USBUART_std.c ****         USBUART_EP[ep].epToggle   = 0u;
 1165              		.loc 1 589 0
 1166 0028 AB76     		strb	r3, [r5, #26]
 590:Generated_Source\PSoC5/USBUART_std.c ****         USBUART_EP[ep].bufferSize = 0u;
 1167              		.loc 1 590 0
 1168 002a EB76     		strb	r3, [r5, #27]
 591:Generated_Source\PSoC5/USBUART_std.c ****         USBUART_EP[ep].interface  = 0u;
 1169              		.loc 1 591 0
 1170 002c 2B84     		strh	r3, [r5, #32]	@ movhi
 592:Generated_Source\PSoC5/USBUART_std.c ****         USBUART_EP[ep].apiEpState = USBUART_NO_EVENT_PENDING;
 1171              		.loc 1 592 0
 1172 002e 85F82230 		strb	r3, [r5, #34]
ARM GAS  C:\Users\ingan\AppData\Local\Temp\cc5yuDXv.s 			page 44


 593:Generated_Source\PSoC5/USBUART_std.c ****         USBUART_EP[ep].epMode     = USBUART_MODE_DISABLE;   
 1173              		.loc 1 593 0
 1174 0032 6B76     		strb	r3, [r5, #25]
 594:Generated_Source\PSoC5/USBUART_std.c ****     }
 1175              		.loc 1 594 0
 1176 0034 6B77     		strb	r3, [r5, #29]
 1177              	.LVL56:
 588:Generated_Source\PSoC5/USBUART_std.c ****         USBUART_EP[ep].hwEpState  = 0u;
 1178              		.loc 1 588 0
 1179 0036 85F82430 		strb	r3, [r5, #36]
 589:Generated_Source\PSoC5/USBUART_std.c ****         USBUART_EP[ep].epToggle   = 0u;
 1180              		.loc 1 589 0
 1181 003a 85F82630 		strb	r3, [r5, #38]
 590:Generated_Source\PSoC5/USBUART_std.c ****         USBUART_EP[ep].bufferSize = 0u;
 1182              		.loc 1 590 0
 1183 003e 85F82730 		strb	r3, [r5, #39]
 591:Generated_Source\PSoC5/USBUART_std.c ****         USBUART_EP[ep].interface  = 0u;
 1184              		.loc 1 591 0
 1185 0042 AB85     		strh	r3, [r5, #44]	@ movhi
 592:Generated_Source\PSoC5/USBUART_std.c ****         USBUART_EP[ep].apiEpState = USBUART_NO_EVENT_PENDING;
 1186              		.loc 1 592 0
 1187 0044 85F82E30 		strb	r3, [r5, #46]
 593:Generated_Source\PSoC5/USBUART_std.c ****         USBUART_EP[ep].epMode     = USBUART_MODE_DISABLE;   
 1188              		.loc 1 593 0
 1189 0048 85F82530 		strb	r3, [r5, #37]
 594:Generated_Source\PSoC5/USBUART_std.c ****     }
 1190              		.loc 1 594 0
 1191 004c 85F82930 		strb	r3, [r5, #41]
 1192              	.LVL57:
 588:Generated_Source\PSoC5/USBUART_std.c ****         USBUART_EP[ep].hwEpState  = 0u;
 1193              		.loc 1 588 0
 1194 0050 85F83030 		strb	r3, [r5, #48]
 589:Generated_Source\PSoC5/USBUART_std.c ****         USBUART_EP[ep].epToggle   = 0u;
 1195              		.loc 1 589 0
 1196 0054 85F83230 		strb	r3, [r5, #50]
 590:Generated_Source\PSoC5/USBUART_std.c ****         USBUART_EP[ep].bufferSize = 0u;
 1197              		.loc 1 590 0
 1198 0058 85F83330 		strb	r3, [r5, #51]
 591:Generated_Source\PSoC5/USBUART_std.c ****         USBUART_EP[ep].interface  = 0u;
 1199              		.loc 1 591 0
 1200 005c 2B87     		strh	r3, [r5, #56]	@ movhi
 592:Generated_Source\PSoC5/USBUART_std.c ****         USBUART_EP[ep].apiEpState = USBUART_NO_EVENT_PENDING;
 1201              		.loc 1 592 0
 1202 005e 85F83A30 		strb	r3, [r5, #58]
 593:Generated_Source\PSoC5/USBUART_std.c ****         USBUART_EP[ep].epMode     = USBUART_MODE_DISABLE;   
 1203              		.loc 1 593 0
 1204 0062 85F83130 		strb	r3, [r5, #49]
 594:Generated_Source\PSoC5/USBUART_std.c ****     }
 1205              		.loc 1 594 0
 1206 0066 85F83530 		strb	r3, [r5, #53]
 1207              	.LVL58:
 588:Generated_Source\PSoC5/USBUART_std.c ****         USBUART_EP[ep].hwEpState  = 0u;
 1208              		.loc 1 588 0
 1209 006a 85F83C30 		strb	r3, [r5, #60]
 589:Generated_Source\PSoC5/USBUART_std.c ****         USBUART_EP[ep].epToggle   = 0u;
 1210              		.loc 1 589 0
 1211 006e 85F83E30 		strb	r3, [r5, #62]
ARM GAS  C:\Users\ingan\AppData\Local\Temp\cc5yuDXv.s 			page 45


 590:Generated_Source\PSoC5/USBUART_std.c ****         USBUART_EP[ep].bufferSize = 0u;
 1212              		.loc 1 590 0
 1213 0072 85F83F30 		strb	r3, [r5, #63]
 591:Generated_Source\PSoC5/USBUART_std.c ****         USBUART_EP[ep].interface  = 0u;
 1214              		.loc 1 591 0
 1215 0076 A5F84430 		strh	r3, [r5, #68]	@ movhi
 592:Generated_Source\PSoC5/USBUART_std.c ****         USBUART_EP[ep].apiEpState = USBUART_NO_EVENT_PENDING;
 1216              		.loc 1 592 0
 1217 007a 85F84630 		strb	r3, [r5, #70]
 593:Generated_Source\PSoC5/USBUART_std.c ****         USBUART_EP[ep].epMode     = USBUART_MODE_DISABLE;   
 1218              		.loc 1 593 0
 1219 007e 85F83D30 		strb	r3, [r5, #61]
 594:Generated_Source\PSoC5/USBUART_std.c ****     }
 1220              		.loc 1 594 0
 1221 0082 85F84130 		strb	r3, [r5, #65]
 1222              	.LVL59:
 588:Generated_Source\PSoC5/USBUART_std.c ****         USBUART_EP[ep].hwEpState  = 0u;
 1223              		.loc 1 588 0
 1224 0086 85F84830 		strb	r3, [r5, #72]
 589:Generated_Source\PSoC5/USBUART_std.c ****         USBUART_EP[ep].epToggle   = 0u;
 1225              		.loc 1 589 0
 1226 008a 85F84A30 		strb	r3, [r5, #74]
 590:Generated_Source\PSoC5/USBUART_std.c ****         USBUART_EP[ep].bufferSize = 0u;
 1227              		.loc 1 590 0
 1228 008e 85F84B30 		strb	r3, [r5, #75]
 591:Generated_Source\PSoC5/USBUART_std.c ****         USBUART_EP[ep].interface  = 0u;
 1229              		.loc 1 591 0
 1230 0092 A5F85030 		strh	r3, [r5, #80]	@ movhi
 592:Generated_Source\PSoC5/USBUART_std.c ****         USBUART_EP[ep].apiEpState = USBUART_NO_EVENT_PENDING;
 1231              		.loc 1 592 0
 1232 0096 85F85230 		strb	r3, [r5, #82]
 593:Generated_Source\PSoC5/USBUART_std.c ****         USBUART_EP[ep].epMode     = USBUART_MODE_DISABLE;   
 1233              		.loc 1 593 0
 1234 009a 85F84930 		strb	r3, [r5, #73]
 594:Generated_Source\PSoC5/USBUART_std.c ****     }
 1235              		.loc 1 594 0
 1236 009e 85F84D30 		strb	r3, [r5, #77]
 1237              	.LVL60:
 588:Generated_Source\PSoC5/USBUART_std.c ****         USBUART_EP[ep].hwEpState  = 0u;
 1238              		.loc 1 588 0
 1239 00a2 85F85430 		strb	r3, [r5, #84]
 589:Generated_Source\PSoC5/USBUART_std.c ****         USBUART_EP[ep].epToggle   = 0u;
 1240              		.loc 1 589 0
 1241 00a6 85F85630 		strb	r3, [r5, #86]
 590:Generated_Source\PSoC5/USBUART_std.c ****         USBUART_EP[ep].bufferSize = 0u;
 1242              		.loc 1 590 0
 1243 00aa 85F85730 		strb	r3, [r5, #87]
 591:Generated_Source\PSoC5/USBUART_std.c ****         USBUART_EP[ep].interface  = 0u;
 1244              		.loc 1 591 0
 1245 00ae A5F85C30 		strh	r3, [r5, #92]	@ movhi
 592:Generated_Source\PSoC5/USBUART_std.c ****         USBUART_EP[ep].apiEpState = USBUART_NO_EVENT_PENDING;
 1246              		.loc 1 592 0
 1247 00b2 85F85E30 		strb	r3, [r5, #94]
 593:Generated_Source\PSoC5/USBUART_std.c ****         USBUART_EP[ep].epMode     = USBUART_MODE_DISABLE;   
 1248              		.loc 1 593 0
 1249 00b6 85F85530 		strb	r3, [r5, #85]
 594:Generated_Source\PSoC5/USBUART_std.c ****     }
ARM GAS  C:\Users\ingan\AppData\Local\Temp\cc5yuDXv.s 			page 46


 1250              		.loc 1 594 0
 1251 00ba 85F85930 		strb	r3, [r5, #89]
 1252              	.LVL61:
 588:Generated_Source\PSoC5/USBUART_std.c ****         USBUART_EP[ep].hwEpState  = 0u;
 1253              		.loc 1 588 0
 1254 00be 85F86030 		strb	r3, [r5, #96]
 589:Generated_Source\PSoC5/USBUART_std.c ****         USBUART_EP[ep].epToggle   = 0u;
 1255              		.loc 1 589 0
 1256 00c2 85F86230 		strb	r3, [r5, #98]
 590:Generated_Source\PSoC5/USBUART_std.c ****         USBUART_EP[ep].bufferSize = 0u;
 1257              		.loc 1 590 0
 1258 00c6 85F86330 		strb	r3, [r5, #99]
 591:Generated_Source\PSoC5/USBUART_std.c ****         USBUART_EP[ep].interface  = 0u;
 1259              		.loc 1 591 0
 1260 00ca A5F86830 		strh	r3, [r5, #104]	@ movhi
 592:Generated_Source\PSoC5/USBUART_std.c ****         USBUART_EP[ep].apiEpState = USBUART_NO_EVENT_PENDING;
 1261              		.loc 1 592 0
 1262 00ce 85F86A30 		strb	r3, [r5, #106]
 593:Generated_Source\PSoC5/USBUART_std.c ****         USBUART_EP[ep].epMode     = USBUART_MODE_DISABLE;   
 1263              		.loc 1 593 0
 1264 00d2 85F86130 		strb	r3, [r5, #97]
 594:Generated_Source\PSoC5/USBUART_std.c ****     }
 1265              		.loc 1 594 0
 1266 00d6 85F86530 		strb	r3, [r5, #101]
 1267              	.LVL62:
 598:Generated_Source\PSoC5/USBUART_std.c ****     {
 1268              		.loc 1 598 0
 1269 00da 28B1     		cbz	r0, .L75
 1270              	.LVL63:
 602:Generated_Source\PSoC5/USBUART_std.c ****             USBUART_interfaceSettingLast[i] = 0u;
 1271              		.loc 1 602 0 discriminator 1
 1272 00dc 2449     		ldr	r1, .L137+4
 603:Generated_Source\PSoC5/USBUART_std.c ****         }
 1273              		.loc 1 603 0 discriminator 1
 1274 00de 254A     		ldr	r2, .L137+8
 602:Generated_Source\PSoC5/USBUART_std.c ****             USBUART_interfaceSettingLast[i] = 0u;
 1275              		.loc 1 602 0 discriminator 1
 1276 00e0 0B70     		strb	r3, [r1]
 603:Generated_Source\PSoC5/USBUART_std.c ****         }
 1277              		.loc 1 603 0 discriminator 1
 1278 00e2 1370     		strb	r3, [r2]
 1279              	.LVL64:
 602:Generated_Source\PSoC5/USBUART_std.c ****             USBUART_interfaceSettingLast[i] = 0u;
 1280              		.loc 1 602 0 discriminator 1
 1281 00e4 4B70     		strb	r3, [r1, #1]
 603:Generated_Source\PSoC5/USBUART_std.c ****         }
 1282              		.loc 1 603 0 discriminator 1
 1283 00e6 5370     		strb	r3, [r2, #1]
 1284              	.LVL65:
 1285              	.L75:
 608:Generated_Source\PSoC5/USBUART_std.c ****     {
 1286              		.loc 1 608 0
 1287 00e8 234B     		ldr	r3, .L137+12
 1288 00ea 1B78     		ldrb	r3, [r3]	@ zero_extendqisi2
 1289 00ec 002B     		cmp	r3, #0
 1290 00ee 00F05482 		beq	.L74
 1291              	.LVL66:
ARM GAS  C:\Users\ingan\AppData\Local\Temp\cc5yuDXv.s 			page 47


 1292              	.LBB43:
 1293              	.LBB44:
 1294              	.LBB45:
 614:Generated_Source\PSoC5/USBUART_std.c ****         
 1295              		.loc 1 614 0
 1296 00f2 214B     		ldr	r3, .L137+12
 1297              	.LBB46:
 1298              	.LBB47:
 948:Generated_Source\PSoC5/USBUART_std.c **** 
 1299              		.loc 1 948 0
 1300 00f4 214A     		ldr	r2, .L137+16
 1301              	.LBE47:
 1302              	.LBE46:
 614:Generated_Source\PSoC5/USBUART_std.c ****         
 1303              		.loc 1 614 0
 1304 00f6 1B78     		ldrb	r3, [r3]	@ zero_extendqisi2
 1305              	.LBB51:
 1306              	.LBB48:
 948:Generated_Source\PSoC5/USBUART_std.c **** 
 1307              		.loc 1 948 0
 1308 00f8 2149     		ldr	r1, .L137+20
 1309 00fa 1278     		ldrb	r2, [r2]	@ zero_extendqisi2
 1310              	.LBE48:
 1311              	.LBE51:
 614:Generated_Source\PSoC5/USBUART_std.c ****         
 1312              		.loc 1 614 0
 1313 00fc 013B     		subs	r3, r3, #1
 1314              	.LBB52:
 1315              	.LBB49:
 948:Generated_Source\PSoC5/USBUART_std.c **** 
 1316              		.loc 1 948 0
 1317 00fe 01EBC202 		add	r2, r1, r2, lsl #3
 1318 0102 5268     		ldr	r2, [r2, #4]
 1319              	.LBE49:
 1320              	.LBE52:
 614:Generated_Source\PSoC5/USBUART_std.c ****         
 1321              		.loc 1 614 0
 1322 0104 DBB2     		uxtb	r3, r3
 1323              	.LVL67:
 1324              	.LBB53:
 1325              	.LBB50:
 957:Generated_Source\PSoC5/USBUART_std.c ****     {
 1326              		.loc 1 957 0
 1327 0106 117C     		ldrb	r1, [r2, #16]	@ zero_extendqisi2
 1328 0108 9942     		cmp	r1, r3
 1329 010a 40F24982 		bls	.L77
 1330              		.loc 1 963 0
 1331 010e 02EBC303 		add	r3, r2, r3, lsl #3
 1332              	.LVL68:
 1333 0112 D3F814A0 		ldr	r10, [r3, #20]
 1334              	.LVL69:
 1335              	.LBE50:
 1336              	.LBE53:
 620:Generated_Source\PSoC5/USBUART_std.c ****         }
 1337              		.loc 1 620 0
 1338 0116 1B4A     		ldr	r2, .L137+24
 618:Generated_Source\PSoC5/USBUART_std.c ****         {
ARM GAS  C:\Users\ingan\AppData\Local\Temp\cc5yuDXv.s 			page 48


 1339              		.loc 1 618 0
 1340 0118 DAF80430 		ldr	r3, [r10, #4]
 629:Generated_Source\PSoC5/USBUART_std.c **** 
 1341              		.loc 1 629 0
 1342 011c 9AF808B0 		ldrb	fp, [r10, #8]	@ zero_extendqisi2
 1343              	.LVL70:
 618:Generated_Source\PSoC5/USBUART_std.c ****         {
 1344              		.loc 1 618 0
 1345 0120 DB79     		ldrb	r3, [r3, #7]	@ zero_extendqisi2
 629:Generated_Source\PSoC5/USBUART_std.c **** 
 1346              		.loc 1 629 0
 1347 0122 0126     		movs	r6, #1
 618:Generated_Source\PSoC5/USBUART_std.c ****         {
 1348              		.loc 1 618 0
 1349 0124 13F0400F 		tst	r3, #64
 620:Generated_Source\PSoC5/USBUART_std.c ****         }
 1350              		.loc 1 620 0
 1351 0128 1378     		ldrb	r3, [r2]	@ zero_extendqisi2
 629:Generated_Source\PSoC5/USBUART_std.c **** 
 1352              		.loc 1 629 0
 1353 012a DAF80C40 		ldr	r4, [r10, #12]
 620:Generated_Source\PSoC5/USBUART_std.c ****         }
 1354              		.loc 1 620 0
 1355 012e 14BF     		ite	ne
 1356 0130 43F00103 		orrne	r3, r3, #1
 624:Generated_Source\PSoC5/USBUART_std.c ****         }
 1357              		.loc 1 624 0
 1358 0134 03F0FE03 		andeq	r3, r3, #254
 1359 0138 1370     		strb	r3, [r2]
 1360 013a 0BF1FF33 		add	r3, fp, #-1
 1361 013e DBB2     		uxtb	r3, r3
 1362 0140 0393     		str	r3, [sp, #12]
 1363 0142 3344     		add	r3, r3, r6
 1364 0144 DB00     		lsls	r3, r3, #3
 1365 0146 0193     		str	r3, [sp, #4]
 1366 0148 5346     		mov	r3, r10
 705:Generated_Source\PSoC5/USBUART_std.c ****                         {                            
 1367              		.loc 1 705 0
 1368 014a DFF82490 		ldr	r9, .L137+4
 611:Generated_Source\PSoC5/USBUART_std.c ****         #endif  /* (USBUART_ENABLE_CDC_CLASS) */  
 1369              		.loc 1 611 0
 1370 014e 0022     		movs	r2, #0
 1371              	.LVL71:
 1372              	.L88:
 1373 0150 5FFA86FA 		uxtb	r10, r6
 1374              	.LVL72:
 694:Generated_Source\PSoC5/USBUART_std.c ****                 {
 1375              		.loc 1 694 0
 1376 0154 BBF1000F 		cmp	fp, #0
 1377 0158 00F03082 		beq	.L118
 1378 015c 0199     		ldr	r1, [sp, #4]
 699:Generated_Source\PSoC5/USBUART_std.c ****                         {
 1379              		.loc 1 699 0
 1380 015e 06EB4608 		add	r8, r6, r6, lsl #1
 1381 0162 4FEA8808 		lsl	r8, r8, #2
 1382 0166 6718     		adds	r7, r4, r1
 1383 0168 11E0     		b	.L87
ARM GAS  C:\Users\ingan\AppData\Local\Temp\cc5yuDXv.s 			page 49


 1384              	.L138:
 1385 016a 00BF     		.align	2
 1386              	.L137:
 1387 016c 00000000 		.word	USBUART_EP
 1388 0170 00000000 		.word	USBUART_interfaceSetting
 1389 0174 00000000 		.word	USBUART_interfaceSettingLast
 1390 0178 00000000 		.word	USBUART_configuration
 1391 017c 00000000 		.word	USBUART_device
 1392 0180 00000000 		.word	USBUART_TABLE
 1393 0184 00000000 		.word	USBUART_deviceStatus
 1394              	.LVL73:
 1395              	.L81:
 752:Generated_Source\PSoC5/USBUART_std.c ****                 }
 1396              		.loc 1 752 0
 1397 0188 0834     		adds	r4, r4, #8
 1398              	.LVL74:
 694:Generated_Source\PSoC5/USBUART_std.c ****                 {
 1399              		.loc 1 694 0
 1400 018a BC42     		cmp	r4, r7
 1401 018c 3CD0     		beq	.L135
 1402              	.LVL75:
 1403              	.L87:
 696:Generated_Source\PSoC5/USBUART_std.c ****                     {
 1404              		.loc 1 696 0
 1405 018e A178     		ldrb	r1, [r4, #2]	@ zero_extendqisi2
 1406 0190 01F07F0E 		and	lr, r1, #127
 1407 0194 7645     		cmp	r6, lr
 1408 0196 F7D1     		bne	.L81
 699:Generated_Source\PSoC5/USBUART_std.c ****                         {
 1409              		.loc 1 699 0
 1410 0198 05EB080C 		add	ip, r5, r8
 1411 019c BCF808E0 		ldrh	lr, [ip, #8]
 1412 01a0 A088     		ldrh	r0, [r4, #4]
 1413 01a2 1FFA8EFE 		uxth	lr, lr
 1414 01a6 8645     		cmp	lr, r0
 701:Generated_Source\PSoC5/USBUART_std.c ****                         }
 1415              		.loc 1 701 0
 1416 01a8 38BF     		it	cc
 1417 01aa ACF80800 		strhcc	r0, [ip, #8]	@ movhi
 705:Generated_Source\PSoC5/USBUART_std.c ****                         {                            
 1418              		.loc 1 705 0
 1419 01ae 2078     		ldrb	r0, [r4]	@ zero_extendqisi2
 1420 01b0 94F801E0 		ldrb	lr, [r4, #1]	@ zero_extendqisi2
 1421 01b4 19F80000 		ldrb	r0, [r9, r0]	@ zero_extendqisi2
 1422 01b8 8645     		cmp	lr, r0
 1423 01ba E5D1     		bne	.L81
 707:Generated_Source\PSoC5/USBUART_std.c ****                             USBUART_EP[i].attrib = pEP->attributes;
 1424              		.loc 1 707 0
 1425 01bc 05EB0800 		add	r0, r5, r8
 1426 01c0 0171     		strb	r1, [r0, #4]
 708:Generated_Source\PSoC5/USBUART_std.c ****                             
 1427              		.loc 1 708 0
 1428 01c2 E178     		ldrb	r1, [r4, #3]	@ zero_extendqisi2
 1429 01c4 05F80810 		strb	r1, [r5, r8]
 712:Generated_Source\PSoC5/USBUART_std.c ****                             {
 1430              		.loc 1 712 0
 1431 01c8 94F902E0 		ldrsb	lr, [r4, #2]
ARM GAS  C:\Users\ingan\AppData\Local\Temp\cc5yuDXv.s 			page 50


 710:Generated_Source\PSoC5/USBUART_std.c ****                             
 1432              		.loc 1 710 0
 1433 01cc E178     		ldrb	r1, [r4, #3]	@ zero_extendqisi2
 712:Generated_Source\PSoC5/USBUART_std.c ****                             {
 1434              		.loc 1 712 0
 1435 01ce BEF1000F 		cmp	lr, #0
 710:Generated_Source\PSoC5/USBUART_std.c ****                             
 1436              		.loc 1 710 0
 1437 01d2 01F00301 		and	r1, r1, #3
 1438              	.LVL76:
 712:Generated_Source\PSoC5/USBUART_std.c ****                             {
 1439              		.loc 1 712 0
 1440 01d6 C0F2E681 		blt	.L136
 728:Generated_Source\PSoC5/USBUART_std.c ****                                 USBUART_EP[i].apiEpState = USBUART_NO_EVENT_PENDING;
 1441              		.loc 1 728 0
 1442 01da 0129     		cmp	r1, #1
 1443 01dc 14BF     		ite	ne
 1444 01de 0921     		movne	r1, #9
 1445              	.LVL77:
 1446 01e0 0521     		moveq	r1, #5
 1447 01e2 4171     		strb	r1, [r0, #5]
 1448              	.LVL78:
 729:Generated_Source\PSoC5/USBUART_std.c ****                                 
 1449              		.loc 1 729 0
 1450 01e4 4FF00001 		mov	r1, #0
 1451 01e8 4170     		strb	r1, [r0, #1]
 1452              	.L85:
 740:Generated_Source\PSoC5/USBUART_std.c ****                             {
 1453              		.loc 1 740 0
 1454 01ea A179     		ldrb	r1, [r4, #6]	@ zero_extendqisi2
 1455 01ec 01F0F701 		and	r1, r1, #247
 1456 01f0 0229     		cmp	r1, #2
 1457 01f2 C9D1     		bne	.L81
 742:Generated_Source\PSoC5/USBUART_std.c ****                             }
 1458              		.loc 1 742 0
 1459 01f4 2046     		mov	r0, r4
 1460 01f6 5146     		mov	r1, r10
 1461 01f8 0293     		str	r3, [sp, #8]
 1462 01fa FFF7FEFF 		bl	USBUART_Cdc_EpInit
 1463              	.LVL79:
 752:Generated_Source\PSoC5/USBUART_std.c ****                 }
 1464              		.loc 1 752 0
 1465 01fe 0834     		adds	r4, r4, #8
 1466              	.LVL80:
 694:Generated_Source\PSoC5/USBUART_std.c ****                 {
 1467              		.loc 1 694 0
 1468 0200 BC42     		cmp	r4, r7
 742:Generated_Source\PSoC5/USBUART_std.c ****                             }
 1469              		.loc 1 742 0
 1470 0202 0246     		mov	r2, r0
 1471 0204 029B     		ldr	r3, [sp, #8]
 1472              	.LVL81:
 694:Generated_Source\PSoC5/USBUART_std.c ****                 {
 1473              		.loc 1 694 0
 1474 0206 C2D1     		bne	.L87
 1475              	.L135:
 1476 0208 D968     		ldr	r1, [r3, #12]
ARM GAS  C:\Users\ingan\AppData\Local\Temp\cc5yuDXv.s 			page 51


 1477              	.LVL82:
 1478              	.L80:
 1479 020a 0136     		adds	r6, r6, #1
 1480              	.LVL83:
 687:Generated_Source\PSoC5/USBUART_std.c ****             {
 1481              		.loc 1 687 0
 1482 020c 092E     		cmp	r6, #9
 1483 020e 0C46     		mov	r4, r1
 1484 0210 9ED1     		bne	.L88
 1485              	.LVL84:
 763:Generated_Source\PSoC5/USBUART_std.c ****         {
 1486              		.loc 1 763 0
 1487 0212 BBF1000F 		cmp	fp, #0
 1488 0216 13D0     		beq	.L93
 1489 0218 0398     		ldr	r0, [sp, #12]
 1490 021a 01F10802 		add	r2, r1, #8
 1491              	.LVL85:
 1492 021e 0230     		adds	r0, r0, #2
 1493 0220 01EBC000 		add	r0, r1, r0, lsl #3
 1494              	.LVL86:
 1495              	.L92:
 766:Generated_Source\PSoC5/USBUART_std.c ****             pEP = &pEP[1u];
 1496              		.loc 1 766 0
 1497 0224 12F8063C 		ldrb	r3, [r2, #-6]	@ zero_extendqisi2
 1498 0228 12F8081C 		ldrb	r1, [r2, #-8]	@ zero_extendqisi2
 1499 022c 03F07F03 		and	r3, r3, #127
 1500 0230 03EB4303 		add	r3, r3, r3, lsl #1
 1501 0234 0832     		adds	r2, r2, #8
 1502              	.LVL87:
 1503 0236 05EB8303 		add	r3, r5, r3, lsl #2
 763:Generated_Source\PSoC5/USBUART_std.c ****         {
 1504              		.loc 1 763 0
 1505 023a 8242     		cmp	r2, r0
 766:Generated_Source\PSoC5/USBUART_std.c ****             pEP = &pEP[1u];
 1506              		.loc 1 766 0
 1507 023c 9972     		strb	r1, [r3, #10]
 1508              	.LVL88:
 763:Generated_Source\PSoC5/USBUART_std.c ****         {
 1509              		.loc 1 763 0
 1510 023e F1D1     		bne	.L92
 1511              	.L93:
 1512              	.LBB54:
 1513              	.LBB55:
 964:Generated_Source\PSoC5/USBUART_std.c ****     }
 965:Generated_Source\PSoC5/USBUART_std.c **** 
 966:Generated_Source\PSoC5/USBUART_std.c ****     return (pTmp);
 967:Generated_Source\PSoC5/USBUART_std.c **** }
 968:Generated_Source\PSoC5/USBUART_std.c **** 
 969:Generated_Source\PSoC5/USBUART_std.c **** 
 970:Generated_Source\PSoC5/USBUART_std.c **** #if (USBUART_BOS_ENABLE)
 971:Generated_Source\PSoC5/USBUART_std.c ****     /*******************************************************************************
 972:Generated_Source\PSoC5/USBUART_std.c ****     * Function Name: USBUART_GetBOSPtr
 973:Generated_Source\PSoC5/USBUART_std.c ****     ****************************************************************************//**
 974:Generated_Source\PSoC5/USBUART_std.c ****     *
 975:Generated_Source\PSoC5/USBUART_std.c ****     *  This routine returns a pointer a BOS table entry
 976:Generated_Source\PSoC5/USBUART_std.c ****     *
 977:Generated_Source\PSoC5/USBUART_std.c ****     *  
ARM GAS  C:\Users\ingan\AppData\Local\Temp\cc5yuDXv.s 			page 52


 978:Generated_Source\PSoC5/USBUART_std.c ****     *
 979:Generated_Source\PSoC5/USBUART_std.c ****     * \return
 980:Generated_Source\PSoC5/USBUART_std.c ****     *  BOS Descriptor pointer or NULL when descriptor does not exist.
 981:Generated_Source\PSoC5/USBUART_std.c ****     *
 982:Generated_Source\PSoC5/USBUART_std.c ****     *******************************************************************************/
 983:Generated_Source\PSoC5/USBUART_std.c ****     const T_USBUART_LUT CYCODE *USBUART_GetBOSPtr(void)
 984:Generated_Source\PSoC5/USBUART_std.c ****                                                             
 985:Generated_Source\PSoC5/USBUART_std.c ****     {
 986:Generated_Source\PSoC5/USBUART_std.c ****         /* Device Table */
 987:Generated_Source\PSoC5/USBUART_std.c ****         const T_USBUART_LUT CYCODE *pTmp;
 988:Generated_Source\PSoC5/USBUART_std.c **** 
 989:Generated_Source\PSoC5/USBUART_std.c ****         pTmp = (const T_USBUART_LUT CYCODE *) USBUART_TABLE[USBUART_device].p_list;
 990:Generated_Source\PSoC5/USBUART_std.c **** 
 991:Generated_Source\PSoC5/USBUART_std.c ****         /* The first entry points to the Device Descriptor,
 992:Generated_Source\PSoC5/USBUART_std.c ****         *  the second entry points to the BOS Descriptor
 993:Generated_Source\PSoC5/USBUART_std.c ****         */
 994:Generated_Source\PSoC5/USBUART_std.c ****         pTmp = &pTmp[1u];
 995:Generated_Source\PSoC5/USBUART_std.c ****         pTmp = (const T_USBUART_LUT CYCODE *) pTmp->p_list;
 996:Generated_Source\PSoC5/USBUART_std.c ****         return (pTmp);
 997:Generated_Source\PSoC5/USBUART_std.c ****     }
 998:Generated_Source\PSoC5/USBUART_std.c **** #endif /* (USBUART_BOS_ENABLE) */
 999:Generated_Source\PSoC5/USBUART_std.c **** 
1000:Generated_Source\PSoC5/USBUART_std.c **** 
1001:Generated_Source\PSoC5/USBUART_std.c **** /*******************************************************************************
1002:Generated_Source\PSoC5/USBUART_std.c **** * Function Name: USBUART_GetDeviceTablePtr
1003:Generated_Source\PSoC5/USBUART_std.c **** ****************************************************************************//**
1004:Generated_Source\PSoC5/USBUART_std.c **** *
1005:Generated_Source\PSoC5/USBUART_std.c **** *  This routine returns a pointer to the Device table
1006:Generated_Source\PSoC5/USBUART_std.c **** *
1007:Generated_Source\PSoC5/USBUART_std.c **** * \return
1008:Generated_Source\PSoC5/USBUART_std.c **** *  Device Table pointer
1009:Generated_Source\PSoC5/USBUART_std.c **** *
1010:Generated_Source\PSoC5/USBUART_std.c **** *******************************************************************************/
1011:Generated_Source\PSoC5/USBUART_std.c **** const T_USBUART_LUT CYCODE *USBUART_GetDeviceTablePtr(void)
1012:Generated_Source\PSoC5/USBUART_std.c ****                                                             
1013:Generated_Source\PSoC5/USBUART_std.c **** {
1014:Generated_Source\PSoC5/USBUART_std.c ****     /* Device Table */
1015:Generated_Source\PSoC5/USBUART_std.c ****     return( (const T_USBUART_LUT CYCODE *) USBUART_TABLE[USBUART_device].p_list );
1016:Generated_Source\PSoC5/USBUART_std.c **** }
1017:Generated_Source\PSoC5/USBUART_std.c **** 
1018:Generated_Source\PSoC5/USBUART_std.c **** 
1019:Generated_Source\PSoC5/USBUART_std.c **** /*******************************************************************************
1020:Generated_Source\PSoC5/USBUART_std.c **** * Function Name: USB_GetInterfaceClassTablePtr
1021:Generated_Source\PSoC5/USBUART_std.c **** ****************************************************************************//**
1022:Generated_Source\PSoC5/USBUART_std.c **** *
1023:Generated_Source\PSoC5/USBUART_std.c **** *  This routine returns Interface Class table pointer, which contains
1024:Generated_Source\PSoC5/USBUART_std.c **** *  the relation between interface number and interface class.
1025:Generated_Source\PSoC5/USBUART_std.c **** *
1026:Generated_Source\PSoC5/USBUART_std.c **** * \return
1027:Generated_Source\PSoC5/USBUART_std.c **** *  Interface Class table pointer.
1028:Generated_Source\PSoC5/USBUART_std.c **** *
1029:Generated_Source\PSoC5/USBUART_std.c **** *******************************************************************************/
1030:Generated_Source\PSoC5/USBUART_std.c **** const uint8 CYCODE *USBUART_GetInterfaceClassTablePtr(void)
1031:Generated_Source\PSoC5/USBUART_std.c ****                                                         
1032:Generated_Source\PSoC5/USBUART_std.c **** {
1033:Generated_Source\PSoC5/USBUART_std.c ****     const T_USBUART_LUT CYCODE *pTmp;
1034:Generated_Source\PSoC5/USBUART_std.c ****     const uint8 CYCODE *pInterfaceClass;
ARM GAS  C:\Users\ingan\AppData\Local\Temp\cc5yuDXv.s 			page 53


1035:Generated_Source\PSoC5/USBUART_std.c ****     uint8 currentInterfacesNum;
1036:Generated_Source\PSoC5/USBUART_std.c **** 
1037:Generated_Source\PSoC5/USBUART_std.c ****     pTmp = USBUART_GetConfigTablePtr(USBUART_configuration - 1u);
 1514              		.loc 1 1037 0
 1515 0240 B84B     		ldr	r3, .L139
 1516              	.LBB56:
 1517              	.LBB57:
 948:Generated_Source\PSoC5/USBUART_std.c **** 
 1518              		.loc 1 948 0
 1519 0242 B94A     		ldr	r2, .L139+4
 1520              	.LBE57:
 1521              	.LBE56:
 1522              		.loc 1 1037 0
 1523 0244 1B78     		ldrb	r3, [r3]	@ zero_extendqisi2
 1524              	.LBB61:
 1525              	.LBB58:
 948:Generated_Source\PSoC5/USBUART_std.c **** 
 1526              		.loc 1 948 0
 1527 0246 B949     		ldr	r1, .L139+8
 1528 0248 1278     		ldrb	r2, [r2]	@ zero_extendqisi2
 1529              	.LBE58:
 1530              	.LBE61:
 1531              		.loc 1 1037 0
 1532 024a 013B     		subs	r3, r3, #1
 1533              	.LBB62:
 1534              	.LBB59:
 948:Generated_Source\PSoC5/USBUART_std.c **** 
 1535              		.loc 1 948 0
 1536 024c 01EBC202 		add	r2, r1, r2, lsl #3
 1537 0250 5268     		ldr	r2, [r2, #4]
 1538              	.LBE59:
 1539              	.LBE62:
 1540              		.loc 1 1037 0
 1541 0252 DBB2     		uxtb	r3, r3
 1542              	.LVL89:
 1543              	.LBB63:
 1544              	.LBB60:
 957:Generated_Source\PSoC5/USBUART_std.c ****     {
 1545              		.loc 1 957 0
 1546 0254 117C     		ldrb	r1, [r2, #16]	@ zero_extendqisi2
 1547 0256 9942     		cmp	r1, r3
 1548 0258 40F2AE81 		bls	.L121
 963:Generated_Source\PSoC5/USBUART_std.c ****     }
 1549              		.loc 1 963 0
 1550 025c 02EBC303 		add	r3, r2, r3, lsl #3
 1551              	.LVL90:
 1552 0260 5B69     		ldr	r3, [r3, #20]
 1553              	.LVL91:
 1554              	.LBE60:
 1555              	.LBE63:
1038:Generated_Source\PSoC5/USBUART_std.c ****     if (pTmp != NULL)
 1556              		.loc 1 1038 0
 1557 0262 23B1     		cbz	r3, .L90
 1558              	.LVL92:
1039:Generated_Source\PSoC5/USBUART_std.c ****     {
1040:Generated_Source\PSoC5/USBUART_std.c ****         currentInterfacesNum  = ((const uint8 *) pTmp->p_list)[USBUART_CONFIG_DESCR_NUM_INTERFACES]
 1559              		.loc 1 1040 0
ARM GAS  C:\Users\ingan\AppData\Local\Temp\cc5yuDXv.s 			page 54


 1560 0264 5A68     		ldr	r2, [r3, #4]
1041:Generated_Source\PSoC5/USBUART_std.c ****         /* Third entry in the LUT starts the Interface Table pointers */
1042:Generated_Source\PSoC5/USBUART_std.c ****         /* The INTERFACE_CLASS table is located after all interfaces */
1043:Generated_Source\PSoC5/USBUART_std.c ****         pTmp = &pTmp[currentInterfacesNum + 2u];
 1561              		.loc 1 1043 0
 1562 0266 1279     		ldrb	r2, [r2, #4]	@ zero_extendqisi2
 1563              	.LVL93:
1044:Generated_Source\PSoC5/USBUART_std.c ****         pInterfaceClass = (const uint8 CYCODE *) pTmp->p_list;
 1564              		.loc 1 1044 0
 1565 0268 03EBC203 		add	r3, r3, r2, lsl #3
 1566              	.LVL94:
 1567 026c 5B69     		ldr	r3, [r3, #20]
 1568              	.LVL95:
 1569              	.L90:
 1570              	.LBE55:
 1571              	.LBE54:
 778:Generated_Source\PSoC5/USBUART_std.c ****             buffCount += USBUART_EP[ep].bufferSize;
 1572              		.loc 1 778 0
 1573 026e 0022     		movs	r2, #0
 1574 0270 6A82     		strh	r2, [r5, #18]	@ movhi
 779:Generated_Source\PSoC5/USBUART_std.c ****             
 1575              		.loc 1 779 0
 1576 0272 AC8A     		ldrh	r4, [r5, #20]
 771:Generated_Source\PSoC5/USBUART_std.c ****         
 1577              		.loc 1 771 0
 1578 0274 AE4E     		ldr	r6, .L139+12
 779:Generated_Source\PSoC5/USBUART_std.c ****             
 1579              		.loc 1 779 0
 1580 0276 A4B2     		uxth	r4, r4
 783:Generated_Source\PSoC5/USBUART_std.c ****         #endif /* (USBUART_GEN_16BITS_EP_ACCESS) */            
 1581              		.loc 1 783 0
 1582 0278 04F00102 		and	r2, r4, #1
 1583 027c 1444     		add	r4, r4, r2
 1584 027e A4B2     		uxth	r4, r4
 778:Generated_Source\PSoC5/USBUART_std.c ****             buffCount += USBUART_EP[ep].bufferSize;
 1585              		.loc 1 778 0
 1586 0280 EC83     		strh	r4, [r5, #30]	@ movhi
 779:Generated_Source\PSoC5/USBUART_std.c ****             
 1587              		.loc 1 779 0
 1588 0282 2A8C     		ldrh	r2, [r5, #32]
 771:Generated_Source\PSoC5/USBUART_std.c ****         
 1589              		.loc 1 771 0
 1590 0284 3360     		str	r3, [r6]
 779:Generated_Source\PSoC5/USBUART_std.c ****             
 1591              		.loc 1 779 0
 1592 0286 1444     		add	r4, r4, r2
 1593 0288 A4B2     		uxth	r4, r4
 783:Generated_Source\PSoC5/USBUART_std.c ****         #endif /* (USBUART_GEN_16BITS_EP_ACCESS) */            
 1594              		.loc 1 783 0
 1595 028a 04F00102 		and	r2, r4, #1
 1596 028e 1444     		add	r4, r4, r2
 1597 0290 A4B2     		uxth	r4, r4
 778:Generated_Source\PSoC5/USBUART_std.c ****             buffCount += USBUART_EP[ep].bufferSize;
 1598              		.loc 1 778 0
 1599 0292 6C85     		strh	r4, [r5, #42]	@ movhi
 779:Generated_Source\PSoC5/USBUART_std.c ****             
 1600              		.loc 1 779 0
ARM GAS  C:\Users\ingan\AppData\Local\Temp\cc5yuDXv.s 			page 55


 1601 0294 AA8D     		ldrh	r2, [r5, #44]
 1602              	.LBB65:
 1603              	.LBB66:
 448:Generated_Source\PSoC5/USBUART_std.c ****         
 1604              		.loc 1 448 0
 1605 0296 A749     		ldr	r1, .L139+16
 1606              	.LBE66:
 1607              	.LBE65:
 779:Generated_Source\PSoC5/USBUART_std.c ****             
 1608              		.loc 1 779 0
 1609 0298 1444     		add	r4, r4, r2
 1610 029a A4B2     		uxth	r4, r4
 783:Generated_Source\PSoC5/USBUART_std.c ****         #endif /* (USBUART_GEN_16BITS_EP_ACCESS) */            
 1611              		.loc 1 783 0
 1612 029c 04F00102 		and	r2, r4, #1
 1613 02a0 1444     		add	r4, r4, r2
 1614 02a2 A4B2     		uxth	r4, r4
 778:Generated_Source\PSoC5/USBUART_std.c ****             buffCount += USBUART_EP[ep].bufferSize;
 1615              		.loc 1 778 0
 1616 02a4 EC86     		strh	r4, [r5, #54]	@ movhi
 779:Generated_Source\PSoC5/USBUART_std.c ****             
 1617              		.loc 1 779 0
 1618 02a6 2A8F     		ldrh	r2, [r5, #56]
 1619              	.LBB71:
 1620              	.LBB67:
 448:Generated_Source\PSoC5/USBUART_std.c ****         
 1621              		.loc 1 448 0
 1622 02a8 0C20     		movs	r0, #12
 1623              	.LVL96:
 1624              	.LBE67:
 1625              	.LBE71:
 779:Generated_Source\PSoC5/USBUART_std.c ****             
 1626              		.loc 1 779 0
 1627 02aa A318     		adds	r3, r4, r2
 1628 02ac 9AB2     		uxth	r2, r3
 1629              	.LVL97:
 783:Generated_Source\PSoC5/USBUART_std.c ****         #endif /* (USBUART_GEN_16BITS_EP_ACCESS) */            
 1630              		.loc 1 783 0
 1631 02ae 02F00103 		and	r3, r2, #1
 1632 02b2 1344     		add	r3, r3, r2
 1633 02b4 9AB2     		uxth	r2, r3
 1634              	.LVL98:
 778:Generated_Source\PSoC5/USBUART_std.c ****             buffCount += USBUART_EP[ep].bufferSize;
 1635              		.loc 1 778 0
 1636 02b6 A5F84220 		strh	r2, [r5, #66]	@ movhi
 779:Generated_Source\PSoC5/USBUART_std.c ****             
 1637              		.loc 1 779 0
 1638 02ba B5F84430 		ldrh	r3, [r5, #68]
 1639              	.LBB72:
 1640              	.LBB68:
 452:Generated_Source\PSoC5/USBUART_std.c ****     #endif /* (USBUART_EP_MANAGEMENT_DMA) */
 1641              		.loc 1 452 0
 1642 02be 1F24     		movs	r4, #31
 1643              	.LBE68:
 1644              	.LBE72:
 779:Generated_Source\PSoC5/USBUART_std.c ****             
 1645              		.loc 1 779 0
ARM GAS  C:\Users\ingan\AppData\Local\Temp\cc5yuDXv.s 			page 56


 1646 02c0 1344     		add	r3, r3, r2
 1647 02c2 9AB2     		uxth	r2, r3
 1648              	.LVL99:
 783:Generated_Source\PSoC5/USBUART_std.c ****         #endif /* (USBUART_GEN_16BITS_EP_ACCESS) */            
 1649              		.loc 1 783 0
 1650 02c4 02F00103 		and	r3, r2, #1
 1651 02c8 1344     		add	r3, r3, r2
 1652 02ca 9AB2     		uxth	r2, r3
 1653              	.LVL100:
 778:Generated_Source\PSoC5/USBUART_std.c ****             buffCount += USBUART_EP[ep].bufferSize;
 1654              		.loc 1 778 0
 1655 02cc A5F84E20 		strh	r2, [r5, #78]	@ movhi
 779:Generated_Source\PSoC5/USBUART_std.c ****             
 1656              		.loc 1 779 0
 1657 02d0 B5F85030 		ldrh	r3, [r5, #80]
 778:Generated_Source\PSoC5/USBUART_std.c ****             buffCount += USBUART_EP[ep].bufferSize;
 1658              		.loc 1 778 0
 1659 02d4 984E     		ldr	r6, .L139+20
 779:Generated_Source\PSoC5/USBUART_std.c ****             
 1660              		.loc 1 779 0
 1661 02d6 1344     		add	r3, r3, r2
 1662 02d8 9AB2     		uxth	r2, r3
 1663              	.LVL101:
 783:Generated_Source\PSoC5/USBUART_std.c ****         #endif /* (USBUART_GEN_16BITS_EP_ACCESS) */            
 1664              		.loc 1 783 0
 1665 02da 02F00103 		and	r3, r2, #1
 1666 02de 1344     		add	r3, r3, r2
 1667 02e0 9AB2     		uxth	r2, r3
 1668              	.LVL102:
 778:Generated_Source\PSoC5/USBUART_std.c ****             buffCount += USBUART_EP[ep].bufferSize;
 1669              		.loc 1 778 0
 1670 02e2 A5F85A20 		strh	r2, [r5, #90]	@ movhi
 779:Generated_Source\PSoC5/USBUART_std.c ****             
 1671              		.loc 1 779 0
 1672 02e6 B5F85C30 		ldrh	r3, [r5, #92]
 1673 02ea 1344     		add	r3, r3, r2
 1674 02ec 9BB2     		uxth	r3, r3
 1675              	.LVL103:
 783:Generated_Source\PSoC5/USBUART_std.c ****         #endif /* (USBUART_GEN_16BITS_EP_ACCESS) */            
 1676              		.loc 1 783 0
 1677 02ee 03F00102 		and	r2, r3, #1
 1678 02f2 1344     		add	r3, r3, r2
 1679              	.LVL104:
 1680 02f4 9BB2     		uxth	r3, r3
 1681              	.LVL105:
 778:Generated_Source\PSoC5/USBUART_std.c ****             buffCount += USBUART_EP[ep].bufferSize;
 1682              		.loc 1 778 0
 1683 02f6 A5F86630 		strh	r3, [r5, #102]	@ movhi
 779:Generated_Source\PSoC5/USBUART_std.c ****             
 1684              		.loc 1 779 0
 1685 02fa B5F86830 		ldrh	r3, [r5, #104]
 1686              	.LVL106:
 1687              	.LBB73:
 1688              	.LBB69:
 448:Generated_Source\PSoC5/USBUART_std.c ****         
 1689              		.loc 1 448 0
 1690 02fe 0870     		strb	r0, [r1]
ARM GAS  C:\Users\ingan\AppData\Local\Temp\cc5yuDXv.s 			page 57


 452:Generated_Source\PSoC5/USBUART_std.c ****     #endif /* (USBUART_EP_MANAGEMENT_DMA) */
 1691              		.loc 1 452 0
 1692 0300 4C70     		strb	r4, [r1, #1]
 455:Generated_Source\PSoC5/USBUART_std.c ****         {
 1693              		.loc 1 455 0
 1694 0302 6B7C     		ldrb	r3, [r5, #17]	@ zero_extendqisi2
 1695 0304 002B     		cmp	r3, #0
 1696 0306 00F07781 		beq	.L94
 457:Generated_Source\PSoC5/USBUART_std.c ****             {
 1697              		.loc 1 457 0
 1698 030a 337C     		ldrb	r3, [r6, #16]	@ zero_extendqisi2
 1699 030c 13F0800F 		tst	r3, #128
 459:Generated_Source\PSoC5/USBUART_std.c ****                 
 1700              		.loc 1 459 0
 1701 0310 8A4B     		ldr	r3, .L139+24
 468:Generated_Source\PSoC5/USBUART_std.c **** 
 1702              		.loc 1 468 0
 1703 0312 06BF     		itte	eq
 1704 0314 0822     		moveq	r2, #8
 1705 0316 9A70     		strbeq	r2, [r3, #2]
 459:Generated_Source\PSoC5/USBUART_std.c ****                 
 1706              		.loc 1 459 0
 1707 0318 9870     		strbne	r0, [r3, #2]
 1708              	.L96:
 488:Generated_Source\PSoC5/USBUART_std.c ****             USBUART_ARB_EP_BASE.arbEp[ep].rwRaMsb = HI8(USBUART_EP[ep].buffOffset);
 1709              		.loc 1 488 0
 1710 031a 6A8A     		ldrh	r2, [r5, #18]
 1711 031c 854B     		ldr	r3, .L139+16
 1712 031e D2B2     		uxtb	r2, r2
 1713 0320 9A71     		strb	r2, [r3, #6]
 489:Generated_Source\PSoC5/USBUART_std.c ****             USBUART_ARB_EP_BASE.arbEp[ep].rwWa    = LO8(USBUART_EP[ep].buffOffset);
 1714              		.loc 1 489 0
 1715 0322 6A8A     		ldrh	r2, [r5, #18]
 448:Generated_Source\PSoC5/USBUART_std.c ****         
 1716              		.loc 1 448 0
 1717 0324 8649     		ldr	r1, .L139+28
 489:Generated_Source\PSoC5/USBUART_std.c ****             USBUART_ARB_EP_BASE.arbEp[ep].rwWa    = LO8(USBUART_EP[ep].buffOffset);
 1718              		.loc 1 489 0
 1719 0326 C2F30722 		ubfx	r2, r2, #8, #8
 1720 032a DA71     		strb	r2, [r3, #7]
 490:Generated_Source\PSoC5/USBUART_std.c ****             USBUART_ARB_EP_BASE.arbEp[ep].rwWaMsb = HI8(USBUART_EP[ep].buffOffset);
 1721              		.loc 1 490 0
 1722 032c 6A8A     		ldrh	r2, [r5, #18]
 448:Generated_Source\PSoC5/USBUART_std.c ****         
 1723              		.loc 1 448 0
 1724 032e 0C20     		movs	r0, #12
 490:Generated_Source\PSoC5/USBUART_std.c ****             USBUART_ARB_EP_BASE.arbEp[ep].rwWaMsb = HI8(USBUART_EP[ep].buffOffset);
 1725              		.loc 1 490 0
 1726 0330 D2B2     		uxtb	r2, r2
 1727 0332 1A71     		strb	r2, [r3, #4]
 491:Generated_Source\PSoC5/USBUART_std.c ****         #endif /* (CY_PSOC4) */
 1728              		.loc 1 491 0
 1729 0334 6A8A     		ldrh	r2, [r5, #18]
 452:Generated_Source\PSoC5/USBUART_std.c ****     #endif /* (USBUART_EP_MANAGEMENT_DMA) */
 1730              		.loc 1 452 0
 1731 0336 1F24     		movs	r4, #31
 491:Generated_Source\PSoC5/USBUART_std.c ****         #endif /* (CY_PSOC4) */
ARM GAS  C:\Users\ingan\AppData\Local\Temp\cc5yuDXv.s 			page 58


 1732              		.loc 1 491 0
 1733 0338 C2F30722 		ubfx	r2, r2, #8, #8
 1734 033c 5A71     		strb	r2, [r3, #5]
 1735              	.LVL107:
 448:Generated_Source\PSoC5/USBUART_std.c ****         
 1736              		.loc 1 448 0
 1737 033e 0870     		strb	r0, [r1]
 452:Generated_Source\PSoC5/USBUART_std.c ****     #endif /* (USBUART_EP_MANAGEMENT_DMA) */
 1738              		.loc 1 452 0
 1739 0340 4C70     		strb	r4, [r1, #1]
 455:Generated_Source\PSoC5/USBUART_std.c ****         {
 1740              		.loc 1 455 0
 1741 0342 6B7F     		ldrb	r3, [r5, #29]	@ zero_extendqisi2
 488:Generated_Source\PSoC5/USBUART_std.c ****             USBUART_ARB_EP_BASE.arbEp[ep].rwRaMsb = HI8(USBUART_EP[ep].buffOffset);
 1742              		.loc 1 488 0
 1743 0344 7C4A     		ldr	r2, .L139+20
 455:Generated_Source\PSoC5/USBUART_std.c ****         {
 1744              		.loc 1 455 0
 1745 0346 002B     		cmp	r3, #0
 1746 0348 00F05281 		beq	.L97
 457:Generated_Source\PSoC5/USBUART_std.c ****             {
 1747              		.loc 1 457 0
 1748 034c 137F     		ldrb	r3, [r2, #28]	@ zero_extendqisi2
 1749 034e 13F0800F 		tst	r3, #128
 459:Generated_Source\PSoC5/USBUART_std.c ****                 
 1750              		.loc 1 459 0
 1751 0352 7C4B     		ldr	r3, .L139+32
 468:Generated_Source\PSoC5/USBUART_std.c **** 
 1752              		.loc 1 468 0
 1753 0354 06BF     		itte	eq
 1754 0356 0822     		moveq	r2, #8
 1755 0358 9A70     		strbeq	r2, [r3, #2]
 459:Generated_Source\PSoC5/USBUART_std.c ****                 
 1756              		.loc 1 459 0
 1757 035a 9870     		strbne	r0, [r3, #2]
 1758              	.L99:
 488:Generated_Source\PSoC5/USBUART_std.c ****             USBUART_ARB_EP_BASE.arbEp[ep].rwRaMsb = HI8(USBUART_EP[ep].buffOffset);
 1759              		.loc 1 488 0
 1760 035c EA8B     		ldrh	r2, [r5, #30]
 1761 035e 784B     		ldr	r3, .L139+28
 1762 0360 D2B2     		uxtb	r2, r2
 1763 0362 9A71     		strb	r2, [r3, #6]
 489:Generated_Source\PSoC5/USBUART_std.c ****             USBUART_ARB_EP_BASE.arbEp[ep].rwWa    = LO8(USBUART_EP[ep].buffOffset);
 1764              		.loc 1 489 0
 1765 0364 EA8B     		ldrh	r2, [r5, #30]
 448:Generated_Source\PSoC5/USBUART_std.c ****         
 1766              		.loc 1 448 0
 1767 0366 7849     		ldr	r1, .L139+36
 489:Generated_Source\PSoC5/USBUART_std.c ****             USBUART_ARB_EP_BASE.arbEp[ep].rwWa    = LO8(USBUART_EP[ep].buffOffset);
 1768              		.loc 1 489 0
 1769 0368 C2F30722 		ubfx	r2, r2, #8, #8
 1770 036c DA71     		strb	r2, [r3, #7]
 490:Generated_Source\PSoC5/USBUART_std.c ****             USBUART_ARB_EP_BASE.arbEp[ep].rwWaMsb = HI8(USBUART_EP[ep].buffOffset);
 1771              		.loc 1 490 0
 1772 036e EA8B     		ldrh	r2, [r5, #30]
 448:Generated_Source\PSoC5/USBUART_std.c ****         
 1773              		.loc 1 448 0
ARM GAS  C:\Users\ingan\AppData\Local\Temp\cc5yuDXv.s 			page 59


 1774 0370 0C20     		movs	r0, #12
 490:Generated_Source\PSoC5/USBUART_std.c ****             USBUART_ARB_EP_BASE.arbEp[ep].rwWaMsb = HI8(USBUART_EP[ep].buffOffset);
 1775              		.loc 1 490 0
 1776 0372 D2B2     		uxtb	r2, r2
 1777 0374 1A71     		strb	r2, [r3, #4]
 491:Generated_Source\PSoC5/USBUART_std.c ****         #endif /* (CY_PSOC4) */
 1778              		.loc 1 491 0
 1779 0376 EA8B     		ldrh	r2, [r5, #30]
 452:Generated_Source\PSoC5/USBUART_std.c ****     #endif /* (USBUART_EP_MANAGEMENT_DMA) */
 1780              		.loc 1 452 0
 1781 0378 1F24     		movs	r4, #31
 491:Generated_Source\PSoC5/USBUART_std.c ****         #endif /* (CY_PSOC4) */
 1782              		.loc 1 491 0
 1783 037a C2F30722 		ubfx	r2, r2, #8, #8
 1784 037e 5A71     		strb	r2, [r3, #5]
 1785              	.LVL108:
 448:Generated_Source\PSoC5/USBUART_std.c ****         
 1786              		.loc 1 448 0
 1787 0380 0870     		strb	r0, [r1]
 452:Generated_Source\PSoC5/USBUART_std.c ****     #endif /* (USBUART_EP_MANAGEMENT_DMA) */
 1788              		.loc 1 452 0
 1789 0382 4C70     		strb	r4, [r1, #1]
 455:Generated_Source\PSoC5/USBUART_std.c ****         {
 1790              		.loc 1 455 0
 1791 0384 95F82930 		ldrb	r3, [r5, #41]	@ zero_extendqisi2
 488:Generated_Source\PSoC5/USBUART_std.c ****             USBUART_ARB_EP_BASE.arbEp[ep].rwRaMsb = HI8(USBUART_EP[ep].buffOffset);
 1792              		.loc 1 488 0
 1793 0388 6B4A     		ldr	r2, .L139+20
 455:Generated_Source\PSoC5/USBUART_std.c ****         {
 1794              		.loc 1 455 0
 1795 038a 002B     		cmp	r3, #0
 1796 038c 00F02C81 		beq	.L100
 457:Generated_Source\PSoC5/USBUART_std.c ****             {
 1797              		.loc 1 457 0
 1798 0390 92F82830 		ldrb	r3, [r2, #40]	@ zero_extendqisi2
 1799 0394 13F0800F 		tst	r3, #128
 459:Generated_Source\PSoC5/USBUART_std.c ****                 
 1800              		.loc 1 459 0
 1801 0398 6C4B     		ldr	r3, .L139+40
 468:Generated_Source\PSoC5/USBUART_std.c **** 
 1802              		.loc 1 468 0
 1803 039a 06BF     		itte	eq
 1804 039c 0822     		moveq	r2, #8
 1805 039e 9A70     		strbeq	r2, [r3, #2]
 459:Generated_Source\PSoC5/USBUART_std.c ****                 
 1806              		.loc 1 459 0
 1807 03a0 9870     		strbne	r0, [r3, #2]
 1808              	.L102:
 488:Generated_Source\PSoC5/USBUART_std.c ****             USBUART_ARB_EP_BASE.arbEp[ep].rwRaMsb = HI8(USBUART_EP[ep].buffOffset);
 1809              		.loc 1 488 0
 1810 03a2 6A8D     		ldrh	r2, [r5, #42]
 1811 03a4 684B     		ldr	r3, .L139+36
 1812 03a6 D2B2     		uxtb	r2, r2
 1813 03a8 9A71     		strb	r2, [r3, #6]
 489:Generated_Source\PSoC5/USBUART_std.c ****             USBUART_ARB_EP_BASE.arbEp[ep].rwWa    = LO8(USBUART_EP[ep].buffOffset);
 1814              		.loc 1 489 0
 1815 03aa 6A8D     		ldrh	r2, [r5, #42]
ARM GAS  C:\Users\ingan\AppData\Local\Temp\cc5yuDXv.s 			page 60


 448:Generated_Source\PSoC5/USBUART_std.c ****         
 1816              		.loc 1 448 0
 1817 03ac 6849     		ldr	r1, .L139+44
 489:Generated_Source\PSoC5/USBUART_std.c ****             USBUART_ARB_EP_BASE.arbEp[ep].rwWa    = LO8(USBUART_EP[ep].buffOffset);
 1818              		.loc 1 489 0
 1819 03ae C2F30722 		ubfx	r2, r2, #8, #8
 1820 03b2 DA71     		strb	r2, [r3, #7]
 490:Generated_Source\PSoC5/USBUART_std.c ****             USBUART_ARB_EP_BASE.arbEp[ep].rwWaMsb = HI8(USBUART_EP[ep].buffOffset);
 1821              		.loc 1 490 0
 1822 03b4 6A8D     		ldrh	r2, [r5, #42]
 448:Generated_Source\PSoC5/USBUART_std.c ****         
 1823              		.loc 1 448 0
 1824 03b6 0C20     		movs	r0, #12
 490:Generated_Source\PSoC5/USBUART_std.c ****             USBUART_ARB_EP_BASE.arbEp[ep].rwWaMsb = HI8(USBUART_EP[ep].buffOffset);
 1825              		.loc 1 490 0
 1826 03b8 D2B2     		uxtb	r2, r2
 1827 03ba 1A71     		strb	r2, [r3, #4]
 491:Generated_Source\PSoC5/USBUART_std.c ****         #endif /* (CY_PSOC4) */
 1828              		.loc 1 491 0
 1829 03bc 6A8D     		ldrh	r2, [r5, #42]
 452:Generated_Source\PSoC5/USBUART_std.c ****     #endif /* (USBUART_EP_MANAGEMENT_DMA) */
 1830              		.loc 1 452 0
 1831 03be 1F24     		movs	r4, #31
 491:Generated_Source\PSoC5/USBUART_std.c ****         #endif /* (CY_PSOC4) */
 1832              		.loc 1 491 0
 1833 03c0 C2F30722 		ubfx	r2, r2, #8, #8
 1834 03c4 5A71     		strb	r2, [r3, #5]
 1835              	.LVL109:
 448:Generated_Source\PSoC5/USBUART_std.c ****         
 1836              		.loc 1 448 0
 1837 03c6 0870     		strb	r0, [r1]
 452:Generated_Source\PSoC5/USBUART_std.c ****     #endif /* (USBUART_EP_MANAGEMENT_DMA) */
 1838              		.loc 1 452 0
 1839 03c8 4C70     		strb	r4, [r1, #1]
 455:Generated_Source\PSoC5/USBUART_std.c ****         {
 1840              		.loc 1 455 0
 1841 03ca 95F83530 		ldrb	r3, [r5, #53]	@ zero_extendqisi2
 488:Generated_Source\PSoC5/USBUART_std.c ****             USBUART_ARB_EP_BASE.arbEp[ep].rwRaMsb = HI8(USBUART_EP[ep].buffOffset);
 1842              		.loc 1 488 0
 1843 03ce 5A4A     		ldr	r2, .L139+20
 455:Generated_Source\PSoC5/USBUART_std.c ****         {
 1844              		.loc 1 455 0
 1845 03d0 002B     		cmp	r3, #0
 1846 03d2 00F00581 		beq	.L103
 457:Generated_Source\PSoC5/USBUART_std.c ****             {
 1847              		.loc 1 457 0
 1848 03d6 92F83430 		ldrb	r3, [r2, #52]	@ zero_extendqisi2
 1849 03da 13F0800F 		tst	r3, #128
 459:Generated_Source\PSoC5/USBUART_std.c ****                 
 1850              		.loc 1 459 0
 1851 03de 5D4B     		ldr	r3, .L139+48
 468:Generated_Source\PSoC5/USBUART_std.c **** 
 1852              		.loc 1 468 0
 1853 03e0 06BF     		itte	eq
 1854 03e2 0822     		moveq	r2, #8
 1855 03e4 9A70     		strbeq	r2, [r3, #2]
 459:Generated_Source\PSoC5/USBUART_std.c ****                 
ARM GAS  C:\Users\ingan\AppData\Local\Temp\cc5yuDXv.s 			page 61


 1856              		.loc 1 459 0
 1857 03e6 9870     		strbne	r0, [r3, #2]
 1858              	.L105:
 488:Generated_Source\PSoC5/USBUART_std.c ****             USBUART_ARB_EP_BASE.arbEp[ep].rwRaMsb = HI8(USBUART_EP[ep].buffOffset);
 1859              		.loc 1 488 0
 1860 03e8 EA8E     		ldrh	r2, [r5, #54]
 1861 03ea 594B     		ldr	r3, .L139+44
 1862 03ec D2B2     		uxtb	r2, r2
 1863 03ee 9A71     		strb	r2, [r3, #6]
 489:Generated_Source\PSoC5/USBUART_std.c ****             USBUART_ARB_EP_BASE.arbEp[ep].rwWa    = LO8(USBUART_EP[ep].buffOffset);
 1864              		.loc 1 489 0
 1865 03f0 EA8E     		ldrh	r2, [r5, #54]
 448:Generated_Source\PSoC5/USBUART_std.c ****         
 1866              		.loc 1 448 0
 1867 03f2 5949     		ldr	r1, .L139+52
 489:Generated_Source\PSoC5/USBUART_std.c ****             USBUART_ARB_EP_BASE.arbEp[ep].rwWa    = LO8(USBUART_EP[ep].buffOffset);
 1868              		.loc 1 489 0
 1869 03f4 C2F30722 		ubfx	r2, r2, #8, #8
 1870 03f8 DA71     		strb	r2, [r3, #7]
 490:Generated_Source\PSoC5/USBUART_std.c ****             USBUART_ARB_EP_BASE.arbEp[ep].rwWaMsb = HI8(USBUART_EP[ep].buffOffset);
 1871              		.loc 1 490 0
 1872 03fa EA8E     		ldrh	r2, [r5, #54]
 448:Generated_Source\PSoC5/USBUART_std.c ****         
 1873              		.loc 1 448 0
 1874 03fc 0C20     		movs	r0, #12
 490:Generated_Source\PSoC5/USBUART_std.c ****             USBUART_ARB_EP_BASE.arbEp[ep].rwWaMsb = HI8(USBUART_EP[ep].buffOffset);
 1875              		.loc 1 490 0
 1876 03fe D2B2     		uxtb	r2, r2
 1877 0400 1A71     		strb	r2, [r3, #4]
 491:Generated_Source\PSoC5/USBUART_std.c ****         #endif /* (CY_PSOC4) */
 1878              		.loc 1 491 0
 1879 0402 EA8E     		ldrh	r2, [r5, #54]
 452:Generated_Source\PSoC5/USBUART_std.c ****     #endif /* (USBUART_EP_MANAGEMENT_DMA) */
 1880              		.loc 1 452 0
 1881 0404 1F24     		movs	r4, #31
 491:Generated_Source\PSoC5/USBUART_std.c ****         #endif /* (CY_PSOC4) */
 1882              		.loc 1 491 0
 1883 0406 C2F30722 		ubfx	r2, r2, #8, #8
 1884 040a 5A71     		strb	r2, [r3, #5]
 1885              	.LVL110:
 448:Generated_Source\PSoC5/USBUART_std.c ****         
 1886              		.loc 1 448 0
 1887 040c 0870     		strb	r0, [r1]
 452:Generated_Source\PSoC5/USBUART_std.c ****     #endif /* (USBUART_EP_MANAGEMENT_DMA) */
 1888              		.loc 1 452 0
 1889 040e 4C70     		strb	r4, [r1, #1]
 455:Generated_Source\PSoC5/USBUART_std.c ****         {
 1890              		.loc 1 455 0
 1891 0410 95F84130 		ldrb	r3, [r5, #65]	@ zero_extendqisi2
 488:Generated_Source\PSoC5/USBUART_std.c ****             USBUART_ARB_EP_BASE.arbEp[ep].rwRaMsb = HI8(USBUART_EP[ep].buffOffset);
 1892              		.loc 1 488 0
 1893 0414 484A     		ldr	r2, .L139+20
 455:Generated_Source\PSoC5/USBUART_std.c ****         {
 1894              		.loc 1 455 0
 1895 0416 002B     		cmp	r3, #0
 1896 0418 00F0DE80 		beq	.L106
 457:Generated_Source\PSoC5/USBUART_std.c ****             {
ARM GAS  C:\Users\ingan\AppData\Local\Temp\cc5yuDXv.s 			page 62


 1897              		.loc 1 457 0
 1898 041c 92F84030 		ldrb	r3, [r2, #64]	@ zero_extendqisi2
 1899 0420 13F0800F 		tst	r3, #128
 459:Generated_Source\PSoC5/USBUART_std.c ****                 
 1900              		.loc 1 459 0
 1901 0424 4D4B     		ldr	r3, .L139+56
 468:Generated_Source\PSoC5/USBUART_std.c **** 
 1902              		.loc 1 468 0
 1903 0426 06BF     		itte	eq
 1904 0428 0822     		moveq	r2, #8
 1905 042a 9A70     		strbeq	r2, [r3, #2]
 459:Generated_Source\PSoC5/USBUART_std.c ****                 
 1906              		.loc 1 459 0
 1907 042c 9870     		strbne	r0, [r3, #2]
 1908              	.L108:
 488:Generated_Source\PSoC5/USBUART_std.c ****             USBUART_ARB_EP_BASE.arbEp[ep].rwRaMsb = HI8(USBUART_EP[ep].buffOffset);
 1909              		.loc 1 488 0
 1910 042e B5F84220 		ldrh	r2, [r5, #66]
 1911 0432 494B     		ldr	r3, .L139+52
 1912 0434 D2B2     		uxtb	r2, r2
 1913 0436 9A71     		strb	r2, [r3, #6]
 489:Generated_Source\PSoC5/USBUART_std.c ****             USBUART_ARB_EP_BASE.arbEp[ep].rwWa    = LO8(USBUART_EP[ep].buffOffset);
 1914              		.loc 1 489 0
 1915 0438 B5F84220 		ldrh	r2, [r5, #66]
 448:Generated_Source\PSoC5/USBUART_std.c ****         
 1916              		.loc 1 448 0
 1917 043c 4849     		ldr	r1, .L139+60
 489:Generated_Source\PSoC5/USBUART_std.c ****             USBUART_ARB_EP_BASE.arbEp[ep].rwWa    = LO8(USBUART_EP[ep].buffOffset);
 1918              		.loc 1 489 0
 1919 043e C2F30722 		ubfx	r2, r2, #8, #8
 1920 0442 DA71     		strb	r2, [r3, #7]
 490:Generated_Source\PSoC5/USBUART_std.c ****             USBUART_ARB_EP_BASE.arbEp[ep].rwWaMsb = HI8(USBUART_EP[ep].buffOffset);
 1921              		.loc 1 490 0
 1922 0444 B5F84220 		ldrh	r2, [r5, #66]
 448:Generated_Source\PSoC5/USBUART_std.c ****         
 1923              		.loc 1 448 0
 1924 0448 0C20     		movs	r0, #12
 490:Generated_Source\PSoC5/USBUART_std.c ****             USBUART_ARB_EP_BASE.arbEp[ep].rwWaMsb = HI8(USBUART_EP[ep].buffOffset);
 1925              		.loc 1 490 0
 1926 044a D2B2     		uxtb	r2, r2
 1927 044c 1A71     		strb	r2, [r3, #4]
 491:Generated_Source\PSoC5/USBUART_std.c ****         #endif /* (CY_PSOC4) */
 1928              		.loc 1 491 0
 1929 044e B5F84220 		ldrh	r2, [r5, #66]
 452:Generated_Source\PSoC5/USBUART_std.c ****     #endif /* (USBUART_EP_MANAGEMENT_DMA) */
 1930              		.loc 1 452 0
 1931 0452 1F24     		movs	r4, #31
 491:Generated_Source\PSoC5/USBUART_std.c ****         #endif /* (CY_PSOC4) */
 1932              		.loc 1 491 0
 1933 0454 C2F30722 		ubfx	r2, r2, #8, #8
 1934 0458 5A71     		strb	r2, [r3, #5]
 1935              	.LVL111:
 448:Generated_Source\PSoC5/USBUART_std.c ****         
 1936              		.loc 1 448 0
 1937 045a 0870     		strb	r0, [r1]
 452:Generated_Source\PSoC5/USBUART_std.c ****     #endif /* (USBUART_EP_MANAGEMENT_DMA) */
 1938              		.loc 1 452 0
ARM GAS  C:\Users\ingan\AppData\Local\Temp\cc5yuDXv.s 			page 63


 1939 045c 4C70     		strb	r4, [r1, #1]
 455:Generated_Source\PSoC5/USBUART_std.c ****         {
 1940              		.loc 1 455 0
 1941 045e 95F84D30 		ldrb	r3, [r5, #77]	@ zero_extendqisi2
 488:Generated_Source\PSoC5/USBUART_std.c ****             USBUART_ARB_EP_BASE.arbEp[ep].rwRaMsb = HI8(USBUART_EP[ep].buffOffset);
 1942              		.loc 1 488 0
 1943 0462 354A     		ldr	r2, .L139+20
 455:Generated_Source\PSoC5/USBUART_std.c ****         {
 1944              		.loc 1 455 0
 1945 0464 002B     		cmp	r3, #0
 1946 0466 00F0B380 		beq	.L109
 457:Generated_Source\PSoC5/USBUART_std.c ****             {
 1947              		.loc 1 457 0
 1948 046a 92F84C30 		ldrb	r3, [r2, #76]	@ zero_extendqisi2
 1949 046e 13F0800F 		tst	r3, #128
 459:Generated_Source\PSoC5/USBUART_std.c ****                 
 1950              		.loc 1 459 0
 1951 0472 3C4B     		ldr	r3, .L139+64
 468:Generated_Source\PSoC5/USBUART_std.c **** 
 1952              		.loc 1 468 0
 1953 0474 06BF     		itte	eq
 1954 0476 0822     		moveq	r2, #8
 1955 0478 9A70     		strbeq	r2, [r3, #2]
 459:Generated_Source\PSoC5/USBUART_std.c ****                 
 1956              		.loc 1 459 0
 1957 047a 9870     		strbne	r0, [r3, #2]
 1958              	.L111:
 488:Generated_Source\PSoC5/USBUART_std.c ****             USBUART_ARB_EP_BASE.arbEp[ep].rwRaMsb = HI8(USBUART_EP[ep].buffOffset);
 1959              		.loc 1 488 0
 1960 047c B5F84E20 		ldrh	r2, [r5, #78]
 1961 0480 374B     		ldr	r3, .L139+60
 1962 0482 D2B2     		uxtb	r2, r2
 1963 0484 9A71     		strb	r2, [r3, #6]
 489:Generated_Source\PSoC5/USBUART_std.c ****             USBUART_ARB_EP_BASE.arbEp[ep].rwWa    = LO8(USBUART_EP[ep].buffOffset);
 1964              		.loc 1 489 0
 1965 0486 B5F84E20 		ldrh	r2, [r5, #78]
 448:Generated_Source\PSoC5/USBUART_std.c ****         
 1966              		.loc 1 448 0
 1967 048a 3749     		ldr	r1, .L139+68
 489:Generated_Source\PSoC5/USBUART_std.c ****             USBUART_ARB_EP_BASE.arbEp[ep].rwWa    = LO8(USBUART_EP[ep].buffOffset);
 1968              		.loc 1 489 0
 1969 048c C2F30722 		ubfx	r2, r2, #8, #8
 1970 0490 DA71     		strb	r2, [r3, #7]
 490:Generated_Source\PSoC5/USBUART_std.c ****             USBUART_ARB_EP_BASE.arbEp[ep].rwWaMsb = HI8(USBUART_EP[ep].buffOffset);
 1971              		.loc 1 490 0
 1972 0492 B5F84E20 		ldrh	r2, [r5, #78]
 448:Generated_Source\PSoC5/USBUART_std.c ****         
 1973              		.loc 1 448 0
 1974 0496 0C20     		movs	r0, #12
 490:Generated_Source\PSoC5/USBUART_std.c ****             USBUART_ARB_EP_BASE.arbEp[ep].rwWaMsb = HI8(USBUART_EP[ep].buffOffset);
 1975              		.loc 1 490 0
 1976 0498 D2B2     		uxtb	r2, r2
 1977 049a 1A71     		strb	r2, [r3, #4]
 491:Generated_Source\PSoC5/USBUART_std.c ****         #endif /* (CY_PSOC4) */
 1978              		.loc 1 491 0
 1979 049c B5F84E20 		ldrh	r2, [r5, #78]
 452:Generated_Source\PSoC5/USBUART_std.c ****     #endif /* (USBUART_EP_MANAGEMENT_DMA) */
ARM GAS  C:\Users\ingan\AppData\Local\Temp\cc5yuDXv.s 			page 64


 1980              		.loc 1 452 0
 1981 04a0 1F24     		movs	r4, #31
 491:Generated_Source\PSoC5/USBUART_std.c ****         #endif /* (CY_PSOC4) */
 1982              		.loc 1 491 0
 1983 04a2 C2F30722 		ubfx	r2, r2, #8, #8
 1984 04a6 5A71     		strb	r2, [r3, #5]
 1985              	.LVL112:
 448:Generated_Source\PSoC5/USBUART_std.c ****         
 1986              		.loc 1 448 0
 1987 04a8 0870     		strb	r0, [r1]
 452:Generated_Source\PSoC5/USBUART_std.c ****     #endif /* (USBUART_EP_MANAGEMENT_DMA) */
 1988              		.loc 1 452 0
 1989 04aa 4C70     		strb	r4, [r1, #1]
 455:Generated_Source\PSoC5/USBUART_std.c ****         {
 1990              		.loc 1 455 0
 1991 04ac 95F85930 		ldrb	r3, [r5, #89]	@ zero_extendqisi2
 488:Generated_Source\PSoC5/USBUART_std.c ****             USBUART_ARB_EP_BASE.arbEp[ep].rwRaMsb = HI8(USBUART_EP[ep].buffOffset);
 1992              		.loc 1 488 0
 1993 04b0 214A     		ldr	r2, .L139+20
 455:Generated_Source\PSoC5/USBUART_std.c ****         {
 1994              		.loc 1 455 0
 1995 04b2 002B     		cmp	r3, #0
 1996 04b4 00F08880 		beq	.L112
 457:Generated_Source\PSoC5/USBUART_std.c ****             {
 1997              		.loc 1 457 0
 1998 04b8 92F85830 		ldrb	r3, [r2, #88]	@ zero_extendqisi2
 1999 04bc 13F0800F 		tst	r3, #128
 459:Generated_Source\PSoC5/USBUART_std.c ****                 
 2000              		.loc 1 459 0
 2001 04c0 2A4B     		ldr	r3, .L139+72
 468:Generated_Source\PSoC5/USBUART_std.c **** 
 2002              		.loc 1 468 0
 2003 04c2 06BF     		itte	eq
 2004 04c4 0822     		moveq	r2, #8
 2005 04c6 9A70     		strbeq	r2, [r3, #2]
 459:Generated_Source\PSoC5/USBUART_std.c ****                 
 2006              		.loc 1 459 0
 2007 04c8 9870     		strbne	r0, [r3, #2]
 2008              	.L114:
 488:Generated_Source\PSoC5/USBUART_std.c ****             USBUART_ARB_EP_BASE.arbEp[ep].rwRaMsb = HI8(USBUART_EP[ep].buffOffset);
 2009              		.loc 1 488 0
 2010 04ca B5F85A20 		ldrh	r2, [r5, #90]
 2011 04ce 264B     		ldr	r3, .L139+68
 2012 04d0 D2B2     		uxtb	r2, r2
 2013 04d2 9A71     		strb	r2, [r3, #6]
 489:Generated_Source\PSoC5/USBUART_std.c ****             USBUART_ARB_EP_BASE.arbEp[ep].rwWa    = LO8(USBUART_EP[ep].buffOffset);
 2014              		.loc 1 489 0
 2015 04d4 B5F85A20 		ldrh	r2, [r5, #90]
 448:Generated_Source\PSoC5/USBUART_std.c ****         
 2016              		.loc 1 448 0
 2017 04d8 2549     		ldr	r1, .L139+76
 489:Generated_Source\PSoC5/USBUART_std.c ****             USBUART_ARB_EP_BASE.arbEp[ep].rwWa    = LO8(USBUART_EP[ep].buffOffset);
 2018              		.loc 1 489 0
 2019 04da C2F30722 		ubfx	r2, r2, #8, #8
 2020 04de DA71     		strb	r2, [r3, #7]
 490:Generated_Source\PSoC5/USBUART_std.c ****             USBUART_ARB_EP_BASE.arbEp[ep].rwWaMsb = HI8(USBUART_EP[ep].buffOffset);
 2021              		.loc 1 490 0
ARM GAS  C:\Users\ingan\AppData\Local\Temp\cc5yuDXv.s 			page 65


 2022 04e0 B5F85A20 		ldrh	r2, [r5, #90]
 448:Generated_Source\PSoC5/USBUART_std.c ****         
 2023              		.loc 1 448 0
 2024 04e4 0C20     		movs	r0, #12
 490:Generated_Source\PSoC5/USBUART_std.c ****             USBUART_ARB_EP_BASE.arbEp[ep].rwWaMsb = HI8(USBUART_EP[ep].buffOffset);
 2025              		.loc 1 490 0
 2026 04e6 D2B2     		uxtb	r2, r2
 2027 04e8 1A71     		strb	r2, [r3, #4]
 491:Generated_Source\PSoC5/USBUART_std.c ****         #endif /* (CY_PSOC4) */
 2028              		.loc 1 491 0
 2029 04ea B5F85A20 		ldrh	r2, [r5, #90]
 452:Generated_Source\PSoC5/USBUART_std.c ****     #endif /* (USBUART_EP_MANAGEMENT_DMA) */
 2030              		.loc 1 452 0
 2031 04ee 1F24     		movs	r4, #31
 491:Generated_Source\PSoC5/USBUART_std.c ****         #endif /* (CY_PSOC4) */
 2032              		.loc 1 491 0
 2033 04f0 C2F30722 		ubfx	r2, r2, #8, #8
 2034 04f4 5A71     		strb	r2, [r3, #5]
 2035              	.LVL113:
 448:Generated_Source\PSoC5/USBUART_std.c ****         
 2036              		.loc 1 448 0
 2037 04f6 0870     		strb	r0, [r1]
 452:Generated_Source\PSoC5/USBUART_std.c ****     #endif /* (USBUART_EP_MANAGEMENT_DMA) */
 2038              		.loc 1 452 0
 2039 04f8 4C70     		strb	r4, [r1, #1]
 455:Generated_Source\PSoC5/USBUART_std.c ****         {
 2040              		.loc 1 455 0
 2041 04fa 95F86530 		ldrb	r3, [r5, #101]	@ zero_extendqisi2
 488:Generated_Source\PSoC5/USBUART_std.c ****             USBUART_ARB_EP_BASE.arbEp[ep].rwRaMsb = HI8(USBUART_EP[ep].buffOffset);
 2042              		.loc 1 488 0
 2043 04fe 0E4A     		ldr	r2, .L139+20
 455:Generated_Source\PSoC5/USBUART_std.c ****         {
 2044              		.loc 1 455 0
 2045 0500 002B     		cmp	r3, #0
 2046 0502 5DD0     		beq	.L115
 457:Generated_Source\PSoC5/USBUART_std.c ****             {
 2047              		.loc 1 457 0
 2048 0504 92F86430 		ldrb	r3, [r2, #100]	@ zero_extendqisi2
 2049 0508 13F0800F 		tst	r3, #128
 459:Generated_Source\PSoC5/USBUART_std.c ****                 
 2050              		.loc 1 459 0
 2051 050c 194B     		ldr	r3, .L139+80
 468:Generated_Source\PSoC5/USBUART_std.c **** 
 2052              		.loc 1 468 0
 2053 050e 0ABF     		itet	eq
 2054 0510 0822     		moveq	r2, #8
 459:Generated_Source\PSoC5/USBUART_std.c ****                 
 2055              		.loc 1 459 0
 2056 0512 9870     		strbne	r0, [r3, #2]
 468:Generated_Source\PSoC5/USBUART_std.c **** 
 2057              		.loc 1 468 0
 2058 0514 9A70     		strbeq	r2, [r3, #2]
 2059              	.L117:
 488:Generated_Source\PSoC5/USBUART_std.c ****             USBUART_ARB_EP_BASE.arbEp[ep].rwRaMsb = HI8(USBUART_EP[ep].buffOffset);
 2060              		.loc 1 488 0
 2061 0516 B5F86620 		ldrh	r2, [r5, #102]
 2062 051a 154B     		ldr	r3, .L139+76
ARM GAS  C:\Users\ingan\AppData\Local\Temp\cc5yuDXv.s 			page 66


 2063 051c D2B2     		uxtb	r2, r2
 2064 051e 9A71     		strb	r2, [r3, #6]
 2065 0520 2AE0     		b	.L140
 2066              	.L141:
 2067 0522 00BF     		.align	2
 2068              	.L139:
 2069 0524 00000000 		.word	USBUART_configuration
 2070 0528 00000000 		.word	USBUART_device
 2071 052c 00000000 		.word	USBUART_TABLE
 2072 0530 00000000 		.word	USBUART_interfaceClass
 2073 0534 80600040 		.word	1073766528
 2074 0538 00000000 		.word	USBUART_EP
 2075 053c 0C600040 		.word	1073766412
 2076 0540 90600040 		.word	1073766544
 2077 0544 1C600040 		.word	1073766428
 2078 0548 A0600040 		.word	1073766560
 2079 054c 2C600040 		.word	1073766444
 2080 0550 B0600040 		.word	1073766576
 2081 0554 3C600040 		.word	1073766460
 2082 0558 C0600040 		.word	1073766592
 2083 055c 4C600040 		.word	1073766476
 2084 0560 D0600040 		.word	1073766608
 2085 0564 5C600040 		.word	1073766492
 2086 0568 E0600040 		.word	1073766624
 2087 056c 6C600040 		.word	1073766508
 2088 0570 F0600040 		.word	1073766640
 2089 0574 7C600040 		.word	1073766524
 2090              	.L140:
 489:Generated_Source\PSoC5/USBUART_std.c ****             USBUART_ARB_EP_BASE.arbEp[ep].rwWa    = LO8(USBUART_EP[ep].buffOffset);
 2091              		.loc 1 489 0
 2092 0578 B5F86620 		ldrh	r2, [r5, #102]
 519:Generated_Source\PSoC5/USBUART_std.c **** }
 2093              		.loc 1 519 0
 2094 057c 2049     		ldr	r1, .L142
 489:Generated_Source\PSoC5/USBUART_std.c ****             USBUART_ARB_EP_BASE.arbEp[ep].rwWa    = LO8(USBUART_EP[ep].buffOffset);
 2095              		.loc 1 489 0
 2096 057e C2F30722 		ubfx	r2, r2, #8, #8
 2097 0582 DA71     		strb	r2, [r3, #7]
 490:Generated_Source\PSoC5/USBUART_std.c ****             USBUART_ARB_EP_BASE.arbEp[ep].rwWaMsb = HI8(USBUART_EP[ep].buffOffset);
 2098              		.loc 1 490 0
 2099 0584 B5F86620 		ldrh	r2, [r5, #102]
 519:Generated_Source\PSoC5/USBUART_std.c **** }
 2100              		.loc 1 519 0
 2101 0588 FF20     		movs	r0, #255
 490:Generated_Source\PSoC5/USBUART_std.c ****             USBUART_ARB_EP_BASE.arbEp[ep].rwWaMsb = HI8(USBUART_EP[ep].buffOffset);
 2102              		.loc 1 490 0
 2103 058a D2B2     		uxtb	r2, r2
 2104 058c 1A71     		strb	r2, [r3, #4]
 491:Generated_Source\PSoC5/USBUART_std.c ****         #endif /* (CY_PSOC4) */
 2105              		.loc 1 491 0
 2106 058e B5F86620 		ldrh	r2, [r5, #102]
 2107 0592 C2F30722 		ubfx	r2, r2, #8, #8
 2108 0596 5A71     		strb	r2, [r3, #5]
 2109              	.LVL114:
 519:Generated_Source\PSoC5/USBUART_std.c **** }
 2110              		.loc 1 519 0
 2111 0598 0870     		strb	r0, [r1]
ARM GAS  C:\Users\ingan\AppData\Local\Temp\cc5yuDXv.s 			page 67


 2112              	.LVL115:
 2113              	.L74:
 2114              	.LBE69:
 2115              	.LBE73:
 2116              	.LBE45:
 2117              	.LBE44:
 2118              	.LBE43:
 791:Generated_Source\PSoC5/USBUART_std.c **** 
 2119              		.loc 1 791 0
 2120 059a 05B0     		add	sp, sp, #20
 2121              		.cfi_remember_state
 2122              		.cfi_def_cfa_offset 36
 2123              		@ sp needed
 2124 059c BDE8F08F 		pop	{r4, r5, r6, r7, r8, r9, r10, fp, pc}
 2125              	.LVL116:
 2126              	.L77:
 2127              		.cfi_restore_state
 2128              	.LBB78:
 2129              	.LBB77:
 2130              	.LBB76:
 617:Generated_Source\PSoC5/USBUART_std.c ****         if ((pDescr[USBUART_CONFIG_DESCR_ATTRIB] & USBUART_CONFIG_DESCR_ATTRIB_SELF_POWERED) != 0u)
 2131              		.loc 1 617 0
 2132 05a0 0023     		movs	r3, #0
 2133 05a2 5B68     		ldr	r3, [r3, #4]
 2134 05a4 FFDE     		.inst	0xdeff
 2135              	.LVL117:
 2136              	.L136:
 715:Generated_Source\PSoC5/USBUART_std.c ****                                 USBUART_EP[i].apiEpState = USBUART_EVENT_PENDING;
 2137              		.loc 1 715 0
 2138 05a6 0129     		cmp	r1, #1
 2139 05a8 14BF     		ite	ne
 2140 05aa 0D21     		movne	r1, #13
 2141              	.LVL118:
 2142 05ac 0721     		moveq	r1, #7
 2143 05ae 4171     		strb	r1, [r0, #5]
 2144              	.LVL119:
 716:Generated_Source\PSoC5/USBUART_std.c ****                                 
 2145              		.loc 1 716 0
 2146 05b0 4FF00101 		mov	r1, #1
 2147 05b4 4170     		strb	r1, [r0, #1]
 2148 05b6 18E6     		b	.L85
 2149              	.LVL120:
 2150              	.L121:
 2151              	.LBB74:
 2152              	.LBB64:
1045:Generated_Source\PSoC5/USBUART_std.c ****     }
1046:Generated_Source\PSoC5/USBUART_std.c ****     else
1047:Generated_Source\PSoC5/USBUART_std.c ****     {
1048:Generated_Source\PSoC5/USBUART_std.c ****         pInterfaceClass = (const uint8 CYCODE *) NULL;
 2153              		.loc 1 1048 0
 2154 05b8 0023     		movs	r3, #0
 2155              	.LVL121:
 2156 05ba 58E6     		b	.L90
 2157              	.LVL122:
 2158              	.L118:
 2159              	.LBE64:
 2160              	.LBE74:
ARM GAS  C:\Users\ingan\AppData\Local\Temp\cc5yuDXv.s 			page 68


 694:Generated_Source\PSoC5/USBUART_std.c ****                 {
 2161              		.loc 1 694 0
 2162 05bc 2146     		mov	r1, r4
 2163 05be 24E6     		b	.L80
 2164              	.LVL123:
 2165              	.L115:
 2166              	.LBB75:
 2167              	.LBB70:
 480:Generated_Source\PSoC5/USBUART_std.c ****         }
 2168              		.loc 1 480 0
 2169 05c0 104B     		ldr	r3, .L142+4
 2170 05c2 8022     		movs	r2, #128
 2171 05c4 9A70     		strb	r2, [r3, #2]
 2172 05c6 A6E7     		b	.L117
 2173              	.LVL124:
 2174              	.L112:
 2175 05c8 0F4B     		ldr	r3, .L142+8
 2176 05ca 8022     		movs	r2, #128
 2177 05cc 9A70     		strb	r2, [r3, #2]
 2178 05ce 7CE7     		b	.L114
 2179              	.LVL125:
 2180              	.L109:
 2181 05d0 0E4B     		ldr	r3, .L142+12
 2182 05d2 8022     		movs	r2, #128
 2183 05d4 9A70     		strb	r2, [r3, #2]
 2184 05d6 51E7     		b	.L111
 2185              	.LVL126:
 2186              	.L106:
 2187 05d8 0D4B     		ldr	r3, .L142+16
 2188 05da 8022     		movs	r2, #128
 2189 05dc 9A70     		strb	r2, [r3, #2]
 2190 05de 26E7     		b	.L108
 2191              	.LVL127:
 2192              	.L103:
 2193 05e0 0C4B     		ldr	r3, .L142+20
 2194 05e2 8022     		movs	r2, #128
 2195 05e4 9A70     		strb	r2, [r3, #2]
 2196 05e6 FFE6     		b	.L105
 2197              	.LVL128:
 2198              	.L100:
 2199 05e8 0B4B     		ldr	r3, .L142+24
 2200 05ea 8022     		movs	r2, #128
 2201 05ec 9A70     		strb	r2, [r3, #2]
 2202 05ee D8E6     		b	.L102
 2203              	.LVL129:
 2204              	.L97:
 2205 05f0 0A4B     		ldr	r3, .L142+28
 2206 05f2 8022     		movs	r2, #128
 2207 05f4 9A70     		strb	r2, [r3, #2]
 2208 05f6 B1E6     		b	.L99
 2209              	.LVL130:
 2210              	.L94:
 2211 05f8 094B     		ldr	r3, .L142+32
 2212 05fa 8022     		movs	r2, #128
 2213 05fc 9A70     		strb	r2, [r3, #2]
 2214 05fe 8CE6     		b	.L96
 2215              	.L143:
ARM GAS  C:\Users\ingan\AppData\Local\Temp\cc5yuDXv.s 			page 69


 2216              		.align	2
 2217              	.L142:
 2218 0600 0A600040 		.word	1073766410
 2219 0604 7C600040 		.word	1073766524
 2220 0608 6C600040 		.word	1073766508
 2221 060c 5C600040 		.word	1073766492
 2222 0610 4C600040 		.word	1073766476
 2223 0614 3C600040 		.word	1073766460
 2224 0618 2C600040 		.word	1073766444
 2225 061c 1C600040 		.word	1073766428
 2226 0620 0C600040 		.word	1073766412
 2227              	.LBE70:
 2228              	.LBE75:
 2229              	.LBE76:
 2230              	.LBE77:
 2231              	.LBE78:
 2232              		.cfi_endproc
 2233              	.LFE4:
 2234              		.size	USBUART_Config, .-USBUART_Config
 2235              		.section	.text.USBUART_HandleStandardRqst,"ax",%progbits
 2236              		.align	2
 2237              		.global	USBUART_HandleStandardRqst
 2238              		.thumb
 2239              		.thumb_func
 2240              		.type	USBUART_HandleStandardRqst, %function
 2241              	USBUART_HandleStandardRqst:
 2242              	.LFB0:
  85:Generated_Source\PSoC5/USBUART_std.c ****     uint8 requestHandled = USBUART_FALSE;
 2243              		.loc 1 85 0
 2244              		.cfi_startproc
 2245              		@ args = 0, pretend = 0, frame = 0
 2246              		@ frame_needed = 0, uses_anonymous_args = 0
 2247              	.LVL131:
 2248 0000 70B5     		push	{r4, r5, r6, lr}
 2249              		.cfi_def_cfa_offset 16
 2250              		.cfi_offset 4, -16
 2251              		.cfi_offset 5, -12
 2252              		.cfi_offset 6, -8
 2253              		.cfi_offset 14, -4
  89:Generated_Source\PSoC5/USBUART_std.c **** 
 2254              		.loc 1 89 0
 2255 0002 A34A     		ldr	r2, .L226
 102:Generated_Source\PSoC5/USBUART_std.c **** 
 2256              		.loc 1 102 0
 2257 0004 A34C     		ldr	r4, .L226+4
  89:Generated_Source\PSoC5/USBUART_std.c **** 
 2258              		.loc 1 89 0
 2259 0006 1378     		ldrb	r3, [r2]	@ zero_extendqisi2
 102:Generated_Source\PSoC5/USBUART_std.c **** 
 2260              		.loc 1 102 0
 2261 0008 0021     		movs	r1, #0
  89:Generated_Source\PSoC5/USBUART_std.c **** 
 2262              		.loc 1 89 0
 2263 000a DBB2     		uxtb	r3, r3
 2264              	.LVL132:
 102:Generated_Source\PSoC5/USBUART_std.c **** 
 2265              		.loc 1 102 0
ARM GAS  C:\Users\ingan\AppData\Local\Temp\cc5yuDXv.s 			page 70


 2266 000c 2180     		strh	r1, [r4]	@ movhi
 104:Generated_Source\PSoC5/USBUART_std.c ****     {
 2267              		.loc 1 104 0
 2268 000e 1906     		lsls	r1, r3, #24
 107:Generated_Source\PSoC5/USBUART_std.c ****         {
 2269              		.loc 1 107 0
 2270 0010 5278     		ldrb	r2, [r2, #1]	@ zero_extendqisi2
 104:Generated_Source\PSoC5/USBUART_std.c ****     {
 2271              		.loc 1 104 0
 2272 0012 16D4     		bmi	.L218
 256:Generated_Source\PSoC5/USBUART_std.c ****         {
 2273              		.loc 1 256 0
 2274 0014 013A     		subs	r2, r2, #1
 2275 0016 0A2A     		cmp	r2, #10
 2276 0018 11D8     		bhi	.L206
 2277 001a DFE812F0 		tbh	[pc, r2, lsl #1]
 2278              	.L163:
 2279 001e 6500     		.2byte	(.L162-.L163)/2
 2280 0020 1000     		.2byte	(.L206-.L163)/2
 2281 0022 9B00     		.2byte	(.L164-.L163)/2
 2282 0024 1000     		.2byte	(.L206-.L163)/2
 2283 0026 CC00     		.2byte	(.L165-.L163)/2
 2284 0028 1000     		.2byte	(.L206-.L163)/2
 2285 002a 1000     		.2byte	(.L206-.L163)/2
 2286 002c 1000     		.2byte	(.L206-.L163)/2
 2287 002e D500     		.2byte	(.L166-.L163)/2
 2288 0030 1000     		.2byte	(.L206-.L163)/2
 2289 0032 2D00     		.2byte	(.L167-.L163)/2
 2290              	.LVL133:
 2291              		.p2align 1
 2292              	.L182:
 362:Generated_Source\PSoC5/USBUART_std.c ****                         {
 2293              		.loc 1 362 0
 2294 0034 964B     		ldr	r3, .L226
 2295 0036 1A79     		ldrb	r2, [r3, #4]	@ zero_extendqisi2
 2296 0038 012A     		cmp	r2, #1
 2297 003a 40F27B81 		bls	.L219
 2298              	.LVL134:
 2299              	.L206:
 380:Generated_Source\PSoC5/USBUART_std.c **** 
 2300              		.loc 1 380 0
 2301 003e 0020     		movs	r0, #0
 2302 0040 70BD     		pop	{r4, r5, r6, pc}
 2303              	.LVL135:
 2304              	.L218:
 107:Generated_Source\PSoC5/USBUART_std.c ****         {
 2305              		.loc 1 107 0
 2306 0042 0A2A     		cmp	r2, #10
 2307 0044 FBD8     		bhi	.L206
 2308 0046 01A1     		adr	r1, .L148
 2309 0048 51F822F0 		ldr	pc, [r1, r2, lsl #2]
 2310              		.p2align 2
 2311              	.L148:
 2312 004c C9020000 		.word	.L147+1
 2313 0050 3F000000 		.word	.L206+1
 2314 0054 3F000000 		.word	.L206+1
 2315 0058 3F000000 		.word	.L206+1
ARM GAS  C:\Users\ingan\AppData\Local\Temp\cc5yuDXv.s 			page 71


 2316 005c 3F000000 		.word	.L206+1
 2317 0060 3F000000 		.word	.L206+1
 2318 0064 27020000 		.word	.L149+1
 2319 0068 3F000000 		.word	.L206+1
 2320 006c FF020000 		.word	.L150+1
 2321 0070 3F000000 		.word	.L206+1
 2322 0074 11020000 		.word	.L151+1
 2323              		.p2align 1
 2324              	.L167:
 2325              	.LVL136:
 2326              	.LBB95:
 2327              	.LBB96:
1049:Generated_Source\PSoC5/USBUART_std.c ****     }
1050:Generated_Source\PSoC5/USBUART_std.c **** 
1051:Generated_Source\PSoC5/USBUART_std.c ****     return (pInterfaceClass);
1052:Generated_Source\PSoC5/USBUART_std.c **** }
1053:Generated_Source\PSoC5/USBUART_std.c **** 
1054:Generated_Source\PSoC5/USBUART_std.c **** 
1055:Generated_Source\PSoC5/USBUART_std.c **** /*******************************************************************************
1056:Generated_Source\PSoC5/USBUART_std.c **** * Function Name: USBUART_TerminateEP
1057:Generated_Source\PSoC5/USBUART_std.c **** ****************************************************************************//**
1058:Generated_Source\PSoC5/USBUART_std.c **** *
1059:Generated_Source\PSoC5/USBUART_std.c **** *  This function terminates the specified USBFS endpoint.
1060:Generated_Source\PSoC5/USBUART_std.c **** *  This function should be used before endpoint reconfiguration.
1061:Generated_Source\PSoC5/USBUART_std.c **** *
1062:Generated_Source\PSoC5/USBUART_std.c **** *  \param ep Contains the data endpoint number.
1063:Generated_Source\PSoC5/USBUART_std.c **** *
1064:Generated_Source\PSoC5/USBUART_std.c **** *  \reentrant
1065:Generated_Source\PSoC5/USBUART_std.c **** *  No.
1066:Generated_Source\PSoC5/USBUART_std.c **** *
1067:Generated_Source\PSoC5/USBUART_std.c **** * \sideeffect
1068:Generated_Source\PSoC5/USBUART_std.c **** * 
1069:Generated_Source\PSoC5/USBUART_std.c **** * The device responds with a NAK for any transactions on the selected endpoint.
1070:Generated_Source\PSoC5/USBUART_std.c **** *   
1071:Generated_Source\PSoC5/USBUART_std.c **** *******************************************************************************/
1072:Generated_Source\PSoC5/USBUART_std.c **** void USBUART_TerminateEP(uint8 epNumber) 
1073:Generated_Source\PSoC5/USBUART_std.c **** {
1074:Generated_Source\PSoC5/USBUART_std.c ****     /* Get endpoint number */
1075:Generated_Source\PSoC5/USBUART_std.c ****     epNumber &= USBUART_DIR_UNUSED;
1076:Generated_Source\PSoC5/USBUART_std.c **** 
1077:Generated_Source\PSoC5/USBUART_std.c ****     if ((epNumber > USBUART_EP0) && (epNumber < USBUART_MAX_EP))
1078:Generated_Source\PSoC5/USBUART_std.c ****     {
1079:Generated_Source\PSoC5/USBUART_std.c ****         /* Set the endpoint Halt */
1080:Generated_Source\PSoC5/USBUART_std.c ****         USBUART_EP[epNumber].hwEpState |= USBUART_ENDPOINT_STATUS_HALT;
1081:Generated_Source\PSoC5/USBUART_std.c **** 
1082:Generated_Source\PSoC5/USBUART_std.c ****         /* Clear the data toggle */
1083:Generated_Source\PSoC5/USBUART_std.c ****         USBUART_EP[epNumber].epToggle = 0u;
1084:Generated_Source\PSoC5/USBUART_std.c ****         USBUART_EP[epNumber].apiEpState = USBUART_NO_EVENT_ALLOWED;
1085:Generated_Source\PSoC5/USBUART_std.c **** 
1086:Generated_Source\PSoC5/USBUART_std.c ****         if ((USBUART_EP[epNumber].addr & USBUART_DIR_IN) != 0u)
1087:Generated_Source\PSoC5/USBUART_std.c ****         {   
1088:Generated_Source\PSoC5/USBUART_std.c ****             /* IN Endpoint */
1089:Generated_Source\PSoC5/USBUART_std.c ****             USBUART_SIE_EP_BASE.sieEp[epNumber].epCr0 = USBUART_MODE_NAK_IN;
1090:Generated_Source\PSoC5/USBUART_std.c ****         }
1091:Generated_Source\PSoC5/USBUART_std.c ****         else
1092:Generated_Source\PSoC5/USBUART_std.c ****         {
1093:Generated_Source\PSoC5/USBUART_std.c ****             /* OUT Endpoint */
ARM GAS  C:\Users\ingan\AppData\Local\Temp\cc5yuDXv.s 			page 72


1094:Generated_Source\PSoC5/USBUART_std.c ****             USBUART_SIE_EP_BASE.sieEp[epNumber].epCr0 = USBUART_MODE_NAK_OUT;
1095:Generated_Source\PSoC5/USBUART_std.c ****         }
1096:Generated_Source\PSoC5/USBUART_std.c ****     }
1097:Generated_Source\PSoC5/USBUART_std.c **** }
1098:Generated_Source\PSoC5/USBUART_std.c **** 
1099:Generated_Source\PSoC5/USBUART_std.c **** 
1100:Generated_Source\PSoC5/USBUART_std.c **** /*******************************************************************************
1101:Generated_Source\PSoC5/USBUART_std.c **** * Function Name: USBUART_SetEndpointHalt
1102:Generated_Source\PSoC5/USBUART_std.c **** ****************************************************************************//**
1103:Generated_Source\PSoC5/USBUART_std.c **** *
1104:Generated_Source\PSoC5/USBUART_std.c **** *  This routine handles set endpoint halt.
1105:Generated_Source\PSoC5/USBUART_std.c **** *
1106:Generated_Source\PSoC5/USBUART_std.c **** * \return
1107:Generated_Source\PSoC5/USBUART_std.c **** *  requestHandled.
1108:Generated_Source\PSoC5/USBUART_std.c **** *
1109:Generated_Source\PSoC5/USBUART_std.c **** * \reentrant
1110:Generated_Source\PSoC5/USBUART_std.c **** *  No.
1111:Generated_Source\PSoC5/USBUART_std.c **** *
1112:Generated_Source\PSoC5/USBUART_std.c **** *******************************************************************************/
1113:Generated_Source\PSoC5/USBUART_std.c **** uint8 USBUART_SetEndpointHalt(void) 
1114:Generated_Source\PSoC5/USBUART_std.c **** {
1115:Generated_Source\PSoC5/USBUART_std.c ****     uint8 requestHandled = USBUART_FALSE;
1116:Generated_Source\PSoC5/USBUART_std.c ****     uint8 ep;
1117:Generated_Source\PSoC5/USBUART_std.c ****     
1118:Generated_Source\PSoC5/USBUART_std.c ****     /* Set endpoint halt */
1119:Generated_Source\PSoC5/USBUART_std.c ****     ep = USBUART_wIndexLoReg & USBUART_DIR_UNUSED;
1120:Generated_Source\PSoC5/USBUART_std.c **** 
1121:Generated_Source\PSoC5/USBUART_std.c ****     if ((ep > USBUART_EP0) && (ep < USBUART_MAX_EP))
1122:Generated_Source\PSoC5/USBUART_std.c ****     {
1123:Generated_Source\PSoC5/USBUART_std.c ****         /* Set the endpoint Halt */
1124:Generated_Source\PSoC5/USBUART_std.c ****         USBUART_EP[ep].hwEpState |= (USBUART_ENDPOINT_STATUS_HALT);
1125:Generated_Source\PSoC5/USBUART_std.c **** 
1126:Generated_Source\PSoC5/USBUART_std.c ****         /* Clear the data toggle */
1127:Generated_Source\PSoC5/USBUART_std.c ****         USBUART_EP[ep].epToggle = 0u;
1128:Generated_Source\PSoC5/USBUART_std.c ****         USBUART_EP[ep].apiEpState |= USBUART_NO_EVENT_ALLOWED;
1129:Generated_Source\PSoC5/USBUART_std.c **** 
1130:Generated_Source\PSoC5/USBUART_std.c ****         if ((USBUART_EP[ep].addr & USBUART_DIR_IN) != 0u)
1131:Generated_Source\PSoC5/USBUART_std.c ****         {
1132:Generated_Source\PSoC5/USBUART_std.c ****             /* IN Endpoint */
1133:Generated_Source\PSoC5/USBUART_std.c ****             USBUART_SIE_EP_BASE.sieEp[ep].epCr0 = (USBUART_MODE_STALL_DATA_EP | 
1134:Generated_Source\PSoC5/USBUART_std.c ****                                                             USBUART_MODE_ACK_IN);
1135:Generated_Source\PSoC5/USBUART_std.c ****         }
1136:Generated_Source\PSoC5/USBUART_std.c ****         else
1137:Generated_Source\PSoC5/USBUART_std.c ****         {
1138:Generated_Source\PSoC5/USBUART_std.c ****             /* OUT Endpoint */
1139:Generated_Source\PSoC5/USBUART_std.c ****             USBUART_SIE_EP_BASE.sieEp[ep].epCr0 = (USBUART_MODE_STALL_DATA_EP | 
1140:Generated_Source\PSoC5/USBUART_std.c ****                                                             USBUART_MODE_ACK_OUT);
1141:Generated_Source\PSoC5/USBUART_std.c ****         }
1142:Generated_Source\PSoC5/USBUART_std.c ****         requestHandled = USBUART_InitNoDataControlTransfer();
1143:Generated_Source\PSoC5/USBUART_std.c ****     }
1144:Generated_Source\PSoC5/USBUART_std.c **** 
1145:Generated_Source\PSoC5/USBUART_std.c ****     return (requestHandled);
1146:Generated_Source\PSoC5/USBUART_std.c **** }
1147:Generated_Source\PSoC5/USBUART_std.c **** 
1148:Generated_Source\PSoC5/USBUART_std.c **** 
1149:Generated_Source\PSoC5/USBUART_std.c **** /*******************************************************************************
1150:Generated_Source\PSoC5/USBUART_std.c **** * Function Name: USBUART_ClearEndpointHalt
ARM GAS  C:\Users\ingan\AppData\Local\Temp\cc5yuDXv.s 			page 73


1151:Generated_Source\PSoC5/USBUART_std.c **** ****************************************************************************//**
1152:Generated_Source\PSoC5/USBUART_std.c **** *
1153:Generated_Source\PSoC5/USBUART_std.c **** *  This routine handles clear endpoint halt.
1154:Generated_Source\PSoC5/USBUART_std.c **** *
1155:Generated_Source\PSoC5/USBUART_std.c **** * \return
1156:Generated_Source\PSoC5/USBUART_std.c **** *  requestHandled.
1157:Generated_Source\PSoC5/USBUART_std.c **** *
1158:Generated_Source\PSoC5/USBUART_std.c **** * \reentrant
1159:Generated_Source\PSoC5/USBUART_std.c **** *  No.
1160:Generated_Source\PSoC5/USBUART_std.c **** *
1161:Generated_Source\PSoC5/USBUART_std.c **** *******************************************************************************/
1162:Generated_Source\PSoC5/USBUART_std.c **** uint8 USBUART_ClearEndpointHalt(void) 
1163:Generated_Source\PSoC5/USBUART_std.c **** {
1164:Generated_Source\PSoC5/USBUART_std.c ****     uint8 requestHandled = USBUART_FALSE;
1165:Generated_Source\PSoC5/USBUART_std.c ****     uint8 ep;
1166:Generated_Source\PSoC5/USBUART_std.c **** 
1167:Generated_Source\PSoC5/USBUART_std.c ****     /* Clear endpoint halt */
1168:Generated_Source\PSoC5/USBUART_std.c ****     ep = USBUART_wIndexLoReg & USBUART_DIR_UNUSED;
1169:Generated_Source\PSoC5/USBUART_std.c **** 
1170:Generated_Source\PSoC5/USBUART_std.c ****     if ((ep > USBUART_EP0) && (ep < USBUART_MAX_EP))
1171:Generated_Source\PSoC5/USBUART_std.c ****     {
1172:Generated_Source\PSoC5/USBUART_std.c ****         /* Clear the endpoint Halt */
1173:Generated_Source\PSoC5/USBUART_std.c ****         USBUART_EP[ep].hwEpState &= (uint8) ~USBUART_ENDPOINT_STATUS_HALT;
1174:Generated_Source\PSoC5/USBUART_std.c **** 
1175:Generated_Source\PSoC5/USBUART_std.c ****         /* Clear the data toggle */
1176:Generated_Source\PSoC5/USBUART_std.c ****         USBUART_EP[ep].epToggle = 0u;
1177:Generated_Source\PSoC5/USBUART_std.c ****         
1178:Generated_Source\PSoC5/USBUART_std.c ****         /* Clear toggle bit for already armed packet */
1179:Generated_Source\PSoC5/USBUART_std.c ****         USBUART_SIE_EP_BASE.sieEp[ep].epCnt0 &= (uint8) ~(uint8)USBUART_EPX_CNT_DATA_TOGGLE;
1180:Generated_Source\PSoC5/USBUART_std.c ****         
1181:Generated_Source\PSoC5/USBUART_std.c ****         /* Return API State as it was defined before */
1182:Generated_Source\PSoC5/USBUART_std.c ****         USBUART_EP[ep].apiEpState &= (uint8) ~USBUART_NO_EVENT_ALLOWED;
1183:Generated_Source\PSoC5/USBUART_std.c **** 
1184:Generated_Source\PSoC5/USBUART_std.c ****         if ((USBUART_EP[ep].addr & USBUART_DIR_IN) != 0u)
1185:Generated_Source\PSoC5/USBUART_std.c ****         {
1186:Generated_Source\PSoC5/USBUART_std.c ****             /* IN Endpoint */
1187:Generated_Source\PSoC5/USBUART_std.c ****             if(USBUART_EP[ep].apiEpState == USBUART_IN_BUFFER_EMPTY)
1188:Generated_Source\PSoC5/USBUART_std.c ****             {       
1189:Generated_Source\PSoC5/USBUART_std.c ****                 /* Wait for next packet from application */
1190:Generated_Source\PSoC5/USBUART_std.c ****                 USBUART_SIE_EP_BASE.sieEp[ep].epCr0 = USBUART_MODE_NAK_IN;
1191:Generated_Source\PSoC5/USBUART_std.c ****             }
1192:Generated_Source\PSoC5/USBUART_std.c ****             else    /* Continue armed transfer */
1193:Generated_Source\PSoC5/USBUART_std.c ****             {
1194:Generated_Source\PSoC5/USBUART_std.c ****                 USBUART_SIE_EP_BASE.sieEp[ep].epCr0 = USBUART_MODE_ACK_IN;
1195:Generated_Source\PSoC5/USBUART_std.c ****             }
1196:Generated_Source\PSoC5/USBUART_std.c ****         }
1197:Generated_Source\PSoC5/USBUART_std.c ****         else
1198:Generated_Source\PSoC5/USBUART_std.c ****         {
1199:Generated_Source\PSoC5/USBUART_std.c ****             /* OUT Endpoint */
1200:Generated_Source\PSoC5/USBUART_std.c ****             if (USBUART_EP[ep].apiEpState == USBUART_OUT_BUFFER_FULL)
1201:Generated_Source\PSoC5/USBUART_std.c ****             {       
1202:Generated_Source\PSoC5/USBUART_std.c ****                 /* Allow application to read full buffer */
1203:Generated_Source\PSoC5/USBUART_std.c ****                 USBUART_SIE_EP_BASE.sieEp[ep].epCr0 = USBUART_MODE_NAK_OUT;
1204:Generated_Source\PSoC5/USBUART_std.c ****             }
1205:Generated_Source\PSoC5/USBUART_std.c ****             else    /* Mark endpoint as empty, so it will be reloaded */
1206:Generated_Source\PSoC5/USBUART_std.c ****             {
1207:Generated_Source\PSoC5/USBUART_std.c ****                 USBUART_SIE_EP_BASE.sieEp[ep].epCr0 = USBUART_MODE_ACK_OUT;
ARM GAS  C:\Users\ingan\AppData\Local\Temp\cc5yuDXv.s 			page 74


1208:Generated_Source\PSoC5/USBUART_std.c ****             }
1209:Generated_Source\PSoC5/USBUART_std.c ****         }
1210:Generated_Source\PSoC5/USBUART_std.c ****         
1211:Generated_Source\PSoC5/USBUART_std.c ****         requestHandled = USBUART_InitNoDataControlTransfer();
1212:Generated_Source\PSoC5/USBUART_std.c ****     }
1213:Generated_Source\PSoC5/USBUART_std.c **** 
1214:Generated_Source\PSoC5/USBUART_std.c ****     return(requestHandled);
1215:Generated_Source\PSoC5/USBUART_std.c **** }
1216:Generated_Source\PSoC5/USBUART_std.c **** 
1217:Generated_Source\PSoC5/USBUART_std.c **** 
1218:Generated_Source\PSoC5/USBUART_std.c **** /*******************************************************************************
1219:Generated_Source\PSoC5/USBUART_std.c **** * Function Name: USBUART_ValidateAlternateSetting
1220:Generated_Source\PSoC5/USBUART_std.c **** ****************************************************************************//**
1221:Generated_Source\PSoC5/USBUART_std.c **** *
1222:Generated_Source\PSoC5/USBUART_std.c **** *  Validates (and records) a SET INTERFACE request.
1223:Generated_Source\PSoC5/USBUART_std.c **** *
1224:Generated_Source\PSoC5/USBUART_std.c **** * \return
1225:Generated_Source\PSoC5/USBUART_std.c **** *  requestHandled.
1226:Generated_Source\PSoC5/USBUART_std.c **** *
1227:Generated_Source\PSoC5/USBUART_std.c **** * \reentrant
1228:Generated_Source\PSoC5/USBUART_std.c **** *  No.
1229:Generated_Source\PSoC5/USBUART_std.c **** *
1230:Generated_Source\PSoC5/USBUART_std.c **** *******************************************************************************/
1231:Generated_Source\PSoC5/USBUART_std.c **** uint8 USBUART_ValidateAlternateSetting(void) 
1232:Generated_Source\PSoC5/USBUART_std.c **** {
1233:Generated_Source\PSoC5/USBUART_std.c ****     uint8 requestHandled = USBUART_FALSE;
1234:Generated_Source\PSoC5/USBUART_std.c ****     
1235:Generated_Source\PSoC5/USBUART_std.c ****     uint8 interfaceNum;
1236:Generated_Source\PSoC5/USBUART_std.c ****     uint8 curInterfacesNum;
1237:Generated_Source\PSoC5/USBUART_std.c ****     const T_USBUART_LUT CYCODE *pTmp;
1238:Generated_Source\PSoC5/USBUART_std.c ****     
1239:Generated_Source\PSoC5/USBUART_std.c ****     /* Get interface number from the request. */
1240:Generated_Source\PSoC5/USBUART_std.c ****     interfaceNum = (uint8) USBUART_wIndexLoReg;
 2328              		.loc 1 1240 0
 2329 0078 854B     		ldr	r3, .L226
 2330              	.LVL137:
1241:Generated_Source\PSoC5/USBUART_std.c ****     
1242:Generated_Source\PSoC5/USBUART_std.c ****     /* Get number of interfaces for current configuration. */
1243:Generated_Source\PSoC5/USBUART_std.c ****     pTmp = USBUART_GetConfigTablePtr(USBUART_configuration - 1u);
 2331              		.loc 1 1243 0
 2332 007a 8748     		ldr	r0, .L226+8
 2333              	.LBB97:
 2334              	.LBB98:
 948:Generated_Source\PSoC5/USBUART_std.c **** 
 2335              		.loc 1 948 0
 2336 007c 874C     		ldr	r4, .L226+12
 2337              	.LBE98:
 2338              	.LBE97:
1240:Generated_Source\PSoC5/USBUART_std.c ****     
 2339              		.loc 1 1240 0
 2340 007e 1A79     		ldrb	r2, [r3, #4]	@ zero_extendqisi2
 2341              	.LBB104:
 2342              	.LBB99:
 948:Generated_Source\PSoC5/USBUART_std.c **** 
 2343              		.loc 1 948 0
 2344 0080 8749     		ldr	r1, .L226+16
 2345              	.LBE99:
ARM GAS  C:\Users\ingan\AppData\Local\Temp\cc5yuDXv.s 			page 75


 2346              	.LBE104:
 2347              		.loc 1 1243 0
 2348 0082 0378     		ldrb	r3, [r0]	@ zero_extendqisi2
 2349              	.LBB105:
 2350              	.LBB100:
 948:Generated_Source\PSoC5/USBUART_std.c **** 
 2351              		.loc 1 948 0
 2352 0084 2478     		ldrb	r4, [r4]	@ zero_extendqisi2
 2353              	.LBE100:
 2354              	.LBE105:
 2355              		.loc 1 1243 0
 2356 0086 013B     		subs	r3, r3, #1
 2357              	.LBB106:
 2358              	.LBB101:
 948:Generated_Source\PSoC5/USBUART_std.c **** 
 2359              		.loc 1 948 0
 2360 0088 01EBC401 		add	r1, r1, r4, lsl #3
 2361 008c 4968     		ldr	r1, [r1, #4]
 2362              	.LBE101:
 2363              	.LBE106:
 2364              		.loc 1 1243 0
 2365 008e DBB2     		uxtb	r3, r3
 2366              	.LBB107:
 2367              	.LBB102:
 957:Generated_Source\PSoC5/USBUART_std.c ****     {
 2368              		.loc 1 957 0
 2369 0090 0C7C     		ldrb	r4, [r1, #16]	@ zero_extendqisi2
 2370              	.LBE102:
 2371              	.LBE107:
1240:Generated_Source\PSoC5/USBUART_std.c ****     
 2372              		.loc 1 1240 0
 2373 0092 D2B2     		uxtb	r2, r2
 2374              	.LVL138:
 2375              	.LBB108:
 2376              	.LBB103:
 957:Generated_Source\PSoC5/USBUART_std.c ****     {
 2377              		.loc 1 957 0
 2378 0094 9C42     		cmp	r4, r3
 2379 0096 40F23A81 		bls	.L170
 2380              	.LVL139:
 963:Generated_Source\PSoC5/USBUART_std.c ****     }
 2381              		.loc 1 963 0
 2382 009a 01EBC303 		add	r3, r1, r3, lsl #3
 2383              	.LVL140:
 2384              	.LBE103:
 2385              	.LBE108:
1244:Generated_Source\PSoC5/USBUART_std.c ****     curInterfacesNum  = ((const uint8 *) pTmp->p_list)[USBUART_CONFIG_DESCR_NUM_INTERFACES];
 2386              		.loc 1 1244 0
 2387 009e 5B69     		ldr	r3, [r3, #20]
 2388 00a0 5B68     		ldr	r3, [r3, #4]
1245:Generated_Source\PSoC5/USBUART_std.c **** 
1246:Generated_Source\PSoC5/USBUART_std.c ****     /* Validate that interface number is within range. */
1247:Generated_Source\PSoC5/USBUART_std.c ****     if ((interfaceNum <= curInterfacesNum) || (interfaceNum <= USBUART_MAX_INTERFACES_NUMBER))
 2389              		.loc 1 1247 0
 2390 00a2 1B79     		ldrb	r3, [r3, #4]	@ zero_extendqisi2
 2391 00a4 9342     		cmp	r3, r2
 2392 00a6 01D2     		bcs	.L171
ARM GAS  C:\Users\ingan\AppData\Local\Temp\cc5yuDXv.s 			page 76


 2393 00a8 022A     		cmp	r2, #2
 2394 00aa C8D8     		bhi	.L206
 2395              	.L171:
1248:Generated_Source\PSoC5/USBUART_std.c ****     {
1249:Generated_Source\PSoC5/USBUART_std.c ****         /* Save current and new alternate settings (come with request) to make 
1250:Generated_Source\PSoC5/USBUART_std.c ****         * desicion about following endpoint re-configuration.
1251:Generated_Source\PSoC5/USBUART_std.c ****         */
1252:Generated_Source\PSoC5/USBUART_std.c ****         USBUART_interfaceSettingLast[interfaceNum] = USBUART_interfaceSetting[interfaceNum];
 2396              		.loc 1 1252 0
 2397 00ac 7D49     		ldr	r1, .L226+20
 2398 00ae 7E4D     		ldr	r5, .L226+24
 2399 00b0 8B5C     		ldrb	r3, [r1, r2]	@ zero_extendqisi2
1253:Generated_Source\PSoC5/USBUART_std.c ****         USBUART_interfaceSetting[interfaceNum]     = (uint8) USBUART_wValueLoReg;
 2400              		.loc 1 1253 0
 2401 00b2 774C     		ldr	r4, .L226
1252:Generated_Source\PSoC5/USBUART_std.c ****         USBUART_interfaceSetting[interfaceNum]     = (uint8) USBUART_wValueLoReg;
 2402              		.loc 1 1252 0
 2403 00b4 DBB2     		uxtb	r3, r3
 2404 00b6 AB54     		strb	r3, [r5, r2]
 2405              		.loc 1 1253 0
 2406 00b8 A378     		ldrb	r3, [r4, #2]	@ zero_extendqisi2
 2407              	.LBE96:
 2408              	.LBE95:
 292:Generated_Source\PSoC5/USBUART_std.c ****                      
 2409              		.loc 1 292 0
 2410 00ba 7C4E     		ldr	r6, .L226+28
 2411              	.LBB111:
 2412              	.LBB109:
 2413              		.loc 1 1253 0
 2414 00bc DBB2     		uxtb	r3, r3
 2415 00be 8B54     		strb	r3, [r1, r2]
 2416              	.LVL141:
 2417              	.LBE109:
 2418              	.LBE111:
 291:Generated_Source\PSoC5/USBUART_std.c ****                     USBUART_interfaceNumber = (uint8) USBUART_wIndexLoReg;
 2419              		.loc 1 291 0
 2420 00c0 2379     		ldrb	r3, [r4, #4]	@ zero_extendqisi2
 292:Generated_Source\PSoC5/USBUART_std.c ****                      
 2421              		.loc 1 292 0
 2422 00c2 2279     		ldrb	r2, [r4, #4]	@ zero_extendqisi2
 291:Generated_Source\PSoC5/USBUART_std.c ****                     USBUART_interfaceNumber = (uint8) USBUART_wIndexLoReg;
 2423              		.loc 1 291 0
 2424 00c4 DBB2     		uxtb	r3, r3
 2425              	.LVL142:
 292:Generated_Source\PSoC5/USBUART_std.c ****                      
 2426              		.loc 1 292 0
 2427 00c6 D2B2     		uxtb	r2, r2
 2428 00c8 3270     		strb	r2, [r6]
 295:Generated_Source\PSoC5/USBUART_std.c ****                     {
 2429              		.loc 1 295 0
 2430 00ca EA5C     		ldrb	r2, [r5, r3]	@ zero_extendqisi2
 2431 00cc CB5C     		ldrb	r3, [r1, r3]	@ zero_extendqisi2
 2432              	.LVL143:
 2433 00ce 9A42     		cmp	r2, r3
 2434 00d0 06D0     		beq	.L215
 297:Generated_Source\PSoC5/USBUART_std.c ****                     
 2435              		.loc 1 297 0
ARM GAS  C:\Users\ingan\AppData\Local\Temp\cc5yuDXv.s 			page 77


 2436 00d2 774B     		ldr	r3, .L226+32
 2437 00d4 0122     		movs	r2, #1
 2438 00d6 1A70     		strb	r2, [r3]
 2439              	.LBB112:
 2440              	.LBB113:
 817:Generated_Source\PSoC5/USBUART_std.c ****     {
 2441              		.loc 1 817 0
 2442 00d8 0378     		ldrb	r3, [r0]	@ zero_extendqisi2
 2443 00da 002B     		cmp	r3, #0
 2444 00dc 40F01A81 		bne	.L220
 2445              	.L215:
 2446              	.LBE113:
 2447              	.LBE112:
 380:Generated_Source\PSoC5/USBUART_std.c **** 
 2448              		.loc 1 380 0
 2449 00e0 BDE87040 		pop	{r4, r5, r6, lr}
 2450              		.cfi_remember_state
 2451              		.cfi_restore 14
 2452              		.cfi_restore 6
 2453              		.cfi_restore 5
 2454              		.cfi_restore 4
 2455              		.cfi_def_cfa_offset 0
 365:Generated_Source\PSoC5/USBUART_std.c ****                         }
 2456              		.loc 1 365 0
 2457 00e4 FFF7FEBF 		b	USBUART_InitNoDataControlTransfer
 2458              	.LVL144:
 2459              	.L162:
 2460              		.cfi_restore_state
 312:Generated_Source\PSoC5/USBUART_std.c ****                 {
 2461              		.loc 1 312 0
 2462 00e8 03F00303 		and	r3, r3, #3
 2463              	.LVL145:
 2464 00ec 012B     		cmp	r3, #1
 2465 00ee A1D0     		beq	.L182
 2466 00f0 C0F03781 		bcc	.L176
 2467 00f4 022B     		cmp	r3, #2
 2468 00f6 A2D1     		bne	.L206
 315:Generated_Source\PSoC5/USBUART_std.c ****                         {
 2469              		.loc 1 315 0
 2470 00f8 654A     		ldr	r2, .L226
 2471 00fa 9378     		ldrb	r3, [r2, #2]	@ zero_extendqisi2
 2472 00fc 03F0FF01 		and	r1, r3, #255
 2473 0100 002B     		cmp	r3, #0
 2474 0102 9CD1     		bne	.L206
 2475              	.LVL146:
 2476              	.LBB115:
 2477              	.LBB116:
1168:Generated_Source\PSoC5/USBUART_std.c **** 
 2478              		.loc 1 1168 0
 2479 0104 1379     		ldrb	r3, [r2, #4]	@ zero_extendqisi2
 2480 0106 03F07F03 		and	r3, r3, #127
 2481              	.LVL147:
1170:Generated_Source\PSoC5/USBUART_std.c ****     {
 2482              		.loc 1 1170 0
 2483 010a 5A1E     		subs	r2, r3, #1
 2484 010c 072A     		cmp	r2, #7
 2485 010e 96D8     		bhi	.L206
ARM GAS  C:\Users\ingan\AppData\Local\Temp\cc5yuDXv.s 			page 78


1173:Generated_Source\PSoC5/USBUART_std.c **** 
 2486              		.loc 1 1173 0
 2487 0110 684A     		ldr	r2, .L226+36
 2488 0112 03EB4300 		add	r0, r3, r3, lsl #1
 2489 0116 02EB8002 		add	r2, r2, r0, lsl #2
 2490 011a 9078     		ldrb	r0, [r2, #2]	@ zero_extendqisi2
 2491 011c 664C     		ldr	r4, .L226+40
 2492 011e 00F0FE00 		and	r0, r0, #254
 2493 0122 9070     		strb	r0, [r2, #2]
1176:Generated_Source\PSoC5/USBUART_std.c ****         
 2494              		.loc 1 1176 0
 2495 0124 D170     		strb	r1, [r2, #3]
 2496 0126 2146     		mov	r1, r4
 2497 0128 1B01     		lsls	r3, r3, #4
 2498              	.LVL148:
1179:Generated_Source\PSoC5/USBUART_std.c ****         
 2499              		.loc 1 1179 0
 2500 012a 185D     		ldrb	r0, [r3, r4]	@ zero_extendqisi2
 2501 012c 1944     		add	r1, r1, r3
 2502 012e 00F07F00 		and	r0, r0, #127
 2503 0132 1855     		strb	r0, [r3, r4]
1182:Generated_Source\PSoC5/USBUART_std.c **** 
 2504              		.loc 1 1182 0
 2505 0134 5078     		ldrb	r0, [r2, #1]	@ zero_extendqisi2
 2506 0136 00F0FD03 		and	r3, r0, #253
 2507 013a 5370     		strb	r3, [r2, #1]
1184:Generated_Source\PSoC5/USBUART_std.c ****         {
 2508              		.loc 1 1184 0
 2509 013c 1379     		ldrb	r3, [r2, #4]	@ zero_extendqisi2
 2510 013e 13F0800F 		tst	r3, #128
1187:Generated_Source\PSoC5/USBUART_std.c ****             {       
 2511              		.loc 1 1187 0
 2512 0142 5378     		ldrb	r3, [r2, #1]	@ zero_extendqisi2
1184:Generated_Source\PSoC5/USBUART_std.c ****         {
 2513              		.loc 1 1184 0
 2514 0144 40F04C81 		bne	.L221
1200:Generated_Source\PSoC5/USBUART_std.c ****             {       
 2515              		.loc 1 1200 0
 2516 0148 012B     		cmp	r3, #1
1203:Generated_Source\PSoC5/USBUART_std.c ****             }
 2517              		.loc 1 1203 0
 2518 014a 0CBF     		ite	eq
 2519 014c 0823     		moveq	r3, #8
1207:Generated_Source\PSoC5/USBUART_std.c ****             }
 2520              		.loc 1 1207 0
 2521 014e 0923     		movne	r3, #9
 2522 0150 8B70     		strb	r3, [r1, #2]
 2523 0152 C5E7     		b	.L215
 2524              	.LVL149:
 2525              	.L164:
 2526              	.LBE116:
 2527              	.LBE115:
 342:Generated_Source\PSoC5/USBUART_std.c ****                 {
 2528              		.loc 1 342 0
 2529 0154 03F00303 		and	r3, r3, #3
 2530              	.LVL150:
 2531 0158 012B     		cmp	r3, #1
ARM GAS  C:\Users\ingan\AppData\Local\Temp\cc5yuDXv.s 			page 79


 2532 015a 3FF46BAF 		beq	.L182
 2533 015e C0F00E81 		bcc	.L183
 2534 0162 022B     		cmp	r3, #2
 2535 0164 7FF46BAF 		bne	.L206
 345:Generated_Source\PSoC5/USBUART_std.c ****                         {
 2536              		.loc 1 345 0
 2537 0168 494A     		ldr	r2, .L226
 2538 016a 9378     		ldrb	r3, [r2, #2]	@ zero_extendqisi2
 2539 016c 03F0FF01 		and	r1, r3, #255
 2540 0170 002B     		cmp	r3, #0
 2541 0172 7FF464AF 		bne	.L206
 2542              	.LVL151:
 2543              	.LBB118:
 2544              	.LBB119:
1119:Generated_Source\PSoC5/USBUART_std.c **** 
 2545              		.loc 1 1119 0
 2546 0176 1379     		ldrb	r3, [r2, #4]	@ zero_extendqisi2
 2547 0178 03F07F03 		and	r3, r3, #127
 2548              	.LVL152:
1121:Generated_Source\PSoC5/USBUART_std.c ****     {
 2549              		.loc 1 1121 0
 2550 017c 5A1E     		subs	r2, r3, #1
 2551 017e 072A     		cmp	r2, #7
 2552 0180 3FF65DAF 		bhi	.L206
1124:Generated_Source\PSoC5/USBUART_std.c **** 
 2553              		.loc 1 1124 0
 2554 0184 4B4A     		ldr	r2, .L226+36
 2555 0186 03EB4300 		add	r0, r3, r3, lsl #1
 2556 018a 02EB8002 		add	r2, r2, r0, lsl #2
 2557 018e 9078     		ldrb	r0, [r2, #2]	@ zero_extendqisi2
1133:Generated_Source\PSoC5/USBUART_std.c ****                                                             USBUART_MODE_ACK_IN);
 2558              		.loc 1 1133 0
 2559 0190 1B01     		lsls	r3, r3, #4
 2560              	.LVL153:
1124:Generated_Source\PSoC5/USBUART_std.c **** 
 2561              		.loc 1 1124 0
 2562 0192 40F00100 		orr	r0, r0, #1
 2563 0196 9070     		strb	r0, [r2, #2]
1127:Generated_Source\PSoC5/USBUART_std.c ****         USBUART_EP[ep].apiEpState |= USBUART_NO_EVENT_ALLOWED;
 2564              		.loc 1 1127 0
 2565 0198 D170     		strb	r1, [r2, #3]
1128:Generated_Source\PSoC5/USBUART_std.c **** 
 2566              		.loc 1 1128 0
 2567 019a 5178     		ldrb	r1, [r2, #1]	@ zero_extendqisi2
 2568 019c 41F00201 		orr	r1, r1, #2
 2569 01a0 5170     		strb	r1, [r2, #1]
1130:Generated_Source\PSoC5/USBUART_std.c ****         {
 2570              		.loc 1 1130 0
 2571 01a2 1279     		ldrb	r2, [r2, #4]	@ zero_extendqisi2
 2572 01a4 12F0800F 		tst	r2, #128
1133:Generated_Source\PSoC5/USBUART_std.c ****                                                             USBUART_MODE_ACK_IN);
 2573              		.loc 1 1133 0
 2574 01a8 434A     		ldr	r2, .L226+40
 2575 01aa 1A44     		add	r2, r2, r3
 2576 01ac 14BF     		ite	ne
 2577 01ae 8D23     		movne	r3, #141
1139:Generated_Source\PSoC5/USBUART_std.c ****                                                             USBUART_MODE_ACK_OUT);
ARM GAS  C:\Users\ingan\AppData\Local\Temp\cc5yuDXv.s 			page 80


 2578              		.loc 1 1139 0
 2579 01b0 8923     		moveq	r3, #137
 2580 01b2 9370     		strb	r3, [r2, #2]
 2581 01b4 94E7     		b	.L215
 2582              	.LVL154:
 2583              	.L165:
 2584              	.LBE119:
 2585              	.LBE118:
 260:Generated_Source\PSoC5/USBUART_std.c ****                 requestHandled = USBUART_InitNoDataControlTransfer();
 2586              		.loc 1 260 0
 2587 01b6 364B     		ldr	r3, .L226
 2588              	.LVL155:
 2589 01b8 404A     		ldr	r2, .L226+44
 2590 01ba 9B78     		ldrb	r3, [r3, #2]	@ zero_extendqisi2
 2591 01bc DBB2     		uxtb	r3, r3
 2592 01be 1370     		strb	r3, [r2]
 380:Generated_Source\PSoC5/USBUART_std.c **** 
 2593              		.loc 1 380 0
 2594 01c0 BDE87040 		pop	{r4, r5, r6, lr}
 2595              		.cfi_remember_state
 2596              		.cfi_restore 14
 2597              		.cfi_restore 6
 2598              		.cfi_restore 5
 2599              		.cfi_restore 4
 2600              		.cfi_def_cfa_offset 0
 261:Generated_Source\PSoC5/USBUART_std.c ****                 break;
 2601              		.loc 1 261 0
 2602 01c4 FFF7FEBF 		b	USBUART_InitNoDataControlTransfer
 2603              	.LVL156:
 2604              	.L166:
 2605              		.cfi_restore_state
 265:Generated_Source\PSoC5/USBUART_std.c ****                 
 2606              		.loc 1 265 0
 2607 01c8 314B     		ldr	r3, .L226
 2608              	.LVL157:
 2609 01ca 9B78     		ldrb	r3, [r3, #2]	@ zero_extendqisi2
 2610              	.LVL158:
 268:Generated_Source\PSoC5/USBUART_std.c ****                 {
 2611              		.loc 1 268 0
 2612 01cc 03F0FF02 		and	r2, r3, #255
 2613 01d0 8BB1     		cbz	r3, .L168
 2614              	.LBB120:
 2615              	.LBB121:
 948:Generated_Source\PSoC5/USBUART_std.c **** 
 2616              		.loc 1 948 0
 2617 01d2 324B     		ldr	r3, .L226+12
 2618              	.LVL159:
 2619 01d4 3249     		ldr	r1, .L226+16
 2620 01d6 1878     		ldrb	r0, [r3]	@ zero_extendqisi2
 2621              	.LBE121:
 2622              	.LBE120:
 270:Generated_Source\PSoC5/USBUART_std.c ****                 }
 2623              		.loc 1 270 0
 2624 01d8 531E     		subs	r3, r2, #1
 2625              	.LBB124:
 2626              	.LBB122:
 948:Generated_Source\PSoC5/USBUART_std.c **** 
ARM GAS  C:\Users\ingan\AppData\Local\Temp\cc5yuDXv.s 			page 81


 2627              		.loc 1 948 0
 2628 01da 01EBC001 		add	r1, r1, r0, lsl #3
 2629 01de 4968     		ldr	r1, [r1, #4]
 2630              	.LBE122:
 2631              	.LBE124:
 270:Generated_Source\PSoC5/USBUART_std.c ****                 }
 2632              		.loc 1 270 0
 2633 01e0 DBB2     		uxtb	r3, r3
 2634              	.LVL160:
 2635              	.LBB125:
 2636              	.LBB123:
 957:Generated_Source\PSoC5/USBUART_std.c ****     {
 2637              		.loc 1 957 0
 2638 01e2 087C     		ldrb	r0, [r1, #16]	@ zero_extendqisi2
 2639 01e4 9842     		cmp	r0, r3
 2640 01e6 7FF62AAF 		bls	.L206
 2641              	.LVL161:
 963:Generated_Source\PSoC5/USBUART_std.c ****     }
 2642              		.loc 1 963 0
 2643 01ea 01EBC303 		add	r3, r1, r3, lsl #3
 2644              	.LVL162:
 2645              	.LBE123:
 2646              	.LBE125:
 274:Generated_Source\PSoC5/USBUART_std.c ****                 {
 2647              		.loc 1 274 0
 2648 01ee 5B69     		ldr	r3, [r3, #20]
 2649 01f0 002B     		cmp	r3, #0
 2650 01f2 3FF424AF 		beq	.L206
 2651              	.LVL163:
 2652              	.L168:
 277:Generated_Source\PSoC5/USBUART_std.c ****                     {
 2653              		.loc 1 277 0
 2654 01f6 284B     		ldr	r3, .L226+8
 2655 01f8 1978     		ldrb	r1, [r3]	@ zero_extendqisi2
 2656 01fa 8A42     		cmp	r2, r1
 2657 01fc 3FF470AF 		beq	.L215
 280:Generated_Source\PSoC5/USBUART_std.c ****                         USBUART_Config(USBUART_TRUE);
 2658              		.loc 1 280 0
 2659 0200 0121     		movs	r1, #1
 2660 0202 2B4C     		ldr	r4, .L226+32
 281:Generated_Source\PSoC5/USBUART_std.c ****                     }
 2661              		.loc 1 281 0
 2662 0204 0846     		mov	r0, r1
 279:Generated_Source\PSoC5/USBUART_std.c ****                         USBUART_configurationChanged = USBUART_TRUE;
 2663              		.loc 1 279 0
 2664 0206 1A70     		strb	r2, [r3]
 280:Generated_Source\PSoC5/USBUART_std.c ****                         USBUART_Config(USBUART_TRUE);
 2665              		.loc 1 280 0
 2666 0208 2170     		strb	r1, [r4]
 281:Generated_Source\PSoC5/USBUART_std.c ****                     }
 2667              		.loc 1 281 0
 2668 020a FFF7FEFF 		bl	USBUART_Config
 2669              	.LVL164:
 2670 020e 67E7     		b	.L215
 2671              	.LVL165:
 2672              	.L151:
 244:Generated_Source\PSoC5/USBUART_std.c ****                 USBUART_currentTD.pData = (volatile uint8 *) &USBUART_interfaceSetting[USBUART_wInd
ARM GAS  C:\Users\ingan\AppData\Local\Temp\cc5yuDXv.s 			page 82


 2673              		.loc 1 244 0
 2674 0210 0122     		movs	r2, #1
 245:Generated_Source\PSoC5/USBUART_std.c ****                 requestHandled  = USBUART_InitControlRead();
 2675              		.loc 1 245 0
 2676 0212 1F4B     		ldr	r3, .L226
 2677              	.LVL166:
 244:Generated_Source\PSoC5/USBUART_std.c ****                 USBUART_currentTD.pData = (volatile uint8 *) &USBUART_interfaceSetting[USBUART_wInd
 2678              		.loc 1 244 0
 2679 0214 2280     		strh	r2, [r4]	@ movhi
 245:Generated_Source\PSoC5/USBUART_std.c ****                 requestHandled  = USBUART_InitControlRead();
 2680              		.loc 1 245 0
 2681 0216 1B79     		ldrb	r3, [r3, #4]	@ zero_extendqisi2
 2682 0218 224A     		ldr	r2, .L226+20
 2683 021a 1344     		add	r3, r3, r2
 2684 021c 6360     		str	r3, [r4, #4]
 380:Generated_Source\PSoC5/USBUART_std.c **** 
 2685              		.loc 1 380 0
 2686 021e BDE87040 		pop	{r4, r5, r6, lr}
 2687              		.cfi_remember_state
 2688              		.cfi_restore 14
 2689              		.cfi_restore 6
 2690              		.cfi_restore 5
 2691              		.cfi_restore 4
 2692              		.cfi_def_cfa_offset 0
 246:Generated_Source\PSoC5/USBUART_std.c ****                 break;
 2693              		.loc 1 246 0
 2694 0222 FFF7FEBF 		b	USBUART_InitControlRead
 2695              	.LVL167:
 2696              	.L149:
 2697              		.cfi_restore_state
 110:Generated_Source\PSoC5/USBUART_std.c ****                 {
 2698              		.loc 1 110 0
 2699 0226 1A4B     		ldr	r3, .L226
 2700              	.LVL168:
 2701 0228 DA78     		ldrb	r2, [r3, #3]	@ zero_extendqisi2
 2702 022a 012A     		cmp	r2, #1
 2703 022c 00F08B80 		beq	.L222
 118:Generated_Source\PSoC5/USBUART_std.c ****                 {
 2704              		.loc 1 118 0
 2705 0230 DA78     		ldrb	r2, [r3, #3]	@ zero_extendqisi2
 2706 0232 022A     		cmp	r2, #2
 2707 0234 00F0B580 		beq	.L223
 149:Generated_Source\PSoC5/USBUART_std.c ****                 {
 2708              		.loc 1 149 0
 2709 0238 DA78     		ldrb	r2, [r3, #3]	@ zero_extendqisi2
 2710 023a 032A     		cmp	r2, #3
 2711 023c 40F0AD80 		bne	.L156
 2712              	.LVL169:
 156:Generated_Source\PSoC5/USBUART_std.c ****                     {
 2713              		.loc 1 156 0
 2714 0240 9A78     		ldrb	r2, [r3, #2]	@ zero_extendqisi2
 2715 0242 002A     		cmp	r2, #0
 2716 0244 00F0D780 		beq	.L188
 2717 0248 1D4A     		ldr	r2, .L226+48
 2718 024a 1178     		ldrb	r1, [r2]	@ zero_extendqisi2
 2719 024c 59B1     		cbz	r1, .L157
 2720 024e 1946     		mov	r1, r3
ARM GAS  C:\Users\ingan\AppData\Local\Temp\cc5yuDXv.s 			page 83


 2721 0250 0023     		movs	r3, #0
 2722 0252 01E0     		b	.L158
 2723              	.LVL170:
 2724              	.L224:
 156:Generated_Source\PSoC5/USBUART_std.c ****                     {
 2725              		.loc 1 156 0 is_stmt 0 discriminator 1
 2726 0254 1078     		ldrb	r0, [r2]	@ zero_extendqisi2
 2727 0256 30B1     		cbz	r0, .L157
 2728              	.LVL171:
 2729              	.L158:
 159:Generated_Source\PSoC5/USBUART_std.c ****                         /* Move to next string descriptor */
 2730              		.loc 1 159 0 is_stmt 1
 2731 0258 1578     		ldrb	r5, [r2]	@ zero_extendqisi2
 2732              	.LVL172:
 162:Generated_Source\PSoC5/USBUART_std.c ****                     }
 2733              		.loc 1 162 0
 2734 025a 0133     		adds	r3, r3, #1
 2735              	.LVL173:
 156:Generated_Source\PSoC5/USBUART_std.c ****                     {
 2736              		.loc 1 156 0
 2737 025c 8878     		ldrb	r0, [r1, #2]	@ zero_extendqisi2
 162:Generated_Source\PSoC5/USBUART_std.c ****                     }
 2738              		.loc 1 162 0
 2739 025e DBB2     		uxtb	r3, r3
 156:Generated_Source\PSoC5/USBUART_std.c ****                     {
 2740              		.loc 1 156 0
 2741 0260 9842     		cmp	r0, r3
 161:Generated_Source\PSoC5/USBUART_std.c ****                         nStr++;
 2742              		.loc 1 161 0
 2743 0262 2A44     		add	r2, r2, r5
 2744              	.LVL174:
 156:Generated_Source\PSoC5/USBUART_std.c ****                     {
 2745              		.loc 1 156 0
 2746 0264 F6D8     		bhi	.L224
 2747              	.LVL175:
 2748              	.L157:
 176:Generated_Source\PSoC5/USBUART_std.c ****                         (USBUART_wValueLoReg == USBUART_DEVICE0_DESCR[USBUART_DEVICE_DESCR_SN_SHIFT
 2749              		.loc 1 176 0
 2750 0266 0A4B     		ldr	r3, .L226
 2751 0268 9978     		ldrb	r1, [r3, #2]	@ zero_extendqisi2
 2752 026a 29B1     		cbz	r1, .L159
 177:Generated_Source\PSoC5/USBUART_std.c ****                     {
 2753              		.loc 1 177 0 discriminator 1
 2754 026c 1549     		ldr	r1, .L226+52
 2755 026e 9B78     		ldrb	r3, [r3, #2]	@ zero_extendqisi2
 176:Generated_Source\PSoC5/USBUART_std.c ****                         (USBUART_wValueLoReg == USBUART_DEVICE0_DESCR[USBUART_DEVICE_DESCR_SN_SHIFT
 2756              		.loc 1 176 0 discriminator 1
 2757 0270 097C     		ldrb	r1, [r1, #16]	@ zero_extendqisi2
 2758 0272 9942     		cmp	r1, r3
 2759 0274 00F0BA80 		beq	.L225
 2760              	.L159:
 2761              	.LVL176:
 199:Generated_Source\PSoC5/USBUART_std.c ****                     {
 2762              		.loc 1 199 0
 2763 0278 1378     		ldrb	r3, [r2]	@ zero_extendqisi2
 2764 027a 002B     		cmp	r3, #0
 2765 027c 3FF4DFAE 		beq	.L206
ARM GAS  C:\Users\ingan\AppData\Local\Temp\cc5yuDXv.s 			page 84


 201:Generated_Source\PSoC5/USBUART_std.c ****                         USBUART_currentTD.pData = pStr;
 2766              		.loc 1 201 0
 2767 0280 1378     		ldrb	r3, [r2]	@ zero_extendqisi2
 2768 0282 2380     		strh	r3, [r4]	@ movhi
 202:Generated_Source\PSoC5/USBUART_std.c ****                         requestHandled  = USBUART_InitControlRead();
 2769              		.loc 1 202 0
 2770 0284 6260     		str	r2, [r4, #4]
 380:Generated_Source\PSoC5/USBUART_std.c **** 
 2771              		.loc 1 380 0
 2772 0286 BDE87040 		pop	{r4, r5, r6, lr}
 2773              		.cfi_remember_state
 2774              		.cfi_restore 14
 2775              		.cfi_restore 6
 2776              		.cfi_restore 5
 2777              		.cfi_restore 4
 2778              		.cfi_def_cfa_offset 0
 203:Generated_Source\PSoC5/USBUART_std.c ****                     }
 2779              		.loc 1 203 0
 2780 028a FFF7FEBF 		b	USBUART_InitControlRead
 2781              	.LVL177:
 2782              	.L227:
 2783 028e 00BF     		.align	2
 2784              	.L226:
 2785 0290 00600040 		.word	1073766400
 2786 0294 00000000 		.word	USBUART_currentTD
 2787 0298 00000000 		.word	USBUART_configuration
 2788 029c 00000000 		.word	USBUART_device
 2789 02a0 00000000 		.word	USBUART_TABLE
 2790 02a4 00000000 		.word	USBUART_interfaceSetting
 2791 02a8 00000000 		.word	USBUART_interfaceSettingLast
 2792 02ac 00000000 		.word	USBUART_interfaceNumber
 2793 02b0 00000000 		.word	USBUART_configurationChanged
 2794 02b4 00000000 		.word	USBUART_EP
 2795 02b8 FC5F0040 		.word	1073766396
 2796 02bc 00000000 		.word	USBUART_deviceAddress
 2797 02c0 00000000 		.word	USBUART_STRING_DESCRIPTORS
 2798 02c4 00000000 		.word	USBUART_DEVICE0_DESCR
 2799              	.LVL178:
 2800              	.L147:
 2801              		.cfi_restore_state
 214:Generated_Source\PSoC5/USBUART_std.c ****                 {
 2802              		.loc 1 214 0
 2803 02c8 13F00303 		ands	r3, r3, #3
 2804              	.LVL179:
 2805 02cc 25D0     		beq	.L160
 2806 02ce 022B     		cmp	r3, #2
 2807 02d0 7FF4B5AE 		bne	.L206
 218:Generated_Source\PSoC5/USBUART_std.c ****                         USBUART_tBuffer[1u]     = 0u;
 2808              		.loc 1 218 0
 2809 02d4 494A     		ldr	r2, .L228
 217:Generated_Source\PSoC5/USBUART_std.c ****                         USBUART_tBuffer[0u]     = USBUART_EP[USBUART_wIndexLoReg & USBUART_DIR_UNUS
 2810              		.loc 1 217 0
 2811 02d6 2380     		strh	r3, [r4]	@ movhi
 218:Generated_Source\PSoC5/USBUART_std.c ****                         USBUART_tBuffer[1u]     = 0u;
 2812              		.loc 1 218 0
 2813 02d8 1379     		ldrb	r3, [r2, #4]	@ zero_extendqisi2
 2814 02da 494A     		ldr	r2, .L228+4
ARM GAS  C:\Users\ingan\AppData\Local\Temp\cc5yuDXv.s 			page 85


 2815 02dc 03F07F03 		and	r3, r3, #127
 2816 02e0 03EB4303 		add	r3, r3, r3, lsl #1
 2817 02e4 02EB8303 		add	r3, r2, r3, lsl #2
 2818 02e8 9A78     		ldrb	r2, [r3, #2]	@ zero_extendqisi2
 2819 02ea 464B     		ldr	r3, .L228+8
 2820 02ec D2B2     		uxtb	r2, r2
 219:Generated_Source\PSoC5/USBUART_std.c ****                         USBUART_currentTD.pData = &USBUART_tBuffer[0u];
 2821              		.loc 1 219 0
 2822 02ee 0021     		movs	r1, #0
 218:Generated_Source\PSoC5/USBUART_std.c ****                         USBUART_tBuffer[1u]     = 0u;
 2823              		.loc 1 218 0
 2824 02f0 1A70     		strb	r2, [r3]
 219:Generated_Source\PSoC5/USBUART_std.c ****                         USBUART_currentTD.pData = &USBUART_tBuffer[0u];
 2825              		.loc 1 219 0
 2826 02f2 5970     		strb	r1, [r3, #1]
 220:Generated_Source\PSoC5/USBUART_std.c ****                         
 2827              		.loc 1 220 0
 2828 02f4 6360     		str	r3, [r4, #4]
 380:Generated_Source\PSoC5/USBUART_std.c **** 
 2829              		.loc 1 380 0
 2830 02f6 BDE87040 		pop	{r4, r5, r6, lr}
 2831              		.cfi_remember_state
 2832              		.cfi_restore 14
 2833              		.cfi_restore 6
 2834              		.cfi_restore 5
 2835              		.cfi_restore 4
 2836              		.cfi_def_cfa_offset 0
 222:Generated_Source\PSoC5/USBUART_std.c ****                         break;
 2837              		.loc 1 222 0
 2838 02fa FFF7FEBF 		b	USBUART_InitControlRead
 2839              	.LVL180:
 2840              	.L150:
 2841              		.cfi_restore_state
 239:Generated_Source\PSoC5/USBUART_std.c ****                 requestHandled  = USBUART_InitControlRead();
 2842              		.loc 1 239 0
 2843 02fe 424B     		ldr	r3, .L228+12
 2844              	.LVL181:
 238:Generated_Source\PSoC5/USBUART_std.c ****                 USBUART_currentTD.pData = (volatile uint8 *) &USBUART_configuration;
 2845              		.loc 1 238 0
 2846 0300 0122     		movs	r2, #1
 2847 0302 2280     		strh	r2, [r4]	@ movhi
 239:Generated_Source\PSoC5/USBUART_std.c ****                 requestHandled  = USBUART_InitControlRead();
 2848              		.loc 1 239 0
 2849 0304 6360     		str	r3, [r4, #4]
 380:Generated_Source\PSoC5/USBUART_std.c **** 
 2850              		.loc 1 380 0
 2851 0306 BDE87040 		pop	{r4, r5, r6, lr}
 2852              		.cfi_remember_state
 2853              		.cfi_restore 14
 2854              		.cfi_restore 6
 2855              		.cfi_restore 5
 2856              		.cfi_restore 4
 2857              		.cfi_def_cfa_offset 0
 240:Generated_Source\PSoC5/USBUART_std.c ****                 break;
 2858              		.loc 1 240 0
 2859 030a FFF7FEBF 		b	USBUART_InitControlRead
 2860              	.LVL182:
ARM GAS  C:\Users\ingan\AppData\Local\Temp\cc5yuDXv.s 			page 86


 2861              	.L170:
 2862              		.cfi_restore_state
 2863              	.LBB126:
 2864              	.LBB110:
1244:Generated_Source\PSoC5/USBUART_std.c **** 
 2865              		.loc 1 1244 0
 2866 030e 0023     		movs	r3, #0
 2867 0310 5B68     		ldr	r3, [r3, #4]
 2868 0312 FFDE     		.inst	0xdeff
 2869              	.LVL183:
 2870              	.L220:
 2871              	.LBE110:
 2872              	.LBE126:
 2873              	.LBB127:
 2874              	.LBB114:
 2875 0314 FFF7FEFF 		bl	USBUART_ConfigAltChanged.part.0
 2876              	.LVL184:
 2877 0318 E2E6     		b	.L215
 2878              	.L160:
 2879              	.LBE114:
 2880              	.LBE127:
 225:Generated_Source\PSoC5/USBUART_std.c ****                         USBUART_tBuffer[0u]     = USBUART_deviceStatus;
 2881              		.loc 1 225 0
 2882 031a 0221     		movs	r1, #2
 226:Generated_Source\PSoC5/USBUART_std.c ****                         USBUART_tBuffer[1u]     = 0u;
 2883              		.loc 1 226 0
 2884 031c 3B4A     		ldr	r2, .L228+16
 225:Generated_Source\PSoC5/USBUART_std.c ****                         USBUART_tBuffer[0u]     = USBUART_deviceStatus;
 2885              		.loc 1 225 0
 2886 031e 2180     		strh	r1, [r4]	@ movhi
 226:Generated_Source\PSoC5/USBUART_std.c ****                         USBUART_tBuffer[1u]     = 0u;
 2887              		.loc 1 226 0
 2888 0320 1178     		ldrb	r1, [r2]	@ zero_extendqisi2
 2889 0322 384A     		ldr	r2, .L228+8
 2890 0324 C9B2     		uxtb	r1, r1
 2891 0326 1170     		strb	r1, [r2]
 227:Generated_Source\PSoC5/USBUART_std.c ****                         USBUART_currentTD.pData = &USBUART_tBuffer[0u];
 2892              		.loc 1 227 0
 2893 0328 5370     		strb	r3, [r2, #1]
 228:Generated_Source\PSoC5/USBUART_std.c ****                         
 2894              		.loc 1 228 0
 2895 032a 6260     		str	r2, [r4, #4]
 380:Generated_Source\PSoC5/USBUART_std.c **** 
 2896              		.loc 1 380 0
 2897 032c BDE87040 		pop	{r4, r5, r6, lr}
 2898              		.cfi_remember_state
 2899              		.cfi_restore 14
 2900              		.cfi_restore 6
 2901              		.cfi_restore 5
 2902              		.cfi_restore 4
 2903              		.cfi_def_cfa_offset 0
 230:Generated_Source\PSoC5/USBUART_std.c ****                         break;
 2904              		.loc 1 230 0
 2905 0330 FFF7FEBF 		b	USBUART_InitControlRead
 2906              	.LVL185:
 2907              	.L219:
 2908              		.cfi_restore_state
ARM GAS  C:\Users\ingan\AppData\Local\Temp\cc5yuDXv.s 			page 87


 364:Generated_Source\PSoC5/USBUART_std.c ****                             requestHandled = USBUART_InitNoDataControlTransfer();
 2909              		.loc 1 364 0
 2910 0334 9878     		ldrb	r0, [r3, #2]	@ zero_extendqisi2
 2911 0336 1B79     		ldrb	r3, [r3, #4]	@ zero_extendqisi2
 2912 0338 3549     		ldr	r1, .L228+20
 2913 033a DBB2     		uxtb	r3, r3
 2914 033c CA5C     		ldrb	r2, [r1, r3]	@ zero_extendqisi2
 2915 033e 22EA0002 		bic	r2, r2, r0
 2916 0342 CA54     		strb	r2, [r1, r3]
 2917 0344 CCE6     		b	.L215
 2918              	.L222:
 2919              	.LBB128:
 2920              	.LBB129:
1015:Generated_Source\PSoC5/USBUART_std.c **** }
 2921              		.loc 1 1015 0
 2922 0346 334A     		ldr	r2, .L228+24
 2923 0348 334B     		ldr	r3, .L228+28
 2924 034a 1178     		ldrb	r1, [r2]	@ zero_extendqisi2
 2925              	.LBE129:
 2926              	.LBE128:
 114:Generated_Source\PSoC5/USBUART_std.c ****                     
 2927              		.loc 1 114 0
 2928 034c 1222     		movs	r2, #18
 2929              	.LBB131:
 2930              	.LBB130:
1015:Generated_Source\PSoC5/USBUART_std.c **** }
 2931              		.loc 1 1015 0
 2932 034e 03EBC103 		add	r3, r3, r1, lsl #3
 2933              	.LBE130:
 2934              	.LBE131:
 113:Generated_Source\PSoC5/USBUART_std.c ****                     USBUART_currentTD.count = USBUART_DEVICE_DESCR_LENGTH;
 2935              		.loc 1 113 0
 2936 0352 5B68     		ldr	r3, [r3, #4]
 2937 0354 5B68     		ldr	r3, [r3, #4]
 2938 0356 6360     		str	r3, [r4, #4]
 114:Generated_Source\PSoC5/USBUART_std.c ****                     
 2939              		.loc 1 114 0
 2940 0358 2280     		strh	r2, [r4]	@ movhi
 380:Generated_Source\PSoC5/USBUART_std.c **** 
 2941              		.loc 1 380 0
 2942 035a BDE87040 		pop	{r4, r5, r6, lr}
 2943              		.cfi_remember_state
 2944              		.cfi_restore 14
 2945              		.cfi_restore 6
 2946              		.cfi_restore 5
 2947              		.cfi_restore 4
 2948              		.cfi_def_cfa_offset 0
 116:Generated_Source\PSoC5/USBUART_std.c ****                 }
 2949              		.loc 1 116 0
 2950 035e FFF7FEBF 		b	USBUART_InitControlRead
 2951              	.LVL186:
 2952              	.L176:
 2953              		.cfi_restore_state
 322:Generated_Source\PSoC5/USBUART_std.c ****                         {
 2954              		.loc 1 322 0
 2955 0362 264B     		ldr	r3, .L228
 2956 0364 9B78     		ldrb	r3, [r3, #2]	@ zero_extendqisi2
ARM GAS  C:\Users\ingan\AppData\Local\Temp\cc5yuDXv.s 			page 88


 2957 0366 012B     		cmp	r3, #1
 2958 0368 7FF469AE 		bne	.L206
 324:Generated_Source\PSoC5/USBUART_std.c ****                             requestHandled = USBUART_InitNoDataControlTransfer();
 2959              		.loc 1 324 0
 2960 036c 274A     		ldr	r2, .L228+16
 2961 036e 1378     		ldrb	r3, [r2]	@ zero_extendqisi2
 2962 0370 03F0FD03 		and	r3, r3, #253
 2963 0374 1370     		strb	r3, [r2]
 380:Generated_Source\PSoC5/USBUART_std.c **** 
 2964              		.loc 1 380 0
 2965 0376 BDE87040 		pop	{r4, r5, r6, lr}
 2966              		.cfi_remember_state
 2967              		.cfi_restore 14
 2968              		.cfi_restore 6
 2969              		.cfi_restore 5
 2970              		.cfi_restore 4
 2971              		.cfi_def_cfa_offset 0
 325:Generated_Source\PSoC5/USBUART_std.c ****                         }
 2972              		.loc 1 325 0
 2973 037a FFF7FEBF 		b	USBUART_InitNoDataControlTransfer
 2974              	.LVL187:
 2975              	.L183:
 2976              		.cfi_restore_state
 353:Generated_Source\PSoC5/USBUART_std.c ****                         {
 2977              		.loc 1 353 0
 2978 037e 1F4B     		ldr	r3, .L228
 2979 0380 9B78     		ldrb	r3, [r3, #2]	@ zero_extendqisi2
 2980 0382 012B     		cmp	r3, #1
 2981 0384 7FF45BAE 		bne	.L206
 355:Generated_Source\PSoC5/USBUART_std.c ****                             requestHandled = USBUART_InitNoDataControlTransfer();
 2982              		.loc 1 355 0
 2983 0388 204A     		ldr	r2, .L228+16
 2984 038a 1378     		ldrb	r3, [r2]	@ zero_extendqisi2
 2985 038c 43F00203 		orr	r3, r3, #2
 2986 0390 1370     		strb	r3, [r2]
 380:Generated_Source\PSoC5/USBUART_std.c **** 
 2987              		.loc 1 380 0
 2988 0392 BDE87040 		pop	{r4, r5, r6, lr}
 2989              		.cfi_remember_state
 2990              		.cfi_restore 14
 2991              		.cfi_restore 6
 2992              		.cfi_restore 5
 2993              		.cfi_restore 4
 2994              		.cfi_def_cfa_offset 0
 356:Generated_Source\PSoC5/USBUART_std.c ****                         }
 2995              		.loc 1 356 0
 2996 0396 FFF7FEBF 		b	USBUART_InitNoDataControlTransfer
 2997              	.LVL188:
 2998              	.L156:
 2999              		.cfi_restore_state
 380:Generated_Source\PSoC5/USBUART_std.c **** 
 3000              		.loc 1 380 0
 3001 039a BDE87040 		pop	{r4, r5, r6, lr}
 3002              		.cfi_remember_state
 3003              		.cfi_restore 14
 3004              		.cfi_restore 6
 3005              		.cfi_restore 5
ARM GAS  C:\Users\ingan\AppData\Local\Temp\cc5yuDXv.s 			page 89


 3006              		.cfi_restore 4
 3007              		.cfi_def_cfa_offset 0
 209:Generated_Source\PSoC5/USBUART_std.c ****                 }
 3008              		.loc 1 209 0
 3009 039e FFF7FEBF 		b	USBUART_DispatchClassRqst
 3010              	.LVL189:
 3011              	.L223:
 3012              		.cfi_restore_state
 3013              	.LBB132:
 3014              	.LBB133:
 948:Generated_Source\PSoC5/USBUART_std.c **** 
 3015              		.loc 1 948 0
 3016 03a2 1C49     		ldr	r1, .L228+24
 3017              	.LBE133:
 3018              	.LBE132:
 120:Generated_Source\PSoC5/USBUART_std.c ****                     
 3019              		.loc 1 120 0
 3020 03a4 9B78     		ldrb	r3, [r3, #2]	@ zero_extendqisi2
 3021              	.LBB136:
 3022              	.LBB134:
 948:Generated_Source\PSoC5/USBUART_std.c **** 
 3023              		.loc 1 948 0
 3024 03a6 1C4A     		ldr	r2, .L228+28
 3025 03a8 0978     		ldrb	r1, [r1]	@ zero_extendqisi2
 3026              	.LBE134:
 3027              	.LBE136:
 120:Generated_Source\PSoC5/USBUART_std.c ****                     
 3028              		.loc 1 120 0
 3029 03aa DBB2     		uxtb	r3, r3
 3030              	.LVL190:
 3031              	.LBB137:
 3032              	.LBB135:
 948:Generated_Source\PSoC5/USBUART_std.c **** 
 3033              		.loc 1 948 0
 3034 03ac 02EBC102 		add	r2, r2, r1, lsl #3
 3035 03b0 5268     		ldr	r2, [r2, #4]
 3036              	.LVL191:
 957:Generated_Source\PSoC5/USBUART_std.c ****     {
 3037              		.loc 1 957 0
 3038 03b2 117C     		ldrb	r1, [r2, #16]	@ zero_extendqisi2
 3039 03b4 9942     		cmp	r1, r3
 3040 03b6 7FF642AE 		bls	.L206
 963:Generated_Source\PSoC5/USBUART_std.c ****     }
 3041              		.loc 1 963 0
 3042 03ba 02EBC303 		add	r3, r2, r3, lsl #3
 3043              	.LVL192:
 3044 03be 5B69     		ldr	r3, [r3, #20]
 3045              	.LVL193:
 3046              	.LBE135:
 3047              	.LBE137:
 123:Generated_Source\PSoC5/USBUART_std.c ****                     {
 3048              		.loc 1 123 0
 3049 03c0 002B     		cmp	r3, #0
 3050 03c2 3FF43CAE 		beq	.L206
 125:Generated_Source\PSoC5/USBUART_std.c ****                         USBUART_currentTD.count = (uint16)((uint16)(USBUART_currentTD.pData)[USBUAR
 3051              		.loc 1 125 0
 3052 03c6 5B68     		ldr	r3, [r3, #4]
ARM GAS  C:\Users\ingan\AppData\Local\Temp\cc5yuDXv.s 			page 90


 3053 03c8 6360     		str	r3, [r4, #4]
 126:Generated_Source\PSoC5/USBUART_std.c ****                                                                             (USBUART_currentTD.pDat
 3054              		.loc 1 126 0
 3055 03ca 6368     		ldr	r3, [r4, #4]
 3056 03cc DA78     		ldrb	r2, [r3, #3]	@ zero_extendqisi2
 127:Generated_Source\PSoC5/USBUART_std.c ****                         requestHandled  = USBUART_InitControlRead();
 3057              		.loc 1 127 0
 3058 03ce 6368     		ldr	r3, [r4, #4]
 3059 03d0 9B78     		ldrb	r3, [r3, #2]	@ zero_extendqisi2
 126:Generated_Source\PSoC5/USBUART_std.c ****                                                                             (USBUART_currentTD.pDat
 3060              		.loc 1 126 0
 3061 03d2 43EA0223 		orr	r3, r3, r2, lsl #8
 3062 03d6 2380     		strh	r3, [r4]	@ movhi
 380:Generated_Source\PSoC5/USBUART_std.c **** 
 3063              		.loc 1 380 0
 3064 03d8 BDE87040 		pop	{r4, r5, r6, lr}
 3065              		.cfi_remember_state
 3066              		.cfi_restore 14
 3067              		.cfi_restore 6
 3068              		.cfi_restore 5
 3069              		.cfi_restore 4
 3070              		.cfi_def_cfa_offset 0
 128:Generated_Source\PSoC5/USBUART_std.c ****                     }
 3071              		.loc 1 128 0
 3072 03dc FFF7FEBF 		b	USBUART_InitControlRead
 3073              	.LVL194:
 3074              	.L221:
 3075              		.cfi_restore_state
 3076              	.LBB138:
 3077              	.LBB117:
1187:Generated_Source\PSoC5/USBUART_std.c ****             {       
 3078              		.loc 1 1187 0
 3079 03e0 012B     		cmp	r3, #1
1190:Generated_Source\PSoC5/USBUART_std.c ****             }
 3080              		.loc 1 1190 0
 3081 03e2 0CBF     		ite	eq
 3082 03e4 0C23     		moveq	r3, #12
1194:Generated_Source\PSoC5/USBUART_std.c ****             }
 3083              		.loc 1 1194 0
 3084 03e6 0D23     		movne	r3, #13
 3085 03e8 8B70     		strb	r3, [r1, #2]
 3086 03ea 79E6     		b	.L215
 3087              	.LVL195:
 3088              	.L225:
 3089              	.LBE117:
 3090              	.LBE138:
 181:Generated_Source\PSoC5/USBUART_std.c ****                         pStr = USBUART_idSerialNumberStringDescriptor;
 3091              		.loc 1 181 0
 3092 03ec 0B48     		ldr	r0, .L228+32
 3093 03ee FFF7FEFF 		bl	USBUART_ReadDieID
 3094              	.LVL196:
 182:Generated_Source\PSoC5/USBUART_std.c ****                     #elif defined(USBUART_ENABLE_FWSN_STRING)
 3095              		.loc 1 182 0
 3096 03f2 0A4A     		ldr	r2, .L228+32
 3097 03f4 40E7     		b	.L159
 3098              	.LVL197:
 3099              	.L188:
ARM GAS  C:\Users\ingan\AppData\Local\Temp\cc5yuDXv.s 			page 91


 156:Generated_Source\PSoC5/USBUART_std.c ****                     {
 3100              		.loc 1 156 0
 3101 03f6 0A4A     		ldr	r2, .L228+36
 3102 03f8 35E7     		b	.L157
 3103              	.L229:
 3104 03fa 00BF     		.align	2
 3105              	.L228:
 3106 03fc 00600040 		.word	1073766400
 3107 0400 00000000 		.word	USBUART_EP
 3108 0404 00000000 		.word	.LANCHOR0
 3109 0408 00000000 		.word	USBUART_configuration
 3110 040c 00000000 		.word	USBUART_deviceStatus
 3111 0410 00000000 		.word	USBUART_interfaceStatus
 3112 0414 00000000 		.word	USBUART_device
 3113 0418 00000000 		.word	USBUART_TABLE
 3114 041c 00000000 		.word	USBUART_idSerialNumberStringDescriptor
 3115 0420 00000000 		.word	USBUART_STRING_DESCRIPTORS
 3116              		.cfi_endproc
 3117              	.LFE0:
 3118              		.size	USBUART_HandleStandardRqst, .-USBUART_HandleStandardRqst
 3119              		.section	.text.USBUART_ConfigAltChanged,"ax",%progbits
 3120              		.align	2
 3121              		.global	USBUART_ConfigAltChanged
 3122              		.thumb
 3123              		.thumb_func
 3124              		.type	USBUART_ConfigAltChanged, %function
 3125              	USBUART_ConfigAltChanged:
 3126              	.LFB5:
 806:Generated_Source\PSoC5/USBUART_std.c ****     uint8 ep;
 3127              		.loc 1 806 0
 3128              		.cfi_startproc
 3129              		@ args = 0, pretend = 0, frame = 0
 3130              		@ frame_needed = 0, uses_anonymous_args = 0
 3131              		@ link register save eliminated.
 817:Generated_Source\PSoC5/USBUART_std.c ****     {
 3132              		.loc 1 817 0
 3133 0000 024B     		ldr	r3, .L232
 3134 0002 1B78     		ldrb	r3, [r3]	@ zero_extendqisi2
 3135 0004 0BB1     		cbz	r3, .L230
 3136 0006 FFF7FEBF 		b	USBUART_ConfigAltChanged.part.0
 3137              	.LVL198:
 3138              	.L230:
 3139 000a 7047     		bx	lr
 3140              	.L233:
 3141              		.align	2
 3142              	.L232:
 3143 000c 00000000 		.word	USBUART_configuration
 3144              		.cfi_endproc
 3145              	.LFE5:
 3146              		.size	USBUART_ConfigAltChanged, .-USBUART_ConfigAltChanged
 3147              		.section	.text.USBUART_GetConfigTablePtr,"ax",%progbits
 3148              		.align	2
 3149              		.global	USBUART_GetConfigTablePtr
 3150              		.thumb
 3151              		.thumb_func
 3152              		.type	USBUART_GetConfigTablePtr, %function
 3153              	USBUART_GetConfigTablePtr:
ARM GAS  C:\Users\ingan\AppData\Local\Temp\cc5yuDXv.s 			page 92


 3154              	.LFB6:
 944:Generated_Source\PSoC5/USBUART_std.c ****     /* Device Table */
 3155              		.loc 1 944 0
 3156              		.cfi_startproc
 3157              		@ args = 0, pretend = 0, frame = 0
 3158              		@ frame_needed = 0, uses_anonymous_args = 0
 3159              		@ link register save eliminated.
 3160              	.LVL199:
 948:Generated_Source\PSoC5/USBUART_std.c **** 
 3161              		.loc 1 948 0
 3162 0000 064B     		ldr	r3, .L237
 3163 0002 074A     		ldr	r2, .L237+4
 3164 0004 1B78     		ldrb	r3, [r3]	@ zero_extendqisi2
 3165 0006 02EBC302 		add	r2, r2, r3, lsl #3
 3166 000a 5368     		ldr	r3, [r2, #4]
 3167              	.LVL200:
 957:Generated_Source\PSoC5/USBUART_std.c ****     {
 3168              		.loc 1 957 0
 3169 000c 1A7C     		ldrb	r2, [r3, #16]	@ zero_extendqisi2
 3170 000e 8242     		cmp	r2, r0
 963:Generated_Source\PSoC5/USBUART_std.c ****     }
 3171              		.loc 1 963 0
 3172 0010 86BF     		itte	hi
 3173 0012 03EBC003 		addhi	r3, r3, r0, lsl #3
 3174              	.LVL201:
 3175 0016 5869     		ldrhi	r0, [r3, #20]
 3176              	.LVL202:
 959:Generated_Source\PSoC5/USBUART_std.c ****     }
 3177              		.loc 1 959 0
 3178 0018 0020     		movls	r0, #0
 3179              	.LVL203:
 967:Generated_Source\PSoC5/USBUART_std.c **** 
 3180              		.loc 1 967 0
 3181 001a 7047     		bx	lr
 3182              	.L238:
 3183              		.align	2
 3184              	.L237:
 3185 001c 00000000 		.word	USBUART_device
 3186 0020 00000000 		.word	USBUART_TABLE
 3187              		.cfi_endproc
 3188              	.LFE6:
 3189              		.size	USBUART_GetConfigTablePtr, .-USBUART_GetConfigTablePtr
 3190              		.section	.text.USBUART_GetDeviceTablePtr,"ax",%progbits
 3191              		.align	2
 3192              		.global	USBUART_GetDeviceTablePtr
 3193              		.thumb
 3194              		.thumb_func
 3195              		.type	USBUART_GetDeviceTablePtr, %function
 3196              	USBUART_GetDeviceTablePtr:
 3197              	.LFB7:
1013:Generated_Source\PSoC5/USBUART_std.c ****     /* Device Table */
 3198              		.loc 1 1013 0
 3199              		.cfi_startproc
 3200              		@ args = 0, pretend = 0, frame = 0
 3201              		@ frame_needed = 0, uses_anonymous_args = 0
 3202              		@ link register save eliminated.
1015:Generated_Source\PSoC5/USBUART_std.c **** }
ARM GAS  C:\Users\ingan\AppData\Local\Temp\cc5yuDXv.s 			page 93


 3203              		.loc 1 1015 0
 3204 0000 034A     		ldr	r2, .L240
 3205 0002 044B     		ldr	r3, .L240+4
 3206 0004 1278     		ldrb	r2, [r2]	@ zero_extendqisi2
 3207 0006 03EBC203 		add	r3, r3, r2, lsl #3
1016:Generated_Source\PSoC5/USBUART_std.c **** 
 3208              		.loc 1 1016 0
 3209 000a 5868     		ldr	r0, [r3, #4]
 3210 000c 7047     		bx	lr
 3211              	.L241:
 3212 000e 00BF     		.align	2
 3213              	.L240:
 3214 0010 00000000 		.word	USBUART_device
 3215 0014 00000000 		.word	USBUART_TABLE
 3216              		.cfi_endproc
 3217              	.LFE7:
 3218              		.size	USBUART_GetDeviceTablePtr, .-USBUART_GetDeviceTablePtr
 3219              		.section	.text.USBUART_GetInterfaceClassTablePtr,"ax",%progbits
 3220              		.align	2
 3221              		.global	USBUART_GetInterfaceClassTablePtr
 3222              		.thumb
 3223              		.thumb_func
 3224              		.type	USBUART_GetInterfaceClassTablePtr, %function
 3225              	USBUART_GetInterfaceClassTablePtr:
 3226              	.LFB8:
1032:Generated_Source\PSoC5/USBUART_std.c ****     const T_USBUART_LUT CYCODE *pTmp;
 3227              		.loc 1 1032 0
 3228              		.cfi_startproc
 3229              		@ args = 0, pretend = 0, frame = 0
 3230              		@ frame_needed = 0, uses_anonymous_args = 0
 3231              		@ link register save eliminated.
1037:Generated_Source\PSoC5/USBUART_std.c ****     if (pTmp != NULL)
 3232              		.loc 1 1037 0
 3233 0000 0D4B     		ldr	r3, .L246
 3234              	.LBB139:
 3235              	.LBB140:
 948:Generated_Source\PSoC5/USBUART_std.c **** 
 3236              		.loc 1 948 0
 3237 0002 0E49     		ldr	r1, .L246+4
 3238              	.LBE140:
 3239              	.LBE139:
1037:Generated_Source\PSoC5/USBUART_std.c ****     if (pTmp != NULL)
 3240              		.loc 1 1037 0
 3241 0004 1B78     		ldrb	r3, [r3]	@ zero_extendqisi2
 3242              	.LBB144:
 3243              	.LBB141:
 948:Generated_Source\PSoC5/USBUART_std.c **** 
 3244              		.loc 1 948 0
 3245 0006 0E4A     		ldr	r2, .L246+8
 3246 0008 0978     		ldrb	r1, [r1]	@ zero_extendqisi2
 3247              	.LBE141:
 3248              	.LBE144:
1037:Generated_Source\PSoC5/USBUART_std.c ****     if (pTmp != NULL)
 3249              		.loc 1 1037 0
 3250 000a 013B     		subs	r3, r3, #1
 3251              	.LBB145:
 3252              	.LBB142:
ARM GAS  C:\Users\ingan\AppData\Local\Temp\cc5yuDXv.s 			page 94


 948:Generated_Source\PSoC5/USBUART_std.c **** 
 3253              		.loc 1 948 0
 3254 000c 02EBC102 		add	r2, r2, r1, lsl #3
 3255 0010 5268     		ldr	r2, [r2, #4]
 3256              	.LBE142:
 3257              	.LBE145:
1037:Generated_Source\PSoC5/USBUART_std.c ****     if (pTmp != NULL)
 3258              		.loc 1 1037 0
 3259 0012 DBB2     		uxtb	r3, r3
 3260              	.LVL204:
 3261              	.LBB146:
 3262              	.LBB143:
 957:Generated_Source\PSoC5/USBUART_std.c ****     {
 3263              		.loc 1 957 0
 3264 0014 117C     		ldrb	r1, [r2, #16]	@ zero_extendqisi2
 3265 0016 9942     		cmp	r1, r3
 3266 0018 09D9     		bls	.L244
 963:Generated_Source\PSoC5/USBUART_std.c ****     }
 3267              		.loc 1 963 0
 3268 001a 02EBC303 		add	r3, r2, r3, lsl #3
 3269              	.LVL205:
 3270 001e 5B69     		ldr	r3, [r3, #20]
 3271              	.LVL206:
 3272              	.LBE143:
 3273              	.LBE146:
1038:Generated_Source\PSoC5/USBUART_std.c ****     {
 3274              		.loc 1 1038 0
 3275 0020 3BB1     		cbz	r3, .L245
 3276              	.LVL207:
1040:Generated_Source\PSoC5/USBUART_std.c ****         /* Third entry in the LUT starts the Interface Table pointers */
 3277              		.loc 1 1040 0
 3278 0022 5A68     		ldr	r2, [r3, #4]
1043:Generated_Source\PSoC5/USBUART_std.c ****         pInterfaceClass = (const uint8 CYCODE *) pTmp->p_list;
 3279              		.loc 1 1043 0
 3280 0024 1279     		ldrb	r2, [r2, #4]	@ zero_extendqisi2
 3281              	.LVL208:
1044:Generated_Source\PSoC5/USBUART_std.c ****     }
 3282              		.loc 1 1044 0
 3283 0026 03EBC203 		add	r3, r3, r2, lsl #3
 3284              	.LVL209:
 3285 002a 5869     		ldr	r0, [r3, #20]
 3286              	.LVL210:
 3287 002c 7047     		bx	lr
 3288              	.LVL211:
 3289              	.L244:
1048:Generated_Source\PSoC5/USBUART_std.c ****     }
 3290              		.loc 1 1048 0
 3291 002e 0020     		movs	r0, #0
 3292 0030 7047     		bx	lr
 3293              	.LVL212:
 3294              	.L245:
 3295 0032 1846     		mov	r0, r3
 3296              	.LVL213:
1052:Generated_Source\PSoC5/USBUART_std.c **** 
 3297              		.loc 1 1052 0
 3298 0034 7047     		bx	lr
 3299              	.L247:
ARM GAS  C:\Users\ingan\AppData\Local\Temp\cc5yuDXv.s 			page 95


 3300 0036 00BF     		.align	2
 3301              	.L246:
 3302 0038 00000000 		.word	USBUART_configuration
 3303 003c 00000000 		.word	USBUART_device
 3304 0040 00000000 		.word	USBUART_TABLE
 3305              		.cfi_endproc
 3306              	.LFE8:
 3307              		.size	USBUART_GetInterfaceClassTablePtr, .-USBUART_GetInterfaceClassTablePtr
 3308              		.section	.text.USBUART_TerminateEP,"ax",%progbits
 3309              		.align	2
 3310              		.global	USBUART_TerminateEP
 3311              		.thumb
 3312              		.thumb_func
 3313              		.type	USBUART_TerminateEP, %function
 3314              	USBUART_TerminateEP:
 3315              	.LFB9:
1073:Generated_Source\PSoC5/USBUART_std.c ****     /* Get endpoint number */
 3316              		.loc 1 1073 0
 3317              		.cfi_startproc
 3318              		@ args = 0, pretend = 0, frame = 0
 3319              		@ frame_needed = 0, uses_anonymous_args = 0
 3320              		@ link register save eliminated.
 3321              	.LVL214:
1075:Generated_Source\PSoC5/USBUART_std.c **** 
 3322              		.loc 1 1075 0
 3323 0000 00F07F00 		and	r0, r0, #127
 3324              	.LVL215:
1077:Generated_Source\PSoC5/USBUART_std.c ****     {
 3325              		.loc 1 1077 0
 3326 0004 431E     		subs	r3, r0, #1
 3327 0006 072B     		cmp	r3, #7
 3328 0008 19D8     		bhi	.L253
1073:Generated_Source\PSoC5/USBUART_std.c ****     /* Get endpoint number */
 3329              		.loc 1 1073 0
 3330 000a 10B4     		push	{r4}
 3331              		.cfi_def_cfa_offset 4
 3332              		.cfi_offset 4, -4
1080:Generated_Source\PSoC5/USBUART_std.c **** 
 3333              		.loc 1 1080 0
 3334 000c 0C4B     		ldr	r3, .L254
 3335 000e 00EB4002 		add	r2, r0, r0, lsl #1
 3336 0012 03EB8203 		add	r3, r3, r2, lsl #2
 3337 0016 9A78     		ldrb	r2, [r3, #2]	@ zero_extendqisi2
1083:Generated_Source\PSoC5/USBUART_std.c ****         USBUART_EP[epNumber].apiEpState = USBUART_NO_EVENT_ALLOWED;
 3338              		.loc 1 1083 0
 3339 0018 0024     		movs	r4, #0
1080:Generated_Source\PSoC5/USBUART_std.c **** 
 3340              		.loc 1 1080 0
 3341 001a 42F00102 		orr	r2, r2, #1
1084:Generated_Source\PSoC5/USBUART_std.c **** 
 3342              		.loc 1 1084 0
 3343 001e 0221     		movs	r1, #2
1080:Generated_Source\PSoC5/USBUART_std.c **** 
 3344              		.loc 1 1080 0
 3345 0020 9A70     		strb	r2, [r3, #2]
1083:Generated_Source\PSoC5/USBUART_std.c ****         USBUART_EP[epNumber].apiEpState = USBUART_NO_EVENT_ALLOWED;
 3346              		.loc 1 1083 0
ARM GAS  C:\Users\ingan\AppData\Local\Temp\cc5yuDXv.s 			page 96


 3347 0022 DC70     		strb	r4, [r3, #3]
1084:Generated_Source\PSoC5/USBUART_std.c **** 
 3348              		.loc 1 1084 0
 3349 0024 5970     		strb	r1, [r3, #1]
1086:Generated_Source\PSoC5/USBUART_std.c ****         {   
 3350              		.loc 1 1086 0
 3351 0026 1B79     		ldrb	r3, [r3, #4]	@ zero_extendqisi2
1089:Generated_Source\PSoC5/USBUART_std.c ****         }
 3352              		.loc 1 1089 0
 3353 0028 0001     		lsls	r0, r0, #4
 3354              	.LVL216:
1086:Generated_Source\PSoC5/USBUART_std.c ****         {   
 3355              		.loc 1 1086 0
 3356 002a 13F0800F 		tst	r3, #128
1089:Generated_Source\PSoC5/USBUART_std.c ****         }
 3357              		.loc 1 1089 0
 3358 002e 054B     		ldr	r3, .L254+4
 3359 0030 18BF     		it	ne
 3360 0032 0C22     		movne	r2, #12
 3361 0034 0344     		add	r3, r3, r0
1094:Generated_Source\PSoC5/USBUART_std.c ****         }
 3362              		.loc 1 1094 0
 3363 0036 08BF     		it	eq
 3364 0038 0822     		moveq	r2, #8
 3365 003a 9A70     		strb	r2, [r3, #2]
1097:Generated_Source\PSoC5/USBUART_std.c **** 
 3366              		.loc 1 1097 0
 3367 003c 10BC     		pop	{r4}
 3368              		.cfi_restore 4
 3369              		.cfi_def_cfa_offset 0
 3370              	.L253:
 3371 003e 7047     		bx	lr
 3372              	.L255:
 3373              		.align	2
 3374              	.L254:
 3375 0040 00000000 		.word	USBUART_EP
 3376 0044 FC5F0040 		.word	1073766396
 3377              		.cfi_endproc
 3378              	.LFE9:
 3379              		.size	USBUART_TerminateEP, .-USBUART_TerminateEP
 3380              		.section	.text.USBUART_SetEndpointHalt,"ax",%progbits
 3381              		.align	2
 3382              		.global	USBUART_SetEndpointHalt
 3383              		.thumb
 3384              		.thumb_func
 3385              		.type	USBUART_SetEndpointHalt, %function
 3386              	USBUART_SetEndpointHalt:
 3387              	.LFB10:
1114:Generated_Source\PSoC5/USBUART_std.c ****     uint8 requestHandled = USBUART_FALSE;
 3388              		.loc 1 1114 0
 3389              		.cfi_startproc
 3390              		@ args = 0, pretend = 0, frame = 0
 3391              		@ frame_needed = 0, uses_anonymous_args = 0
 3392              		@ link register save eliminated.
 3393              	.LVL217:
1119:Generated_Source\PSoC5/USBUART_std.c **** 
 3394              		.loc 1 1119 0
ARM GAS  C:\Users\ingan\AppData\Local\Temp\cc5yuDXv.s 			page 97


 3395 0000 114B     		ldr	r3, .L260
 3396 0002 1B79     		ldrb	r3, [r3, #4]	@ zero_extendqisi2
 3397 0004 03F07F03 		and	r3, r3, #127
 3398              	.LVL218:
1121:Generated_Source\PSoC5/USBUART_std.c ****     {
 3399              		.loc 1 1121 0
 3400 0008 5A1E     		subs	r2, r3, #1
 3401 000a 072A     		cmp	r2, #7
 3402 000c 1AD8     		bhi	.L257
1124:Generated_Source\PSoC5/USBUART_std.c **** 
 3403              		.loc 1 1124 0
 3404 000e 0F4A     		ldr	r2, .L260+4
 3405 0010 03EB4301 		add	r1, r3, r3, lsl #1
 3406 0014 02EB8102 		add	r2, r2, r1, lsl #2
 3407 0018 9178     		ldrb	r1, [r2, #2]	@ zero_extendqisi2
1127:Generated_Source\PSoC5/USBUART_std.c ****         USBUART_EP[ep].apiEpState |= USBUART_NO_EVENT_ALLOWED;
 3408              		.loc 1 1127 0
 3409 001a 0020     		movs	r0, #0
1124:Generated_Source\PSoC5/USBUART_std.c **** 
 3410              		.loc 1 1124 0
 3411 001c 41F00101 		orr	r1, r1, #1
 3412 0020 9170     		strb	r1, [r2, #2]
1127:Generated_Source\PSoC5/USBUART_std.c ****         USBUART_EP[ep].apiEpState |= USBUART_NO_EVENT_ALLOWED;
 3413              		.loc 1 1127 0
 3414 0022 D070     		strb	r0, [r2, #3]
1128:Generated_Source\PSoC5/USBUART_std.c **** 
 3415              		.loc 1 1128 0
 3416 0024 5178     		ldrb	r1, [r2, #1]	@ zero_extendqisi2
1133:Generated_Source\PSoC5/USBUART_std.c ****                                                             USBUART_MODE_ACK_IN);
 3417              		.loc 1 1133 0
 3418 0026 1B01     		lsls	r3, r3, #4
 3419              	.LVL219:
1128:Generated_Source\PSoC5/USBUART_std.c **** 
 3420              		.loc 1 1128 0
 3421 0028 41F00201 		orr	r1, r1, #2
 3422 002c 5170     		strb	r1, [r2, #1]
1130:Generated_Source\PSoC5/USBUART_std.c ****         {
 3423              		.loc 1 1130 0
 3424 002e 1279     		ldrb	r2, [r2, #4]	@ zero_extendqisi2
 3425 0030 12F0800F 		tst	r2, #128
1133:Generated_Source\PSoC5/USBUART_std.c ****                                                             USBUART_MODE_ACK_IN);
 3426              		.loc 1 1133 0
 3427 0034 064A     		ldr	r2, .L260+8
 3428 0036 1A44     		add	r2, r2, r3
 3429 0038 14BF     		ite	ne
 3430 003a 8D23     		movne	r3, #141
1139:Generated_Source\PSoC5/USBUART_std.c ****                                                             USBUART_MODE_ACK_OUT);
 3431              		.loc 1 1139 0
 3432 003c 8923     		moveq	r3, #137
 3433 003e 9370     		strb	r3, [r2, #2]
1142:Generated_Source\PSoC5/USBUART_std.c ****     }
 3434              		.loc 1 1142 0
 3435 0040 FFF7FEBF 		b	USBUART_InitNoDataControlTransfer
 3436              	.LVL220:
 3437              	.L257:
1146:Generated_Source\PSoC5/USBUART_std.c **** 
 3438              		.loc 1 1146 0
ARM GAS  C:\Users\ingan\AppData\Local\Temp\cc5yuDXv.s 			page 98


 3439 0044 0020     		movs	r0, #0
 3440 0046 7047     		bx	lr
 3441              	.L261:
 3442              		.align	2
 3443              	.L260:
 3444 0048 00600040 		.word	1073766400
 3445 004c 00000000 		.word	USBUART_EP
 3446 0050 FC5F0040 		.word	1073766396
 3447              		.cfi_endproc
 3448              	.LFE10:
 3449              		.size	USBUART_SetEndpointHalt, .-USBUART_SetEndpointHalt
 3450              		.section	.text.USBUART_ClearEndpointHalt,"ax",%progbits
 3451              		.align	2
 3452              		.global	USBUART_ClearEndpointHalt
 3453              		.thumb
 3454              		.thumb_func
 3455              		.type	USBUART_ClearEndpointHalt, %function
 3456              	USBUART_ClearEndpointHalt:
 3457              	.LFB11:
1163:Generated_Source\PSoC5/USBUART_std.c ****     uint8 requestHandled = USBUART_FALSE;
 3458              		.loc 1 1163 0
 3459              		.cfi_startproc
 3460              		@ args = 0, pretend = 0, frame = 0
 3461              		@ frame_needed = 0, uses_anonymous_args = 0
 3462              		@ link register save eliminated.
 3463              	.LVL221:
1168:Generated_Source\PSoC5/USBUART_std.c **** 
 3464              		.loc 1 1168 0
 3465 0000 1A4B     		ldr	r3, .L270
 3466 0002 1B79     		ldrb	r3, [r3, #4]	@ zero_extendqisi2
 3467 0004 03F07F03 		and	r3, r3, #127
 3468              	.LVL222:
1170:Generated_Source\PSoC5/USBUART_std.c ****     {
 3469              		.loc 1 1170 0
 3470 0008 5A1E     		subs	r2, r3, #1
 3471 000a 072A     		cmp	r2, #7
 3472 000c 24D8     		bhi	.L263
1163:Generated_Source\PSoC5/USBUART_std.c ****     uint8 requestHandled = USBUART_FALSE;
 3473              		.loc 1 1163 0
 3474 000e 10B4     		push	{r4}
 3475              		.cfi_def_cfa_offset 4
 3476              		.cfi_offset 4, -4
1173:Generated_Source\PSoC5/USBUART_std.c **** 
 3477              		.loc 1 1173 0
 3478 0010 174A     		ldr	r2, .L270+4
 3479 0012 03EB4301 		add	r1, r3, r3, lsl #1
 3480 0016 02EB8102 		add	r2, r2, r1, lsl #2
 3481 001a 9178     		ldrb	r1, [r2, #2]	@ zero_extendqisi2
 3482 001c 154C     		ldr	r4, .L270+8
1176:Generated_Source\PSoC5/USBUART_std.c ****         
 3483              		.loc 1 1176 0
 3484 001e 0020     		movs	r0, #0
1173:Generated_Source\PSoC5/USBUART_std.c **** 
 3485              		.loc 1 1173 0
 3486 0020 01F0FE01 		and	r1, r1, #254
 3487 0024 9170     		strb	r1, [r2, #2]
1176:Generated_Source\PSoC5/USBUART_std.c ****         
ARM GAS  C:\Users\ingan\AppData\Local\Temp\cc5yuDXv.s 			page 99


 3488              		.loc 1 1176 0
 3489 0026 D070     		strb	r0, [r2, #3]
 3490 0028 2046     		mov	r0, r4
 3491 002a 1B01     		lsls	r3, r3, #4
 3492              	.LVL223:
1179:Generated_Source\PSoC5/USBUART_std.c ****         
 3493              		.loc 1 1179 0
 3494 002c 195D     		ldrb	r1, [r3, r4]	@ zero_extendqisi2
 3495 002e 1844     		add	r0, r0, r3
 3496 0030 01F07F01 		and	r1, r1, #127
 3497 0034 1955     		strb	r1, [r3, r4]
1182:Generated_Source\PSoC5/USBUART_std.c **** 
 3498              		.loc 1 1182 0
 3499 0036 5178     		ldrb	r1, [r2, #1]	@ zero_extendqisi2
 3500 0038 01F0FD03 		and	r3, r1, #253
 3501 003c 5370     		strb	r3, [r2, #1]
1184:Generated_Source\PSoC5/USBUART_std.c ****         {
 3502              		.loc 1 1184 0
 3503 003e 1379     		ldrb	r3, [r2, #4]	@ zero_extendqisi2
 3504 0040 13F0800F 		tst	r3, #128
1187:Generated_Source\PSoC5/USBUART_std.c ****             {       
 3505              		.loc 1 1187 0
 3506 0044 5378     		ldrb	r3, [r2, #1]	@ zero_extendqisi2
1184:Generated_Source\PSoC5/USBUART_std.c ****         {
 3507              		.loc 1 1184 0
 3508 0046 09D1     		bne	.L269
1200:Generated_Source\PSoC5/USBUART_std.c ****             {       
 3509              		.loc 1 1200 0
 3510 0048 012B     		cmp	r3, #1
1203:Generated_Source\PSoC5/USBUART_std.c ****             }
 3511              		.loc 1 1203 0
 3512 004a 0CBF     		ite	eq
 3513 004c 0823     		moveq	r3, #8
1207:Generated_Source\PSoC5/USBUART_std.c ****             }
 3514              		.loc 1 1207 0
 3515 004e 0923     		movne	r3, #9
 3516 0050 8370     		strb	r3, [r0, #2]
1215:Generated_Source\PSoC5/USBUART_std.c **** 
 3517              		.loc 1 1215 0
 3518 0052 10BC     		pop	{r4}
 3519              		.cfi_restore 4
 3520              		.cfi_def_cfa_offset 0
1211:Generated_Source\PSoC5/USBUART_std.c ****     }
 3521              		.loc 1 1211 0
 3522 0054 FFF7FEBF 		b	USBUART_InitNoDataControlTransfer
 3523              	.LVL224:
 3524              	.L263:
1215:Generated_Source\PSoC5/USBUART_std.c **** 
 3525              		.loc 1 1215 0
 3526 0058 0020     		movs	r0, #0
 3527 005a 7047     		bx	lr
 3528              	.LVL225:
 3529              	.L269:
 3530              		.cfi_def_cfa_offset 4
 3531              		.cfi_offset 4, -4
1187:Generated_Source\PSoC5/USBUART_std.c ****             {       
 3532              		.loc 1 1187 0
ARM GAS  C:\Users\ingan\AppData\Local\Temp\cc5yuDXv.s 			page 100


 3533 005c 012B     		cmp	r3, #1
1190:Generated_Source\PSoC5/USBUART_std.c ****             }
 3534              		.loc 1 1190 0
 3535 005e 0CBF     		ite	eq
 3536 0060 0C23     		moveq	r3, #12
1194:Generated_Source\PSoC5/USBUART_std.c ****             }
 3537              		.loc 1 1194 0
 3538 0062 0D23     		movne	r3, #13
 3539 0064 8370     		strb	r3, [r0, #2]
1215:Generated_Source\PSoC5/USBUART_std.c **** 
 3540              		.loc 1 1215 0
 3541 0066 10BC     		pop	{r4}
 3542              		.cfi_restore 4
 3543              		.cfi_def_cfa_offset 0
1211:Generated_Source\PSoC5/USBUART_std.c ****     }
 3544              		.loc 1 1211 0
 3545 0068 FFF7FEBF 		b	USBUART_InitNoDataControlTransfer
 3546              	.LVL226:
 3547              	.L271:
 3548              		.align	2
 3549              	.L270:
 3550 006c 00600040 		.word	1073766400
 3551 0070 00000000 		.word	USBUART_EP
 3552 0074 FC5F0040 		.word	1073766396
 3553              		.cfi_endproc
 3554              	.LFE11:
 3555              		.size	USBUART_ClearEndpointHalt, .-USBUART_ClearEndpointHalt
 3556              		.section	.text.USBUART_ValidateAlternateSetting,"ax",%progbits
 3557              		.align	2
 3558              		.global	USBUART_ValidateAlternateSetting
 3559              		.thumb
 3560              		.thumb_func
 3561              		.type	USBUART_ValidateAlternateSetting, %function
 3562              	USBUART_ValidateAlternateSetting:
 3563              	.LFB12:
1232:Generated_Source\PSoC5/USBUART_std.c ****     uint8 requestHandled = USBUART_FALSE;
 3564              		.loc 1 1232 0
 3565              		.cfi_startproc
 3566              		@ args = 0, pretend = 0, frame = 0
 3567              		@ frame_needed = 0, uses_anonymous_args = 0
 3568              		@ link register save eliminated.
 3569              	.LVL227:
 3570 0000 10B4     		push	{r4}
 3571              		.cfi_def_cfa_offset 4
 3572              		.cfi_offset 4, -4
1240:Generated_Source\PSoC5/USBUART_std.c ****     
 3573              		.loc 1 1240 0
 3574 0002 154A     		ldr	r2, .L279
1243:Generated_Source\PSoC5/USBUART_std.c ****     curInterfacesNum  = ((const uint8 *) pTmp->p_list)[USBUART_CONFIG_DESCR_NUM_INTERFACES];
 3575              		.loc 1 1243 0
 3576 0004 154B     		ldr	r3, .L279+4
 3577              	.LBB147:
 3578              	.LBB148:
 948:Generated_Source\PSoC5/USBUART_std.c **** 
 3579              		.loc 1 948 0
 3580 0006 1648     		ldr	r0, .L279+8
 3581              	.LBE148:
ARM GAS  C:\Users\ingan\AppData\Local\Temp\cc5yuDXv.s 			page 101


 3582              	.LBE147:
1240:Generated_Source\PSoC5/USBUART_std.c ****     
 3583              		.loc 1 1240 0
 3584 0008 1279     		ldrb	r2, [r2, #4]	@ zero_extendqisi2
 3585              	.LBB153:
 3586              	.LBB149:
 948:Generated_Source\PSoC5/USBUART_std.c **** 
 3587              		.loc 1 948 0
 3588 000a 1649     		ldr	r1, .L279+12
 3589              	.LBE149:
 3590              	.LBE153:
1243:Generated_Source\PSoC5/USBUART_std.c ****     curInterfacesNum  = ((const uint8 *) pTmp->p_list)[USBUART_CONFIG_DESCR_NUM_INTERFACES];
 3591              		.loc 1 1243 0
 3592 000c 1B78     		ldrb	r3, [r3]	@ zero_extendqisi2
 3593              	.LBB154:
 3594              	.LBB150:
 948:Generated_Source\PSoC5/USBUART_std.c **** 
 3595              		.loc 1 948 0
 3596 000e 0078     		ldrb	r0, [r0]	@ zero_extendqisi2
 3597              	.LBE150:
 3598              	.LBE154:
1243:Generated_Source\PSoC5/USBUART_std.c ****     curInterfacesNum  = ((const uint8 *) pTmp->p_list)[USBUART_CONFIG_DESCR_NUM_INTERFACES];
 3599              		.loc 1 1243 0
 3600 0010 013B     		subs	r3, r3, #1
 3601              	.LBB155:
 3602              	.LBB151:
 948:Generated_Source\PSoC5/USBUART_std.c **** 
 3603              		.loc 1 948 0
 3604 0012 01EBC001 		add	r1, r1, r0, lsl #3
 3605 0016 4968     		ldr	r1, [r1, #4]
 3606              	.LBE151:
 3607              	.LBE155:
1243:Generated_Source\PSoC5/USBUART_std.c ****     curInterfacesNum  = ((const uint8 *) pTmp->p_list)[USBUART_CONFIG_DESCR_NUM_INTERFACES];
 3608              		.loc 1 1243 0
 3609 0018 DBB2     		uxtb	r3, r3
 3610              	.LBB156:
 3611              	.LBB152:
 957:Generated_Source\PSoC5/USBUART_std.c ****     {
 3612              		.loc 1 957 0
 3613 001a 087C     		ldrb	r0, [r1, #16]	@ zero_extendqisi2
 3614              	.LVL228:
 3615 001c 9842     		cmp	r0, r3
 3616 001e 15D9     		bls	.L273
 3617              	.LVL229:
 963:Generated_Source\PSoC5/USBUART_std.c ****     }
 3618              		.loc 1 963 0
 3619 0020 01EBC303 		add	r3, r1, r3, lsl #3
 3620              	.LVL230:
 3621              	.LBE152:
 3622              	.LBE156:
1244:Generated_Source\PSoC5/USBUART_std.c **** 
 3623              		.loc 1 1244 0
 3624 0024 5B69     		ldr	r3, [r3, #20]
 3625 0026 D2B2     		uxtb	r2, r2
 3626 0028 5B68     		ldr	r3, [r3, #4]
1247:Generated_Source\PSoC5/USBUART_std.c ****     {
 3627              		.loc 1 1247 0
ARM GAS  C:\Users\ingan\AppData\Local\Temp\cc5yuDXv.s 			page 102


 3628 002a 1B79     		ldrb	r3, [r3, #4]	@ zero_extendqisi2
 3629 002c 9342     		cmp	r3, r2
 3630 002e 01D2     		bcs	.L274
1247:Generated_Source\PSoC5/USBUART_std.c ****     {
 3631              		.loc 1 1247 0 is_stmt 0 discriminator 1
 3632 0030 022A     		cmp	r2, #2
 3633 0032 0ED8     		bhi	.L276
 3634              	.L274:
1252:Generated_Source\PSoC5/USBUART_std.c ****         USBUART_interfaceSetting[interfaceNum]     = (uint8) USBUART_wValueLoReg;
 3635              		.loc 1 1252 0 is_stmt 1
 3636 0034 0C49     		ldr	r1, .L279+16
 3637 0036 0D4C     		ldr	r4, .L279+20
 3638 0038 8B5C     		ldrb	r3, [r1, r2]	@ zero_extendqisi2
 3639              		.loc 1 1253 0
 3640 003a 0748     		ldr	r0, .L279
1252:Generated_Source\PSoC5/USBUART_std.c ****         USBUART_interfaceSetting[interfaceNum]     = (uint8) USBUART_wValueLoReg;
 3641              		.loc 1 1252 0
 3642 003c DBB2     		uxtb	r3, r3
 3643 003e A354     		strb	r3, [r4, r2]
 3644              		.loc 1 1253 0
 3645 0040 8378     		ldrb	r3, [r0, #2]	@ zero_extendqisi2
1254:Generated_Source\PSoC5/USBUART_std.c ****         
1255:Generated_Source\PSoC5/USBUART_std.c ****         requestHandled = USBUART_TRUE;
 3646              		.loc 1 1255 0
 3647 0042 0120     		movs	r0, #1
1253:Generated_Source\PSoC5/USBUART_std.c ****         
 3648              		.loc 1 1253 0
 3649 0044 DBB2     		uxtb	r3, r3
 3650 0046 8B54     		strb	r3, [r1, r2]
 3651              	.LVL231:
1256:Generated_Source\PSoC5/USBUART_std.c ****     }
1257:Generated_Source\PSoC5/USBUART_std.c **** 
1258:Generated_Source\PSoC5/USBUART_std.c ****     return (requestHandled);
1259:Generated_Source\PSoC5/USBUART_std.c **** }
 3652              		.loc 1 1259 0
 3653 0048 10BC     		pop	{r4}
 3654              		.cfi_remember_state
 3655              		.cfi_restore 4
 3656              		.cfi_def_cfa_offset 0
 3657 004a 7047     		bx	lr
 3658              	.LVL232:
 3659              	.L273:
 3660              		.cfi_restore_state
1244:Generated_Source\PSoC5/USBUART_std.c **** 
 3661              		.loc 1 1244 0
 3662 004c 0023     		movs	r3, #0
 3663 004e 5B68     		ldr	r3, [r3, #4]
 3664 0050 FFDE     		.inst	0xdeff
 3665              	.L276:
1233:Generated_Source\PSoC5/USBUART_std.c ****     
 3666              		.loc 1 1233 0
 3667 0052 0020     		movs	r0, #0
 3668              	.LVL233:
 3669              		.loc 1 1259 0
 3670 0054 10BC     		pop	{r4}
 3671              		.cfi_restore 4
 3672              		.cfi_def_cfa_offset 0
ARM GAS  C:\Users\ingan\AppData\Local\Temp\cc5yuDXv.s 			page 103


 3673 0056 7047     		bx	lr
 3674              	.L280:
 3675              		.align	2
 3676              	.L279:
 3677 0058 00600040 		.word	1073766400
 3678 005c 00000000 		.word	USBUART_configuration
 3679 0060 00000000 		.word	USBUART_device
 3680 0064 00000000 		.word	USBUART_TABLE
 3681 0068 00000000 		.word	USBUART_interfaceSetting
 3682 006c 00000000 		.word	USBUART_interfaceSettingLast
 3683              		.cfi_endproc
 3684              	.LFE12:
 3685              		.size	USBUART_ValidateAlternateSetting, .-USBUART_ValidateAlternateSetting
 3686              		.section	.rodata.str1.4,"aMS",%progbits,1
 3687              		.align	2
 3688              	.LC0:
 3689 0000 30313233 		.ascii	"0123456789ABCDEF\000"
 3689      34353637 
 3689      38394142 
 3689      43444546 
 3689      00
 3690              		.bss
 3691              		.align	2
 3692              		.set	.LANCHOR0,. + 0
 3693              		.type	USBUART_tBuffer.5380, %object
 3694              		.size	USBUART_tBuffer.5380, 2
 3695              	USBUART_tBuffer.5380:
 3696 0000 0000     		.space	2
 3697              		.text
 3698              	.Letext0:
 3699              		.file 2 "Generated_Source\\PSoC5\\cytypes.h"
 3700              		.file 3 "Generated_Source\\PSoC5\\USBUART.h"
 3701              		.file 4 "Generated_Source\\PSoC5\\USBUART_pvt.h"
 3702              		.file 5 "Generated_Source\\PSoC5\\CyLib.h"
 3703              		.section	.debug_info,"",%progbits
 3704              	.Ldebug_info0:
 3705 0000 810E0000 		.4byte	0xe81
 3706 0004 0400     		.2byte	0x4
 3707 0006 00000000 		.4byte	.Ldebug_abbrev0
 3708 000a 04       		.byte	0x4
 3709 000b 01       		.uleb128 0x1
 3710 000c D2010000 		.4byte	.LASF117
 3711 0010 0C       		.byte	0xc
 3712 0011 8C050000 		.4byte	.LASF118
 3713 0015 02030000 		.4byte	.LASF119
 3714 0019 10020000 		.4byte	.Ldebug_ranges0+0x210
 3715 001d 00000000 		.4byte	0
 3716 0021 00000000 		.4byte	.Ldebug_line0
 3717 0025 02       		.uleb128 0x2
 3718 0026 01       		.byte	0x1
 3719 0027 06       		.byte	0x6
 3720 0028 F5060000 		.4byte	.LASF0
 3721 002c 02       		.uleb128 0x2
 3722 002d 01       		.byte	0x1
 3723 002e 08       		.byte	0x8
 3724 002f 51060000 		.4byte	.LASF1
 3725 0033 02       		.uleb128 0x2
ARM GAS  C:\Users\ingan\AppData\Local\Temp\cc5yuDXv.s 			page 104


 3726 0034 02       		.byte	0x2
 3727 0035 05       		.byte	0x5
 3728 0036 2B050000 		.4byte	.LASF2
 3729 003a 02       		.uleb128 0x2
 3730 003b 02       		.byte	0x2
 3731 003c 07       		.byte	0x7
 3732 003d 01070000 		.4byte	.LASF3
 3733 0041 02       		.uleb128 0x2
 3734 0042 04       		.byte	0x4
 3735 0043 05       		.byte	0x5
 3736 0044 3C050000 		.4byte	.LASF4
 3737 0048 02       		.uleb128 0x2
 3738 0049 04       		.byte	0x4
 3739 004a 07       		.byte	0x7
 3740 004b E3050000 		.4byte	.LASF5
 3741 004f 02       		.uleb128 0x2
 3742 0050 08       		.byte	0x8
 3743 0051 05       		.byte	0x5
 3744 0052 0B040000 		.4byte	.LASF6
 3745 0056 02       		.uleb128 0x2
 3746 0057 08       		.byte	0x8
 3747 0058 07       		.byte	0x7
 3748 0059 73020000 		.4byte	.LASF7
 3749 005d 03       		.uleb128 0x3
 3750 005e 04       		.byte	0x4
 3751 005f 05       		.byte	0x5
 3752 0060 696E7400 		.ascii	"int\000"
 3753 0064 02       		.uleb128 0x2
 3754 0065 04       		.byte	0x4
 3755 0066 07       		.byte	0x7
 3756 0067 C5000000 		.4byte	.LASF8
 3757 006b 04       		.uleb128 0x4
 3758 006c 48070000 		.4byte	.LASF9
 3759 0070 02       		.byte	0x2
 3760 0071 E401     		.2byte	0x1e4
 3761 0073 2C000000 		.4byte	0x2c
 3762 0077 04       		.uleb128 0x4
 3763 0078 A7030000 		.4byte	.LASF10
 3764 007c 02       		.byte	0x2
 3765 007d E501     		.2byte	0x1e5
 3766 007f 3A000000 		.4byte	0x3a
 3767 0083 04       		.uleb128 0x4
 3768 0084 8B040000 		.4byte	.LASF11
 3769 0088 02       		.byte	0x2
 3770 0089 E601     		.2byte	0x1e6
 3771 008b 48000000 		.4byte	0x48
 3772 008f 02       		.uleb128 0x2
 3773 0090 04       		.byte	0x4
 3774 0091 04       		.byte	0x4
 3775 0092 CC010000 		.4byte	.LASF12
 3776 0096 02       		.uleb128 0x2
 3777 0097 08       		.byte	0x8
 3778 0098 04       		.byte	0x4
 3779 0099 4E070000 		.4byte	.LASF13
 3780 009d 04       		.uleb128 0x4
 3781 009e B5030000 		.4byte	.LASF14
 3782 00a2 02       		.byte	0x2
ARM GAS  C:\Users\ingan\AppData\Local\Temp\cc5yuDXv.s 			page 105


 3783 00a3 F501     		.2byte	0x1f5
 3784 00a5 A9000000 		.4byte	0xa9
 3785 00a9 02       		.uleb128 0x2
 3786 00aa 01       		.byte	0x1
 3787 00ab 08       		.byte	0x8
 3788 00ac 84030000 		.4byte	.LASF15
 3789 00b0 04       		.uleb128 0x4
 3790 00b1 42010000 		.4byte	.LASF16
 3791 00b5 02       		.byte	0x2
 3792 00b6 8E02     		.2byte	0x28e
 3793 00b8 BC000000 		.4byte	0xbc
 3794 00bc 05       		.uleb128 0x5
 3795 00bd 6B000000 		.4byte	0x6b
 3796 00c1 02       		.uleb128 0x2
 3797 00c2 08       		.byte	0x8
 3798 00c3 04       		.byte	0x4
 3799 00c4 05050000 		.4byte	.LASF17
 3800 00c8 02       		.uleb128 0x2
 3801 00c9 04       		.byte	0x4
 3802 00ca 07       		.byte	0x7
 3803 00cb DA050000 		.4byte	.LASF18
 3804 00cf 06       		.uleb128 0x6
 3805 00d0 0C       		.byte	0xc
 3806 00d1 03       		.byte	0x3
 3807 00d2 8D       		.byte	0x8d
 3808 00d3 44010000 		.4byte	0x144
 3809 00d7 07       		.uleb128 0x7
 3810 00d8 8B070000 		.4byte	.LASF19
 3811 00dc 03       		.byte	0x3
 3812 00dd 8F       		.byte	0x8f
 3813 00de 6B000000 		.4byte	0x6b
 3814 00e2 00       		.byte	0
 3815 00e3 07       		.uleb128 0x7
 3816 00e4 92070000 		.4byte	.LASF20
 3817 00e8 03       		.byte	0x3
 3818 00e9 90       		.byte	0x90
 3819 00ea 6B000000 		.4byte	0x6b
 3820 00ee 01       		.byte	0x1
 3821 00ef 07       		.uleb128 0x7
 3822 00f0 76040000 		.4byte	.LASF21
 3823 00f4 03       		.byte	0x3
 3824 00f5 91       		.byte	0x91
 3825 00f6 6B000000 		.4byte	0x6b
 3826 00fa 02       		.byte	0x2
 3827 00fb 07       		.uleb128 0x7
 3828 00fc C3010000 		.4byte	.LASF22
 3829 0100 03       		.byte	0x3
 3830 0101 92       		.byte	0x92
 3831 0102 6B000000 		.4byte	0x6b
 3832 0106 03       		.byte	0x3
 3833 0107 07       		.uleb128 0x7
 3834 0108 BE060000 		.4byte	.LASF23
 3835 010c 03       		.byte	0x3
 3836 010d 93       		.byte	0x93
 3837 010e 6B000000 		.4byte	0x6b
 3838 0112 04       		.byte	0x4
 3839 0113 07       		.uleb128 0x7
ARM GAS  C:\Users\ingan\AppData\Local\Temp\cc5yuDXv.s 			page 106


 3840 0114 35050000 		.4byte	.LASF24
 3841 0118 03       		.byte	0x3
 3842 0119 94       		.byte	0x94
 3843 011a 6B000000 		.4byte	0x6b
 3844 011e 05       		.byte	0x5
 3845 011f 07       		.uleb128 0x7
 3846 0120 BB030000 		.4byte	.LASF25
 3847 0124 03       		.byte	0x3
 3848 0125 95       		.byte	0x95
 3849 0126 77000000 		.4byte	0x77
 3850 012a 06       		.byte	0x6
 3851 012b 07       		.uleb128 0x7
 3852 012c 2C000000 		.4byte	.LASF26
 3853 0130 03       		.byte	0x3
 3854 0131 96       		.byte	0x96
 3855 0132 77000000 		.4byte	0x77
 3856 0136 08       		.byte	0x8
 3857 0137 07       		.uleb128 0x7
 3858 0138 A6000000 		.4byte	.LASF27
 3859 013c 03       		.byte	0x3
 3860 013d 97       		.byte	0x97
 3861 013e 6B000000 		.4byte	0x6b
 3862 0142 0A       		.byte	0xa
 3863 0143 00       		.byte	0
 3864 0144 08       		.uleb128 0x8
 3865 0145 F5050000 		.4byte	.LASF28
 3866 0149 03       		.byte	0x3
 3867 014a 98       		.byte	0x98
 3868 014b CF000000 		.4byte	0xcf
 3869 014f 06       		.uleb128 0x6
 3870 0150 08       		.byte	0x8
 3871 0151 03       		.byte	0x3
 3872 0152 9A       		.byte	0x9a
 3873 0153 A0010000 		.4byte	0x1a0
 3874 0157 07       		.uleb128 0x7
 3875 0158 A6000000 		.4byte	.LASF27
 3876 015c 03       		.byte	0x3
 3877 015d 9C       		.byte	0x9c
 3878 015e 6B000000 		.4byte	0x6b
 3879 0162 00       		.byte	0
 3880 0163 07       		.uleb128 0x7
 3881 0164 B8010000 		.4byte	.LASF29
 3882 0168 03       		.byte	0x3
 3883 0169 9D       		.byte	0x9d
 3884 016a 6B000000 		.4byte	0x6b
 3885 016e 01       		.byte	0x1
 3886 016f 07       		.uleb128 0x7
 3887 0170 BE060000 		.4byte	.LASF23
 3888 0174 03       		.byte	0x3
 3889 0175 9E       		.byte	0x9e
 3890 0176 6B000000 		.4byte	0x6b
 3891 017a 02       		.byte	0x2
 3892 017b 07       		.uleb128 0x7
 3893 017c 9C060000 		.4byte	.LASF30
 3894 0180 03       		.byte	0x3
 3895 0181 9F       		.byte	0x9f
 3896 0182 6B000000 		.4byte	0x6b
ARM GAS  C:\Users\ingan\AppData\Local\Temp\cc5yuDXv.s 			page 107


 3897 0186 03       		.byte	0x3
 3898 0187 07       		.uleb128 0x7
 3899 0188 2C000000 		.4byte	.LASF26
 3900 018c 03       		.byte	0x3
 3901 018d A0       		.byte	0xa0
 3902 018e 77000000 		.4byte	0x77
 3903 0192 04       		.byte	0x4
 3904 0193 07       		.uleb128 0x7
 3905 0194 19040000 		.4byte	.LASF31
 3906 0198 03       		.byte	0x3
 3907 0199 A1       		.byte	0xa1
 3908 019a 6B000000 		.4byte	0x6b
 3909 019e 06       		.byte	0x6
 3910 019f 00       		.byte	0
 3911 01a0 08       		.uleb128 0x8
 3912 01a1 A3020000 		.4byte	.LASF32
 3913 01a5 03       		.byte	0x3
 3914 01a6 A2       		.byte	0xa2
 3915 01a7 4F010000 		.4byte	0x14f
 3916 01ab 06       		.uleb128 0x6
 3917 01ac 04       		.byte	0x4
 3918 01ad 03       		.byte	0x3
 3919 01ae A4       		.byte	0xa4
 3920 01af CC010000 		.4byte	0x1cc
 3921 01b3 07       		.uleb128 0x7
 3922 01b4 AE030000 		.4byte	.LASF33
 3923 01b8 03       		.byte	0x3
 3924 01b9 A6       		.byte	0xa6
 3925 01ba 6B000000 		.4byte	0x6b
 3926 01be 00       		.byte	0
 3927 01bf 07       		.uleb128 0x7
 3928 01c0 45050000 		.4byte	.LASF34
 3929 01c4 03       		.byte	0x3
 3930 01c5 A7       		.byte	0xa7
 3931 01c6 77000000 		.4byte	0x77
 3932 01ca 02       		.byte	0x2
 3933 01cb 00       		.byte	0
 3934 01cc 08       		.uleb128 0x8
 3935 01cd 5A040000 		.4byte	.LASF35
 3936 01d1 03       		.byte	0x3
 3937 01d2 A8       		.byte	0xa8
 3938 01d3 AB010000 		.4byte	0x1ab
 3939 01d7 06       		.uleb128 0x6
 3940 01d8 0C       		.byte	0xc
 3941 01d9 03       		.byte	0x3
 3942 01da AA       		.byte	0xaa
 3943 01db 04020000 		.4byte	0x204
 3944 01df 07       		.uleb128 0x7
 3945 01e0 6F030000 		.4byte	.LASF36
 3946 01e4 03       		.byte	0x3
 3947 01e5 AC       		.byte	0xac
 3948 01e6 77000000 		.4byte	0x77
 3949 01ea 00       		.byte	0
 3950 01eb 07       		.uleb128 0x7
 3951 01ec FC020000 		.4byte	.LASF37
 3952 01f0 03       		.byte	0x3
 3953 01f1 AD       		.byte	0xad
ARM GAS  C:\Users\ingan\AppData\Local\Temp\cc5yuDXv.s 			page 108


 3954 01f2 04020000 		.4byte	0x204
 3955 01f6 04       		.byte	0x4
 3956 01f7 07       		.uleb128 0x7
 3957 01f8 4E030000 		.4byte	.LASF38
 3958 01fc 03       		.byte	0x3
 3959 01fd AE       		.byte	0xae
 3960 01fe 0A020000 		.4byte	0x20a
 3961 0202 08       		.byte	0x8
 3962 0203 00       		.byte	0
 3963 0204 09       		.uleb128 0x9
 3964 0205 04       		.byte	0x4
 3965 0206 BC000000 		.4byte	0xbc
 3966 020a 09       		.uleb128 0x9
 3967 020b 04       		.byte	0x4
 3968 020c CC010000 		.4byte	0x1cc
 3969 0210 08       		.uleb128 0x8
 3970 0211 99000000 		.4byte	.LASF39
 3971 0215 03       		.byte	0x3
 3972 0216 AF       		.byte	0xaf
 3973 0217 D7010000 		.4byte	0x1d7
 3974 021b 06       		.uleb128 0x6
 3975 021c 08       		.byte	0x8
 3976 021d 03       		.byte	0x3
 3977 021e B1       		.byte	0xb1
 3978 021f 3A020000 		.4byte	0x23a
 3979 0223 0A       		.uleb128 0xa
 3980 0224 6300     		.ascii	"c\000"
 3981 0226 03       		.byte	0x3
 3982 0227 B3       		.byte	0xb3
 3983 0228 6B000000 		.4byte	0x6b
 3984 022c 00       		.byte	0
 3985 022d 07       		.uleb128 0x7
 3986 022e 1C060000 		.4byte	.LASF40
 3987 0232 03       		.byte	0x3
 3988 0233 B4       		.byte	0xb4
 3989 0234 3A020000 		.4byte	0x23a
 3990 0238 04       		.byte	0x4
 3991 0239 00       		.byte	0
 3992 023a 09       		.uleb128 0x9
 3993 023b 04       		.byte	0x4
 3994 023c 40020000 		.4byte	0x240
 3995 0240 0B       		.uleb128 0xb
 3996 0241 08       		.uleb128 0x8
 3997 0242 60020000 		.4byte	.LASF41
 3998 0246 03       		.byte	0x3
 3999 0247 B5       		.byte	0xb5
 4000 0248 1B020000 		.4byte	0x21b
 4001 024c 06       		.uleb128 0x6
 4002 024d 08       		.byte	0x8
 4003 024e 03       		.byte	0x3
 4004 024f C5       		.byte	0xc5
 4005 0250 61020000 		.4byte	0x261
 4006 0254 07       		.uleb128 0x7
 4007 0255 9D070000 		.4byte	.LASF42
 4008 0259 03       		.byte	0x3
 4009 025a C7       		.byte	0xc7
 4010 025b 61020000 		.4byte	0x261
ARM GAS  C:\Users\ingan\AppData\Local\Temp\cc5yuDXv.s 			page 109


 4011 025f 00       		.byte	0
 4012 0260 00       		.byte	0
 4013 0261 0C       		.uleb128 0xc
 4014 0262 6B000000 		.4byte	0x6b
 4015 0266 71020000 		.4byte	0x271
 4016 026a 0D       		.uleb128 0xd
 4017 026b C8000000 		.4byte	0xc8
 4018 026f 07       		.byte	0x7
 4019 0270 00       		.byte	0
 4020 0271 08       		.uleb128 0x8
 4021 0272 74050000 		.4byte	.LASF43
 4022 0276 03       		.byte	0x3
 4023 0277 C8       		.byte	0xc8
 4024 0278 4C020000 		.4byte	0x24c
 4025 027c 06       		.uleb128 0x6
 4026 027d 10       		.byte	0x10
 4027 027e 03       		.byte	0x3
 4028 027f D4       		.byte	0xd4
 4029 0280 B5020000 		.4byte	0x2b5
 4030 0284 07       		.uleb128 0x7
 4031 0285 1F040000 		.4byte	.LASF44
 4032 0289 03       		.byte	0x3
 4033 028a D6       		.byte	0xd6
 4034 028b 6B000000 		.4byte	0x6b
 4035 028f 00       		.byte	0
 4036 0290 07       		.uleb128 0x7
 4037 0291 26040000 		.4byte	.LASF45
 4038 0295 03       		.byte	0x3
 4039 0296 D7       		.byte	0xd7
 4040 0297 6B000000 		.4byte	0x6b
 4041 029b 01       		.byte	0x1
 4042 029c 07       		.uleb128 0x7
 4043 029d D8030000 		.4byte	.LASF46
 4044 02a1 03       		.byte	0x3
 4045 02a2 D8       		.byte	0xd8
 4046 02a3 6B000000 		.4byte	0x6b
 4047 02a7 02       		.byte	0x2
 4048 02a8 0A       		.uleb128 0xa
 4049 02a9 67617000 		.ascii	"gap\000"
 4050 02ad 03       		.byte	0x3
 4051 02ae D9       		.byte	0xd9
 4052 02af B5020000 		.4byte	0x2b5
 4053 02b3 03       		.byte	0x3
 4054 02b4 00       		.byte	0
 4055 02b5 0C       		.uleb128 0xc
 4056 02b6 6B000000 		.4byte	0x6b
 4057 02ba C5020000 		.4byte	0x2c5
 4058 02be 0D       		.uleb128 0xd
 4059 02bf C8000000 		.4byte	0xc8
 4060 02c3 0C       		.byte	0xc
 4061 02c4 00       		.byte	0
 4062 02c5 08       		.uleb128 0x8
 4063 02c6 2D040000 		.4byte	.LASF47
 4064 02ca 03       		.byte	0x3
 4065 02cb DA       		.byte	0xda
 4066 02cc 7C020000 		.4byte	0x27c
 4067 02d0 06       		.uleb128 0x6
ARM GAS  C:\Users\ingan\AppData\Local\Temp\cc5yuDXv.s 			page 110


 4068 02d1 10       		.byte	0x10
 4069 02d2 03       		.byte	0x3
 4070 02d3 E6       		.byte	0xe6
 4071 02d4 51030000 		.4byte	0x351
 4072 02d8 07       		.uleb128 0x7
 4073 02d9 6E050000 		.4byte	.LASF48
 4074 02dd 03       		.byte	0x3
 4075 02de E8       		.byte	0xe8
 4076 02df 6B000000 		.4byte	0x6b
 4077 02e3 00       		.byte	0
 4078 02e4 07       		.uleb128 0x7
 4079 02e5 D5020000 		.4byte	.LASF49
 4080 02e9 03       		.byte	0x3
 4081 02ea E9       		.byte	0xe9
 4082 02eb 6B000000 		.4byte	0x6b
 4083 02ef 01       		.byte	0x1
 4084 02f0 07       		.uleb128 0x7
 4085 02f1 17060000 		.4byte	.LASF50
 4086 02f5 03       		.byte	0x3
 4087 02f6 EA       		.byte	0xea
 4088 02f7 6B000000 		.4byte	0x6b
 4089 02fb 02       		.byte	0x2
 4090 02fc 07       		.uleb128 0x7
 4091 02fd 1D070000 		.4byte	.LASF51
 4092 0301 03       		.byte	0x3
 4093 0302 EB       		.byte	0xeb
 4094 0303 6B000000 		.4byte	0x6b
 4095 0307 03       		.byte	0x3
 4096 0308 07       		.uleb128 0x7
 4097 0309 6E020000 		.4byte	.LASF52
 4098 030d 03       		.byte	0x3
 4099 030e EC       		.byte	0xec
 4100 030f 6B000000 		.4byte	0x6b
 4101 0313 04       		.byte	0x4
 4102 0314 07       		.uleb128 0x7
 4103 0315 49060000 		.4byte	.LASF53
 4104 0319 03       		.byte	0x3
 4105 031a ED       		.byte	0xed
 4106 031b 6B000000 		.4byte	0x6b
 4107 031f 05       		.byte	0x5
 4108 0320 07       		.uleb128 0x7
 4109 0321 DA060000 		.4byte	.LASF54
 4110 0325 03       		.byte	0x3
 4111 0326 EE       		.byte	0xee
 4112 0327 6B000000 		.4byte	0x6b
 4113 032b 06       		.byte	0x6
 4114 032c 07       		.uleb128 0x7
 4115 032d 4C050000 		.4byte	.LASF55
 4116 0331 03       		.byte	0x3
 4117 0332 EF       		.byte	0xef
 4118 0333 6B000000 		.4byte	0x6b
 4119 0337 07       		.byte	0x7
 4120 0338 07       		.uleb128 0x7
 4121 0339 00000000 		.4byte	.LASF56
 4122 033d 03       		.byte	0x3
 4123 033e F0       		.byte	0xf0
 4124 033f 6B000000 		.4byte	0x6b
ARM GAS  C:\Users\ingan\AppData\Local\Temp\cc5yuDXv.s 			page 111


 4125 0343 08       		.byte	0x8
 4126 0344 0A       		.uleb128 0xa
 4127 0345 67617000 		.ascii	"gap\000"
 4128 0349 03       		.byte	0x3
 4129 034a F1       		.byte	0xf1
 4130 034b 51030000 		.4byte	0x351
 4131 034f 09       		.byte	0x9
 4132 0350 00       		.byte	0
 4133 0351 0C       		.uleb128 0xc
 4134 0352 6B000000 		.4byte	0x6b
 4135 0356 61030000 		.4byte	0x361
 4136 035a 0D       		.uleb128 0xd
 4137 035b C8000000 		.4byte	0xc8
 4138 035f 06       		.byte	0x6
 4139 0360 00       		.byte	0
 4140 0361 08       		.uleb128 0x8
 4141 0362 BF020000 		.4byte	.LASF57
 4142 0366 03       		.byte	0x3
 4143 0367 F2       		.byte	0xf2
 4144 0368 D0020000 		.4byte	0x2d0
 4145 036c 0E       		.uleb128 0xe
 4146 036d 90       		.byte	0x90
 4147 036e 03       		.byte	0x3
 4148 036f 0E01     		.2byte	0x10e
 4149 0371 83030000 		.4byte	0x383
 4150 0375 0F       		.uleb128 0xf
 4151 0376 7A000000 		.4byte	.LASF58
 4152 037a 03       		.byte	0x3
 4153 037b 1001     		.2byte	0x110
 4154 037d 83030000 		.4byte	0x383
 4155 0381 00       		.byte	0
 4156 0382 00       		.byte	0
 4157 0383 0C       		.uleb128 0xc
 4158 0384 C5020000 		.4byte	0x2c5
 4159 0388 93030000 		.4byte	0x393
 4160 038c 0D       		.uleb128 0xd
 4161 038d C8000000 		.4byte	0xc8
 4162 0391 08       		.byte	0x8
 4163 0392 00       		.byte	0
 4164 0393 04       		.uleb128 0x4
 4165 0394 A7060000 		.4byte	.LASF59
 4166 0398 03       		.byte	0x3
 4167 0399 1101     		.2byte	0x111
 4168 039b 6C030000 		.4byte	0x36c
 4169 039f 0E       		.uleb128 0xe
 4170 03a0 90       		.byte	0x90
 4171 03a1 03       		.byte	0x3
 4172 03a2 1401     		.2byte	0x114
 4173 03a4 B6030000 		.4byte	0x3b6
 4174 03a8 0F       		.uleb128 0xf
 4175 03a9 89030000 		.4byte	.LASF60
 4176 03ad 03       		.byte	0x3
 4177 03ae 1601     		.2byte	0x116
 4178 03b0 B6030000 		.4byte	0x3b6
 4179 03b4 00       		.byte	0
 4180 03b5 00       		.byte	0
 4181 03b6 0C       		.uleb128 0xc
ARM GAS  C:\Users\ingan\AppData\Local\Temp\cc5yuDXv.s 			page 112


 4182 03b7 61030000 		.4byte	0x361
 4183 03bb C6030000 		.4byte	0x3c6
 4184 03bf 0D       		.uleb128 0xd
 4185 03c0 C8000000 		.4byte	0xc8
 4186 03c4 08       		.byte	0x8
 4187 03c5 00       		.byte	0
 4188 03c6 04       		.uleb128 0x4
 4189 03c7 DE030000 		.4byte	.LASF61
 4190 03cb 03       		.byte	0x3
 4191 03cc 1701     		.2byte	0x117
 4192 03ce 9F030000 		.4byte	0x39f
 4193 03d2 10       		.uleb128 0x10
 4194 03d3 54050000 		.4byte	.LASF77
 4195 03d7 01       		.byte	0x1
 4196 03d8 AE03     		.2byte	0x3ae
 4197 03da FC030000 		.4byte	0x3fc
 4198 03de 01       		.byte	0x1
 4199 03df FC030000 		.4byte	0x3fc
 4200 03e3 11       		.uleb128 0x11
 4201 03e4 DD020000 		.4byte	.LASF68
 4202 03e8 01       		.byte	0x1
 4203 03e9 AE03     		.2byte	0x3ae
 4204 03eb 6B000000 		.4byte	0x6b
 4205 03ef 12       		.uleb128 0x12
 4206 03f0 C3050000 		.4byte	.LASF62
 4207 03f4 01       		.byte	0x1
 4208 03f5 B203     		.2byte	0x3b2
 4209 03f7 FC030000 		.4byte	0x3fc
 4210 03fb 00       		.byte	0
 4211 03fc 09       		.uleb128 0x9
 4212 03fd 04       		.byte	0x4
 4213 03fe 02040000 		.4byte	0x402
 4214 0402 13       		.uleb128 0x13
 4215 0403 41020000 		.4byte	0x241
 4216 0407 14       		.uleb128 0x14
 4217 0408 80000000 		.4byte	.LASF66
 4218 040c 01       		.byte	0x1
 4219 040d 2503     		.2byte	0x325
 4220 040f 01       		.byte	0x1
 4221 0410 66040000 		.4byte	0x466
 4222 0414 15       		.uleb128 0x15
 4223 0415 657000   		.ascii	"ep\000"
 4224 0418 01       		.byte	0x1
 4225 0419 2703     		.2byte	0x327
 4226 041b 6B000000 		.4byte	0x6b
 4227 041f 12       		.uleb128 0x12
 4228 0420 0C060000 		.4byte	.LASF63
 4229 0424 01       		.byte	0x1
 4230 0425 2803     		.2byte	0x328
 4231 0427 6B000000 		.4byte	0x6b
 4232 042b 12       		.uleb128 0x12
 4233 042c F5030000 		.4byte	.LASF64
 4234 0430 01       		.byte	0x1
 4235 0431 2903     		.2byte	0x329
 4236 0433 6B000000 		.4byte	0x6b
 4237 0437 15       		.uleb128 0x15
 4238 0438 6900     		.ascii	"i\000"
ARM GAS  C:\Users\ingan\AppData\Local\Temp\cc5yuDXv.s 			page 113


 4239 043a 01       		.byte	0x1
 4240 043b 2A03     		.2byte	0x32a
 4241 043d 6B000000 		.4byte	0x6b
 4242 0441 12       		.uleb128 0x12
 4243 0442 6D070000 		.4byte	.LASF65
 4244 0446 01       		.byte	0x1
 4245 0447 2B03     		.2byte	0x32b
 4246 0449 6B000000 		.4byte	0x6b
 4247 044d 12       		.uleb128 0x12
 4248 044e C3050000 		.4byte	.LASF62
 4249 0452 01       		.byte	0x1
 4250 0453 2D03     		.2byte	0x32d
 4251 0455 FC030000 		.4byte	0x3fc
 4252 0459 15       		.uleb128 0x15
 4253 045a 70455000 		.ascii	"pEP\000"
 4254 045e 01       		.byte	0x1
 4255 045f 2E03     		.2byte	0x32e
 4256 0461 66040000 		.4byte	0x466
 4257 0465 00       		.byte	0
 4258 0466 09       		.uleb128 0x9
 4259 0467 04       		.byte	0x4
 4260 0468 6C040000 		.4byte	0x46c
 4261 046c 13       		.uleb128 0x13
 4262 046d A0010000 		.4byte	0x1a0
 4263 0471 14       		.uleb128 0x14
 4264 0472 A8040000 		.4byte	.LASF67
 4265 0476 01       		.byte	0x1
 4266 0477 3A02     		.2byte	0x23a
 4267 0479 01       		.byte	0x1
 4268 047a F6040000 		.4byte	0x4f6
 4269 047e 11       		.uleb128 0x11
 4270 047f 8C060000 		.4byte	.LASF69
 4271 0483 01       		.byte	0x1
 4272 0484 3A02     		.2byte	0x23a
 4273 0486 6B000000 		.4byte	0x6b
 4274 048a 15       		.uleb128 0x15
 4275 048b 657000   		.ascii	"ep\000"
 4276 048e 01       		.byte	0x1
 4277 048f 3C02     		.2byte	0x23c
 4278 0491 6B000000 		.4byte	0x6b
 4279 0495 12       		.uleb128 0x12
 4280 0496 0C060000 		.4byte	.LASF63
 4281 049a 01       		.byte	0x1
 4282 049b 3D02     		.2byte	0x23d
 4283 049d 6B000000 		.4byte	0x6b
 4284 04a1 15       		.uleb128 0x15
 4285 04a2 6900     		.ascii	"i\000"
 4286 04a4 01       		.byte	0x1
 4287 04a5 3E02     		.2byte	0x23e
 4288 04a7 6B000000 		.4byte	0x6b
 4289 04ab 12       		.uleb128 0x12
 4290 04ac F5030000 		.4byte	.LASF64
 4291 04b0 01       		.byte	0x1
 4292 04b1 3F02     		.2byte	0x23f
 4293 04b3 6B000000 		.4byte	0x6b
 4294 04b7 12       		.uleb128 0x12
 4295 04b8 47010000 		.4byte	.LASF70
ARM GAS  C:\Users\ingan\AppData\Local\Temp\cc5yuDXv.s 			page 114


 4296 04bc 01       		.byte	0x1
 4297 04bd 4002     		.2byte	0x240
 4298 04bf F6040000 		.4byte	0x4f6
 4299 04c3 12       		.uleb128 0x12
 4300 04c4 21050000 		.4byte	.LASF71
 4301 04c8 01       		.byte	0x1
 4302 04c9 4302     		.2byte	0x243
 4303 04cb 77000000 		.4byte	0x77
 4304 04cf 12       		.uleb128 0x12
 4305 04d0 C3050000 		.4byte	.LASF62
 4306 04d4 01       		.byte	0x1
 4307 04d5 4602     		.2byte	0x246
 4308 04d7 FC030000 		.4byte	0x3fc
 4309 04db 15       		.uleb128 0x15
 4310 04dc 70455000 		.ascii	"pEP\000"
 4311 04e0 01       		.byte	0x1
 4312 04e1 4702     		.2byte	0x247
 4313 04e3 66040000 		.4byte	0x466
 4314 04e7 16       		.uleb128 0x16
 4315 04e8 12       		.uleb128 0x12
 4316 04e9 80040000 		.4byte	.LASF72
 4317 04ed 01       		.byte	0x1
 4318 04ee 6302     		.2byte	0x263
 4319 04f0 6B000000 		.4byte	0x6b
 4320 04f4 00       		.byte	0
 4321 04f5 00       		.byte	0
 4322 04f6 09       		.uleb128 0x9
 4323 04f7 04       		.byte	0x4
 4324 04f8 FC040000 		.4byte	0x4fc
 4325 04fc 13       		.uleb128 0x13
 4326 04fd 6B000000 		.4byte	0x6b
 4327 0501 17       		.uleb128 0x17
 4328 0502 E2000000 		.4byte	.LASF120
 4329 0506 01       		.byte	0x1
 4330 0507 F303     		.2byte	0x3f3
 4331 0509 FC030000 		.4byte	0x3fc
 4332 050d 01       		.byte	0x1
 4333 050e 18       		.uleb128 0x18
 4334 050f 07040000 		.4byte	0x407
 4335 0513 00000000 		.4byte	.LFB13
 4336 0517 60010000 		.4byte	.LFE13-.LFB13
 4337 051b 01       		.uleb128 0x1
 4338 051c 9C       		.byte	0x9c
 4339 051d 8A050000 		.4byte	0x58a
 4340 0521 19       		.uleb128 0x19
 4341 0522 14040000 		.4byte	0x414
 4342 0526 00000000 		.4byte	.LLST0
 4343 052a 19       		.uleb128 0x19
 4344 052b 1F040000 		.4byte	0x41f
 4345 052f 1E000000 		.4byte	.LLST1
 4346 0533 19       		.uleb128 0x19
 4347 0534 2B040000 		.4byte	0x42b
 4348 0538 3C000000 		.4byte	.LLST2
 4349 053c 19       		.uleb128 0x19
 4350 053d 37040000 		.4byte	0x437
 4351 0541 5A000000 		.4byte	.LLST3
 4352 0545 19       		.uleb128 0x19
ARM GAS  C:\Users\ingan\AppData\Local\Temp\cc5yuDXv.s 			page 115


 4353 0546 41040000 		.4byte	0x441
 4354 054a 7A000000 		.4byte	.LLST4
 4355 054e 19       		.uleb128 0x19
 4356 054f 4D040000 		.4byte	0x44d
 4357 0553 98000000 		.4byte	.LLST5
 4358 0557 19       		.uleb128 0x19
 4359 0558 59040000 		.4byte	0x459
 4360 055c B9000000 		.4byte	.LLST6
 4361 0560 1A       		.uleb128 0x1a
 4362 0561 D2030000 		.4byte	0x3d2
 4363 0565 02000000 		.4byte	.LBB24
 4364 0569 00000000 		.4byte	.Ldebug_ranges0+0
 4365 056d 01       		.byte	0x1
 4366 056e 3403     		.2byte	0x334
 4367 0570 1B       		.uleb128 0x1b
 4368 0571 E3030000 		.4byte	0x3e3
 4369 0575 16010000 		.4byte	.LLST7
 4370 0579 1C       		.uleb128 0x1c
 4371 057a 00000000 		.4byte	.Ldebug_ranges0+0
 4372 057e 19       		.uleb128 0x19
 4373 057f EF030000 		.4byte	0x3ef
 4374 0583 29010000 		.4byte	.LLST8
 4375 0587 00       		.byte	0
 4376 0588 00       		.byte	0
 4377 0589 00       		.byte	0
 4378 058a 1D       		.uleb128 0x1d
 4379 058b B1050000 		.4byte	.LASF75
 4380 058f 01       		.byte	0x1
 4381 0590 8E01     		.2byte	0x18e
 4382 0592 00000000 		.4byte	.LFB1
 4383 0596 48010000 		.4byte	.LFE1-.LFB1
 4384 059a 01       		.uleb128 0x1
 4385 059b 9C       		.byte	0x9c
 4386 059c FB050000 		.4byte	0x5fb
 4387 05a0 1E       		.uleb128 0x1e
 4388 05a1 A2040000 		.4byte	.LASF94
 4389 05a5 01       		.byte	0x1
 4390 05a6 8E01     		.2byte	0x18e
 4391 05a8 FB050000 		.4byte	0x5fb
 4392 05ac 3E010000 		.4byte	.LLST9
 4393 05b0 1F       		.uleb128 0x1f
 4394 05b1 68657800 		.ascii	"hex\000"
 4395 05b5 01       		.byte	0x1
 4396 05b6 9001     		.2byte	0x190
 4397 05b8 16060000 		.4byte	0x616
 4398 05bc 02       		.uleb128 0x2
 4399 05bd 91       		.byte	0x91
 4400 05be 4C       		.sleb128 -52
 4401 05bf 20       		.uleb128 0x20
 4402 05c0 6900     		.ascii	"i\000"
 4403 05c2 01       		.byte	0x1
 4404 05c3 9101     		.2byte	0x191
 4405 05c5 6B000000 		.4byte	0x6b
 4406 05c9 6A010000 		.4byte	.LLST10
 4407 05cd 20       		.uleb128 0x20
 4408 05ce 6A00     		.ascii	"j\000"
 4409 05d0 01       		.byte	0x1
ARM GAS  C:\Users\ingan\AppData\Local\Temp\cc5yuDXv.s 			page 116


 4410 05d1 9201     		.2byte	0x192
 4411 05d3 6B000000 		.4byte	0x6b
 4412 05d7 DF010000 		.4byte	.LLST11
 4413 05db 21       		.uleb128 0x21
 4414 05dc 14070000 		.4byte	.LASF73
 4415 05e0 01       		.byte	0x1
 4416 05e1 9301     		.2byte	0x193
 4417 05e3 61020000 		.4byte	0x261
 4418 05e7 02       		.uleb128 0x2
 4419 05e8 91       		.byte	0x91
 4420 05e9 44       		.sleb128 -60
 4421 05ea 22       		.uleb128 0x22
 4422 05eb 28000000 		.4byte	.LVL23
 4423 05ef 4B0E0000 		.4byte	0xe4b
 4424 05f3 23       		.uleb128 0x23
 4425 05f4 01       		.uleb128 0x1
 4426 05f5 50       		.byte	0x50
 4427 05f6 02       		.uleb128 0x2
 4428 05f7 91       		.byte	0x91
 4429 05f8 44       		.sleb128 -60
 4430 05f9 00       		.byte	0
 4431 05fa 00       		.byte	0
 4432 05fb 09       		.uleb128 0x9
 4433 05fc 04       		.byte	0x4
 4434 05fd 6B000000 		.4byte	0x6b
 4435 0601 0C       		.uleb128 0xc
 4436 0602 11060000 		.4byte	0x611
 4437 0606 11060000 		.4byte	0x611
 4438 060a 0D       		.uleb128 0xd
 4439 060b C8000000 		.4byte	0xc8
 4440 060f 10       		.byte	0x10
 4441 0610 00       		.byte	0
 4442 0611 13       		.uleb128 0x13
 4443 0612 9D000000 		.4byte	0x9d
 4444 0616 13       		.uleb128 0x13
 4445 0617 01060000 		.4byte	0x601
 4446 061b 14       		.uleb128 0x14
 4447 061c C8050000 		.4byte	.LASF74
 4448 0620 01       		.byte	0x1
 4449 0621 B501     		.2byte	0x1b5
 4450 0623 01       		.byte	0x1
 4451 0624 34060000 		.4byte	0x634
 4452 0628 15       		.uleb128 0x15
 4453 0629 657000   		.ascii	"ep\000"
 4454 062c 01       		.byte	0x1
 4455 062d B701     		.2byte	0x1b7
 4456 062f 6B000000 		.4byte	0x6b
 4457 0633 00       		.byte	0
 4458 0634 18       		.uleb128 0x18
 4459 0635 1B060000 		.4byte	0x61b
 4460 0639 00000000 		.4byte	.LFB2
 4461 063d D4020000 		.4byte	.LFE2-.LFB2
 4462 0641 01       		.uleb128 0x1
 4463 0642 9C       		.byte	0x9c
 4464 0643 51060000 		.4byte	0x651
 4465 0647 19       		.uleb128 0x19
 4466 0648 28060000 		.4byte	0x628
ARM GAS  C:\Users\ingan\AppData\Local\Temp\cc5yuDXv.s 			page 117


 4467 064c 53020000 		.4byte	.LLST12
 4468 0650 00       		.byte	0
 4469 0651 1D       		.uleb128 0x1d
 4470 0652 4E010000 		.4byte	.LASF76
 4471 0656 01       		.byte	0x1
 4472 0657 1402     		.2byte	0x214
 4473 0659 00000000 		.4byte	.LFB3
 4474 065d 90000000 		.4byte	.LFE3-.LFB3
 4475 0661 01       		.uleb128 0x1
 4476 0662 9C       		.byte	0x9c
 4477 0663 76060000 		.4byte	0x676
 4478 0667 20       		.uleb128 0x20
 4479 0668 6900     		.ascii	"i\000"
 4480 066a 01       		.byte	0x1
 4481 066b 1602     		.2byte	0x216
 4482 066d 6B000000 		.4byte	0x6b
 4483 0671 27030000 		.4byte	.LLST13
 4484 0675 00       		.byte	0
 4485 0676 10       		.uleb128 0x10
 4486 0677 0A010000 		.4byte	.LASF78
 4487 067b 01       		.byte	0x1
 4488 067c 0604     		.2byte	0x406
 4489 067e F6040000 		.4byte	0x4f6
 4490 0682 01       		.byte	0x1
 4491 0683 AC060000 		.4byte	0x6ac
 4492 0687 12       		.uleb128 0x12
 4493 0688 C3050000 		.4byte	.LASF62
 4494 068c 01       		.byte	0x1
 4495 068d 0904     		.2byte	0x409
 4496 068f FC030000 		.4byte	0x3fc
 4497 0693 12       		.uleb128 0x12
 4498 0694 92040000 		.4byte	.LASF79
 4499 0698 01       		.byte	0x1
 4500 0699 0A04     		.2byte	0x40a
 4501 069b F6040000 		.4byte	0x4f6
 4502 069f 12       		.uleb128 0x12
 4503 06a0 E7020000 		.4byte	.LASF80
 4504 06a4 01       		.byte	0x1
 4505 06a5 0B04     		.2byte	0x40b
 4506 06a7 6B000000 		.4byte	0x6b
 4507 06ab 00       		.byte	0
 4508 06ac 18       		.uleb128 0x18
 4509 06ad 71040000 		.4byte	0x471
 4510 06b1 00000000 		.4byte	.LFB4
 4511 06b5 24060000 		.4byte	.LFE4-.LFB4
 4512 06b9 01       		.uleb128 0x1
 4513 06ba 9C       		.byte	0x9c
 4514 06bb 28080000 		.4byte	0x828
 4515 06bf 1B       		.uleb128 0x1b
 4516 06c0 7E040000 		.4byte	0x47e
 4517 06c4 47030000 		.4byte	.LLST14
 4518 06c8 19       		.uleb128 0x19
 4519 06c9 8A040000 		.4byte	0x48a
 4520 06cd 81030000 		.4byte	.LLST15
 4521 06d1 24       		.uleb128 0x24
 4522 06d2 95040000 		.4byte	0x495
 4523 06d6 19       		.uleb128 0x19
ARM GAS  C:\Users\ingan\AppData\Local\Temp\cc5yuDXv.s 			page 118


 4524 06d7 A1040000 		.4byte	0x4a1
 4525 06db 01040000 		.4byte	.LLST16
 4526 06df 24       		.uleb128 0x24
 4527 06e0 AB040000 		.4byte	0x4ab
 4528 06e4 24       		.uleb128 0x24
 4529 06e5 B7040000 		.4byte	0x4b7
 4530 06e9 25       		.uleb128 0x25
 4531 06ea C3040000 		.4byte	0x4c3
 4532 06ee 00       		.byte	0
 4533 06ef 24       		.uleb128 0x24
 4534 06f0 CF040000 		.4byte	0x4cf
 4535 06f4 24       		.uleb128 0x24
 4536 06f5 DB040000 		.4byte	0x4db
 4537 06f9 1C       		.uleb128 0x1c
 4538 06fa 28000000 		.4byte	.Ldebug_ranges0+0x28
 4539 06fe 1B       		.uleb128 0x1b
 4540 06ff 7E040000 		.4byte	0x47e
 4541 0703 21040000 		.4byte	.LLST17
 4542 0707 1C       		.uleb128 0x1c
 4543 0708 28000000 		.4byte	.Ldebug_ranges0+0x28
 4544 070c 19       		.uleb128 0x19
 4545 070d 8A040000 		.4byte	0x48a
 4546 0711 3F040000 		.4byte	.LLST18
 4547 0715 19       		.uleb128 0x19
 4548 0716 95040000 		.4byte	0x495
 4549 071a B1040000 		.4byte	.LLST19
 4550 071e 19       		.uleb128 0x19
 4551 071f A1040000 		.4byte	0x4a1
 4552 0723 D1040000 		.4byte	.LLST20
 4553 0727 19       		.uleb128 0x19
 4554 0728 AB040000 		.4byte	0x4ab
 4555 072c 2C050000 		.4byte	.LLST21
 4556 0730 19       		.uleb128 0x19
 4557 0731 B7040000 		.4byte	0x4b7
 4558 0735 6C050000 		.4byte	.LLST22
 4559 0739 19       		.uleb128 0x19
 4560 073a C3040000 		.4byte	0x4c3
 4561 073e 80050000 		.4byte	.LLST23
 4562 0742 19       		.uleb128 0x19
 4563 0743 CF040000 		.4byte	0x4cf
 4564 0747 B4050000 		.4byte	.LLST24
 4565 074b 19       		.uleb128 0x19
 4566 074c DB040000 		.4byte	0x4db
 4567 0750 C9050000 		.4byte	.LLST25
 4568 0754 1C       		.uleb128 0x1c
 4569 0755 28000000 		.4byte	.Ldebug_ranges0+0x28
 4570 0759 19       		.uleb128 0x19
 4571 075a E8040000 		.4byte	0x4e8
 4572 075e 19060000 		.4byte	.LLST26
 4573 0762 26       		.uleb128 0x26
 4574 0763 D2030000 		.4byte	0x3d2
 4575 0767 F4000000 		.4byte	.LBB46
 4576 076b 40000000 		.4byte	.Ldebug_ranges0+0x40
 4577 076f 01       		.byte	0x1
 4578 0770 6602     		.2byte	0x266
 4579 0772 8F070000 		.4byte	0x78f
 4580 0776 1B       		.uleb128 0x1b
ARM GAS  C:\Users\ingan\AppData\Local\Temp\cc5yuDXv.s 			page 119


 4581 0777 E3030000 		.4byte	0x3e3
 4582 077b 65060000 		.4byte	.LLST27
 4583 077f 1C       		.uleb128 0x1c
 4584 0780 40000000 		.4byte	.Ldebug_ranges0+0x40
 4585 0784 19       		.uleb128 0x19
 4586 0785 EF030000 		.4byte	0x3ef
 4587 0789 78060000 		.4byte	.LLST28
 4588 078d 00       		.byte	0
 4589 078e 00       		.byte	0
 4590 078f 26       		.uleb128 0x26
 4591 0790 76060000 		.4byte	0x676
 4592 0794 40020000 		.4byte	.LBB54
 4593 0798 68000000 		.4byte	.Ldebug_ranges0+0x68
 4594 079c 01       		.byte	0x1
 4595 079d 0303     		.2byte	0x303
 4596 079f EA070000 		.4byte	0x7ea
 4597 07a3 1C       		.uleb128 0x1c
 4598 07a4 68000000 		.4byte	.Ldebug_ranges0+0x68
 4599 07a8 19       		.uleb128 0x19
 4600 07a9 87060000 		.4byte	0x687
 4601 07ad 8D060000 		.4byte	.LLST29
 4602 07b1 24       		.uleb128 0x24
 4603 07b2 93060000 		.4byte	0x693
 4604 07b6 19       		.uleb128 0x19
 4605 07b7 9F060000 		.4byte	0x69f
 4606 07bb A7060000 		.4byte	.LLST30
 4607 07bf 1A       		.uleb128 0x1a
 4608 07c0 D2030000 		.4byte	0x3d2
 4609 07c4 42020000 		.4byte	.LBB56
 4610 07c8 80000000 		.4byte	.Ldebug_ranges0+0x80
 4611 07cc 01       		.byte	0x1
 4612 07cd 0D04     		.2byte	0x40d
 4613 07cf 1B       		.uleb128 0x1b
 4614 07d0 E3030000 		.4byte	0x3e3
 4615 07d4 C9060000 		.4byte	.LLST31
 4616 07d8 1C       		.uleb128 0x1c
 4617 07d9 80000000 		.4byte	.Ldebug_ranges0+0x80
 4618 07dd 19       		.uleb128 0x19
 4619 07de EF030000 		.4byte	0x3ef
 4620 07e2 E7060000 		.4byte	.LLST32
 4621 07e6 00       		.byte	0
 4622 07e7 00       		.byte	0
 4623 07e8 00       		.byte	0
 4624 07e9 00       		.byte	0
 4625 07ea 26       		.uleb128 0x26
 4626 07eb 1B060000 		.4byte	0x61b
 4627 07ef 96020000 		.4byte	.LBB65
 4628 07f3 A8000000 		.4byte	.Ldebug_ranges0+0xa8
 4629 07f7 01       		.byte	0x1
 4630 07f8 1503     		.2byte	0x315
 4631 07fa 0E080000 		.4byte	0x80e
 4632 07fe 1C       		.uleb128 0x1c
 4633 07ff A8000000 		.4byte	.Ldebug_ranges0+0xa8
 4634 0803 19       		.uleb128 0x19
 4635 0804 28060000 		.4byte	0x628
 4636 0808 09070000 		.4byte	.LLST33
 4637 080c 00       		.byte	0
ARM GAS  C:\Users\ingan\AppData\Local\Temp\cc5yuDXv.s 			page 120


 4638 080d 00       		.byte	0
 4639 080e 22       		.uleb128 0x22
 4640 080f FE010000 		.4byte	.LVL79
 4641 0813 560E0000 		.4byte	0xe56
 4642 0817 23       		.uleb128 0x23
 4643 0818 01       		.uleb128 0x1
 4644 0819 50       		.byte	0x50
 4645 081a 02       		.uleb128 0x2
 4646 081b 74       		.byte	0x74
 4647 081c 00       		.sleb128 0
 4648 081d 23       		.uleb128 0x23
 4649 081e 01       		.uleb128 0x1
 4650 081f 51       		.byte	0x51
 4651 0820 02       		.uleb128 0x2
 4652 0821 7A       		.byte	0x7a
 4653 0822 00       		.sleb128 0
 4654 0823 00       		.byte	0
 4655 0824 00       		.byte	0
 4656 0825 00       		.byte	0
 4657 0826 00       		.byte	0
 4658 0827 00       		.byte	0
 4659 0828 10       		.uleb128 0x10
 4660 0829 23060000 		.4byte	.LASF81
 4661 082d 01       		.byte	0x1
 4662 082e CF04     		.2byte	0x4cf
 4663 0830 6B000000 		.4byte	0x6b
 4664 0834 01       		.byte	0x1
 4665 0835 6A080000 		.4byte	0x86a
 4666 0839 12       		.uleb128 0x12
 4667 083a FC030000 		.4byte	.LASF82
 4668 083e 01       		.byte	0x1
 4669 083f D104     		.2byte	0x4d1
 4670 0841 6B000000 		.4byte	0x6b
 4671 0845 12       		.uleb128 0x12
 4672 0846 6D070000 		.4byte	.LASF65
 4673 084a 01       		.byte	0x1
 4674 084b D304     		.2byte	0x4d3
 4675 084d 6B000000 		.4byte	0x6b
 4676 0851 12       		.uleb128 0x12
 4677 0852 7A070000 		.4byte	.LASF83
 4678 0856 01       		.byte	0x1
 4679 0857 D404     		.2byte	0x4d4
 4680 0859 6B000000 		.4byte	0x6b
 4681 085d 12       		.uleb128 0x12
 4682 085e C3050000 		.4byte	.LASF62
 4683 0862 01       		.byte	0x1
 4684 0863 D504     		.2byte	0x4d5
 4685 0865 FC030000 		.4byte	0x3fc
 4686 0869 00       		.byte	0
 4687 086a 10       		.uleb128 0x10
 4688 086b 60000000 		.4byte	.LASF84
 4689 086f 01       		.byte	0x1
 4690 0870 8A04     		.2byte	0x48a
 4691 0872 6B000000 		.4byte	0x6b
 4692 0876 01       		.byte	0x1
 4693 0877 93080000 		.4byte	0x893
 4694 087b 12       		.uleb128 0x12
ARM GAS  C:\Users\ingan\AppData\Local\Temp\cc5yuDXv.s 			page 121


 4695 087c FC030000 		.4byte	.LASF82
 4696 0880 01       		.byte	0x1
 4697 0881 8C04     		.2byte	0x48c
 4698 0883 6B000000 		.4byte	0x6b
 4699 0887 15       		.uleb128 0x15
 4700 0888 657000   		.ascii	"ep\000"
 4701 088b 01       		.byte	0x1
 4702 088c 8D04     		.2byte	0x48d
 4703 088e 6B000000 		.4byte	0x6b
 4704 0892 00       		.byte	0
 4705 0893 10       		.uleb128 0x10
 4706 0894 62010000 		.4byte	.LASF85
 4707 0898 01       		.byte	0x1
 4708 0899 5904     		.2byte	0x459
 4709 089b 6B000000 		.4byte	0x6b
 4710 089f 01       		.byte	0x1
 4711 08a0 BC080000 		.4byte	0x8bc
 4712 08a4 12       		.uleb128 0x12
 4713 08a5 FC030000 		.4byte	.LASF82
 4714 08a9 01       		.byte	0x1
 4715 08aa 5B04     		.2byte	0x45b
 4716 08ac 6B000000 		.4byte	0x6b
 4717 08b0 15       		.uleb128 0x15
 4718 08b1 657000   		.ascii	"ep\000"
 4719 08b4 01       		.byte	0x1
 4720 08b5 5C04     		.2byte	0x45c
 4721 08b7 6B000000 		.4byte	0x6b
 4722 08bb 00       		.byte	0
 4723 08bc 27       		.uleb128 0x27
 4724 08bd B7040000 		.4byte	.LASF121
 4725 08c1 01       		.byte	0x1
 4726 08c2 54       		.byte	0x54
 4727 08c3 6B000000 		.4byte	0x6b
 4728 08c7 00000000 		.4byte	.LFB0
 4729 08cb 24040000 		.4byte	.LFE0-.LFB0
 4730 08cf 01       		.uleb128 0x1
 4731 08d0 9C       		.byte	0x9c
 4732 08d1 550B0000 		.4byte	0xb55
 4733 08d5 28       		.uleb128 0x28
 4734 08d6 FC030000 		.4byte	.LASF82
 4735 08da 01       		.byte	0x1
 4736 08db 56       		.byte	0x56
 4737 08dc 6B000000 		.4byte	0x6b
 4738 08e0 00       		.byte	0
 4739 08e1 29       		.uleb128 0x29
 4740 08e2 D2000000 		.4byte	.LASF86
 4741 08e6 01       		.byte	0x1
 4742 08e7 57       		.byte	0x57
 4743 08e8 6B000000 		.4byte	0x6b
 4744 08ec DD070000 		.4byte	.LLST34
 4745 08f0 29       		.uleb128 0x29
 4746 08f1 51000000 		.4byte	.LASF87
 4747 08f5 01       		.byte	0x1
 4748 08f6 58       		.byte	0x58
 4749 08f7 6B000000 		.4byte	0x6b
 4750 08fb F0070000 		.4byte	.LLST35
 4751 08ff 29       		.uleb128 0x29
ARM GAS  C:\Users\ingan\AppData\Local\Temp\cc5yuDXv.s 			page 122


 4752 0900 FC000000 		.4byte	.LASF88
 4753 0904 01       		.byte	0x1
 4754 0905 59       		.byte	0x59
 4755 0906 6B000000 		.4byte	0x6b
 4756 090a 03080000 		.4byte	.LLST36
 4757 090e 29       		.uleb128 0x29
 4758 090f 44060000 		.4byte	.LASF89
 4759 0913 01       		.byte	0x1
 4760 0914 5C       		.byte	0x5c
 4761 0915 04020000 		.4byte	0x204
 4762 0919 79080000 		.4byte	.LLST37
 4763 091d 29       		.uleb128 0x29
 4764 091e 12060000 		.4byte	.LASF90
 4765 0922 01       		.byte	0x1
 4766 0923 5E       		.byte	0x5e
 4767 0924 6B000000 		.4byte	0x6b
 4768 0928 BB080000 		.4byte	.LLST38
 4769 092c 29       		.uleb128 0x29
 4770 092d 80060000 		.4byte	.LASF91
 4771 0931 01       		.byte	0x1
 4772 0932 5F       		.byte	0x5f
 4773 0933 6B000000 		.4byte	0x6b
 4774 0937 F1080000 		.4byte	.LLST39
 4775 093b 2A       		.uleb128 0x2a
 4776 093c 11050000 		.4byte	.LASF92
 4777 0940 01       		.byte	0x1
 4778 0941 63       		.byte	0x63
 4779 0942 650B0000 		.4byte	0xb65
 4780 0946 05       		.uleb128 0x5
 4781 0947 03       		.byte	0x3
 4782 0948 00000000 		.4byte	USBUART_tBuffer.5380
 4783 094c 29       		.uleb128 0x29
 4784 094d C3050000 		.4byte	.LASF62
 4785 0951 01       		.byte	0x1
 4786 0952 64       		.byte	0x64
 4787 0953 FC030000 		.4byte	0x3fc
 4788 0957 0F090000 		.4byte	.LLST40
 4789 095b 26       		.uleb128 0x26
 4790 095c 28080000 		.4byte	0x828
 4791 0960 78000000 		.4byte	.LBB95
 4792 0964 D8000000 		.4byte	.Ldebug_ranges0+0xd8
 4793 0968 01       		.byte	0x1
 4794 0969 2001     		.2byte	0x120
 4795 096b BF090000 		.4byte	0x9bf
 4796 096f 1C       		.uleb128 0x1c
 4797 0970 D8000000 		.4byte	.Ldebug_ranges0+0xd8
 4798 0974 19       		.uleb128 0x19
 4799 0975 39080000 		.4byte	0x839
 4800 0979 43090000 		.4byte	.LLST41
 4801 097d 19       		.uleb128 0x19
 4802 097e 45080000 		.4byte	0x845
 4803 0982 63090000 		.4byte	.LLST42
 4804 0986 19       		.uleb128 0x19
 4805 0987 51080000 		.4byte	0x851
 4806 098b 81090000 		.4byte	.LLST43
 4807 098f 24       		.uleb128 0x24
 4808 0990 5D080000 		.4byte	0x85d
ARM GAS  C:\Users\ingan\AppData\Local\Temp\cc5yuDXv.s 			page 123


 4809 0994 1A       		.uleb128 0x1a
 4810 0995 D2030000 		.4byte	0x3d2
 4811 0999 7C000000 		.4byte	.LBB97
 4812 099d F8000000 		.4byte	.Ldebug_ranges0+0xf8
 4813 09a1 01       		.byte	0x1
 4814 09a2 DB04     		.2byte	0x4db
 4815 09a4 1B       		.uleb128 0x1b
 4816 09a5 E3030000 		.4byte	0x3e3
 4817 09a9 A5090000 		.4byte	.LLST44
 4818 09ad 1C       		.uleb128 0x1c
 4819 09ae F8000000 		.4byte	.Ldebug_ranges0+0xf8
 4820 09b2 19       		.uleb128 0x19
 4821 09b3 EF030000 		.4byte	0x3ef
 4822 09b7 B8090000 		.4byte	.LLST45
 4823 09bb 00       		.byte	0
 4824 09bc 00       		.byte	0
 4825 09bd 00       		.byte	0
 4826 09be 00       		.byte	0
 4827 09bf 26       		.uleb128 0x26
 4828 09c0 07040000 		.4byte	0x407
 4829 09c4 D8000000 		.4byte	.LBB112
 4830 09c8 30010000 		.4byte	.Ldebug_ranges0+0x130
 4831 09cc 01       		.byte	0x1
 4832 09cd 2F01     		.2byte	0x12f
 4833 09cf 060A0000 		.4byte	0xa06
 4834 09d3 1C       		.uleb128 0x1c
 4835 09d4 30010000 		.4byte	.Ldebug_ranges0+0x130
 4836 09d8 24       		.uleb128 0x24
 4837 09d9 14040000 		.4byte	0x414
 4838 09dd 24       		.uleb128 0x24
 4839 09de 1F040000 		.4byte	0x41f
 4840 09e2 24       		.uleb128 0x24
 4841 09e3 2B040000 		.4byte	0x42b
 4842 09e7 24       		.uleb128 0x24
 4843 09e8 37040000 		.4byte	0x437
 4844 09ec 24       		.uleb128 0x24
 4845 09ed 41040000 		.4byte	0x441
 4846 09f1 24       		.uleb128 0x24
 4847 09f2 4D040000 		.4byte	0x44d
 4848 09f6 24       		.uleb128 0x24
 4849 09f7 59040000 		.4byte	0x459
 4850 09fb 2B       		.uleb128 0x2b
 4851 09fc 18030000 		.4byte	.LVL184
 4852 0a00 0E050000 		.4byte	0x50e
 4853 0a04 00       		.byte	0
 4854 0a05 00       		.byte	0
 4855 0a06 26       		.uleb128 0x26
 4856 0a07 6A080000 		.4byte	0x86a
 4857 0a0b 04010000 		.4byte	.LBB115
 4858 0a0f 48010000 		.4byte	.Ldebug_ranges0+0x148
 4859 0a13 01       		.byte	0x1
 4860 0a14 3D01     		.2byte	0x13d
 4861 0a16 330A0000 		.4byte	0xa33
 4862 0a1a 1C       		.uleb128 0x1c
 4863 0a1b 48010000 		.4byte	.Ldebug_ranges0+0x148
 4864 0a1f 19       		.uleb128 0x19
 4865 0a20 7B080000 		.4byte	0x87b
ARM GAS  C:\Users\ingan\AppData\Local\Temp\cc5yuDXv.s 			page 124


 4866 0a24 CD090000 		.4byte	.LLST46
 4867 0a28 19       		.uleb128 0x19
 4868 0a29 87080000 		.4byte	0x887
 4869 0a2d ED090000 		.4byte	.LLST47
 4870 0a31 00       		.byte	0
 4871 0a32 00       		.byte	0
 4872 0a33 2C       		.uleb128 0x2c
 4873 0a34 93080000 		.4byte	0x893
 4874 0a38 76010000 		.4byte	.LBB118
 4875 0a3c 40000000 		.4byte	.LBE118-.LBB118
 4876 0a40 01       		.byte	0x1
 4877 0a41 5B01     		.2byte	0x15b
 4878 0a43 640A0000 		.4byte	0xa64
 4879 0a47 2D       		.uleb128 0x2d
 4880 0a48 76010000 		.4byte	.LBB119
 4881 0a4c 40000000 		.4byte	.LBE119-.LBB119
 4882 0a50 19       		.uleb128 0x19
 4883 0a51 A4080000 		.4byte	0x8a4
 4884 0a55 000A0000 		.4byte	.LLST48
 4885 0a59 19       		.uleb128 0x19
 4886 0a5a B0080000 		.4byte	0x8b0
 4887 0a5e 140A0000 		.4byte	.LLST49
 4888 0a62 00       		.byte	0
 4889 0a63 00       		.byte	0
 4890 0a64 26       		.uleb128 0x26
 4891 0a65 D2030000 		.4byte	0x3d2
 4892 0a69 D2010000 		.4byte	.LBB120
 4893 0a6d 60010000 		.4byte	.Ldebug_ranges0+0x160
 4894 0a71 01       		.byte	0x1
 4895 0a72 0E01     		.2byte	0x10e
 4896 0a74 910A0000 		.4byte	0xa91
 4897 0a78 1B       		.uleb128 0x1b
 4898 0a79 E3030000 		.4byte	0x3e3
 4899 0a7d 270A0000 		.4byte	.LLST50
 4900 0a81 1C       		.uleb128 0x1c
 4901 0a82 60010000 		.4byte	.Ldebug_ranges0+0x160
 4902 0a86 19       		.uleb128 0x19
 4903 0a87 EF030000 		.4byte	0x3ef
 4904 0a8b 470A0000 		.4byte	.LLST51
 4905 0a8f 00       		.byte	0
 4906 0a90 00       		.byte	0
 4907 0a91 2E       		.uleb128 0x2e
 4908 0a92 01050000 		.4byte	0x501
 4909 0a96 46030000 		.4byte	.LBB128
 4910 0a9a 80010000 		.4byte	.Ldebug_ranges0+0x180
 4911 0a9e 01       		.byte	0x1
 4912 0a9f 70       		.byte	0x70
 4913 0aa0 2F       		.uleb128 0x2f
 4914 0aa1 D2030000 		.4byte	0x3d2
 4915 0aa5 A2030000 		.4byte	.LBB132
 4916 0aa9 98010000 		.4byte	.Ldebug_ranges0+0x198
 4917 0aad 01       		.byte	0x1
 4918 0aae 78       		.byte	0x78
 4919 0aaf CC0A0000 		.4byte	0xacc
 4920 0ab3 1B       		.uleb128 0x1b
 4921 0ab4 E3030000 		.4byte	0x3e3
 4922 0ab8 880A0000 		.4byte	.LLST52
ARM GAS  C:\Users\ingan\AppData\Local\Temp\cc5yuDXv.s 			page 125


 4923 0abc 1C       		.uleb128 0x1c
 4924 0abd 98010000 		.4byte	.Ldebug_ranges0+0x198
 4925 0ac1 19       		.uleb128 0x19
 4926 0ac2 EF030000 		.4byte	0x3ef
 4927 0ac6 9B0A0000 		.4byte	.LLST53
 4928 0aca 00       		.byte	0
 4929 0acb 00       		.byte	0
 4930 0acc 30       		.uleb128 0x30
 4931 0acd E8000000 		.4byte	.LVL144
 4932 0ad1 620E0000 		.4byte	0xe62
 4933 0ad5 30       		.uleb128 0x30
 4934 0ad6 C8010000 		.4byte	.LVL156
 4935 0ada 620E0000 		.4byte	0xe62
 4936 0ade 31       		.uleb128 0x31
 4937 0adf 0E020000 		.4byte	.LVL164
 4938 0ae3 71040000 		.4byte	0x471
 4939 0ae7 F10A0000 		.4byte	0xaf1
 4940 0aeb 23       		.uleb128 0x23
 4941 0aec 01       		.uleb128 0x1
 4942 0aed 50       		.byte	0x50
 4943 0aee 01       		.uleb128 0x1
 4944 0aef 31       		.byte	0x31
 4945 0af0 00       		.byte	0
 4946 0af1 30       		.uleb128 0x30
 4947 0af2 26020000 		.4byte	.LVL167
 4948 0af6 6D0E0000 		.4byte	0xe6d
 4949 0afa 30       		.uleb128 0x30
 4950 0afb 8E020000 		.4byte	.LVL177
 4951 0aff 6D0E0000 		.4byte	0xe6d
 4952 0b03 30       		.uleb128 0x30
 4953 0b04 FE020000 		.4byte	.LVL180
 4954 0b08 6D0E0000 		.4byte	0xe6d
 4955 0b0c 30       		.uleb128 0x30
 4956 0b0d 0E030000 		.4byte	.LVL182
 4957 0b11 6D0E0000 		.4byte	0xe6d
 4958 0b15 30       		.uleb128 0x30
 4959 0b16 34030000 		.4byte	.LVL185
 4960 0b1a 6D0E0000 		.4byte	0xe6d
 4961 0b1e 30       		.uleb128 0x30
 4962 0b1f 62030000 		.4byte	.LVL186
 4963 0b23 6D0E0000 		.4byte	0xe6d
 4964 0b27 30       		.uleb128 0x30
 4965 0b28 7E030000 		.4byte	.LVL187
 4966 0b2c 620E0000 		.4byte	0xe62
 4967 0b30 30       		.uleb128 0x30
 4968 0b31 9A030000 		.4byte	.LVL188
 4969 0b35 620E0000 		.4byte	0xe62
 4970 0b39 30       		.uleb128 0x30
 4971 0b3a A2030000 		.4byte	.LVL189
 4972 0b3e 780E0000 		.4byte	0xe78
 4973 0b42 30       		.uleb128 0x30
 4974 0b43 E0030000 		.4byte	.LVL194
 4975 0b47 6D0E0000 		.4byte	0xe6d
 4976 0b4b 2B       		.uleb128 0x2b
 4977 0b4c F2030000 		.4byte	.LVL196
 4978 0b50 8A050000 		.4byte	0x58a
 4979 0b54 00       		.byte	0
ARM GAS  C:\Users\ingan\AppData\Local\Temp\cc5yuDXv.s 			page 126


 4980 0b55 0C       		.uleb128 0xc
 4981 0b56 BC000000 		.4byte	0xbc
 4982 0b5a 650B0000 		.4byte	0xb65
 4983 0b5e 0D       		.uleb128 0xd
 4984 0b5f C8000000 		.4byte	0xc8
 4985 0b63 01       		.byte	0x1
 4986 0b64 00       		.byte	0
 4987 0b65 05       		.uleb128 0x5
 4988 0b66 550B0000 		.4byte	0xb55
 4989 0b6a 18       		.uleb128 0x18
 4990 0b6b 07040000 		.4byte	0x407
 4991 0b6f 00000000 		.4byte	.LFB5
 4992 0b73 10000000 		.4byte	.LFE5-.LFB5
 4993 0b77 01       		.uleb128 0x1
 4994 0b78 9C       		.byte	0x9c
 4995 0b79 AA0B0000 		.4byte	0xbaa
 4996 0b7d 24       		.uleb128 0x24
 4997 0b7e 14040000 		.4byte	0x414
 4998 0b82 24       		.uleb128 0x24
 4999 0b83 1F040000 		.4byte	0x41f
 5000 0b87 24       		.uleb128 0x24
 5001 0b88 2B040000 		.4byte	0x42b
 5002 0b8c 24       		.uleb128 0x24
 5003 0b8d 37040000 		.4byte	0x437
 5004 0b91 24       		.uleb128 0x24
 5005 0b92 41040000 		.4byte	0x441
 5006 0b96 24       		.uleb128 0x24
 5007 0b97 4D040000 		.4byte	0x44d
 5008 0b9b 24       		.uleb128 0x24
 5009 0b9c 59040000 		.4byte	0x459
 5010 0ba0 30       		.uleb128 0x30
 5011 0ba1 0A000000 		.4byte	.LVL198
 5012 0ba5 0E050000 		.4byte	0x50e
 5013 0ba9 00       		.byte	0
 5014 0baa 18       		.uleb128 0x18
 5015 0bab D2030000 		.4byte	0x3d2
 5016 0baf 00000000 		.4byte	.LFB6
 5017 0bb3 24000000 		.4byte	.LFE6-.LFB6
 5018 0bb7 01       		.uleb128 0x1
 5019 0bb8 9C       		.byte	0x9c
 5020 0bb9 D00B0000 		.4byte	0xbd0
 5021 0bbd 1B       		.uleb128 0x1b
 5022 0bbe E3030000 		.4byte	0x3e3
 5023 0bc2 B00A0000 		.4byte	.LLST54
 5024 0bc6 19       		.uleb128 0x19
 5025 0bc7 EF030000 		.4byte	0x3ef
 5026 0bcb D10A0000 		.4byte	.LLST55
 5027 0bcf 00       		.byte	0
 5028 0bd0 32       		.uleb128 0x32
 5029 0bd1 01050000 		.4byte	0x501
 5030 0bd5 00000000 		.4byte	.LFB7
 5031 0bd9 18000000 		.4byte	.LFE7-.LFB7
 5032 0bdd 01       		.uleb128 0x1
 5033 0bde 9C       		.byte	0x9c
 5034 0bdf 18       		.uleb128 0x18
 5035 0be0 76060000 		.4byte	0x676
 5036 0be4 00000000 		.4byte	.LFB8
ARM GAS  C:\Users\ingan\AppData\Local\Temp\cc5yuDXv.s 			page 127


 5037 0be8 44000000 		.4byte	.LFE8-.LFB8
 5038 0bec 01       		.uleb128 0x1
 5039 0bed 9C       		.byte	0x9c
 5040 0bee 370C0000 		.4byte	0xc37
 5041 0bf2 19       		.uleb128 0x19
 5042 0bf3 87060000 		.4byte	0x687
 5043 0bf7 F10A0000 		.4byte	.LLST56
 5044 0bfb 19       		.uleb128 0x19
 5045 0bfc 93060000 		.4byte	0x693
 5046 0c00 0B0B0000 		.4byte	.LLST57
 5047 0c04 19       		.uleb128 0x19
 5048 0c05 9F060000 		.4byte	0x69f
 5049 0c09 290B0000 		.4byte	.LLST58
 5050 0c0d 1A       		.uleb128 0x1a
 5051 0c0e D2030000 		.4byte	0x3d2
 5052 0c12 02000000 		.4byte	.LBB139
 5053 0c16 B8010000 		.4byte	.Ldebug_ranges0+0x1b8
 5054 0c1a 01       		.byte	0x1
 5055 0c1b 0D04     		.2byte	0x40d
 5056 0c1d 1B       		.uleb128 0x1b
 5057 0c1e E3030000 		.4byte	0x3e3
 5058 0c22 4B0B0000 		.4byte	.LLST59
 5059 0c26 1C       		.uleb128 0x1c
 5060 0c27 B8010000 		.4byte	.Ldebug_ranges0+0x1b8
 5061 0c2b 19       		.uleb128 0x19
 5062 0c2c EF030000 		.4byte	0x3ef
 5063 0c30 690B0000 		.4byte	.LLST60
 5064 0c34 00       		.byte	0
 5065 0c35 00       		.byte	0
 5066 0c36 00       		.byte	0
 5067 0c37 1D       		.uleb128 0x1d
 5068 0c38 5B030000 		.4byte	.LASF93
 5069 0c3c 01       		.byte	0x1
 5070 0c3d 3004     		.2byte	0x430
 5071 0c3f 00000000 		.4byte	.LFB9
 5072 0c43 48000000 		.4byte	.LFE9-.LFB9
 5073 0c47 01       		.uleb128 0x1
 5074 0c48 9C       		.byte	0x9c
 5075 0c49 5E0C0000 		.4byte	0xc5e
 5076 0c4d 1E       		.uleb128 0x1e
 5077 0c4e 43040000 		.4byte	.LASF95
 5078 0c52 01       		.byte	0x1
 5079 0c53 3004     		.2byte	0x430
 5080 0c55 6B000000 		.4byte	0x6b
 5081 0c59 8B0B0000 		.4byte	.LLST61
 5082 0c5d 00       		.byte	0
 5083 0c5e 18       		.uleb128 0x18
 5084 0c5f 93080000 		.4byte	0x893
 5085 0c63 00000000 		.4byte	.LFB10
 5086 0c67 54000000 		.4byte	.LFE10-.LFB10
 5087 0c6b 01       		.uleb128 0x1
 5088 0c6c 9C       		.byte	0x9c
 5089 0c6d 8A0C0000 		.4byte	0xc8a
 5090 0c71 25       		.uleb128 0x25
 5091 0c72 A4080000 		.4byte	0x8a4
 5092 0c76 00       		.byte	0
 5093 0c77 19       		.uleb128 0x19
ARM GAS  C:\Users\ingan\AppData\Local\Temp\cc5yuDXv.s 			page 128


 5094 0c78 B0080000 		.4byte	0x8b0
 5095 0c7c A90B0000 		.4byte	.LLST62
 5096 0c80 30       		.uleb128 0x30
 5097 0c81 44000000 		.4byte	.LVL220
 5098 0c85 620E0000 		.4byte	0xe62
 5099 0c89 00       		.byte	0
 5100 0c8a 18       		.uleb128 0x18
 5101 0c8b 6A080000 		.4byte	0x86a
 5102 0c8f 00000000 		.4byte	.LFB11
 5103 0c93 78000000 		.4byte	.LFE11-.LFB11
 5104 0c97 01       		.uleb128 0x1
 5105 0c98 9C       		.byte	0x9c
 5106 0c99 BF0C0000 		.4byte	0xcbf
 5107 0c9d 25       		.uleb128 0x25
 5108 0c9e 7B080000 		.4byte	0x87b
 5109 0ca2 00       		.byte	0
 5110 0ca3 19       		.uleb128 0x19
 5111 0ca4 87080000 		.4byte	0x887
 5112 0ca8 C70B0000 		.4byte	.LLST63
 5113 0cac 30       		.uleb128 0x30
 5114 0cad 58000000 		.4byte	.LVL224
 5115 0cb1 620E0000 		.4byte	0xe62
 5116 0cb5 30       		.uleb128 0x30
 5117 0cb6 6C000000 		.4byte	.LVL226
 5118 0cba 620E0000 		.4byte	0xe62
 5119 0cbe 00       		.byte	0
 5120 0cbf 18       		.uleb128 0x18
 5121 0cc0 28080000 		.4byte	0x828
 5122 0cc4 00000000 		.4byte	.LFB12
 5123 0cc8 70000000 		.4byte	.LFE12-.LFB12
 5124 0ccc 01       		.uleb128 0x1
 5125 0ccd 9C       		.byte	0x9c
 5126 0cce 1A0D0000 		.4byte	0xd1a
 5127 0cd2 19       		.uleb128 0x19
 5128 0cd3 39080000 		.4byte	0x839
 5129 0cd7 E50B0000 		.4byte	.LLST64
 5130 0cdb 33       		.uleb128 0x33
 5131 0cdc 45080000 		.4byte	0x845
 5132 0ce0 01       		.uleb128 0x1
 5133 0ce1 52       		.byte	0x52
 5134 0ce2 19       		.uleb128 0x19
 5135 0ce3 51080000 		.4byte	0x851
 5136 0ce7 1C0C0000 		.4byte	.LLST65
 5137 0ceb 24       		.uleb128 0x24
 5138 0cec 5D080000 		.4byte	0x85d
 5139 0cf0 1A       		.uleb128 0x1a
 5140 0cf1 D2030000 		.4byte	0x3d2
 5141 0cf5 06000000 		.4byte	.LBB147
 5142 0cf9 E0010000 		.4byte	.Ldebug_ranges0+0x1e0
 5143 0cfd 01       		.byte	0x1
 5144 0cfe DB04     		.2byte	0x4db
 5145 0d00 1B       		.uleb128 0x1b
 5146 0d01 E3030000 		.4byte	0x3e3
 5147 0d05 400C0000 		.4byte	.LLST66
 5148 0d09 1C       		.uleb128 0x1c
 5149 0d0a E0010000 		.4byte	.Ldebug_ranges0+0x1e0
 5150 0d0e 19       		.uleb128 0x19
ARM GAS  C:\Users\ingan\AppData\Local\Temp\cc5yuDXv.s 			page 129


 5151 0d0f EF030000 		.4byte	0x3ef
 5152 0d13 530C0000 		.4byte	.LLST67
 5153 0d17 00       		.byte	0
 5154 0d18 00       		.byte	0
 5155 0d19 00       		.byte	0
 5156 0d1a 34       		.uleb128 0x34
 5157 0d1b 75030000 		.4byte	.LASF96
 5158 0d1f 03       		.byte	0x3
 5159 0d20 D202     		.2byte	0x2d2
 5160 0d22 BC000000 		.4byte	0xbc
 5161 0d26 34       		.uleb128 0x34
 5162 0d27 2C010000 		.4byte	.LASF97
 5163 0d2b 03       		.byte	0x3
 5164 0d2c D402     		.2byte	0x2d4
 5165 0d2e BC000000 		.4byte	0xbc
 5166 0d32 34       		.uleb128 0x34
 5167 0d33 D2040000 		.4byte	.LASF98
 5168 0d37 03       		.byte	0x3
 5169 0d38 D502     		.2byte	0x2d5
 5170 0d3a BC000000 		.4byte	0xbc
 5171 0d3e 34       		.uleb128 0x34
 5172 0d3f B0000000 		.4byte	.LASF99
 5173 0d43 03       		.byte	0x3
 5174 0d44 D602     		.2byte	0x2d6
 5175 0d46 BC000000 		.4byte	0xbc
 5176 0d4a 0C       		.uleb128 0xc
 5177 0d4b FC040000 		.4byte	0x4fc
 5178 0d4f 5A0D0000 		.4byte	0xd5a
 5179 0d53 0D       		.uleb128 0xd
 5180 0d54 C8000000 		.4byte	0xc8
 5181 0d58 11       		.byte	0x11
 5182 0d59 00       		.byte	0
 5183 0d5a 35       		.uleb128 0x35
 5184 0d5b EF040000 		.4byte	.LASF100
 5185 0d5f 04       		.byte	0x4
 5186 0d60 61       		.byte	0x61
 5187 0d61 650D0000 		.4byte	0xd65
 5188 0d65 13       		.uleb128 0x13
 5189 0d66 4A0D0000 		.4byte	0xd4a
 5190 0d6a 0C       		.uleb128 0xc
 5191 0d6b 02040000 		.4byte	0x402
 5192 0d6f 7A0D0000 		.4byte	0xd7a
 5193 0d73 0D       		.uleb128 0xd
 5194 0d74 C8000000 		.4byte	0xc8
 5195 0d78 00       		.byte	0
 5196 0d79 00       		.byte	0
 5197 0d7a 35       		.uleb128 0x35
 5198 0d7b 4C040000 		.4byte	.LASF101
 5199 0d7f 04       		.byte	0x4
 5200 0d80 67       		.byte	0x67
 5201 0d81 850D0000 		.4byte	0xd85
 5202 0d85 13       		.uleb128 0x13
 5203 0d86 6A0D0000 		.4byte	0xd6a
 5204 0d8a 0C       		.uleb128 0xc
 5205 0d8b FC040000 		.4byte	0x4fc
 5206 0d8f 9A0D0000 		.4byte	0xd9a
 5207 0d93 0D       		.uleb128 0xd
ARM GAS  C:\Users\ingan\AppData\Local\Temp\cc5yuDXv.s 			page 130


 5208 0d94 C8000000 		.4byte	0xc8
 5209 0d98 9E       		.byte	0x9e
 5210 0d99 00       		.byte	0
 5211 0d9a 35       		.uleb128 0x35
 5212 0d9b 92010000 		.4byte	.LASF102
 5213 0d9f 04       		.byte	0x4
 5214 0da0 69       		.byte	0x69
 5215 0da1 A50D0000 		.4byte	0xda5
 5216 0da5 13       		.uleb128 0x13
 5217 0da6 8A0D0000 		.4byte	0xd8a
 5218 0daa 0C       		.uleb128 0xc
 5219 0dab 6B000000 		.4byte	0x6b
 5220 0daf BA0D0000 		.4byte	0xdba
 5221 0db3 0D       		.uleb128 0xd
 5222 0db4 C8000000 		.4byte	0xc8
 5223 0db8 21       		.byte	0x21
 5224 0db9 00       		.byte	0
 5225 0dba 35       		.uleb128 0x35
 5226 0dbb 05000000 		.4byte	.LASF103
 5227 0dbf 04       		.byte	0x4
 5228 0dc0 6F       		.byte	0x6f
 5229 0dc1 AA0D0000 		.4byte	0xdaa
 5230 0dc5 35       		.uleb128 0x35
 5231 0dc6 8F030000 		.4byte	.LASF104
 5232 0dca 04       		.byte	0x4
 5233 0dcb 72       		.byte	0x72
 5234 0dcc BC000000 		.4byte	0xbc
 5235 0dd0 35       		.uleb128 0x35
 5236 0dd1 8A020000 		.4byte	.LASF105
 5237 0dd5 04       		.byte	0x4
 5238 0dd6 73       		.byte	0x73
 5239 0dd7 DB0D0000 		.4byte	0xddb
 5240 0ddb 05       		.uleb128 0x5
 5241 0ddc 550B0000 		.4byte	0xb55
 5242 0de0 35       		.uleb128 0x35
 5243 0de1 A4070000 		.4byte	.LASF106
 5244 0de5 04       		.byte	0x4
 5245 0de6 74       		.byte	0x74
 5246 0de7 EB0D0000 		.4byte	0xdeb
 5247 0deb 05       		.uleb128 0x5
 5248 0dec 550B0000 		.4byte	0xb55
 5249 0df0 35       		.uleb128 0x35
 5250 0df1 DF060000 		.4byte	.LASF107
 5251 0df5 04       		.byte	0x4
 5252 0df6 75       		.byte	0x75
 5253 0df7 BC000000 		.4byte	0xbc
 5254 0dfb 35       		.uleb128 0x35
 5255 0dfc 7A010000 		.4byte	.LASF108
 5256 0e00 04       		.byte	0x4
 5257 0e01 76       		.byte	0x76
 5258 0e02 060E0000 		.4byte	0xe06
 5259 0e06 05       		.uleb128 0x5
 5260 0e07 550B0000 		.4byte	0xb55
 5261 0e0b 35       		.uleb128 0x35
 5262 0e0c C3060000 		.4byte	.LASF109
 5263 0e10 04       		.byte	0x4
 5264 0e11 77       		.byte	0x77
ARM GAS  C:\Users\ingan\AppData\Local\Temp\cc5yuDXv.s 			page 131


 5265 0e12 F6040000 		.4byte	0x4f6
 5266 0e16 0C       		.uleb128 0xc
 5267 0e17 260E0000 		.4byte	0xe26
 5268 0e1b 260E0000 		.4byte	0xe26
 5269 0e1f 0D       		.uleb128 0xd
 5270 0e20 C8000000 		.4byte	0xc8
 5271 0e24 08       		.byte	0x8
 5272 0e25 00       		.byte	0
 5273 0e26 05       		.uleb128 0x5
 5274 0e27 44010000 		.4byte	0x144
 5275 0e2b 35       		.uleb128 0x35
 5276 0e2c AD010000 		.4byte	.LASF110
 5277 0e30 04       		.byte	0x4
 5278 0e31 79       		.byte	0x79
 5279 0e32 360E0000 		.4byte	0xe36
 5280 0e36 05       		.uleb128 0x5
 5281 0e37 160E0000 		.4byte	0xe16
 5282 0e3b 35       		.uleb128 0x35
 5283 0e3c C6030000 		.4byte	.LASF111
 5284 0e40 04       		.byte	0x4
 5285 0e41 7A       		.byte	0x7a
 5286 0e42 460E0000 		.4byte	0xe46
 5287 0e46 05       		.uleb128 0x5
 5288 0e47 10020000 		.4byte	0x210
 5289 0e4b 36       		.uleb128 0x36
 5290 0e4c 72060000 		.4byte	.LASF112
 5291 0e50 72060000 		.4byte	.LASF112
 5292 0e54 05       		.byte	0x5
 5293 0e55 BE       		.byte	0xbe
 5294 0e56 37       		.uleb128 0x37
 5295 0e57 5F060000 		.4byte	.LASF113
 5296 0e5b 5F060000 		.4byte	.LASF113
 5297 0e5f 04       		.byte	0x4
 5298 0e60 7C01     		.2byte	0x17c
 5299 0e62 36       		.uleb128 0x36
 5300 0e63 26070000 		.4byte	.LASF114
 5301 0e67 26070000 		.4byte	.LASF114
 5302 0e6b 04       		.byte	0x4
 5303 0e6c B3       		.byte	0xb3
 5304 0e6d 36       		.uleb128 0x36
 5305 0e6e 55070000 		.4byte	.LASF115
 5306 0e72 55070000 		.4byte	.LASF115
 5307 0e76 04       		.byte	0x4
 5308 0e77 A9       		.byte	0xa9
 5309 0e78 37       		.uleb128 0x37
 5310 0e79 37000000 		.4byte	.LASF116
 5311 0e7d 37000000 		.4byte	.LASF116
 5312 0e81 04       		.byte	0x4
 5313 0e82 4F01     		.2byte	0x14f
 5314 0e84 00       		.byte	0
 5315              		.section	.debug_abbrev,"",%progbits
 5316              	.Ldebug_abbrev0:
 5317 0000 01       		.uleb128 0x1
 5318 0001 11       		.uleb128 0x11
 5319 0002 01       		.byte	0x1
 5320 0003 25       		.uleb128 0x25
 5321 0004 0E       		.uleb128 0xe
ARM GAS  C:\Users\ingan\AppData\Local\Temp\cc5yuDXv.s 			page 132


 5322 0005 13       		.uleb128 0x13
 5323 0006 0B       		.uleb128 0xb
 5324 0007 03       		.uleb128 0x3
 5325 0008 0E       		.uleb128 0xe
 5326 0009 1B       		.uleb128 0x1b
 5327 000a 0E       		.uleb128 0xe
 5328 000b 55       		.uleb128 0x55
 5329 000c 17       		.uleb128 0x17
 5330 000d 11       		.uleb128 0x11
 5331 000e 01       		.uleb128 0x1
 5332 000f 10       		.uleb128 0x10
 5333 0010 17       		.uleb128 0x17
 5334 0011 00       		.byte	0
 5335 0012 00       		.byte	0
 5336 0013 02       		.uleb128 0x2
 5337 0014 24       		.uleb128 0x24
 5338 0015 00       		.byte	0
 5339 0016 0B       		.uleb128 0xb
 5340 0017 0B       		.uleb128 0xb
 5341 0018 3E       		.uleb128 0x3e
 5342 0019 0B       		.uleb128 0xb
 5343 001a 03       		.uleb128 0x3
 5344 001b 0E       		.uleb128 0xe
 5345 001c 00       		.byte	0
 5346 001d 00       		.byte	0
 5347 001e 03       		.uleb128 0x3
 5348 001f 24       		.uleb128 0x24
 5349 0020 00       		.byte	0
 5350 0021 0B       		.uleb128 0xb
 5351 0022 0B       		.uleb128 0xb
 5352 0023 3E       		.uleb128 0x3e
 5353 0024 0B       		.uleb128 0xb
 5354 0025 03       		.uleb128 0x3
 5355 0026 08       		.uleb128 0x8
 5356 0027 00       		.byte	0
 5357 0028 00       		.byte	0
 5358 0029 04       		.uleb128 0x4
 5359 002a 16       		.uleb128 0x16
 5360 002b 00       		.byte	0
 5361 002c 03       		.uleb128 0x3
 5362 002d 0E       		.uleb128 0xe
 5363 002e 3A       		.uleb128 0x3a
 5364 002f 0B       		.uleb128 0xb
 5365 0030 3B       		.uleb128 0x3b
 5366 0031 05       		.uleb128 0x5
 5367 0032 49       		.uleb128 0x49
 5368 0033 13       		.uleb128 0x13
 5369 0034 00       		.byte	0
 5370 0035 00       		.byte	0
 5371 0036 05       		.uleb128 0x5
 5372 0037 35       		.uleb128 0x35
 5373 0038 00       		.byte	0
 5374 0039 49       		.uleb128 0x49
 5375 003a 13       		.uleb128 0x13
 5376 003b 00       		.byte	0
 5377 003c 00       		.byte	0
 5378 003d 06       		.uleb128 0x6
ARM GAS  C:\Users\ingan\AppData\Local\Temp\cc5yuDXv.s 			page 133


 5379 003e 13       		.uleb128 0x13
 5380 003f 01       		.byte	0x1
 5381 0040 0B       		.uleb128 0xb
 5382 0041 0B       		.uleb128 0xb
 5383 0042 3A       		.uleb128 0x3a
 5384 0043 0B       		.uleb128 0xb
 5385 0044 3B       		.uleb128 0x3b
 5386 0045 0B       		.uleb128 0xb
 5387 0046 01       		.uleb128 0x1
 5388 0047 13       		.uleb128 0x13
 5389 0048 00       		.byte	0
 5390 0049 00       		.byte	0
 5391 004a 07       		.uleb128 0x7
 5392 004b 0D       		.uleb128 0xd
 5393 004c 00       		.byte	0
 5394 004d 03       		.uleb128 0x3
 5395 004e 0E       		.uleb128 0xe
 5396 004f 3A       		.uleb128 0x3a
 5397 0050 0B       		.uleb128 0xb
 5398 0051 3B       		.uleb128 0x3b
 5399 0052 0B       		.uleb128 0xb
 5400 0053 49       		.uleb128 0x49
 5401 0054 13       		.uleb128 0x13
 5402 0055 38       		.uleb128 0x38
 5403 0056 0B       		.uleb128 0xb
 5404 0057 00       		.byte	0
 5405 0058 00       		.byte	0
 5406 0059 08       		.uleb128 0x8
 5407 005a 16       		.uleb128 0x16
 5408 005b 00       		.byte	0
 5409 005c 03       		.uleb128 0x3
 5410 005d 0E       		.uleb128 0xe
 5411 005e 3A       		.uleb128 0x3a
 5412 005f 0B       		.uleb128 0xb
 5413 0060 3B       		.uleb128 0x3b
 5414 0061 0B       		.uleb128 0xb
 5415 0062 49       		.uleb128 0x49
 5416 0063 13       		.uleb128 0x13
 5417 0064 00       		.byte	0
 5418 0065 00       		.byte	0
 5419 0066 09       		.uleb128 0x9
 5420 0067 0F       		.uleb128 0xf
 5421 0068 00       		.byte	0
 5422 0069 0B       		.uleb128 0xb
 5423 006a 0B       		.uleb128 0xb
 5424 006b 49       		.uleb128 0x49
 5425 006c 13       		.uleb128 0x13
 5426 006d 00       		.byte	0
 5427 006e 00       		.byte	0
 5428 006f 0A       		.uleb128 0xa
 5429 0070 0D       		.uleb128 0xd
 5430 0071 00       		.byte	0
 5431 0072 03       		.uleb128 0x3
 5432 0073 08       		.uleb128 0x8
 5433 0074 3A       		.uleb128 0x3a
 5434 0075 0B       		.uleb128 0xb
 5435 0076 3B       		.uleb128 0x3b
ARM GAS  C:\Users\ingan\AppData\Local\Temp\cc5yuDXv.s 			page 134


 5436 0077 0B       		.uleb128 0xb
 5437 0078 49       		.uleb128 0x49
 5438 0079 13       		.uleb128 0x13
 5439 007a 38       		.uleb128 0x38
 5440 007b 0B       		.uleb128 0xb
 5441 007c 00       		.byte	0
 5442 007d 00       		.byte	0
 5443 007e 0B       		.uleb128 0xb
 5444 007f 26       		.uleb128 0x26
 5445 0080 00       		.byte	0
 5446 0081 00       		.byte	0
 5447 0082 00       		.byte	0
 5448 0083 0C       		.uleb128 0xc
 5449 0084 01       		.uleb128 0x1
 5450 0085 01       		.byte	0x1
 5451 0086 49       		.uleb128 0x49
 5452 0087 13       		.uleb128 0x13
 5453 0088 01       		.uleb128 0x1
 5454 0089 13       		.uleb128 0x13
 5455 008a 00       		.byte	0
 5456 008b 00       		.byte	0
 5457 008c 0D       		.uleb128 0xd
 5458 008d 21       		.uleb128 0x21
 5459 008e 00       		.byte	0
 5460 008f 49       		.uleb128 0x49
 5461 0090 13       		.uleb128 0x13
 5462 0091 2F       		.uleb128 0x2f
 5463 0092 0B       		.uleb128 0xb
 5464 0093 00       		.byte	0
 5465 0094 00       		.byte	0
 5466 0095 0E       		.uleb128 0xe
 5467 0096 13       		.uleb128 0x13
 5468 0097 01       		.byte	0x1
 5469 0098 0B       		.uleb128 0xb
 5470 0099 0B       		.uleb128 0xb
 5471 009a 3A       		.uleb128 0x3a
 5472 009b 0B       		.uleb128 0xb
 5473 009c 3B       		.uleb128 0x3b
 5474 009d 05       		.uleb128 0x5
 5475 009e 01       		.uleb128 0x1
 5476 009f 13       		.uleb128 0x13
 5477 00a0 00       		.byte	0
 5478 00a1 00       		.byte	0
 5479 00a2 0F       		.uleb128 0xf
 5480 00a3 0D       		.uleb128 0xd
 5481 00a4 00       		.byte	0
 5482 00a5 03       		.uleb128 0x3
 5483 00a6 0E       		.uleb128 0xe
 5484 00a7 3A       		.uleb128 0x3a
 5485 00a8 0B       		.uleb128 0xb
 5486 00a9 3B       		.uleb128 0x3b
 5487 00aa 05       		.uleb128 0x5
 5488 00ab 49       		.uleb128 0x49
 5489 00ac 13       		.uleb128 0x13
 5490 00ad 38       		.uleb128 0x38
 5491 00ae 0B       		.uleb128 0xb
 5492 00af 00       		.byte	0
ARM GAS  C:\Users\ingan\AppData\Local\Temp\cc5yuDXv.s 			page 135


 5493 00b0 00       		.byte	0
 5494 00b1 10       		.uleb128 0x10
 5495 00b2 2E       		.uleb128 0x2e
 5496 00b3 01       		.byte	0x1
 5497 00b4 3F       		.uleb128 0x3f
 5498 00b5 19       		.uleb128 0x19
 5499 00b6 03       		.uleb128 0x3
 5500 00b7 0E       		.uleb128 0xe
 5501 00b8 3A       		.uleb128 0x3a
 5502 00b9 0B       		.uleb128 0xb
 5503 00ba 3B       		.uleb128 0x3b
 5504 00bb 05       		.uleb128 0x5
 5505 00bc 27       		.uleb128 0x27
 5506 00bd 19       		.uleb128 0x19
 5507 00be 49       		.uleb128 0x49
 5508 00bf 13       		.uleb128 0x13
 5509 00c0 20       		.uleb128 0x20
 5510 00c1 0B       		.uleb128 0xb
 5511 00c2 01       		.uleb128 0x1
 5512 00c3 13       		.uleb128 0x13
 5513 00c4 00       		.byte	0
 5514 00c5 00       		.byte	0
 5515 00c6 11       		.uleb128 0x11
 5516 00c7 05       		.uleb128 0x5
 5517 00c8 00       		.byte	0
 5518 00c9 03       		.uleb128 0x3
 5519 00ca 0E       		.uleb128 0xe
 5520 00cb 3A       		.uleb128 0x3a
 5521 00cc 0B       		.uleb128 0xb
 5522 00cd 3B       		.uleb128 0x3b
 5523 00ce 05       		.uleb128 0x5
 5524 00cf 49       		.uleb128 0x49
 5525 00d0 13       		.uleb128 0x13
 5526 00d1 00       		.byte	0
 5527 00d2 00       		.byte	0
 5528 00d3 12       		.uleb128 0x12
 5529 00d4 34       		.uleb128 0x34
 5530 00d5 00       		.byte	0
 5531 00d6 03       		.uleb128 0x3
 5532 00d7 0E       		.uleb128 0xe
 5533 00d8 3A       		.uleb128 0x3a
 5534 00d9 0B       		.uleb128 0xb
 5535 00da 3B       		.uleb128 0x3b
 5536 00db 05       		.uleb128 0x5
 5537 00dc 49       		.uleb128 0x49
 5538 00dd 13       		.uleb128 0x13
 5539 00de 00       		.byte	0
 5540 00df 00       		.byte	0
 5541 00e0 13       		.uleb128 0x13
 5542 00e1 26       		.uleb128 0x26
 5543 00e2 00       		.byte	0
 5544 00e3 49       		.uleb128 0x49
 5545 00e4 13       		.uleb128 0x13
 5546 00e5 00       		.byte	0
 5547 00e6 00       		.byte	0
 5548 00e7 14       		.uleb128 0x14
 5549 00e8 2E       		.uleb128 0x2e
ARM GAS  C:\Users\ingan\AppData\Local\Temp\cc5yuDXv.s 			page 136


 5550 00e9 01       		.byte	0x1
 5551 00ea 3F       		.uleb128 0x3f
 5552 00eb 19       		.uleb128 0x19
 5553 00ec 03       		.uleb128 0x3
 5554 00ed 0E       		.uleb128 0xe
 5555 00ee 3A       		.uleb128 0x3a
 5556 00ef 0B       		.uleb128 0xb
 5557 00f0 3B       		.uleb128 0x3b
 5558 00f1 05       		.uleb128 0x5
 5559 00f2 27       		.uleb128 0x27
 5560 00f3 19       		.uleb128 0x19
 5561 00f4 20       		.uleb128 0x20
 5562 00f5 0B       		.uleb128 0xb
 5563 00f6 01       		.uleb128 0x1
 5564 00f7 13       		.uleb128 0x13
 5565 00f8 00       		.byte	0
 5566 00f9 00       		.byte	0
 5567 00fa 15       		.uleb128 0x15
 5568 00fb 34       		.uleb128 0x34
 5569 00fc 00       		.byte	0
 5570 00fd 03       		.uleb128 0x3
 5571 00fe 08       		.uleb128 0x8
 5572 00ff 3A       		.uleb128 0x3a
 5573 0100 0B       		.uleb128 0xb
 5574 0101 3B       		.uleb128 0x3b
 5575 0102 05       		.uleb128 0x5
 5576 0103 49       		.uleb128 0x49
 5577 0104 13       		.uleb128 0x13
 5578 0105 00       		.byte	0
 5579 0106 00       		.byte	0
 5580 0107 16       		.uleb128 0x16
 5581 0108 0B       		.uleb128 0xb
 5582 0109 01       		.byte	0x1
 5583 010a 00       		.byte	0
 5584 010b 00       		.byte	0
 5585 010c 17       		.uleb128 0x17
 5586 010d 2E       		.uleb128 0x2e
 5587 010e 00       		.byte	0
 5588 010f 3F       		.uleb128 0x3f
 5589 0110 19       		.uleb128 0x19
 5590 0111 03       		.uleb128 0x3
 5591 0112 0E       		.uleb128 0xe
 5592 0113 3A       		.uleb128 0x3a
 5593 0114 0B       		.uleb128 0xb
 5594 0115 3B       		.uleb128 0x3b
 5595 0116 05       		.uleb128 0x5
 5596 0117 27       		.uleb128 0x27
 5597 0118 19       		.uleb128 0x19
 5598 0119 49       		.uleb128 0x49
 5599 011a 13       		.uleb128 0x13
 5600 011b 20       		.uleb128 0x20
 5601 011c 0B       		.uleb128 0xb
 5602 011d 00       		.byte	0
 5603 011e 00       		.byte	0
 5604 011f 18       		.uleb128 0x18
 5605 0120 2E       		.uleb128 0x2e
 5606 0121 01       		.byte	0x1
ARM GAS  C:\Users\ingan\AppData\Local\Temp\cc5yuDXv.s 			page 137


 5607 0122 31       		.uleb128 0x31
 5608 0123 13       		.uleb128 0x13
 5609 0124 11       		.uleb128 0x11
 5610 0125 01       		.uleb128 0x1
 5611 0126 12       		.uleb128 0x12
 5612 0127 06       		.uleb128 0x6
 5613 0128 40       		.uleb128 0x40
 5614 0129 18       		.uleb128 0x18
 5615 012a 9742     		.uleb128 0x2117
 5616 012c 19       		.uleb128 0x19
 5617 012d 01       		.uleb128 0x1
 5618 012e 13       		.uleb128 0x13
 5619 012f 00       		.byte	0
 5620 0130 00       		.byte	0
 5621 0131 19       		.uleb128 0x19
 5622 0132 34       		.uleb128 0x34
 5623 0133 00       		.byte	0
 5624 0134 31       		.uleb128 0x31
 5625 0135 13       		.uleb128 0x13
 5626 0136 02       		.uleb128 0x2
 5627 0137 17       		.uleb128 0x17
 5628 0138 00       		.byte	0
 5629 0139 00       		.byte	0
 5630 013a 1A       		.uleb128 0x1a
 5631 013b 1D       		.uleb128 0x1d
 5632 013c 01       		.byte	0x1
 5633 013d 31       		.uleb128 0x31
 5634 013e 13       		.uleb128 0x13
 5635 013f 52       		.uleb128 0x52
 5636 0140 01       		.uleb128 0x1
 5637 0141 55       		.uleb128 0x55
 5638 0142 17       		.uleb128 0x17
 5639 0143 58       		.uleb128 0x58
 5640 0144 0B       		.uleb128 0xb
 5641 0145 59       		.uleb128 0x59
 5642 0146 05       		.uleb128 0x5
 5643 0147 00       		.byte	0
 5644 0148 00       		.byte	0
 5645 0149 1B       		.uleb128 0x1b
 5646 014a 05       		.uleb128 0x5
 5647 014b 00       		.byte	0
 5648 014c 31       		.uleb128 0x31
 5649 014d 13       		.uleb128 0x13
 5650 014e 02       		.uleb128 0x2
 5651 014f 17       		.uleb128 0x17
 5652 0150 00       		.byte	0
 5653 0151 00       		.byte	0
 5654 0152 1C       		.uleb128 0x1c
 5655 0153 0B       		.uleb128 0xb
 5656 0154 01       		.byte	0x1
 5657 0155 55       		.uleb128 0x55
 5658 0156 17       		.uleb128 0x17
 5659 0157 00       		.byte	0
 5660 0158 00       		.byte	0
 5661 0159 1D       		.uleb128 0x1d
 5662 015a 2E       		.uleb128 0x2e
 5663 015b 01       		.byte	0x1
ARM GAS  C:\Users\ingan\AppData\Local\Temp\cc5yuDXv.s 			page 138


 5664 015c 3F       		.uleb128 0x3f
 5665 015d 19       		.uleb128 0x19
 5666 015e 03       		.uleb128 0x3
 5667 015f 0E       		.uleb128 0xe
 5668 0160 3A       		.uleb128 0x3a
 5669 0161 0B       		.uleb128 0xb
 5670 0162 3B       		.uleb128 0x3b
 5671 0163 05       		.uleb128 0x5
 5672 0164 27       		.uleb128 0x27
 5673 0165 19       		.uleb128 0x19
 5674 0166 11       		.uleb128 0x11
 5675 0167 01       		.uleb128 0x1
 5676 0168 12       		.uleb128 0x12
 5677 0169 06       		.uleb128 0x6
 5678 016a 40       		.uleb128 0x40
 5679 016b 18       		.uleb128 0x18
 5680 016c 9742     		.uleb128 0x2117
 5681 016e 19       		.uleb128 0x19
 5682 016f 01       		.uleb128 0x1
 5683 0170 13       		.uleb128 0x13
 5684 0171 00       		.byte	0
 5685 0172 00       		.byte	0
 5686 0173 1E       		.uleb128 0x1e
 5687 0174 05       		.uleb128 0x5
 5688 0175 00       		.byte	0
 5689 0176 03       		.uleb128 0x3
 5690 0177 0E       		.uleb128 0xe
 5691 0178 3A       		.uleb128 0x3a
 5692 0179 0B       		.uleb128 0xb
 5693 017a 3B       		.uleb128 0x3b
 5694 017b 05       		.uleb128 0x5
 5695 017c 49       		.uleb128 0x49
 5696 017d 13       		.uleb128 0x13
 5697 017e 02       		.uleb128 0x2
 5698 017f 17       		.uleb128 0x17
 5699 0180 00       		.byte	0
 5700 0181 00       		.byte	0
 5701 0182 1F       		.uleb128 0x1f
 5702 0183 34       		.uleb128 0x34
 5703 0184 00       		.byte	0
 5704 0185 03       		.uleb128 0x3
 5705 0186 08       		.uleb128 0x8
 5706 0187 3A       		.uleb128 0x3a
 5707 0188 0B       		.uleb128 0xb
 5708 0189 3B       		.uleb128 0x3b
 5709 018a 05       		.uleb128 0x5
 5710 018b 49       		.uleb128 0x49
 5711 018c 13       		.uleb128 0x13
 5712 018d 02       		.uleb128 0x2
 5713 018e 18       		.uleb128 0x18
 5714 018f 00       		.byte	0
 5715 0190 00       		.byte	0
 5716 0191 20       		.uleb128 0x20
 5717 0192 34       		.uleb128 0x34
 5718 0193 00       		.byte	0
 5719 0194 03       		.uleb128 0x3
 5720 0195 08       		.uleb128 0x8
ARM GAS  C:\Users\ingan\AppData\Local\Temp\cc5yuDXv.s 			page 139


 5721 0196 3A       		.uleb128 0x3a
 5722 0197 0B       		.uleb128 0xb
 5723 0198 3B       		.uleb128 0x3b
 5724 0199 05       		.uleb128 0x5
 5725 019a 49       		.uleb128 0x49
 5726 019b 13       		.uleb128 0x13
 5727 019c 02       		.uleb128 0x2
 5728 019d 17       		.uleb128 0x17
 5729 019e 00       		.byte	0
 5730 019f 00       		.byte	0
 5731 01a0 21       		.uleb128 0x21
 5732 01a1 34       		.uleb128 0x34
 5733 01a2 00       		.byte	0
 5734 01a3 03       		.uleb128 0x3
 5735 01a4 0E       		.uleb128 0xe
 5736 01a5 3A       		.uleb128 0x3a
 5737 01a6 0B       		.uleb128 0xb
 5738 01a7 3B       		.uleb128 0x3b
 5739 01a8 05       		.uleb128 0x5
 5740 01a9 49       		.uleb128 0x49
 5741 01aa 13       		.uleb128 0x13
 5742 01ab 02       		.uleb128 0x2
 5743 01ac 18       		.uleb128 0x18
 5744 01ad 00       		.byte	0
 5745 01ae 00       		.byte	0
 5746 01af 22       		.uleb128 0x22
 5747 01b0 898201   		.uleb128 0x4109
 5748 01b3 01       		.byte	0x1
 5749 01b4 11       		.uleb128 0x11
 5750 01b5 01       		.uleb128 0x1
 5751 01b6 31       		.uleb128 0x31
 5752 01b7 13       		.uleb128 0x13
 5753 01b8 00       		.byte	0
 5754 01b9 00       		.byte	0
 5755 01ba 23       		.uleb128 0x23
 5756 01bb 8A8201   		.uleb128 0x410a
 5757 01be 00       		.byte	0
 5758 01bf 02       		.uleb128 0x2
 5759 01c0 18       		.uleb128 0x18
 5760 01c1 9142     		.uleb128 0x2111
 5761 01c3 18       		.uleb128 0x18
 5762 01c4 00       		.byte	0
 5763 01c5 00       		.byte	0
 5764 01c6 24       		.uleb128 0x24
 5765 01c7 34       		.uleb128 0x34
 5766 01c8 00       		.byte	0
 5767 01c9 31       		.uleb128 0x31
 5768 01ca 13       		.uleb128 0x13
 5769 01cb 00       		.byte	0
 5770 01cc 00       		.byte	0
 5771 01cd 25       		.uleb128 0x25
 5772 01ce 34       		.uleb128 0x34
 5773 01cf 00       		.byte	0
 5774 01d0 31       		.uleb128 0x31
 5775 01d1 13       		.uleb128 0x13
 5776 01d2 1C       		.uleb128 0x1c
 5777 01d3 0B       		.uleb128 0xb
ARM GAS  C:\Users\ingan\AppData\Local\Temp\cc5yuDXv.s 			page 140


 5778 01d4 00       		.byte	0
 5779 01d5 00       		.byte	0
 5780 01d6 26       		.uleb128 0x26
 5781 01d7 1D       		.uleb128 0x1d
 5782 01d8 01       		.byte	0x1
 5783 01d9 31       		.uleb128 0x31
 5784 01da 13       		.uleb128 0x13
 5785 01db 52       		.uleb128 0x52
 5786 01dc 01       		.uleb128 0x1
 5787 01dd 55       		.uleb128 0x55
 5788 01de 17       		.uleb128 0x17
 5789 01df 58       		.uleb128 0x58
 5790 01e0 0B       		.uleb128 0xb
 5791 01e1 59       		.uleb128 0x59
 5792 01e2 05       		.uleb128 0x5
 5793 01e3 01       		.uleb128 0x1
 5794 01e4 13       		.uleb128 0x13
 5795 01e5 00       		.byte	0
 5796 01e6 00       		.byte	0
 5797 01e7 27       		.uleb128 0x27
 5798 01e8 2E       		.uleb128 0x2e
 5799 01e9 01       		.byte	0x1
 5800 01ea 3F       		.uleb128 0x3f
 5801 01eb 19       		.uleb128 0x19
 5802 01ec 03       		.uleb128 0x3
 5803 01ed 0E       		.uleb128 0xe
 5804 01ee 3A       		.uleb128 0x3a
 5805 01ef 0B       		.uleb128 0xb
 5806 01f0 3B       		.uleb128 0x3b
 5807 01f1 0B       		.uleb128 0xb
 5808 01f2 27       		.uleb128 0x27
 5809 01f3 19       		.uleb128 0x19
 5810 01f4 49       		.uleb128 0x49
 5811 01f5 13       		.uleb128 0x13
 5812 01f6 11       		.uleb128 0x11
 5813 01f7 01       		.uleb128 0x1
 5814 01f8 12       		.uleb128 0x12
 5815 01f9 06       		.uleb128 0x6
 5816 01fa 40       		.uleb128 0x40
 5817 01fb 18       		.uleb128 0x18
 5818 01fc 9742     		.uleb128 0x2117
 5819 01fe 19       		.uleb128 0x19
 5820 01ff 01       		.uleb128 0x1
 5821 0200 13       		.uleb128 0x13
 5822 0201 00       		.byte	0
 5823 0202 00       		.byte	0
 5824 0203 28       		.uleb128 0x28
 5825 0204 34       		.uleb128 0x34
 5826 0205 00       		.byte	0
 5827 0206 03       		.uleb128 0x3
 5828 0207 0E       		.uleb128 0xe
 5829 0208 3A       		.uleb128 0x3a
 5830 0209 0B       		.uleb128 0xb
 5831 020a 3B       		.uleb128 0x3b
 5832 020b 0B       		.uleb128 0xb
 5833 020c 49       		.uleb128 0x49
 5834 020d 13       		.uleb128 0x13
ARM GAS  C:\Users\ingan\AppData\Local\Temp\cc5yuDXv.s 			page 141


 5835 020e 1C       		.uleb128 0x1c
 5836 020f 0B       		.uleb128 0xb
 5837 0210 00       		.byte	0
 5838 0211 00       		.byte	0
 5839 0212 29       		.uleb128 0x29
 5840 0213 34       		.uleb128 0x34
 5841 0214 00       		.byte	0
 5842 0215 03       		.uleb128 0x3
 5843 0216 0E       		.uleb128 0xe
 5844 0217 3A       		.uleb128 0x3a
 5845 0218 0B       		.uleb128 0xb
 5846 0219 3B       		.uleb128 0x3b
 5847 021a 0B       		.uleb128 0xb
 5848 021b 49       		.uleb128 0x49
 5849 021c 13       		.uleb128 0x13
 5850 021d 02       		.uleb128 0x2
 5851 021e 17       		.uleb128 0x17
 5852 021f 00       		.byte	0
 5853 0220 00       		.byte	0
 5854 0221 2A       		.uleb128 0x2a
 5855 0222 34       		.uleb128 0x34
 5856 0223 00       		.byte	0
 5857 0224 03       		.uleb128 0x3
 5858 0225 0E       		.uleb128 0xe
 5859 0226 3A       		.uleb128 0x3a
 5860 0227 0B       		.uleb128 0xb
 5861 0228 3B       		.uleb128 0x3b
 5862 0229 0B       		.uleb128 0xb
 5863 022a 49       		.uleb128 0x49
 5864 022b 13       		.uleb128 0x13
 5865 022c 02       		.uleb128 0x2
 5866 022d 18       		.uleb128 0x18
 5867 022e 00       		.byte	0
 5868 022f 00       		.byte	0
 5869 0230 2B       		.uleb128 0x2b
 5870 0231 898201   		.uleb128 0x4109
 5871 0234 00       		.byte	0
 5872 0235 11       		.uleb128 0x11
 5873 0236 01       		.uleb128 0x1
 5874 0237 31       		.uleb128 0x31
 5875 0238 13       		.uleb128 0x13
 5876 0239 00       		.byte	0
 5877 023a 00       		.byte	0
 5878 023b 2C       		.uleb128 0x2c
 5879 023c 1D       		.uleb128 0x1d
 5880 023d 01       		.byte	0x1
 5881 023e 31       		.uleb128 0x31
 5882 023f 13       		.uleb128 0x13
 5883 0240 11       		.uleb128 0x11
 5884 0241 01       		.uleb128 0x1
 5885 0242 12       		.uleb128 0x12
 5886 0243 06       		.uleb128 0x6
 5887 0244 58       		.uleb128 0x58
 5888 0245 0B       		.uleb128 0xb
 5889 0246 59       		.uleb128 0x59
 5890 0247 05       		.uleb128 0x5
 5891 0248 01       		.uleb128 0x1
ARM GAS  C:\Users\ingan\AppData\Local\Temp\cc5yuDXv.s 			page 142


 5892 0249 13       		.uleb128 0x13
 5893 024a 00       		.byte	0
 5894 024b 00       		.byte	0
 5895 024c 2D       		.uleb128 0x2d
 5896 024d 0B       		.uleb128 0xb
 5897 024e 01       		.byte	0x1
 5898 024f 11       		.uleb128 0x11
 5899 0250 01       		.uleb128 0x1
 5900 0251 12       		.uleb128 0x12
 5901 0252 06       		.uleb128 0x6
 5902 0253 00       		.byte	0
 5903 0254 00       		.byte	0
 5904 0255 2E       		.uleb128 0x2e
 5905 0256 1D       		.uleb128 0x1d
 5906 0257 00       		.byte	0
 5907 0258 31       		.uleb128 0x31
 5908 0259 13       		.uleb128 0x13
 5909 025a 52       		.uleb128 0x52
 5910 025b 01       		.uleb128 0x1
 5911 025c 55       		.uleb128 0x55
 5912 025d 17       		.uleb128 0x17
 5913 025e 58       		.uleb128 0x58
 5914 025f 0B       		.uleb128 0xb
 5915 0260 59       		.uleb128 0x59
 5916 0261 0B       		.uleb128 0xb
 5917 0262 00       		.byte	0
 5918 0263 00       		.byte	0
 5919 0264 2F       		.uleb128 0x2f
 5920 0265 1D       		.uleb128 0x1d
 5921 0266 01       		.byte	0x1
 5922 0267 31       		.uleb128 0x31
 5923 0268 13       		.uleb128 0x13
 5924 0269 52       		.uleb128 0x52
 5925 026a 01       		.uleb128 0x1
 5926 026b 55       		.uleb128 0x55
 5927 026c 17       		.uleb128 0x17
 5928 026d 58       		.uleb128 0x58
 5929 026e 0B       		.uleb128 0xb
 5930 026f 59       		.uleb128 0x59
 5931 0270 0B       		.uleb128 0xb
 5932 0271 01       		.uleb128 0x1
 5933 0272 13       		.uleb128 0x13
 5934 0273 00       		.byte	0
 5935 0274 00       		.byte	0
 5936 0275 30       		.uleb128 0x30
 5937 0276 898201   		.uleb128 0x4109
 5938 0279 00       		.byte	0
 5939 027a 11       		.uleb128 0x11
 5940 027b 01       		.uleb128 0x1
 5941 027c 9542     		.uleb128 0x2115
 5942 027e 19       		.uleb128 0x19
 5943 027f 31       		.uleb128 0x31
 5944 0280 13       		.uleb128 0x13
 5945 0281 00       		.byte	0
 5946 0282 00       		.byte	0
 5947 0283 31       		.uleb128 0x31
 5948 0284 898201   		.uleb128 0x4109
ARM GAS  C:\Users\ingan\AppData\Local\Temp\cc5yuDXv.s 			page 143


 5949 0287 01       		.byte	0x1
 5950 0288 11       		.uleb128 0x11
 5951 0289 01       		.uleb128 0x1
 5952 028a 31       		.uleb128 0x31
 5953 028b 13       		.uleb128 0x13
 5954 028c 01       		.uleb128 0x1
 5955 028d 13       		.uleb128 0x13
 5956 028e 00       		.byte	0
 5957 028f 00       		.byte	0
 5958 0290 32       		.uleb128 0x32
 5959 0291 2E       		.uleb128 0x2e
 5960 0292 00       		.byte	0
 5961 0293 31       		.uleb128 0x31
 5962 0294 13       		.uleb128 0x13
 5963 0295 11       		.uleb128 0x11
 5964 0296 01       		.uleb128 0x1
 5965 0297 12       		.uleb128 0x12
 5966 0298 06       		.uleb128 0x6
 5967 0299 40       		.uleb128 0x40
 5968 029a 18       		.uleb128 0x18
 5969 029b 9742     		.uleb128 0x2117
 5970 029d 19       		.uleb128 0x19
 5971 029e 00       		.byte	0
 5972 029f 00       		.byte	0
 5973 02a0 33       		.uleb128 0x33
 5974 02a1 34       		.uleb128 0x34
 5975 02a2 00       		.byte	0
 5976 02a3 31       		.uleb128 0x31
 5977 02a4 13       		.uleb128 0x13
 5978 02a5 02       		.uleb128 0x2
 5979 02a6 18       		.uleb128 0x18
 5980 02a7 00       		.byte	0
 5981 02a8 00       		.byte	0
 5982 02a9 34       		.uleb128 0x34
 5983 02aa 34       		.uleb128 0x34
 5984 02ab 00       		.byte	0
 5985 02ac 03       		.uleb128 0x3
 5986 02ad 0E       		.uleb128 0xe
 5987 02ae 3A       		.uleb128 0x3a
 5988 02af 0B       		.uleb128 0xb
 5989 02b0 3B       		.uleb128 0x3b
 5990 02b1 05       		.uleb128 0x5
 5991 02b2 49       		.uleb128 0x49
 5992 02b3 13       		.uleb128 0x13
 5993 02b4 3F       		.uleb128 0x3f
 5994 02b5 19       		.uleb128 0x19
 5995 02b6 3C       		.uleb128 0x3c
 5996 02b7 19       		.uleb128 0x19
 5997 02b8 00       		.byte	0
 5998 02b9 00       		.byte	0
 5999 02ba 35       		.uleb128 0x35
 6000 02bb 34       		.uleb128 0x34
 6001 02bc 00       		.byte	0
 6002 02bd 03       		.uleb128 0x3
 6003 02be 0E       		.uleb128 0xe
 6004 02bf 3A       		.uleb128 0x3a
 6005 02c0 0B       		.uleb128 0xb
ARM GAS  C:\Users\ingan\AppData\Local\Temp\cc5yuDXv.s 			page 144


 6006 02c1 3B       		.uleb128 0x3b
 6007 02c2 0B       		.uleb128 0xb
 6008 02c3 49       		.uleb128 0x49
 6009 02c4 13       		.uleb128 0x13
 6010 02c5 3F       		.uleb128 0x3f
 6011 02c6 19       		.uleb128 0x19
 6012 02c7 3C       		.uleb128 0x3c
 6013 02c8 19       		.uleb128 0x19
 6014 02c9 00       		.byte	0
 6015 02ca 00       		.byte	0
 6016 02cb 36       		.uleb128 0x36
 6017 02cc 2E       		.uleb128 0x2e
 6018 02cd 00       		.byte	0
 6019 02ce 3F       		.uleb128 0x3f
 6020 02cf 19       		.uleb128 0x19
 6021 02d0 3C       		.uleb128 0x3c
 6022 02d1 19       		.uleb128 0x19
 6023 02d2 6E       		.uleb128 0x6e
 6024 02d3 0E       		.uleb128 0xe
 6025 02d4 03       		.uleb128 0x3
 6026 02d5 0E       		.uleb128 0xe
 6027 02d6 3A       		.uleb128 0x3a
 6028 02d7 0B       		.uleb128 0xb
 6029 02d8 3B       		.uleb128 0x3b
 6030 02d9 0B       		.uleb128 0xb
 6031 02da 00       		.byte	0
 6032 02db 00       		.byte	0
 6033 02dc 37       		.uleb128 0x37
 6034 02dd 2E       		.uleb128 0x2e
 6035 02de 00       		.byte	0
 6036 02df 3F       		.uleb128 0x3f
 6037 02e0 19       		.uleb128 0x19
 6038 02e1 3C       		.uleb128 0x3c
 6039 02e2 19       		.uleb128 0x19
 6040 02e3 6E       		.uleb128 0x6e
 6041 02e4 0E       		.uleb128 0xe
 6042 02e5 03       		.uleb128 0x3
 6043 02e6 0E       		.uleb128 0xe
 6044 02e7 3A       		.uleb128 0x3a
 6045 02e8 0B       		.uleb128 0xb
 6046 02e9 3B       		.uleb128 0x3b
 6047 02ea 05       		.uleb128 0x5
 6048 02eb 00       		.byte	0
 6049 02ec 00       		.byte	0
 6050 02ed 00       		.byte	0
 6051              		.section	.debug_loc,"",%progbits
 6052              	.Ldebug_loc0:
 6053              	.LLST0:
 6054 0000 26000000 		.4byte	.LVL3
 6055 0004 4E000000 		.4byte	.LVL7
 6056 0008 0100     		.2byte	0x1
 6057 000a 52       		.byte	0x52
 6058 000b 3E010000 		.4byte	.LVL19
 6059 000f 60010000 		.4byte	.LFE13
 6060 0013 0100     		.2byte	0x1
 6061 0015 52       		.byte	0x52
 6062 0016 00000000 		.4byte	0
ARM GAS  C:\Users\ingan\AppData\Local\Temp\cc5yuDXv.s 			page 145


 6063 001a 00000000 		.4byte	0
 6064              	.LLST1:
 6065 001e 72000000 		.4byte	.LVL10
 6066 0022 C6000000 		.4byte	.LVL13
 6067 0026 0100     		.2byte	0x1
 6068 0028 52       		.byte	0x52
 6069 0029 26010000 		.4byte	.LVL17
 6070 002d 3E010000 		.4byte	.LVL19
 6071 0031 0100     		.2byte	0x1
 6072 0033 52       		.byte	0x52
 6073 0034 00000000 		.4byte	0
 6074 0038 00000000 		.4byte	0
 6075              	.LLST2:
 6076 003c 88000000 		.4byte	.LVL11
 6077 0040 B0000000 		.4byte	.LVL12
 6078 0044 0100     		.2byte	0x1
 6079 0046 5C       		.byte	0x5c
 6080 0047 26010000 		.4byte	.LVL17
 6081 004b 30010000 		.4byte	.LVL18
 6082 004f 0100     		.2byte	0x1
 6083 0051 5C       		.byte	0x5c
 6084 0052 00000000 		.4byte	0
 6085 0056 00000000 		.4byte	0
 6086              	.LLST3:
 6087 005a 2C000000 		.4byte	.LVL5
 6088 005e 4E000000 		.4byte	.LVL7
 6089 0062 0200     		.2byte	0x2
 6090 0064 30       		.byte	0x30
 6091 0065 9F       		.byte	0x9f
 6092 0066 3E010000 		.4byte	.LVL19
 6093 006a 60010000 		.4byte	.LFE13
 6094 006e 0200     		.2byte	0x2
 6095 0070 30       		.byte	0x30
 6096 0071 9F       		.byte	0x9f
 6097 0072 00000000 		.4byte	0
 6098 0076 00000000 		.4byte	0
 6099              	.LLST4:
 6100 007a 2C000000 		.4byte	.LVL5
 6101 007e 20010000 		.4byte	.LVL16
 6102 0082 0100     		.2byte	0x1
 6103 0084 50       		.byte	0x50
 6104 0085 26010000 		.4byte	.LVL17
 6105 0089 60010000 		.4byte	.LFE13
 6106 008d 0100     		.2byte	0x1
 6107 008f 50       		.byte	0x50
 6108 0090 00000000 		.4byte	0
 6109 0094 00000000 		.4byte	0
 6110              	.LLST5:
 6111 0098 22000000 		.4byte	.LVL2
 6112 009c 2A000000 		.4byte	.LVL4
 6113 00a0 0300     		.2byte	0x3
 6114 00a2 73       		.byte	0x73
 6115 00a3 08       		.sleb128 8
 6116 00a4 9F       		.byte	0x9f
 6117 00a5 20010000 		.4byte	.LVL16
 6118 00a9 26010000 		.4byte	.LVL17
 6119 00ad 0200     		.2byte	0x2
ARM GAS  C:\Users\ingan\AppData\Local\Temp\cc5yuDXv.s 			page 146


 6120 00af 38       		.byte	0x38
 6121 00b0 9F       		.byte	0x9f
 6122 00b1 00000000 		.4byte	0
 6123 00b5 00000000 		.4byte	0
 6124              	.LLST6:
 6125 00b9 2A000000 		.4byte	.LVL4
 6126 00bd 46000000 		.4byte	.LVL6
 6127 00c1 0100     		.2byte	0x1
 6128 00c3 53       		.byte	0x53
 6129 00c4 46000000 		.4byte	.LVL6
 6130 00c8 4E000000 		.4byte	.LVL7
 6131 00cc 0300     		.2byte	0x3
 6132 00ce 73       		.byte	0x73
 6133 00cf 78       		.sleb128 -8
 6134 00d0 9F       		.byte	0x9f
 6135 00d1 4E000000 		.4byte	.LVL7
 6136 00d5 50000000 		.4byte	.LVL8
 6137 00d9 0100     		.2byte	0x1
 6138 00db 53       		.byte	0x53
 6139 00dc 50000000 		.4byte	.LVL8
 6140 00e0 F0000000 		.4byte	.LVL14
 6141 00e4 0300     		.2byte	0x3
 6142 00e6 73       		.byte	0x73
 6143 00e7 78       		.sleb128 -8
 6144 00e8 9F       		.byte	0x9f
 6145 00e9 F0000000 		.4byte	.LVL14
 6146 00ed 1A010000 		.4byte	.LVL15
 6147 00f1 0300     		.2byte	0x3
 6148 00f3 73       		.byte	0x73
 6149 00f4 70       		.sleb128 -16
 6150 00f5 9F       		.byte	0x9f
 6151 00f6 26010000 		.4byte	.LVL17
 6152 00fa 3E010000 		.4byte	.LVL19
 6153 00fe 0300     		.2byte	0x3
 6154 0100 73       		.byte	0x73
 6155 0101 78       		.sleb128 -8
 6156 0102 9F       		.byte	0x9f
 6157 0103 3E010000 		.4byte	.LVL19
 6158 0107 60010000 		.4byte	.LFE13
 6159 010b 0100     		.2byte	0x1
 6160 010d 53       		.byte	0x53
 6161 010e 00000000 		.4byte	0
 6162 0112 00000000 		.4byte	0
 6163              	.LLST7:
 6164 0116 14000000 		.4byte	.LVL0
 6165 011a 20000000 		.4byte	.LVL1
 6166 011e 0100     		.2byte	0x1
 6167 0120 53       		.byte	0x53
 6168 0121 00000000 		.4byte	0
 6169 0125 00000000 		.4byte	0
 6170              	.LLST8:
 6171 0129 14000000 		.4byte	.LVL0
 6172 012d 22000000 		.4byte	.LVL2
 6173 0131 0300     		.2byte	0x3
 6174 0133 72       		.byte	0x72
 6175 0134 10       		.sleb128 16
 6176 0135 9F       		.byte	0x9f
ARM GAS  C:\Users\ingan\AppData\Local\Temp\cc5yuDXv.s 			page 147


 6177 0136 00000000 		.4byte	0
 6178 013a 00000000 		.4byte	0
 6179              	.LLST9:
 6180 013e 00000000 		.4byte	.LVL20
 6181 0142 0E000000 		.4byte	.LVL21
 6182 0146 0100     		.2byte	0x1
 6183 0148 50       		.byte	0x50
 6184 0149 0E000000 		.4byte	.LVL21
 6185 014d 42010000 		.4byte	.LVL33
 6186 0151 0100     		.2byte	0x1
 6187 0153 54       		.byte	0x54
 6188 0154 42010000 		.4byte	.LVL33
 6189 0158 48010000 		.4byte	.LFE1
 6190 015c 0400     		.2byte	0x4
 6191 015e F3       		.byte	0xf3
 6192 015f 01       		.uleb128 0x1
 6193 0160 50       		.byte	0x50
 6194 0161 9F       		.byte	0x9f
 6195 0162 00000000 		.4byte	0
 6196 0166 00000000 		.4byte	0
 6197              	.LLST10:
 6198 016a 28000000 		.4byte	.LVL23
 6199 016e BE000000 		.4byte	.LVL24
 6200 0172 0200     		.2byte	0x2
 6201 0174 32       		.byte	0x32
 6202 0175 9F       		.byte	0x9f
 6203 0176 BE000000 		.4byte	.LVL24
 6204 017a C2000000 		.4byte	.LVL25
 6205 017e 0200     		.2byte	0x2
 6206 0180 36       		.byte	0x36
 6207 0181 9F       		.byte	0x9f
 6208 0182 C2000000 		.4byte	.LVL25
 6209 0186 C6000000 		.4byte	.LVL26
 6210 018a 0200     		.2byte	0x2
 6211 018c 3A       		.byte	0x3a
 6212 018d 9F       		.byte	0x9f
 6213 018e C6000000 		.4byte	.LVL26
 6214 0192 CA000000 		.4byte	.LVL27
 6215 0196 0200     		.2byte	0x2
 6216 0198 3E       		.byte	0x3e
 6217 0199 9F       		.byte	0x9f
 6218 019a CA000000 		.4byte	.LVL27
 6219 019e 1E010000 		.4byte	.LVL28
 6220 01a2 0200     		.2byte	0x2
 6221 01a4 42       		.byte	0x42
 6222 01a5 9F       		.byte	0x9f
 6223 01a6 1E010000 		.4byte	.LVL28
 6224 01aa 22010000 		.4byte	.LVL29
 6225 01ae 0200     		.2byte	0x2
 6226 01b0 46       		.byte	0x46
 6227 01b1 9F       		.byte	0x9f
 6228 01b2 22010000 		.4byte	.LVL29
 6229 01b6 26010000 		.4byte	.LVL30
 6230 01ba 0200     		.2byte	0x2
 6231 01bc 4A       		.byte	0x4a
 6232 01bd 9F       		.byte	0x9f
 6233 01be 26010000 		.4byte	.LVL30
ARM GAS  C:\Users\ingan\AppData\Local\Temp\cc5yuDXv.s 			page 148


 6234 01c2 2C010000 		.4byte	.LVL31
 6235 01c6 0200     		.2byte	0x2
 6236 01c8 4E       		.byte	0x4e
 6237 01c9 9F       		.byte	0x9f
 6238 01ca 2C010000 		.4byte	.LVL31
 6239 01ce 3C010000 		.4byte	.LVL32
 6240 01d2 0300     		.2byte	0x3
 6241 01d4 08       		.byte	0x8
 6242 01d5 22       		.byte	0x22
 6243 01d6 9F       		.byte	0x9f
 6244 01d7 00000000 		.4byte	0
 6245 01db 00000000 		.4byte	0
 6246              	.LLST11:
 6247 01df 14000000 		.4byte	.LVL22
 6248 01e3 BE000000 		.4byte	.LVL24
 6249 01e7 0200     		.2byte	0x2
 6250 01e9 30       		.byte	0x30
 6251 01ea 9F       		.byte	0x9f
 6252 01eb BE000000 		.4byte	.LVL24
 6253 01ef C2000000 		.4byte	.LVL25
 6254 01f3 0200     		.2byte	0x2
 6255 01f5 31       		.byte	0x31
 6256 01f6 9F       		.byte	0x9f
 6257 01f7 C2000000 		.4byte	.LVL25
 6258 01fb C6000000 		.4byte	.LVL26
 6259 01ff 0200     		.2byte	0x2
 6260 0201 32       		.byte	0x32
 6261 0202 9F       		.byte	0x9f
 6262 0203 C6000000 		.4byte	.LVL26
 6263 0207 CA000000 		.4byte	.LVL27
 6264 020b 0200     		.2byte	0x2
 6265 020d 33       		.byte	0x33
 6266 020e 9F       		.byte	0x9f
 6267 020f CA000000 		.4byte	.LVL27
 6268 0213 1E010000 		.4byte	.LVL28
 6269 0217 0200     		.2byte	0x2
 6270 0219 34       		.byte	0x34
 6271 021a 9F       		.byte	0x9f
 6272 021b 1E010000 		.4byte	.LVL28
 6273 021f 22010000 		.4byte	.LVL29
 6274 0223 0200     		.2byte	0x2
 6275 0225 35       		.byte	0x35
 6276 0226 9F       		.byte	0x9f
 6277 0227 22010000 		.4byte	.LVL29
 6278 022b 26010000 		.4byte	.LVL30
 6279 022f 0200     		.2byte	0x2
 6280 0231 36       		.byte	0x36
 6281 0232 9F       		.byte	0x9f
 6282 0233 26010000 		.4byte	.LVL30
 6283 0237 2C010000 		.4byte	.LVL31
 6284 023b 0200     		.2byte	0x2
 6285 023d 37       		.byte	0x37
 6286 023e 9F       		.byte	0x9f
 6287 023f 2C010000 		.4byte	.LVL31
 6288 0243 3C010000 		.4byte	.LVL32
 6289 0247 0200     		.2byte	0x2
 6290 0249 38       		.byte	0x38
ARM GAS  C:\Users\ingan\AppData\Local\Temp\cc5yuDXv.s 			page 149


 6291 024a 9F       		.byte	0x9f
 6292 024b 00000000 		.4byte	0
 6293 024f 00000000 		.4byte	0
 6294              	.LLST12:
 6295 0253 00000000 		.4byte	.LVL34
 6296 0257 40000000 		.4byte	.LVL35
 6297 025b 0200     		.2byte	0x2
 6298 025d 31       		.byte	0x31
 6299 025e 9F       		.byte	0x9f
 6300 025f 40000000 		.4byte	.LVL35
 6301 0263 78000000 		.4byte	.LVL36
 6302 0267 0200     		.2byte	0x2
 6303 0269 32       		.byte	0x32
 6304 026a 9F       		.byte	0x9f
 6305 026b 78000000 		.4byte	.LVL36
 6306 026f B2000000 		.4byte	.LVL37
 6307 0273 0200     		.2byte	0x2
 6308 0275 33       		.byte	0x33
 6309 0276 9F       		.byte	0x9f
 6310 0277 B2000000 		.4byte	.LVL37
 6311 027b EC000000 		.4byte	.LVL38
 6312 027f 0200     		.2byte	0x2
 6313 0281 34       		.byte	0x34
 6314 0282 9F       		.byte	0x9f
 6315 0283 EC000000 		.4byte	.LVL38
 6316 0287 2E010000 		.4byte	.LVL39
 6317 028b 0200     		.2byte	0x2
 6318 028d 35       		.byte	0x35
 6319 028e 9F       		.byte	0x9f
 6320 028f 2E010000 		.4byte	.LVL39
 6321 0293 6E010000 		.4byte	.LVL40
 6322 0297 0200     		.2byte	0x2
 6323 0299 36       		.byte	0x36
 6324 029a 9F       		.byte	0x9f
 6325 029b 6E010000 		.4byte	.LVL40
 6326 029f AE010000 		.4byte	.LVL41
 6327 02a3 0200     		.2byte	0x2
 6328 02a5 37       		.byte	0x37
 6329 02a6 9F       		.byte	0x9f
 6330 02a7 AE010000 		.4byte	.LVL41
 6331 02ab F6010000 		.4byte	.LVL42
 6332 02af 0200     		.2byte	0x2
 6333 02b1 38       		.byte	0x38
 6334 02b2 9F       		.byte	0x9f
 6335 02b3 F6010000 		.4byte	.LVL42
 6336 02b7 FC010000 		.4byte	.LVL43
 6337 02bb 0200     		.2byte	0x2
 6338 02bd 39       		.byte	0x39
 6339 02be 9F       		.byte	0x9f
 6340 02bf FC010000 		.4byte	.LVL43
 6341 02c3 0C020000 		.4byte	.LVL44
 6342 02c7 0200     		.2byte	0x2
 6343 02c9 31       		.byte	0x31
 6344 02ca 9F       		.byte	0x9f
 6345 02cb 0C020000 		.4byte	.LVL44
 6346 02cf 14020000 		.4byte	.LVL45
 6347 02d3 0200     		.2byte	0x2
ARM GAS  C:\Users\ingan\AppData\Local\Temp\cc5yuDXv.s 			page 150


 6348 02d5 38       		.byte	0x38
 6349 02d6 9F       		.byte	0x9f
 6350 02d7 14020000 		.4byte	.LVL45
 6351 02db 28020000 		.4byte	.LVL46
 6352 02df 0200     		.2byte	0x2
 6353 02e1 37       		.byte	0x37
 6354 02e2 9F       		.byte	0x9f
 6355 02e3 28020000 		.4byte	.LVL46
 6356 02e7 3C020000 		.4byte	.LVL47
 6357 02eb 0200     		.2byte	0x2
 6358 02ed 36       		.byte	0x36
 6359 02ee 9F       		.byte	0x9f
 6360 02ef 3C020000 		.4byte	.LVL47
 6361 02f3 50020000 		.4byte	.LVL48
 6362 02f7 0200     		.2byte	0x2
 6363 02f9 35       		.byte	0x35
 6364 02fa 9F       		.byte	0x9f
 6365 02fb 50020000 		.4byte	.LVL48
 6366 02ff 64020000 		.4byte	.LVL49
 6367 0303 0200     		.2byte	0x2
 6368 0305 34       		.byte	0x34
 6369 0306 9F       		.byte	0x9f
 6370 0307 64020000 		.4byte	.LVL49
 6371 030b 78020000 		.4byte	.LVL50
 6372 030f 0200     		.2byte	0x2
 6373 0311 33       		.byte	0x33
 6374 0312 9F       		.byte	0x9f
 6375 0313 78020000 		.4byte	.LVL50
 6376 0317 D4020000 		.4byte	.LFE2
 6377 031b 0200     		.2byte	0x2
 6378 031d 32       		.byte	0x32
 6379 031e 9F       		.byte	0x9f
 6380 031f 00000000 		.4byte	0
 6381 0323 00000000 		.4byte	0
 6382              	.LLST13:
 6383 0327 00000000 		.4byte	.LVL51
 6384 032b 88000000 		.4byte	.LVL52
 6385 032f 0200     		.2byte	0x2
 6386 0331 38       		.byte	0x38
 6387 0332 9F       		.byte	0x9f
 6388 0333 88000000 		.4byte	.LVL52
 6389 0337 90000000 		.4byte	.LFE3
 6390 033b 0200     		.2byte	0x2
 6391 033d 39       		.byte	0x39
 6392 033e 9F       		.byte	0x9f
 6393 033f 00000000 		.4byte	0
 6394 0343 00000000 		.4byte	0
 6395              	.LLST14:
 6396 0347 00000000 		.4byte	.LVL53
 6397 034b 50010000 		.4byte	.LVL71
 6398 034f 0100     		.2byte	0x1
 6399 0351 50       		.byte	0x50
 6400 0352 50010000 		.4byte	.LVL71
 6401 0356 A0050000 		.4byte	.LVL116
 6402 035a 0400     		.2byte	0x4
 6403 035c F3       		.byte	0xf3
 6404 035d 01       		.uleb128 0x1
ARM GAS  C:\Users\ingan\AppData\Local\Temp\cc5yuDXv.s 			page 151


 6405 035e 50       		.byte	0x50
 6406 035f 9F       		.byte	0x9f
 6407 0360 A0050000 		.4byte	.LVL116
 6408 0364 A6050000 		.4byte	.LVL117
 6409 0368 0100     		.2byte	0x1
 6410 036a 50       		.byte	0x50
 6411 036b A6050000 		.4byte	.LVL117
 6412 036f 24060000 		.4byte	.LFE4
 6413 0373 0400     		.2byte	0x4
 6414 0375 F3       		.byte	0xf3
 6415 0376 01       		.uleb128 0x1
 6416 0377 50       		.byte	0x50
 6417 0378 9F       		.byte	0x9f
 6418 0379 00000000 		.4byte	0
 6419 037d 00000000 		.4byte	0
 6420              	.LLST15:
 6421 0381 00000000 		.4byte	.LVL53
 6422 0385 18000000 		.4byte	.LVL54
 6423 0389 0200     		.2byte	0x2
 6424 038b 30       		.byte	0x30
 6425 038c 9F       		.byte	0x9f
 6426 038d 18000000 		.4byte	.LVL54
 6427 0391 26000000 		.4byte	.LVL55
 6428 0395 0200     		.2byte	0x2
 6429 0397 31       		.byte	0x31
 6430 0398 9F       		.byte	0x9f
 6431 0399 26000000 		.4byte	.LVL55
 6432 039d 36000000 		.4byte	.LVL56
 6433 03a1 0200     		.2byte	0x2
 6434 03a3 32       		.byte	0x32
 6435 03a4 9F       		.byte	0x9f
 6436 03a5 36000000 		.4byte	.LVL56
 6437 03a9 50000000 		.4byte	.LVL57
 6438 03ad 0200     		.2byte	0x2
 6439 03af 33       		.byte	0x33
 6440 03b0 9F       		.byte	0x9f
 6441 03b1 50000000 		.4byte	.LVL57
 6442 03b5 6A000000 		.4byte	.LVL58
 6443 03b9 0200     		.2byte	0x2
 6444 03bb 34       		.byte	0x34
 6445 03bc 9F       		.byte	0x9f
 6446 03bd 6A000000 		.4byte	.LVL58
 6447 03c1 86000000 		.4byte	.LVL59
 6448 03c5 0200     		.2byte	0x2
 6449 03c7 35       		.byte	0x35
 6450 03c8 9F       		.byte	0x9f
 6451 03c9 86000000 		.4byte	.LVL59
 6452 03cd A2000000 		.4byte	.LVL60
 6453 03d1 0200     		.2byte	0x2
 6454 03d3 36       		.byte	0x36
 6455 03d4 9F       		.byte	0x9f
 6456 03d5 A2000000 		.4byte	.LVL60
 6457 03d9 BE000000 		.4byte	.LVL61
 6458 03dd 0200     		.2byte	0x2
 6459 03df 37       		.byte	0x37
 6460 03e0 9F       		.byte	0x9f
 6461 03e1 BE000000 		.4byte	.LVL61
ARM GAS  C:\Users\ingan\AppData\Local\Temp\cc5yuDXv.s 			page 152


 6462 03e5 DA000000 		.4byte	.LVL62
 6463 03e9 0200     		.2byte	0x2
 6464 03eb 38       		.byte	0x38
 6465 03ec 9F       		.byte	0x9f
 6466 03ed DA000000 		.4byte	.LVL62
 6467 03f1 24060000 		.4byte	.LFE4
 6468 03f5 0200     		.2byte	0x2
 6469 03f7 39       		.byte	0x39
 6470 03f8 9F       		.byte	0x9f
 6471 03f9 00000000 		.4byte	0
 6472 03fd 00000000 		.4byte	0
 6473              	.LLST16:
 6474 0401 DC000000 		.4byte	.LVL63
 6475 0405 E4000000 		.4byte	.LVL64
 6476 0409 0200     		.2byte	0x2
 6477 040b 30       		.byte	0x30
 6478 040c 9F       		.byte	0x9f
 6479 040d E4000000 		.4byte	.LVL64
 6480 0411 E8000000 		.4byte	.LVL65
 6481 0415 0200     		.2byte	0x2
 6482 0417 31       		.byte	0x31
 6483 0418 9F       		.byte	0x9f
 6484 0419 00000000 		.4byte	0
 6485 041d 00000000 		.4byte	0
 6486              	.LLST17:
 6487 0421 F2000000 		.4byte	.LVL66
 6488 0425 50010000 		.4byte	.LVL71
 6489 0429 0100     		.2byte	0x1
 6490 042b 50       		.byte	0x50
 6491 042c A0050000 		.4byte	.LVL116
 6492 0430 A6050000 		.4byte	.LVL117
 6493 0434 0100     		.2byte	0x1
 6494 0436 50       		.byte	0x50
 6495 0437 00000000 		.4byte	0
 6496 043b 00000000 		.4byte	0
 6497              	.LLST18:
 6498 043f 20010000 		.4byte	.LVL70
 6499 0443 AA020000 		.4byte	.LVL96
 6500 0447 0100     		.2byte	0x1
 6501 0449 5B       		.byte	0x5b
 6502 044a AA020000 		.4byte	.LVL96
 6503 044e B6020000 		.4byte	.LVL98
 6504 0452 0200     		.2byte	0x2
 6505 0454 34       		.byte	0x34
 6506 0455 9F       		.byte	0x9f
 6507 0456 B6020000 		.4byte	.LVL98
 6508 045a CC020000 		.4byte	.LVL100
 6509 045e 0200     		.2byte	0x2
 6510 0460 35       		.byte	0x35
 6511 0461 9F       		.byte	0x9f
 6512 0462 CC020000 		.4byte	.LVL100
 6513 0466 E2020000 		.4byte	.LVL102
 6514 046a 0200     		.2byte	0x2
 6515 046c 36       		.byte	0x36
 6516 046d 9F       		.byte	0x9f
 6517 046e E2020000 		.4byte	.LVL102
 6518 0472 F6020000 		.4byte	.LVL105
ARM GAS  C:\Users\ingan\AppData\Local\Temp\cc5yuDXv.s 			page 153


 6519 0476 0200     		.2byte	0x2
 6520 0478 37       		.byte	0x37
 6521 0479 9F       		.byte	0x9f
 6522 047a F6020000 		.4byte	.LVL105
 6523 047e FE020000 		.4byte	.LVL106
 6524 0482 0200     		.2byte	0x2
 6525 0484 38       		.byte	0x38
 6526 0485 9F       		.byte	0x9f
 6527 0486 FE020000 		.4byte	.LVL106
 6528 048a 9A050000 		.4byte	.LVL115
 6529 048e 0200     		.2byte	0x2
 6530 0490 39       		.byte	0x39
 6531 0491 9F       		.byte	0x9f
 6532 0492 A6050000 		.4byte	.LVL117
 6533 0496 C0050000 		.4byte	.LVL123
 6534 049a 0100     		.2byte	0x1
 6535 049c 5B       		.byte	0x5b
 6536 049d C0050000 		.4byte	.LVL123
 6537 04a1 24060000 		.4byte	.LFE4
 6538 04a5 0200     		.2byte	0x2
 6539 04a7 39       		.byte	0x39
 6540 04a8 9F       		.byte	0x9f
 6541 04a9 00000000 		.4byte	0
 6542 04ad 00000000 		.4byte	0
 6543              	.LLST19:
 6544 04b1 54010000 		.4byte	.LVL72
 6545 04b5 88010000 		.4byte	.LVL73
 6546 04b9 0200     		.2byte	0x2
 6547 04bb 30       		.byte	0x30
 6548 04bc 9F       		.byte	0x9f
 6549 04bd BC050000 		.4byte	.LVL122
 6550 04c1 C0050000 		.4byte	.LVL123
 6551 04c5 0200     		.2byte	0x2
 6552 04c7 30       		.byte	0x30
 6553 04c8 9F       		.byte	0x9f
 6554 04c9 00000000 		.4byte	0
 6555 04cd 00000000 		.4byte	0
 6556              	.LLST20:
 6557 04d1 20010000 		.4byte	.LVL70
 6558 04d5 50010000 		.4byte	.LVL71
 6559 04d9 0200     		.2byte	0x2
 6560 04db 31       		.byte	0x31
 6561 04dc 9F       		.byte	0x9f
 6562 04dd 54010000 		.4byte	.LVL72
 6563 04e1 0A020000 		.4byte	.LVL82
 6564 04e5 0100     		.2byte	0x1
 6565 04e7 5A       		.byte	0x5a
 6566 04e8 0A020000 		.4byte	.LVL82
 6567 04ec 0C020000 		.4byte	.LVL83
 6568 04f0 0300     		.2byte	0x3
 6569 04f2 76       		.byte	0x76
 6570 04f3 01       		.sleb128 1
 6571 04f4 9F       		.byte	0x9f
 6572 04f5 0C020000 		.4byte	.LVL83
 6573 04f9 12020000 		.4byte	.LVL84
 6574 04fd 0300     		.2byte	0x3
 6575 04ff 7A       		.byte	0x7a
ARM GAS  C:\Users\ingan\AppData\Local\Temp\cc5yuDXv.s 			page 154


 6576 0500 01       		.sleb128 1
 6577 0501 9F       		.byte	0x9f
 6578 0502 12020000 		.4byte	.LVL84
 6579 0506 24020000 		.4byte	.LVL86
 6580 050a 0200     		.2byte	0x2
 6581 050c 30       		.byte	0x30
 6582 050d 9F       		.byte	0x9f
 6583 050e A6050000 		.4byte	.LVL117
 6584 0512 B8050000 		.4byte	.LVL120
 6585 0516 0100     		.2byte	0x1
 6586 0518 5A       		.byte	0x5a
 6587 0519 BC050000 		.4byte	.LVL122
 6588 051d C0050000 		.4byte	.LVL123
 6589 0521 0100     		.2byte	0x1
 6590 0523 5A       		.byte	0x5a
 6591 0524 00000000 		.4byte	0
 6592 0528 00000000 		.4byte	0
 6593              	.LLST21:
 6594 052c D6010000 		.4byte	.LVL76
 6595 0530 E0010000 		.4byte	.LVL77
 6596 0534 0100     		.2byte	0x1
 6597 0536 51       		.byte	0x51
 6598 0537 E0010000 		.4byte	.LVL77
 6599 053b E4010000 		.4byte	.LVL78
 6600 053f 0700     		.2byte	0x7
 6601 0541 74       		.byte	0x74
 6602 0542 03       		.sleb128 3
 6603 0543 94       		.byte	0x94
 6604 0544 01       		.byte	0x1
 6605 0545 33       		.byte	0x33
 6606 0546 1A       		.byte	0x1a
 6607 0547 9F       		.byte	0x9f
 6608 0548 A6050000 		.4byte	.LVL117
 6609 054c AC050000 		.4byte	.LVL118
 6610 0550 0100     		.2byte	0x1
 6611 0552 51       		.byte	0x51
 6612 0553 AC050000 		.4byte	.LVL118
 6613 0557 B0050000 		.4byte	.LVL119
 6614 055b 0700     		.2byte	0x7
 6615 055d 74       		.byte	0x74
 6616 055e 03       		.sleb128 3
 6617 055f 94       		.byte	0x94
 6618 0560 01       		.byte	0x1
 6619 0561 33       		.byte	0x33
 6620 0562 1A       		.byte	0x1a
 6621 0563 9F       		.byte	0x9f
 6622 0564 00000000 		.4byte	0
 6623 0568 00000000 		.4byte	0
 6624              	.LLST22:
 6625 056c 16010000 		.4byte	.LVL69
 6626 0570 50010000 		.4byte	.LVL71
 6627 0574 0200     		.2byte	0x2
 6628 0576 7A       		.byte	0x7a
 6629 0577 04       		.sleb128 4
 6630 0578 00000000 		.4byte	0
 6631 057c 00000000 		.4byte	0
 6632              	.LLST23:
ARM GAS  C:\Users\ingan\AppData\Local\Temp\cc5yuDXv.s 			page 155


 6633 0580 AA020000 		.4byte	.LVL96
 6634 0584 AE020000 		.4byte	.LVL97
 6635 0588 0100     		.2byte	0x1
 6636 058a 54       		.byte	0x54
 6637 058b AE020000 		.4byte	.LVL97
 6638 058f EE020000 		.4byte	.LVL103
 6639 0593 0100     		.2byte	0x1
 6640 0595 52       		.byte	0x52
 6641 0596 EE020000 		.4byte	.LVL103
 6642 059a F4020000 		.4byte	.LVL104
 6643 059e 0100     		.2byte	0x1
 6644 05a0 53       		.byte	0x53
 6645 05a1 F6020000 		.4byte	.LVL105
 6646 05a5 FE020000 		.4byte	.LVL106
 6647 05a9 0100     		.2byte	0x1
 6648 05ab 53       		.byte	0x53
 6649 05ac 00000000 		.4byte	0
 6650 05b0 00000000 		.4byte	0
 6651              	.LLST24:
 6652 05b4 16010000 		.4byte	.LVL69
 6653 05b8 50010000 		.4byte	.LVL71
 6654 05bc 0300     		.2byte	0x3
 6655 05be 7A       		.byte	0x7a
 6656 05bf 08       		.sleb128 8
 6657 05c0 9F       		.byte	0x9f
 6658 05c1 00000000 		.4byte	0
 6659 05c5 00000000 		.4byte	0
 6660              	.LLST25:
 6661 05c9 88010000 		.4byte	.LVL73
 6662 05cd 00020000 		.4byte	.LVL80
 6663 05d1 0100     		.2byte	0x1
 6664 05d3 54       		.byte	0x54
 6665 05d4 00020000 		.4byte	.LVL80
 6666 05d8 06020000 		.4byte	.LVL81
 6667 05dc 0300     		.2byte	0x3
 6668 05de 74       		.byte	0x74
 6669 05df 78       		.sleb128 -8
 6670 05e0 9F       		.byte	0x9f
 6671 05e1 06020000 		.4byte	.LVL81
 6672 05e5 0A020000 		.4byte	.LVL82
 6673 05e9 0100     		.2byte	0x1
 6674 05eb 54       		.byte	0x54
 6675 05ec 24020000 		.4byte	.LVL86
 6676 05f0 36020000 		.4byte	.LVL87
 6677 05f4 0300     		.2byte	0x3
 6678 05f6 72       		.byte	0x72
 6679 05f7 78       		.sleb128 -8
 6680 05f8 9F       		.byte	0x9f
 6681 05f9 36020000 		.4byte	.LVL87
 6682 05fd 3E020000 		.4byte	.LVL88
 6683 0601 0300     		.2byte	0x3
 6684 0603 72       		.byte	0x72
 6685 0604 70       		.sleb128 -16
 6686 0605 9F       		.byte	0x9f
 6687 0606 A6050000 		.4byte	.LVL117
 6688 060a B8050000 		.4byte	.LVL120
 6689 060e 0100     		.2byte	0x1
ARM GAS  C:\Users\ingan\AppData\Local\Temp\cc5yuDXv.s 			page 156


 6690 0610 54       		.byte	0x54
 6691 0611 00000000 		.4byte	0
 6692 0615 00000000 		.4byte	0
 6693              	.LLST26:
 6694 0619 F2000000 		.4byte	.LVL66
 6695 061d 50010000 		.4byte	.LVL71
 6696 0621 0200     		.2byte	0x2
 6697 0623 30       		.byte	0x30
 6698 0624 9F       		.byte	0x9f
 6699 0625 54010000 		.4byte	.LVL72
 6700 0629 FD010000 		.4byte	.LVL79-1
 6701 062d 0100     		.2byte	0x1
 6702 062f 52       		.byte	0x52
 6703 0630 06020000 		.4byte	.LVL81
 6704 0634 1E020000 		.4byte	.LVL85
 6705 0638 0100     		.2byte	0x1
 6706 063a 52       		.byte	0x52
 6707 063b A0050000 		.4byte	.LVL116
 6708 063f A6050000 		.4byte	.LVL117
 6709 0643 0200     		.2byte	0x2
 6710 0645 30       		.byte	0x30
 6711 0646 9F       		.byte	0x9f
 6712 0647 A6050000 		.4byte	.LVL117
 6713 064b B8050000 		.4byte	.LVL120
 6714 064f 0100     		.2byte	0x1
 6715 0651 52       		.byte	0x52
 6716 0652 BC050000 		.4byte	.LVL122
 6717 0656 C0050000 		.4byte	.LVL123
 6718 065a 0100     		.2byte	0x1
 6719 065c 52       		.byte	0x52
 6720 065d 00000000 		.4byte	0
 6721 0661 00000000 		.4byte	0
 6722              	.LLST27:
 6723 0665 06010000 		.4byte	.LVL67
 6724 0669 12010000 		.4byte	.LVL68
 6725 066d 0100     		.2byte	0x1
 6726 066f 53       		.byte	0x53
 6727 0670 00000000 		.4byte	0
 6728 0674 00000000 		.4byte	0
 6729              	.LLST28:
 6730 0678 06010000 		.4byte	.LVL67
 6731 067c 16010000 		.4byte	.LVL69
 6732 0680 0300     		.2byte	0x3
 6733 0682 72       		.byte	0x72
 6734 0683 10       		.sleb128 16
 6735 0684 9F       		.byte	0x9f
 6736 0685 00000000 		.4byte	0
 6737 0689 00000000 		.4byte	0
 6738              	.LLST29:
 6739 068d 68020000 		.4byte	.LVL93
 6740 0691 6C020000 		.4byte	.LVL94
 6741 0695 0800     		.2byte	0x8
 6742 0697 72       		.byte	0x72
 6743 0698 02       		.sleb128 2
 6744 0699 33       		.byte	0x33
 6745 069a 24       		.byte	0x24
 6746 069b 73       		.byte	0x73
ARM GAS  C:\Users\ingan\AppData\Local\Temp\cc5yuDXv.s 			page 157


 6747 069c 00       		.sleb128 0
 6748 069d 22       		.byte	0x22
 6749 069e 9F       		.byte	0x9f
 6750 069f 00000000 		.4byte	0
 6751 06a3 00000000 		.4byte	0
 6752              	.LLST30:
 6753 06a7 64020000 		.4byte	.LVL92
 6754 06ab 6C020000 		.4byte	.LVL94
 6755 06af 0500     		.2byte	0x5
 6756 06b1 73       		.byte	0x73
 6757 06b2 04       		.sleb128 4
 6758 06b3 06       		.byte	0x6
 6759 06b4 23       		.byte	0x23
 6760 06b5 04       		.uleb128 0x4
 6761 06b6 6C020000 		.4byte	.LVL94
 6762 06ba 6E020000 		.4byte	.LVL95
 6763 06be 0100     		.2byte	0x1
 6764 06c0 52       		.byte	0x52
 6765 06c1 00000000 		.4byte	0
 6766 06c5 00000000 		.4byte	0
 6767              	.LLST31:
 6768 06c9 54020000 		.4byte	.LVL89
 6769 06cd 60020000 		.4byte	.LVL90
 6770 06d1 0100     		.2byte	0x1
 6771 06d3 53       		.byte	0x53
 6772 06d4 B8050000 		.4byte	.LVL120
 6773 06d8 BA050000 		.4byte	.LVL121
 6774 06dc 0100     		.2byte	0x1
 6775 06de 53       		.byte	0x53
 6776 06df 00000000 		.4byte	0
 6777 06e3 00000000 		.4byte	0
 6778              	.LLST32:
 6779 06e7 54020000 		.4byte	.LVL89
 6780 06eb 62020000 		.4byte	.LVL91
 6781 06ef 0300     		.2byte	0x3
 6782 06f1 72       		.byte	0x72
 6783 06f2 10       		.sleb128 16
 6784 06f3 9F       		.byte	0x9f
 6785 06f4 B8050000 		.4byte	.LVL120
 6786 06f8 BC050000 		.4byte	.LVL122
 6787 06fc 0300     		.2byte	0x3
 6788 06fe 72       		.byte	0x72
 6789 06ff 10       		.sleb128 16
 6790 0700 9F       		.byte	0x9f
 6791 0701 00000000 		.4byte	0
 6792 0705 00000000 		.4byte	0
 6793              	.LLST33:
 6794 0709 FE020000 		.4byte	.LVL106
 6795 070d 3E030000 		.4byte	.LVL107
 6796 0711 0200     		.2byte	0x2
 6797 0713 31       		.byte	0x31
 6798 0714 9F       		.byte	0x9f
 6799 0715 3E030000 		.4byte	.LVL107
 6800 0719 80030000 		.4byte	.LVL108
 6801 071d 0200     		.2byte	0x2
 6802 071f 32       		.byte	0x32
 6803 0720 9F       		.byte	0x9f
ARM GAS  C:\Users\ingan\AppData\Local\Temp\cc5yuDXv.s 			page 158


 6804 0721 80030000 		.4byte	.LVL108
 6805 0725 C6030000 		.4byte	.LVL109
 6806 0729 0200     		.2byte	0x2
 6807 072b 33       		.byte	0x33
 6808 072c 9F       		.byte	0x9f
 6809 072d C6030000 		.4byte	.LVL109
 6810 0731 0C040000 		.4byte	.LVL110
 6811 0735 0200     		.2byte	0x2
 6812 0737 34       		.byte	0x34
 6813 0738 9F       		.byte	0x9f
 6814 0739 0C040000 		.4byte	.LVL110
 6815 073d 5A040000 		.4byte	.LVL111
 6816 0741 0200     		.2byte	0x2
 6817 0743 35       		.byte	0x35
 6818 0744 9F       		.byte	0x9f
 6819 0745 5A040000 		.4byte	.LVL111
 6820 0749 A8040000 		.4byte	.LVL112
 6821 074d 0200     		.2byte	0x2
 6822 074f 36       		.byte	0x36
 6823 0750 9F       		.byte	0x9f
 6824 0751 A8040000 		.4byte	.LVL112
 6825 0755 F6040000 		.4byte	.LVL113
 6826 0759 0200     		.2byte	0x2
 6827 075b 37       		.byte	0x37
 6828 075c 9F       		.byte	0x9f
 6829 075d F6040000 		.4byte	.LVL113
 6830 0761 98050000 		.4byte	.LVL114
 6831 0765 0200     		.2byte	0x2
 6832 0767 38       		.byte	0x38
 6833 0768 9F       		.byte	0x9f
 6834 0769 98050000 		.4byte	.LVL114
 6835 076d 9A050000 		.4byte	.LVL115
 6836 0771 0200     		.2byte	0x2
 6837 0773 39       		.byte	0x39
 6838 0774 9F       		.byte	0x9f
 6839 0775 C0050000 		.4byte	.LVL123
 6840 0779 C8050000 		.4byte	.LVL124
 6841 077d 0200     		.2byte	0x2
 6842 077f 38       		.byte	0x38
 6843 0780 9F       		.byte	0x9f
 6844 0781 C8050000 		.4byte	.LVL124
 6845 0785 D0050000 		.4byte	.LVL125
 6846 0789 0200     		.2byte	0x2
 6847 078b 37       		.byte	0x37
 6848 078c 9F       		.byte	0x9f
 6849 078d D0050000 		.4byte	.LVL125
 6850 0791 D8050000 		.4byte	.LVL126
 6851 0795 0200     		.2byte	0x2
 6852 0797 36       		.byte	0x36
 6853 0798 9F       		.byte	0x9f
 6854 0799 D8050000 		.4byte	.LVL126
 6855 079d E0050000 		.4byte	.LVL127
 6856 07a1 0200     		.2byte	0x2
 6857 07a3 35       		.byte	0x35
 6858 07a4 9F       		.byte	0x9f
 6859 07a5 E0050000 		.4byte	.LVL127
 6860 07a9 E8050000 		.4byte	.LVL128
ARM GAS  C:\Users\ingan\AppData\Local\Temp\cc5yuDXv.s 			page 159


 6861 07ad 0200     		.2byte	0x2
 6862 07af 34       		.byte	0x34
 6863 07b0 9F       		.byte	0x9f
 6864 07b1 E8050000 		.4byte	.LVL128
 6865 07b5 F0050000 		.4byte	.LVL129
 6866 07b9 0200     		.2byte	0x2
 6867 07bb 33       		.byte	0x33
 6868 07bc 9F       		.byte	0x9f
 6869 07bd F0050000 		.4byte	.LVL129
 6870 07c1 F8050000 		.4byte	.LVL130
 6871 07c5 0200     		.2byte	0x2
 6872 07c7 32       		.byte	0x32
 6873 07c8 9F       		.byte	0x9f
 6874 07c9 F8050000 		.4byte	.LVL130
 6875 07cd 24060000 		.4byte	.LFE4
 6876 07d1 0200     		.2byte	0x2
 6877 07d3 31       		.byte	0x31
 6878 07d4 9F       		.byte	0x9f
 6879 07d5 00000000 		.4byte	0
 6880 07d9 00000000 		.4byte	0
 6881              	.LLST34:
 6882 07dd C6000000 		.4byte	.LVL142
 6883 07e1 CE000000 		.4byte	.LVL143
 6884 07e5 0100     		.2byte	0x1
 6885 07e7 53       		.byte	0x53
 6886 07e8 00000000 		.4byte	0
 6887 07ec 00000000 		.4byte	0
 6888              	.LLST35:
 6889 07f0 CC010000 		.4byte	.LVL158
 6890 07f4 D4010000 		.4byte	.LVL159
 6891 07f8 0100     		.2byte	0x1
 6892 07fa 53       		.byte	0x53
 6893 07fb 00000000 		.4byte	0
 6894 07ff 00000000 		.4byte	0
 6895              	.LLST36:
 6896 0803 0C000000 		.4byte	.LVL132
 6897 0807 34000000 		.4byte	.LVL133
 6898 080b 0100     		.2byte	0x1
 6899 080d 53       		.byte	0x53
 6900 080e 42000000 		.4byte	.LVL135
 6901 0812 7A000000 		.4byte	.LVL137
 6902 0816 0100     		.2byte	0x1
 6903 0818 53       		.byte	0x53
 6904 0819 E8000000 		.4byte	.LVL144
 6905 081d EC000000 		.4byte	.LVL145
 6906 0821 0100     		.2byte	0x1
 6907 0823 53       		.byte	0x53
 6908 0824 54010000 		.4byte	.LVL149
 6909 0828 58010000 		.4byte	.LVL150
 6910 082c 0100     		.2byte	0x1
 6911 082e 53       		.byte	0x53
 6912 082f B6010000 		.4byte	.LVL154
 6913 0833 B8010000 		.4byte	.LVL155
 6914 0837 0100     		.2byte	0x1
 6915 0839 53       		.byte	0x53
 6916 083a C8010000 		.4byte	.LVL156
 6917 083e CA010000 		.4byte	.LVL157
ARM GAS  C:\Users\ingan\AppData\Local\Temp\cc5yuDXv.s 			page 160


 6918 0842 0100     		.2byte	0x1
 6919 0844 53       		.byte	0x53
 6920 0845 10020000 		.4byte	.LVL165
 6921 0849 14020000 		.4byte	.LVL166
 6922 084d 0100     		.2byte	0x1
 6923 084f 53       		.byte	0x53
 6924 0850 26020000 		.4byte	.LVL167
 6925 0854 28020000 		.4byte	.LVL168
 6926 0858 0100     		.2byte	0x1
 6927 085a 53       		.byte	0x53
 6928 085b C8020000 		.4byte	.LVL178
 6929 085f CC020000 		.4byte	.LVL179
 6930 0863 0100     		.2byte	0x1
 6931 0865 53       		.byte	0x53
 6932 0866 FE020000 		.4byte	.LVL180
 6933 086a 00030000 		.4byte	.LVL181
 6934 086e 0100     		.2byte	0x1
 6935 0870 53       		.byte	0x53
 6936 0871 00000000 		.4byte	0
 6937 0875 00000000 		.4byte	0
 6938              	.LLST37:
 6939 0879 0C000000 		.4byte	.LVL132
 6940 087d 3E000000 		.4byte	.LVL134
 6941 0881 0200     		.2byte	0x2
 6942 0883 30       		.byte	0x30
 6943 0884 9F       		.byte	0x9f
 6944 0885 42000000 		.4byte	.LVL135
 6945 0889 40020000 		.4byte	.LVL169
 6946 088d 0200     		.2byte	0x2
 6947 088f 30       		.byte	0x30
 6948 0890 9F       		.byte	0x9f
 6949 0891 54020000 		.4byte	.LVL170
 6950 0895 66020000 		.4byte	.LVL175
 6951 0899 0100     		.2byte	0x1
 6952 089b 52       		.byte	0x52
 6953 089c 78020000 		.4byte	.LVL176
 6954 08a0 8D020000 		.4byte	.LVL177-1
 6955 08a4 0100     		.2byte	0x1
 6956 08a6 52       		.byte	0x52
 6957 08a7 C8020000 		.4byte	.LVL178
 6958 08ab EC030000 		.4byte	.LVL195
 6959 08af 0200     		.2byte	0x2
 6960 08b1 30       		.byte	0x30
 6961 08b2 9F       		.byte	0x9f
 6962 08b3 00000000 		.4byte	0
 6963 08b7 00000000 		.4byte	0
 6964              	.LLST38:
 6965 08bb 40020000 		.4byte	.LVL169
 6966 08bf 54020000 		.4byte	.LVL170
 6967 08c3 0200     		.2byte	0x2
 6968 08c5 30       		.byte	0x30
 6969 08c6 9F       		.byte	0x9f
 6970 08c7 54020000 		.4byte	.LVL170
 6971 08cb 5C020000 		.4byte	.LVL173
 6972 08cf 0100     		.2byte	0x1
 6973 08d1 53       		.byte	0x53
 6974 08d2 64020000 		.4byte	.LVL174
ARM GAS  C:\Users\ingan\AppData\Local\Temp\cc5yuDXv.s 			page 161


 6975 08d6 66020000 		.4byte	.LVL175
 6976 08da 0100     		.2byte	0x1
 6977 08dc 53       		.byte	0x53
 6978 08dd F6030000 		.4byte	.LVL197
 6979 08e1 24040000 		.4byte	.LFE0
 6980 08e5 0200     		.2byte	0x2
 6981 08e7 30       		.byte	0x30
 6982 08e8 9F       		.byte	0x9f
 6983 08e9 00000000 		.4byte	0
 6984 08ed 00000000 		.4byte	0
 6985              	.LLST39:
 6986 08f1 54020000 		.4byte	.LVL170
 6987 08f5 58020000 		.4byte	.LVL171
 6988 08f9 0100     		.2byte	0x1
 6989 08fb 55       		.byte	0x55
 6990 08fc 5A020000 		.4byte	.LVL172
 6991 0900 66020000 		.4byte	.LVL175
 6992 0904 0100     		.2byte	0x1
 6993 0906 55       		.byte	0x55
 6994 0907 00000000 		.4byte	0
 6995 090b 00000000 		.4byte	0
 6996              	.LLST40:
 6997 090f EA010000 		.4byte	.LVL161
 6998 0913 EE010000 		.4byte	.LVL162
 6999 0917 0C00     		.2byte	0xc
 7000 0919 73       		.byte	0x73
 7001 091a 00       		.sleb128 0
 7002 091b 08       		.byte	0x8
 7003 091c FF       		.byte	0xff
 7004 091d 1A       		.byte	0x1a
 7005 091e 33       		.byte	0x33
 7006 091f 24       		.byte	0x24
 7007 0920 71       		.byte	0x71
 7008 0921 00       		.sleb128 0
 7009 0922 22       		.byte	0x22
 7010 0923 23       		.byte	0x23
 7011 0924 14       		.uleb128 0x14
 7012 0925 EE010000 		.4byte	.LVL162
 7013 0929 F6010000 		.4byte	.LVL163
 7014 092d 0C00     		.2byte	0xc
 7015 092f 72       		.byte	0x72
 7016 0930 7F       		.sleb128 -1
 7017 0931 08       		.byte	0x8
 7018 0932 FF       		.byte	0xff
 7019 0933 1A       		.byte	0x1a
 7020 0934 33       		.byte	0x33
 7021 0935 24       		.byte	0x24
 7022 0936 71       		.byte	0x71
 7023 0937 00       		.sleb128 0
 7024 0938 22       		.byte	0x22
 7025 0939 23       		.byte	0x23
 7026 093a 14       		.uleb128 0x14
 7027 093b 00000000 		.4byte	0
 7028 093f 00000000 		.4byte	0
 7029              	.LLST41:
 7030 0943 78000000 		.4byte	.LVL136
 7031 0947 C0000000 		.4byte	.LVL141
ARM GAS  C:\Users\ingan\AppData\Local\Temp\cc5yuDXv.s 			page 162


 7032 094b 0200     		.2byte	0x2
 7033 094d 30       		.byte	0x30
 7034 094e 9F       		.byte	0x9f
 7035 094f 0E030000 		.4byte	.LVL182
 7036 0953 14030000 		.4byte	.LVL183
 7037 0957 0200     		.2byte	0x2
 7038 0959 30       		.byte	0x30
 7039 095a 9F       		.byte	0x9f
 7040 095b 00000000 		.4byte	0
 7041 095f 00000000 		.4byte	0
 7042              	.LLST42:
 7043 0963 94000000 		.4byte	.LVL138
 7044 0967 C0000000 		.4byte	.LVL141
 7045 096b 0100     		.2byte	0x1
 7046 096d 52       		.byte	0x52
 7047 096e 0E030000 		.4byte	.LVL182
 7048 0972 14030000 		.4byte	.LVL183
 7049 0976 0100     		.2byte	0x1
 7050 0978 52       		.byte	0x52
 7051 0979 00000000 		.4byte	0
 7052 097d 00000000 		.4byte	0
 7053              	.LLST43:
 7054 0981 9A000000 		.4byte	.LVL139
 7055 0985 9E000000 		.4byte	.LVL140
 7056 0989 1200     		.2byte	0x12
 7057 098b 73       		.byte	0x73
 7058 098c 00       		.sleb128 0
 7059 098d 08       		.byte	0x8
 7060 098e FF       		.byte	0xff
 7061 098f 1A       		.byte	0x1a
 7062 0990 33       		.byte	0x33
 7063 0991 24       		.byte	0x24
 7064 0992 71       		.byte	0x71
 7065 0993 00       		.sleb128 0
 7066 0994 22       		.byte	0x22
 7067 0995 23       		.byte	0x23
 7068 0996 14       		.uleb128 0x14
 7069 0997 06       		.byte	0x6
 7070 0998 23       		.byte	0x23
 7071 0999 04       		.uleb128 0x4
 7072 099a 06       		.byte	0x6
 7073 099b 23       		.byte	0x23
 7074 099c 04       		.uleb128 0x4
 7075 099d 00000000 		.4byte	0
 7076 09a1 00000000 		.4byte	0
 7077              	.LLST44:
 7078 09a5 94000000 		.4byte	.LVL138
 7079 09a9 9A000000 		.4byte	.LVL139
 7080 09ad 0100     		.2byte	0x1
 7081 09af 53       		.byte	0x53
 7082 09b0 00000000 		.4byte	0
 7083 09b4 00000000 		.4byte	0
 7084              	.LLST45:
 7085 09b8 94000000 		.4byte	.LVL138
 7086 09bc 9A000000 		.4byte	.LVL139
 7087 09c0 0300     		.2byte	0x3
 7088 09c2 71       		.byte	0x71
ARM GAS  C:\Users\ingan\AppData\Local\Temp\cc5yuDXv.s 			page 163


 7089 09c3 10       		.sleb128 16
 7090 09c4 9F       		.byte	0x9f
 7091 09c5 00000000 		.4byte	0
 7092 09c9 00000000 		.4byte	0
 7093              	.LLST46:
 7094 09cd 04010000 		.4byte	.LVL146
 7095 09d1 54010000 		.4byte	.LVL149
 7096 09d5 0200     		.2byte	0x2
 7097 09d7 30       		.byte	0x30
 7098 09d8 9F       		.byte	0x9f
 7099 09d9 E0030000 		.4byte	.LVL194
 7100 09dd EC030000 		.4byte	.LVL195
 7101 09e1 0200     		.2byte	0x2
 7102 09e3 30       		.byte	0x30
 7103 09e4 9F       		.byte	0x9f
 7104 09e5 00000000 		.4byte	0
 7105 09e9 00000000 		.4byte	0
 7106              	.LLST47:
 7107 09ed 0A010000 		.4byte	.LVL147
 7108 09f1 2A010000 		.4byte	.LVL148
 7109 09f5 0100     		.2byte	0x1
 7110 09f7 53       		.byte	0x53
 7111 09f8 00000000 		.4byte	0
 7112 09fc 00000000 		.4byte	0
 7113              	.LLST48:
 7114 0a00 76010000 		.4byte	.LVL151
 7115 0a04 B6010000 		.4byte	.LVL154
 7116 0a08 0200     		.2byte	0x2
 7117 0a0a 30       		.byte	0x30
 7118 0a0b 9F       		.byte	0x9f
 7119 0a0c 00000000 		.4byte	0
 7120 0a10 00000000 		.4byte	0
 7121              	.LLST49:
 7122 0a14 7C010000 		.4byte	.LVL152
 7123 0a18 92010000 		.4byte	.LVL153
 7124 0a1c 0100     		.2byte	0x1
 7125 0a1e 53       		.byte	0x53
 7126 0a1f 00000000 		.4byte	0
 7127 0a23 00000000 		.4byte	0
 7128              	.LLST50:
 7129 0a27 E2010000 		.4byte	.LVL160
 7130 0a2b EE010000 		.4byte	.LVL162
 7131 0a2f 0100     		.2byte	0x1
 7132 0a31 53       		.byte	0x53
 7133 0a32 EE010000 		.4byte	.LVL162
 7134 0a36 F6010000 		.4byte	.LVL163
 7135 0a3a 0300     		.2byte	0x3
 7136 0a3c 72       		.byte	0x72
 7137 0a3d 7F       		.sleb128 -1
 7138 0a3e 9F       		.byte	0x9f
 7139 0a3f 00000000 		.4byte	0
 7140 0a43 00000000 		.4byte	0
 7141              	.LLST51:
 7142 0a47 E2010000 		.4byte	.LVL160
 7143 0a4b EA010000 		.4byte	.LVL161
 7144 0a4f 0300     		.2byte	0x3
 7145 0a51 71       		.byte	0x71
ARM GAS  C:\Users\ingan\AppData\Local\Temp\cc5yuDXv.s 			page 164


 7146 0a52 10       		.sleb128 16
 7147 0a53 9F       		.byte	0x9f
 7148 0a54 EA010000 		.4byte	.LVL161
 7149 0a58 EE010000 		.4byte	.LVL162
 7150 0a5c 0C00     		.2byte	0xc
 7151 0a5e 73       		.byte	0x73
 7152 0a5f 00       		.sleb128 0
 7153 0a60 08       		.byte	0x8
 7154 0a61 FF       		.byte	0xff
 7155 0a62 1A       		.byte	0x1a
 7156 0a63 33       		.byte	0x33
 7157 0a64 24       		.byte	0x24
 7158 0a65 71       		.byte	0x71
 7159 0a66 00       		.sleb128 0
 7160 0a67 22       		.byte	0x22
 7161 0a68 23       		.byte	0x23
 7162 0a69 14       		.uleb128 0x14
 7163 0a6a EE010000 		.4byte	.LVL162
 7164 0a6e F6010000 		.4byte	.LVL163
 7165 0a72 0C00     		.2byte	0xc
 7166 0a74 72       		.byte	0x72
 7167 0a75 7F       		.sleb128 -1
 7168 0a76 08       		.byte	0x8
 7169 0a77 FF       		.byte	0xff
 7170 0a78 1A       		.byte	0x1a
 7171 0a79 33       		.byte	0x33
 7172 0a7a 24       		.byte	0x24
 7173 0a7b 71       		.byte	0x71
 7174 0a7c 00       		.sleb128 0
 7175 0a7d 22       		.byte	0x22
 7176 0a7e 23       		.byte	0x23
 7177 0a7f 14       		.uleb128 0x14
 7178 0a80 00000000 		.4byte	0
 7179 0a84 00000000 		.4byte	0
 7180              	.LLST52:
 7181 0a88 AC030000 		.4byte	.LVL190
 7182 0a8c BE030000 		.4byte	.LVL192
 7183 0a90 0100     		.2byte	0x1
 7184 0a92 53       		.byte	0x53
 7185 0a93 00000000 		.4byte	0
 7186 0a97 00000000 		.4byte	0
 7187              	.LLST53:
 7188 0a9b B2030000 		.4byte	.LVL191
 7189 0a9f C0030000 		.4byte	.LVL193
 7190 0aa3 0300     		.2byte	0x3
 7191 0aa5 72       		.byte	0x72
 7192 0aa6 10       		.sleb128 16
 7193 0aa7 9F       		.byte	0x9f
 7194 0aa8 00000000 		.4byte	0
 7195 0aac 00000000 		.4byte	0
 7196              	.LLST54:
 7197 0ab0 00000000 		.4byte	.LVL199
 7198 0ab4 18000000 		.4byte	.LVL202
 7199 0ab8 0100     		.2byte	0x1
 7200 0aba 50       		.byte	0x50
 7201 0abb 18000000 		.4byte	.LVL202
 7202 0abf 24000000 		.4byte	.LFE6
ARM GAS  C:\Users\ingan\AppData\Local\Temp\cc5yuDXv.s 			page 165


 7203 0ac3 0400     		.2byte	0x4
 7204 0ac5 F3       		.byte	0xf3
 7205 0ac6 01       		.uleb128 0x1
 7206 0ac7 50       		.byte	0x50
 7207 0ac8 9F       		.byte	0x9f
 7208 0ac9 00000000 		.4byte	0
 7209 0acd 00000000 		.4byte	0
 7210              	.LLST55:
 7211 0ad1 0C000000 		.4byte	.LVL200
 7212 0ad5 16000000 		.4byte	.LVL201
 7213 0ad9 0300     		.2byte	0x3
 7214 0adb 73       		.byte	0x73
 7215 0adc 10       		.sleb128 16
 7216 0add 9F       		.byte	0x9f
 7217 0ade 18000000 		.4byte	.LVL202
 7218 0ae2 24000000 		.4byte	.LFE6
 7219 0ae6 0100     		.2byte	0x1
 7220 0ae8 50       		.byte	0x50
 7221 0ae9 00000000 		.4byte	0
 7222 0aed 00000000 		.4byte	0
 7223              	.LLST56:
 7224 0af1 26000000 		.4byte	.LVL208
 7225 0af5 2A000000 		.4byte	.LVL209
 7226 0af9 0800     		.2byte	0x8
 7227 0afb 72       		.byte	0x72
 7228 0afc 02       		.sleb128 2
 7229 0afd 33       		.byte	0x33
 7230 0afe 24       		.byte	0x24
 7231 0aff 73       		.byte	0x73
 7232 0b00 00       		.sleb128 0
 7233 0b01 22       		.byte	0x22
 7234 0b02 9F       		.byte	0x9f
 7235 0b03 00000000 		.4byte	0
 7236 0b07 00000000 		.4byte	0
 7237              	.LLST57:
 7238 0b0b 2C000000 		.4byte	.LVL210
 7239 0b0f 2E000000 		.4byte	.LVL211
 7240 0b13 0100     		.2byte	0x1
 7241 0b15 50       		.byte	0x50
 7242 0b16 34000000 		.4byte	.LVL213
 7243 0b1a 44000000 		.4byte	.LFE8
 7244 0b1e 0100     		.2byte	0x1
 7245 0b20 50       		.byte	0x50
 7246 0b21 00000000 		.4byte	0
 7247 0b25 00000000 		.4byte	0
 7248              	.LLST58:
 7249 0b29 22000000 		.4byte	.LVL207
 7250 0b2d 2A000000 		.4byte	.LVL209
 7251 0b31 0500     		.2byte	0x5
 7252 0b33 73       		.byte	0x73
 7253 0b34 04       		.sleb128 4
 7254 0b35 06       		.byte	0x6
 7255 0b36 23       		.byte	0x23
 7256 0b37 04       		.uleb128 0x4
 7257 0b38 2A000000 		.4byte	.LVL209
 7258 0b3c 2E000000 		.4byte	.LVL211
 7259 0b40 0100     		.2byte	0x1
ARM GAS  C:\Users\ingan\AppData\Local\Temp\cc5yuDXv.s 			page 166


 7260 0b42 52       		.byte	0x52
 7261 0b43 00000000 		.4byte	0
 7262 0b47 00000000 		.4byte	0
 7263              	.LLST59:
 7264 0b4b 14000000 		.4byte	.LVL204
 7265 0b4f 1E000000 		.4byte	.LVL205
 7266 0b53 0100     		.2byte	0x1
 7267 0b55 53       		.byte	0x53
 7268 0b56 2E000000 		.4byte	.LVL211
 7269 0b5a 32000000 		.4byte	.LVL212
 7270 0b5e 0100     		.2byte	0x1
 7271 0b60 53       		.byte	0x53
 7272 0b61 00000000 		.4byte	0
 7273 0b65 00000000 		.4byte	0
 7274              	.LLST60:
 7275 0b69 14000000 		.4byte	.LVL204
 7276 0b6d 20000000 		.4byte	.LVL206
 7277 0b71 0300     		.2byte	0x3
 7278 0b73 72       		.byte	0x72
 7279 0b74 10       		.sleb128 16
 7280 0b75 9F       		.byte	0x9f
 7281 0b76 2E000000 		.4byte	.LVL211
 7282 0b7a 32000000 		.4byte	.LVL212
 7283 0b7e 0300     		.2byte	0x3
 7284 0b80 72       		.byte	0x72
 7285 0b81 10       		.sleb128 16
 7286 0b82 9F       		.byte	0x9f
 7287 0b83 00000000 		.4byte	0
 7288 0b87 00000000 		.4byte	0
 7289              	.LLST61:
 7290 0b8b 00000000 		.4byte	.LVL214
 7291 0b8f 04000000 		.4byte	.LVL215
 7292 0b93 0100     		.2byte	0x1
 7293 0b95 50       		.byte	0x50
 7294 0b96 04000000 		.4byte	.LVL215
 7295 0b9a 2A000000 		.4byte	.LVL216
 7296 0b9e 0100     		.2byte	0x1
 7297 0ba0 50       		.byte	0x50
 7298 0ba1 00000000 		.4byte	0
 7299 0ba5 00000000 		.4byte	0
 7300              	.LLST62:
 7301 0ba9 08000000 		.4byte	.LVL218
 7302 0bad 28000000 		.4byte	.LVL219
 7303 0bb1 0100     		.2byte	0x1
 7304 0bb3 53       		.byte	0x53
 7305 0bb4 44000000 		.4byte	.LVL220
 7306 0bb8 54000000 		.4byte	.LFE10
 7307 0bbc 0100     		.2byte	0x1
 7308 0bbe 53       		.byte	0x53
 7309 0bbf 00000000 		.4byte	0
 7310 0bc3 00000000 		.4byte	0
 7311              	.LLST63:
 7312 0bc7 08000000 		.4byte	.LVL222
 7313 0bcb 2C000000 		.4byte	.LVL223
 7314 0bcf 0100     		.2byte	0x1
 7315 0bd1 53       		.byte	0x53
 7316 0bd2 58000000 		.4byte	.LVL224
ARM GAS  C:\Users\ingan\AppData\Local\Temp\cc5yuDXv.s 			page 167


 7317 0bd6 5C000000 		.4byte	.LVL225
 7318 0bda 0100     		.2byte	0x1
 7319 0bdc 53       		.byte	0x53
 7320 0bdd 00000000 		.4byte	0
 7321 0be1 00000000 		.4byte	0
 7322              	.LLST64:
 7323 0be5 00000000 		.4byte	.LVL227
 7324 0be9 48000000 		.4byte	.LVL231
 7325 0bed 0200     		.2byte	0x2
 7326 0bef 30       		.byte	0x30
 7327 0bf0 9F       		.byte	0x9f
 7328 0bf1 48000000 		.4byte	.LVL231
 7329 0bf5 4C000000 		.4byte	.LVL232
 7330 0bf9 0200     		.2byte	0x2
 7331 0bfb 31       		.byte	0x31
 7332 0bfc 9F       		.byte	0x9f
 7333 0bfd 4C000000 		.4byte	.LVL232
 7334 0c01 54000000 		.4byte	.LVL233
 7335 0c05 0200     		.2byte	0x2
 7336 0c07 30       		.byte	0x30
 7337 0c08 9F       		.byte	0x9f
 7338 0c09 54000000 		.4byte	.LVL233
 7339 0c0d 70000000 		.4byte	.LFE12
 7340 0c11 0100     		.2byte	0x1
 7341 0c13 50       		.byte	0x50
 7342 0c14 00000000 		.4byte	0
 7343 0c18 00000000 		.4byte	0
 7344              	.LLST65:
 7345 0c1c 20000000 		.4byte	.LVL229
 7346 0c20 24000000 		.4byte	.LVL230
 7347 0c24 1200     		.2byte	0x12
 7348 0c26 73       		.byte	0x73
 7349 0c27 00       		.sleb128 0
 7350 0c28 08       		.byte	0x8
 7351 0c29 FF       		.byte	0xff
 7352 0c2a 1A       		.byte	0x1a
 7353 0c2b 33       		.byte	0x33
 7354 0c2c 24       		.byte	0x24
 7355 0c2d 71       		.byte	0x71
 7356 0c2e 00       		.sleb128 0
 7357 0c2f 22       		.byte	0x22
 7358 0c30 23       		.byte	0x23
 7359 0c31 14       		.uleb128 0x14
 7360 0c32 06       		.byte	0x6
 7361 0c33 23       		.byte	0x23
 7362 0c34 04       		.uleb128 0x4
 7363 0c35 06       		.byte	0x6
 7364 0c36 23       		.byte	0x23
 7365 0c37 04       		.uleb128 0x4
 7366 0c38 00000000 		.4byte	0
 7367 0c3c 00000000 		.4byte	0
 7368              	.LLST66:
 7369 0c40 1C000000 		.4byte	.LVL228
 7370 0c44 20000000 		.4byte	.LVL229
 7371 0c48 0100     		.2byte	0x1
 7372 0c4a 53       		.byte	0x53
 7373 0c4b 00000000 		.4byte	0
ARM GAS  C:\Users\ingan\AppData\Local\Temp\cc5yuDXv.s 			page 168


 7374 0c4f 00000000 		.4byte	0
 7375              	.LLST67:
 7376 0c53 1C000000 		.4byte	.LVL228
 7377 0c57 20000000 		.4byte	.LVL229
 7378 0c5b 0300     		.2byte	0x3
 7379 0c5d 71       		.byte	0x71
 7380 0c5e 10       		.sleb128 16
 7381 0c5f 9F       		.byte	0x9f
 7382 0c60 00000000 		.4byte	0
 7383 0c64 00000000 		.4byte	0
 7384              		.section	.debug_aranges,"",%progbits
 7385 0000 84000000 		.4byte	0x84
 7386 0004 0200     		.2byte	0x2
 7387 0006 00000000 		.4byte	.Ldebug_info0
 7388 000a 04       		.byte	0x4
 7389 000b 00       		.byte	0
 7390 000c 0000     		.2byte	0
 7391 000e 0000     		.2byte	0
 7392 0010 00000000 		.4byte	.LFB13
 7393 0014 60010000 		.4byte	.LFE13-.LFB13
 7394 0018 00000000 		.4byte	.LFB1
 7395 001c 48010000 		.4byte	.LFE1-.LFB1
 7396 0020 00000000 		.4byte	.LFB2
 7397 0024 D4020000 		.4byte	.LFE2-.LFB2
 7398 0028 00000000 		.4byte	.LFB3
 7399 002c 90000000 		.4byte	.LFE3-.LFB3
 7400 0030 00000000 		.4byte	.LFB4
 7401 0034 24060000 		.4byte	.LFE4-.LFB4
 7402 0038 00000000 		.4byte	.LFB0
 7403 003c 24040000 		.4byte	.LFE0-.LFB0
 7404 0040 00000000 		.4byte	.LFB5
 7405 0044 10000000 		.4byte	.LFE5-.LFB5
 7406 0048 00000000 		.4byte	.LFB6
 7407 004c 24000000 		.4byte	.LFE6-.LFB6
 7408 0050 00000000 		.4byte	.LFB7
 7409 0054 18000000 		.4byte	.LFE7-.LFB7
 7410 0058 00000000 		.4byte	.LFB8
 7411 005c 44000000 		.4byte	.LFE8-.LFB8
 7412 0060 00000000 		.4byte	.LFB9
 7413 0064 48000000 		.4byte	.LFE9-.LFB9
 7414 0068 00000000 		.4byte	.LFB10
 7415 006c 54000000 		.4byte	.LFE10-.LFB10
 7416 0070 00000000 		.4byte	.LFB11
 7417 0074 78000000 		.4byte	.LFE11-.LFB11
 7418 0078 00000000 		.4byte	.LFB12
 7419 007c 70000000 		.4byte	.LFE12-.LFB12
 7420 0080 00000000 		.4byte	0
 7421 0084 00000000 		.4byte	0
 7422              		.section	.debug_ranges,"",%progbits
 7423              	.Ldebug_ranges0:
 7424 0000 02000000 		.4byte	.LBB24
 7425 0004 04000000 		.4byte	.LBE24
 7426 0008 06000000 		.4byte	.LBB29
 7427 000c 0A000000 		.4byte	.LBE29
 7428 0010 0C000000 		.4byte	.LBB30
 7429 0014 12000000 		.4byte	.LBE30
 7430 0018 14000000 		.4byte	.LBB31
ARM GAS  C:\Users\ingan\AppData\Local\Temp\cc5yuDXv.s 			page 169


 7431 001c 22000000 		.4byte	.LBE31
 7432 0020 00000000 		.4byte	0
 7433 0024 00000000 		.4byte	0
 7434 0028 F2000000 		.4byte	.LBB43
 7435 002c 9A050000 		.4byte	.LBE43
 7436 0030 A0050000 		.4byte	.LBB78
 7437 0034 24060000 		.4byte	.LBE78
 7438 0038 00000000 		.4byte	0
 7439 003c 00000000 		.4byte	0
 7440 0040 F4000000 		.4byte	.LBB46
 7441 0044 F6000000 		.4byte	.LBE46
 7442 0048 F8000000 		.4byte	.LBB51
 7443 004c FC000000 		.4byte	.LBE51
 7444 0050 FE000000 		.4byte	.LBB52
 7445 0054 04010000 		.4byte	.LBE52
 7446 0058 06010000 		.4byte	.LBB53
 7447 005c 16010000 		.4byte	.LBE53
 7448 0060 00000000 		.4byte	0
 7449 0064 00000000 		.4byte	0
 7450 0068 40020000 		.4byte	.LBB54
 7451 006c 6E020000 		.4byte	.LBE54
 7452 0070 B8050000 		.4byte	.LBB74
 7453 0074 BC050000 		.4byte	.LBE74
 7454 0078 00000000 		.4byte	0
 7455 007c 00000000 		.4byte	0
 7456 0080 42020000 		.4byte	.LBB56
 7457 0084 44020000 		.4byte	.LBE56
 7458 0088 46020000 		.4byte	.LBB61
 7459 008c 4A020000 		.4byte	.LBE61
 7460 0090 4C020000 		.4byte	.LBB62
 7461 0094 52020000 		.4byte	.LBE62
 7462 0098 54020000 		.4byte	.LBB63
 7463 009c 62020000 		.4byte	.LBE63
 7464 00a0 00000000 		.4byte	0
 7465 00a4 00000000 		.4byte	0
 7466 00a8 96020000 		.4byte	.LBB65
 7467 00ac 98020000 		.4byte	.LBE65
 7468 00b0 A8020000 		.4byte	.LBB71
 7469 00b4 AA020000 		.4byte	.LBE71
 7470 00b8 BE020000 		.4byte	.LBB72
 7471 00bc C0020000 		.4byte	.LBE72
 7472 00c0 FE020000 		.4byte	.LBB73
 7473 00c4 9A050000 		.4byte	.LBE73
 7474 00c8 C0050000 		.4byte	.LBB75
 7475 00cc 24060000 		.4byte	.LBE75
 7476 00d0 00000000 		.4byte	0
 7477 00d4 00000000 		.4byte	0
 7478 00d8 78000000 		.4byte	.LBB95
 7479 00dc BA000000 		.4byte	.LBE95
 7480 00e0 BC000000 		.4byte	.LBB111
 7481 00e4 C0000000 		.4byte	.LBE111
 7482 00e8 0E030000 		.4byte	.LBB126
 7483 00ec 14030000 		.4byte	.LBE126
 7484 00f0 00000000 		.4byte	0
 7485 00f4 00000000 		.4byte	0
 7486 00f8 7C000000 		.4byte	.LBB97
 7487 00fc 7E000000 		.4byte	.LBE97
ARM GAS  C:\Users\ingan\AppData\Local\Temp\cc5yuDXv.s 			page 170


 7488 0100 80000000 		.4byte	.LBB104
 7489 0104 82000000 		.4byte	.LBE104
 7490 0108 84000000 		.4byte	.LBB105
 7491 010c 86000000 		.4byte	.LBE105
 7492 0110 88000000 		.4byte	.LBB106
 7493 0114 8E000000 		.4byte	.LBE106
 7494 0118 90000000 		.4byte	.LBB107
 7495 011c 92000000 		.4byte	.LBE107
 7496 0120 94000000 		.4byte	.LBB108
 7497 0124 9E000000 		.4byte	.LBE108
 7498 0128 00000000 		.4byte	0
 7499 012c 00000000 		.4byte	0
 7500 0130 D8000000 		.4byte	.LBB112
 7501 0134 E0000000 		.4byte	.LBE112
 7502 0138 14030000 		.4byte	.LBB127
 7503 013c 1A030000 		.4byte	.LBE127
 7504 0140 00000000 		.4byte	0
 7505 0144 00000000 		.4byte	0
 7506 0148 04010000 		.4byte	.LBB115
 7507 014c 54010000 		.4byte	.LBE115
 7508 0150 E0030000 		.4byte	.LBB138
 7509 0154 EC030000 		.4byte	.LBE138
 7510 0158 00000000 		.4byte	0
 7511 015c 00000000 		.4byte	0
 7512 0160 D2010000 		.4byte	.LBB120
 7513 0164 D8010000 		.4byte	.LBE120
 7514 0168 DA010000 		.4byte	.LBB124
 7515 016c E0010000 		.4byte	.LBE124
 7516 0170 E2010000 		.4byte	.LBB125
 7517 0174 EE010000 		.4byte	.LBE125
 7518 0178 00000000 		.4byte	0
 7519 017c 00000000 		.4byte	0
 7520 0180 46030000 		.4byte	.LBB128
 7521 0184 4C030000 		.4byte	.LBE128
 7522 0188 4E030000 		.4byte	.LBB131
 7523 018c 52030000 		.4byte	.LBE131
 7524 0190 00000000 		.4byte	0
 7525 0194 00000000 		.4byte	0
 7526 0198 A2030000 		.4byte	.LBB132
 7527 019c A4030000 		.4byte	.LBE132
 7528 01a0 A6030000 		.4byte	.LBB136
 7529 01a4 AA030000 		.4byte	.LBE136
 7530 01a8 AC030000 		.4byte	.LBB137
 7531 01ac C0030000 		.4byte	.LBE137
 7532 01b0 00000000 		.4byte	0
 7533 01b4 00000000 		.4byte	0
 7534 01b8 02000000 		.4byte	.LBB139
 7535 01bc 04000000 		.4byte	.LBE139
 7536 01c0 06000000 		.4byte	.LBB144
 7537 01c4 0A000000 		.4byte	.LBE144
 7538 01c8 0C000000 		.4byte	.LBB145
 7539 01cc 12000000 		.4byte	.LBE145
 7540 01d0 14000000 		.4byte	.LBB146
 7541 01d4 20000000 		.4byte	.LBE146
 7542 01d8 00000000 		.4byte	0
 7543 01dc 00000000 		.4byte	0
 7544 01e0 06000000 		.4byte	.LBB147
ARM GAS  C:\Users\ingan\AppData\Local\Temp\cc5yuDXv.s 			page 171


 7545 01e4 08000000 		.4byte	.LBE147
 7546 01e8 0A000000 		.4byte	.LBB153
 7547 01ec 0C000000 		.4byte	.LBE153
 7548 01f0 0E000000 		.4byte	.LBB154
 7549 01f4 10000000 		.4byte	.LBE154
 7550 01f8 12000000 		.4byte	.LBB155
 7551 01fc 18000000 		.4byte	.LBE155
 7552 0200 1A000000 		.4byte	.LBB156
 7553 0204 24000000 		.4byte	.LBE156
 7554 0208 00000000 		.4byte	0
 7555 020c 00000000 		.4byte	0
 7556 0210 00000000 		.4byte	.LFB13
 7557 0214 60010000 		.4byte	.LFE13
 7558 0218 00000000 		.4byte	.LFB1
 7559 021c 48010000 		.4byte	.LFE1
 7560 0220 00000000 		.4byte	.LFB2
 7561 0224 D4020000 		.4byte	.LFE2
 7562 0228 00000000 		.4byte	.LFB3
 7563 022c 90000000 		.4byte	.LFE3
 7564 0230 00000000 		.4byte	.LFB4
 7565 0234 24060000 		.4byte	.LFE4
 7566 0238 00000000 		.4byte	.LFB0
 7567 023c 24040000 		.4byte	.LFE0
 7568 0240 00000000 		.4byte	.LFB5
 7569 0244 10000000 		.4byte	.LFE5
 7570 0248 00000000 		.4byte	.LFB6
 7571 024c 24000000 		.4byte	.LFE6
 7572 0250 00000000 		.4byte	.LFB7
 7573 0254 18000000 		.4byte	.LFE7
 7574 0258 00000000 		.4byte	.LFB8
 7575 025c 44000000 		.4byte	.LFE8
 7576 0260 00000000 		.4byte	.LFB9
 7577 0264 48000000 		.4byte	.LFE9
 7578 0268 00000000 		.4byte	.LFB10
 7579 026c 54000000 		.4byte	.LFE10
 7580 0270 00000000 		.4byte	.LFB11
 7581 0274 78000000 		.4byte	.LFE11
 7582 0278 00000000 		.4byte	.LFB12
 7583 027c 70000000 		.4byte	.LFE12
 7584 0280 00000000 		.4byte	0
 7585 0284 00000000 		.4byte	0
 7586              		.section	.debug_line,"",%progbits
 7587              	.Ldebug_line0:
 7588 0000 D5080000 		.section	.debug_str,"MS",%progbits,1
 7588      02007100 
 7588      00000201 
 7588      FB0E0D00 
 7588      01010101 
 7589              	.LASF56:
 7590 0000 72774472 		.ascii	"rwDr\000"
 7590      00
 7591              	.LASF103:
 7592 0005 55534255 		.ascii	"USBUART_idSerialNumberStringDescriptor\000"
 7592      4152545F 
 7592      69645365 
 7592      7269616C 
 7592      4E756D62 
ARM GAS  C:\Users\ingan\AppData\Local\Temp\cc5yuDXv.s 			page 172


 7593              	.LASF26:
 7594 002c 62756666 		.ascii	"bufferSize\000"
 7594      65725369 
 7594      7A6500
 7595              	.LASF116:
 7596 0037 55534255 		.ascii	"USBUART_DispatchClassRqst\000"
 7596      4152545F 
 7596      44697370 
 7596      61746368 
 7596      436C6173 
 7597              	.LASF87:
 7598 0051 636F6E66 		.ascii	"configurationN\000"
 7598      69677572 
 7598      6174696F 
 7598      6E4E00
 7599              	.LASF84:
 7600 0060 55534255 		.ascii	"USBUART_ClearEndpointHalt\000"
 7600      4152545F 
 7600      436C6561 
 7600      72456E64 
 7600      706F696E 
 7601              	.LASF58:
 7602 007a 73696545 		.ascii	"sieEp\000"
 7602      7000
 7603              	.LASF66:
 7604 0080 55534255 		.ascii	"USBUART_ConfigAltChanged\000"
 7604      4152545F 
 7604      436F6E66 
 7604      6967416C 
 7604      74436861 
 7605              	.LASF39:
 7606 0099 545F5553 		.ascii	"T_USBUART_TD\000"
 7606      42554152 
 7606      545F5444 
 7606      00
 7607              	.LASF27:
 7608 00a6 696E7465 		.ascii	"interface\000"
 7608      72666163 
 7608      6500
 7609              	.LASF99:
 7610 00b0 55534255 		.ascii	"USBUART_deviceStatus\000"
 7610      4152545F 
 7610      64657669 
 7610      63655374 
 7610      61747573 
 7611              	.LASF8:
 7612 00c5 756E7369 		.ascii	"unsigned int\000"
 7612      676E6564 
 7612      20696E74 
 7612      00
 7613              	.LASF86:
 7614 00d2 696E7465 		.ascii	"interfaceNumber\000"
 7614      72666163 
 7614      654E756D 
 7614      62657200 
 7615              	.LASF120:
 7616 00e2 55534255 		.ascii	"USBUART_GetDeviceTablePtr\000"
ARM GAS  C:\Users\ingan\AppData\Local\Temp\cc5yuDXv.s 			page 173


 7616      4152545F 
 7616      47657444 
 7616      65766963 
 7616      65546162 
 7617              	.LASF88:
 7618 00fc 626D5265 		.ascii	"bmRequestType\000"
 7618      71756573 
 7618      74547970 
 7618      6500
 7619              	.LASF78:
 7620 010a 55534255 		.ascii	"USBUART_GetInterfaceClassTablePtr\000"
 7620      4152545F 
 7620      47657449 
 7620      6E746572 
 7620      66616365 
 7621              	.LASF97:
 7622 012c 55534255 		.ascii	"USBUART_configuration\000"
 7622      4152545F 
 7622      636F6E66 
 7622      69677572 
 7622      6174696F 
 7623              	.LASF16:
 7624 0142 72656738 		.ascii	"reg8\000"
 7624      00
 7625              	.LASF70:
 7626 0147 70446573 		.ascii	"pDescr\000"
 7626      637200
 7627              	.LASF76:
 7628 014e 55534255 		.ascii	"USBUART_EpStateInit\000"
 7628      4152545F 
 7628      45705374 
 7628      61746549 
 7628      6E697400 
 7629              	.LASF85:
 7630 0162 55534255 		.ascii	"USBUART_SetEndpointHalt\000"
 7630      4152545F 
 7630      53657445 
 7630      6E64706F 
 7630      696E7448 
 7631              	.LASF108:
 7632 017a 55534255 		.ascii	"USBUART_interfaceStatus\000"
 7632      4152545F 
 7632      696E7465 
 7632      72666163 
 7632      65537461 
 7633              	.LASF102:
 7634 0192 55534255 		.ascii	"USBUART_STRING_DESCRIPTORS\000"
 7634      4152545F 
 7634      53545249 
 7634      4E475F44 
 7634      45534352 
 7635              	.LASF110:
 7636 01ad 55534255 		.ascii	"USBUART_EP\000"
 7636      4152545F 
 7636      455000
 7637              	.LASF29:
 7638 01b8 616C7453 		.ascii	"altSetting\000"
ARM GAS  C:\Users\ingan\AppData\Local\Temp\cc5yuDXv.s 			page 174


 7638      65747469 
 7638      6E6700
 7639              	.LASF22:
 7640 01c3 6570546F 		.ascii	"epToggle\000"
 7640      67676C65 
 7640      00
 7641              	.LASF12:
 7642 01cc 666C6F61 		.ascii	"float\000"
 7642      7400
 7643              	.LASF117:
 7644 01d2 474E5520 		.ascii	"GNU C11 5.4.1 20160609 (release) [ARM/embedded-5-br"
 7644      43313120 
 7644      352E342E 
 7644      31203230 
 7644      31363036 
 7645 0205 616E6368 		.ascii	"anch revision 237715] -mcpu=cortex-m3 -mthumb -g -O"
 7645      20726576 
 7645      6973696F 
 7645      6E203233 
 7645      37373135 
 7646 0238 33202D66 		.ascii	"3 -ffunction-sections -ffat-lto-objects\000"
 7646      66756E63 
 7646      74696F6E 
 7646      2D736563 
 7646      74696F6E 
 7647              	.LASF41:
 7648 0260 545F5553 		.ascii	"T_USBUART_LUT\000"
 7648      42554152 
 7648      545F4C55 
 7648      5400
 7649              	.LASF52:
 7650 026e 72775761 		.ascii	"rwWa\000"
 7650      00
 7651              	.LASF7:
 7652 0273 6C6F6E67 		.ascii	"long long unsigned int\000"
 7652      206C6F6E 
 7652      6720756E 
 7652      7369676E 
 7652      65642069 
 7653              	.LASF105:
 7654 028a 55534255 		.ascii	"USBUART_interfaceSetting\000"
 7654      4152545F 
 7654      696E7465 
 7654      72666163 
 7654      65536574 
 7655              	.LASF32:
 7656 02a3 545F5553 		.ascii	"T_USBUART_EP_SETTINGS_BLOCK\000"
 7656      42554152 
 7656      545F4550 
 7656      5F534554 
 7656      54494E47 
 7657              	.LASF57:
 7658 02bf 55534255 		.ascii	"USBUART_arb_ep_struct\000"
 7658      4152545F 
 7658      6172625F 
 7658      65705F73 
 7658      74727563 
ARM GAS  C:\Users\ingan\AppData\Local\Temp\cc5yuDXv.s 			page 175


 7659              	.LASF49:
 7660 02d5 6570496E 		.ascii	"epIntEn\000"
 7660      74456E00 
 7661              	.LASF68:
 7662 02dd 636F6E66 		.ascii	"confIndex\000"
 7662      496E6465 
 7662      7800
 7663              	.LASF80:
 7664 02e7 63757272 		.ascii	"currentInterfacesNum\000"
 7664      656E7449 
 7664      6E746572 
 7664      66616365 
 7664      734E756D 
 7665              	.LASF37:
 7666 02fc 70446174 		.ascii	"pData\000"
 7666      6100
 7667              	.LASF119:
 7668 0302 433A5C55 		.ascii	"C:\\Users\\ingan\\Documents\\PSoC Creator\\MegaDriv"
 7668      73657273 
 7668      5C696E67 
 7668      616E5C44 
 7668      6F63756D 
 7669 0330 655F706C 		.ascii	"e_player\\VGMPlayer_v0.6.cydsn\000"
 7669      61796572 
 7669      5C56474D 
 7669      506C6179 
 7669      65725F76 
 7670              	.LASF38:
 7671 034e 70537461 		.ascii	"pStatusBlock\000"
 7671      74757342 
 7671      6C6F636B 
 7671      00
 7672              	.LASF93:
 7673 035b 55534255 		.ascii	"USBUART_TerminateEP\000"
 7673      4152545F 
 7673      5465726D 
 7673      696E6174 
 7673      65455000 
 7674              	.LASF36:
 7675 036f 636F756E 		.ascii	"count\000"
 7675      7400
 7676              	.LASF96:
 7677 0375 55534255 		.ascii	"USBUART_device\000"
 7677      4152545F 
 7677      64657669 
 7677      636500
 7678              	.LASF15:
 7679 0384 63686172 		.ascii	"char\000"
 7679      00
 7680              	.LASF60:
 7681 0389 61726245 		.ascii	"arbEp\000"
 7681      7000
 7682              	.LASF104:
 7683 038f 55534255 		.ascii	"USBUART_interfaceNumber\000"
 7683      4152545F 
 7683      696E7465 
 7683      72666163 
ARM GAS  C:\Users\ingan\AppData\Local\Temp\cc5yuDXv.s 			page 176


 7683      654E756D 
 7684              	.LASF10:
 7685 03a7 75696E74 		.ascii	"uint16\000"
 7685      313600
 7686              	.LASF33:
 7687 03ae 73746174 		.ascii	"status\000"
 7687      757300
 7688              	.LASF14:
 7689 03b5 63686172 		.ascii	"char8\000"
 7689      3800
 7690              	.LASF25:
 7691 03bb 62756666 		.ascii	"buffOffset\000"
 7691      4F666673 
 7691      657400
 7692              	.LASF111:
 7693 03c6 55534255 		.ascii	"USBUART_currentTD\000"
 7693      4152545F 
 7693      63757272 
 7693      656E7454 
 7693      4400
 7694              	.LASF46:
 7695 03d8 65704372 		.ascii	"epCr0\000"
 7695      3000
 7696              	.LASF61:
 7697 03de 55534255 		.ascii	"USBUART_arb_eps_struct\000"
 7697      4152545F 
 7697      6172625F 
 7697      6570735F 
 7697      73747275 
 7698              	.LASF64:
 7699 03f5 65705479 		.ascii	"epType\000"
 7699      706500
 7700              	.LASF82:
 7701 03fc 72657175 		.ascii	"requestHandled\000"
 7701      65737448 
 7701      616E646C 
 7701      656400
 7702              	.LASF6:
 7703 040b 6C6F6E67 		.ascii	"long long int\000"
 7703      206C6F6E 
 7703      6720696E 
 7703      7400
 7704              	.LASF31:
 7705 0419 624D6973 		.ascii	"bMisc\000"
 7705      6300
 7706              	.LASF44:
 7707 041f 6570436E 		.ascii	"epCnt0\000"
 7707      743000
 7708              	.LASF45:
 7709 0426 6570436E 		.ascii	"epCnt1\000"
 7709      743100
 7710              	.LASF47:
 7711 042d 55534255 		.ascii	"USBUART_sie_ep_struct\000"
 7711      4152545F 
 7711      7369655F 
 7711      65705F73 
 7711      74727563 
ARM GAS  C:\Users\ingan\AppData\Local\Temp\cc5yuDXv.s 			page 177


 7712              	.LASF95:
 7713 0443 65704E75 		.ascii	"epNumber\000"
 7713      6D626572 
 7713      00
 7714              	.LASF101:
 7715 044c 55534255 		.ascii	"USBUART_TABLE\000"
 7715      4152545F 
 7715      5441424C 
 7715      4500
 7716              	.LASF35:
 7717 045a 545F5553 		.ascii	"T_USBUART_XFER_STATUS_BLOCK\000"
 7717      42554152 
 7717      545F5846 
 7717      45525F53 
 7717      54415455 
 7718              	.LASF21:
 7719 0476 68774570 		.ascii	"hwEpState\000"
 7719      53746174 
 7719      6500
 7720              	.LASF72:
 7721 0480 63646343 		.ascii	"cdcComNums\000"
 7721      6F6D4E75 
 7721      6D7300
 7722              	.LASF11:
 7723 048b 75696E74 		.ascii	"uint32\000"
 7723      333200
 7724              	.LASF79:
 7725 0492 70496E74 		.ascii	"pInterfaceClass\000"
 7725      65726661 
 7725      6365436C 
 7725      61737300 
 7726              	.LASF94:
 7727 04a2 64657363 		.ascii	"descr\000"
 7727      7200
 7728              	.LASF67:
 7729 04a8 55534255 		.ascii	"USBUART_Config\000"
 7729      4152545F 
 7729      436F6E66 
 7729      696700
 7730              	.LASF121:
 7731 04b7 55534255 		.ascii	"USBUART_HandleStandardRqst\000"
 7731      4152545F 
 7731      48616E64 
 7731      6C655374 
 7731      616E6461 
 7732              	.LASF98:
 7733 04d2 55534255 		.ascii	"USBUART_configurationChanged\000"
 7733      4152545F 
 7733      636F6E66 
 7733      69677572 
 7733      6174696F 
 7734              	.LASF100:
 7735 04ef 55534255 		.ascii	"USBUART_DEVICE0_DESCR\000"
 7735      4152545F 
 7735      44455649 
 7735      4345305F 
 7735      44455343 
ARM GAS  C:\Users\ingan\AppData\Local\Temp\cc5yuDXv.s 			page 178


 7736              	.LASF17:
 7737 0505 6C6F6E67 		.ascii	"long double\000"
 7737      20646F75 
 7737      626C6500 
 7738              	.LASF92:
 7739 0511 55534255 		.ascii	"USBUART_tBuffer\000"
 7739      4152545F 
 7739      74427566 
 7739      66657200 
 7740              	.LASF71:
 7741 0521 62756666 		.ascii	"buffCount\000"
 7741      436F756E 
 7741      7400
 7742              	.LASF2:
 7743 052b 73686F72 		.ascii	"short int\000"
 7743      7420696E 
 7743      7400
 7744              	.LASF24:
 7745 0535 65704D6F 		.ascii	"epMode\000"
 7745      646500
 7746              	.LASF4:
 7747 053c 6C6F6E67 		.ascii	"long int\000"
 7747      20696E74 
 7747      00
 7748              	.LASF34:
 7749 0545 6C656E67 		.ascii	"length\000"
 7749      746800
 7750              	.LASF55:
 7751 054c 72775261 		.ascii	"rwRaMsb\000"
 7751      4D736200 
 7752              	.LASF77:
 7753 0554 55534255 		.ascii	"USBUART_GetConfigTablePtr\000"
 7753      4152545F 
 7753      47657443 
 7753      6F6E6669 
 7753      67546162 
 7754              	.LASF48:
 7755 056e 65704366 		.ascii	"epCfg\000"
 7755      6700
 7756              	.LASF43:
 7757 0574 55534255 		.ascii	"USBUART_ep0_data_struct\000"
 7757      4152545F 
 7757      6570305F 
 7757      64617461 
 7757      5F737472 
 7758              	.LASF118:
 7759 058c 47656E65 		.ascii	"Generated_Source\\PSoC5\\USBUART_std.c\000"
 7759      72617465 
 7759      645F536F 
 7759      75726365 
 7759      5C50536F 
 7760              	.LASF75:
 7761 05b1 55534255 		.ascii	"USBUART_ReadDieID\000"
 7761      4152545F 
 7761      52656164 
 7761      44696549 
 7761      4400
ARM GAS  C:\Users\ingan\AppData\Local\Temp\cc5yuDXv.s 			page 179


 7762              	.LASF62:
 7763 05c3 70546D70 		.ascii	"pTmp\000"
 7763      00
 7764              	.LASF74:
 7765 05c8 55534255 		.ascii	"USBUART_ConfigReg\000"
 7765      4152545F 
 7765      436F6E66 
 7765      69675265 
 7765      6700
 7766              	.LASF18:
 7767 05da 73697A65 		.ascii	"sizetype\000"
 7767      74797065 
 7767      00
 7768              	.LASF5:
 7769 05e3 6C6F6E67 		.ascii	"long unsigned int\000"
 7769      20756E73 
 7769      69676E65 
 7769      6420696E 
 7769      7400
 7770              	.LASF28:
 7771 05f5 545F5553 		.ascii	"T_USBUART_EP_CTL_BLOCK\000"
 7771      42554152 
 7771      545F4550 
 7771      5F43544C 
 7771      5F424C4F 
 7772              	.LASF63:
 7773 060c 63757245 		.ascii	"curEp\000"
 7773      7000
 7774              	.LASF90:
 7775 0612 6E537472 		.ascii	"nStr\000"
 7775      00
 7776              	.LASF50:
 7777 0617 65705372 		.ascii	"epSr\000"
 7777      00
 7778              	.LASF40:
 7779 061c 705F6C69 		.ascii	"p_list\000"
 7779      737400
 7780              	.LASF81:
 7781 0623 55534255 		.ascii	"USBUART_ValidateAlternateSetting\000"
 7781      4152545F 
 7781      56616C69 
 7781      64617465 
 7781      416C7465 
 7782              	.LASF89:
 7783 0644 70537472 		.ascii	"pStr\000"
 7783      00
 7784              	.LASF53:
 7785 0649 72775761 		.ascii	"rwWaMsb\000"
 7785      4D736200 
 7786              	.LASF1:
 7787 0651 756E7369 		.ascii	"unsigned char\000"
 7787      676E6564 
 7787      20636861 
 7787      7200
 7788              	.LASF113:
 7789 065f 55534255 		.ascii	"USBUART_Cdc_EpInit\000"
 7789      4152545F 
ARM GAS  C:\Users\ingan\AppData\Local\Temp\cc5yuDXv.s 			page 180


 7789      4364635F 
 7789      4570496E 
 7789      697400
 7790              	.LASF112:
 7791 0672 43794765 		.ascii	"CyGetUniqueId\000"
 7791      74556E69 
 7791      71756549 
 7791      6400
 7792              	.LASF91:
 7793 0680 64657363 		.ascii	"descrLength\000"
 7793      724C656E 
 7793      67746800 
 7794              	.LASF69:
 7795 068c 636C6561 		.ascii	"clearAltSetting\000"
 7795      72416C74 
 7795      53657474 
 7795      696E6700 
 7796              	.LASF30:
 7797 069c 61747472 		.ascii	"attributes\000"
 7797      69627574 
 7797      657300
 7798              	.LASF59:
 7799 06a7 55534255 		.ascii	"USBUART_sie_eps_struct\000"
 7799      4152545F 
 7799      7369655F 
 7799      6570735F 
 7799      73747275 
 7800              	.LASF23:
 7801 06be 61646472 		.ascii	"addr\000"
 7801      00
 7802              	.LASF109:
 7803 06c3 55534255 		.ascii	"USBUART_interfaceClass\000"
 7803      4152545F 
 7803      696E7465 
 7803      72666163 
 7803      65436C61 
 7804              	.LASF54:
 7805 06da 72775261 		.ascii	"rwRa\000"
 7805      00
 7806              	.LASF107:
 7807 06df 55534255 		.ascii	"USBUART_deviceAddress\000"
 7807      4152545F 
 7807      64657669 
 7807      63654164 
 7807      64726573 
 7808              	.LASF0:
 7809 06f5 7369676E 		.ascii	"signed char\000"
 7809      65642063 
 7809      68617200 
 7810              	.LASF3:
 7811 0701 73686F72 		.ascii	"short unsigned int\000"
 7811      7420756E 
 7811      7369676E 
 7811      65642069 
 7811      6E7400
 7812              	.LASF73:
 7813 0714 756E6971 		.ascii	"uniqueId\000"
ARM GAS  C:\Users\ingan\AppData\Local\Temp\cc5yuDXv.s 			page 181


 7813      75654964 
 7813      00
 7814              	.LASF51:
 7815 071d 72657365 		.ascii	"reserved\000"
 7815      72766564 
 7815      00
 7816              	.LASF114:
 7817 0726 55534255 		.ascii	"USBUART_InitNoDataControlTransfer\000"
 7817      4152545F 
 7817      496E6974 
 7817      4E6F4461 
 7817      7461436F 
 7818              	.LASF9:
 7819 0748 75696E74 		.ascii	"uint8\000"
 7819      3800
 7820              	.LASF13:
 7821 074e 646F7562 		.ascii	"double\000"
 7821      6C6500
 7822              	.LASF115:
 7823 0755 55534255 		.ascii	"USBUART_InitControlRead\000"
 7823      4152545F 
 7823      496E6974 
 7823      436F6E74 
 7823      726F6C52 
 7824              	.LASF65:
 7825 076d 696E7465 		.ascii	"interfaceNum\000"
 7825      72666163 
 7825      654E756D 
 7825      00
 7826              	.LASF83:
 7827 077a 63757249 		.ascii	"curInterfacesNum\000"
 7827      6E746572 
 7827      66616365 
 7827      734E756D 
 7827      00
 7828              	.LASF19:
 7829 078b 61747472 		.ascii	"attrib\000"
 7829      696200
 7830              	.LASF20:
 7831 0792 61706945 		.ascii	"apiEpState\000"
 7831      70537461 
 7831      746500
 7832              	.LASF42:
 7833 079d 65704461 		.ascii	"epData\000"
 7833      746100
 7834              	.LASF106:
 7835 07a4 55534255 		.ascii	"USBUART_interfaceSettingLast\000"
 7835      4152545F 
 7835      696E7465 
 7835      72666163 
 7835      65536574 
 7836              		.ident	"GCC: (GNU Tools for ARM Embedded Processors) 5.4.1 20160609 (release) [ARM/embedded-5-bran
