ARM GAS  C:\Users\ingan\AppData\Local\Temp\cc00nNWn.s 			page 1


   1              		.syntax unified
   2              		.cpu cortex-m3
   3              		.fpu softvfp
   4              		.eabi_attribute 20, 1
   5              		.eabi_attribute 21, 1
   6              		.eabi_attribute 23, 3
   7              		.eabi_attribute 24, 1
   8              		.eabi_attribute 25, 1
   9              		.eabi_attribute 26, 1
  10              		.eabi_attribute 30, 2
  11              		.eabi_attribute 34, 1
  12              		.eabi_attribute 18, 4
  13              		.thumb
  14              		.syntax unified
  15              		.file	"USBUART_cdc.c"
  16              		.text
  17              	.Ltext0:
  18              		.cfi_sections	.debug_frame
  19              		.section	.text.USBUART_DispatchCDCClassRqst,"ax",%progbits
  20              		.align	2
  21              		.global	USBUART_DispatchCDCClassRqst
  22              		.thumb
  23              		.thumb_func
  24              		.type	USBUART_DispatchCDCClassRqst, %function
  25              	USBUART_DispatchCDCClassRqst:
  26              	.LFB0:
  27              		.file 1 "Generated_Source\\PSoC5\\USBUART_cdc.c"
   1:Generated_Source\PSoC5/USBUART_cdc.c **** /***************************************************************************//**
   2:Generated_Source\PSoC5/USBUART_cdc.c **** * \file USBUART_cdc.c
   3:Generated_Source\PSoC5/USBUART_cdc.c **** * \version 3.20
   4:Generated_Source\PSoC5/USBUART_cdc.c **** *
   5:Generated_Source\PSoC5/USBUART_cdc.c **** * \brief
   6:Generated_Source\PSoC5/USBUART_cdc.c **** *  This file contains the USB CDC class request handler.
   7:Generated_Source\PSoC5/USBUART_cdc.c **** *
   8:Generated_Source\PSoC5/USBUART_cdc.c **** * Related Document:
   9:Generated_Source\PSoC5/USBUART_cdc.c **** *  Universal Serial Bus Class Definitions for Communication Devices Version 1.1
  10:Generated_Source\PSoC5/USBUART_cdc.c **** *
  11:Generated_Source\PSoC5/USBUART_cdc.c **** ********************************************************************************
  12:Generated_Source\PSoC5/USBUART_cdc.c **** * \copyright
  13:Generated_Source\PSoC5/USBUART_cdc.c **** * Copyright 2012-2016, Cypress Semiconductor Corporation.  All rights reserved.
  14:Generated_Source\PSoC5/USBUART_cdc.c **** * You may use this file only in accordance with the license, terms, conditions,
  15:Generated_Source\PSoC5/USBUART_cdc.c **** * disclaimers, and limitations in the end user license agreement accompanying
  16:Generated_Source\PSoC5/USBUART_cdc.c **** * the software package with which this file was provided.
  17:Generated_Source\PSoC5/USBUART_cdc.c **** *******************************************************************************/
  18:Generated_Source\PSoC5/USBUART_cdc.c **** 
  19:Generated_Source\PSoC5/USBUART_cdc.c **** #include "USBUART_cdc.h"
  20:Generated_Source\PSoC5/USBUART_cdc.c **** #include "USBUART_pvt.h"
  21:Generated_Source\PSoC5/USBUART_cdc.c **** #include "cyapicallbacks.h"
  22:Generated_Source\PSoC5/USBUART_cdc.c **** 
  23:Generated_Source\PSoC5/USBUART_cdc.c **** #if defined(USBUART_ENABLE_CDC_CLASS)
  24:Generated_Source\PSoC5/USBUART_cdc.c **** 
  25:Generated_Source\PSoC5/USBUART_cdc.c **** /*******************************************************************************
  26:Generated_Source\PSoC5/USBUART_cdc.c **** *    CDC Variables
  27:Generated_Source\PSoC5/USBUART_cdc.c **** *******************************************************************************/
  28:Generated_Source\PSoC5/USBUART_cdc.c **** 
  29:Generated_Source\PSoC5/USBUART_cdc.c **** /*PUBLIC*/
  30:Generated_Source\PSoC5/USBUART_cdc.c **** /** Contains the current line coding structure. The host sets it using a
ARM GAS  C:\Users\ingan\AppData\Local\Temp\cc00nNWn.s 			page 2


  31:Generated_Source\PSoC5/USBUART_cdc.c ****  * SET_LINE_CODING request and returns it to the user code using the
  32:Generated_Source\PSoC5/USBUART_cdc.c ****  * USBUART_GetDTERate(), USBUART_GetCharFormat(),
  33:Generated_Source\PSoC5/USBUART_cdc.c ****  * USBUART_GetParityType(), and USBUART_GetDataBits() APIs.
  34:Generated_Source\PSoC5/USBUART_cdc.c ****  * It is an array of 2 elements for COM port 1 and COM port 2 for MultiCOM port
  35:Generated_Source\PSoC5/USBUART_cdc.c ****  * support. In case of 1 COM port, data is in 0 element.*/
  36:Generated_Source\PSoC5/USBUART_cdc.c **** volatile uint8 USBUART_linesCoding[USBUART_MAX_MULTI_COM_NUM][USBUART_LINE_CODING_SIZE] =
  37:Generated_Source\PSoC5/USBUART_cdc.c **** {
  38:Generated_Source\PSoC5/USBUART_cdc.c ****     /*COM Port 1*/
  39:Generated_Source\PSoC5/USBUART_cdc.c ****     {
  40:Generated_Source\PSoC5/USBUART_cdc.c ****     0x00u, 0xC2u, 0x01u, 0x00u,     /* Data terminal rate 115200 */
  41:Generated_Source\PSoC5/USBUART_cdc.c ****     0x00u,                          /* 1 Stop bit */
  42:Generated_Source\PSoC5/USBUART_cdc.c ****     0x00u,                          /* None parity */
  43:Generated_Source\PSoC5/USBUART_cdc.c ****     0x08u                           /* 8 data bits */
  44:Generated_Source\PSoC5/USBUART_cdc.c ****     },
  45:Generated_Source\PSoC5/USBUART_cdc.c ****     /*COM Port 2*/
  46:Generated_Source\PSoC5/USBUART_cdc.c ****     {
  47:Generated_Source\PSoC5/USBUART_cdc.c ****     0x00u, 0xC2u, 0x01u, 0x00u,     /* Data terminal rate 115200 */
  48:Generated_Source\PSoC5/USBUART_cdc.c ****     0x00u,                          /* 1 Stop bit */
  49:Generated_Source\PSoC5/USBUART_cdc.c ****     0x00u,                          /* None parity */
  50:Generated_Source\PSoC5/USBUART_cdc.c ****     0x08u                           /* 8 data bits */
  51:Generated_Source\PSoC5/USBUART_cdc.c ****     }
  52:Generated_Source\PSoC5/USBUART_cdc.c **** };
  53:Generated_Source\PSoC5/USBUART_cdc.c **** 
  54:Generated_Source\PSoC5/USBUART_cdc.c **** /**Used as a flag for the USBUART_IsLineChanged() API, to inform it that the
  55:Generated_Source\PSoC5/USBUART_cdc.c ****  * host has been sent a request to change line coding or control bitmap. It is 
  56:Generated_Source\PSoC5/USBUART_cdc.c ****  * an array of 2 elements for COM port 1 and COM port 2 for MultiCOM port 
  57:Generated_Source\PSoC5/USBUART_cdc.c ****  * support. In case of 1 COM port, data is in 0 element.*/
  58:Generated_Source\PSoC5/USBUART_cdc.c **** volatile uint8  USBUART_linesChanged[USBUART_MAX_MULTI_COM_NUM];
  59:Generated_Source\PSoC5/USBUART_cdc.c **** /** Contains the current control-signal bitmap. The host sets it using a
  60:Generated_Source\PSoC5/USBUART_cdc.c ****  * SET_CONTROL_LINE request and returns it to the user code using the 
  61:Generated_Source\PSoC5/USBUART_cdc.c ****  * USBUART_GetLineControl() API. It is an array of 2 elements for COM 
  62:Generated_Source\PSoC5/USBUART_cdc.c ****  * port 1 and COM port 2 for MultiCOM port support. In case of 1 COM port, data 
  63:Generated_Source\PSoC5/USBUART_cdc.c ****  * is in 0 element.*/
  64:Generated_Source\PSoC5/USBUART_cdc.c **** volatile uint16 USBUART_linesControlBitmap[USBUART_MAX_MULTI_COM_NUM];
  65:Generated_Source\PSoC5/USBUART_cdc.c **** /** Contains the 16-bit serial state value that was sent using the 
  66:Generated_Source\PSoC5/USBUART_cdc.c ****  * \ref USBUART_SendSerialState() API. . It is an array of 2 elements 
  67:Generated_Source\PSoC5/USBUART_cdc.c ****  * for COM port 1 and COM port 2 for MultiCOM port support. In case of 1 COM 
  68:Generated_Source\PSoC5/USBUART_cdc.c ****  * port, data is in 0 element.*/
  69:Generated_Source\PSoC5/USBUART_cdc.c **** volatile uint16 USBUART_serialStateBitmap[USBUART_MAX_MULTI_COM_NUM];
  70:Generated_Source\PSoC5/USBUART_cdc.c **** /** Contains the data IN endpoint number. It is initialized after a 
  71:Generated_Source\PSoC5/USBUART_cdc.c ****  * SET_CONFIGURATION request based on a user descriptor. It is used in CDC APIs 
  72:Generated_Source\PSoC5/USBUART_cdc.c ****  * to send data to the PC. It is an array of 2 elements for COM port 1 and COM 
  73:Generated_Source\PSoC5/USBUART_cdc.c ****  * port 2 for MultiCOM port support. In case of 1 COM port, data is in 0 element.*/
  74:Generated_Source\PSoC5/USBUART_cdc.c **** volatile uint8  USBUART_cdcDataInEp[USBUART_MAX_MULTI_COM_NUM];
  75:Generated_Source\PSoC5/USBUART_cdc.c **** /** Contains the data OUT endpoint number. It is initialized after a 
  76:Generated_Source\PSoC5/USBUART_cdc.c ****  * SET_CONFIGURATION request based on user descriptor. It is used in CDC APIs to 
  77:Generated_Source\PSoC5/USBUART_cdc.c ****  * receive data from the PC. It is an array of 2 elements for COM port 1 and COM  
  78:Generated_Source\PSoC5/USBUART_cdc.c ****  * port 2 for MultiCOM port support. In case of 1 COM port, data is in 0 element.*/
  79:Generated_Source\PSoC5/USBUART_cdc.c **** volatile uint8  USBUART_cdcDataOutEp[USBUART_MAX_MULTI_COM_NUM];
  80:Generated_Source\PSoC5/USBUART_cdc.c **** /** Contains the data IN endpoint number for COMMUNICATION interface. It is 
  81:Generated_Source\PSoC5/USBUART_cdc.c ****  * initialized after a SET_CONFIGURATION request based on a user descriptor. It 
  82:Generated_Source\PSoC5/USBUART_cdc.c ****  * is used in CDC APIs to send data to the PC. It is an array of 2 elements for 
  83:Generated_Source\PSoC5/USBUART_cdc.c ****  * COM port 1 and COM port 2 for MultiCOM port support. In case of 1 COM port, 
  84:Generated_Source\PSoC5/USBUART_cdc.c ****  * data is in 0 element.*/
  85:Generated_Source\PSoC5/USBUART_cdc.c **** volatile uint8  USBUART_cdcCommInInterruptEp[USBUART_MAX_MULTI_COM_NUM];
  86:Generated_Source\PSoC5/USBUART_cdc.c **** 
  87:Generated_Source\PSoC5/USBUART_cdc.c **** /*PRIVATE*/
ARM GAS  C:\Users\ingan\AppData\Local\Temp\cc00nNWn.s 			page 3


  88:Generated_Source\PSoC5/USBUART_cdc.c **** 
  89:Generated_Source\PSoC5/USBUART_cdc.c **** #define USBUART_CDC_IN_EP      (0u)
  90:Generated_Source\PSoC5/USBUART_cdc.c **** #define USBUART_CDC_OUT_EP     (1u)
  91:Generated_Source\PSoC5/USBUART_cdc.c **** #define USBUART_CDC_NOTE_EP    (2u)
  92:Generated_Source\PSoC5/USBUART_cdc.c **** 
  93:Generated_Source\PSoC5/USBUART_cdc.c **** #define USBUART_CDC_EP_MASK    (0x01u)
  94:Generated_Source\PSoC5/USBUART_cdc.c **** 
  95:Generated_Source\PSoC5/USBUART_cdc.c **** #define USBUART_GET_EP_COM_NUM(cdcComNums, epType) (((cdcComNums) >> (epType)) & USBUART_CDC_EP_MAS
  96:Generated_Source\PSoC5/USBUART_cdc.c **** 
  97:Generated_Source\PSoC5/USBUART_cdc.c **** 
  98:Generated_Source\PSoC5/USBUART_cdc.c **** /***************************************
  99:Generated_Source\PSoC5/USBUART_cdc.c **** *     Static Function Prototypes
 100:Generated_Source\PSoC5/USBUART_cdc.c **** ***************************************/
 101:Generated_Source\PSoC5/USBUART_cdc.c **** #if (USBUART_ENABLE_CDC_CLASS_API != 0u)
 102:Generated_Source\PSoC5/USBUART_cdc.c ****     static uint16 USBUART_StrLen(const char8 string[]) ;
 103:Generated_Source\PSoC5/USBUART_cdc.c ****     static t_USBUART_cdc_notification USBUART_serialStateNotification =
 104:Generated_Source\PSoC5/USBUART_cdc.c ****     {
 105:Generated_Source\PSoC5/USBUART_cdc.c **** 
 106:Generated_Source\PSoC5/USBUART_cdc.c ****         USBUART_SERIAL_STATE_REQUEST_TYPE, /* bRequestType    */
 107:Generated_Source\PSoC5/USBUART_cdc.c ****         USBUART_SERIAL_STATE,              /* bNotification   */
 108:Generated_Source\PSoC5/USBUART_cdc.c ****         0u,                                         /* wValue          */
 109:Generated_Source\PSoC5/USBUART_cdc.c ****         0u,                                         /* wValueMSB       */
 110:Generated_Source\PSoC5/USBUART_cdc.c ****         0u,                                         /* wIndex          */
 111:Generated_Source\PSoC5/USBUART_cdc.c ****         0u,                                         /* wIndexMSB       */
 112:Generated_Source\PSoC5/USBUART_cdc.c ****         USBUART_SERIAL_STATE_LENGTH,       /* wLength         */
 113:Generated_Source\PSoC5/USBUART_cdc.c ****         0u,                                         /* wLengthMSB      */
 114:Generated_Source\PSoC5/USBUART_cdc.c ****         0u,                                         /* wSerialState    */
 115:Generated_Source\PSoC5/USBUART_cdc.c ****         0u,                                         /* wSerialStateMSB */
 116:Generated_Source\PSoC5/USBUART_cdc.c ****     };
 117:Generated_Source\PSoC5/USBUART_cdc.c ****     static uint8 USBUART_activeCom = 0u;
 118:Generated_Source\PSoC5/USBUART_cdc.c **** #endif /* (USBUART_ENABLE_CDC_CLASS_API != 0u) */
 119:Generated_Source\PSoC5/USBUART_cdc.c **** 
 120:Generated_Source\PSoC5/USBUART_cdc.c **** 
 121:Generated_Source\PSoC5/USBUART_cdc.c **** /***************************************
 122:Generated_Source\PSoC5/USBUART_cdc.c **** * Custom Declarations
 123:Generated_Source\PSoC5/USBUART_cdc.c **** ***************************************/
 124:Generated_Source\PSoC5/USBUART_cdc.c **** 
 125:Generated_Source\PSoC5/USBUART_cdc.c **** /* `#START CDC_CUSTOM_DECLARATIONS` Place your declaration here */
 126:Generated_Source\PSoC5/USBUART_cdc.c **** 
 127:Generated_Source\PSoC5/USBUART_cdc.c **** /* `#END` */
 128:Generated_Source\PSoC5/USBUART_cdc.c **** 
 129:Generated_Source\PSoC5/USBUART_cdc.c **** 
 130:Generated_Source\PSoC5/USBUART_cdc.c **** /*******************************************************************************
 131:Generated_Source\PSoC5/USBUART_cdc.c **** * Function Name: USBUART_DispatchCDCClassRqst
 132:Generated_Source\PSoC5/USBUART_cdc.c **** ****************************************************************************//**
 133:Generated_Source\PSoC5/USBUART_cdc.c **** *
 134:Generated_Source\PSoC5/USBUART_cdc.c **** *  This routine dispatches CDC class requests.
 135:Generated_Source\PSoC5/USBUART_cdc.c **** *
 136:Generated_Source\PSoC5/USBUART_cdc.c **** * \return
 137:Generated_Source\PSoC5/USBUART_cdc.c **** *  requestHandled
 138:Generated_Source\PSoC5/USBUART_cdc.c **** *
 139:Generated_Source\PSoC5/USBUART_cdc.c **** * \globalvars
 140:Generated_Source\PSoC5/USBUART_cdc.c **** *   USBUART_linesCoding: Contains the current line coding structure.
 141:Generated_Source\PSoC5/USBUART_cdc.c **** *     It is set by the Host using SET_LINE_CODING request and returned to the
 142:Generated_Source\PSoC5/USBUART_cdc.c **** *     user code by the USBFS_GetDTERate(), USBFS_GetCharFormat(),
 143:Generated_Source\PSoC5/USBUART_cdc.c **** *     USBFS_GetParityType(), USBFS_GetDataBits() APIs.
 144:Generated_Source\PSoC5/USBUART_cdc.c **** *   USBUART_linesControlBitmap: Contains the current control signal
ARM GAS  C:\Users\ingan\AppData\Local\Temp\cc00nNWn.s 			page 4


 145:Generated_Source\PSoC5/USBUART_cdc.c **** *     bitmap. It is set by the Host using SET_CONTROL_LINE request and returned
 146:Generated_Source\PSoC5/USBUART_cdc.c **** *     to the user code by the USBFS_GetLineControl() API.
 147:Generated_Source\PSoC5/USBUART_cdc.c **** *   USBUART_linesChanged: This variable is used as a flag for the
 148:Generated_Source\PSoC5/USBUART_cdc.c **** *     USBFS_IsLineChanged() API, to be aware that Host has been sent request
 149:Generated_Source\PSoC5/USBUART_cdc.c **** *     for changing Line Coding or Control Bitmap.
 150:Generated_Source\PSoC5/USBUART_cdc.c **** *
 151:Generated_Source\PSoC5/USBUART_cdc.c **** * \reentrant
 152:Generated_Source\PSoC5/USBUART_cdc.c **** *  No.
 153:Generated_Source\PSoC5/USBUART_cdc.c **** *
 154:Generated_Source\PSoC5/USBUART_cdc.c **** *******************************************************************************/
 155:Generated_Source\PSoC5/USBUART_cdc.c **** uint8 USBUART_DispatchCDCClassRqst(void) 
 156:Generated_Source\PSoC5/USBUART_cdc.c **** {
  28              		.loc 1 156 0
  29              		.cfi_startproc
  30              		@ args = 0, pretend = 0, frame = 0
  31              		@ frame_needed = 0, uses_anonymous_args = 0
  32              		@ link register save eliminated.
  33              	.LVL0:
 157:Generated_Source\PSoC5/USBUART_cdc.c ****     uint8 requestHandled = USBUART_FALSE;
 158:Generated_Source\PSoC5/USBUART_cdc.c ****     uint8 comPort;
 159:Generated_Source\PSoC5/USBUART_cdc.c **** 
 160:Generated_Source\PSoC5/USBUART_cdc.c ****     comPort = USBUART_GetInterfaceComPort((uint8)USBUART_wIndexLoReg);
  34              		.loc 1 160 0
  35 0000 264B     		ldr	r3, .L17
  36              	.LBB6:
  37              	.LBB7:
 161:Generated_Source\PSoC5/USBUART_cdc.c **** 
 162:Generated_Source\PSoC5/USBUART_cdc.c ****     /* Check request direction: D2H or H2D. */
 163:Generated_Source\PSoC5/USBUART_cdc.c ****     if (0u != (USBUART_bmRequestTypeReg & USBUART_RQST_DIR_D2H))
 164:Generated_Source\PSoC5/USBUART_cdc.c ****     {
 165:Generated_Source\PSoC5/USBUART_cdc.c ****         /* Handle direction from device to host. */
 166:Generated_Source\PSoC5/USBUART_cdc.c **** 
 167:Generated_Source\PSoC5/USBUART_cdc.c ****         switch (USBUART_bRequestReg)
 168:Generated_Source\PSoC5/USBUART_cdc.c ****         {
 169:Generated_Source\PSoC5/USBUART_cdc.c ****             case USBUART_CDC_GET_LINE_CODING:
 170:Generated_Source\PSoC5/USBUART_cdc.c ****                 USBUART_currentTD.count = USBUART_LINE_CODING_SIZE;
 171:Generated_Source\PSoC5/USBUART_cdc.c ****                 USBUART_currentTD.pData = USBUART_linesCoding[comPort];
 172:Generated_Source\PSoC5/USBUART_cdc.c ****                 requestHandled  = USBUART_InitControlRead();
 173:Generated_Source\PSoC5/USBUART_cdc.c ****                 break;
 174:Generated_Source\PSoC5/USBUART_cdc.c **** 
 175:Generated_Source\PSoC5/USBUART_cdc.c ****             /* `#START CDC_READ_REQUESTS` Place other request handler here */
 176:Generated_Source\PSoC5/USBUART_cdc.c **** 
 177:Generated_Source\PSoC5/USBUART_cdc.c ****             /* `#END` */
 178:Generated_Source\PSoC5/USBUART_cdc.c **** 
 179:Generated_Source\PSoC5/USBUART_cdc.c ****             default:
 180:Generated_Source\PSoC5/USBUART_cdc.c ****             /* Do not handle this request unless callback is defined. */
 181:Generated_Source\PSoC5/USBUART_cdc.c ****             #ifdef USBUART_DISPATCH_CDC_CLASS_CDC_READ_REQUESTS_CALLBACK
 182:Generated_Source\PSoC5/USBUART_cdc.c ****                 requestHandled = USBUART_DispatchCDCClass_CDC_READ_REQUESTS_Callback();
 183:Generated_Source\PSoC5/USBUART_cdc.c ****             #endif /* (USBUART_DISPATCH_CDC_CLASS_CDC_READ_REQUESTS_CALLBACK) */
 184:Generated_Source\PSoC5/USBUART_cdc.c ****                 break;
 185:Generated_Source\PSoC5/USBUART_cdc.c ****         }
 186:Generated_Source\PSoC5/USBUART_cdc.c ****     }
 187:Generated_Source\PSoC5/USBUART_cdc.c ****     else
 188:Generated_Source\PSoC5/USBUART_cdc.c ****     {
 189:Generated_Source\PSoC5/USBUART_cdc.c ****         /* Handle direction from host to device. */
 190:Generated_Source\PSoC5/USBUART_cdc.c **** 
 191:Generated_Source\PSoC5/USBUART_cdc.c ****         switch (USBUART_bRequestReg)
ARM GAS  C:\Users\ingan\AppData\Local\Temp\cc00nNWn.s 			page 5


 192:Generated_Source\PSoC5/USBUART_cdc.c ****         {
 193:Generated_Source\PSoC5/USBUART_cdc.c ****             case USBUART_CDC_SET_LINE_CODING:
 194:Generated_Source\PSoC5/USBUART_cdc.c ****                 USBUART_currentTD.count  = USBUART_LINE_CODING_SIZE;
 195:Generated_Source\PSoC5/USBUART_cdc.c ****                 USBUART_currentTD.pData  = USBUART_linesCoding[comPort];
 196:Generated_Source\PSoC5/USBUART_cdc.c ****                 USBUART_linesChanged[comPort] |= USBUART_LINE_CODING_CHANGED;
 197:Generated_Source\PSoC5/USBUART_cdc.c **** 
 198:Generated_Source\PSoC5/USBUART_cdc.c ****                 requestHandled = USBUART_InitControlWrite();
 199:Generated_Source\PSoC5/USBUART_cdc.c ****                 break;
 200:Generated_Source\PSoC5/USBUART_cdc.c **** 
 201:Generated_Source\PSoC5/USBUART_cdc.c ****             case USBUART_CDC_SET_CONTROL_LINE_STATE:
 202:Generated_Source\PSoC5/USBUART_cdc.c ****                 USBUART_linesControlBitmap[comPort] = (uint8) USBUART_wValueLoReg;
 203:Generated_Source\PSoC5/USBUART_cdc.c ****                 USBUART_linesChanged[comPort]      |= USBUART_LINE_CONTROL_CHANGED;
 204:Generated_Source\PSoC5/USBUART_cdc.c **** 
 205:Generated_Source\PSoC5/USBUART_cdc.c ****                 requestHandled = USBUART_InitNoDataControlTransfer();
 206:Generated_Source\PSoC5/USBUART_cdc.c ****                 break;
 207:Generated_Source\PSoC5/USBUART_cdc.c **** 
 208:Generated_Source\PSoC5/USBUART_cdc.c ****             /* `#START CDC_WRITE_REQUESTS` Place other request handler here */
 209:Generated_Source\PSoC5/USBUART_cdc.c **** 
 210:Generated_Source\PSoC5/USBUART_cdc.c ****             /* `#END` */
 211:Generated_Source\PSoC5/USBUART_cdc.c **** 
 212:Generated_Source\PSoC5/USBUART_cdc.c ****             default:
 213:Generated_Source\PSoC5/USBUART_cdc.c ****                 /* Do not handle this request unless callback is defined. */
 214:Generated_Source\PSoC5/USBUART_cdc.c ****             #ifdef USBUART_DISPATCH_CDC_CLASS_CDC_WRITE_REQUESTS_CALLBACK
 215:Generated_Source\PSoC5/USBUART_cdc.c ****                 requestHandled = USBUART_DispatchCDCClass_CDC_WRITE_REQUESTS_Callback();
 216:Generated_Source\PSoC5/USBUART_cdc.c ****             #endif /* (USBUART_DISPATCH_CDC_CLASS_CDC_WRITE_REQUESTS_CALLBACK) */
 217:Generated_Source\PSoC5/USBUART_cdc.c ****                 break;
 218:Generated_Source\PSoC5/USBUART_cdc.c ****         }
 219:Generated_Source\PSoC5/USBUART_cdc.c ****     }
 220:Generated_Source\PSoC5/USBUART_cdc.c **** 
 221:Generated_Source\PSoC5/USBUART_cdc.c ****     return(requestHandled);
 222:Generated_Source\PSoC5/USBUART_cdc.c **** }
 223:Generated_Source\PSoC5/USBUART_cdc.c **** 
 224:Generated_Source\PSoC5/USBUART_cdc.c **** 
 225:Generated_Source\PSoC5/USBUART_cdc.c **** /***************************************************************************
 226:Generated_Source\PSoC5/USBUART_cdc.c **** * Function Name: USBUART_GetInterfaceComPort
 227:Generated_Source\PSoC5/USBUART_cdc.c **** ************************************************************************//**
 228:Generated_Source\PSoC5/USBUART_cdc.c **** *   \internal
 229:Generated_Source\PSoC5/USBUART_cdc.c **** *  Internal function which gets number of COM port by specified interface
 230:Generated_Source\PSoC5/USBUART_cdc.c **** *   number.
 231:Generated_Source\PSoC5/USBUART_cdc.c **** *
 232:Generated_Source\PSoC5/USBUART_cdc.c **** * \param uint8 interface
 233:Generated_Source\PSoC5/USBUART_cdc.c **** *  Interface number
 234:Generated_Source\PSoC5/USBUART_cdc.c **** *
 235:Generated_Source\PSoC5/USBUART_cdc.c **** * \return
 236:Generated_Source\PSoC5/USBUART_cdc.c **** *  COM port number (0 or 1) or error 0xFF
 237:Generated_Source\PSoC5/USBUART_cdc.c **** *
 238:Generated_Source\PSoC5/USBUART_cdc.c **** ***************************************************************************/
 239:Generated_Source\PSoC5/USBUART_cdc.c **** uint8 USBUART_GetInterfaceComPort(uint8 interface) 
 240:Generated_Source\PSoC5/USBUART_cdc.c **** {
 241:Generated_Source\PSoC5/USBUART_cdc.c ****     uint8 comPort = 0u;
 242:Generated_Source\PSoC5/USBUART_cdc.c ****     uint8 res = 0xFFu;
 243:Generated_Source\PSoC5/USBUART_cdc.c ****     uint8 notEp;
 244:Generated_Source\PSoC5/USBUART_cdc.c **** 
 245:Generated_Source\PSoC5/USBUART_cdc.c ****     while (comPort < USBUART_MAX_MULTI_COM_NUM)
 246:Generated_Source\PSoC5/USBUART_cdc.c ****     {
 247:Generated_Source\PSoC5/USBUART_cdc.c ****         notEp = USBUART_cdcCommInInterruptEp[comPort];
  38              		.loc 1 247 0
ARM GAS  C:\Users\ingan\AppData\Local\Temp\cc00nNWn.s 			page 6


  39 0002 2748     		ldr	r0, .L17+4
  40              	.LBE7:
  41              	.LBE6:
 160:Generated_Source\PSoC5/USBUART_cdc.c **** 
  42              		.loc 1 160 0
  43 0004 1B79     		ldrb	r3, [r3, #4]	@ zero_extendqisi2
  44              	.LBB11:
  45              	.LBB8:
  46              		.loc 1 247 0
  47 0006 0278     		ldrb	r2, [r0]	@ zero_extendqisi2
 248:Generated_Source\PSoC5/USBUART_cdc.c **** 
 249:Generated_Source\PSoC5/USBUART_cdc.c ****         if (USBUART_EP[notEp].interface == interface)
  48              		.loc 1 249 0
  49 0008 2649     		ldr	r1, .L17+8
  50 000a 02EB4202 		add	r2, r2, r2, lsl #1
  51 000e 01EB8202 		add	r2, r1, r2, lsl #2
  52 0012 927A     		ldrb	r2, [r2, #10]	@ zero_extendqisi2
  53              	.LBE8:
  54              	.LBE11:
 160:Generated_Source\PSoC5/USBUART_cdc.c **** 
  55              		.loc 1 160 0
  56 0014 DBB2     		uxtb	r3, r3
  57              	.LVL1:
  58              	.LBB12:
  59              	.LBB9:
  60              		.loc 1 249 0
  61 0016 9342     		cmp	r3, r2
  62 0018 34D0     		beq	.L9
  63              	.LVL2:
 247:Generated_Source\PSoC5/USBUART_cdc.c **** 
  64              		.loc 1 247 0
  65 001a 4278     		ldrb	r2, [r0, #1]	@ zero_extendqisi2
  66              	.LVL3:
  67              		.loc 1 249 0
  68 001c 02EB4202 		add	r2, r2, r2, lsl #1
  69              	.LVL4:
  70 0020 01EB8201 		add	r1, r1, r2, lsl #2
  71 0024 8A7A     		ldrb	r2, [r1, #10]	@ zero_extendqisi2
 247:Generated_Source\PSoC5/USBUART_cdc.c **** 
  72              		.loc 1 247 0
  73 0026 9342     		cmp	r3, r2
  74 0028 14BF     		ite	ne
  75 002a FF23     		movne	r3, #255
  76 002c 0123     		moveq	r3, #1
  77              	.LVL5:
  78              	.L3:
  79              	.LBE9:
  80              	.LBE12:
 163:Generated_Source\PSoC5/USBUART_cdc.c ****     {
  81              		.loc 1 163 0
  82 002e 1B49     		ldr	r1, .L17
  83 0030 0A78     		ldrb	r2, [r1]	@ zero_extendqisi2
  84 0032 12F0800F 		tst	r2, #128
 167:Generated_Source\PSoC5/USBUART_cdc.c ****         {
  85              		.loc 1 167 0
  86 0036 4A78     		ldrb	r2, [r1, #1]	@ zero_extendqisi2
 163:Generated_Source\PSoC5/USBUART_cdc.c ****     {
ARM GAS  C:\Users\ingan\AppData\Local\Temp\cc00nNWn.s 			page 7


  87              		.loc 1 163 0
  88 0038 20D1     		bne	.L15
 191:Generated_Source\PSoC5/USBUART_cdc.c ****         {
  89              		.loc 1 191 0
  90 003a D2B2     		uxtb	r2, r2
  91 003c 202A     		cmp	r2, #32
  92 003e 0CD0     		beq	.L7
  93 0040 222A     		cmp	r2, #34
  94 0042 1DD1     		bne	.L5
 202:Generated_Source\PSoC5/USBUART_cdc.c ****                 USBUART_linesChanged[comPort]      |= USBUART_LINE_CONTROL_CHANGED;
  95              		.loc 1 202 0
  96 0044 8A78     		ldrb	r2, [r1, #2]	@ zero_extendqisi2
  97 0046 1848     		ldr	r0, .L17+12
 203:Generated_Source\PSoC5/USBUART_cdc.c **** 
  98              		.loc 1 203 0
  99 0048 1849     		ldr	r1, .L17+16
 202:Generated_Source\PSoC5/USBUART_cdc.c ****                 USBUART_linesChanged[comPort]      |= USBUART_LINE_CONTROL_CHANGED;
 100              		.loc 1 202 0
 101 004a 20F81320 		strh	r2, [r0, r3, lsl #1]	@ movhi
 203:Generated_Source\PSoC5/USBUART_cdc.c **** 
 102              		.loc 1 203 0
 103 004e CA5C     		ldrb	r2, [r1, r3]	@ zero_extendqisi2
 104 0050 42F00202 		orr	r2, r2, #2
 105 0054 CA54     		strb	r2, [r1, r3]
 205:Generated_Source\PSoC5/USBUART_cdc.c ****                 break;
 106              		.loc 1 205 0
 107 0056 FFF7FEBF 		b	USBUART_InitNoDataControlTransfer
 108              	.LVL6:
 109              	.L7:
 156:Generated_Source\PSoC5/USBUART_cdc.c ****     uint8 requestHandled = USBUART_FALSE;
 110              		.loc 1 156 0
 111 005a 10B4     		push	{r4}
 112              		.cfi_def_cfa_offset 4
 113              		.cfi_offset 4, -4
 195:Generated_Source\PSoC5/USBUART_cdc.c ****                 USBUART_linesChanged[comPort] |= USBUART_LINE_CODING_CHANGED;
 114              		.loc 1 195 0
 115 005c 1449     		ldr	r1, .L17+20
 194:Generated_Source\PSoC5/USBUART_cdc.c ****                 USBUART_currentTD.pData  = USBUART_linesCoding[comPort];
 116              		.loc 1 194 0
 117 005e 1548     		ldr	r0, .L17+24
 195:Generated_Source\PSoC5/USBUART_cdc.c ****                 USBUART_linesChanged[comPort] |= USBUART_LINE_CODING_CHANGED;
 118              		.loc 1 195 0
 119 0060 C3EBC302 		rsb	r2, r3, r3, lsl #3
 120 0064 0A44     		add	r2, r2, r1
 194:Generated_Source\PSoC5/USBUART_cdc.c ****                 USBUART_currentTD.pData  = USBUART_linesCoding[comPort];
 121              		.loc 1 194 0
 122 0066 0724     		movs	r4, #7
 196:Generated_Source\PSoC5/USBUART_cdc.c **** 
 123              		.loc 1 196 0
 124 0068 1049     		ldr	r1, .L17+16
 194:Generated_Source\PSoC5/USBUART_cdc.c ****                 USBUART_currentTD.pData  = USBUART_linesCoding[comPort];
 125              		.loc 1 194 0
 126 006a 0480     		strh	r4, [r0]	@ movhi
 195:Generated_Source\PSoC5/USBUART_cdc.c ****                 USBUART_linesChanged[comPort] |= USBUART_LINE_CODING_CHANGED;
 127              		.loc 1 195 0
 128 006c 4260     		str	r2, [r0, #4]
 196:Generated_Source\PSoC5/USBUART_cdc.c **** 
ARM GAS  C:\Users\ingan\AppData\Local\Temp\cc00nNWn.s 			page 8


 129              		.loc 1 196 0
 130 006e CA5C     		ldrb	r2, [r1, r3]	@ zero_extendqisi2
 131 0070 42F00102 		orr	r2, r2, #1
 132 0074 CA54     		strb	r2, [r1, r3]
 222:Generated_Source\PSoC5/USBUART_cdc.c **** 
 133              		.loc 1 222 0
 134 0076 10BC     		pop	{r4}
 135              		.cfi_restore 4
 136              		.cfi_def_cfa_offset 0
 198:Generated_Source\PSoC5/USBUART_cdc.c ****                 break;
 137              		.loc 1 198 0
 138 0078 FFF7FEBF 		b	USBUART_InitControlWrite
 139              	.LVL7:
 140              	.L15:
 167:Generated_Source\PSoC5/USBUART_cdc.c ****         {
 141              		.loc 1 167 0
 142 007c 212A     		cmp	r2, #33
 143 007e 03D0     		beq	.L16
 144              	.L5:
 145              	.LVL8:
 222:Generated_Source\PSoC5/USBUART_cdc.c **** 
 146              		.loc 1 222 0
 147 0080 0020     		movs	r0, #0
 148 0082 7047     		bx	lr
 149              	.LVL9:
 150              	.L9:
 151              	.LBB13:
 152              	.LBB10:
 247:Generated_Source\PSoC5/USBUART_cdc.c **** 
 153              		.loc 1 247 0
 154 0084 0023     		movs	r3, #0
 155              	.LVL10:
 156 0086 D2E7     		b	.L3
 157              	.LVL11:
 158              	.L16:
 159              	.LBE10:
 160              	.LBE13:
 171:Generated_Source\PSoC5/USBUART_cdc.c ****                 requestHandled  = USBUART_InitControlRead();
 161              		.loc 1 171 0
 162 0088 0949     		ldr	r1, .L17+20
 170:Generated_Source\PSoC5/USBUART_cdc.c ****                 USBUART_currentTD.pData = USBUART_linesCoding[comPort];
 163              		.loc 1 170 0
 164 008a 0A4A     		ldr	r2, .L17+24
 171:Generated_Source\PSoC5/USBUART_cdc.c ****                 requestHandled  = USBUART_InitControlRead();
 165              		.loc 1 171 0
 166 008c C3EBC303 		rsb	r3, r3, r3, lsl #3
 167 0090 0B44     		add	r3, r3, r1
 170:Generated_Source\PSoC5/USBUART_cdc.c ****                 USBUART_currentTD.pData = USBUART_linesCoding[comPort];
 168              		.loc 1 170 0
 169 0092 0721     		movs	r1, #7
 170 0094 1180     		strh	r1, [r2]	@ movhi
 171:Generated_Source\PSoC5/USBUART_cdc.c ****                 requestHandled  = USBUART_InitControlRead();
 171              		.loc 1 171 0
 172 0096 5360     		str	r3, [r2, #4]
 172:Generated_Source\PSoC5/USBUART_cdc.c ****                 break;
 173              		.loc 1 172 0
 174 0098 FFF7FEBF 		b	USBUART_InitControlRead
ARM GAS  C:\Users\ingan\AppData\Local\Temp\cc00nNWn.s 			page 9


 175              	.LVL12:
 176              	.L18:
 177              		.align	2
 178              	.L17:
 179 009c 00600040 		.word	1073766400
 180 00a0 00000000 		.word	USBUART_cdcCommInInterruptEp
 181 00a4 00000000 		.word	USBUART_EP
 182 00a8 00000000 		.word	USBUART_linesControlBitmap
 183 00ac 00000000 		.word	USBUART_linesChanged
 184 00b0 00000000 		.word	.LANCHOR0
 185 00b4 00000000 		.word	USBUART_currentTD
 186              		.cfi_endproc
 187              	.LFE0:
 188              		.size	USBUART_DispatchCDCClassRqst, .-USBUART_DispatchCDCClassRqst
 189              		.section	.text.USBUART_GetInterfaceComPort,"ax",%progbits
 190              		.align	2
 191              		.global	USBUART_GetInterfaceComPort
 192              		.thumb
 193              		.thumb_func
 194              		.type	USBUART_GetInterfaceComPort, %function
 195              	USBUART_GetInterfaceComPort:
 196              	.LFB1:
 240:Generated_Source\PSoC5/USBUART_cdc.c ****     uint8 comPort = 0u;
 197              		.loc 1 240 0
 198              		.cfi_startproc
 199              		@ args = 0, pretend = 0, frame = 0
 200              		@ frame_needed = 0, uses_anonymous_args = 0
 201              		@ link register save eliminated.
 202              	.LVL13:
 247:Generated_Source\PSoC5/USBUART_cdc.c **** 
 203              		.loc 1 247 0
 204 0000 0B49     		ldr	r1, .L24
 205              		.loc 1 249 0
 206 0002 0C4A     		ldr	r2, .L24+4
 247:Generated_Source\PSoC5/USBUART_cdc.c **** 
 207              		.loc 1 247 0
 208 0004 0B78     		ldrb	r3, [r1]	@ zero_extendqisi2
 209              	.LVL14:
 210              		.loc 1 249 0
 211 0006 03EB4303 		add	r3, r3, r3, lsl #1
 212              	.LVL15:
 213 000a 02EB8303 		add	r3, r2, r3, lsl #2
 214 000e 9B7A     		ldrb	r3, [r3, #10]	@ zero_extendqisi2
 215 0010 9842     		cmp	r0, r3
 216 0012 0AD0     		beq	.L22
 217              	.LVL16:
 247:Generated_Source\PSoC5/USBUART_cdc.c **** 
 218              		.loc 1 247 0
 219 0014 4B78     		ldrb	r3, [r1, #1]	@ zero_extendqisi2
 220              	.LVL17:
 221              		.loc 1 249 0
 222 0016 03EB4303 		add	r3, r3, r3, lsl #1
 223              	.LVL18:
 224 001a 02EB8302 		add	r2, r2, r3, lsl #2
 225 001e 937A     		ldrb	r3, [r2, #10]	@ zero_extendqisi2
 250:Generated_Source\PSoC5/USBUART_cdc.c ****         {
 251:Generated_Source\PSoC5/USBUART_cdc.c ****             res = comPort;
ARM GAS  C:\Users\ingan\AppData\Local\Temp\cc00nNWn.s 			page 10


 252:Generated_Source\PSoC5/USBUART_cdc.c ****             comPort = USBUART_MAX_MULTI_COM_NUM;
 253:Generated_Source\PSoC5/USBUART_cdc.c ****         }
 254:Generated_Source\PSoC5/USBUART_cdc.c **** 
 255:Generated_Source\PSoC5/USBUART_cdc.c ****         comPort++;
 226              		.loc 1 255 0
 227 0020 8342     		cmp	r3, r0
 228 0022 14BF     		ite	ne
 229 0024 FF20     		movne	r0, #255
 230 0026 0120     		moveq	r0, #1
 231              	.LVL19:
 232 0028 7047     		bx	lr
 233              	.LVL20:
 234              	.L22:
 241:Generated_Source\PSoC5/USBUART_cdc.c ****     uint8 res = 0xFFu;
 235              		.loc 1 241 0
 236 002a 0020     		movs	r0, #0
 237              	.LVL21:
 256:Generated_Source\PSoC5/USBUART_cdc.c ****     }
 257:Generated_Source\PSoC5/USBUART_cdc.c ****     return (res);
 258:Generated_Source\PSoC5/USBUART_cdc.c **** }
 238              		.loc 1 258 0
 239 002c 7047     		bx	lr
 240              	.L25:
 241 002e 00BF     		.align	2
 242              	.L24:
 243 0030 00000000 		.word	USBUART_cdcCommInInterruptEp
 244 0034 00000000 		.word	USBUART_EP
 245              		.cfi_endproc
 246              	.LFE1:
 247              		.size	USBUART_GetInterfaceComPort, .-USBUART_GetInterfaceComPort
 248              		.section	.text.USBUART_CDC_Init,"ax",%progbits
 249              		.align	2
 250              		.global	USBUART_CDC_Init
 251              		.thumb
 252              		.thumb_func
 253              		.type	USBUART_CDC_Init, %function
 254              	USBUART_CDC_Init:
 255              	.LFB2:
 259:Generated_Source\PSoC5/USBUART_cdc.c **** 
 260:Generated_Source\PSoC5/USBUART_cdc.c **** 
 261:Generated_Source\PSoC5/USBUART_cdc.c **** /***************************************
 262:Generated_Source\PSoC5/USBUART_cdc.c **** * Optional CDC APIs
 263:Generated_Source\PSoC5/USBUART_cdc.c **** ***************************************/
 264:Generated_Source\PSoC5/USBUART_cdc.c **** #if (USBUART_ENABLE_CDC_CLASS_API != 0u)
 265:Generated_Source\PSoC5/USBUART_cdc.c **** /***************************************************************************
 266:Generated_Source\PSoC5/USBUART_cdc.c **** * Function Name: USBUART_CDC_Init
 267:Generated_Source\PSoC5/USBUART_cdc.c **** ************************************************************************//**
 268:Generated_Source\PSoC5/USBUART_cdc.c **** *
 269:Generated_Source\PSoC5/USBUART_cdc.c **** *  This function initializes the CDC interface to be ready to receive data
 270:Generated_Source\PSoC5/USBUART_cdc.c **** *  from the PC. The API set active communication port to 0 in the case of 
 271:Generated_Source\PSoC5/USBUART_cdc.c **** *  multiple communication port support.This API should be called after the 
 272:Generated_Source\PSoC5/USBUART_cdc.c **** *  device has been started and configured using USBUART_Start() API to 
 273:Generated_Source\PSoC5/USBUART_cdc.c **** *  initialize and start the USBFS component operation. Then call the 
 274:Generated_Source\PSoC5/USBUART_cdc.c **** *  USBUART_GetConfiguration() API to wait until the host has enumerated and 
 275:Generated_Source\PSoC5/USBUART_cdc.c **** *  configured the device. For example:
 276:Generated_Source\PSoC5/USBUART_cdc.c **** *
 277:Generated_Source\PSoC5/USBUART_cdc.c **** *  \snippet /USBFS_sut_02.cydsn/main.c wait for enumeration
ARM GAS  C:\Users\ingan\AppData\Local\Temp\cc00nNWn.s 			page 11


 278:Generated_Source\PSoC5/USBUART_cdc.c **** *
 279:Generated_Source\PSoC5/USBUART_cdc.c **** * \return
 280:Generated_Source\PSoC5/USBUART_cdc.c **** *  cystatus:
 281:Generated_Source\PSoC5/USBUART_cdc.c **** *   Return Value    Description
 282:Generated_Source\PSoC5/USBUART_cdc.c **** *   USBUART_SUCCESS   CDC interface was initialized correctly
 283:Generated_Source\PSoC5/USBUART_cdc.c **** *   USBUART_FAILURE   CDC interface was not initialized
 284:Generated_Source\PSoC5/USBUART_cdc.c **** *
 285:Generated_Source\PSoC5/USBUART_cdc.c **** * \globalvars
 286:Generated_Source\PSoC5/USBUART_cdc.c **** *   USBUART_linesChanged: Initialized to zero.
 287:Generated_Source\PSoC5/USBUART_cdc.c **** *   USBUART_cdcDataOutEp: Used as an OUT endpoint number.
 288:Generated_Source\PSoC5/USBUART_cdc.c **** *
 289:Generated_Source\PSoC5/USBUART_cdc.c **** * \reentrant
 290:Generated_Source\PSoC5/USBUART_cdc.c **** *  No.
 291:Generated_Source\PSoC5/USBUART_cdc.c **** *
 292:Generated_Source\PSoC5/USBUART_cdc.c **** *******************************************************************************/
 293:Generated_Source\PSoC5/USBUART_cdc.c **** uint8 USBUART_CDC_Init(void) 
 294:Generated_Source\PSoC5/USBUART_cdc.c **** {
 256              		.loc 1 294 0
 257              		.cfi_startproc
 258              		@ args = 0, pretend = 0, frame = 0
 259              		@ frame_needed = 0, uses_anonymous_args = 0
 260              	.LVL22:
 261 0000 10B5     		push	{r4, lr}
 262              		.cfi_def_cfa_offset 8
 263              		.cfi_offset 4, -8
 264              		.cfi_offset 14, -4
 295:Generated_Source\PSoC5/USBUART_cdc.c ****     uint8 comPort;
 296:Generated_Source\PSoC5/USBUART_cdc.c ****     uint8 outEp;
 297:Generated_Source\PSoC5/USBUART_cdc.c ****     uint8 ret = USBUART_SUCCESS;
 298:Generated_Source\PSoC5/USBUART_cdc.c **** 
 299:Generated_Source\PSoC5/USBUART_cdc.c ****     USBUART_activeCom = 0u;
 300:Generated_Source\PSoC5/USBUART_cdc.c ****     USBUART_linesChanged[USBUART_COM_PORT1] = 0u;
 265              		.loc 1 300 0
 266 0002 174A     		ldr	r2, .L39
 299:Generated_Source\PSoC5/USBUART_cdc.c ****     USBUART_linesChanged[USBUART_COM_PORT1] = 0u;
 267              		.loc 1 299 0
 268 0004 0023     		movs	r3, #0
 301:Generated_Source\PSoC5/USBUART_cdc.c ****     USBUART_linesChanged[USBUART_COM_PORT2] = 0u;
 302:Generated_Source\PSoC5/USBUART_cdc.c **** 
 303:Generated_Source\PSoC5/USBUART_cdc.c ****     for(comPort = 0u; comPort<USBUART_MAX_MULTI_COM_NUM; comPort++)
 304:Generated_Source\PSoC5/USBUART_cdc.c ****     {
 305:Generated_Source\PSoC5/USBUART_cdc.c ****         outEp = USBUART_cdcDataOutEp[comPort];
 269              		.loc 1 305 0
 270 0006 174C     		ldr	r4, .L39+4
 300:Generated_Source\PSoC5/USBUART_cdc.c ****     USBUART_linesChanged[USBUART_COM_PORT2] = 0u;
 271              		.loc 1 300 0
 272 0008 1370     		strb	r3, [r2]
 301:Generated_Source\PSoC5/USBUART_cdc.c ****     USBUART_linesChanged[USBUART_COM_PORT2] = 0u;
 273              		.loc 1 301 0
 274 000a 5370     		strb	r3, [r2, #1]
 275              	.LVL23:
 276              		.loc 1 305 0
 277 000c 2078     		ldrb	r0, [r4]	@ zero_extendqisi2
 299:Generated_Source\PSoC5/USBUART_cdc.c ****     USBUART_linesChanged[USBUART_COM_PORT1] = 0u;
 278              		.loc 1 299 0
 279 000e 1649     		ldr	r1, .L39+8
 280              		.loc 1 305 0
ARM GAS  C:\Users\ingan\AppData\Local\Temp\cc00nNWn.s 			page 12


 281 0010 C0B2     		uxtb	r0, r0
 282              	.LVL24:
 306:Generated_Source\PSoC5/USBUART_cdc.c ****         if((0u != outEp) && (USBUART_MAX_EP > outEp))
 283              		.loc 1 306 0
 284 0012 421E     		subs	r2, r0, #1
 285 0014 072A     		cmp	r2, #7
 299:Generated_Source\PSoC5/USBUART_cdc.c ****     USBUART_linesChanged[USBUART_COM_PORT1] = 0u;
 286              		.loc 1 299 0
 287 0016 0B70     		strb	r3, [r1]
 288              		.loc 1 306 0
 289 0018 1FD9     		bls	.L36
 290              	.LVL25:
 291              	.L27:
 305:Generated_Source\PSoC5/USBUART_cdc.c ****         if((0u != outEp) && (USBUART_MAX_EP > outEp))
 292              		.loc 1 305 0
 293 001a 6078     		ldrb	r0, [r4, #1]	@ zero_extendqisi2
 294 001c C0B2     		uxtb	r0, r0
 295              	.LVL26:
 296              		.loc 1 306 0
 297 001e 431E     		subs	r3, r0, #1
 298 0020 072B     		cmp	r3, #7
 299 0022 17D9     		bls	.L37
 300              	.LVL27:
 301              	.L28:
 307:Generated_Source\PSoC5/USBUART_cdc.c ****         {
 308:Generated_Source\PSoC5/USBUART_cdc.c ****             USBUART_EnableOutEP(outEp);
 309:Generated_Source\PSoC5/USBUART_cdc.c ****         }
 310:Generated_Source\PSoC5/USBUART_cdc.c **** 
 311:Generated_Source\PSoC5/USBUART_cdc.c ****     }
 312:Generated_Source\PSoC5/USBUART_cdc.c **** 
 313:Generated_Source\PSoC5/USBUART_cdc.c ****     /* COM Port 1 should be correct to proceed. */
 314:Generated_Source\PSoC5/USBUART_cdc.c ****     if ((0u == USBUART_cdcDataInEp[USBUART_COM_PORT1]) \
 302              		.loc 1 314 0
 303 0024 114B     		ldr	r3, .L39+12
 304 0026 1A78     		ldrb	r2, [r3]	@ zero_extendqisi2
 305 0028 12B1     		cbz	r2, .L34
 315:Generated_Source\PSoC5/USBUART_cdc.c ****             || (0u == USBUART_cdcDataOutEp[USBUART_COM_PORT1]) \
 306              		.loc 1 315 0
 307 002a 2278     		ldrb	r2, [r4]	@ zero_extendqisi2
 308 002c 0D49     		ldr	r1, .L39+4
 309 002e 0AB9     		cbnz	r2, .L38
 310              	.L34:
 316:Generated_Source\PSoC5/USBUART_cdc.c ****             || (0u ==  USBUART_cdcCommInInterruptEp[USBUART_COM_PORT1])
 317:Generated_Source\PSoC5/USBUART_cdc.c ****             || (USBUART_cdcDataInEp[USBUART_COM_PORT1] >= USBUART_MAX_EP)
 318:Generated_Source\PSoC5/USBUART_cdc.c ****             || (USBUART_cdcDataOutEp[USBUART_COM_PORT1] >= USBUART_MAX_EP)
 319:Generated_Source\PSoC5/USBUART_cdc.c ****             || (USBUART_cdcCommInInterruptEp[USBUART_COM_PORT1] >= USBUART_MAX_EP))
 320:Generated_Source\PSoC5/USBUART_cdc.c ****     {
 321:Generated_Source\PSoC5/USBUART_cdc.c ****         ret = USBUART_FAILURE;
 311              		.loc 1 321 0
 312 0030 0120     		movs	r0, #1
 313              	.LVL28:
 322:Generated_Source\PSoC5/USBUART_cdc.c ****     }
 323:Generated_Source\PSoC5/USBUART_cdc.c **** 
 324:Generated_Source\PSoC5/USBUART_cdc.c ****     return (ret);
 325:Generated_Source\PSoC5/USBUART_cdc.c **** }
 314              		.loc 1 325 0
 315 0032 10BD     		pop	{r4, pc}
ARM GAS  C:\Users\ingan\AppData\Local\Temp\cc00nNWn.s 			page 13


 316              	.LVL29:
 317              	.L38:
 316:Generated_Source\PSoC5/USBUART_cdc.c ****             || (0u ==  USBUART_cdcCommInInterruptEp[USBUART_COM_PORT1])
 318              		.loc 1 316 0
 319 0034 0E4A     		ldr	r2, .L39+16
 320 0036 1078     		ldrb	r0, [r2]	@ zero_extendqisi2
 321 0038 0028     		cmp	r0, #0
 322 003a F9D0     		beq	.L34
 317:Generated_Source\PSoC5/USBUART_cdc.c ****             || (USBUART_cdcDataOutEp[USBUART_COM_PORT1] >= USBUART_MAX_EP)
 323              		.loc 1 317 0
 324 003c 1B78     		ldrb	r3, [r3]	@ zero_extendqisi2
 325 003e 082B     		cmp	r3, #8
 326 0040 F6D8     		bhi	.L34
 318:Generated_Source\PSoC5/USBUART_cdc.c ****             || (USBUART_cdcCommInInterruptEp[USBUART_COM_PORT1] >= USBUART_MAX_EP))
 327              		.loc 1 318 0
 328 0042 0B78     		ldrb	r3, [r1]	@ zero_extendqisi2
 329 0044 082B     		cmp	r3, #8
 330 0046 F3D8     		bhi	.L34
 319:Generated_Source\PSoC5/USBUART_cdc.c ****     {
 331              		.loc 1 319 0
 332 0048 1078     		ldrb	r0, [r2]	@ zero_extendqisi2
 297:Generated_Source\PSoC5/USBUART_cdc.c **** 
 333              		.loc 1 297 0
 334 004a 0828     		cmp	r0, #8
 335 004c 94BF     		ite	ls
 336 004e 0020     		movls	r0, #0
 337 0050 0120     		movhi	r0, #1
 338 0052 10BD     		pop	{r4, pc}
 339              	.LVL30:
 340              	.L37:
 308:Generated_Source\PSoC5/USBUART_cdc.c ****         }
 341              		.loc 1 308 0
 342 0054 FFF7FEFF 		bl	USBUART_EnableOutEP
 343              	.LVL31:
 344 0058 E4E7     		b	.L28
 345              	.LVL32:
 346              	.L36:
 347 005a FFF7FEFF 		bl	USBUART_EnableOutEP
 348              	.LVL33:
 349 005e DCE7     		b	.L27
 350              	.L40:
 351              		.align	2
 352              	.L39:
 353 0060 00000000 		.word	USBUART_linesChanged
 354 0064 00000000 		.word	USBUART_cdcDataOutEp
 355 0068 00000000 		.word	.LANCHOR1
 356 006c 00000000 		.word	USBUART_cdcDataInEp
 357 0070 00000000 		.word	USBUART_cdcCommInInterruptEp
 358              		.cfi_endproc
 359              	.LFE2:
 360              		.size	USBUART_CDC_Init, .-USBUART_CDC_Init
 361              		.section	.text.USBUART_PutData,"ax",%progbits
 362              		.align	2
 363              		.global	USBUART_PutData
 364              		.thumb
 365              		.thumb_func
 366              		.type	USBUART_PutData, %function
ARM GAS  C:\Users\ingan\AppData\Local\Temp\cc00nNWn.s 			page 14


 367              	USBUART_PutData:
 368              	.LFB3:
 326:Generated_Source\PSoC5/USBUART_cdc.c **** 
 327:Generated_Source\PSoC5/USBUART_cdc.c **** 
 328:Generated_Source\PSoC5/USBUART_cdc.c **** /*******************************************************************************
 329:Generated_Source\PSoC5/USBUART_cdc.c **** * Function Name: USBUART_PutData
 330:Generated_Source\PSoC5/USBUART_cdc.c **** ****************************************************************************//**
 331:Generated_Source\PSoC5/USBUART_cdc.c **** *
 332:Generated_Source\PSoC5/USBUART_cdc.c **** *  This function sends a specified number of bytes from the location specified
 333:Generated_Source\PSoC5/USBUART_cdc.c **** *  by a pointer to the PC. The USBUART_CDCIsReady() function should be
 334:Generated_Source\PSoC5/USBUART_cdc.c **** *  called before sending new data, to be sure that the previous data has
 335:Generated_Source\PSoC5/USBUART_cdc.c **** *  finished sending.
 336:Generated_Source\PSoC5/USBUART_cdc.c **** *  If the last sent packet is less than maximum packet size the USB transfer
 337:Generated_Source\PSoC5/USBUART_cdc.c **** *  of this short packet will identify the end of the segment. If the last sent
 338:Generated_Source\PSoC5/USBUART_cdc.c **** *  packet is exactly maximum packet size, it shall be followed by a zero-length
 339:Generated_Source\PSoC5/USBUART_cdc.c **** *  packet (which is a short packet) to assure the end of segment is properly
 340:Generated_Source\PSoC5/USBUART_cdc.c **** *  identified. To send zero-length packet, use USBUART_PutData() API
 341:Generated_Source\PSoC5/USBUART_cdc.c **** *  with length parameter set to zero.
 342:Generated_Source\PSoC5/USBUART_cdc.c **** *
 343:Generated_Source\PSoC5/USBUART_cdc.c **** *  \param pData: pointer to the buffer containing data to be sent.
 344:Generated_Source\PSoC5/USBUART_cdc.c **** *  \param length: Specifies the number of bytes to send from the pData
 345:Generated_Source\PSoC5/USBUART_cdc.c **** *  buffer. Maximum length will be limited by the maximum packet
 346:Generated_Source\PSoC5/USBUART_cdc.c **** *  size for the endpoint. Data will be lost if length is greater than Max
 347:Generated_Source\PSoC5/USBUART_cdc.c **** *  Packet Size.
 348:Generated_Source\PSoC5/USBUART_cdc.c **** *
 349:Generated_Source\PSoC5/USBUART_cdc.c **** * \globalvars
 350:Generated_Source\PSoC5/USBUART_cdc.c **** *
 351:Generated_Source\PSoC5/USBUART_cdc.c **** *   USBUART_cdcDataInEp: CDC IN endpoint number used for sending
 352:Generated_Source\PSoC5/USBUART_cdc.c **** *     data.
 353:Generated_Source\PSoC5/USBUART_cdc.c **** *
 354:Generated_Source\PSoC5/USBUART_cdc.c **** * \reentrant
 355:Generated_Source\PSoC5/USBUART_cdc.c **** *  No.
 356:Generated_Source\PSoC5/USBUART_cdc.c **** *
 357:Generated_Source\PSoC5/USBUART_cdc.c **** *******************************************************************************/
 358:Generated_Source\PSoC5/USBUART_cdc.c **** void USBUART_PutData(const uint8* pData, uint16 length) 
 359:Generated_Source\PSoC5/USBUART_cdc.c **** {
 369              		.loc 1 359 0
 370              		.cfi_startproc
 371              		@ args = 0, pretend = 0, frame = 0
 372              		@ frame_needed = 0, uses_anonymous_args = 0
 373              		@ link register save eliminated.
 374              	.LVL34:
 375 0000 0A46     		mov	r2, r1
 376 0002 30B4     		push	{r4, r5}
 377              		.cfi_def_cfa_offset 8
 378              		.cfi_offset 4, -8
 379              		.cfi_offset 5, -4
 360:Generated_Source\PSoC5/USBUART_cdc.c ****     uint8 epNumber = USBUART_cdcDataInEp[USBUART_activeCom];
 380              		.loc 1 360 0
 381 0004 0A4B     		ldr	r3, .L44
 382 0006 0B49     		ldr	r1, .L44+4
 383              	.LVL35:
 384 0008 1B78     		ldrb	r3, [r3]	@ zero_extendqisi2
 361:Generated_Source\PSoC5/USBUART_cdc.c **** 
 362:Generated_Source\PSoC5/USBUART_cdc.c ****     /* Limit length to maximum packet size for endpoint. */
 363:Generated_Source\PSoC5/USBUART_cdc.c ****     if (length > USBUART_EP[epNumber].bufferSize)
 385              		.loc 1 363 0
ARM GAS  C:\Users\ingan\AppData\Local\Temp\cc00nNWn.s 			page 15


 386 000a 0B4C     		ldr	r4, .L44+8
 360:Generated_Source\PSoC5/USBUART_cdc.c ****     uint8 epNumber = USBUART_cdcDataInEp[USBUART_activeCom];
 387              		.loc 1 360 0
 388 000c CB5C     		ldrb	r3, [r1, r3]	@ zero_extendqisi2
 359:Generated_Source\PSoC5/USBUART_cdc.c ****     uint8 epNumber = USBUART_cdcDataInEp[USBUART_activeCom];
 389              		.loc 1 359 0
 390 000e 0146     		mov	r1, r0
 360:Generated_Source\PSoC5/USBUART_cdc.c ****     uint8 epNumber = USBUART_cdcDataInEp[USBUART_activeCom];
 391              		.loc 1 360 0
 392 0010 DBB2     		uxtb	r3, r3
 393              	.LVL36:
 394              		.loc 1 363 0
 395 0012 03EB4300 		add	r0, r3, r3, lsl #1
 396              	.LVL37:
 397 0016 04EB8004 		add	r4, r4, r0, lsl #2
 398 001a 2589     		ldrh	r5, [r4, #8]
 364:Generated_Source\PSoC5/USBUART_cdc.c ****     {
 365:Generated_Source\PSoC5/USBUART_cdc.c ****         /* Caution: Data will be lost if length is greater than Max Packet Size. */
 366:Generated_Source\PSoC5/USBUART_cdc.c ****         length = USBUART_EP[epNumber].bufferSize;
 367:Generated_Source\PSoC5/USBUART_cdc.c **** 
 368:Generated_Source\PSoC5/USBUART_cdc.c ****         /* Halt CPU in debug mode */
 369:Generated_Source\PSoC5/USBUART_cdc.c ****         CYASSERT(0u != 0u);
 370:Generated_Source\PSoC5/USBUART_cdc.c ****     }
 371:Generated_Source\PSoC5/USBUART_cdc.c **** 
 372:Generated_Source\PSoC5/USBUART_cdc.c ****     USBUART_LoadInEP(epNumber, pData, length);
 399              		.loc 1 372 0
 400 001c 1846     		mov	r0, r3
 363:Generated_Source\PSoC5/USBUART_cdc.c ****     {
 401              		.loc 1 363 0
 402 001e ADB2     		uxth	r5, r5
 403 0020 9542     		cmp	r5, r2
 366:Generated_Source\PSoC5/USBUART_cdc.c **** 
 404              		.loc 1 366 0
 405 0022 38BF     		it	cc
 406 0024 2289     		ldrhcc	r2, [r4, #8]
 373:Generated_Source\PSoC5/USBUART_cdc.c **** }
 407              		.loc 1 373 0
 408 0026 30BC     		pop	{r4, r5}
 409              		.cfi_restore 5
 410              		.cfi_restore 4
 411              		.cfi_def_cfa_offset 0
 366:Generated_Source\PSoC5/USBUART_cdc.c **** 
 412              		.loc 1 366 0
 413 0028 38BF     		it	cc
 414 002a 92B2     		uxthcc	r2, r2
 415              	.LVL38:
 372:Generated_Source\PSoC5/USBUART_cdc.c **** }
 416              		.loc 1 372 0
 417 002c FFF7FEBF 		b	USBUART_LoadInEP
 418              	.LVL39:
 419              	.L45:
 420              		.align	2
 421              	.L44:
 422 0030 00000000 		.word	.LANCHOR1
 423 0034 00000000 		.word	USBUART_cdcDataInEp
 424 0038 00000000 		.word	USBUART_EP
 425              		.cfi_endproc
ARM GAS  C:\Users\ingan\AppData\Local\Temp\cc00nNWn.s 			page 16


 426              	.LFE3:
 427              		.size	USBUART_PutData, .-USBUART_PutData
 428              		.section	.text.USBUART_PutString,"ax",%progbits
 429              		.align	2
 430              		.global	USBUART_PutString
 431              		.thumb
 432              		.thumb_func
 433              		.type	USBUART_PutString, %function
 434              	USBUART_PutString:
 435              	.LFB5:
 374:Generated_Source\PSoC5/USBUART_cdc.c **** 
 375:Generated_Source\PSoC5/USBUART_cdc.c **** 
 376:Generated_Source\PSoC5/USBUART_cdc.c **** /*******************************************************************************
 377:Generated_Source\PSoC5/USBUART_cdc.c **** * Function Name: USBUART_StrLen
 378:Generated_Source\PSoC5/USBUART_cdc.c **** ****************************************************************************//**
 379:Generated_Source\PSoC5/USBUART_cdc.c **** *
 380:Generated_Source\PSoC5/USBUART_cdc.c **** *  Calculates length of a null terminated string.
 381:Generated_Source\PSoC5/USBUART_cdc.c **** *
 382:Generated_Source\PSoC5/USBUART_cdc.c **** *  \param string: pointer to the string.
 383:Generated_Source\PSoC5/USBUART_cdc.c **** *
 384:Generated_Source\PSoC5/USBUART_cdc.c **** * \return
 385:Generated_Source\PSoC5/USBUART_cdc.c **** *  Length of the string
 386:Generated_Source\PSoC5/USBUART_cdc.c **** *
 387:Generated_Source\PSoC5/USBUART_cdc.c **** *******************************************************************************/
 388:Generated_Source\PSoC5/USBUART_cdc.c **** static uint16 USBUART_StrLen(const char8 string[]) 
 389:Generated_Source\PSoC5/USBUART_cdc.c **** {
 390:Generated_Source\PSoC5/USBUART_cdc.c ****     uint16 len = 0u;
 391:Generated_Source\PSoC5/USBUART_cdc.c **** 
 392:Generated_Source\PSoC5/USBUART_cdc.c ****     while (string[len] != (char8)0)
 393:Generated_Source\PSoC5/USBUART_cdc.c ****     {
 394:Generated_Source\PSoC5/USBUART_cdc.c ****         len++;
 395:Generated_Source\PSoC5/USBUART_cdc.c ****     }
 396:Generated_Source\PSoC5/USBUART_cdc.c **** 
 397:Generated_Source\PSoC5/USBUART_cdc.c ****     return ((uint16) len);
 398:Generated_Source\PSoC5/USBUART_cdc.c **** }
 399:Generated_Source\PSoC5/USBUART_cdc.c **** 
 400:Generated_Source\PSoC5/USBUART_cdc.c **** 
 401:Generated_Source\PSoC5/USBUART_cdc.c **** /***************************************************************************
 402:Generated_Source\PSoC5/USBUART_cdc.c **** * Function Name: USBUART_PutString
 403:Generated_Source\PSoC5/USBUART_cdc.c **** ************************************************************************//**
 404:Generated_Source\PSoC5/USBUART_cdc.c **** *
 405:Generated_Source\PSoC5/USBUART_cdc.c **** *  This function sends a null terminated string to the PC. This function will
 406:Generated_Source\PSoC5/USBUART_cdc.c **** *  block if there is not enough memory to place the whole string. It will block
 407:Generated_Source\PSoC5/USBUART_cdc.c **** *  until the entire string has been written to the transmit buffer.
 408:Generated_Source\PSoC5/USBUART_cdc.c **** *  The USBUART_CDCIsReady() function should be called before
 409:Generated_Source\PSoC5/USBUART_cdc.c **** *  sending data with a new call to USBUART_PutString(), to be sure
 410:Generated_Source\PSoC5/USBUART_cdc.c **** *  that the previous data has finished sending. This function sends
 411:Generated_Source\PSoC5/USBUART_cdc.c **** *  zero-length packet automatically, if the length of the last packet, sent
 412:Generated_Source\PSoC5/USBUART_cdc.c **** *  by this API, is equal to Max Packet Size
 413:Generated_Source\PSoC5/USBUART_cdc.c **** *
 414:Generated_Source\PSoC5/USBUART_cdc.c **** *  \param string: pointer to the string to be sent to the PC.
 415:Generated_Source\PSoC5/USBUART_cdc.c **** *
 416:Generated_Source\PSoC5/USBUART_cdc.c **** * \globalvars
 417:Generated_Source\PSoC5/USBUART_cdc.c **** *
 418:Generated_Source\PSoC5/USBUART_cdc.c **** *   USBUART_cdcDataInEp: CDC IN endpoint number used for sending
 419:Generated_Source\PSoC5/USBUART_cdc.c **** *     data.
 420:Generated_Source\PSoC5/USBUART_cdc.c **** *
ARM GAS  C:\Users\ingan\AppData\Local\Temp\cc00nNWn.s 			page 17


 421:Generated_Source\PSoC5/USBUART_cdc.c **** * \reentrant
 422:Generated_Source\PSoC5/USBUART_cdc.c **** *  No.
 423:Generated_Source\PSoC5/USBUART_cdc.c **** *
 424:Generated_Source\PSoC5/USBUART_cdc.c **** ***************************************************************************/
 425:Generated_Source\PSoC5/USBUART_cdc.c **** void USBUART_PutString(const char8 string[]) 
 426:Generated_Source\PSoC5/USBUART_cdc.c **** {
 436              		.loc 1 426 0
 437              		.cfi_startproc
 438              		@ args = 0, pretend = 0, frame = 0
 439              		@ frame_needed = 0, uses_anonymous_args = 0
 440              	.LVL40:
 441 0000 2DE9F843 		push	{r3, r4, r5, r6, r7, r8, r9, lr}
 442              		.cfi_def_cfa_offset 32
 443              		.cfi_offset 3, -32
 444              		.cfi_offset 4, -28
 445              		.cfi_offset 5, -24
 446              		.cfi_offset 6, -20
 447              		.cfi_offset 7, -16
 448              		.cfi_offset 8, -12
 449              		.cfi_offset 9, -8
 450              		.cfi_offset 14, -4
 427:Generated_Source\PSoC5/USBUART_cdc.c ****     uint16 strLength;
 428:Generated_Source\PSoC5/USBUART_cdc.c ****     uint16 sendLength;
 429:Generated_Source\PSoC5/USBUART_cdc.c ****     uint16 bufIndex = 0u;
 430:Generated_Source\PSoC5/USBUART_cdc.c **** 
 431:Generated_Source\PSoC5/USBUART_cdc.c ****     uint8  epNumber = USBUART_cdcDataInEp[USBUART_activeCom];
 451              		.loc 1 431 0
 452 0004 224B     		ldr	r3, .L63
 453 0006 234A     		ldr	r2, .L63+4
 454 0008 1B78     		ldrb	r3, [r3]	@ zero_extendqisi2
 455              	.LBB14:
 456              	.LBB15:
 392:Generated_Source\PSoC5/USBUART_cdc.c ****     {
 457              		.loc 1 392 0
 458 000a 0478     		ldrb	r4, [r0]	@ zero_extendqisi2
 459              	.LBE15:
 460              	.LBE14:
 461              		.loc 1 431 0
 462 000c D75C     		ldrb	r7, [r2, r3]	@ zero_extendqisi2
 426:Generated_Source\PSoC5/USBUART_cdc.c ****     uint16 strLength;
 463              		.loc 1 426 0
 464 000e 8046     		mov	r8, r0
 465              		.loc 1 431 0
 466 0010 FFB2     		uxtb	r7, r7
 467              	.LVL41:
 468              	.LBB18:
 469              	.LBB16:
 392:Generated_Source\PSoC5/USBUART_cdc.c ****     {
 470              		.loc 1 392 0
 471 0012 34B1     		cbz	r4, .L47
 472 0014 0024     		movs	r4, #0
 473              	.LVL42:
 474              	.L48:
 394:Generated_Source\PSoC5/USBUART_cdc.c ****     }
 475              		.loc 1 394 0
 476 0016 0134     		adds	r4, r4, #1
 477              	.LVL43:
ARM GAS  C:\Users\ingan\AppData\Local\Temp\cc00nNWn.s 			page 18


 478 0018 A4B2     		uxth	r4, r4
 479              	.LVL44:
 392:Generated_Source\PSoC5/USBUART_cdc.c ****     {
 480              		.loc 1 392 0
 481 001a 18F80430 		ldrb	r3, [r8, r4]	@ zero_extendqisi2
 482 001e 002B     		cmp	r3, #0
 483 0020 F9D1     		bne	.L48
 484              	.LVL45:
 485              	.L47:
 486 0022 1D4B     		ldr	r3, .L63+8
 487              	.LBE16:
 488              	.LBE18:
 432:Generated_Source\PSoC5/USBUART_cdc.c **** 
 433:Generated_Source\PSoC5/USBUART_cdc.c ****     /* Get length string length (it is terminated with zero). */
 434:Generated_Source\PSoC5/USBUART_cdc.c ****     strLength = USBUART_StrLen(string);
 435:Generated_Source\PSoC5/USBUART_cdc.c **** 
 436:Generated_Source\PSoC5/USBUART_cdc.c ****     do
 437:Generated_Source\PSoC5/USBUART_cdc.c ****     {
 438:Generated_Source\PSoC5/USBUART_cdc.c ****         /* Limit length to maximum packet size of endpoint. */
 439:Generated_Source\PSoC5/USBUART_cdc.c ****         sendLength = (strLength > USBUART_EP[epNumber].bufferSize) ?
 489              		.loc 1 439 0
 490 0024 07EB4705 		add	r5, r7, r7, lsl #1
 491 0028 03EB8505 		add	r5, r3, r5, lsl #2
 492              	.LBB19:
 493              	.LBB17:
 390:Generated_Source\PSoC5/USBUART_cdc.c **** 
 494              		.loc 1 390 0
 495 002c 4FF00009 		mov	r9, #0
 496              	.LVL46:
 497              	.L53:
 498              	.LBE17:
 499              	.LBE19:
 500              		.loc 1 439 0
 501 0030 2B89     		ldrh	r3, [r5, #8]
 502 0032 9BB2     		uxth	r3, r3
 503 0034 9C42     		cmp	r4, r3
 504 0036 19D9     		bls	.L49
 505              		.loc 1 439 0 is_stmt 0 discriminator 1
 506 0038 2B89     		ldrh	r3, [r5, #8]
 440:Generated_Source\PSoC5/USBUART_cdc.c ****                                   USBUART_EP[epNumber].bufferSize : strLength;
 441:Generated_Source\PSoC5/USBUART_cdc.c **** 
 442:Generated_Source\PSoC5/USBUART_cdc.c ****         /* Load IN endpoint and expose it to host. */
 443:Generated_Source\PSoC5/USBUART_cdc.c ****         USBUART_LoadInEP(epNumber, (const uint8 *)&string[bufIndex], sendLength);
 507              		.loc 1 443 0 is_stmt 1 discriminator 1
 508 003a 08EB0901 		add	r1, r8, r9
 439:Generated_Source\PSoC5/USBUART_cdc.c ****                                   USBUART_EP[epNumber].bufferSize : strLength;
 509              		.loc 1 439 0 discriminator 1
 510 003e 9EB2     		uxth	r6, r3
 511              	.LVL47:
 444:Generated_Source\PSoC5/USBUART_cdc.c ****         strLength -= sendLength;
 512              		.loc 1 444 0 discriminator 1
 513 0040 A41B     		subs	r4, r4, r6
 514              	.LVL48:
 443:Generated_Source\PSoC5/USBUART_cdc.c ****         strLength -= sendLength;
 515              		.loc 1 443 0 discriminator 1
 516 0042 3246     		mov	r2, r6
 517 0044 3846     		mov	r0, r7
ARM GAS  C:\Users\ingan\AppData\Local\Temp\cc00nNWn.s 			page 19


 518              		.loc 1 444 0 discriminator 1
 519 0046 A4B2     		uxth	r4, r4
 443:Generated_Source\PSoC5/USBUART_cdc.c ****         strLength -= sendLength;
 520              		.loc 1 443 0 discriminator 1
 521 0048 FFF7FEFF 		bl	USBUART_LoadInEP
 522              	.LVL49:
 445:Generated_Source\PSoC5/USBUART_cdc.c **** 
 446:Generated_Source\PSoC5/USBUART_cdc.c ****         /* If more data are present to send or full packet was sent */
 447:Generated_Source\PSoC5/USBUART_cdc.c ****         if ((strLength > 0u) || (sendLength == USBUART_EP[epNumber].bufferSize))
 523              		.loc 1 447 0 discriminator 1
 524 004c ECB1     		cbz	r4, .L61
 525              	.LVL50:
 526              	.L50:
 448:Generated_Source\PSoC5/USBUART_cdc.c ****         {
 449:Generated_Source\PSoC5/USBUART_cdc.c ****             bufIndex += sendLength;
 527              		.loc 1 449 0
 528 004e 4E44     		add	r6, r6, r9
 529 0050 1FFA86F9 		uxth	r9, r6
 530              	.LVL51:
 531              	.L52:
 450:Generated_Source\PSoC5/USBUART_cdc.c **** 
 451:Generated_Source\PSoC5/USBUART_cdc.c ****             /* Wait until host read data from IN endpoint buffer. */
 452:Generated_Source\PSoC5/USBUART_cdc.c ****             while (USBUART_IN_BUFFER_FULL == USBUART_EP[epNumber].apiEpState)
 532              		.loc 1 452 0 discriminator 1
 533 0054 6B78     		ldrb	r3, [r5, #1]	@ zero_extendqisi2
 534 0056 002B     		cmp	r3, #0
 535 0058 FCD0     		beq	.L52
 453:Generated_Source\PSoC5/USBUART_cdc.c ****             {
 454:Generated_Source\PSoC5/USBUART_cdc.c ****             }
 455:Generated_Source\PSoC5/USBUART_cdc.c **** 
 456:Generated_Source\PSoC5/USBUART_cdc.c ****             /* If last packet is exactly maximum packet size, it shall be followed
 457:Generated_Source\PSoC5/USBUART_cdc.c ****             * by a zero-length packet to assure the end of segment is properly
 458:Generated_Source\PSoC5/USBUART_cdc.c ****             * identified by the terminal.
 459:Generated_Source\PSoC5/USBUART_cdc.c ****             */
 460:Generated_Source\PSoC5/USBUART_cdc.c ****             if (0u == strLength)
 536              		.loc 1 460 0
 537 005a 002C     		cmp	r4, #0
 538 005c E8D1     		bne	.L53
 461:Generated_Source\PSoC5/USBUART_cdc.c ****             {
 462:Generated_Source\PSoC5/USBUART_cdc.c ****                 USBUART_LoadInEP(epNumber, NULL, 0u);
 539              		.loc 1 462 0
 540 005e 3846     		mov	r0, r7
 541 0060 2246     		mov	r2, r4
 542 0062 2146     		mov	r1, r4
 463:Generated_Source\PSoC5/USBUART_cdc.c ****             }
 464:Generated_Source\PSoC5/USBUART_cdc.c ****         }
 465:Generated_Source\PSoC5/USBUART_cdc.c ****     }
 466:Generated_Source\PSoC5/USBUART_cdc.c ****     while (strLength > 0u);
 467:Generated_Source\PSoC5/USBUART_cdc.c **** }
 543              		.loc 1 467 0
 544 0064 BDE8F843 		pop	{r3, r4, r5, r6, r7, r8, r9, lr}
 545              		.cfi_remember_state
 546              		.cfi_restore 14
 547              		.cfi_restore 9
 548              		.cfi_restore 8
 549              		.cfi_restore 7
 550              		.cfi_restore 6
ARM GAS  C:\Users\ingan\AppData\Local\Temp\cc00nNWn.s 			page 20


 551              		.cfi_restore 5
 552              		.cfi_restore 4
 553              		.cfi_restore 3
 554              		.cfi_def_cfa_offset 0
 555              	.LVL52:
 462:Generated_Source\PSoC5/USBUART_cdc.c ****             }
 556              		.loc 1 462 0
 557 0068 FFF7FEBF 		b	USBUART_LoadInEP
 558              	.LVL53:
 559              	.L49:
 560              		.cfi_restore_state
 443:Generated_Source\PSoC5/USBUART_cdc.c ****         strLength -= sendLength;
 561              		.loc 1 443 0
 562 006c 2246     		mov	r2, r4
 563 006e 08EB0901 		add	r1, r8, r9
 564 0072 3846     		mov	r0, r7
 565 0074 FFF7FEFF 		bl	USBUART_LoadInEP
 566              	.LVL54:
 567              	.L54:
 447:Generated_Source\PSoC5/USBUART_cdc.c ****         {
 568              		.loc 1 447 0 discriminator 1
 569 0078 2B89     		ldrh	r3, [r5, #8]
 570 007a 9BB2     		uxth	r3, r3
 571 007c A342     		cmp	r3, r4
 572 007e 01D0     		beq	.L62
 573 0080 BDE8F883 		pop	{r3, r4, r5, r6, r7, r8, r9, pc}
 574              	.LVL55:
 575              	.L62:
 576 0084 2646     		mov	r6, r4
 577 0086 0024     		movs	r4, #0
 578              	.LVL56:
 579 0088 E1E7     		b	.L50
 580              	.LVL57:
 581              	.L61:
 439:Generated_Source\PSoC5/USBUART_cdc.c ****                                   USBUART_EP[epNumber].bufferSize : strLength;
 582              		.loc 1 439 0
 583 008a 3446     		mov	r4, r6
 584              	.LVL58:
 585 008c F4E7     		b	.L54
 586              	.L64:
 587 008e 00BF     		.align	2
 588              	.L63:
 589 0090 00000000 		.word	.LANCHOR1
 590 0094 00000000 		.word	USBUART_cdcDataInEp
 591 0098 00000000 		.word	USBUART_EP
 592              		.cfi_endproc
 593              	.LFE5:
 594              		.size	USBUART_PutString, .-USBUART_PutString
 595              		.section	.text.USBUART_PutChar,"ax",%progbits
 596              		.align	2
 597              		.global	USBUART_PutChar
 598              		.thumb
 599              		.thumb_func
 600              		.type	USBUART_PutChar, %function
 601              	USBUART_PutChar:
 602              	.LFB6:
 468:Generated_Source\PSoC5/USBUART_cdc.c **** 
ARM GAS  C:\Users\ingan\AppData\Local\Temp\cc00nNWn.s 			page 21


 469:Generated_Source\PSoC5/USBUART_cdc.c **** 
 470:Generated_Source\PSoC5/USBUART_cdc.c **** /***************************************************************************
 471:Generated_Source\PSoC5/USBUART_cdc.c **** * Function Name: USBUART_PutChar
 472:Generated_Source\PSoC5/USBUART_cdc.c **** ************************************************************************//**
 473:Generated_Source\PSoC5/USBUART_cdc.c **** *
 474:Generated_Source\PSoC5/USBUART_cdc.c **** *  This function writes a single character to the PC at a time. This is an
 475:Generated_Source\PSoC5/USBUART_cdc.c **** *  inefficient way to send large amounts of data.
 476:Generated_Source\PSoC5/USBUART_cdc.c **** *
 477:Generated_Source\PSoC5/USBUART_cdc.c **** *  \param txDataByte: Character to be sent to the PC.
 478:Generated_Source\PSoC5/USBUART_cdc.c **** *
 479:Generated_Source\PSoC5/USBUART_cdc.c **** *  \globalvars
 480:Generated_Source\PSoC5/USBUART_cdc.c **** *
 481:Generated_Source\PSoC5/USBUART_cdc.c **** *   USBUART_cdcDataInEp: CDC IN endpoint number used for sending
 482:Generated_Source\PSoC5/USBUART_cdc.c **** *     data.
 483:Generated_Source\PSoC5/USBUART_cdc.c **** *
 484:Generated_Source\PSoC5/USBUART_cdc.c **** *  \reentrant
 485:Generated_Source\PSoC5/USBUART_cdc.c **** *  No.
 486:Generated_Source\PSoC5/USBUART_cdc.c **** *
 487:Generated_Source\PSoC5/USBUART_cdc.c **** ***************************************************************************/
 488:Generated_Source\PSoC5/USBUART_cdc.c **** void USBUART_PutChar(char8 txDataByte) 
 489:Generated_Source\PSoC5/USBUART_cdc.c **** {
 603              		.loc 1 489 0
 604              		.cfi_startproc
 605              		@ args = 0, pretend = 0, frame = 8
 606              		@ frame_needed = 0, uses_anonymous_args = 0
 607              	.LVL59:
 608 0000 00B5     		push	{lr}
 609              		.cfi_def_cfa_offset 4
 610              		.cfi_offset 14, -4
 490:Generated_Source\PSoC5/USBUART_cdc.c ****     uint8 dataByte;
 491:Generated_Source\PSoC5/USBUART_cdc.c ****     dataByte = (uint8) txDataByte;
 492:Generated_Source\PSoC5/USBUART_cdc.c **** 
 493:Generated_Source\PSoC5/USBUART_cdc.c ****     USBUART_LoadInEP(USBUART_cdcDataInEp[USBUART_activeCom], &dataByte, 1u);
 611              		.loc 1 493 0
 612 0002 074B     		ldr	r3, .L67
 489:Generated_Source\PSoC5/USBUART_cdc.c ****     uint8 dataByte;
 613              		.loc 1 489 0
 614 0004 83B0     		sub	sp, sp, #12
 615              		.cfi_def_cfa_offset 16
 616              		.loc 1 493 0
 617 0006 1B78     		ldrb	r3, [r3]	@ zero_extendqisi2
 618 0008 064A     		ldr	r2, .L67+4
 491:Generated_Source\PSoC5/USBUART_cdc.c **** 
 619              		.loc 1 491 0
 620 000a 02A9     		add	r1, sp, #8
 621 000c 01F8010D 		strb	r0, [r1, #-1]!
 622              		.loc 1 493 0
 623 0010 D05C     		ldrb	r0, [r2, r3]	@ zero_extendqisi2
 624              	.LVL60:
 625 0012 0122     		movs	r2, #1
 626 0014 FFF7FEFF 		bl	USBUART_LoadInEP
 627              	.LVL61:
 494:Generated_Source\PSoC5/USBUART_cdc.c **** }
 628              		.loc 1 494 0
 629 0018 03B0     		add	sp, sp, #12
 630              		.cfi_def_cfa_offset 4
 631              		@ sp needed
ARM GAS  C:\Users\ingan\AppData\Local\Temp\cc00nNWn.s 			page 22


 632 001a 5DF804FB 		ldr	pc, [sp], #4
 633              	.L68:
 634 001e 00BF     		.align	2
 635              	.L67:
 636 0020 00000000 		.word	.LANCHOR1
 637 0024 00000000 		.word	USBUART_cdcDataInEp
 638              		.cfi_endproc
 639              	.LFE6:
 640              		.size	USBUART_PutChar, .-USBUART_PutChar
 641              		.section	.text.USBUART_PutCRLF,"ax",%progbits
 642              		.align	2
 643              		.global	USBUART_PutCRLF
 644              		.thumb
 645              		.thumb_func
 646              		.type	USBUART_PutCRLF, %function
 647              	USBUART_PutCRLF:
 648              	.LFB7:
 495:Generated_Source\PSoC5/USBUART_cdc.c **** 
 496:Generated_Source\PSoC5/USBUART_cdc.c **** 
 497:Generated_Source\PSoC5/USBUART_cdc.c **** /*******************************************************************************
 498:Generated_Source\PSoC5/USBUART_cdc.c **** * Function Name: USBUART_PutCRLF
 499:Generated_Source\PSoC5/USBUART_cdc.c **** ****************************************************************************//**
 500:Generated_Source\PSoC5/USBUART_cdc.c **** *
 501:Generated_Source\PSoC5/USBUART_cdc.c **** *  This function sends a carriage return (0x0D) and line feed (0x0A) to the
 502:Generated_Source\PSoC5/USBUART_cdc.c **** *  PC. This APIis provided to mimic API provided by our other UART components
 503:Generated_Source\PSoC5/USBUART_cdc.c **** *
 504:Generated_Source\PSoC5/USBUART_cdc.c **** * \globalvars
 505:Generated_Source\PSoC5/USBUART_cdc.c **** *
 506:Generated_Source\PSoC5/USBUART_cdc.c **** *   USBUART_cdcDataInEp: CDC IN endpoint number used for sending
 507:Generated_Source\PSoC5/USBUART_cdc.c **** *     data.
 508:Generated_Source\PSoC5/USBUART_cdc.c **** *
 509:Generated_Source\PSoC5/USBUART_cdc.c **** * \reentrant
 510:Generated_Source\PSoC5/USBUART_cdc.c **** *  No.
 511:Generated_Source\PSoC5/USBUART_cdc.c **** *
 512:Generated_Source\PSoC5/USBUART_cdc.c **** *******************************************************************************/
 513:Generated_Source\PSoC5/USBUART_cdc.c **** void USBUART_PutCRLF(void) 
 514:Generated_Source\PSoC5/USBUART_cdc.c **** {
 649              		.loc 1 514 0
 650              		.cfi_startproc
 651              		@ args = 0, pretend = 0, frame = 8
 652              		@ frame_needed = 0, uses_anonymous_args = 0
 653 0000 00B5     		push	{lr}
 654              		.cfi_def_cfa_offset 4
 655              		.cfi_offset 14, -4
 515:Generated_Source\PSoC5/USBUART_cdc.c ****     const uint8 CYCODE txData[] = {0x0Du, 0x0Au};
 516:Generated_Source\PSoC5/USBUART_cdc.c **** 
 517:Generated_Source\PSoC5/USBUART_cdc.c ****     USBUART_LoadInEP(USBUART_cdcDataInEp[USBUART_activeCom], (const uint8 *)txData, 2u);
 656              		.loc 1 517 0
 657 0002 084B     		ldr	r3, .L71
 658 0004 0849     		ldr	r1, .L71+4
 659 0006 1A78     		ldrb	r2, [r3]	@ zero_extendqisi2
 515:Generated_Source\PSoC5/USBUART_cdc.c ****     const uint8 CYCODE txData[] = {0x0Du, 0x0Au};
 660              		.loc 1 515 0
 661 0008 084B     		ldr	r3, .L71+8
 514:Generated_Source\PSoC5/USBUART_cdc.c ****     const uint8 CYCODE txData[] = {0x0Du, 0x0Au};
 662              		.loc 1 514 0
 663 000a 83B0     		sub	sp, sp, #12
ARM GAS  C:\Users\ingan\AppData\Local\Temp\cc00nNWn.s 			page 23


 664              		.cfi_def_cfa_offset 16
 515:Generated_Source\PSoC5/USBUART_cdc.c ****     const uint8 CYCODE txData[] = {0x0Du, 0x0Au};
 665              		.loc 1 515 0
 666 000c 1B88     		ldrh	r3, [r3]	@ unaligned
 667              		.loc 1 517 0
 668 000e 885C     		ldrb	r0, [r1, r2]	@ zero_extendqisi2
 669 0010 0222     		movs	r2, #2
 670 0012 01A9     		add	r1, sp, #4
 515:Generated_Source\PSoC5/USBUART_cdc.c ****     const uint8 CYCODE txData[] = {0x0Du, 0x0Au};
 671              		.loc 1 515 0
 672 0014 ADF80430 		strh	r3, [sp, #4]	@ unaligned
 673              		.loc 1 517 0
 674 0018 FFF7FEFF 		bl	USBUART_LoadInEP
 675              	.LVL62:
 518:Generated_Source\PSoC5/USBUART_cdc.c **** }
 676              		.loc 1 518 0
 677 001c 03B0     		add	sp, sp, #12
 678              		.cfi_def_cfa_offset 4
 679              		@ sp needed
 680 001e 5DF804FB 		ldr	pc, [sp], #4
 681              	.L72:
 682 0022 00BF     		.align	2
 683              	.L71:
 684 0024 00000000 		.word	.LANCHOR1
 685 0028 00000000 		.word	USBUART_cdcDataInEp
 686 002c 00000000 		.word	.LANCHOR2
 687              		.cfi_endproc
 688              	.LFE7:
 689              		.size	USBUART_PutCRLF, .-USBUART_PutCRLF
 690              		.section	.text.USBUART_GetCount,"ax",%progbits
 691              		.align	2
 692              		.global	USBUART_GetCount
 693              		.thumb
 694              		.thumb_func
 695              		.type	USBUART_GetCount, %function
 696              	USBUART_GetCount:
 697              	.LFB8:
 519:Generated_Source\PSoC5/USBUART_cdc.c **** 
 520:Generated_Source\PSoC5/USBUART_cdc.c **** 
 521:Generated_Source\PSoC5/USBUART_cdc.c **** /*******************************************************************************
 522:Generated_Source\PSoC5/USBUART_cdc.c **** * Function Name: USBUART_GetCount
 523:Generated_Source\PSoC5/USBUART_cdc.c **** ****************************************************************************//**
 524:Generated_Source\PSoC5/USBUART_cdc.c **** *
 525:Generated_Source\PSoC5/USBUART_cdc.c **** *  This function returns the number of bytes that were received from the PC.
 526:Generated_Source\PSoC5/USBUART_cdc.c **** *  The returned length value should be passed to USBUART_GetData() as
 527:Generated_Source\PSoC5/USBUART_cdc.c **** *  a parameter to read all received data. If all of the received data is not
 528:Generated_Source\PSoC5/USBUART_cdc.c **** *  read at one time by the USBUART_GetData() API, the unread data will
 529:Generated_Source\PSoC5/USBUART_cdc.c **** *  be lost.
 530:Generated_Source\PSoC5/USBUART_cdc.c **** *
 531:Generated_Source\PSoC5/USBUART_cdc.c **** * \return
 532:Generated_Source\PSoC5/USBUART_cdc.c **** *  Returns the number of received bytes. The maximum amount of received data at
 533:Generated_Source\PSoC5/USBUART_cdc.c **** *  a time is limited by the maximum packet size for the endpoint.
 534:Generated_Source\PSoC5/USBUART_cdc.c **** *
 535:Generated_Source\PSoC5/USBUART_cdc.c **** * \globalvars
 536:Generated_Source\PSoC5/USBUART_cdc.c **** *   USBUART_cdcDataOutEp: CDC OUT endpoint number used.
 537:Generated_Source\PSoC5/USBUART_cdc.c **** *
 538:Generated_Source\PSoC5/USBUART_cdc.c **** *******************************************************************************/
ARM GAS  C:\Users\ingan\AppData\Local\Temp\cc00nNWn.s 			page 24


 539:Generated_Source\PSoC5/USBUART_cdc.c **** uint16 USBUART_GetCount(void) 
 540:Generated_Source\PSoC5/USBUART_cdc.c **** {
 698              		.loc 1 540 0
 699              		.cfi_startproc
 700              		@ args = 0, pretend = 0, frame = 0
 701              		@ frame_needed = 0, uses_anonymous_args = 0
 702              		@ link register save eliminated.
 541:Generated_Source\PSoC5/USBUART_cdc.c ****     uint16 bytesCount;
 542:Generated_Source\PSoC5/USBUART_cdc.c **** 
 543:Generated_Source\PSoC5/USBUART_cdc.c ****     uint8  epNumber = USBUART_cdcDataOutEp[USBUART_activeCom];
 703              		.loc 1 543 0
 704 0000 084B     		ldr	r3, .L76
 705 0002 0949     		ldr	r1, .L76+4
 706 0004 1A78     		ldrb	r2, [r3]	@ zero_extendqisi2
 544:Generated_Source\PSoC5/USBUART_cdc.c **** 
 545:Generated_Source\PSoC5/USBUART_cdc.c ****     if (USBUART_OUT_BUFFER_FULL == USBUART_EP[epNumber].apiEpState)
 707              		.loc 1 545 0
 708 0006 094B     		ldr	r3, .L76+8
 543:Generated_Source\PSoC5/USBUART_cdc.c **** 
 709              		.loc 1 543 0
 710 0008 885C     		ldrb	r0, [r1, r2]	@ zero_extendqisi2
 711 000a C0B2     		uxtb	r0, r0
 712              	.LVL63:
 713              		.loc 1 545 0
 714 000c 00EB4002 		add	r2, r0, r0, lsl #1
 715 0010 03EB8203 		add	r3, r3, r2, lsl #2
 716 0014 5B78     		ldrb	r3, [r3, #1]	@ zero_extendqisi2
 717 0016 012B     		cmp	r3, #1
 718 0018 01D0     		beq	.L75
 719              	.LVL64:
 546:Generated_Source\PSoC5/USBUART_cdc.c ****     {
 547:Generated_Source\PSoC5/USBUART_cdc.c ****         bytesCount = USBUART_GetEPCount(epNumber);
 548:Generated_Source\PSoC5/USBUART_cdc.c ****     }
 549:Generated_Source\PSoC5/USBUART_cdc.c ****     else
 550:Generated_Source\PSoC5/USBUART_cdc.c ****     {
 551:Generated_Source\PSoC5/USBUART_cdc.c ****         bytesCount = 0u;
 552:Generated_Source\PSoC5/USBUART_cdc.c ****     }
 553:Generated_Source\PSoC5/USBUART_cdc.c **** 
 554:Generated_Source\PSoC5/USBUART_cdc.c ****     return (bytesCount);
 555:Generated_Source\PSoC5/USBUART_cdc.c **** }
 720              		.loc 1 555 0
 721 001a 0020     		movs	r0, #0
 722              	.LVL65:
 723 001c 7047     		bx	lr
 724              	.LVL66:
 725              	.L75:
 547:Generated_Source\PSoC5/USBUART_cdc.c ****     }
 726              		.loc 1 547 0
 727 001e FFF7FEBF 		b	USBUART_GetEPCount
 728              	.LVL67:
 729              	.L77:
 730 0022 00BF     		.align	2
 731              	.L76:
 732 0024 00000000 		.word	.LANCHOR1
 733 0028 00000000 		.word	USBUART_cdcDataOutEp
 734 002c 00000000 		.word	USBUART_EP
 735              		.cfi_endproc
ARM GAS  C:\Users\ingan\AppData\Local\Temp\cc00nNWn.s 			page 25


 736              	.LFE8:
 737              		.size	USBUART_GetCount, .-USBUART_GetCount
 738              		.section	.text.USBUART_DataIsReady,"ax",%progbits
 739              		.align	2
 740              		.global	USBUART_DataIsReady
 741              		.thumb
 742              		.thumb_func
 743              		.type	USBUART_DataIsReady, %function
 744              	USBUART_DataIsReady:
 745              	.LFB9:
 556:Generated_Source\PSoC5/USBUART_cdc.c **** 
 557:Generated_Source\PSoC5/USBUART_cdc.c **** 
 558:Generated_Source\PSoC5/USBUART_cdc.c **** /*******************************************************************************
 559:Generated_Source\PSoC5/USBUART_cdc.c **** * Function Name: USBUART_DataIsReady
 560:Generated_Source\PSoC5/USBUART_cdc.c **** ****************************************************************************//**
 561:Generated_Source\PSoC5/USBUART_cdc.c **** *
 562:Generated_Source\PSoC5/USBUART_cdc.c **** *  This function returns a non-zero value if the component received data or
 563:Generated_Source\PSoC5/USBUART_cdc.c **** *  received zero-length packet. The USBUART_GetAll() or
 564:Generated_Source\PSoC5/USBUART_cdc.c **** *  USBUART_GetData() API should be called to read data from the buffer
 565:Generated_Source\PSoC5/USBUART_cdc.c **** *  and reinitialize the OUT endpoint even when a zero-length packet is
 566:Generated_Source\PSoC5/USBUART_cdc.c **** *  received. These APIs will return zero value when zero-length packet is
 567:Generated_Source\PSoC5/USBUART_cdc.c **** *  received.
 568:Generated_Source\PSoC5/USBUART_cdc.c **** *
 569:Generated_Source\PSoC5/USBUART_cdc.c **** * \return
 570:Generated_Source\PSoC5/USBUART_cdc.c **** *  If the OUT packet is received, this function returns a non-zero value.
 571:Generated_Source\PSoC5/USBUART_cdc.c **** *  Otherwise, it returns zero.
 572:Generated_Source\PSoC5/USBUART_cdc.c **** *
 573:Generated_Source\PSoC5/USBUART_cdc.c **** * \globalvars
 574:Generated_Source\PSoC5/USBUART_cdc.c **** *   USBUART_cdcDataOutEp: CDC OUT endpoint number used.
 575:Generated_Source\PSoC5/USBUART_cdc.c **** *
 576:Generated_Source\PSoC5/USBUART_cdc.c **** *******************************************************************************/
 577:Generated_Source\PSoC5/USBUART_cdc.c **** uint8 USBUART_DataIsReady(void) 
 578:Generated_Source\PSoC5/USBUART_cdc.c **** {
 746              		.loc 1 578 0
 747              		.cfi_startproc
 748              		@ args = 0, pretend = 0, frame = 0
 749              		@ frame_needed = 0, uses_anonymous_args = 0
 750              		@ link register save eliminated.
 579:Generated_Source\PSoC5/USBUART_cdc.c ****     return (USBUART_GetEPState(USBUART_cdcDataOutEp[USBUART_activeCom]));
 751              		.loc 1 579 0
 752 0000 024B     		ldr	r3, .L79
 753 0002 034A     		ldr	r2, .L79+4
 754 0004 1B78     		ldrb	r3, [r3]	@ zero_extendqisi2
 755 0006 D05C     		ldrb	r0, [r2, r3]	@ zero_extendqisi2
 756 0008 FFF7FEBF 		b	USBUART_GetEPState
 757              	.LVL68:
 758              	.L80:
 759              		.align	2
 760              	.L79:
 761 000c 00000000 		.word	.LANCHOR1
 762 0010 00000000 		.word	USBUART_cdcDataOutEp
 763              		.cfi_endproc
 764              	.LFE9:
 765              		.size	USBUART_DataIsReady, .-USBUART_DataIsReady
 766              		.section	.text.USBUART_CDCIsReady,"ax",%progbits
 767              		.align	2
 768              		.global	USBUART_CDCIsReady
ARM GAS  C:\Users\ingan\AppData\Local\Temp\cc00nNWn.s 			page 26


 769              		.thumb
 770              		.thumb_func
 771              		.type	USBUART_CDCIsReady, %function
 772              	USBUART_CDCIsReady:
 773              	.LFB10:
 580:Generated_Source\PSoC5/USBUART_cdc.c **** }
 581:Generated_Source\PSoC5/USBUART_cdc.c **** 
 582:Generated_Source\PSoC5/USBUART_cdc.c **** 
 583:Generated_Source\PSoC5/USBUART_cdc.c **** /*******************************************************************************
 584:Generated_Source\PSoC5/USBUART_cdc.c **** * Function Name: USBUART_CDCIsReady
 585:Generated_Source\PSoC5/USBUART_cdc.c **** ****************************************************************************//**
 586:Generated_Source\PSoC5/USBUART_cdc.c **** *
 587:Generated_Source\PSoC5/USBUART_cdc.c **** *  This function returns a non-zero value if the component is ready to send more
 588:Generated_Source\PSoC5/USBUART_cdc.c **** *  data to the PC; otherwise, it returns zero. The function should be called
 589:Generated_Source\PSoC5/USBUART_cdc.c **** *  before sending new data when using any of the following APIs:
 590:Generated_Source\PSoC5/USBUART_cdc.c **** *  USBUART_PutData(),USBUART_PutString(),
 591:Generated_Source\PSoC5/USBUART_cdc.c **** *  USBUART_PutChar or USBUART_PutCRLF(),
 592:Generated_Source\PSoC5/USBUART_cdc.c **** *  to be sure that the previous data has finished sending.
 593:Generated_Source\PSoC5/USBUART_cdc.c **** *
 594:Generated_Source\PSoC5/USBUART_cdc.c **** * \return
 595:Generated_Source\PSoC5/USBUART_cdc.c **** *  If the buffer can accept new data, this function returns a non-zero value.
 596:Generated_Source\PSoC5/USBUART_cdc.c **** *  Otherwise, it returns zero.
 597:Generated_Source\PSoC5/USBUART_cdc.c **** *
 598:Generated_Source\PSoC5/USBUART_cdc.c **** * \globalvars
 599:Generated_Source\PSoC5/USBUART_cdc.c **** *   USBUART_cdcDataInEp: CDC IN endpoint number used.
 600:Generated_Source\PSoC5/USBUART_cdc.c **** *
 601:Generated_Source\PSoC5/USBUART_cdc.c **** *******************************************************************************/
 602:Generated_Source\PSoC5/USBUART_cdc.c **** uint8 USBUART_CDCIsReady(void) 
 603:Generated_Source\PSoC5/USBUART_cdc.c **** {
 774              		.loc 1 603 0
 775              		.cfi_startproc
 776              		@ args = 0, pretend = 0, frame = 0
 777              		@ frame_needed = 0, uses_anonymous_args = 0
 778              		@ link register save eliminated.
 604:Generated_Source\PSoC5/USBUART_cdc.c ****     return (USBUART_GetEPState(USBUART_cdcDataInEp[USBUART_activeCom]));
 779              		.loc 1 604 0
 780 0000 024B     		ldr	r3, .L82
 781 0002 034A     		ldr	r2, .L82+4
 782 0004 1B78     		ldrb	r3, [r3]	@ zero_extendqisi2
 783 0006 D05C     		ldrb	r0, [r2, r3]	@ zero_extendqisi2
 784 0008 FFF7FEBF 		b	USBUART_GetEPState
 785              	.LVL69:
 786              	.L83:
 787              		.align	2
 788              	.L82:
 789 000c 00000000 		.word	.LANCHOR1
 790 0010 00000000 		.word	USBUART_cdcDataInEp
 791              		.cfi_endproc
 792              	.LFE10:
 793              		.size	USBUART_CDCIsReady, .-USBUART_CDCIsReady
 794              		.section	.text.USBUART_GetData,"ax",%progbits
 795              		.align	2
 796              		.global	USBUART_GetData
 797              		.thumb
 798              		.thumb_func
 799              		.type	USBUART_GetData, %function
 800              	USBUART_GetData:
ARM GAS  C:\Users\ingan\AppData\Local\Temp\cc00nNWn.s 			page 27


 801              	.LFB11:
 605:Generated_Source\PSoC5/USBUART_cdc.c **** }
 606:Generated_Source\PSoC5/USBUART_cdc.c **** 
 607:Generated_Source\PSoC5/USBUART_cdc.c **** 
 608:Generated_Source\PSoC5/USBUART_cdc.c **** /***************************************************************************
 609:Generated_Source\PSoC5/USBUART_cdc.c **** * Function Name: USBUART_GetData
 610:Generated_Source\PSoC5/USBUART_cdc.c **** ************************************************************************//**
 611:Generated_Source\PSoC5/USBUART_cdc.c **** *
 612:Generated_Source\PSoC5/USBUART_cdc.c **** *  This function gets a specified number of bytes from the input buffer and
 613:Generated_Source\PSoC5/USBUART_cdc.c **** *  places them in a data array specified by the passed pointer.
 614:Generated_Source\PSoC5/USBUART_cdc.c **** *  The USBUART_DataIsReady() API should be called first, to be sure
 615:Generated_Source\PSoC5/USBUART_cdc.c **** *  that data is received from the host. If all received data will not be read at
 616:Generated_Source\PSoC5/USBUART_cdc.c **** *  once, the unread data will be lost. The USBUART_GetData() API should
 617:Generated_Source\PSoC5/USBUART_cdc.c **** *  be called to get the number of bytes that were received.
 618:Generated_Source\PSoC5/USBUART_cdc.c **** *
 619:Generated_Source\PSoC5/USBUART_cdc.c **** *  \param pData: Pointer to the data array where data will be placed.
 620:Generated_Source\PSoC5/USBUART_cdc.c **** *  \param Length: Number of bytes to read into the data array from the RX buffer.
 621:Generated_Source\PSoC5/USBUART_cdc.c **** *          Maximum length is limited by the the number of received bytes
 622:Generated_Source\PSoC5/USBUART_cdc.c **** *          or 64 bytes.
 623:Generated_Source\PSoC5/USBUART_cdc.c **** *
 624:Generated_Source\PSoC5/USBUART_cdc.c **** * \return
 625:Generated_Source\PSoC5/USBUART_cdc.c **** *         Number of bytes which function moves from endpoint RAM into the
 626:Generated_Source\PSoC5/USBUART_cdc.c **** *         data array. The function moves fewer than the requested number
 627:Generated_Source\PSoC5/USBUART_cdc.c **** *         of bytes if the host sends fewer bytes than requested or sends
 628:Generated_Source\PSoC5/USBUART_cdc.c **** *         zero-length packet.
 629:Generated_Source\PSoC5/USBUART_cdc.c **** *
 630:Generated_Source\PSoC5/USBUART_cdc.c **** * \globalvars
 631:Generated_Source\PSoC5/USBUART_cdc.c **** *   USBUART_cdcDataOutEp: CDC OUT endpoint number used.
 632:Generated_Source\PSoC5/USBUART_cdc.c **** *
 633:Generated_Source\PSoC5/USBUART_cdc.c **** * \reentrant
 634:Generated_Source\PSoC5/USBUART_cdc.c **** *  No.
 635:Generated_Source\PSoC5/USBUART_cdc.c **** *
 636:Generated_Source\PSoC5/USBUART_cdc.c **** ***************************************************************************/
 637:Generated_Source\PSoC5/USBUART_cdc.c **** uint16 USBUART_GetData(uint8* pData, uint16 length) 
 638:Generated_Source\PSoC5/USBUART_cdc.c **** {
 802              		.loc 1 638 0
 803              		.cfi_startproc
 804              		@ args = 0, pretend = 0, frame = 0
 805              		@ frame_needed = 0, uses_anonymous_args = 0
 806              	.LVL70:
 807 0000 38B5     		push	{r3, r4, r5, lr}
 808              		.cfi_def_cfa_offset 16
 809              		.cfi_offset 3, -16
 810              		.cfi_offset 4, -12
 811              		.cfi_offset 5, -8
 812              		.cfi_offset 14, -4
 639:Generated_Source\PSoC5/USBUART_cdc.c ****     uint8 epNumber = USBUART_cdcDataOutEp[USBUART_activeCom];
 813              		.loc 1 639 0
 814 0002 0A4B     		ldr	r3, .L89
 815 0004 0A4C     		ldr	r4, .L89+4
 816 0006 1B78     		ldrb	r3, [r3]	@ zero_extendqisi2
 640:Generated_Source\PSoC5/USBUART_cdc.c **** 
 641:Generated_Source\PSoC5/USBUART_cdc.c ****     /* Read data from OUT endpoint buffer. */
 642:Generated_Source\PSoC5/USBUART_cdc.c ****     length = USBUART_ReadOutEP(epNumber, pData, length);
 817              		.loc 1 642 0
 818 0008 0A46     		mov	r2, r1
 639:Generated_Source\PSoC5/USBUART_cdc.c ****     uint8 epNumber = USBUART_cdcDataOutEp[USBUART_activeCom];
ARM GAS  C:\Users\ingan\AppData\Local\Temp\cc00nNWn.s 			page 28


 819              		.loc 1 639 0
 820 000a E45C     		ldrb	r4, [r4, r3]	@ zero_extendqisi2
 821              		.loc 1 642 0
 822 000c 0146     		mov	r1, r0
 823              	.LVL71:
 639:Generated_Source\PSoC5/USBUART_cdc.c ****     uint8 epNumber = USBUART_cdcDataOutEp[USBUART_activeCom];
 824              		.loc 1 639 0
 825 000e E4B2     		uxtb	r4, r4
 826              	.LVL72:
 827              		.loc 1 642 0
 828 0010 2046     		mov	r0, r4
 829              	.LVL73:
 830 0012 FFF7FEFF 		bl	USBUART_ReadOutEP
 831              	.LVL74:
 832 0016 0546     		mov	r5, r0
 833              	.LVL75:
 834              	.L85:
 643:Generated_Source\PSoC5/USBUART_cdc.c **** 
 644:Generated_Source\PSoC5/USBUART_cdc.c **** #if (USBUART_EP_MANAGEMENT_DMA_MANUAL)
 645:Generated_Source\PSoC5/USBUART_cdc.c ****     /* Wait until DMA complete transferring data from OUT endpoint buffer. */
 646:Generated_Source\PSoC5/USBUART_cdc.c ****     while (USBUART_OUT_BUFFER_FULL == USBUART_GetEPState(epNumber))
 835              		.loc 1 646 0 discriminator 1
 836 0018 2046     		mov	r0, r4
 837 001a FFF7FEFF 		bl	USBUART_GetEPState
 838              	.LVL76:
 839 001e 0128     		cmp	r0, #1
 840 0020 FAD0     		beq	.L85
 647:Generated_Source\PSoC5/USBUART_cdc.c ****     {
 648:Generated_Source\PSoC5/USBUART_cdc.c ****     }
 649:Generated_Source\PSoC5/USBUART_cdc.c **** 
 650:Generated_Source\PSoC5/USBUART_cdc.c ****     /* Enable OUT endpoint to communicate with host. */
 651:Generated_Source\PSoC5/USBUART_cdc.c ****     USBUART_EnableOutEP(epNumber);
 841              		.loc 1 651 0
 842 0022 2046     		mov	r0, r4
 843 0024 FFF7FEFF 		bl	USBUART_EnableOutEP
 844              	.LVL77:
 652:Generated_Source\PSoC5/USBUART_cdc.c **** #endif /* (USBUART_EP_MANAGEMENT_DMA_MANUAL) */
 653:Generated_Source\PSoC5/USBUART_cdc.c **** 
 654:Generated_Source\PSoC5/USBUART_cdc.c ****     return (length);
 655:Generated_Source\PSoC5/USBUART_cdc.c **** }
 845              		.loc 1 655 0
 846 0028 2846     		mov	r0, r5
 847 002a 38BD     		pop	{r3, r4, r5, pc}
 848              	.LVL78:
 849              	.L90:
 850              		.align	2
 851              	.L89:
 852 002c 00000000 		.word	.LANCHOR1
 853 0030 00000000 		.word	USBUART_cdcDataOutEp
 854              		.cfi_endproc
 855              	.LFE11:
 856              		.size	USBUART_GetData, .-USBUART_GetData
 857              		.section	.text.USBUART_GetAll,"ax",%progbits
 858              		.align	2
 859              		.global	USBUART_GetAll
 860              		.thumb
 861              		.thumb_func
ARM GAS  C:\Users\ingan\AppData\Local\Temp\cc00nNWn.s 			page 29


 862              		.type	USBUART_GetAll, %function
 863              	USBUART_GetAll:
 864              	.LFB12:
 656:Generated_Source\PSoC5/USBUART_cdc.c **** 
 657:Generated_Source\PSoC5/USBUART_cdc.c **** 
 658:Generated_Source\PSoC5/USBUART_cdc.c **** /*******************************************************************************
 659:Generated_Source\PSoC5/USBUART_cdc.c **** * Function Name: USBUART_GetAll
 660:Generated_Source\PSoC5/USBUART_cdc.c **** ****************************************************************************//**
 661:Generated_Source\PSoC5/USBUART_cdc.c **** *
 662:Generated_Source\PSoC5/USBUART_cdc.c **** *  This function gets all bytes of received data from the input buffer and
 663:Generated_Source\PSoC5/USBUART_cdc.c **** *  places them into a specified data array. The
 664:Generated_Source\PSoC5/USBUART_cdc.c **** *  USBUART_DataIsReady() API should be called first, to be sure
 665:Generated_Source\PSoC5/USBUART_cdc.c **** *  that data is received from the host.
 666:Generated_Source\PSoC5/USBUART_cdc.c **** *
 667:Generated_Source\PSoC5/USBUART_cdc.c **** *  \param pData: Pointer to the data array where data will be placed.
 668:Generated_Source\PSoC5/USBUART_cdc.c **** *
 669:Generated_Source\PSoC5/USBUART_cdc.c **** * \return
 670:Generated_Source\PSoC5/USBUART_cdc.c **** *  Number of bytes received. The maximum amount of the received at a time
 671:Generated_Source\PSoC5/USBUART_cdc.c **** *  data is 64 bytes.
 672:Generated_Source\PSoC5/USBUART_cdc.c **** *
 673:Generated_Source\PSoC5/USBUART_cdc.c **** * \globalvars
 674:Generated_Source\PSoC5/USBUART_cdc.c **** *   - \ref USBUART_cdcDataOutEp: CDC OUT endpoint number used.
 675:Generated_Source\PSoC5/USBUART_cdc.c **** *   - \ref USBUART_EP[].bufferSize: EP max packet size is used as a
 676:Generated_Source\PSoC5/USBUART_cdc.c **** *     length to read all data from the EP buffer.
 677:Generated_Source\PSoC5/USBUART_cdc.c **** *
 678:Generated_Source\PSoC5/USBUART_cdc.c **** * \reentrant
 679:Generated_Source\PSoC5/USBUART_cdc.c **** *  No.
 680:Generated_Source\PSoC5/USBUART_cdc.c **** *
 681:Generated_Source\PSoC5/USBUART_cdc.c **** *******************************************************************************/
 682:Generated_Source\PSoC5/USBUART_cdc.c **** uint16 USBUART_GetAll(uint8* pData) 
 683:Generated_Source\PSoC5/USBUART_cdc.c **** {
 865              		.loc 1 683 0
 866              		.cfi_startproc
 867              		@ args = 0, pretend = 0, frame = 0
 868              		@ frame_needed = 0, uses_anonymous_args = 0
 869              	.LVL79:
 870 0000 38B5     		push	{r3, r4, r5, lr}
 871              		.cfi_def_cfa_offset 16
 872              		.cfi_offset 3, -16
 873              		.cfi_offset 4, -12
 874              		.cfi_offset 5, -8
 875              		.cfi_offset 14, -4
 684:Generated_Source\PSoC5/USBUART_cdc.c ****     uint8 epNumber = USBUART_cdcDataOutEp[USBUART_activeCom];
 876              		.loc 1 684 0
 877 0002 0D4B     		ldr	r3, .L96
 878 0004 0D49     		ldr	r1, .L96+4
 879 0006 1A78     		ldrb	r2, [r3]	@ zero_extendqisi2
 685:Generated_Source\PSoC5/USBUART_cdc.c ****     uint16 dataLength;
 686:Generated_Source\PSoC5/USBUART_cdc.c **** 
 687:Generated_Source\PSoC5/USBUART_cdc.c ****     /* Read data from OUT endpoint buffer. */
 688:Generated_Source\PSoC5/USBUART_cdc.c ****     dataLength = USBUART_ReadOutEP(epNumber, pData, USBUART_EP[epNumber].bufferSize);
 880              		.loc 1 688 0
 881 0008 0D4B     		ldr	r3, .L96+8
 684:Generated_Source\PSoC5/USBUART_cdc.c ****     uint8 epNumber = USBUART_cdcDataOutEp[USBUART_activeCom];
 882              		.loc 1 684 0
 883 000a 8C5C     		ldrb	r4, [r1, r2]	@ zero_extendqisi2
 884              		.loc 1 688 0
ARM GAS  C:\Users\ingan\AppData\Local\Temp\cc00nNWn.s 			page 30


 885 000c 0146     		mov	r1, r0
 684:Generated_Source\PSoC5/USBUART_cdc.c ****     uint8 epNumber = USBUART_cdcDataOutEp[USBUART_activeCom];
 886              		.loc 1 684 0
 887 000e E4B2     		uxtb	r4, r4
 888              	.LVL80:
 889              		.loc 1 688 0
 890 0010 04EB4402 		add	r2, r4, r4, lsl #1
 891 0014 03EB8203 		add	r3, r3, r2, lsl #2
 892 0018 1A89     		ldrh	r2, [r3, #8]
 893 001a 2046     		mov	r0, r4
 894              	.LVL81:
 895 001c 92B2     		uxth	r2, r2
 896 001e FFF7FEFF 		bl	USBUART_ReadOutEP
 897              	.LVL82:
 898 0022 0546     		mov	r5, r0
 899              	.LVL83:
 900              	.L92:
 689:Generated_Source\PSoC5/USBUART_cdc.c **** 
 690:Generated_Source\PSoC5/USBUART_cdc.c **** #if (USBUART_EP_MANAGEMENT_DMA_MANUAL)
 691:Generated_Source\PSoC5/USBUART_cdc.c ****     /* Wait until DMA complete transferring data from OUT endpoint buffer. */
 692:Generated_Source\PSoC5/USBUART_cdc.c ****     while (USBUART_OUT_BUFFER_FULL == USBUART_GetEPState(epNumber))
 901              		.loc 1 692 0 discriminator 1
 902 0024 2046     		mov	r0, r4
 903 0026 FFF7FEFF 		bl	USBUART_GetEPState
 904              	.LVL84:
 905 002a 0128     		cmp	r0, #1
 906 002c FAD0     		beq	.L92
 693:Generated_Source\PSoC5/USBUART_cdc.c ****     {
 694:Generated_Source\PSoC5/USBUART_cdc.c ****     }
 695:Generated_Source\PSoC5/USBUART_cdc.c **** 
 696:Generated_Source\PSoC5/USBUART_cdc.c ****     /* Enable OUT endpoint to communicate with host. */
 697:Generated_Source\PSoC5/USBUART_cdc.c ****     USBUART_EnableOutEP(epNumber);
 907              		.loc 1 697 0
 908 002e 2046     		mov	r0, r4
 909 0030 FFF7FEFF 		bl	USBUART_EnableOutEP
 910              	.LVL85:
 698:Generated_Source\PSoC5/USBUART_cdc.c **** #endif /* (USBUART_EP_MANAGEMENT_DMA_MANUAL) */
 699:Generated_Source\PSoC5/USBUART_cdc.c **** 
 700:Generated_Source\PSoC5/USBUART_cdc.c ****     return (dataLength);
 701:Generated_Source\PSoC5/USBUART_cdc.c **** }
 911              		.loc 1 701 0
 912 0034 2846     		mov	r0, r5
 913 0036 38BD     		pop	{r3, r4, r5, pc}
 914              	.LVL86:
 915              	.L97:
 916              		.align	2
 917              	.L96:
 918 0038 00000000 		.word	.LANCHOR1
 919 003c 00000000 		.word	USBUART_cdcDataOutEp
 920 0040 00000000 		.word	USBUART_EP
 921              		.cfi_endproc
 922              	.LFE12:
 923              		.size	USBUART_GetAll, .-USBUART_GetAll
 924              		.section	.text.USBUART_GetChar,"ax",%progbits
 925              		.align	2
 926              		.global	USBUART_GetChar
 927              		.thumb
ARM GAS  C:\Users\ingan\AppData\Local\Temp\cc00nNWn.s 			page 31


 928              		.thumb_func
 929              		.type	USBUART_GetChar, %function
 930              	USBUART_GetChar:
 931              	.LFB13:
 702:Generated_Source\PSoC5/USBUART_cdc.c **** 
 703:Generated_Source\PSoC5/USBUART_cdc.c **** 
 704:Generated_Source\PSoC5/USBUART_cdc.c **** /***************************************************************************
 705:Generated_Source\PSoC5/USBUART_cdc.c **** * Function Name: USBUART_GetChar
 706:Generated_Source\PSoC5/USBUART_cdc.c **** ************************************************************************//**
 707:Generated_Source\PSoC5/USBUART_cdc.c **** *
 708:Generated_Source\PSoC5/USBUART_cdc.c **** *  This function reads one byte of received data from the buffer. If more than
 709:Generated_Source\PSoC5/USBUART_cdc.c **** *  one byte has been received from the host, the rest of the data will be lost.
 710:Generated_Source\PSoC5/USBUART_cdc.c **** *
 711:Generated_Source\PSoC5/USBUART_cdc.c **** * \return
 712:Generated_Source\PSoC5/USBUART_cdc.c **** *  Received one character.
 713:Generated_Source\PSoC5/USBUART_cdc.c **** *
 714:Generated_Source\PSoC5/USBUART_cdc.c **** * \globalvars
 715:Generated_Source\PSoC5/USBUART_cdc.c **** *   USBUART_cdcDataOutEp: CDC OUT endpoint number used.
 716:Generated_Source\PSoC5/USBUART_cdc.c **** *
 717:Generated_Source\PSoC5/USBUART_cdc.c **** * \reentrant
 718:Generated_Source\PSoC5/USBUART_cdc.c **** *  No.
 719:Generated_Source\PSoC5/USBUART_cdc.c **** *
 720:Generated_Source\PSoC5/USBUART_cdc.c **** ***************************************************************************/
 721:Generated_Source\PSoC5/USBUART_cdc.c **** uint8 USBUART_GetChar(void) 
 722:Generated_Source\PSoC5/USBUART_cdc.c **** {
 932              		.loc 1 722 0
 933              		.cfi_startproc
 934              		@ args = 0, pretend = 0, frame = 8
 935              		@ frame_needed = 0, uses_anonymous_args = 0
 936 0000 10B5     		push	{r4, lr}
 937              		.cfi_def_cfa_offset 8
 938              		.cfi_offset 4, -8
 939              		.cfi_offset 14, -4
 723:Generated_Source\PSoC5/USBUART_cdc.c ****      uint8 rxData;
 724:Generated_Source\PSoC5/USBUART_cdc.c ****      uint8 epNumber = USBUART_cdcDataOutEp[USBUART_activeCom];
 940              		.loc 1 724 0
 941 0002 0C4B     		ldr	r3, .L103
 942 0004 0C49     		ldr	r1, .L103+4
 943 0006 1B78     		ldrb	r3, [r3]	@ zero_extendqisi2
 722:Generated_Source\PSoC5/USBUART_cdc.c ****      uint8 rxData;
 944              		.loc 1 722 0
 945 0008 82B0     		sub	sp, sp, #8
 946              		.cfi_def_cfa_offset 16
 947              		.loc 1 724 0
 948 000a CC5C     		ldrb	r4, [r1, r3]	@ zero_extendqisi2
 725:Generated_Source\PSoC5/USBUART_cdc.c **** 
 726:Generated_Source\PSoC5/USBUART_cdc.c ****     (void) USBUART_ReadOutEP(epNumber, &rxData, 1u);
 949              		.loc 1 726 0
 950 000c 0122     		movs	r2, #1
 724:Generated_Source\PSoC5/USBUART_cdc.c **** 
 951              		.loc 1 724 0
 952 000e E4B2     		uxtb	r4, r4
 953              	.LVL87:
 954              		.loc 1 726 0
 955 0010 0DF10701 		add	r1, sp, #7
 956 0014 2046     		mov	r0, r4
 957 0016 FFF7FEFF 		bl	USBUART_ReadOutEP
ARM GAS  C:\Users\ingan\AppData\Local\Temp\cc00nNWn.s 			page 32


 958              	.LVL88:
 959              	.L99:
 727:Generated_Source\PSoC5/USBUART_cdc.c **** 
 728:Generated_Source\PSoC5/USBUART_cdc.c **** #if (USBUART_EP_MANAGEMENT_DMA_MANUAL)
 729:Generated_Source\PSoC5/USBUART_cdc.c ****     /* Wait until DMA complete transferring data from OUT endpoint buffer. */
 730:Generated_Source\PSoC5/USBUART_cdc.c ****     while (USBUART_OUT_BUFFER_FULL == USBUART_GetEPState(epNumber))
 960              		.loc 1 730 0 discriminator 1
 961 001a 2046     		mov	r0, r4
 962 001c FFF7FEFF 		bl	USBUART_GetEPState
 963              	.LVL89:
 964 0020 0128     		cmp	r0, #1
 965 0022 FAD0     		beq	.L99
 731:Generated_Source\PSoC5/USBUART_cdc.c ****     {
 732:Generated_Source\PSoC5/USBUART_cdc.c ****     }
 733:Generated_Source\PSoC5/USBUART_cdc.c **** 
 734:Generated_Source\PSoC5/USBUART_cdc.c ****     /* Enable OUT endpoint to communicate with host. */
 735:Generated_Source\PSoC5/USBUART_cdc.c ****     USBUART_EnableOutEP(epNumber);
 966              		.loc 1 735 0
 967 0024 2046     		mov	r0, r4
 968 0026 FFF7FEFF 		bl	USBUART_EnableOutEP
 969              	.LVL90:
 736:Generated_Source\PSoC5/USBUART_cdc.c **** #endif /* (USBUART_EP_MANAGEMENT_DMA_MANUAL) */
 737:Generated_Source\PSoC5/USBUART_cdc.c **** 
 738:Generated_Source\PSoC5/USBUART_cdc.c ****     return (rxData);
 739:Generated_Source\PSoC5/USBUART_cdc.c **** }
 970              		.loc 1 739 0
 971 002a 9DF80700 		ldrb	r0, [sp, #7]	@ zero_extendqisi2
 972 002e 02B0     		add	sp, sp, #8
 973              		.cfi_def_cfa_offset 8
 974              		@ sp needed
 975 0030 10BD     		pop	{r4, pc}
 976              	.LVL91:
 977              	.L104:
 978 0032 00BF     		.align	2
 979              	.L103:
 980 0034 00000000 		.word	.LANCHOR1
 981 0038 00000000 		.word	USBUART_cdcDataOutEp
 982              		.cfi_endproc
 983              	.LFE13:
 984              		.size	USBUART_GetChar, .-USBUART_GetChar
 985              		.section	.text.USBUART_IsLineChanged,"ax",%progbits
 986              		.align	2
 987              		.global	USBUART_IsLineChanged
 988              		.thumb
 989              		.thumb_func
 990              		.type	USBUART_IsLineChanged, %function
 991              	USBUART_IsLineChanged:
 992              	.LFB14:
 740:Generated_Source\PSoC5/USBUART_cdc.c **** 
 741:Generated_Source\PSoC5/USBUART_cdc.c **** 
 742:Generated_Source\PSoC5/USBUART_cdc.c **** /*******************************************************************************
 743:Generated_Source\PSoC5/USBUART_cdc.c **** * Function Name: USBUART_IsLineChanged
 744:Generated_Source\PSoC5/USBUART_cdc.c **** ****************************************************************************//**
 745:Generated_Source\PSoC5/USBUART_cdc.c **** *
 746:Generated_Source\PSoC5/USBUART_cdc.c **** *  This function returns clear on read status of the line. It returns not zero
 747:Generated_Source\PSoC5/USBUART_cdc.c **** *  value when the host sends updated coding or control information to the
 748:Generated_Source\PSoC5/USBUART_cdc.c **** *  device. The USBUART_GetDTERate(), USBUART_GetCharFormat()
ARM GAS  C:\Users\ingan\AppData\Local\Temp\cc00nNWn.s 			page 33


 749:Generated_Source\PSoC5/USBUART_cdc.c **** *  or USBUART_GetParityType() or USBUART_GetDataBits() API
 750:Generated_Source\PSoC5/USBUART_cdc.c **** *  should be called to read data coding information.
 751:Generated_Source\PSoC5/USBUART_cdc.c **** *  The USBUART_GetLineControl() API should be called to read line
 752:Generated_Source\PSoC5/USBUART_cdc.c **** *  control information.
 753:Generated_Source\PSoC5/USBUART_cdc.c **** *
 754:Generated_Source\PSoC5/USBUART_cdc.c **** * \return
 755:Generated_Source\PSoC5/USBUART_cdc.c **** *  If SET_LINE_CODING or CDC_SET_CONTROL_LINE_STATE requests are received, it
 756:Generated_Source\PSoC5/USBUART_cdc.c **** *  returns a non-zero value. Otherwise, it returns zero.
 757:Generated_Source\PSoC5/USBUART_cdc.c **** *  Return Value                 | Description
 758:Generated_Source\PSoC5/USBUART_cdc.c **** *  -----------------------------|--------------------------
 759:Generated_Source\PSoC5/USBUART_cdc.c **** *  USBUART_LINE_CODING_CHANGED  | Line coding changed
 760:Generated_Source\PSoC5/USBUART_cdc.c **** *  USBUART_LINE_CONTROL_CHANGED |   Line control changed
 761:Generated_Source\PSoC5/USBUART_cdc.c **** *
 762:Generated_Source\PSoC5/USBUART_cdc.c **** * \globalvars
 763:Generated_Source\PSoC5/USBUART_cdc.c **** *  - \ref USBUART_transferState: it is checked to be sure then OUT
 764:Generated_Source\PSoC5/USBUART_cdc.c **** *    data phase has been complete, and data written to the lineCoding or
 765:Generated_Source\PSoC5/USBUART_cdc.c **** *    Control Bitmap buffer.
 766:Generated_Source\PSoC5/USBUART_cdc.c **** *  - \ref USBUART_linesChanged: used as a flag to be aware that
 767:Generated_Source\PSoC5/USBUART_cdc.c **** *    Host has been sent request for changing Line Coding or Control Bitmap.
 768:Generated_Source\PSoC5/USBUART_cdc.c **** *
 769:Generated_Source\PSoC5/USBUART_cdc.c **** *******************************************************************************/
 770:Generated_Source\PSoC5/USBUART_cdc.c **** uint8 USBUART_IsLineChanged(void) 
 771:Generated_Source\PSoC5/USBUART_cdc.c **** {
 993              		.loc 1 771 0
 994              		.cfi_startproc
 995              		@ args = 0, pretend = 0, frame = 0
 996              		@ frame_needed = 0, uses_anonymous_args = 0
 997              		@ link register save eliminated.
 998              	.LVL92:
 772:Generated_Source\PSoC5/USBUART_cdc.c ****     uint8 state = 0u;
 773:Generated_Source\PSoC5/USBUART_cdc.c **** 
 774:Generated_Source\PSoC5/USBUART_cdc.c ****     /* transferState is checked to be sure then OUT data phase has been complete */
 775:Generated_Source\PSoC5/USBUART_cdc.c ****     if (USBUART_transferState == USBUART_TRANS_STATE_IDLE)
 999              		.loc 1 775 0
 1000 0000 094B     		ldr	r3, .L111
 1001 0002 1B78     		ldrb	r3, [r3]	@ zero_extendqisi2
 1002 0004 73B9     		cbnz	r3, .L107
 771:Generated_Source\PSoC5/USBUART_cdc.c ****     uint8 state = 0u;
 1003              		.loc 1 771 0
 1004 0006 10B4     		push	{r4}
 1005              		.cfi_def_cfa_offset 4
 1006              		.cfi_offset 4, -4
 1007 0008 03F0FF04 		and	r4, r3, #255
 776:Generated_Source\PSoC5/USBUART_cdc.c ****     {
 777:Generated_Source\PSoC5/USBUART_cdc.c ****         if (USBUART_linesChanged[USBUART_activeCom] != 0u)
 1008              		.loc 1 777 0
 1009 000c 074B     		ldr	r3, .L111+4
 1010 000e 084A     		ldr	r2, .L111+8
 1011 0010 1B78     		ldrb	r3, [r3]	@ zero_extendqisi2
 1012 0012 D15C     		ldrb	r1, [r2, r3]	@ zero_extendqisi2
 1013 0014 01F0FF00 		and	r0, r1, #255
 1014 0018 11B1     		cbz	r1, .L106
 778:Generated_Source\PSoC5/USBUART_cdc.c ****         {
 779:Generated_Source\PSoC5/USBUART_cdc.c ****             state = USBUART_linesChanged[USBUART_activeCom];
 1015              		.loc 1 779 0
 1016 001a D05C     		ldrb	r0, [r2, r3]	@ zero_extendqisi2
 780:Generated_Source\PSoC5/USBUART_cdc.c ****             USBUART_linesChanged[USBUART_activeCom] = 0u;
ARM GAS  C:\Users\ingan\AppData\Local\Temp\cc00nNWn.s 			page 34


 1017              		.loc 1 780 0
 1018 001c D454     		strb	r4, [r2, r3]
 779:Generated_Source\PSoC5/USBUART_cdc.c ****             USBUART_linesChanged[USBUART_activeCom] = 0u;
 1019              		.loc 1 779 0
 1020 001e C0B2     		uxtb	r0, r0
 1021              	.LVL93:
 1022              	.L106:
 781:Generated_Source\PSoC5/USBUART_cdc.c ****         }
 782:Generated_Source\PSoC5/USBUART_cdc.c ****     }
 783:Generated_Source\PSoC5/USBUART_cdc.c **** 
 784:Generated_Source\PSoC5/USBUART_cdc.c ****     return (state);
 785:Generated_Source\PSoC5/USBUART_cdc.c **** }
 1023              		.loc 1 785 0
 1024 0020 10BC     		pop	{r4}
 1025              		.cfi_restore 4
 1026              		.cfi_def_cfa_offset 0
 1027 0022 7047     		bx	lr
 1028              	.LVL94:
 1029              	.L107:
 772:Generated_Source\PSoC5/USBUART_cdc.c **** 
 1030              		.loc 1 772 0
 1031 0024 0020     		movs	r0, #0
 1032 0026 7047     		bx	lr
 1033              	.L112:
 1034              		.align	2
 1035              	.L111:
 1036 0028 00000000 		.word	USBUART_transferState
 1037 002c 00000000 		.word	.LANCHOR1
 1038 0030 00000000 		.word	USBUART_linesChanged
 1039              		.cfi_endproc
 1040              	.LFE14:
 1041              		.size	USBUART_IsLineChanged, .-USBUART_IsLineChanged
 1042              		.section	.text.USBUART_GetDTERate,"ax",%progbits
 1043              		.align	2
 1044              		.global	USBUART_GetDTERate
 1045              		.thumb
 1046              		.thumb_func
 1047              		.type	USBUART_GetDTERate, %function
 1048              	USBUART_GetDTERate:
 1049              	.LFB15:
 786:Generated_Source\PSoC5/USBUART_cdc.c **** 
 787:Generated_Source\PSoC5/USBUART_cdc.c **** 
 788:Generated_Source\PSoC5/USBUART_cdc.c **** /***************************************************************************
 789:Generated_Source\PSoC5/USBUART_cdc.c **** * Function Name: USBUART_GetDTERate
 790:Generated_Source\PSoC5/USBUART_cdc.c **** ************************************************************************//**
 791:Generated_Source\PSoC5/USBUART_cdc.c **** *
 792:Generated_Source\PSoC5/USBUART_cdc.c **** *  This function returns the data terminal rate set for this port in bits
 793:Generated_Source\PSoC5/USBUART_cdc.c **** *  per second.
 794:Generated_Source\PSoC5/USBUART_cdc.c **** *
 795:Generated_Source\PSoC5/USBUART_cdc.c **** * \return
 796:Generated_Source\PSoC5/USBUART_cdc.c **** *  Returns a uint32 value of the data rate in bits per second.
 797:Generated_Source\PSoC5/USBUART_cdc.c **** *
 798:Generated_Source\PSoC5/USBUART_cdc.c **** * \globalvars
 799:Generated_Source\PSoC5/USBUART_cdc.c **** *  USBUART_linesCoding: First four bytes converted to uint32
 800:Generated_Source\PSoC5/USBUART_cdc.c **** *    depend on compiler, and returned as a data rate.
 801:Generated_Source\PSoC5/USBUART_cdc.c **** *
 802:Generated_Source\PSoC5/USBUART_cdc.c **** *******************************************************************************/
ARM GAS  C:\Users\ingan\AppData\Local\Temp\cc00nNWn.s 			page 35


 803:Generated_Source\PSoC5/USBUART_cdc.c **** uint32 USBUART_GetDTERate(void) 
 804:Generated_Source\PSoC5/USBUART_cdc.c **** {
 1050              		.loc 1 804 0
 1051              		.cfi_startproc
 1052              		@ args = 0, pretend = 0, frame = 0
 1053              		@ frame_needed = 0, uses_anonymous_args = 0
 1054              		@ link register save eliminated.
 1055 0000 10B4     		push	{r4}
 1056              		.cfi_def_cfa_offset 4
 1057              		.cfi_offset 4, -4
 805:Generated_Source\PSoC5/USBUART_cdc.c ****     uint32 rate;
 806:Generated_Source\PSoC5/USBUART_cdc.c **** 
 807:Generated_Source\PSoC5/USBUART_cdc.c ****     rate = USBUART_linesCoding[USBUART_activeCom][USBUART_LINE_CODING_RATE + 3u];
 1058              		.loc 1 807 0
 1059 0002 094B     		ldr	r3, .L115
 1060 0004 094C     		ldr	r4, .L115+4
 1061 0006 1B78     		ldrb	r3, [r3]	@ zero_extendqisi2
 1062 0008 C3EBC303 		rsb	r3, r3, r3, lsl #3
 1063 000c E218     		adds	r2, r4, r3
 1064 000e D078     		ldrb	r0, [r2, #3]	@ zero_extendqisi2
 1065              	.LVL95:
 808:Generated_Source\PSoC5/USBUART_cdc.c ****     rate = (rate << 8u) | USBUART_linesCoding[USBUART_activeCom][USBUART_LINE_CODING_RATE + 2u];
 1066              		.loc 1 808 0
 1067 0010 9178     		ldrb	r1, [r2, #2]	@ zero_extendqisi2
 1068              	.LVL96:
 809:Generated_Source\PSoC5/USBUART_cdc.c ****     rate = (rate << 8u) | USBUART_linesCoding[USBUART_activeCom][USBUART_LINE_CODING_RATE + 1u];
 1069              		.loc 1 809 0
 1070 0012 5278     		ldrb	r2, [r2, #1]	@ zero_extendqisi2
 1071 0014 41EA0021 		orr	r1, r1, r0, lsl #8
 1072              	.LVL97:
 810:Generated_Source\PSoC5/USBUART_cdc.c ****     rate = (rate << 8u) | USBUART_linesCoding[USBUART_activeCom][USBUART_LINE_CODING_RATE];
 1073              		.loc 1 810 0
 1074 0018 E05C     		ldrb	r0, [r4, r3]	@ zero_extendqisi2
 1075 001a 42EA0123 		orr	r3, r2, r1, lsl #8
 1076              	.LVL98:
 811:Generated_Source\PSoC5/USBUART_cdc.c **** 
 812:Generated_Source\PSoC5/USBUART_cdc.c ****     return (rate);
 813:Generated_Source\PSoC5/USBUART_cdc.c **** }
 1077              		.loc 1 813 0
 1078 001e 40EA0320 		orr	r0, r0, r3, lsl #8
 1079              	.LVL99:
 1080 0022 10BC     		pop	{r4}
 1081              		.cfi_restore 4
 1082              		.cfi_def_cfa_offset 0
 1083 0024 7047     		bx	lr
 1084              	.L116:
 1085 0026 00BF     		.align	2
 1086              	.L115:
 1087 0028 00000000 		.word	.LANCHOR1
 1088 002c 00000000 		.word	.LANCHOR0
 1089              		.cfi_endproc
 1090              	.LFE15:
 1091              		.size	USBUART_GetDTERate, .-USBUART_GetDTERate
 1092              		.section	.text.USBUART_GetCharFormat,"ax",%progbits
 1093              		.align	2
 1094              		.global	USBUART_GetCharFormat
 1095              		.thumb
ARM GAS  C:\Users\ingan\AppData\Local\Temp\cc00nNWn.s 			page 36


 1096              		.thumb_func
 1097              		.type	USBUART_GetCharFormat, %function
 1098              	USBUART_GetCharFormat:
 1099              	.LFB16:
 814:Generated_Source\PSoC5/USBUART_cdc.c **** 
 815:Generated_Source\PSoC5/USBUART_cdc.c **** 
 816:Generated_Source\PSoC5/USBUART_cdc.c **** /*******************************************************************************
 817:Generated_Source\PSoC5/USBUART_cdc.c **** * Function Name: USBUART_GetCharFormat
 818:Generated_Source\PSoC5/USBUART_cdc.c **** ****************************************************************************//**
 819:Generated_Source\PSoC5/USBUART_cdc.c **** *
 820:Generated_Source\PSoC5/USBUART_cdc.c **** *  Returns the number of stop bits.
 821:Generated_Source\PSoC5/USBUART_cdc.c **** *
 822:Generated_Source\PSoC5/USBUART_cdc.c **** * \return
 823:Generated_Source\PSoC5/USBUART_cdc.c **** *  Returns the number of stop bits.
 824:Generated_Source\PSoC5/USBUART_cdc.c **** *  Return               |Value Description
 825:Generated_Source\PSoC5/USBUART_cdc.c **** *  ---------------------|-------------------
 826:Generated_Source\PSoC5/USBUART_cdc.c **** *  USBUART_1_STOPBIT    | 1 stop bit
 827:Generated_Source\PSoC5/USBUART_cdc.c **** *  USBUART_1_5_STOPBITS | 1,5 stop bits
 828:Generated_Source\PSoC5/USBUART_cdc.c **** *  USBUART_2_STOPBITS   | 2 stop bits
 829:Generated_Source\PSoC5/USBUART_cdc.c **** *
 830:Generated_Source\PSoC5/USBUART_cdc.c **** *
 831:Generated_Source\PSoC5/USBUART_cdc.c **** * \globalvars
 832:Generated_Source\PSoC5/USBUART_cdc.c **** *  USBUART_linesCoding: used to get a parameter.
 833:Generated_Source\PSoC5/USBUART_cdc.c **** *
 834:Generated_Source\PSoC5/USBUART_cdc.c **** *******************************************************************************/
 835:Generated_Source\PSoC5/USBUART_cdc.c **** uint8 USBUART_GetCharFormat(void) 
 836:Generated_Source\PSoC5/USBUART_cdc.c **** {
 1100              		.loc 1 836 0
 1101              		.cfi_startproc
 1102              		@ args = 0, pretend = 0, frame = 0
 1103              		@ frame_needed = 0, uses_anonymous_args = 0
 1104              		@ link register save eliminated.
 837:Generated_Source\PSoC5/USBUART_cdc.c ****     return (USBUART_linesCoding[USBUART_activeCom][USBUART_LINE_CODING_STOP_BITS]);
 1105              		.loc 1 837 0
 1106 0000 034B     		ldr	r3, .L118
 1107 0002 044A     		ldr	r2, .L118+4
 1108 0004 1B78     		ldrb	r3, [r3]	@ zero_extendqisi2
 1109 0006 C3EBC303 		rsb	r3, r3, r3, lsl #3
 1110 000a 1344     		add	r3, r3, r2
 1111 000c 1879     		ldrb	r0, [r3, #4]	@ zero_extendqisi2
 838:Generated_Source\PSoC5/USBUART_cdc.c **** }
 1112              		.loc 1 838 0
 1113 000e 7047     		bx	lr
 1114              	.L119:
 1115              		.align	2
 1116              	.L118:
 1117 0010 00000000 		.word	.LANCHOR1
 1118 0014 00000000 		.word	.LANCHOR0
 1119              		.cfi_endproc
 1120              	.LFE16:
 1121              		.size	USBUART_GetCharFormat, .-USBUART_GetCharFormat
 1122              		.section	.text.USBUART_GetParityType,"ax",%progbits
 1123              		.align	2
 1124              		.global	USBUART_GetParityType
 1125              		.thumb
 1126              		.thumb_func
 1127              		.type	USBUART_GetParityType, %function
ARM GAS  C:\Users\ingan\AppData\Local\Temp\cc00nNWn.s 			page 37


 1128              	USBUART_GetParityType:
 1129              	.LFB17:
 839:Generated_Source\PSoC5/USBUART_cdc.c **** 
 840:Generated_Source\PSoC5/USBUART_cdc.c **** 
 841:Generated_Source\PSoC5/USBUART_cdc.c **** /*******************************************************************************
 842:Generated_Source\PSoC5/USBUART_cdc.c **** * Function Name: USBUART_GetParityType
 843:Generated_Source\PSoC5/USBUART_cdc.c **** ****************************************************************************//**
 844:Generated_Source\PSoC5/USBUART_cdc.c **** *
 845:Generated_Source\PSoC5/USBUART_cdc.c **** *  This function returns the parity type for the CDC port.
 846:Generated_Source\PSoC5/USBUART_cdc.c **** *
 847:Generated_Source\PSoC5/USBUART_cdc.c **** * \return
 848:Generated_Source\PSoC5/USBUART_cdc.c **** *  Returns the parity type.
 849:Generated_Source\PSoC5/USBUART_cdc.c **** *   Return               | Value Description
 850:Generated_Source\PSoC5/USBUART_cdc.c **** *  ----------------------|-------------------
 851:Generated_Source\PSoC5/USBUART_cdc.c **** *  USBUART_PARITY_NONE   | 1 stop bit
 852:Generated_Source\PSoC5/USBUART_cdc.c **** *  USBUART_PARITY_ODD    | 1,5 stop bits
 853:Generated_Source\PSoC5/USBUART_cdc.c **** *  USBUART_PARITY_EVEN   | 2 stop bits
 854:Generated_Source\PSoC5/USBUART_cdc.c **** *  USBUART_PARITY_MARK   | Mark
 855:Generated_Source\PSoC5/USBUART_cdc.c **** *  USBUART_PARITY_SPACE  | Space
 856:Generated_Source\PSoC5/USBUART_cdc.c **** *
 857:Generated_Source\PSoC5/USBUART_cdc.c **** * \globalvars
 858:Generated_Source\PSoC5/USBUART_cdc.c **** *  USBUART_linesCoding: used to get a parameter.
 859:Generated_Source\PSoC5/USBUART_cdc.c **** *
 860:Generated_Source\PSoC5/USBUART_cdc.c **** *******************************************************************************/
 861:Generated_Source\PSoC5/USBUART_cdc.c **** uint8 USBUART_GetParityType(void) 
 862:Generated_Source\PSoC5/USBUART_cdc.c **** {
 1130              		.loc 1 862 0
 1131              		.cfi_startproc
 1132              		@ args = 0, pretend = 0, frame = 0
 1133              		@ frame_needed = 0, uses_anonymous_args = 0
 1134              		@ link register save eliminated.
 863:Generated_Source\PSoC5/USBUART_cdc.c ****     return (USBUART_linesCoding[USBUART_activeCom][USBUART_LINE_CODING_PARITY]);
 1135              		.loc 1 863 0
 1136 0000 034B     		ldr	r3, .L121
 1137 0002 044A     		ldr	r2, .L121+4
 1138 0004 1B78     		ldrb	r3, [r3]	@ zero_extendqisi2
 1139 0006 C3EBC303 		rsb	r3, r3, r3, lsl #3
 1140 000a 1344     		add	r3, r3, r2
 1141 000c 5879     		ldrb	r0, [r3, #5]	@ zero_extendqisi2
 864:Generated_Source\PSoC5/USBUART_cdc.c **** }
 1142              		.loc 1 864 0
 1143 000e 7047     		bx	lr
 1144              	.L122:
 1145              		.align	2
 1146              	.L121:
 1147 0010 00000000 		.word	.LANCHOR1
 1148 0014 00000000 		.word	.LANCHOR0
 1149              		.cfi_endproc
 1150              	.LFE17:
 1151              		.size	USBUART_GetParityType, .-USBUART_GetParityType
 1152              		.section	.text.USBUART_GetDataBits,"ax",%progbits
 1153              		.align	2
 1154              		.global	USBUART_GetDataBits
 1155              		.thumb
 1156              		.thumb_func
 1157              		.type	USBUART_GetDataBits, %function
 1158              	USBUART_GetDataBits:
ARM GAS  C:\Users\ingan\AppData\Local\Temp\cc00nNWn.s 			page 38


 1159              	.LFB18:
 865:Generated_Source\PSoC5/USBUART_cdc.c **** 
 866:Generated_Source\PSoC5/USBUART_cdc.c **** 
 867:Generated_Source\PSoC5/USBUART_cdc.c **** /***************************************************************************
 868:Generated_Source\PSoC5/USBUART_cdc.c **** * Function Name: USBUART_GetDataBits
 869:Generated_Source\PSoC5/USBUART_cdc.c **** ************************************************************************//**
 870:Generated_Source\PSoC5/USBUART_cdc.c **** *
 871:Generated_Source\PSoC5/USBUART_cdc.c **** *  This function returns the number of data bits for the CDC port.
 872:Generated_Source\PSoC5/USBUART_cdc.c **** *
 873:Generated_Source\PSoC5/USBUART_cdc.c **** * \return
 874:Generated_Source\PSoC5/USBUART_cdc.c **** *  Returns the number of data bits.
 875:Generated_Source\PSoC5/USBUART_cdc.c **** *  The number of data bits can be 5, 6, 7, 8 or 16.
 876:Generated_Source\PSoC5/USBUART_cdc.c **** *
 877:Generated_Source\PSoC5/USBUART_cdc.c **** * \globalvars
 878:Generated_Source\PSoC5/USBUART_cdc.c **** *  USBUART_linesCoding: used to get a parameter.
 879:Generated_Source\PSoC5/USBUART_cdc.c **** *
 880:Generated_Source\PSoC5/USBUART_cdc.c **** *******************************************************************************/
 881:Generated_Source\PSoC5/USBUART_cdc.c **** uint8 USBUART_GetDataBits(void) 
 882:Generated_Source\PSoC5/USBUART_cdc.c **** {
 1160              		.loc 1 882 0
 1161              		.cfi_startproc
 1162              		@ args = 0, pretend = 0, frame = 0
 1163              		@ frame_needed = 0, uses_anonymous_args = 0
 1164              		@ link register save eliminated.
 883:Generated_Source\PSoC5/USBUART_cdc.c ****     return (USBUART_linesCoding[USBUART_activeCom][USBUART_LINE_CODING_DATA_BITS]);
 1165              		.loc 1 883 0
 1166 0000 034B     		ldr	r3, .L124
 1167 0002 044A     		ldr	r2, .L124+4
 1168 0004 1B78     		ldrb	r3, [r3]	@ zero_extendqisi2
 1169 0006 C3EBC303 		rsb	r3, r3, r3, lsl #3
 1170 000a 1344     		add	r3, r3, r2
 1171 000c 9879     		ldrb	r0, [r3, #6]	@ zero_extendqisi2
 884:Generated_Source\PSoC5/USBUART_cdc.c **** }
 1172              		.loc 1 884 0
 1173 000e 7047     		bx	lr
 1174              	.L125:
 1175              		.align	2
 1176              	.L124:
 1177 0010 00000000 		.word	.LANCHOR1
 1178 0014 00000000 		.word	.LANCHOR0
 1179              		.cfi_endproc
 1180              	.LFE18:
 1181              		.size	USBUART_GetDataBits, .-USBUART_GetDataBits
 1182              		.section	.text.USBUART_GetLineControl,"ax",%progbits
 1183              		.align	2
 1184              		.global	USBUART_GetLineControl
 1185              		.thumb
 1186              		.thumb_func
 1187              		.type	USBUART_GetLineControl, %function
 1188              	USBUART_GetLineControl:
 1189              	.LFB19:
 885:Generated_Source\PSoC5/USBUART_cdc.c **** 
 886:Generated_Source\PSoC5/USBUART_cdc.c **** 
 887:Generated_Source\PSoC5/USBUART_cdc.c **** /***************************************************************************
 888:Generated_Source\PSoC5/USBUART_cdc.c **** * Function Name: USBUART_GetLineControl
 889:Generated_Source\PSoC5/USBUART_cdc.c **** ************************************************************************//**
 890:Generated_Source\PSoC5/USBUART_cdc.c **** *
ARM GAS  C:\Users\ingan\AppData\Local\Temp\cc00nNWn.s 			page 39


 891:Generated_Source\PSoC5/USBUART_cdc.c **** *  This function returns Line control bitmap that the host sends to the
 892:Generated_Source\PSoC5/USBUART_cdc.c **** *  device.
 893:Generated_Source\PSoC5/USBUART_cdc.c **** *
 894:Generated_Source\PSoC5/USBUART_cdc.c **** * \return
 895:Generated_Source\PSoC5/USBUART_cdc.c **** *  Returns Line control bitmap.
 896:Generated_Source\PSoC5/USBUART_cdc.c **** *  Return                   |Value Notes
 897:Generated_Source\PSoC5/USBUART_cdc.c **** *  -------------------------|-----------------------------------------------
 898:Generated_Source\PSoC5/USBUART_cdc.c **** *  USBUART_LINE_CONTROL_DTR |Indicates that a DTR signal is present. This signal corresponds to V.2
 899:Generated_Source\PSoC5/USBUART_cdc.c **** *  USBUART_LINE_CONTROL_RTS |Carrier control for half-duplex modems. This signal corresponds to V.2
 900:Generated_Source\PSoC5/USBUART_cdc.c **** *  RESERVED                 |The rest of the bits are reserved.
 901:Generated_Source\PSoC5/USBUART_cdc.c **** *
 902:Generated_Source\PSoC5/USBUART_cdc.c **** *  *Note* Some terminal emulation programs do not properly handle these
 903:Generated_Source\PSoC5/USBUART_cdc.c **** *  control signals. They update information about DTR and RTS state only
 904:Generated_Source\PSoC5/USBUART_cdc.c **** *  when the RTS signal changes the state.
 905:Generated_Source\PSoC5/USBUART_cdc.c **** *
 906:Generated_Source\PSoC5/USBUART_cdc.c **** * \globalvars
 907:Generated_Source\PSoC5/USBUART_cdc.c **** *  USBUART_linesControlBitmap: used to get a parameter.
 908:Generated_Source\PSoC5/USBUART_cdc.c **** *
 909:Generated_Source\PSoC5/USBUART_cdc.c **** *******************************************************************************/
 910:Generated_Source\PSoC5/USBUART_cdc.c **** uint16 USBUART_GetLineControl(void) 
 911:Generated_Source\PSoC5/USBUART_cdc.c **** {
 1190              		.loc 1 911 0
 1191              		.cfi_startproc
 1192              		@ args = 0, pretend = 0, frame = 0
 1193              		@ frame_needed = 0, uses_anonymous_args = 0
 1194              		@ link register save eliminated.
 912:Generated_Source\PSoC5/USBUART_cdc.c ****     return (USBUART_linesControlBitmap[USBUART_activeCom]);
 1195              		.loc 1 912 0
 1196 0000 034A     		ldr	r2, .L127
 1197 0002 044B     		ldr	r3, .L127+4
 1198 0004 1278     		ldrb	r2, [r2]	@ zero_extendqisi2
 1199 0006 33F81200 		ldrh	r0, [r3, r2, lsl #1]
 913:Generated_Source\PSoC5/USBUART_cdc.c **** }
 1200              		.loc 1 913 0
 1201 000a 80B2     		uxth	r0, r0
 1202 000c 7047     		bx	lr
 1203              	.L128:
 1204 000e 00BF     		.align	2
 1205              	.L127:
 1206 0010 00000000 		.word	.LANCHOR1
 1207 0014 00000000 		.word	USBUART_linesControlBitmap
 1208              		.cfi_endproc
 1209              	.LFE19:
 1210              		.size	USBUART_GetLineControl, .-USBUART_GetLineControl
 1211              		.section	.text.USBUART_SendSerialState,"ax",%progbits
 1212              		.align	2
 1213              		.global	USBUART_SendSerialState
 1214              		.thumb
 1215              		.thumb_func
 1216              		.type	USBUART_SendSerialState, %function
 1217              	USBUART_SendSerialState:
 1218              	.LFB20:
 914:Generated_Source\PSoC5/USBUART_cdc.c **** 
 915:Generated_Source\PSoC5/USBUART_cdc.c **** 
 916:Generated_Source\PSoC5/USBUART_cdc.c **** /*******************************************************************************
 917:Generated_Source\PSoC5/USBUART_cdc.c **** * Function Name: USBUART_SendSerialState
 918:Generated_Source\PSoC5/USBUART_cdc.c **** ****************************************************************************//**
ARM GAS  C:\Users\ingan\AppData\Local\Temp\cc00nNWn.s 			page 40


 919:Generated_Source\PSoC5/USBUART_cdc.c **** *
 920:Generated_Source\PSoC5/USBUART_cdc.c **** *  Sends the serial state notification to the host using the interrupt
 921:Generated_Source\PSoC5/USBUART_cdc.c **** *  endpoint for the COM port selected using the API SetComPort().The
 922:Generated_Source\PSoC5/USBUART_cdc.c **** *  USBUART_NotificationIsReady() API must be called to check if the
 923:Generated_Source\PSoC5/USBUART_cdc.c **** *  Component is ready to send more serial state to the host. The API will
 924:Generated_Source\PSoC5/USBUART_cdc.c **** *  not send the notification data if the interrupt endpoint Max Packet Size
 925:Generated_Source\PSoC5/USBUART_cdc.c **** *  is less than the required 10 bytes.
 926:Generated_Source\PSoC5/USBUART_cdc.c **** *
 927:Generated_Source\PSoC5/USBUART_cdc.c **** * \param uint16 serialState
 928:Generated_Source\PSoC5/USBUART_cdc.c **** *  16-bit value that will be sent from the device to the
 929:Generated_Source\PSoC5/USBUART_cdc.c **** *  host as SERIAL_STATE notification using the IN interrupt endpoint. Refer
 930:Generated_Source\PSoC5/USBUART_cdc.c **** *  to revision 1.2 of the CDC PSTN Subclass specification for bit field
 931:Generated_Source\PSoC5/USBUART_cdc.c **** *  definitions of the 16-bit serial state value.
 932:Generated_Source\PSoC5/USBUART_cdc.c **** *
 933:Generated_Source\PSoC5/USBUART_cdc.c **** *******************************************************************************/
 934:Generated_Source\PSoC5/USBUART_cdc.c **** void USBUART_SendSerialState (uint16 serialState) 
 935:Generated_Source\PSoC5/USBUART_cdc.c **** {
 1219              		.loc 1 935 0
 1220              		.cfi_startproc
 1221              		@ args = 0, pretend = 0, frame = 0
 1222              		@ frame_needed = 0, uses_anonymous_args = 0
 1223              		@ link register save eliminated.
 1224              	.LVL100:
 1225 0000 F0B4     		push	{r4, r5, r6, r7}
 1226              		.cfi_def_cfa_offset 16
 1227              		.cfi_offset 4, -16
 1228              		.cfi_offset 5, -12
 1229              		.cfi_offset 6, -8
 1230              		.cfi_offset 7, -4
 936:Generated_Source\PSoC5/USBUART_cdc.c ****     uint8 epNumber = USBUART_cdcCommInInterruptEp[USBUART_activeCom];
 1231              		.loc 1 936 0
 1232 0002 124A     		ldr	r2, .L133
 1233 0004 124B     		ldr	r3, .L133+4
 1234 0006 1478     		ldrb	r4, [r2]	@ zero_extendqisi2
 937:Generated_Source\PSoC5/USBUART_cdc.c **** 
 938:Generated_Source\PSoC5/USBUART_cdc.c ****     if(USBUART_SERIAL_STATE_SIZE <= USBUART_EP[epNumber].bufferSize)
 1235              		.loc 1 938 0
 1236 0008 124A     		ldr	r2, .L133+8
 936:Generated_Source\PSoC5/USBUART_cdc.c ****     uint8 epNumber = USBUART_cdcCommInInterruptEp[USBUART_activeCom];
 1237              		.loc 1 936 0
 1238 000a 1B5D     		ldrb	r3, [r3, r4]	@ zero_extendqisi2
 1239 000c DBB2     		uxtb	r3, r3
 1240              	.LVL101:
 1241              		.loc 1 938 0
 1242 000e 03EB4301 		add	r1, r3, r3, lsl #1
 1243 0012 02EB8102 		add	r2, r2, r1, lsl #2
 1244 0016 1189     		ldrh	r1, [r2, #8]
 1245 0018 89B2     		uxth	r1, r1
 1246 001a 0929     		cmp	r1, #9
 1247 001c 01D8     		bhi	.L132
 939:Generated_Source\PSoC5/USBUART_cdc.c ****     {
 940:Generated_Source\PSoC5/USBUART_cdc.c ****         /* Save current SERIAL_STATE bitmap. */
 941:Generated_Source\PSoC5/USBUART_cdc.c ****         USBUART_serialStateBitmap[USBUART_activeCom] = serialState;
 942:Generated_Source\PSoC5/USBUART_cdc.c **** 
 943:Generated_Source\PSoC5/USBUART_cdc.c ****         /* Add interface number */
 944:Generated_Source\PSoC5/USBUART_cdc.c ****         USBUART_serialStateNotification.wIndex = USBUART_EP[epNumber].interface;
 945:Generated_Source\PSoC5/USBUART_cdc.c **** 
ARM GAS  C:\Users\ingan\AppData\Local\Temp\cc00nNWn.s 			page 41


 946:Generated_Source\PSoC5/USBUART_cdc.c ****         /*Form SERIAL_STATE data*/
 947:Generated_Source\PSoC5/USBUART_cdc.c ****         USBUART_serialStateNotification.wSerialState =    LO8(USBUART_serialStateBitmap[USBUART_act
 948:Generated_Source\PSoC5/USBUART_cdc.c ****         USBUART_serialStateNotification.wSerialStateMSB = HI8(USBUART_serialStateBitmap[USBUART_act
 949:Generated_Source\PSoC5/USBUART_cdc.c **** 
 950:Generated_Source\PSoC5/USBUART_cdc.c ****         USBUART_LoadInEP(epNumber, (uint8 *) &USBUART_serialStateNotification, sizeof(USBUART_seria
 951:Generated_Source\PSoC5/USBUART_cdc.c ****     }
 952:Generated_Source\PSoC5/USBUART_cdc.c **** }
 1248              		.loc 1 952 0
 1249 001e F0BC     		pop	{r4, r5, r6, r7}
 1250              		.cfi_remember_state
 1251              		.cfi_restore 7
 1252              		.cfi_restore 6
 1253              		.cfi_restore 5
 1254              		.cfi_restore 4
 1255              		.cfi_def_cfa_offset 0
 1256 0020 7047     		bx	lr
 1257              	.L132:
 1258              		.cfi_restore_state
 941:Generated_Source\PSoC5/USBUART_cdc.c **** 
 1259              		.loc 1 941 0
 1260 0022 0D49     		ldr	r1, .L133+12
 944:Generated_Source\PSoC5/USBUART_cdc.c **** 
 1261              		.loc 1 944 0
 1262 0024 0D4D     		ldr	r5, .L133+16
 941:Generated_Source\PSoC5/USBUART_cdc.c **** 
 1263              		.loc 1 941 0
 1264 0026 21F81400 		strh	r0, [r1, r4, lsl #1]	@ movhi
 944:Generated_Source\PSoC5/USBUART_cdc.c **** 
 1265              		.loc 1 944 0
 1266 002a 977A     		ldrb	r7, [r2, #10]	@ zero_extendqisi2
 947:Generated_Source\PSoC5/USBUART_cdc.c ****         USBUART_serialStateNotification.wSerialStateMSB = HI8(USBUART_serialStateBitmap[USBUART_act
 1267              		.loc 1 947 0
 1268 002c 31F81460 		ldrh	r6, [r1, r4, lsl #1]
 948:Generated_Source\PSoC5/USBUART_cdc.c **** 
 1269              		.loc 1 948 0
 1270 0030 31F81420 		ldrh	r2, [r1, r4, lsl #1]
 950:Generated_Source\PSoC5/USBUART_cdc.c ****     }
 1271              		.loc 1 950 0
 1272 0034 1846     		mov	r0, r3
 1273              	.LVL102:
 948:Generated_Source\PSoC5/USBUART_cdc.c **** 
 1274              		.loc 1 948 0
 1275 0036 C2F30723 		ubfx	r3, r2, #8, #8
 1276              	.LVL103:
 950:Generated_Source\PSoC5/USBUART_cdc.c ****     }
 1277              		.loc 1 950 0
 1278 003a 05F11001 		add	r1, r5, #16
 1279              	.LVL104:
 944:Generated_Source\PSoC5/USBUART_cdc.c **** 
 1280              		.loc 1 944 0
 1281 003e 2F75     		strb	r7, [r5, #20]
 947:Generated_Source\PSoC5/USBUART_cdc.c ****         USBUART_serialStateNotification.wSerialStateMSB = HI8(USBUART_serialStateBitmap[USBUART_act
 1282              		.loc 1 947 0
 1283 0040 2E76     		strb	r6, [r5, #24]
 948:Generated_Source\PSoC5/USBUART_cdc.c **** 
 1284              		.loc 1 948 0
 1285 0042 6B76     		strb	r3, [r5, #25]
ARM GAS  C:\Users\ingan\AppData\Local\Temp\cc00nNWn.s 			page 42


 950:Generated_Source\PSoC5/USBUART_cdc.c ****     }
 1286              		.loc 1 950 0
 1287 0044 0A22     		movs	r2, #10
 1288              		.loc 1 952 0
 1289 0046 F0BC     		pop	{r4, r5, r6, r7}
 1290              		.cfi_restore 7
 1291              		.cfi_restore 6
 1292              		.cfi_restore 5
 1293              		.cfi_restore 4
 1294              		.cfi_def_cfa_offset 0
 1295              	.LVL105:
 950:Generated_Source\PSoC5/USBUART_cdc.c ****     }
 1296              		.loc 1 950 0
 1297 0048 FFF7FEBF 		b	USBUART_LoadInEP
 1298              	.LVL106:
 1299              	.L134:
 1300              		.align	2
 1301              	.L133:
 1302 004c 00000000 		.word	.LANCHOR1
 1303 0050 00000000 		.word	USBUART_cdcCommInInterruptEp
 1304 0054 00000000 		.word	USBUART_EP
 1305 0058 00000000 		.word	USBUART_serialStateBitmap
 1306 005c 00000000 		.word	.LANCHOR0
 1307              		.cfi_endproc
 1308              	.LFE20:
 1309              		.size	USBUART_SendSerialState, .-USBUART_SendSerialState
 1310              		.section	.text.USBUART_GetSerialState,"ax",%progbits
 1311              		.align	2
 1312              		.global	USBUART_GetSerialState
 1313              		.thumb
 1314              		.thumb_func
 1315              		.type	USBUART_GetSerialState, %function
 1316              	USBUART_GetSerialState:
 1317              	.LFB21:
 953:Generated_Source\PSoC5/USBUART_cdc.c **** 
 954:Generated_Source\PSoC5/USBUART_cdc.c **** 
 955:Generated_Source\PSoC5/USBUART_cdc.c **** /*******************************************************************************
 956:Generated_Source\PSoC5/USBUART_cdc.c **** * Function Name: USBUART_GetSerialState
 957:Generated_Source\PSoC5/USBUART_cdc.c **** ****************************************************************************//**
 958:Generated_Source\PSoC5/USBUART_cdc.c **** *
 959:Generated_Source\PSoC5/USBUART_cdc.c **** *  This function returns the current serial state value for the COM port
 960:Generated_Source\PSoC5/USBUART_cdc.c **** *  selected using the API SetComPort().
 961:Generated_Source\PSoC5/USBUART_cdc.c **** *
 962:Generated_Source\PSoC5/USBUART_cdc.c **** * \return
 963:Generated_Source\PSoC5/USBUART_cdc.c **** *  16-bit serial state value. Refer to revision 1.2 of the CDC PSTN Subclass
 964:Generated_Source\PSoC5/USBUART_cdc.c **** *  specification for bit field definitions of the 16-bit serial state value.
 965:Generated_Source\PSoC5/USBUART_cdc.c **** *
 966:Generated_Source\PSoC5/USBUART_cdc.c **** *******************************************************************************/
 967:Generated_Source\PSoC5/USBUART_cdc.c **** uint16 USBUART_GetSerialState(void) 
 968:Generated_Source\PSoC5/USBUART_cdc.c **** {
 1318              		.loc 1 968 0
 1319              		.cfi_startproc
 1320              		@ args = 0, pretend = 0, frame = 0
 1321              		@ frame_needed = 0, uses_anonymous_args = 0
 1322              		@ link register save eliminated.
 969:Generated_Source\PSoC5/USBUART_cdc.c ****     return USBUART_serialStateBitmap[USBUART_activeCom];
 1323              		.loc 1 969 0
ARM GAS  C:\Users\ingan\AppData\Local\Temp\cc00nNWn.s 			page 43


 1324 0000 034A     		ldr	r2, .L136
 1325 0002 044B     		ldr	r3, .L136+4
 1326 0004 1278     		ldrb	r2, [r2]	@ zero_extendqisi2
 1327 0006 33F81200 		ldrh	r0, [r3, r2, lsl #1]
 970:Generated_Source\PSoC5/USBUART_cdc.c **** }
 1328              		.loc 1 970 0
 1329 000a 80B2     		uxth	r0, r0
 1330 000c 7047     		bx	lr
 1331              	.L137:
 1332 000e 00BF     		.align	2
 1333              	.L136:
 1334 0010 00000000 		.word	.LANCHOR1
 1335 0014 00000000 		.word	USBUART_serialStateBitmap
 1336              		.cfi_endproc
 1337              	.LFE21:
 1338              		.size	USBUART_GetSerialState, .-USBUART_GetSerialState
 1339              		.section	.text.USBUART_NotificationIsReady,"ax",%progbits
 1340              		.align	2
 1341              		.global	USBUART_NotificationIsReady
 1342              		.thumb
 1343              		.thumb_func
 1344              		.type	USBUART_NotificationIsReady, %function
 1345              	USBUART_NotificationIsReady:
 1346              	.LFB22:
 971:Generated_Source\PSoC5/USBUART_cdc.c **** 
 972:Generated_Source\PSoC5/USBUART_cdc.c **** 
 973:Generated_Source\PSoC5/USBUART_cdc.c **** /*******************************************************************************
 974:Generated_Source\PSoC5/USBUART_cdc.c **** * Function Name: USBUART_NotificationIsReady
 975:Generated_Source\PSoC5/USBUART_cdc.c **** ****************************************************************************//**
 976:Generated_Source\PSoC5/USBUART_cdc.c **** *
 977:Generated_Source\PSoC5/USBUART_cdc.c **** *  This function returns a non-zero value if the Component is ready to send
 978:Generated_Source\PSoC5/USBUART_cdc.c **** *  more notifications to the host; otherwise, it returns zero. The function
 979:Generated_Source\PSoC5/USBUART_cdc.c **** *  should be called before sending new notifications when using
 980:Generated_Source\PSoC5/USBUART_cdc.c **** *  USBUART_SendSerialState() to ensure that any previous
 981:Generated_Source\PSoC5/USBUART_cdc.c **** *  notification data has been already sent to the host.
 982:Generated_Source\PSoC5/USBUART_cdc.c **** *
 983:Generated_Source\PSoC5/USBUART_cdc.c **** * \return
 984:Generated_Source\PSoC5/USBUART_cdc.c **** *  If the buffer can accept new data(endpoint buffer not full), this
 985:Generated_Source\PSoC5/USBUART_cdc.c **** *  function returns a non-zero value. Otherwise, it returns zero.
 986:Generated_Source\PSoC5/USBUART_cdc.c **** *
 987:Generated_Source\PSoC5/USBUART_cdc.c **** * \globalvars
 988:Generated_Source\PSoC5/USBUART_cdc.c **** *   USBUART_cdcDataInEp: CDC IN endpoint number used.
 989:Generated_Source\PSoC5/USBUART_cdc.c **** *
 990:Generated_Source\PSoC5/USBUART_cdc.c **** *******************************************************************************/
 991:Generated_Source\PSoC5/USBUART_cdc.c **** uint8 USBUART_NotificationIsReady(void) 
 992:Generated_Source\PSoC5/USBUART_cdc.c **** {
 1347              		.loc 1 992 0
 1348              		.cfi_startproc
 1349              		@ args = 0, pretend = 0, frame = 0
 1350              		@ frame_needed = 0, uses_anonymous_args = 0
 1351              		@ link register save eliminated.
 993:Generated_Source\PSoC5/USBUART_cdc.c ****     return (USBUART_EP[USBUART_cdcCommInInterruptEp[USBUART_activeCom]].apiEpState);
 1352              		.loc 1 993 0
 1353 0000 054B     		ldr	r3, .L139
 1354 0002 0649     		ldr	r1, .L139+4
 1355 0004 1B78     		ldrb	r3, [r3]	@ zero_extendqisi2
 1356 0006 064A     		ldr	r2, .L139+8
ARM GAS  C:\Users\ingan\AppData\Local\Temp\cc00nNWn.s 			page 44


 1357 0008 CB5C     		ldrb	r3, [r1, r3]	@ zero_extendqisi2
 1358 000a 03EB4303 		add	r3, r3, r3, lsl #1
 1359 000e 02EB8303 		add	r3, r2, r3, lsl #2
 1360 0012 5878     		ldrb	r0, [r3, #1]	@ zero_extendqisi2
 994:Generated_Source\PSoC5/USBUART_cdc.c **** }
 1361              		.loc 1 994 0
 1362 0014 7047     		bx	lr
 1363              	.L140:
 1364 0016 00BF     		.align	2
 1365              	.L139:
 1366 0018 00000000 		.word	.LANCHOR1
 1367 001c 00000000 		.word	USBUART_cdcCommInInterruptEp
 1368 0020 00000000 		.word	USBUART_EP
 1369              		.cfi_endproc
 1370              	.LFE22:
 1371              		.size	USBUART_NotificationIsReady, .-USBUART_NotificationIsReady
 1372              		.section	.text.USBUART_SetComPort,"ax",%progbits
 1373              		.align	2
 1374              		.global	USBUART_SetComPort
 1375              		.thumb
 1376              		.thumb_func
 1377              		.type	USBUART_SetComPort, %function
 1378              	USBUART_SetComPort:
 1379              	.LFB23:
 995:Generated_Source\PSoC5/USBUART_cdc.c **** 
 996:Generated_Source\PSoC5/USBUART_cdc.c **** 
 997:Generated_Source\PSoC5/USBUART_cdc.c **** /*******************************************************************************
 998:Generated_Source\PSoC5/USBUART_cdc.c **** * Function Name: USBUART_SetComPort
 999:Generated_Source\PSoC5/USBUART_cdc.c **** ****************************************************************************//**
1000:Generated_Source\PSoC5/USBUART_cdc.c **** *
1001:Generated_Source\PSoC5/USBUART_cdc.c **** *  This function allows the user to select from one of the two COM ports
1002:Generated_Source\PSoC5/USBUART_cdc.c **** *  they wish to address in the instance of having multiple COM ports
1003:Generated_Source\PSoC5/USBUART_cdc.c **** *  instantiated though the use of a composite device. Once set, all future
1004:Generated_Source\PSoC5/USBUART_cdc.c **** *  function calls related to the USBUART will be affected. This addressed
1005:Generated_Source\PSoC5/USBUART_cdc.c **** *  COM port can be changed during run time.
1006:Generated_Source\PSoC5/USBUART_cdc.c **** *
1007:Generated_Source\PSoC5/USBUART_cdc.c **** * \param comNumber
1008:Generated_Source\PSoC5/USBUART_cdc.c **** *  Contains the COM interface the user wishes to address. Value can either
1009:Generated_Source\PSoC5/USBUART_cdc.c **** *  be 0 or 1 since a maximum of only 2 COM ports can be supported. Note that
1010:Generated_Source\PSoC5/USBUART_cdc.c **** *  this COM port number is not the COM port number assigned on the PC side
1011:Generated_Source\PSoC5/USBUART_cdc.c **** *  for the UART communication. If a value greater than 1 is passed, the
1012:Generated_Source\PSoC5/USBUART_cdc.c **** *  function returns without performing any action.
1013:Generated_Source\PSoC5/USBUART_cdc.c **** *
1014:Generated_Source\PSoC5/USBUART_cdc.c **** *******************************************************************************/
1015:Generated_Source\PSoC5/USBUART_cdc.c **** void USBUART_SetComPort(uint8 comNumber) 
1016:Generated_Source\PSoC5/USBUART_cdc.c **** {
 1380              		.loc 1 1016 0
 1381              		.cfi_startproc
 1382              		@ args = 0, pretend = 0, frame = 0
 1383              		@ frame_needed = 0, uses_anonymous_args = 0
 1384              		@ link register save eliminated.
 1385              	.LVL107:
1017:Generated_Source\PSoC5/USBUART_cdc.c ****     if ((USBUART_activeCom != comNumber) && \
 1386              		.loc 1 1017 0
 1387 0000 034B     		ldr	r3, .L143
 1388 0002 1A78     		ldrb	r2, [r3]	@ zero_extendqisi2
 1389 0004 8242     		cmp	r2, r0
ARM GAS  C:\Users\ingan\AppData\Local\Temp\cc00nNWn.s 			page 45


 1390 0006 02D0     		beq	.L141
 1391              		.loc 1 1017 0 is_stmt 0 discriminator 1
 1392 0008 0128     		cmp	r0, #1
1018:Generated_Source\PSoC5/USBUART_cdc.c ****             (comNumber < USBUART_MAX_MULTI_COM_NUM ))
1019:Generated_Source\PSoC5/USBUART_cdc.c ****     {
1020:Generated_Source\PSoC5/USBUART_cdc.c ****         USBUART_activeCom = comNumber;
 1393              		.loc 1 1020 0 is_stmt 1 discriminator 1
 1394 000a 98BF     		it	ls
 1395 000c 1870     		strbls	r0, [r3]
 1396              	.L141:
 1397 000e 7047     		bx	lr
 1398              	.L144:
 1399              		.align	2
 1400              	.L143:
 1401 0010 00000000 		.word	.LANCHOR1
 1402              		.cfi_endproc
 1403              	.LFE23:
 1404              		.size	USBUART_SetComPort, .-USBUART_SetComPort
 1405              		.section	.text.USBUART_GetComPort,"ax",%progbits
 1406              		.align	2
 1407              		.global	USBUART_GetComPort
 1408              		.thumb
 1409              		.thumb_func
 1410              		.type	USBUART_GetComPort, %function
 1411              	USBUART_GetComPort:
 1412              	.LFB24:
1021:Generated_Source\PSoC5/USBUART_cdc.c ****     }
1022:Generated_Source\PSoC5/USBUART_cdc.c **** }
1023:Generated_Source\PSoC5/USBUART_cdc.c **** 
1024:Generated_Source\PSoC5/USBUART_cdc.c **** 
1025:Generated_Source\PSoC5/USBUART_cdc.c **** /*******************************************************************************
1026:Generated_Source\PSoC5/USBUART_cdc.c **** * Function Name: USBUART_GetComPort
1027:Generated_Source\PSoC5/USBUART_cdc.c **** ****************************************************************************//**
1028:Generated_Source\PSoC5/USBUART_cdc.c **** *
1029:Generated_Source\PSoC5/USBUART_cdc.c **** *  This function returns the current selected COM port that the user is
1030:Generated_Source\PSoC5/USBUART_cdc.c **** *  currently addressing in the instance of having multiple COM ports
1031:Generated_Source\PSoC5/USBUART_cdc.c **** *  instantiated though the use of a composite device.
1032:Generated_Source\PSoC5/USBUART_cdc.c **** *
1033:Generated_Source\PSoC5/USBUART_cdc.c **** * \return
1034:Generated_Source\PSoC5/USBUART_cdc.c **** *  Returns the currently selected COM port. Value can either be 0 or 1 since
1035:Generated_Source\PSoC5/USBUART_cdc.c **** *  a maximum of only 2 COM ports can be supported. . Note that this COM port
1036:Generated_Source\PSoC5/USBUART_cdc.c **** *  number is not the COM port number assigned on the PC side for the UART
1037:Generated_Source\PSoC5/USBUART_cdc.c **** *  communication.
1038:Generated_Source\PSoC5/USBUART_cdc.c **** *
1039:Generated_Source\PSoC5/USBUART_cdc.c **** *******************************************************************************/
1040:Generated_Source\PSoC5/USBUART_cdc.c **** uint8 USBUART_GetComPort(void) 
1041:Generated_Source\PSoC5/USBUART_cdc.c **** {
 1413              		.loc 1 1041 0
 1414              		.cfi_startproc
 1415              		@ args = 0, pretend = 0, frame = 0
 1416              		@ frame_needed = 0, uses_anonymous_args = 0
 1417              		@ link register save eliminated.
1042:Generated_Source\PSoC5/USBUART_cdc.c ****     return (USBUART_activeCom);
 1418              		.loc 1 1042 0
 1419 0000 014B     		ldr	r3, .L146
1043:Generated_Source\PSoC5/USBUART_cdc.c **** }
 1420              		.loc 1 1043 0
ARM GAS  C:\Users\ingan\AppData\Local\Temp\cc00nNWn.s 			page 46


 1421 0002 1878     		ldrb	r0, [r3]	@ zero_extendqisi2
 1422 0004 7047     		bx	lr
 1423              	.L147:
 1424 0006 00BF     		.align	2
 1425              	.L146:
 1426 0008 00000000 		.word	.LANCHOR1
 1427              		.cfi_endproc
 1428              	.LFE24:
 1429              		.size	USBUART_GetComPort, .-USBUART_GetComPort
 1430              		.section	.text.USBUART_Cdc_EpInit,"ax",%progbits
 1431              		.align	2
 1432              		.global	USBUART_Cdc_EpInit
 1433              		.thumb
 1434              		.thumb_func
 1435              		.type	USBUART_Cdc_EpInit, %function
 1436              	USBUART_Cdc_EpInit:
 1437              	.LFB25:
1044:Generated_Source\PSoC5/USBUART_cdc.c **** 
1045:Generated_Source\PSoC5/USBUART_cdc.c **** 
1046:Generated_Source\PSoC5/USBUART_cdc.c **** #endif  /* (USBUART_ENABLE_CDC_CLASS_API) */
1047:Generated_Source\PSoC5/USBUART_cdc.c **** 
1048:Generated_Source\PSoC5/USBUART_cdc.c **** 
1049:Generated_Source\PSoC5/USBUART_cdc.c **** /***************************************************************************
1050:Generated_Source\PSoC5/USBUART_cdc.c **** * Function Name: USBUART_Cdc_EpInit
1051:Generated_Source\PSoC5/USBUART_cdc.c **** ************************************************************************//**
1052:Generated_Source\PSoC5/USBUART_cdc.c **** *
1053:Generated_Source\PSoC5/USBUART_cdc.c **** *  \internal
1054:Generated_Source\PSoC5/USBUART_cdc.c **** *  This routine decide type of endpoint (IN, OUT, Notification) and same to
1055:Generated_Source\PSoC5/USBUART_cdc.c **** *   appropriate global variables  according to COM port number.
1056:Generated_Source\PSoC5/USBUART_cdc.c **** *   USBUART_cdcDataInEp[], USBUART_cdcCommInInterruptEp[],
1057:Generated_Source\PSoC5/USBUART_cdc.c **** *   USBUART_cdcDataOutEp[]
1058:Generated_Source\PSoC5/USBUART_cdc.c **** *
1059:Generated_Source\PSoC5/USBUART_cdc.c **** * \param pEP: Pointer to structure with current EP description.
1060:Generated_Source\PSoC5/USBUART_cdc.c **** * \param epNum: EP number
1061:Generated_Source\PSoC5/USBUART_cdc.c **** * \param cdcComNums: Bit array of current COM ports for CDC IN, OUT,
1062:Generated_Source\PSoC5/USBUART_cdc.c **** *        and notification EPs(0 - COM port 1, 1- COM port 2)
1063:Generated_Source\PSoC5/USBUART_cdc.c **** *
1064:Generated_Source\PSoC5/USBUART_cdc.c **** * \return
1065:Generated_Source\PSoC5/USBUART_cdc.c **** *  Updated cdcComNums
1066:Generated_Source\PSoC5/USBUART_cdc.c **** *
1067:Generated_Source\PSoC5/USBUART_cdc.c **** * \reentrant
1068:Generated_Source\PSoC5/USBUART_cdc.c **** *  No.
1069:Generated_Source\PSoC5/USBUART_cdc.c **** *
1070:Generated_Source\PSoC5/USBUART_cdc.c **** ***************************************************************************/
1071:Generated_Source\PSoC5/USBUART_cdc.c **** uint8 USBUART_Cdc_EpInit(const T_USBUART_EP_SETTINGS_BLOCK CYCODE *pEP, uint8 epNum, uint8 cdcComNu
1072:Generated_Source\PSoC5/USBUART_cdc.c **** {
 1438              		.loc 1 1072 0
 1439              		.cfi_startproc
 1440              		@ args = 0, pretend = 0, frame = 0
 1441              		@ frame_needed = 0, uses_anonymous_args = 0
 1442              		@ link register save eliminated.
 1443              	.LVL108:
1073:Generated_Source\PSoC5/USBUART_cdc.c ****     uint8 epType;
1074:Generated_Source\PSoC5/USBUART_cdc.c **** 
1075:Generated_Source\PSoC5/USBUART_cdc.c ****     epType = pEP->attributes & USBUART_EP_TYPE_MASK;
 1444              		.loc 1 1075 0
 1445 0000 C378     		ldrb	r3, [r0, #3]	@ zero_extendqisi2
ARM GAS  C:\Users\ingan\AppData\Local\Temp\cc00nNWn.s 			page 47


1076:Generated_Source\PSoC5/USBUART_cdc.c **** 
1077:Generated_Source\PSoC5/USBUART_cdc.c ****     if (0u != (pEP->addr & USBUART_DIR_IN))
 1446              		.loc 1 1077 0
 1447 0002 90F90200 		ldrsb	r0, [r0, #2]
 1448              	.LVL109:
1075:Generated_Source\PSoC5/USBUART_cdc.c **** 
 1449              		.loc 1 1075 0
 1450 0006 03F00303 		and	r3, r3, #3
 1451              	.LVL110:
 1452              		.loc 1 1077 0
 1453 000a 0028     		cmp	r0, #0
 1454 000c 09DB     		blt	.L155
1078:Generated_Source\PSoC5/USBUART_cdc.c ****     {
1079:Generated_Source\PSoC5/USBUART_cdc.c ****         if (epType != USBUART_EP_TYPE_INT)
1080:Generated_Source\PSoC5/USBUART_cdc.c ****         {
1081:Generated_Source\PSoC5/USBUART_cdc.c ****             USBUART_cdcDataInEp[USBUART_GET_EP_COM_NUM(cdcComNums, USBUART_CDC_IN_EP)] = epNum;
1082:Generated_Source\PSoC5/USBUART_cdc.c ****             cdcComNums |= (uint8)(USBUART_COM_PORT2 << USBUART_CDC_IN_EP);
1083:Generated_Source\PSoC5/USBUART_cdc.c ****         }
1084:Generated_Source\PSoC5/USBUART_cdc.c ****         else
1085:Generated_Source\PSoC5/USBUART_cdc.c ****         {
1086:Generated_Source\PSoC5/USBUART_cdc.c **** 
1087:Generated_Source\PSoC5/USBUART_cdc.c ****             USBUART_cdcCommInInterruptEp[USBUART_GET_EP_COM_NUM(cdcComNums, USBUART_CDC_NOTE_EP)] =
1088:Generated_Source\PSoC5/USBUART_cdc.c ****             cdcComNums |= (uint8)(USBUART_COM_PORT2 << USBUART_CDC_NOTE_EP);
1089:Generated_Source\PSoC5/USBUART_cdc.c ****         }
1090:Generated_Source\PSoC5/USBUART_cdc.c ****     }
1091:Generated_Source\PSoC5/USBUART_cdc.c ****     else
1092:Generated_Source\PSoC5/USBUART_cdc.c ****     {
1093:Generated_Source\PSoC5/USBUART_cdc.c ****         if (epType != USBUART_EP_TYPE_INT)
 1455              		.loc 1 1093 0
 1456 000e 032B     		cmp	r3, #3
 1457 0010 05D0     		beq	.L151
1094:Generated_Source\PSoC5/USBUART_cdc.c ****         {
1095:Generated_Source\PSoC5/USBUART_cdc.c ****             USBUART_cdcDataOutEp[USBUART_GET_EP_COM_NUM(cdcComNums, USBUART_CDC_OUT_EP)] = epNum;
 1458              		.loc 1 1095 0
 1459 0012 0C48     		ldr	r0, .L156
 1460 0014 C2F34003 		ubfx	r3, r2, #1, #1
 1461              	.LVL111:
 1462 0018 C154     		strb	r1, [r0, r3]
1096:Generated_Source\PSoC5/USBUART_cdc.c ****             cdcComNums |= (uint8)(USBUART_COM_PORT2 << USBUART_CDC_OUT_EP);
 1463              		.loc 1 1096 0
 1464 001a 42F00202 		orr	r2, r2, #2
 1465              	.LVL112:
 1466              	.L151:
1097:Generated_Source\PSoC5/USBUART_cdc.c ****         }
1098:Generated_Source\PSoC5/USBUART_cdc.c ****     }
1099:Generated_Source\PSoC5/USBUART_cdc.c ****     return (cdcComNums);
1100:Generated_Source\PSoC5/USBUART_cdc.c **** }
 1467              		.loc 1 1100 0
 1468 001e 1046     		mov	r0, r2
 1469 0020 7047     		bx	lr
 1470              	.LVL113:
 1471              	.L155:
1079:Generated_Source\PSoC5/USBUART_cdc.c ****         {
 1472              		.loc 1 1079 0
 1473 0022 032B     		cmp	r3, #3
 1474 0024 07D0     		beq	.L150
1081:Generated_Source\PSoC5/USBUART_cdc.c ****             cdcComNums |= (uint8)(USBUART_COM_PORT2 << USBUART_CDC_IN_EP);
ARM GAS  C:\Users\ingan\AppData\Local\Temp\cc00nNWn.s 			page 48


 1475              		.loc 1 1081 0
 1476 0026 0848     		ldr	r0, .L156+4
 1477 0028 02F00103 		and	r3, r2, #1
 1478              	.LVL114:
1082:Generated_Source\PSoC5/USBUART_cdc.c ****         }
 1479              		.loc 1 1082 0
 1480 002c 42F00102 		orr	r2, r2, #1
 1481              	.LVL115:
1081:Generated_Source\PSoC5/USBUART_cdc.c ****             cdcComNums |= (uint8)(USBUART_COM_PORT2 << USBUART_CDC_IN_EP);
 1482              		.loc 1 1081 0
 1483 0030 C154     		strb	r1, [r0, r3]
 1484              		.loc 1 1100 0
 1485 0032 1046     		mov	r0, r2
 1486 0034 7047     		bx	lr
 1487              	.LVL116:
 1488              	.L150:
1087:Generated_Source\PSoC5/USBUART_cdc.c ****             cdcComNums |= (uint8)(USBUART_COM_PORT2 << USBUART_CDC_NOTE_EP);
 1489              		.loc 1 1087 0
 1490 0036 0548     		ldr	r0, .L156+8
 1491 0038 C2F38003 		ubfx	r3, r2, #2, #1
 1492              	.LVL117:
 1493 003c C154     		strb	r1, [r0, r3]
1088:Generated_Source\PSoC5/USBUART_cdc.c ****         }
 1494              		.loc 1 1088 0
 1495 003e 42F00402 		orr	r2, r2, #4
 1496              	.LVL118:
 1497 0042 ECE7     		b	.L151
 1498              	.L157:
 1499              		.align	2
 1500              	.L156:
 1501 0044 00000000 		.word	USBUART_cdcDataOutEp
 1502 0048 00000000 		.word	USBUART_cdcDataInEp
 1503 004c 00000000 		.word	USBUART_cdcCommInInterruptEp
 1504              		.cfi_endproc
 1505              	.LFE25:
 1506              		.size	USBUART_Cdc_EpInit, .-USBUART_Cdc_EpInit
 1507              		.comm	USBUART_cdcCommInInterruptEp,2,4
 1508              		.comm	USBUART_cdcDataOutEp,2,4
 1509              		.comm	USBUART_cdcDataInEp,2,4
 1510              		.comm	USBUART_serialStateBitmap,4,4
 1511              		.comm	USBUART_linesControlBitmap,4,4
 1512              		.comm	USBUART_linesChanged,2,4
 1513              		.global	USBUART_linesCoding
 1514              		.section	.rodata
 1515              		.align	2
 1516              		.set	.LANCHOR2,. + 0
 1517              	.LC0:
 1518 0000 0D       		.byte	13
 1519 0001 0A       		.byte	10
 1520              		.data
 1521              		.align	2
 1522              		.set	.LANCHOR0,. + 0
 1523              		.type	USBUART_linesCoding, %object
 1524              		.size	USBUART_linesCoding, 14
 1525              	USBUART_linesCoding:
 1526 0000 00       		.byte	0
 1527 0001 C2       		.byte	-62
ARM GAS  C:\Users\ingan\AppData\Local\Temp\cc00nNWn.s 			page 49


 1528 0002 01       		.byte	1
 1529 0003 00       		.byte	0
 1530 0004 00       		.byte	0
 1531 0005 00       		.byte	0
 1532 0006 08       		.byte	8
 1533 0007 00       		.byte	0
 1534 0008 C2       		.byte	-62
 1535 0009 01       		.byte	1
 1536 000a 00       		.byte	0
 1537 000b 00       		.byte	0
 1538 000c 00       		.byte	0
 1539 000d 08       		.byte	8
 1540 000e 0000     		.space	2
 1541              		.type	USBUART_serialStateNotification, %object
 1542              		.size	USBUART_serialStateNotification, 10
 1543              	USBUART_serialStateNotification:
 1544 0010 A1       		.byte	-95
 1545 0011 20       		.byte	32
 1546 0012 00       		.byte	0
 1547 0013 00       		.byte	0
 1548 0014 00       		.byte	0
 1549 0015 00       		.byte	0
 1550 0016 02       		.byte	2
 1551 0017 00       		.byte	0
 1552 0018 00       		.byte	0
 1553 0019 00       		.byte	0
 1554              		.bss
 1555              		.set	.LANCHOR1,. + 0
 1556              		.type	USBUART_activeCom, %object
 1557              		.size	USBUART_activeCom, 1
 1558              	USBUART_activeCom:
 1559 0000 00       		.space	1
 1560              		.text
 1561              	.Letext0:
 1562              		.file 2 "Generated_Source\\PSoC5\\cytypes.h"
 1563              		.file 3 "Generated_Source\\PSoC5\\USBUART.h"
 1564              		.file 4 "Generated_Source\\PSoC5\\USBUART_pvt.h"
 1565              		.section	.debug_info,"",%progbits
 1566              	.Ldebug_info0:
 1567 0000 C50B0000 		.4byte	0xbc5
 1568 0004 0400     		.2byte	0x4
 1569 0006 00000000 		.4byte	.Ldebug_abbrev0
 1570 000a 04       		.byte	0x4
 1571 000b 01       		.uleb128 0x1
 1572 000c BE050000 		.4byte	.LASF117
 1573 0010 0C       		.byte	0xc
 1574 0011 B6030000 		.4byte	.LASF118
 1575 0015 23030000 		.4byte	.LASF119
 1576 0019 48000000 		.4byte	.Ldebug_ranges0+0x48
 1577 001d 00000000 		.4byte	0
 1578 0021 00000000 		.4byte	.Ldebug_line0
 1579 0025 02       		.uleb128 0x2
 1580 0026 01       		.byte	0x1
 1581 0027 06       		.byte	0x6
 1582 0028 0A010000 		.4byte	.LASF0
 1583 002c 02       		.uleb128 0x2
 1584 002d 01       		.byte	0x1
ARM GAS  C:\Users\ingan\AppData\Local\Temp\cc00nNWn.s 			page 50


 1585 002e 08       		.byte	0x8
 1586 002f 27000000 		.4byte	.LASF1
 1587 0033 02       		.uleb128 0x2
 1588 0034 02       		.byte	0x2
 1589 0035 05       		.byte	0x5
 1590 0036 FB040000 		.4byte	.LASF2
 1591 003a 02       		.uleb128 0x2
 1592 003b 02       		.byte	0x2
 1593 003c 07       		.byte	0x7
 1594 003d C9020000 		.4byte	.LASF3
 1595 0041 02       		.uleb128 0x2
 1596 0042 04       		.byte	0x4
 1597 0043 05       		.byte	0x5
 1598 0044 78010000 		.4byte	.LASF4
 1599 0048 02       		.uleb128 0x2
 1600 0049 04       		.byte	0x4
 1601 004a 07       		.byte	0x7
 1602 004b 94020000 		.4byte	.LASF5
 1603 004f 02       		.uleb128 0x2
 1604 0050 08       		.byte	0x8
 1605 0051 05       		.byte	0x5
 1606 0052 FC000000 		.4byte	.LASF6
 1607 0056 02       		.uleb128 0x2
 1608 0057 08       		.byte	0x8
 1609 0058 07       		.byte	0x7
 1610 0059 95000000 		.4byte	.LASF7
 1611 005d 03       		.uleb128 0x3
 1612 005e 04       		.byte	0x4
 1613 005f 05       		.byte	0x5
 1614 0060 696E7400 		.ascii	"int\000"
 1615 0064 02       		.uleb128 0x2
 1616 0065 04       		.byte	0x4
 1617 0066 07       		.byte	0x7
 1618 0067 73020000 		.4byte	.LASF8
 1619 006b 04       		.uleb128 0x4
 1620 006c A1010000 		.4byte	.LASF9
 1621 0070 02       		.byte	0x2
 1622 0071 E401     		.2byte	0x1e4
 1623 0073 2C000000 		.4byte	0x2c
 1624 0077 04       		.uleb128 0x4
 1625 0078 20000000 		.4byte	.LASF10
 1626 007c 02       		.byte	0x2
 1627 007d E501     		.2byte	0x1e5
 1628 007f 3A000000 		.4byte	0x3a
 1629 0083 04       		.uleb128 0x4
 1630 0084 63000000 		.4byte	.LASF11
 1631 0088 02       		.byte	0x2
 1632 0089 E601     		.2byte	0x1e6
 1633 008b 48000000 		.4byte	0x48
 1634 008f 02       		.uleb128 0x2
 1635 0090 04       		.byte	0x4
 1636 0091 04       		.byte	0x4
 1637 0092 A2040000 		.4byte	.LASF12
 1638 0096 02       		.uleb128 0x2
 1639 0097 08       		.byte	0x8
 1640 0098 04       		.byte	0x4
 1641 0099 C3070000 		.4byte	.LASF13
ARM GAS  C:\Users\ingan\AppData\Local\Temp\cc00nNWn.s 			page 51


 1642 009d 04       		.uleb128 0x4
 1643 009e 81060000 		.4byte	.LASF14
 1644 00a2 02       		.byte	0x2
 1645 00a3 F501     		.2byte	0x1f5
 1646 00a5 A9000000 		.4byte	0xa9
 1647 00a9 02       		.uleb128 0x2
 1648 00aa 01       		.byte	0x1
 1649 00ab 08       		.byte	0x8
 1650 00ac 4C060000 		.4byte	.LASF15
 1651 00b0 05       		.uleb128 0x5
 1652 00b1 6B000000 		.4byte	0x6b
 1653 00b5 05       		.uleb128 0x5
 1654 00b6 77000000 		.4byte	0x77
 1655 00ba 02       		.uleb128 0x2
 1656 00bb 08       		.byte	0x8
 1657 00bc 04       		.byte	0x4
 1658 00bd A7050000 		.4byte	.LASF16
 1659 00c1 02       		.uleb128 0x2
 1660 00c2 04       		.byte	0x4
 1661 00c3 07       		.byte	0x7
 1662 00c4 E4030000 		.4byte	.LASF17
 1663 00c8 06       		.uleb128 0x6
 1664 00c9 0C       		.byte	0xc
 1665 00ca 03       		.byte	0x3
 1666 00cb 8D       		.byte	0x8d
 1667 00cc 3D010000 		.4byte	0x13d
 1668 00d0 07       		.uleb128 0x7
 1669 00d1 06040000 		.4byte	.LASF18
 1670 00d5 03       		.byte	0x3
 1671 00d6 8F       		.byte	0x8f
 1672 00d7 6B000000 		.4byte	0x6b
 1673 00db 00       		.byte	0
 1674 00dc 07       		.uleb128 0x7
 1675 00dd CA040000 		.4byte	.LASF19
 1676 00e1 03       		.byte	0x3
 1677 00e2 90       		.byte	0x90
 1678 00e3 6B000000 		.4byte	0x6b
 1679 00e7 01       		.byte	0x1
 1680 00e8 07       		.uleb128 0x7
 1681 00e9 B7010000 		.4byte	.LASF20
 1682 00ed 03       		.byte	0x3
 1683 00ee 91       		.byte	0x91
 1684 00ef 6B000000 		.4byte	0x6b
 1685 00f3 02       		.byte	0x2
 1686 00f4 07       		.uleb128 0x7
 1687 00f5 A7010000 		.4byte	.LASF21
 1688 00f9 03       		.byte	0x3
 1689 00fa 92       		.byte	0x92
 1690 00fb 6B000000 		.4byte	0x6b
 1691 00ff 03       		.byte	0x3
 1692 0100 07       		.uleb128 0x7
 1693 0101 AC000000 		.4byte	.LASF22
 1694 0105 03       		.byte	0x3
 1695 0106 93       		.byte	0x93
 1696 0107 6B000000 		.4byte	0x6b
 1697 010b 04       		.byte	0x4
 1698 010c 07       		.uleb128 0x7
ARM GAS  C:\Users\ingan\AppData\Local\Temp\cc00nNWn.s 			page 52


 1699 010d 33020000 		.4byte	.LASF23
 1700 0111 03       		.byte	0x3
 1701 0112 94       		.byte	0x94
 1702 0113 6B000000 		.4byte	0x6b
 1703 0117 05       		.byte	0x5
 1704 0118 07       		.uleb128 0x7
 1705 0119 76060000 		.4byte	.LASF24
 1706 011d 03       		.byte	0x3
 1707 011e 95       		.byte	0x95
 1708 011f 77000000 		.4byte	0x77
 1709 0123 06       		.byte	0x6
 1710 0124 07       		.uleb128 0x7
 1711 0125 51060000 		.4byte	.LASF25
 1712 0129 03       		.byte	0x3
 1713 012a 96       		.byte	0x96
 1714 012b 77000000 		.4byte	0x77
 1715 012f 08       		.byte	0x8
 1716 0130 07       		.uleb128 0x7
 1717 0131 9A030000 		.4byte	.LASF26
 1718 0135 03       		.byte	0x3
 1719 0136 97       		.byte	0x97
 1720 0137 6B000000 		.4byte	0x6b
 1721 013b 0A       		.byte	0xa
 1722 013c 00       		.byte	0
 1723 013d 08       		.uleb128 0x8
 1724 013e 83030000 		.4byte	.LASF27
 1725 0142 03       		.byte	0x3
 1726 0143 98       		.byte	0x98
 1727 0144 C8000000 		.4byte	0xc8
 1728 0148 06       		.uleb128 0x6
 1729 0149 08       		.byte	0x8
 1730 014a 03       		.byte	0x3
 1731 014b 9A       		.byte	0x9a
 1732 014c 99010000 		.4byte	0x199
 1733 0150 07       		.uleb128 0x7
 1734 0151 9A030000 		.4byte	.LASF26
 1735 0155 03       		.byte	0x3
 1736 0156 9C       		.byte	0x9c
 1737 0157 6B000000 		.4byte	0x6b
 1738 015b 00       		.byte	0
 1739 015c 07       		.uleb128 0x7
 1740 015d B3050000 		.4byte	.LASF28
 1741 0161 03       		.byte	0x3
 1742 0162 9D       		.byte	0x9d
 1743 0163 6B000000 		.4byte	0x6b
 1744 0167 01       		.byte	0x1
 1745 0168 07       		.uleb128 0x7
 1746 0169 AC000000 		.4byte	.LASF22
 1747 016d 03       		.byte	0x3
 1748 016e 9E       		.byte	0x9e
 1749 016f 6B000000 		.4byte	0x6b
 1750 0173 02       		.byte	0x2
 1751 0174 07       		.uleb128 0x7
 1752 0175 65050000 		.4byte	.LASF29
 1753 0179 03       		.byte	0x3
 1754 017a 9F       		.byte	0x9f
 1755 017b 6B000000 		.4byte	0x6b
ARM GAS  C:\Users\ingan\AppData\Local\Temp\cc00nNWn.s 			page 53


 1756 017f 03       		.byte	0x3
 1757 0180 07       		.uleb128 0x7
 1758 0181 51060000 		.4byte	.LASF25
 1759 0185 03       		.byte	0x3
 1760 0186 A0       		.byte	0xa0
 1761 0187 77000000 		.4byte	0x77
 1762 018b 04       		.byte	0x4
 1763 018c 07       		.uleb128 0x7
 1764 018d 3C070000 		.4byte	.LASF30
 1765 0191 03       		.byte	0x3
 1766 0192 A1       		.byte	0xa1
 1767 0193 6B000000 		.4byte	0x6b
 1768 0197 06       		.byte	0x6
 1769 0198 00       		.byte	0
 1770 0199 08       		.uleb128 0x8
 1771 019a 87060000 		.4byte	.LASF31
 1772 019e 03       		.byte	0x3
 1773 019f A2       		.byte	0xa2
 1774 01a0 48010000 		.4byte	0x148
 1775 01a4 06       		.uleb128 0x6
 1776 01a5 04       		.byte	0x4
 1777 01a6 03       		.byte	0x3
 1778 01a7 A4       		.byte	0xa4
 1779 01a8 C5010000 		.4byte	0x1c5
 1780 01ac 07       		.uleb128 0x7
 1781 01ad F7060000 		.4byte	.LASF32
 1782 01b1 03       		.byte	0x3
 1783 01b2 A6       		.byte	0xa6
 1784 01b3 6B000000 		.4byte	0x6b
 1785 01b7 00       		.byte	0
 1786 01b8 07       		.uleb128 0x7
 1787 01b9 F0060000 		.4byte	.LASF33
 1788 01bd 03       		.byte	0x3
 1789 01be A7       		.byte	0xa7
 1790 01bf 77000000 		.4byte	0x77
 1791 01c3 02       		.byte	0x2
 1792 01c4 00       		.byte	0
 1793 01c5 08       		.uleb128 0x8
 1794 01c6 42070000 		.4byte	.LASF34
 1795 01ca 03       		.byte	0x3
 1796 01cb A8       		.byte	0xa8
 1797 01cc A4010000 		.4byte	0x1a4
 1798 01d0 06       		.uleb128 0x6
 1799 01d1 0C       		.byte	0xc
 1800 01d2 03       		.byte	0x3
 1801 01d3 AA       		.byte	0xaa
 1802 01d4 FD010000 		.4byte	0x1fd
 1803 01d8 07       		.uleb128 0x7
 1804 01d9 07000000 		.4byte	.LASF35
 1805 01dd 03       		.byte	0x3
 1806 01de AC       		.byte	0xac
 1807 01df 77000000 		.4byte	0x77
 1808 01e3 00       		.byte	0
 1809 01e4 07       		.uleb128 0x7
 1810 01e5 2D020000 		.4byte	.LASF36
 1811 01e9 03       		.byte	0x3
 1812 01ea AD       		.byte	0xad
ARM GAS  C:\Users\ingan\AppData\Local\Temp\cc00nNWn.s 			page 54


 1813 01eb FD010000 		.4byte	0x1fd
 1814 01ef 04       		.byte	0x4
 1815 01f0 07       		.uleb128 0x7
 1816 01f1 A6020000 		.4byte	.LASF37
 1817 01f5 03       		.byte	0x3
 1818 01f6 AE       		.byte	0xae
 1819 01f7 03020000 		.4byte	0x203
 1820 01fb 08       		.byte	0x8
 1821 01fc 00       		.byte	0
 1822 01fd 09       		.uleb128 0x9
 1823 01fe 04       		.byte	0x4
 1824 01ff B0000000 		.4byte	0xb0
 1825 0203 09       		.uleb128 0x9
 1826 0204 04       		.byte	0x4
 1827 0205 C5010000 		.4byte	0x1c5
 1828 0209 08       		.uleb128 0x8
 1829 020a 28050000 		.4byte	.LASF38
 1830 020e 03       		.byte	0x3
 1831 020f AF       		.byte	0xaf
 1832 0210 D0010000 		.4byte	0x1d0
 1833 0214 06       		.uleb128 0x6
 1834 0215 08       		.byte	0x8
 1835 0216 03       		.byte	0x3
 1836 0217 C5       		.byte	0xc5
 1837 0218 29020000 		.4byte	0x229
 1838 021c 07       		.uleb128 0x7
 1839 021d 9B040000 		.4byte	.LASF39
 1840 0221 03       		.byte	0x3
 1841 0222 C7       		.byte	0xc7
 1842 0223 29020000 		.4byte	0x229
 1843 0227 00       		.byte	0
 1844 0228 00       		.byte	0
 1845 0229 0A       		.uleb128 0xa
 1846 022a 6B000000 		.4byte	0x6b
 1847 022e 39020000 		.4byte	0x239
 1848 0232 0B       		.uleb128 0xb
 1849 0233 C1000000 		.4byte	0xc1
 1850 0237 07       		.byte	0x7
 1851 0238 00       		.byte	0
 1852 0239 08       		.uleb128 0x8
 1853 023a 60010000 		.4byte	.LASF40
 1854 023e 03       		.byte	0x3
 1855 023f C8       		.byte	0xc8
 1856 0240 14020000 		.4byte	0x214
 1857 0244 0C       		.uleb128 0xc
 1858 0245 0A       		.byte	0xa
 1859 0246 04       		.byte	0x4
 1860 0247 6D01     		.2byte	0x16d
 1861 0249 D0020000 		.4byte	0x2d0
 1862 024d 0D       		.uleb128 0xd
 1863 024e B1000000 		.4byte	.LASF41
 1864 0252 04       		.byte	0x4
 1865 0253 6F01     		.2byte	0x16f
 1866 0255 6B000000 		.4byte	0x6b
 1867 0259 00       		.byte	0
 1868 025a 0D       		.uleb128 0xd
 1869 025b 1B070000 		.4byte	.LASF42
ARM GAS  C:\Users\ingan\AppData\Local\Temp\cc00nNWn.s 			page 55


 1870 025f 04       		.byte	0x4
 1871 0260 7001     		.2byte	0x170
 1872 0262 6B000000 		.4byte	0x6b
 1873 0266 01       		.byte	0x1
 1874 0267 0D       		.uleb128 0xd
 1875 0268 B0010000 		.4byte	.LASF43
 1876 026c 04       		.byte	0x4
 1877 026d 7101     		.2byte	0x171
 1878 026f 6B000000 		.4byte	0x6b
 1879 0273 02       		.byte	0x2
 1880 0274 0D       		.uleb128 0xd
 1881 0275 1E050000 		.4byte	.LASF44
 1882 0279 04       		.byte	0x4
 1883 027a 7201     		.2byte	0x172
 1884 027c 6B000000 		.4byte	0x6b
 1885 0280 03       		.byte	0x3
 1886 0281 0D       		.uleb128 0xd
 1887 0282 00000000 		.4byte	.LASF45
 1888 0286 04       		.byte	0x4
 1889 0287 7301     		.2byte	0x173
 1890 0289 6B000000 		.4byte	0x6b
 1891 028d 04       		.byte	0x4
 1892 028e 0D       		.uleb128 0xd
 1893 028f CA070000 		.4byte	.LASF46
 1894 0293 04       		.byte	0x4
 1895 0294 7401     		.2byte	0x174
 1896 0296 6B000000 		.4byte	0x6b
 1897 029a 05       		.byte	0x5
 1898 029b 0D       		.uleb128 0xd
 1899 029c F0060000 		.4byte	.LASF33
 1900 02a0 04       		.byte	0x4
 1901 02a1 7501     		.2byte	0x175
 1902 02a3 6B000000 		.4byte	0x6b
 1903 02a7 06       		.byte	0x6
 1904 02a8 0D       		.uleb128 0xd
 1905 02a9 0D020000 		.4byte	.LASF47
 1906 02ad 04       		.byte	0x4
 1907 02ae 7601     		.2byte	0x176
 1908 02b0 6B000000 		.4byte	0x6b
 1909 02b4 07       		.byte	0x7
 1910 02b5 0D       		.uleb128 0xd
 1911 02b6 00020000 		.4byte	.LASF48
 1912 02ba 04       		.byte	0x4
 1913 02bb 7701     		.2byte	0x177
 1914 02bd 6B000000 		.4byte	0x6b
 1915 02c1 08       		.byte	0x8
 1916 02c2 0D       		.uleb128 0xd
 1917 02c3 C4000000 		.4byte	.LASF49
 1918 02c7 04       		.byte	0x4
 1919 02c8 7801     		.2byte	0x178
 1920 02ca 6B000000 		.4byte	0x6b
 1921 02ce 09       		.byte	0x9
 1922 02cf 00       		.byte	0
 1923 02d0 04       		.uleb128 0x4
 1924 02d1 5E070000 		.4byte	.LASF50
 1925 02d5 04       		.byte	0x4
 1926 02d6 7901     		.2byte	0x179
ARM GAS  C:\Users\ingan\AppData\Local\Temp\cc00nNWn.s 			page 56


 1927 02d8 44020000 		.4byte	0x244
 1928 02dc 0E       		.uleb128 0xe
 1929 02dd 35000000 		.4byte	.LASF120
 1930 02e1 01       		.byte	0x1
 1931 02e2 EF       		.byte	0xef
 1932 02e3 6B000000 		.4byte	0x6b
 1933 02e7 01       		.byte	0x1
 1934 02e8 19030000 		.4byte	0x319
 1935 02ec 0F       		.uleb128 0xf
 1936 02ed 9A030000 		.4byte	.LASF26
 1937 02f1 01       		.byte	0x1
 1938 02f2 EF       		.byte	0xef
 1939 02f3 6B000000 		.4byte	0x6b
 1940 02f7 10       		.uleb128 0x10
 1941 02f8 58040000 		.4byte	.LASF51
 1942 02fc 01       		.byte	0x1
 1943 02fd F1       		.byte	0xf1
 1944 02fe 6B000000 		.4byte	0x6b
 1945 0302 11       		.uleb128 0x11
 1946 0303 72657300 		.ascii	"res\000"
 1947 0307 01       		.byte	0x1
 1948 0308 F2       		.byte	0xf2
 1949 0309 6B000000 		.4byte	0x6b
 1950 030d 10       		.uleb128 0x10
 1951 030e 18050000 		.4byte	.LASF52
 1952 0312 01       		.byte	0x1
 1953 0313 F3       		.byte	0xf3
 1954 0314 6B000000 		.4byte	0x6b
 1955 0318 00       		.byte	0
 1956 0319 12       		.uleb128 0x12
 1957 031a C6060000 		.4byte	.LASF121
 1958 031e 01       		.byte	0x1
 1959 031f 8401     		.2byte	0x184
 1960 0321 77000000 		.4byte	0x77
 1961 0325 01       		.byte	0x1
 1962 0326 43030000 		.4byte	0x343
 1963 032a 13       		.uleb128 0x13
 1964 032b 5C000000 		.4byte	.LASF53
 1965 032f 01       		.byte	0x1
 1966 0330 8401     		.2byte	0x184
 1967 0332 43030000 		.4byte	0x343
 1968 0336 14       		.uleb128 0x14
 1969 0337 6C656E00 		.ascii	"len\000"
 1970 033b 01       		.byte	0x1
 1971 033c 8601     		.2byte	0x186
 1972 033e 77000000 		.4byte	0x77
 1973 0342 00       		.byte	0
 1974 0343 09       		.uleb128 0x9
 1975 0344 04       		.byte	0x4
 1976 0345 49030000 		.4byte	0x349
 1977 0349 15       		.uleb128 0x15
 1978 034a 9D000000 		.4byte	0x9d
 1979 034e 16       		.uleb128 0x16
 1980 034f FE060000 		.4byte	.LASF54
 1981 0353 01       		.byte	0x1
 1982 0354 9B       		.byte	0x9b
 1983 0355 6B000000 		.4byte	0x6b
ARM GAS  C:\Users\ingan\AppData\Local\Temp\cc00nNWn.s 			page 57


 1984 0359 00000000 		.4byte	.LFB0
 1985 035d B8000000 		.4byte	.LFE0-.LFB0
 1986 0361 01       		.uleb128 0x1
 1987 0362 9C       		.byte	0x9c
 1988 0363 DB030000 		.4byte	0x3db
 1989 0367 17       		.uleb128 0x17
 1990 0368 5C060000 		.4byte	.LASF56
 1991 036c 01       		.byte	0x1
 1992 036d 9D       		.byte	0x9d
 1993 036e 6B000000 		.4byte	0x6b
 1994 0372 00000000 		.4byte	.LLST0
 1995 0376 10       		.uleb128 0x10
 1996 0377 58040000 		.4byte	.LASF51
 1997 037b 01       		.byte	0x1
 1998 037c 9E       		.byte	0x9e
 1999 037d 6B000000 		.4byte	0x6b
 2000 0381 18       		.uleb128 0x18
 2001 0382 DC020000 		.4byte	0x2dc
 2002 0386 02000000 		.4byte	.LBB6
 2003 038a 00000000 		.4byte	.Ldebug_ranges0+0
 2004 038e 01       		.byte	0x1
 2005 038f A0       		.byte	0xa0
 2006 0390 BF030000 		.4byte	0x3bf
 2007 0394 19       		.uleb128 0x19
 2008 0395 EC020000 		.4byte	0x2ec
 2009 0399 20000000 		.4byte	.LLST1
 2010 039d 1A       		.uleb128 0x1a
 2011 039e 00000000 		.4byte	.Ldebug_ranges0+0
 2012 03a2 1B       		.uleb128 0x1b
 2013 03a3 F7020000 		.4byte	0x2f7
 2014 03a7 3E000000 		.4byte	.LLST2
 2015 03ab 1B       		.uleb128 0x1b
 2016 03ac 02030000 		.4byte	0x302
 2017 03b0 6A000000 		.4byte	.LLST3
 2018 03b4 1B       		.uleb128 0x1b
 2019 03b5 0D030000 		.4byte	0x30d
 2020 03b9 8C000000 		.4byte	.LLST4
 2021 03bd 00       		.byte	0
 2022 03be 00       		.byte	0
 2023 03bf 1C       		.uleb128 0x1c
 2024 03c0 5A000000 		.4byte	.LVL6
 2025 03c4 6B0B0000 		.4byte	0xb6b
 2026 03c8 1C       		.uleb128 0x1c
 2027 03c9 7C000000 		.4byte	.LVL7
 2028 03cd 760B0000 		.4byte	0xb76
 2029 03d1 1C       		.uleb128 0x1c
 2030 03d2 9C000000 		.4byte	.LVL12
 2031 03d6 810B0000 		.4byte	0xb81
 2032 03da 00       		.byte	0
 2033 03db 1D       		.uleb128 0x1d
 2034 03dc DC020000 		.4byte	0x2dc
 2035 03e0 00000000 		.4byte	.LFB1
 2036 03e4 38000000 		.4byte	.LFE1-.LFB1
 2037 03e8 01       		.uleb128 0x1
 2038 03e9 9C       		.byte	0x9c
 2039 03ea 13040000 		.4byte	0x413
 2040 03ee 19       		.uleb128 0x19
ARM GAS  C:\Users\ingan\AppData\Local\Temp\cc00nNWn.s 			page 58


 2041 03ef EC020000 		.4byte	0x2ec
 2042 03f3 9F000000 		.4byte	.LLST5
 2043 03f7 1B       		.uleb128 0x1b
 2044 03f8 F7020000 		.4byte	0x2f7
 2045 03fc D9000000 		.4byte	.LLST6
 2046 0400 1B       		.uleb128 0x1b
 2047 0401 02030000 		.4byte	0x302
 2048 0405 05010000 		.4byte	.LLST7
 2049 0409 1B       		.uleb128 0x1b
 2050 040a 0D030000 		.4byte	0x30d
 2051 040e 25010000 		.4byte	.LLST8
 2052 0412 00       		.byte	0
 2053 0413 1E       		.uleb128 0x1e
 2054 0414 83050000 		.4byte	.LASF55
 2055 0418 01       		.byte	0x1
 2056 0419 2501     		.2byte	0x125
 2057 041b 6B000000 		.4byte	0x6b
 2058 041f 00000000 		.4byte	.LFB2
 2059 0423 74000000 		.4byte	.LFE2-.LFB2
 2060 0427 01       		.uleb128 0x1
 2061 0428 9C       		.byte	0x9c
 2062 0429 70040000 		.4byte	0x470
 2063 042d 1F       		.uleb128 0x1f
 2064 042e 58040000 		.4byte	.LASF51
 2065 0432 01       		.byte	0x1
 2066 0433 2701     		.2byte	0x127
 2067 0435 6B000000 		.4byte	0x6b
 2068 0439 43010000 		.4byte	.LLST9
 2069 043d 1F       		.uleb128 0x1f
 2070 043e F5040000 		.4byte	.LASF57
 2071 0442 01       		.byte	0x1
 2072 0443 2801     		.2byte	0x128
 2073 0445 6B000000 		.4byte	0x6b
 2074 0449 87010000 		.4byte	.LLST10
 2075 044d 20       		.uleb128 0x20
 2076 044e 72657400 		.ascii	"ret\000"
 2077 0452 01       		.byte	0x1
 2078 0453 2901     		.2byte	0x129
 2079 0455 6B000000 		.4byte	0x6b
 2080 0459 BB010000 		.4byte	.LLST11
 2081 045d 21       		.uleb128 0x21
 2082 045e 58000000 		.4byte	.LVL31
 2083 0462 8C0B0000 		.4byte	0xb8c
 2084 0466 21       		.uleb128 0x21
 2085 0467 5E000000 		.4byte	.LVL33
 2086 046b 8C0B0000 		.4byte	0xb8c
 2087 046f 00       		.byte	0
 2088 0470 22       		.uleb128 0x22
 2089 0471 91010000 		.4byte	.LASF59
 2090 0475 01       		.byte	0x1
 2091 0476 6601     		.2byte	0x166
 2092 0478 00000000 		.4byte	.LFB3
 2093 047c 3C000000 		.4byte	.LFE3-.LFB3
 2094 0480 01       		.uleb128 0x1
 2095 0481 9C       		.byte	0x9c
 2096 0482 C8040000 		.4byte	0x4c8
 2097 0486 23       		.uleb128 0x23
ARM GAS  C:\Users\ingan\AppData\Local\Temp\cc00nNWn.s 			page 59


 2098 0487 2D020000 		.4byte	.LASF36
 2099 048b 01       		.byte	0x1
 2100 048c 6601     		.2byte	0x166
 2101 048e C8040000 		.4byte	0x4c8
 2102 0492 E6010000 		.4byte	.LLST12
 2103 0496 23       		.uleb128 0x23
 2104 0497 F0060000 		.4byte	.LASF33
 2105 049b 01       		.byte	0x1
 2106 049c 6601     		.2byte	0x166
 2107 049e 77000000 		.4byte	0x77
 2108 04a2 12020000 		.4byte	.LLST13
 2109 04a6 1F       		.uleb128 0x1f
 2110 04a7 DF000000 		.4byte	.LASF58
 2111 04ab 01       		.byte	0x1
 2112 04ac 6801     		.2byte	0x168
 2113 04ae 6B000000 		.4byte	0x6b
 2114 04b2 3E020000 		.4byte	.LLST14
 2115 04b6 24       		.uleb128 0x24
 2116 04b7 30000000 		.4byte	.LVL39
 2117 04bb 980B0000 		.4byte	0xb98
 2118 04bf 25       		.uleb128 0x25
 2119 04c0 01       		.uleb128 0x1
 2120 04c1 51       		.byte	0x51
 2121 04c2 03       		.uleb128 0x3
 2122 04c3 F3       		.byte	0xf3
 2123 04c4 01       		.uleb128 0x1
 2124 04c5 50       		.byte	0x50
 2125 04c6 00       		.byte	0
 2126 04c7 00       		.byte	0
 2127 04c8 09       		.uleb128 0x9
 2128 04c9 04       		.byte	0x4
 2129 04ca CE040000 		.4byte	0x4ce
 2130 04ce 15       		.uleb128 0x15
 2131 04cf 6B000000 		.4byte	0x6b
 2132 04d3 22       		.uleb128 0x22
 2133 04d4 89040000 		.4byte	.LASF60
 2134 04d8 01       		.byte	0x1
 2135 04d9 A901     		.2byte	0x1a9
 2136 04db 00000000 		.4byte	.LFB5
 2137 04df 9C000000 		.4byte	.LFE5-.LFB5
 2138 04e3 01       		.uleb128 0x1
 2139 04e4 9C       		.byte	0x9c
 2140 04e5 B2050000 		.4byte	0x5b2
 2141 04e9 23       		.uleb128 0x23
 2142 04ea 5C000000 		.4byte	.LASF53
 2143 04ee 01       		.byte	0x1
 2144 04ef A901     		.2byte	0x1a9
 2145 04f1 43030000 		.4byte	0x343
 2146 04f5 51020000 		.4byte	.LLST15
 2147 04f9 1F       		.uleb128 0x1f
 2148 04fa 07030000 		.4byte	.LASF61
 2149 04fe 01       		.byte	0x1
 2150 04ff AB01     		.2byte	0x1ab
 2151 0501 77000000 		.4byte	0x77
 2152 0505 88020000 		.4byte	.LLST16
 2153 0509 1F       		.uleb128 0x1f
 2154 050a 9A070000 		.4byte	.LASF62
ARM GAS  C:\Users\ingan\AppData\Local\Temp\cc00nNWn.s 			page 60


 2155 050e 01       		.byte	0x1
 2156 050f AC01     		.2byte	0x1ac
 2157 0511 77000000 		.4byte	0x77
 2158 0515 C8020000 		.4byte	.LLST17
 2159 0519 1F       		.uleb128 0x1f
 2160 051a EF020000 		.4byte	.LASF63
 2161 051e 01       		.byte	0x1
 2162 051f AD01     		.2byte	0x1ad
 2163 0521 77000000 		.4byte	0x77
 2164 0525 F1020000 		.4byte	.LLST18
 2165 0529 1F       		.uleb128 0x1f
 2166 052a DF000000 		.4byte	.LASF58
 2167 052e 01       		.byte	0x1
 2168 052f AF01     		.2byte	0x1af
 2169 0531 6B000000 		.4byte	0x6b
 2170 0535 1B030000 		.4byte	.LLST19
 2171 0539 26       		.uleb128 0x26
 2172 053a 19030000 		.4byte	0x319
 2173 053e 0A000000 		.4byte	.LBB14
 2174 0542 28000000 		.4byte	.Ldebug_ranges0+0x28
 2175 0546 01       		.byte	0x1
 2176 0547 B201     		.2byte	0x1b2
 2177 0549 66050000 		.4byte	0x566
 2178 054d 19       		.uleb128 0x19
 2179 054e 2A030000 		.4byte	0x32a
 2180 0552 44030000 		.4byte	.LLST20
 2181 0556 1A       		.uleb128 0x1a
 2182 0557 28000000 		.4byte	.Ldebug_ranges0+0x28
 2183 055b 1B       		.uleb128 0x1b
 2184 055c 36030000 		.4byte	0x336
 2185 0560 7B030000 		.4byte	.LLST21
 2186 0564 00       		.byte	0
 2187 0565 00       		.byte	0
 2188 0566 27       		.uleb128 0x27
 2189 0567 4C000000 		.4byte	.LVL49
 2190 056b 980B0000 		.4byte	0xb98
 2191 056f 89050000 		.4byte	0x589
 2192 0573 25       		.uleb128 0x25
 2193 0574 01       		.uleb128 0x1
 2194 0575 50       		.byte	0x50
 2195 0576 02       		.uleb128 0x2
 2196 0577 77       		.byte	0x77
 2197 0578 00       		.sleb128 0
 2198 0579 25       		.uleb128 0x25
 2199 057a 01       		.uleb128 0x1
 2200 057b 51       		.byte	0x51
 2201 057c 05       		.uleb128 0x5
 2202 057d 78       		.byte	0x78
 2203 057e 00       		.sleb128 0
 2204 057f 79       		.byte	0x79
 2205 0580 00       		.sleb128 0
 2206 0581 22       		.byte	0x22
 2207 0582 25       		.uleb128 0x25
 2208 0583 01       		.uleb128 0x1
 2209 0584 52       		.byte	0x52
 2210 0585 02       		.uleb128 0x2
 2211 0586 76       		.byte	0x76
ARM GAS  C:\Users\ingan\AppData\Local\Temp\cc00nNWn.s 			page 61


 2212 0587 00       		.sleb128 0
 2213 0588 00       		.byte	0
 2214 0589 1C       		.uleb128 0x1c
 2215 058a 6C000000 		.4byte	.LVL53
 2216 058e 980B0000 		.4byte	0xb98
 2217 0592 28       		.uleb128 0x28
 2218 0593 78000000 		.4byte	.LVL54
 2219 0597 980B0000 		.4byte	0xb98
 2220 059b 25       		.uleb128 0x25
 2221 059c 01       		.uleb128 0x1
 2222 059d 50       		.byte	0x50
 2223 059e 02       		.uleb128 0x2
 2224 059f 77       		.byte	0x77
 2225 05a0 00       		.sleb128 0
 2226 05a1 25       		.uleb128 0x25
 2227 05a2 01       		.uleb128 0x1
 2228 05a3 51       		.byte	0x51
 2229 05a4 05       		.uleb128 0x5
 2230 05a5 78       		.byte	0x78
 2231 05a6 00       		.sleb128 0
 2232 05a7 79       		.byte	0x79
 2233 05a8 00       		.sleb128 0
 2234 05a9 22       		.byte	0x22
 2235 05aa 25       		.uleb128 0x25
 2236 05ab 01       		.uleb128 0x1
 2237 05ac 52       		.byte	0x52
 2238 05ad 02       		.uleb128 0x2
 2239 05ae 74       		.byte	0x74
 2240 05af 00       		.sleb128 0
 2241 05b0 00       		.byte	0
 2242 05b1 00       		.byte	0
 2243 05b2 22       		.uleb128 0x22
 2244 05b3 A8040000 		.4byte	.LASF64
 2245 05b7 01       		.byte	0x1
 2246 05b8 E801     		.2byte	0x1e8
 2247 05ba 00000000 		.4byte	.LFB6
 2248 05be 28000000 		.4byte	.LFE6-.LFB6
 2249 05c2 01       		.uleb128 0x1
 2250 05c3 9C       		.byte	0x9c
 2251 05c4 FD050000 		.4byte	0x5fd
 2252 05c8 23       		.uleb128 0x23
 2253 05c9 51000000 		.4byte	.LASF65
 2254 05cd 01       		.byte	0x1
 2255 05ce E801     		.2byte	0x1e8
 2256 05d0 9D000000 		.4byte	0x9d
 2257 05d4 A5030000 		.4byte	.LLST22
 2258 05d8 29       		.uleb128 0x29
 2259 05d9 DB030000 		.4byte	.LASF66
 2260 05dd 01       		.byte	0x1
 2261 05de EA01     		.2byte	0x1ea
 2262 05e0 6B000000 		.4byte	0x6b
 2263 05e4 02       		.uleb128 0x2
 2264 05e5 91       		.byte	0x91
 2265 05e6 77       		.sleb128 -9
 2266 05e7 28       		.uleb128 0x28
 2267 05e8 18000000 		.4byte	.LVL61
 2268 05ec 980B0000 		.4byte	0xb98
ARM GAS  C:\Users\ingan\AppData\Local\Temp\cc00nNWn.s 			page 62


 2269 05f0 25       		.uleb128 0x25
 2270 05f1 01       		.uleb128 0x1
 2271 05f2 51       		.byte	0x51
 2272 05f3 02       		.uleb128 0x2
 2273 05f4 91       		.byte	0x91
 2274 05f5 77       		.sleb128 -9
 2275 05f6 25       		.uleb128 0x25
 2276 05f7 01       		.uleb128 0x1
 2277 05f8 52       		.byte	0x52
 2278 05f9 01       		.uleb128 0x1
 2279 05fa 31       		.byte	0x31
 2280 05fb 00       		.byte	0
 2281 05fc 00       		.byte	0
 2282 05fd 22       		.uleb128 0x22
 2283 05fe 55050000 		.4byte	.LASF67
 2284 0602 01       		.byte	0x1
 2285 0603 0102     		.2byte	0x201
 2286 0605 00000000 		.4byte	.LFB7
 2287 0609 30000000 		.4byte	.LFE7-.LFB7
 2288 060d 01       		.uleb128 0x1
 2289 060e 9C       		.byte	0x9c
 2290 060f 38060000 		.4byte	0x638
 2291 0613 29       		.uleb128 0x29
 2292 0614 A5070000 		.4byte	.LASF68
 2293 0618 01       		.byte	0x1
 2294 0619 0302     		.2byte	0x203
 2295 061b 48060000 		.4byte	0x648
 2296 061f 02       		.uleb128 0x2
 2297 0620 91       		.byte	0x91
 2298 0621 74       		.sleb128 -12
 2299 0622 28       		.uleb128 0x28
 2300 0623 1C000000 		.4byte	.LVL62
 2301 0627 980B0000 		.4byte	0xb98
 2302 062b 25       		.uleb128 0x25
 2303 062c 01       		.uleb128 0x1
 2304 062d 51       		.byte	0x51
 2305 062e 02       		.uleb128 0x2
 2306 062f 91       		.byte	0x91
 2307 0630 74       		.sleb128 -12
 2308 0631 25       		.uleb128 0x25
 2309 0632 01       		.uleb128 0x1
 2310 0633 52       		.byte	0x52
 2311 0634 01       		.uleb128 0x1
 2312 0635 32       		.byte	0x32
 2313 0636 00       		.byte	0
 2314 0637 00       		.byte	0
 2315 0638 0A       		.uleb128 0xa
 2316 0639 CE040000 		.4byte	0x4ce
 2317 063d 48060000 		.4byte	0x648
 2318 0641 0B       		.uleb128 0xb
 2319 0642 C1000000 		.4byte	0xc1
 2320 0646 01       		.byte	0x1
 2321 0647 00       		.byte	0
 2322 0648 15       		.uleb128 0x15
 2323 0649 38060000 		.4byte	0x638
 2324 064d 1E       		.uleb128 0x1e
 2325 064e 0D040000 		.4byte	.LASF69
ARM GAS  C:\Users\ingan\AppData\Local\Temp\cc00nNWn.s 			page 63


 2326 0652 01       		.byte	0x1
 2327 0653 1B02     		.2byte	0x21b
 2328 0655 77000000 		.4byte	0x77
 2329 0659 00000000 		.4byte	.LFB8
 2330 065d 30000000 		.4byte	.LFE8-.LFB8
 2331 0661 01       		.uleb128 0x1
 2332 0662 9C       		.byte	0x9c
 2333 0663 91060000 		.4byte	0x691
 2334 0667 1F       		.uleb128 0x1f
 2335 0668 6B060000 		.4byte	.LASF70
 2336 066c 01       		.byte	0x1
 2337 066d 1D02     		.2byte	0x21d
 2338 066f 77000000 		.4byte	0x77
 2339 0673 D2030000 		.4byte	.LLST23
 2340 0677 1F       		.uleb128 0x1f
 2341 0678 DF000000 		.4byte	.LASF58
 2342 067c 01       		.byte	0x1
 2343 067d 1F02     		.2byte	0x21f
 2344 067f 6B000000 		.4byte	0x6b
 2345 0683 E6030000 		.4byte	.LLST24
 2346 0687 1C       		.uleb128 0x1c
 2347 0688 22000000 		.4byte	.LVL67
 2348 068c A40B0000 		.4byte	0xba4
 2349 0690 00       		.byte	0
 2350 0691 1E       		.uleb128 0x1e
 2351 0692 80020000 		.4byte	.LASF71
 2352 0696 01       		.byte	0x1
 2353 0697 4102     		.2byte	0x241
 2354 0699 6B000000 		.4byte	0x6b
 2355 069d 00000000 		.4byte	.LFB9
 2356 06a1 14000000 		.4byte	.LFE9-.LFB9
 2357 06a5 01       		.uleb128 0x1
 2358 06a6 9C       		.byte	0x9c
 2359 06a7 B5060000 		.4byte	0x6b5
 2360 06ab 1C       		.uleb128 0x1c
 2361 06ac 0C000000 		.4byte	.LVL68
 2362 06b0 B00B0000 		.4byte	0xbb0
 2363 06b4 00       		.byte	0
 2364 06b5 1E       		.uleb128 0x1e
 2365 06b6 47010000 		.4byte	.LASF72
 2366 06ba 01       		.byte	0x1
 2367 06bb 5A02     		.2byte	0x25a
 2368 06bd 6B000000 		.4byte	0x6b
 2369 06c1 00000000 		.4byte	.LFB10
 2370 06c5 14000000 		.4byte	.LFE10-.LFB10
 2371 06c9 01       		.uleb128 0x1
 2372 06ca 9C       		.byte	0x9c
 2373 06cb D9060000 		.4byte	0x6d9
 2374 06cf 1C       		.uleb128 0x1c
 2375 06d0 0C000000 		.4byte	.LVL69
 2376 06d4 B00B0000 		.4byte	0xbb0
 2377 06d8 00       		.byte	0
 2378 06d9 1E       		.uleb128 0x1e
 2379 06da B6060000 		.4byte	.LASF73
 2380 06de 01       		.byte	0x1
 2381 06df 7D02     		.2byte	0x27d
 2382 06e1 77000000 		.4byte	0x77
ARM GAS  C:\Users\ingan\AppData\Local\Temp\cc00nNWn.s 			page 64


 2383 06e5 00000000 		.4byte	.LFB11
 2384 06e9 34000000 		.4byte	.LFE11-.LFB11
 2385 06ed 01       		.uleb128 0x1
 2386 06ee 9C       		.byte	0x9c
 2387 06ef 63070000 		.4byte	0x763
 2388 06f3 23       		.uleb128 0x23
 2389 06f4 2D020000 		.4byte	.LASF36
 2390 06f8 01       		.byte	0x1
 2391 06f9 7D02     		.2byte	0x27d
 2392 06fb 63070000 		.4byte	0x763
 2393 06ff 04040000 		.4byte	.LLST25
 2394 0703 23       		.uleb128 0x23
 2395 0704 F0060000 		.4byte	.LASF33
 2396 0708 01       		.byte	0x1
 2397 0709 7D02     		.2byte	0x27d
 2398 070b 77000000 		.4byte	0x77
 2399 070f 30040000 		.4byte	.LLST26
 2400 0713 1F       		.uleb128 0x1f
 2401 0714 DF000000 		.4byte	.LASF58
 2402 0718 01       		.byte	0x1
 2403 0719 7F02     		.2byte	0x27f
 2404 071b 6B000000 		.4byte	0x6b
 2405 071f 5C040000 		.4byte	.LLST27
 2406 0723 27       		.uleb128 0x27
 2407 0724 16000000 		.4byte	.LVL74
 2408 0728 BC0B0000 		.4byte	0xbbc
 2409 072c 3E070000 		.4byte	0x73e
 2410 0730 25       		.uleb128 0x25
 2411 0731 01       		.uleb128 0x1
 2412 0732 50       		.byte	0x50
 2413 0733 02       		.uleb128 0x2
 2414 0734 74       		.byte	0x74
 2415 0735 00       		.sleb128 0
 2416 0736 25       		.uleb128 0x25
 2417 0737 01       		.uleb128 0x1
 2418 0738 51       		.byte	0x51
 2419 0739 03       		.uleb128 0x3
 2420 073a F3       		.byte	0xf3
 2421 073b 01       		.uleb128 0x1
 2422 073c 50       		.byte	0x50
 2423 073d 00       		.byte	0
 2424 073e 27       		.uleb128 0x27
 2425 073f 1E000000 		.4byte	.LVL76
 2426 0743 B00B0000 		.4byte	0xbb0
 2427 0747 52070000 		.4byte	0x752
 2428 074b 25       		.uleb128 0x25
 2429 074c 01       		.uleb128 0x1
 2430 074d 50       		.byte	0x50
 2431 074e 02       		.uleb128 0x2
 2432 074f 74       		.byte	0x74
 2433 0750 00       		.sleb128 0
 2434 0751 00       		.byte	0
 2435 0752 28       		.uleb128 0x28
 2436 0753 28000000 		.4byte	.LVL77
 2437 0757 8C0B0000 		.4byte	0xb8c
 2438 075b 25       		.uleb128 0x25
 2439 075c 01       		.uleb128 0x1
ARM GAS  C:\Users\ingan\AppData\Local\Temp\cc00nNWn.s 			page 65


 2440 075d 50       		.byte	0x50
 2441 075e 02       		.uleb128 0x2
 2442 075f 74       		.byte	0x74
 2443 0760 00       		.sleb128 0
 2444 0761 00       		.byte	0
 2445 0762 00       		.byte	0
 2446 0763 09       		.uleb128 0x9
 2447 0764 04       		.byte	0x4
 2448 0765 6B000000 		.4byte	0x6b
 2449 0769 1E       		.uleb128 0x1e
 2450 076a F8020000 		.4byte	.LASF74
 2451 076e 01       		.byte	0x1
 2452 076f AA02     		.2byte	0x2aa
 2453 0771 77000000 		.4byte	0x77
 2454 0775 00000000 		.4byte	.LFB12
 2455 0779 44000000 		.4byte	.LFE12-.LFB12
 2456 077d 01       		.uleb128 0x1
 2457 077e 9C       		.byte	0x9c
 2458 077f F3070000 		.4byte	0x7f3
 2459 0783 23       		.uleb128 0x23
 2460 0784 2D020000 		.4byte	.LASF36
 2461 0788 01       		.byte	0x1
 2462 0789 AA02     		.2byte	0x2aa
 2463 078b 63070000 		.4byte	0x763
 2464 078f 6F040000 		.4byte	.LLST28
 2465 0793 1F       		.uleb128 0x1f
 2466 0794 DF000000 		.4byte	.LASF58
 2467 0798 01       		.byte	0x1
 2468 0799 AC02     		.2byte	0x2ac
 2469 079b 6B000000 		.4byte	0x6b
 2470 079f 9B040000 		.4byte	.LLST29
 2471 07a3 1F       		.uleb128 0x1f
 2472 07a4 C1010000 		.4byte	.LASF75
 2473 07a8 01       		.byte	0x1
 2474 07a9 AD02     		.2byte	0x2ad
 2475 07ab 77000000 		.4byte	0x77
 2476 07af AE040000 		.4byte	.LLST30
 2477 07b3 27       		.uleb128 0x27
 2478 07b4 22000000 		.4byte	.LVL82
 2479 07b8 BC0B0000 		.4byte	0xbbc
 2480 07bc CE070000 		.4byte	0x7ce
 2481 07c0 25       		.uleb128 0x25
 2482 07c1 01       		.uleb128 0x1
 2483 07c2 50       		.byte	0x50
 2484 07c3 02       		.uleb128 0x2
 2485 07c4 74       		.byte	0x74
 2486 07c5 00       		.sleb128 0
 2487 07c6 25       		.uleb128 0x25
 2488 07c7 01       		.uleb128 0x1
 2489 07c8 51       		.byte	0x51
 2490 07c9 03       		.uleb128 0x3
 2491 07ca F3       		.byte	0xf3
 2492 07cb 01       		.uleb128 0x1
 2493 07cc 50       		.byte	0x50
 2494 07cd 00       		.byte	0
 2495 07ce 27       		.uleb128 0x27
 2496 07cf 2A000000 		.4byte	.LVL84
ARM GAS  C:\Users\ingan\AppData\Local\Temp\cc00nNWn.s 			page 66


 2497 07d3 B00B0000 		.4byte	0xbb0
 2498 07d7 E2070000 		.4byte	0x7e2
 2499 07db 25       		.uleb128 0x25
 2500 07dc 01       		.uleb128 0x1
 2501 07dd 50       		.byte	0x50
 2502 07de 02       		.uleb128 0x2
 2503 07df 74       		.byte	0x74
 2504 07e0 00       		.sleb128 0
 2505 07e1 00       		.byte	0
 2506 07e2 28       		.uleb128 0x28
 2507 07e3 34000000 		.4byte	.LVL85
 2508 07e7 8C0B0000 		.4byte	0xb8c
 2509 07eb 25       		.uleb128 0x25
 2510 07ec 01       		.uleb128 0x1
 2511 07ed 50       		.byte	0x50
 2512 07ee 02       		.uleb128 0x2
 2513 07ef 74       		.byte	0x74
 2514 07f0 00       		.sleb128 0
 2515 07f1 00       		.byte	0
 2516 07f2 00       		.byte	0
 2517 07f3 1E       		.uleb128 0x1e
 2518 07f4 81010000 		.4byte	.LASF76
 2519 07f8 01       		.byte	0x1
 2520 07f9 D102     		.2byte	0x2d1
 2521 07fb 6B000000 		.4byte	0x6b
 2522 07ff 00000000 		.4byte	.LFB13
 2523 0803 3C000000 		.4byte	.LFE13-.LFB13
 2524 0807 01       		.uleb128 0x1
 2525 0808 9C       		.byte	0x9c
 2526 0809 70080000 		.4byte	0x870
 2527 080d 29       		.uleb128 0x29
 2528 080e 70050000 		.4byte	.LASF77
 2529 0812 01       		.byte	0x1
 2530 0813 D302     		.2byte	0x2d3
 2531 0815 6B000000 		.4byte	0x6b
 2532 0819 02       		.uleb128 0x2
 2533 081a 91       		.byte	0x91
 2534 081b 77       		.sleb128 -9
 2535 081c 1F       		.uleb128 0x1f
 2536 081d DF000000 		.4byte	.LASF58
 2537 0821 01       		.byte	0x1
 2538 0822 D402     		.2byte	0x2d4
 2539 0824 6B000000 		.4byte	0x6b
 2540 0828 C1040000 		.4byte	.LLST31
 2541 082c 27       		.uleb128 0x27
 2542 082d 1A000000 		.4byte	.LVL88
 2543 0831 BC0B0000 		.4byte	0xbbc
 2544 0835 4B080000 		.4byte	0x84b
 2545 0839 25       		.uleb128 0x25
 2546 083a 01       		.uleb128 0x1
 2547 083b 50       		.byte	0x50
 2548 083c 02       		.uleb128 0x2
 2549 083d 74       		.byte	0x74
 2550 083e 00       		.sleb128 0
 2551 083f 25       		.uleb128 0x25
 2552 0840 01       		.uleb128 0x1
 2553 0841 51       		.byte	0x51
ARM GAS  C:\Users\ingan\AppData\Local\Temp\cc00nNWn.s 			page 67


 2554 0842 02       		.uleb128 0x2
 2555 0843 91       		.byte	0x91
 2556 0844 77       		.sleb128 -9
 2557 0845 25       		.uleb128 0x25
 2558 0846 01       		.uleb128 0x1
 2559 0847 52       		.byte	0x52
 2560 0848 01       		.uleb128 0x1
 2561 0849 31       		.byte	0x31
 2562 084a 00       		.byte	0
 2563 084b 27       		.uleb128 0x27
 2564 084c 20000000 		.4byte	.LVL89
 2565 0850 B00B0000 		.4byte	0xbb0
 2566 0854 5F080000 		.4byte	0x85f
 2567 0858 25       		.uleb128 0x25
 2568 0859 01       		.uleb128 0x1
 2569 085a 50       		.byte	0x50
 2570 085b 02       		.uleb128 0x2
 2571 085c 74       		.byte	0x74
 2572 085d 00       		.sleb128 0
 2573 085e 00       		.byte	0
 2574 085f 28       		.uleb128 0x28
 2575 0860 2A000000 		.4byte	.LVL90
 2576 0864 8C0B0000 		.4byte	0xb8c
 2577 0868 25       		.uleb128 0x25
 2578 0869 01       		.uleb128 0x1
 2579 086a 50       		.byte	0x50
 2580 086b 02       		.uleb128 0x2
 2581 086c 74       		.byte	0x74
 2582 086d 00       		.sleb128 0
 2583 086e 00       		.byte	0
 2584 086f 00       		.byte	0
 2585 0870 1E       		.uleb128 0x1e
 2586 0871 5D020000 		.4byte	.LASF78
 2587 0875 01       		.byte	0x1
 2588 0876 0203     		.2byte	0x302
 2589 0878 6B000000 		.4byte	0x6b
 2590 087c 00000000 		.4byte	.LFB14
 2591 0880 34000000 		.4byte	.LFE14-.LFB14
 2592 0884 01       		.uleb128 0x1
 2593 0885 9C       		.byte	0x9c
 2594 0886 9B080000 		.4byte	0x89b
 2595 088a 1F       		.uleb128 0x1f
 2596 088b 5A010000 		.4byte	.LASF79
 2597 088f 01       		.byte	0x1
 2598 0890 0403     		.2byte	0x304
 2599 0892 6B000000 		.4byte	0x6b
 2600 0896 D4040000 		.4byte	.LLST32
 2601 089a 00       		.byte	0
 2602 089b 1E       		.uleb128 0x1e
 2603 089c 29070000 		.4byte	.LASF80
 2604 08a0 01       		.byte	0x1
 2605 08a1 2303     		.2byte	0x323
 2606 08a3 83000000 		.4byte	0x83
 2607 08a7 00000000 		.4byte	.LFB15
 2608 08ab 30000000 		.4byte	.LFE15-.LFB15
 2609 08af 01       		.uleb128 0x1
 2610 08b0 9C       		.byte	0x9c
ARM GAS  C:\Users\ingan\AppData\Local\Temp\cc00nNWn.s 			page 68


 2611 08b1 C6080000 		.4byte	0x8c6
 2612 08b5 1F       		.uleb128 0x1f
 2613 08b6 16010000 		.4byte	.LASF81
 2614 08ba 01       		.byte	0x1
 2615 08bb 2503     		.2byte	0x325
 2616 08bd 83000000 		.4byte	0x83
 2617 08c1 FF040000 		.4byte	.LLST33
 2618 08c5 00       		.byte	0
 2619 08c6 2A       		.uleb128 0x2a
 2620 08c7 D5040000 		.4byte	.LASF82
 2621 08cb 01       		.byte	0x1
 2622 08cc 4303     		.2byte	0x343
 2623 08ce 6B000000 		.4byte	0x6b
 2624 08d2 00000000 		.4byte	.LFB16
 2625 08d6 18000000 		.4byte	.LFE16-.LFB16
 2626 08da 01       		.uleb128 0x1
 2627 08db 9C       		.byte	0x9c
 2628 08dc 2A       		.uleb128 0x2a
 2629 08dd B3020000 		.4byte	.LASF83
 2630 08e1 01       		.byte	0x1
 2631 08e2 5D03     		.2byte	0x35d
 2632 08e4 6B000000 		.4byte	0x6b
 2633 08e8 00000000 		.4byte	.LFB17
 2634 08ec 18000000 		.4byte	.LFE17-.LFB17
 2635 08f0 01       		.uleb128 0x1
 2636 08f1 9C       		.byte	0x9c
 2637 08f2 2A       		.uleb128 0x2a
 2638 08f3 60040000 		.4byte	.LASF84
 2639 08f7 01       		.byte	0x1
 2640 08f8 7103     		.2byte	0x371
 2641 08fa 6B000000 		.4byte	0x6b
 2642 08fe 00000000 		.4byte	.LFB18
 2643 0902 18000000 		.4byte	.LFE18-.LFB18
 2644 0906 01       		.uleb128 0x1
 2645 0907 9C       		.byte	0x9c
 2646 0908 2A       		.uleb128 0x2a
 2647 0909 E9010000 		.4byte	.LASF85
 2648 090d 01       		.byte	0x1
 2649 090e 8E03     		.2byte	0x38e
 2650 0910 77000000 		.4byte	0x77
 2651 0914 00000000 		.4byte	.LFB19
 2652 0918 18000000 		.4byte	.LFE19-.LFB19
 2653 091c 01       		.uleb128 0x1
 2654 091d 9C       		.byte	0x9c
 2655 091e 22       		.uleb128 0x22
 2656 091f 1E040000 		.4byte	.LASF86
 2657 0923 01       		.byte	0x1
 2658 0924 A603     		.2byte	0x3a6
 2659 0926 00000000 		.4byte	.LFB20
 2660 092a 60000000 		.4byte	.LFE20-.LFB20
 2661 092e 01       		.uleb128 0x1
 2662 092f 9C       		.byte	0x9c
 2663 0930 6D090000 		.4byte	0x96d
 2664 0934 23       		.uleb128 0x23
 2665 0935 77050000 		.4byte	.LASF87
 2666 0939 01       		.byte	0x1
 2667 093a A603     		.2byte	0x3a6
ARM GAS  C:\Users\ingan\AppData\Local\Temp\cc00nNWn.s 			page 69


 2668 093c 77000000 		.4byte	0x77
 2669 0940 53050000 		.4byte	.LLST34
 2670 0944 1F       		.uleb128 0x1f
 2671 0945 DF000000 		.4byte	.LASF58
 2672 0949 01       		.byte	0x1
 2673 094a A803     		.2byte	0x3a8
 2674 094c 6B000000 		.4byte	0x6b
 2675 0950 B5050000 		.4byte	.LLST35
 2676 0954 24       		.uleb128 0x24
 2677 0955 4C000000 		.4byte	.LVL106
 2678 0959 980B0000 		.4byte	0xb98
 2679 095d 25       		.uleb128 0x25
 2680 095e 01       		.uleb128 0x1
 2681 095f 51       		.byte	0x51
 2682 0960 05       		.uleb128 0x5
 2683 0961 03       		.byte	0x3
 2684 0962 10000000 		.4byte	.LANCHOR0+16
 2685 0966 25       		.uleb128 0x25
 2686 0967 01       		.uleb128 0x1
 2687 0968 52       		.byte	0x52
 2688 0969 01       		.uleb128 0x1
 2689 096a 3A       		.byte	0x3a
 2690 096b 00       		.byte	0
 2691 096c 00       		.byte	0
 2692 096d 2A       		.uleb128 0x2a
 2693 096e AC070000 		.4byte	.LASF88
 2694 0972 01       		.byte	0x1
 2695 0973 C703     		.2byte	0x3c7
 2696 0975 77000000 		.4byte	0x77
 2697 0979 00000000 		.4byte	.LFB21
 2698 097d 18000000 		.4byte	.LFE21-.LFB21
 2699 0981 01       		.uleb128 0x1
 2700 0982 9C       		.byte	0x9c
 2701 0983 2A       		.uleb128 0x2a
 2702 0984 41020000 		.4byte	.LASF89
 2703 0988 01       		.byte	0x1
 2704 0989 DF03     		.2byte	0x3df
 2705 098b 6B000000 		.4byte	0x6b
 2706 098f 00000000 		.4byte	.LFB22
 2707 0993 24000000 		.4byte	.LFE22-.LFB22
 2708 0997 01       		.uleb128 0x1
 2709 0998 9C       		.byte	0x9c
 2710 0999 22       		.uleb128 0x22
 2711 099a 94050000 		.4byte	.LASF90
 2712 099e 01       		.byte	0x1
 2713 099f F703     		.2byte	0x3f7
 2714 09a1 00000000 		.4byte	.LFB23
 2715 09a5 14000000 		.4byte	.LFE23-.LFB23
 2716 09a9 01       		.uleb128 0x1
 2717 09aa 9C       		.byte	0x9c
 2718 09ab BE090000 		.4byte	0x9be
 2719 09af 2B       		.uleb128 0x2b
 2720 09b0 EB040000 		.4byte	.LASF91
 2721 09b4 01       		.byte	0x1
 2722 09b5 F703     		.2byte	0x3f7
 2723 09b7 6B000000 		.4byte	0x6b
 2724 09bb 01       		.uleb128 0x1
ARM GAS  C:\Users\ingan\AppData\Local\Temp\cc00nNWn.s 			page 70


 2725 09bc 50       		.byte	0x50
 2726 09bd 00       		.byte	0
 2727 09be 2A       		.uleb128 0x2a
 2728 09bf 0D000000 		.4byte	.LASF92
 2729 09c3 01       		.byte	0x1
 2730 09c4 1004     		.2byte	0x410
 2731 09c6 6B000000 		.4byte	0x6b
 2732 09ca 00000000 		.4byte	.LFB24
 2733 09ce 0C000000 		.4byte	.LFE24-.LFB24
 2734 09d2 01       		.uleb128 0x1
 2735 09d3 9C       		.byte	0x9c
 2736 09d4 1E       		.uleb128 0x1e
 2737 09d5 DC020000 		.4byte	.LASF93
 2738 09d9 01       		.byte	0x1
 2739 09da 2F04     		.2byte	0x42f
 2740 09dc 6B000000 		.4byte	0x6b
 2741 09e0 00000000 		.4byte	.LFB25
 2742 09e4 50000000 		.4byte	.LFE25-.LFB25
 2743 09e8 01       		.uleb128 0x1
 2744 09e9 9C       		.byte	0x9c
 2745 09ea 2D0A0000 		.4byte	0xa2d
 2746 09ee 2C       		.uleb128 0x2c
 2747 09ef 70455000 		.ascii	"pEP\000"
 2748 09f3 01       		.byte	0x1
 2749 09f4 2F04     		.2byte	0x42f
 2750 09f6 2D0A0000 		.4byte	0xa2d
 2751 09fa D3050000 		.4byte	.LLST36
 2752 09fe 2B       		.uleb128 0x2b
 2753 09ff BE000000 		.4byte	.LASF94
 2754 0a03 01       		.byte	0x1
 2755 0a04 2F04     		.2byte	0x42f
 2756 0a06 6B000000 		.4byte	0x6b
 2757 0a0a 01       		.uleb128 0x1
 2758 0a0b 51       		.byte	0x51
 2759 0a0c 23       		.uleb128 0x23
 2760 0a0d 79070000 		.4byte	.LASF95
 2761 0a11 01       		.byte	0x1
 2762 0a12 2F04     		.2byte	0x42f
 2763 0a14 6B000000 		.4byte	0x6b
 2764 0a18 F4050000 		.4byte	.LLST37
 2765 0a1c 1F       		.uleb128 0x1f
 2766 0a1d 3A020000 		.4byte	.LASF96
 2767 0a21 01       		.byte	0x1
 2768 0a22 3104     		.2byte	0x431
 2769 0a24 6B000000 		.4byte	0x6b
 2770 0a28 12060000 		.4byte	.LLST38
 2771 0a2c 00       		.byte	0
 2772 0a2d 09       		.uleb128 0x9
 2773 0a2e 04       		.byte	0x4
 2774 0a2f 330A0000 		.4byte	0xa33
 2775 0a33 15       		.uleb128 0x15
 2776 0a34 99010000 		.4byte	0x199
 2777 0a38 2D       		.uleb128 0x2d
 2778 0a39 35050000 		.4byte	.LASF97
 2779 0a3d 01       		.byte	0x1
 2780 0a3e 67       		.byte	0x67
 2781 0a3f D0020000 		.4byte	0x2d0
ARM GAS  C:\Users\ingan\AppData\Local\Temp\cc00nNWn.s 			page 71


 2782 0a43 05       		.uleb128 0x5
 2783 0a44 03       		.byte	0x3
 2784 0a45 10000000 		.4byte	USBUART_serialStateNotification
 2785 0a49 2D       		.uleb128 0x2d
 2786 0a4a A4030000 		.4byte	.LASF98
 2787 0a4e 01       		.byte	0x1
 2788 0a4f 75       		.byte	0x75
 2789 0a50 6B000000 		.4byte	0x6b
 2790 0a54 05       		.uleb128 0x5
 2791 0a55 03       		.byte	0x3
 2792 0a56 00000000 		.4byte	USBUART_activeCom
 2793 0a5a 2E       		.uleb128 0x2e
 2794 0a5b 84070000 		.4byte	.LASF99
 2795 0a5f 03       		.byte	0x3
 2796 0a60 D302     		.2byte	0x2d3
 2797 0a62 B0000000 		.4byte	0xb0
 2798 0a66 0A       		.uleb128 0xa
 2799 0a67 B0000000 		.4byte	0xb0
 2800 0a6b 7C0A0000 		.4byte	0xa7c
 2801 0a6f 0B       		.uleb128 0xb
 2802 0a70 C1000000 		.4byte	0xc1
 2803 0a74 01       		.byte	0x1
 2804 0a75 0B       		.uleb128 0xb
 2805 0a76 C1000000 		.4byte	0xc1
 2806 0a7a 06       		.byte	0x6
 2807 0a7b 00       		.byte	0
 2808 0a7c 2F       		.uleb128 0x2f
 2809 0a7d E8000000 		.4byte	.LASF100
 2810 0a81 01       		.byte	0x1
 2811 0a82 24       		.byte	0x24
 2812 0a83 8D0A0000 		.4byte	0xa8d
 2813 0a87 05       		.uleb128 0x5
 2814 0a88 03       		.byte	0x3
 2815 0a89 00000000 		.4byte	USBUART_linesCoding
 2816 0a8d 05       		.uleb128 0x5
 2817 0a8e 660A0000 		.4byte	0xa66
 2818 0a92 0A       		.uleb128 0xa
 2819 0a93 B0000000 		.4byte	0xb0
 2820 0a97 A20A0000 		.4byte	0xaa2
 2821 0a9b 0B       		.uleb128 0xb
 2822 0a9c C1000000 		.4byte	0xc1
 2823 0aa0 01       		.byte	0x1
 2824 0aa1 00       		.byte	0
 2825 0aa2 2F       		.uleb128 0x2f
 2826 0aa3 74040000 		.4byte	.LASF101
 2827 0aa7 01       		.byte	0x1
 2828 0aa8 3A       		.byte	0x3a
 2829 0aa9 B30A0000 		.4byte	0xab3
 2830 0aad 05       		.uleb128 0x5
 2831 0aae 03       		.byte	0x3
 2832 0aaf 00000000 		.4byte	USBUART_linesChanged
 2833 0ab3 05       		.uleb128 0x5
 2834 0ab4 920A0000 		.4byte	0xa92
 2835 0ab8 0A       		.uleb128 0xa
 2836 0ab9 B5000000 		.4byte	0xb5
 2837 0abd C80A0000 		.4byte	0xac8
 2838 0ac1 0B       		.uleb128 0xb
ARM GAS  C:\Users\ingan\AppData\Local\Temp\cc00nNWn.s 			page 72


 2839 0ac2 C1000000 		.4byte	0xc1
 2840 0ac6 01       		.byte	0x1
 2841 0ac7 00       		.byte	0
 2842 0ac8 2F       		.uleb128 0x2f
 2843 0ac9 D5060000 		.4byte	.LASF102
 2844 0acd 01       		.byte	0x1
 2845 0ace 40       		.byte	0x40
 2846 0acf D90A0000 		.4byte	0xad9
 2847 0ad3 05       		.uleb128 0x5
 2848 0ad4 03       		.byte	0x3
 2849 0ad5 00000000 		.4byte	USBUART_linesControlBitmap
 2850 0ad9 05       		.uleb128 0x5
 2851 0ada B80A0000 		.4byte	0xab8
 2852 0ade 2F       		.uleb128 0x2f
 2853 0adf 7B000000 		.4byte	.LASF103
 2854 0ae3 01       		.byte	0x1
 2855 0ae4 45       		.byte	0x45
 2856 0ae5 EF0A0000 		.4byte	0xaef
 2857 0ae9 05       		.uleb128 0x5
 2858 0aea 03       		.byte	0x3
 2859 0aeb 00000000 		.4byte	USBUART_serialStateBitmap
 2860 0aef 05       		.uleb128 0x5
 2861 0af0 B80A0000 		.4byte	0xab8
 2862 0af4 2F       		.uleb128 0x2f
 2863 0af5 6F030000 		.4byte	.LASF104
 2864 0af9 01       		.byte	0x1
 2865 0afa 4A       		.byte	0x4a
 2866 0afb 050B0000 		.4byte	0xb05
 2867 0aff 05       		.uleb128 0x5
 2868 0b00 03       		.byte	0x3
 2869 0b01 00000000 		.4byte	USBUART_cdcDataInEp
 2870 0b05 05       		.uleb128 0x5
 2871 0b06 920A0000 		.4byte	0xa92
 2872 0b0a 2F       		.uleb128 0x2f
 2873 0b0b 18020000 		.4byte	.LASF105
 2874 0b0f 01       		.byte	0x1
 2875 0b10 4F       		.byte	0x4f
 2876 0b11 1B0B0000 		.4byte	0xb1b
 2877 0b15 05       		.uleb128 0x5
 2878 0b16 03       		.byte	0x3
 2879 0b17 00000000 		.4byte	USBUART_cdcDataOutEp
 2880 0b1b 05       		.uleb128 0x5
 2881 0b1c 920A0000 		.4byte	0xa92
 2882 0b20 2F       		.uleb128 0x2f
 2883 0b21 CC010000 		.4byte	.LASF106
 2884 0b25 01       		.byte	0x1
 2885 0b26 55       		.byte	0x55
 2886 0b27 310B0000 		.4byte	0xb31
 2887 0b2b 05       		.uleb128 0x5
 2888 0b2c 03       		.byte	0x3
 2889 0b2d 00000000 		.4byte	USBUART_cdcCommInInterruptEp
 2890 0b31 05       		.uleb128 0x5
 2891 0b32 920A0000 		.4byte	0xa92
 2892 0b36 0A       		.uleb128 0xa
 2893 0b37 460B0000 		.4byte	0xb46
 2894 0b3b 460B0000 		.4byte	0xb46
 2895 0b3f 0B       		.uleb128 0xb
ARM GAS  C:\Users\ingan\AppData\Local\Temp\cc00nNWn.s 			page 73


 2896 0b40 C1000000 		.4byte	0xc1
 2897 0b44 08       		.byte	0x8
 2898 0b45 00       		.byte	0
 2899 0b46 05       		.uleb128 0x5
 2900 0b47 3D010000 		.4byte	0x13d
 2901 0b4b 30       		.uleb128 0x30
 2902 0b4c D4000000 		.4byte	.LASF107
 2903 0b50 04       		.byte	0x4
 2904 0b51 79       		.byte	0x79
 2905 0b52 560B0000 		.4byte	0xb56
 2906 0b56 05       		.uleb128 0x5
 2907 0b57 360B0000 		.4byte	0xb36
 2908 0b5b 30       		.uleb128 0x30
 2909 0b5c 11030000 		.4byte	.LASF108
 2910 0b60 04       		.byte	0x4
 2911 0b61 7A       		.byte	0x7a
 2912 0b62 660B0000 		.4byte	0xb66
 2913 0b66 05       		.uleb128 0x5
 2914 0b67 09020000 		.4byte	0x209
 2915 0b6b 31       		.uleb128 0x31
 2916 0b6c 36040000 		.4byte	.LASF109
 2917 0b70 36040000 		.4byte	.LASF109
 2918 0b74 04       		.byte	0x4
 2919 0b75 B3       		.byte	0xb3
 2920 0b76 31       		.uleb128 0x31
 2921 0b77 ED030000 		.4byte	.LASF110
 2922 0b7b ED030000 		.4byte	.LASF110
 2923 0b7f 04       		.byte	0x4
 2924 0b80 AE       		.byte	0xae
 2925 0b81 31       		.uleb128 0x31
 2926 0b82 2F010000 		.4byte	.LASF111
 2927 0b86 2F010000 		.4byte	.LASF111
 2928 0b8a 04       		.byte	0x4
 2929 0b8b A9       		.byte	0xa9
 2930 0b8c 32       		.uleb128 0x32
 2931 0b8d 1B010000 		.4byte	.LASF112
 2932 0b91 1B010000 		.4byte	.LASF112
 2933 0b95 03       		.byte	0x3
 2934 0b96 3601     		.2byte	0x136
 2935 0b98 32       		.uleb128 0x32
 2936 0b99 6A000000 		.4byte	.LASF113
 2937 0b9d 6A000000 		.4byte	.LASF113
 2938 0ba1 03       		.byte	0x3
 2939 0ba2 3201     		.2byte	0x132
 2940 0ba4 32       		.uleb128 0x32
 2941 0ba5 A3060000 		.4byte	.LASF114
 2942 0ba9 A3060000 		.4byte	.LASF114
 2943 0bad 03       		.byte	0x3
 2944 0bae 3101     		.2byte	0x131
 2945 0bb0 32       		.uleb128 0x32
 2946 0bb1 05050000 		.4byte	.LASF115
 2947 0bb5 05050000 		.4byte	.LASF115
 2948 0bb9 03       		.byte	0x3
 2949 0bba 3001     		.2byte	0x130
 2950 0bbc 32       		.uleb128 0x32
 2951 0bbd B8040000 		.4byte	.LASF116
 2952 0bc1 B8040000 		.4byte	.LASF116
ARM GAS  C:\Users\ingan\AppData\Local\Temp\cc00nNWn.s 			page 74


 2953 0bc5 03       		.byte	0x3
 2954 0bc6 3401     		.2byte	0x134
 2955 0bc8 00       		.byte	0
 2956              		.section	.debug_abbrev,"",%progbits
 2957              	.Ldebug_abbrev0:
 2958 0000 01       		.uleb128 0x1
 2959 0001 11       		.uleb128 0x11
 2960 0002 01       		.byte	0x1
 2961 0003 25       		.uleb128 0x25
 2962 0004 0E       		.uleb128 0xe
 2963 0005 13       		.uleb128 0x13
 2964 0006 0B       		.uleb128 0xb
 2965 0007 03       		.uleb128 0x3
 2966 0008 0E       		.uleb128 0xe
 2967 0009 1B       		.uleb128 0x1b
 2968 000a 0E       		.uleb128 0xe
 2969 000b 55       		.uleb128 0x55
 2970 000c 17       		.uleb128 0x17
 2971 000d 11       		.uleb128 0x11
 2972 000e 01       		.uleb128 0x1
 2973 000f 10       		.uleb128 0x10
 2974 0010 17       		.uleb128 0x17
 2975 0011 00       		.byte	0
 2976 0012 00       		.byte	0
 2977 0013 02       		.uleb128 0x2
 2978 0014 24       		.uleb128 0x24
 2979 0015 00       		.byte	0
 2980 0016 0B       		.uleb128 0xb
 2981 0017 0B       		.uleb128 0xb
 2982 0018 3E       		.uleb128 0x3e
 2983 0019 0B       		.uleb128 0xb
 2984 001a 03       		.uleb128 0x3
 2985 001b 0E       		.uleb128 0xe
 2986 001c 00       		.byte	0
 2987 001d 00       		.byte	0
 2988 001e 03       		.uleb128 0x3
 2989 001f 24       		.uleb128 0x24
 2990 0020 00       		.byte	0
 2991 0021 0B       		.uleb128 0xb
 2992 0022 0B       		.uleb128 0xb
 2993 0023 3E       		.uleb128 0x3e
 2994 0024 0B       		.uleb128 0xb
 2995 0025 03       		.uleb128 0x3
 2996 0026 08       		.uleb128 0x8
 2997 0027 00       		.byte	0
 2998 0028 00       		.byte	0
 2999 0029 04       		.uleb128 0x4
 3000 002a 16       		.uleb128 0x16
 3001 002b 00       		.byte	0
 3002 002c 03       		.uleb128 0x3
 3003 002d 0E       		.uleb128 0xe
 3004 002e 3A       		.uleb128 0x3a
 3005 002f 0B       		.uleb128 0xb
 3006 0030 3B       		.uleb128 0x3b
 3007 0031 05       		.uleb128 0x5
 3008 0032 49       		.uleb128 0x49
 3009 0033 13       		.uleb128 0x13
ARM GAS  C:\Users\ingan\AppData\Local\Temp\cc00nNWn.s 			page 75


 3010 0034 00       		.byte	0
 3011 0035 00       		.byte	0
 3012 0036 05       		.uleb128 0x5
 3013 0037 35       		.uleb128 0x35
 3014 0038 00       		.byte	0
 3015 0039 49       		.uleb128 0x49
 3016 003a 13       		.uleb128 0x13
 3017 003b 00       		.byte	0
 3018 003c 00       		.byte	0
 3019 003d 06       		.uleb128 0x6
 3020 003e 13       		.uleb128 0x13
 3021 003f 01       		.byte	0x1
 3022 0040 0B       		.uleb128 0xb
 3023 0041 0B       		.uleb128 0xb
 3024 0042 3A       		.uleb128 0x3a
 3025 0043 0B       		.uleb128 0xb
 3026 0044 3B       		.uleb128 0x3b
 3027 0045 0B       		.uleb128 0xb
 3028 0046 01       		.uleb128 0x1
 3029 0047 13       		.uleb128 0x13
 3030 0048 00       		.byte	0
 3031 0049 00       		.byte	0
 3032 004a 07       		.uleb128 0x7
 3033 004b 0D       		.uleb128 0xd
 3034 004c 00       		.byte	0
 3035 004d 03       		.uleb128 0x3
 3036 004e 0E       		.uleb128 0xe
 3037 004f 3A       		.uleb128 0x3a
 3038 0050 0B       		.uleb128 0xb
 3039 0051 3B       		.uleb128 0x3b
 3040 0052 0B       		.uleb128 0xb
 3041 0053 49       		.uleb128 0x49
 3042 0054 13       		.uleb128 0x13
 3043 0055 38       		.uleb128 0x38
 3044 0056 0B       		.uleb128 0xb
 3045 0057 00       		.byte	0
 3046 0058 00       		.byte	0
 3047 0059 08       		.uleb128 0x8
 3048 005a 16       		.uleb128 0x16
 3049 005b 00       		.byte	0
 3050 005c 03       		.uleb128 0x3
 3051 005d 0E       		.uleb128 0xe
 3052 005e 3A       		.uleb128 0x3a
 3053 005f 0B       		.uleb128 0xb
 3054 0060 3B       		.uleb128 0x3b
 3055 0061 0B       		.uleb128 0xb
 3056 0062 49       		.uleb128 0x49
 3057 0063 13       		.uleb128 0x13
 3058 0064 00       		.byte	0
 3059 0065 00       		.byte	0
 3060 0066 09       		.uleb128 0x9
 3061 0067 0F       		.uleb128 0xf
 3062 0068 00       		.byte	0
 3063 0069 0B       		.uleb128 0xb
 3064 006a 0B       		.uleb128 0xb
 3065 006b 49       		.uleb128 0x49
 3066 006c 13       		.uleb128 0x13
ARM GAS  C:\Users\ingan\AppData\Local\Temp\cc00nNWn.s 			page 76


 3067 006d 00       		.byte	0
 3068 006e 00       		.byte	0
 3069 006f 0A       		.uleb128 0xa
 3070 0070 01       		.uleb128 0x1
 3071 0071 01       		.byte	0x1
 3072 0072 49       		.uleb128 0x49
 3073 0073 13       		.uleb128 0x13
 3074 0074 01       		.uleb128 0x1
 3075 0075 13       		.uleb128 0x13
 3076 0076 00       		.byte	0
 3077 0077 00       		.byte	0
 3078 0078 0B       		.uleb128 0xb
 3079 0079 21       		.uleb128 0x21
 3080 007a 00       		.byte	0
 3081 007b 49       		.uleb128 0x49
 3082 007c 13       		.uleb128 0x13
 3083 007d 2F       		.uleb128 0x2f
 3084 007e 0B       		.uleb128 0xb
 3085 007f 00       		.byte	0
 3086 0080 00       		.byte	0
 3087 0081 0C       		.uleb128 0xc
 3088 0082 13       		.uleb128 0x13
 3089 0083 01       		.byte	0x1
 3090 0084 0B       		.uleb128 0xb
 3091 0085 0B       		.uleb128 0xb
 3092 0086 3A       		.uleb128 0x3a
 3093 0087 0B       		.uleb128 0xb
 3094 0088 3B       		.uleb128 0x3b
 3095 0089 05       		.uleb128 0x5
 3096 008a 01       		.uleb128 0x1
 3097 008b 13       		.uleb128 0x13
 3098 008c 00       		.byte	0
 3099 008d 00       		.byte	0
 3100 008e 0D       		.uleb128 0xd
 3101 008f 0D       		.uleb128 0xd
 3102 0090 00       		.byte	0
 3103 0091 03       		.uleb128 0x3
 3104 0092 0E       		.uleb128 0xe
 3105 0093 3A       		.uleb128 0x3a
 3106 0094 0B       		.uleb128 0xb
 3107 0095 3B       		.uleb128 0x3b
 3108 0096 05       		.uleb128 0x5
 3109 0097 49       		.uleb128 0x49
 3110 0098 13       		.uleb128 0x13
 3111 0099 38       		.uleb128 0x38
 3112 009a 0B       		.uleb128 0xb
 3113 009b 00       		.byte	0
 3114 009c 00       		.byte	0
 3115 009d 0E       		.uleb128 0xe
 3116 009e 2E       		.uleb128 0x2e
 3117 009f 01       		.byte	0x1
 3118 00a0 3F       		.uleb128 0x3f
 3119 00a1 19       		.uleb128 0x19
 3120 00a2 03       		.uleb128 0x3
 3121 00a3 0E       		.uleb128 0xe
 3122 00a4 3A       		.uleb128 0x3a
 3123 00a5 0B       		.uleb128 0xb
ARM GAS  C:\Users\ingan\AppData\Local\Temp\cc00nNWn.s 			page 77


 3124 00a6 3B       		.uleb128 0x3b
 3125 00a7 0B       		.uleb128 0xb
 3126 00a8 27       		.uleb128 0x27
 3127 00a9 19       		.uleb128 0x19
 3128 00aa 49       		.uleb128 0x49
 3129 00ab 13       		.uleb128 0x13
 3130 00ac 20       		.uleb128 0x20
 3131 00ad 0B       		.uleb128 0xb
 3132 00ae 01       		.uleb128 0x1
 3133 00af 13       		.uleb128 0x13
 3134 00b0 00       		.byte	0
 3135 00b1 00       		.byte	0
 3136 00b2 0F       		.uleb128 0xf
 3137 00b3 05       		.uleb128 0x5
 3138 00b4 00       		.byte	0
 3139 00b5 03       		.uleb128 0x3
 3140 00b6 0E       		.uleb128 0xe
 3141 00b7 3A       		.uleb128 0x3a
 3142 00b8 0B       		.uleb128 0xb
 3143 00b9 3B       		.uleb128 0x3b
 3144 00ba 0B       		.uleb128 0xb
 3145 00bb 49       		.uleb128 0x49
 3146 00bc 13       		.uleb128 0x13
 3147 00bd 00       		.byte	0
 3148 00be 00       		.byte	0
 3149 00bf 10       		.uleb128 0x10
 3150 00c0 34       		.uleb128 0x34
 3151 00c1 00       		.byte	0
 3152 00c2 03       		.uleb128 0x3
 3153 00c3 0E       		.uleb128 0xe
 3154 00c4 3A       		.uleb128 0x3a
 3155 00c5 0B       		.uleb128 0xb
 3156 00c6 3B       		.uleb128 0x3b
 3157 00c7 0B       		.uleb128 0xb
 3158 00c8 49       		.uleb128 0x49
 3159 00c9 13       		.uleb128 0x13
 3160 00ca 00       		.byte	0
 3161 00cb 00       		.byte	0
 3162 00cc 11       		.uleb128 0x11
 3163 00cd 34       		.uleb128 0x34
 3164 00ce 00       		.byte	0
 3165 00cf 03       		.uleb128 0x3
 3166 00d0 08       		.uleb128 0x8
 3167 00d1 3A       		.uleb128 0x3a
 3168 00d2 0B       		.uleb128 0xb
 3169 00d3 3B       		.uleb128 0x3b
 3170 00d4 0B       		.uleb128 0xb
 3171 00d5 49       		.uleb128 0x49
 3172 00d6 13       		.uleb128 0x13
 3173 00d7 00       		.byte	0
 3174 00d8 00       		.byte	0
 3175 00d9 12       		.uleb128 0x12
 3176 00da 2E       		.uleb128 0x2e
 3177 00db 01       		.byte	0x1
 3178 00dc 03       		.uleb128 0x3
 3179 00dd 0E       		.uleb128 0xe
 3180 00de 3A       		.uleb128 0x3a
ARM GAS  C:\Users\ingan\AppData\Local\Temp\cc00nNWn.s 			page 78


 3181 00df 0B       		.uleb128 0xb
 3182 00e0 3B       		.uleb128 0x3b
 3183 00e1 05       		.uleb128 0x5
 3184 00e2 27       		.uleb128 0x27
 3185 00e3 19       		.uleb128 0x19
 3186 00e4 49       		.uleb128 0x49
 3187 00e5 13       		.uleb128 0x13
 3188 00e6 20       		.uleb128 0x20
 3189 00e7 0B       		.uleb128 0xb
 3190 00e8 01       		.uleb128 0x1
 3191 00e9 13       		.uleb128 0x13
 3192 00ea 00       		.byte	0
 3193 00eb 00       		.byte	0
 3194 00ec 13       		.uleb128 0x13
 3195 00ed 05       		.uleb128 0x5
 3196 00ee 00       		.byte	0
 3197 00ef 03       		.uleb128 0x3
 3198 00f0 0E       		.uleb128 0xe
 3199 00f1 3A       		.uleb128 0x3a
 3200 00f2 0B       		.uleb128 0xb
 3201 00f3 3B       		.uleb128 0x3b
 3202 00f4 05       		.uleb128 0x5
 3203 00f5 49       		.uleb128 0x49
 3204 00f6 13       		.uleb128 0x13
 3205 00f7 00       		.byte	0
 3206 00f8 00       		.byte	0
 3207 00f9 14       		.uleb128 0x14
 3208 00fa 34       		.uleb128 0x34
 3209 00fb 00       		.byte	0
 3210 00fc 03       		.uleb128 0x3
 3211 00fd 08       		.uleb128 0x8
 3212 00fe 3A       		.uleb128 0x3a
 3213 00ff 0B       		.uleb128 0xb
 3214 0100 3B       		.uleb128 0x3b
 3215 0101 05       		.uleb128 0x5
 3216 0102 49       		.uleb128 0x49
 3217 0103 13       		.uleb128 0x13
 3218 0104 00       		.byte	0
 3219 0105 00       		.byte	0
 3220 0106 15       		.uleb128 0x15
 3221 0107 26       		.uleb128 0x26
 3222 0108 00       		.byte	0
 3223 0109 49       		.uleb128 0x49
 3224 010a 13       		.uleb128 0x13
 3225 010b 00       		.byte	0
 3226 010c 00       		.byte	0
 3227 010d 16       		.uleb128 0x16
 3228 010e 2E       		.uleb128 0x2e
 3229 010f 01       		.byte	0x1
 3230 0110 3F       		.uleb128 0x3f
 3231 0111 19       		.uleb128 0x19
 3232 0112 03       		.uleb128 0x3
 3233 0113 0E       		.uleb128 0xe
 3234 0114 3A       		.uleb128 0x3a
 3235 0115 0B       		.uleb128 0xb
 3236 0116 3B       		.uleb128 0x3b
 3237 0117 0B       		.uleb128 0xb
ARM GAS  C:\Users\ingan\AppData\Local\Temp\cc00nNWn.s 			page 79


 3238 0118 27       		.uleb128 0x27
 3239 0119 19       		.uleb128 0x19
 3240 011a 49       		.uleb128 0x49
 3241 011b 13       		.uleb128 0x13
 3242 011c 11       		.uleb128 0x11
 3243 011d 01       		.uleb128 0x1
 3244 011e 12       		.uleb128 0x12
 3245 011f 06       		.uleb128 0x6
 3246 0120 40       		.uleb128 0x40
 3247 0121 18       		.uleb128 0x18
 3248 0122 9742     		.uleb128 0x2117
 3249 0124 19       		.uleb128 0x19
 3250 0125 01       		.uleb128 0x1
 3251 0126 13       		.uleb128 0x13
 3252 0127 00       		.byte	0
 3253 0128 00       		.byte	0
 3254 0129 17       		.uleb128 0x17
 3255 012a 34       		.uleb128 0x34
 3256 012b 00       		.byte	0
 3257 012c 03       		.uleb128 0x3
 3258 012d 0E       		.uleb128 0xe
 3259 012e 3A       		.uleb128 0x3a
 3260 012f 0B       		.uleb128 0xb
 3261 0130 3B       		.uleb128 0x3b
 3262 0131 0B       		.uleb128 0xb
 3263 0132 49       		.uleb128 0x49
 3264 0133 13       		.uleb128 0x13
 3265 0134 02       		.uleb128 0x2
 3266 0135 17       		.uleb128 0x17
 3267 0136 00       		.byte	0
 3268 0137 00       		.byte	0
 3269 0138 18       		.uleb128 0x18
 3270 0139 1D       		.uleb128 0x1d
 3271 013a 01       		.byte	0x1
 3272 013b 31       		.uleb128 0x31
 3273 013c 13       		.uleb128 0x13
 3274 013d 52       		.uleb128 0x52
 3275 013e 01       		.uleb128 0x1
 3276 013f 55       		.uleb128 0x55
 3277 0140 17       		.uleb128 0x17
 3278 0141 58       		.uleb128 0x58
 3279 0142 0B       		.uleb128 0xb
 3280 0143 59       		.uleb128 0x59
 3281 0144 0B       		.uleb128 0xb
 3282 0145 01       		.uleb128 0x1
 3283 0146 13       		.uleb128 0x13
 3284 0147 00       		.byte	0
 3285 0148 00       		.byte	0
 3286 0149 19       		.uleb128 0x19
 3287 014a 05       		.uleb128 0x5
 3288 014b 00       		.byte	0
 3289 014c 31       		.uleb128 0x31
 3290 014d 13       		.uleb128 0x13
 3291 014e 02       		.uleb128 0x2
 3292 014f 17       		.uleb128 0x17
 3293 0150 00       		.byte	0
 3294 0151 00       		.byte	0
ARM GAS  C:\Users\ingan\AppData\Local\Temp\cc00nNWn.s 			page 80


 3295 0152 1A       		.uleb128 0x1a
 3296 0153 0B       		.uleb128 0xb
 3297 0154 01       		.byte	0x1
 3298 0155 55       		.uleb128 0x55
 3299 0156 17       		.uleb128 0x17
 3300 0157 00       		.byte	0
 3301 0158 00       		.byte	0
 3302 0159 1B       		.uleb128 0x1b
 3303 015a 34       		.uleb128 0x34
 3304 015b 00       		.byte	0
 3305 015c 31       		.uleb128 0x31
 3306 015d 13       		.uleb128 0x13
 3307 015e 02       		.uleb128 0x2
 3308 015f 17       		.uleb128 0x17
 3309 0160 00       		.byte	0
 3310 0161 00       		.byte	0
 3311 0162 1C       		.uleb128 0x1c
 3312 0163 898201   		.uleb128 0x4109
 3313 0166 00       		.byte	0
 3314 0167 11       		.uleb128 0x11
 3315 0168 01       		.uleb128 0x1
 3316 0169 9542     		.uleb128 0x2115
 3317 016b 19       		.uleb128 0x19
 3318 016c 31       		.uleb128 0x31
 3319 016d 13       		.uleb128 0x13
 3320 016e 00       		.byte	0
 3321 016f 00       		.byte	0
 3322 0170 1D       		.uleb128 0x1d
 3323 0171 2E       		.uleb128 0x2e
 3324 0172 01       		.byte	0x1
 3325 0173 31       		.uleb128 0x31
 3326 0174 13       		.uleb128 0x13
 3327 0175 11       		.uleb128 0x11
 3328 0176 01       		.uleb128 0x1
 3329 0177 12       		.uleb128 0x12
 3330 0178 06       		.uleb128 0x6
 3331 0179 40       		.uleb128 0x40
 3332 017a 18       		.uleb128 0x18
 3333 017b 9742     		.uleb128 0x2117
 3334 017d 19       		.uleb128 0x19
 3335 017e 01       		.uleb128 0x1
 3336 017f 13       		.uleb128 0x13
 3337 0180 00       		.byte	0
 3338 0181 00       		.byte	0
 3339 0182 1E       		.uleb128 0x1e
 3340 0183 2E       		.uleb128 0x2e
 3341 0184 01       		.byte	0x1
 3342 0185 3F       		.uleb128 0x3f
 3343 0186 19       		.uleb128 0x19
 3344 0187 03       		.uleb128 0x3
 3345 0188 0E       		.uleb128 0xe
 3346 0189 3A       		.uleb128 0x3a
 3347 018a 0B       		.uleb128 0xb
 3348 018b 3B       		.uleb128 0x3b
 3349 018c 05       		.uleb128 0x5
 3350 018d 27       		.uleb128 0x27
 3351 018e 19       		.uleb128 0x19
ARM GAS  C:\Users\ingan\AppData\Local\Temp\cc00nNWn.s 			page 81


 3352 018f 49       		.uleb128 0x49
 3353 0190 13       		.uleb128 0x13
 3354 0191 11       		.uleb128 0x11
 3355 0192 01       		.uleb128 0x1
 3356 0193 12       		.uleb128 0x12
 3357 0194 06       		.uleb128 0x6
 3358 0195 40       		.uleb128 0x40
 3359 0196 18       		.uleb128 0x18
 3360 0197 9742     		.uleb128 0x2117
 3361 0199 19       		.uleb128 0x19
 3362 019a 01       		.uleb128 0x1
 3363 019b 13       		.uleb128 0x13
 3364 019c 00       		.byte	0
 3365 019d 00       		.byte	0
 3366 019e 1F       		.uleb128 0x1f
 3367 019f 34       		.uleb128 0x34
 3368 01a0 00       		.byte	0
 3369 01a1 03       		.uleb128 0x3
 3370 01a2 0E       		.uleb128 0xe
 3371 01a3 3A       		.uleb128 0x3a
 3372 01a4 0B       		.uleb128 0xb
 3373 01a5 3B       		.uleb128 0x3b
 3374 01a6 05       		.uleb128 0x5
 3375 01a7 49       		.uleb128 0x49
 3376 01a8 13       		.uleb128 0x13
 3377 01a9 02       		.uleb128 0x2
 3378 01aa 17       		.uleb128 0x17
 3379 01ab 00       		.byte	0
 3380 01ac 00       		.byte	0
 3381 01ad 20       		.uleb128 0x20
 3382 01ae 34       		.uleb128 0x34
 3383 01af 00       		.byte	0
 3384 01b0 03       		.uleb128 0x3
 3385 01b1 08       		.uleb128 0x8
 3386 01b2 3A       		.uleb128 0x3a
 3387 01b3 0B       		.uleb128 0xb
 3388 01b4 3B       		.uleb128 0x3b
 3389 01b5 05       		.uleb128 0x5
 3390 01b6 49       		.uleb128 0x49
 3391 01b7 13       		.uleb128 0x13
 3392 01b8 02       		.uleb128 0x2
 3393 01b9 17       		.uleb128 0x17
 3394 01ba 00       		.byte	0
 3395 01bb 00       		.byte	0
 3396 01bc 21       		.uleb128 0x21
 3397 01bd 898201   		.uleb128 0x4109
 3398 01c0 00       		.byte	0
 3399 01c1 11       		.uleb128 0x11
 3400 01c2 01       		.uleb128 0x1
 3401 01c3 31       		.uleb128 0x31
 3402 01c4 13       		.uleb128 0x13
 3403 01c5 00       		.byte	0
 3404 01c6 00       		.byte	0
 3405 01c7 22       		.uleb128 0x22
 3406 01c8 2E       		.uleb128 0x2e
 3407 01c9 01       		.byte	0x1
 3408 01ca 3F       		.uleb128 0x3f
ARM GAS  C:\Users\ingan\AppData\Local\Temp\cc00nNWn.s 			page 82


 3409 01cb 19       		.uleb128 0x19
 3410 01cc 03       		.uleb128 0x3
 3411 01cd 0E       		.uleb128 0xe
 3412 01ce 3A       		.uleb128 0x3a
 3413 01cf 0B       		.uleb128 0xb
 3414 01d0 3B       		.uleb128 0x3b
 3415 01d1 05       		.uleb128 0x5
 3416 01d2 27       		.uleb128 0x27
 3417 01d3 19       		.uleb128 0x19
 3418 01d4 11       		.uleb128 0x11
 3419 01d5 01       		.uleb128 0x1
 3420 01d6 12       		.uleb128 0x12
 3421 01d7 06       		.uleb128 0x6
 3422 01d8 40       		.uleb128 0x40
 3423 01d9 18       		.uleb128 0x18
 3424 01da 9742     		.uleb128 0x2117
 3425 01dc 19       		.uleb128 0x19
 3426 01dd 01       		.uleb128 0x1
 3427 01de 13       		.uleb128 0x13
 3428 01df 00       		.byte	0
 3429 01e0 00       		.byte	0
 3430 01e1 23       		.uleb128 0x23
 3431 01e2 05       		.uleb128 0x5
 3432 01e3 00       		.byte	0
 3433 01e4 03       		.uleb128 0x3
 3434 01e5 0E       		.uleb128 0xe
 3435 01e6 3A       		.uleb128 0x3a
 3436 01e7 0B       		.uleb128 0xb
 3437 01e8 3B       		.uleb128 0x3b
 3438 01e9 05       		.uleb128 0x5
 3439 01ea 49       		.uleb128 0x49
 3440 01eb 13       		.uleb128 0x13
 3441 01ec 02       		.uleb128 0x2
 3442 01ed 17       		.uleb128 0x17
 3443 01ee 00       		.byte	0
 3444 01ef 00       		.byte	0
 3445 01f0 24       		.uleb128 0x24
 3446 01f1 898201   		.uleb128 0x4109
 3447 01f4 01       		.byte	0x1
 3448 01f5 11       		.uleb128 0x11
 3449 01f6 01       		.uleb128 0x1
 3450 01f7 9542     		.uleb128 0x2115
 3451 01f9 19       		.uleb128 0x19
 3452 01fa 31       		.uleb128 0x31
 3453 01fb 13       		.uleb128 0x13
 3454 01fc 00       		.byte	0
 3455 01fd 00       		.byte	0
 3456 01fe 25       		.uleb128 0x25
 3457 01ff 8A8201   		.uleb128 0x410a
 3458 0202 00       		.byte	0
 3459 0203 02       		.uleb128 0x2
 3460 0204 18       		.uleb128 0x18
 3461 0205 9142     		.uleb128 0x2111
 3462 0207 18       		.uleb128 0x18
 3463 0208 00       		.byte	0
 3464 0209 00       		.byte	0
 3465 020a 26       		.uleb128 0x26
ARM GAS  C:\Users\ingan\AppData\Local\Temp\cc00nNWn.s 			page 83


 3466 020b 1D       		.uleb128 0x1d
 3467 020c 01       		.byte	0x1
 3468 020d 31       		.uleb128 0x31
 3469 020e 13       		.uleb128 0x13
 3470 020f 52       		.uleb128 0x52
 3471 0210 01       		.uleb128 0x1
 3472 0211 55       		.uleb128 0x55
 3473 0212 17       		.uleb128 0x17
 3474 0213 58       		.uleb128 0x58
 3475 0214 0B       		.uleb128 0xb
 3476 0215 59       		.uleb128 0x59
 3477 0216 05       		.uleb128 0x5
 3478 0217 01       		.uleb128 0x1
 3479 0218 13       		.uleb128 0x13
 3480 0219 00       		.byte	0
 3481 021a 00       		.byte	0
 3482 021b 27       		.uleb128 0x27
 3483 021c 898201   		.uleb128 0x4109
 3484 021f 01       		.byte	0x1
 3485 0220 11       		.uleb128 0x11
 3486 0221 01       		.uleb128 0x1
 3487 0222 31       		.uleb128 0x31
 3488 0223 13       		.uleb128 0x13
 3489 0224 01       		.uleb128 0x1
 3490 0225 13       		.uleb128 0x13
 3491 0226 00       		.byte	0
 3492 0227 00       		.byte	0
 3493 0228 28       		.uleb128 0x28
 3494 0229 898201   		.uleb128 0x4109
 3495 022c 01       		.byte	0x1
 3496 022d 11       		.uleb128 0x11
 3497 022e 01       		.uleb128 0x1
 3498 022f 31       		.uleb128 0x31
 3499 0230 13       		.uleb128 0x13
 3500 0231 00       		.byte	0
 3501 0232 00       		.byte	0
 3502 0233 29       		.uleb128 0x29
 3503 0234 34       		.uleb128 0x34
 3504 0235 00       		.byte	0
 3505 0236 03       		.uleb128 0x3
 3506 0237 0E       		.uleb128 0xe
 3507 0238 3A       		.uleb128 0x3a
 3508 0239 0B       		.uleb128 0xb
 3509 023a 3B       		.uleb128 0x3b
 3510 023b 05       		.uleb128 0x5
 3511 023c 49       		.uleb128 0x49
 3512 023d 13       		.uleb128 0x13
 3513 023e 02       		.uleb128 0x2
 3514 023f 18       		.uleb128 0x18
 3515 0240 00       		.byte	0
 3516 0241 00       		.byte	0
 3517 0242 2A       		.uleb128 0x2a
 3518 0243 2E       		.uleb128 0x2e
 3519 0244 00       		.byte	0
 3520 0245 3F       		.uleb128 0x3f
 3521 0246 19       		.uleb128 0x19
 3522 0247 03       		.uleb128 0x3
ARM GAS  C:\Users\ingan\AppData\Local\Temp\cc00nNWn.s 			page 84


 3523 0248 0E       		.uleb128 0xe
 3524 0249 3A       		.uleb128 0x3a
 3525 024a 0B       		.uleb128 0xb
 3526 024b 3B       		.uleb128 0x3b
 3527 024c 05       		.uleb128 0x5
 3528 024d 27       		.uleb128 0x27
 3529 024e 19       		.uleb128 0x19
 3530 024f 49       		.uleb128 0x49
 3531 0250 13       		.uleb128 0x13
 3532 0251 11       		.uleb128 0x11
 3533 0252 01       		.uleb128 0x1
 3534 0253 12       		.uleb128 0x12
 3535 0254 06       		.uleb128 0x6
 3536 0255 40       		.uleb128 0x40
 3537 0256 18       		.uleb128 0x18
 3538 0257 9742     		.uleb128 0x2117
 3539 0259 19       		.uleb128 0x19
 3540 025a 00       		.byte	0
 3541 025b 00       		.byte	0
 3542 025c 2B       		.uleb128 0x2b
 3543 025d 05       		.uleb128 0x5
 3544 025e 00       		.byte	0
 3545 025f 03       		.uleb128 0x3
 3546 0260 0E       		.uleb128 0xe
 3547 0261 3A       		.uleb128 0x3a
 3548 0262 0B       		.uleb128 0xb
 3549 0263 3B       		.uleb128 0x3b
 3550 0264 05       		.uleb128 0x5
 3551 0265 49       		.uleb128 0x49
 3552 0266 13       		.uleb128 0x13
 3553 0267 02       		.uleb128 0x2
 3554 0268 18       		.uleb128 0x18
 3555 0269 00       		.byte	0
 3556 026a 00       		.byte	0
 3557 026b 2C       		.uleb128 0x2c
 3558 026c 05       		.uleb128 0x5
 3559 026d 00       		.byte	0
 3560 026e 03       		.uleb128 0x3
 3561 026f 08       		.uleb128 0x8
 3562 0270 3A       		.uleb128 0x3a
 3563 0271 0B       		.uleb128 0xb
 3564 0272 3B       		.uleb128 0x3b
 3565 0273 05       		.uleb128 0x5
 3566 0274 49       		.uleb128 0x49
 3567 0275 13       		.uleb128 0x13
 3568 0276 02       		.uleb128 0x2
 3569 0277 17       		.uleb128 0x17
 3570 0278 00       		.byte	0
 3571 0279 00       		.byte	0
 3572 027a 2D       		.uleb128 0x2d
 3573 027b 34       		.uleb128 0x34
 3574 027c 00       		.byte	0
 3575 027d 03       		.uleb128 0x3
 3576 027e 0E       		.uleb128 0xe
 3577 027f 3A       		.uleb128 0x3a
 3578 0280 0B       		.uleb128 0xb
 3579 0281 3B       		.uleb128 0x3b
ARM GAS  C:\Users\ingan\AppData\Local\Temp\cc00nNWn.s 			page 85


 3580 0282 0B       		.uleb128 0xb
 3581 0283 49       		.uleb128 0x49
 3582 0284 13       		.uleb128 0x13
 3583 0285 02       		.uleb128 0x2
 3584 0286 18       		.uleb128 0x18
 3585 0287 00       		.byte	0
 3586 0288 00       		.byte	0
 3587 0289 2E       		.uleb128 0x2e
 3588 028a 34       		.uleb128 0x34
 3589 028b 00       		.byte	0
 3590 028c 03       		.uleb128 0x3
 3591 028d 0E       		.uleb128 0xe
 3592 028e 3A       		.uleb128 0x3a
 3593 028f 0B       		.uleb128 0xb
 3594 0290 3B       		.uleb128 0x3b
 3595 0291 05       		.uleb128 0x5
 3596 0292 49       		.uleb128 0x49
 3597 0293 13       		.uleb128 0x13
 3598 0294 3F       		.uleb128 0x3f
 3599 0295 19       		.uleb128 0x19
 3600 0296 3C       		.uleb128 0x3c
 3601 0297 19       		.uleb128 0x19
 3602 0298 00       		.byte	0
 3603 0299 00       		.byte	0
 3604 029a 2F       		.uleb128 0x2f
 3605 029b 34       		.uleb128 0x34
 3606 029c 00       		.byte	0
 3607 029d 03       		.uleb128 0x3
 3608 029e 0E       		.uleb128 0xe
 3609 029f 3A       		.uleb128 0x3a
 3610 02a0 0B       		.uleb128 0xb
 3611 02a1 3B       		.uleb128 0x3b
 3612 02a2 0B       		.uleb128 0xb
 3613 02a3 49       		.uleb128 0x49
 3614 02a4 13       		.uleb128 0x13
 3615 02a5 3F       		.uleb128 0x3f
 3616 02a6 19       		.uleb128 0x19
 3617 02a7 02       		.uleb128 0x2
 3618 02a8 18       		.uleb128 0x18
 3619 02a9 00       		.byte	0
 3620 02aa 00       		.byte	0
 3621 02ab 30       		.uleb128 0x30
 3622 02ac 34       		.uleb128 0x34
 3623 02ad 00       		.byte	0
 3624 02ae 03       		.uleb128 0x3
 3625 02af 0E       		.uleb128 0xe
 3626 02b0 3A       		.uleb128 0x3a
 3627 02b1 0B       		.uleb128 0xb
 3628 02b2 3B       		.uleb128 0x3b
 3629 02b3 0B       		.uleb128 0xb
 3630 02b4 49       		.uleb128 0x49
 3631 02b5 13       		.uleb128 0x13
 3632 02b6 3F       		.uleb128 0x3f
 3633 02b7 19       		.uleb128 0x19
 3634 02b8 3C       		.uleb128 0x3c
 3635 02b9 19       		.uleb128 0x19
 3636 02ba 00       		.byte	0
ARM GAS  C:\Users\ingan\AppData\Local\Temp\cc00nNWn.s 			page 86


 3637 02bb 00       		.byte	0
 3638 02bc 31       		.uleb128 0x31
 3639 02bd 2E       		.uleb128 0x2e
 3640 02be 00       		.byte	0
 3641 02bf 3F       		.uleb128 0x3f
 3642 02c0 19       		.uleb128 0x19
 3643 02c1 3C       		.uleb128 0x3c
 3644 02c2 19       		.uleb128 0x19
 3645 02c3 6E       		.uleb128 0x6e
 3646 02c4 0E       		.uleb128 0xe
 3647 02c5 03       		.uleb128 0x3
 3648 02c6 0E       		.uleb128 0xe
 3649 02c7 3A       		.uleb128 0x3a
 3650 02c8 0B       		.uleb128 0xb
 3651 02c9 3B       		.uleb128 0x3b
 3652 02ca 0B       		.uleb128 0xb
 3653 02cb 00       		.byte	0
 3654 02cc 00       		.byte	0
 3655 02cd 32       		.uleb128 0x32
 3656 02ce 2E       		.uleb128 0x2e
 3657 02cf 00       		.byte	0
 3658 02d0 3F       		.uleb128 0x3f
 3659 02d1 19       		.uleb128 0x19
 3660 02d2 3C       		.uleb128 0x3c
 3661 02d3 19       		.uleb128 0x19
 3662 02d4 6E       		.uleb128 0x6e
 3663 02d5 0E       		.uleb128 0xe
 3664 02d6 03       		.uleb128 0x3
 3665 02d7 0E       		.uleb128 0xe
 3666 02d8 3A       		.uleb128 0x3a
 3667 02d9 0B       		.uleb128 0xb
 3668 02da 3B       		.uleb128 0x3b
 3669 02db 05       		.uleb128 0x5
 3670 02dc 00       		.byte	0
 3671 02dd 00       		.byte	0
 3672 02de 00       		.byte	0
 3673              		.section	.debug_loc,"",%progbits
 3674              	.Ldebug_loc0:
 3675              	.LLST0:
 3676 0000 00000000 		.4byte	.LVL0
 3677 0004 80000000 		.4byte	.LVL8
 3678 0008 0200     		.2byte	0x2
 3679 000a 30       		.byte	0x30
 3680 000b 9F       		.byte	0x9f
 3681 000c 84000000 		.4byte	.LVL9
 3682 0010 B8000000 		.4byte	.LFE0
 3683 0014 0200     		.2byte	0x2
 3684 0016 30       		.byte	0x30
 3685 0017 9F       		.byte	0x9f
 3686 0018 00000000 		.4byte	0
 3687 001c 00000000 		.4byte	0
 3688              	.LLST1:
 3689 0020 16000000 		.4byte	.LVL1
 3690 0024 2E000000 		.4byte	.LVL5
 3691 0028 0100     		.2byte	0x1
 3692 002a 53       		.byte	0x53
 3693 002b 84000000 		.4byte	.LVL9
ARM GAS  C:\Users\ingan\AppData\Local\Temp\cc00nNWn.s 			page 87


 3694 002f 86000000 		.4byte	.LVL10
 3695 0033 0100     		.2byte	0x1
 3696 0035 53       		.byte	0x53
 3697 0036 00000000 		.4byte	0
 3698 003a 00000000 		.4byte	0
 3699              	.LLST2:
 3700 003e 16000000 		.4byte	.LVL1
 3701 0042 1A000000 		.4byte	.LVL2
 3702 0046 0200     		.2byte	0x2
 3703 0048 30       		.byte	0x30
 3704 0049 9F       		.byte	0x9f
 3705 004a 1A000000 		.4byte	.LVL2
 3706 004e 2E000000 		.4byte	.LVL5
 3707 0052 0200     		.2byte	0x2
 3708 0054 31       		.byte	0x31
 3709 0055 9F       		.byte	0x9f
 3710 0056 84000000 		.4byte	.LVL9
 3711 005a 88000000 		.4byte	.LVL11
 3712 005e 0200     		.2byte	0x2
 3713 0060 30       		.byte	0x30
 3714 0061 9F       		.byte	0x9f
 3715 0062 00000000 		.4byte	0
 3716 0066 00000000 		.4byte	0
 3717              	.LLST3:
 3718 006a 16000000 		.4byte	.LVL1
 3719 006e 2E000000 		.4byte	.LVL5
 3720 0072 0300     		.2byte	0x3
 3721 0074 09       		.byte	0x9
 3722 0075 FF       		.byte	0xff
 3723 0076 9F       		.byte	0x9f
 3724 0077 84000000 		.4byte	.LVL9
 3725 007b 88000000 		.4byte	.LVL11
 3726 007f 0300     		.2byte	0x3
 3727 0081 09       		.byte	0x9
 3728 0082 FF       		.byte	0xff
 3729 0083 9F       		.byte	0x9f
 3730 0084 00000000 		.4byte	0
 3731 0088 00000000 		.4byte	0
 3732              	.LLST4:
 3733 008c 1C000000 		.4byte	.LVL3
 3734 0090 20000000 		.4byte	.LVL4
 3735 0094 0100     		.2byte	0x1
 3736 0096 52       		.byte	0x52
 3737 0097 00000000 		.4byte	0
 3738 009b 00000000 		.4byte	0
 3739              	.LLST5:
 3740 009f 00000000 		.4byte	.LVL13
 3741 00a3 28000000 		.4byte	.LVL19
 3742 00a7 0100     		.2byte	0x1
 3743 00a9 50       		.byte	0x50
 3744 00aa 28000000 		.4byte	.LVL19
 3745 00ae 2A000000 		.4byte	.LVL20
 3746 00b2 0400     		.2byte	0x4
 3747 00b4 F3       		.byte	0xf3
 3748 00b5 01       		.uleb128 0x1
 3749 00b6 50       		.byte	0x50
 3750 00b7 9F       		.byte	0x9f
ARM GAS  C:\Users\ingan\AppData\Local\Temp\cc00nNWn.s 			page 88


 3751 00b8 2A000000 		.4byte	.LVL20
 3752 00bc 2C000000 		.4byte	.LVL21
 3753 00c0 0100     		.2byte	0x1
 3754 00c2 50       		.byte	0x50
 3755 00c3 2C000000 		.4byte	.LVL21
 3756 00c7 38000000 		.4byte	.LFE1
 3757 00cb 0400     		.2byte	0x4
 3758 00cd F3       		.byte	0xf3
 3759 00ce 01       		.uleb128 0x1
 3760 00cf 50       		.byte	0x50
 3761 00d0 9F       		.byte	0x9f
 3762 00d1 00000000 		.4byte	0
 3763 00d5 00000000 		.4byte	0
 3764              	.LLST6:
 3765 00d9 00000000 		.4byte	.LVL13
 3766 00dd 14000000 		.4byte	.LVL16
 3767 00e1 0200     		.2byte	0x2
 3768 00e3 30       		.byte	0x30
 3769 00e4 9F       		.byte	0x9f
 3770 00e5 14000000 		.4byte	.LVL16
 3771 00e9 2A000000 		.4byte	.LVL20
 3772 00ed 0200     		.2byte	0x2
 3773 00ef 31       		.byte	0x31
 3774 00f0 9F       		.byte	0x9f
 3775 00f1 2A000000 		.4byte	.LVL20
 3776 00f5 2C000000 		.4byte	.LVL21
 3777 00f9 0200     		.2byte	0x2
 3778 00fb 30       		.byte	0x30
 3779 00fc 9F       		.byte	0x9f
 3780 00fd 00000000 		.4byte	0
 3781 0101 00000000 		.4byte	0
 3782              	.LLST7:
 3783 0105 00000000 		.4byte	.LVL13
 3784 0109 2C000000 		.4byte	.LVL21
 3785 010d 0300     		.2byte	0x3
 3786 010f 09       		.byte	0x9
 3787 0110 FF       		.byte	0xff
 3788 0111 9F       		.byte	0x9f
 3789 0112 2C000000 		.4byte	.LVL21
 3790 0116 38000000 		.4byte	.LFE1
 3791 011a 0100     		.2byte	0x1
 3792 011c 50       		.byte	0x50
 3793 011d 00000000 		.4byte	0
 3794 0121 00000000 		.4byte	0
 3795              	.LLST8:
 3796 0125 06000000 		.4byte	.LVL14
 3797 0129 0A000000 		.4byte	.LVL15
 3798 012d 0100     		.2byte	0x1
 3799 012f 53       		.byte	0x53
 3800 0130 16000000 		.4byte	.LVL17
 3801 0134 1A000000 		.4byte	.LVL18
 3802 0138 0100     		.2byte	0x1
 3803 013a 53       		.byte	0x53
 3804 013b 00000000 		.4byte	0
 3805 013f 00000000 		.4byte	0
 3806              	.LLST9:
 3807 0143 0C000000 		.4byte	.LVL23
ARM GAS  C:\Users\ingan\AppData\Local\Temp\cc00nNWn.s 			page 89


 3808 0147 1A000000 		.4byte	.LVL25
 3809 014b 0200     		.2byte	0x2
 3810 014d 30       		.byte	0x30
 3811 014e 9F       		.byte	0x9f
 3812 014f 1A000000 		.4byte	.LVL25
 3813 0153 24000000 		.4byte	.LVL27
 3814 0157 0200     		.2byte	0x2
 3815 0159 31       		.byte	0x31
 3816 015a 9F       		.byte	0x9f
 3817 015b 24000000 		.4byte	.LVL27
 3818 015f 54000000 		.4byte	.LVL30
 3819 0163 0200     		.2byte	0x2
 3820 0165 32       		.byte	0x32
 3821 0166 9F       		.byte	0x9f
 3822 0167 54000000 		.4byte	.LVL30
 3823 016b 5A000000 		.4byte	.LVL32
 3824 016f 0200     		.2byte	0x2
 3825 0171 31       		.byte	0x31
 3826 0172 9F       		.byte	0x9f
 3827 0173 5A000000 		.4byte	.LVL32
 3828 0177 74000000 		.4byte	.LFE2
 3829 017b 0200     		.2byte	0x2
 3830 017d 30       		.byte	0x30
 3831 017e 9F       		.byte	0x9f
 3832 017f 00000000 		.4byte	0
 3833 0183 00000000 		.4byte	0
 3834              	.LLST10:
 3835 0187 12000000 		.4byte	.LVL24
 3836 018b 1A000000 		.4byte	.LVL25
 3837 018f 0100     		.2byte	0x1
 3838 0191 50       		.byte	0x50
 3839 0192 1E000000 		.4byte	.LVL26
 3840 0196 24000000 		.4byte	.LVL27
 3841 019a 0100     		.2byte	0x1
 3842 019c 50       		.byte	0x50
 3843 019d 54000000 		.4byte	.LVL30
 3844 01a1 57000000 		.4byte	.LVL31-1
 3845 01a5 0100     		.2byte	0x1
 3846 01a7 50       		.byte	0x50
 3847 01a8 5A000000 		.4byte	.LVL32
 3848 01ac 5D000000 		.4byte	.LVL33-1
 3849 01b0 0100     		.2byte	0x1
 3850 01b2 50       		.byte	0x50
 3851 01b3 00000000 		.4byte	0
 3852 01b7 00000000 		.4byte	0
 3853              	.LLST11:
 3854 01bb 00000000 		.4byte	.LVL22
 3855 01bf 32000000 		.4byte	.LVL28
 3856 01c3 0200     		.2byte	0x2
 3857 01c5 30       		.byte	0x30
 3858 01c6 9F       		.byte	0x9f
 3859 01c7 32000000 		.4byte	.LVL28
 3860 01cb 34000000 		.4byte	.LVL29
 3861 01cf 0100     		.2byte	0x1
 3862 01d1 50       		.byte	0x50
 3863 01d2 34000000 		.4byte	.LVL29
 3864 01d6 74000000 		.4byte	.LFE2
ARM GAS  C:\Users\ingan\AppData\Local\Temp\cc00nNWn.s 			page 90


 3865 01da 0200     		.2byte	0x2
 3866 01dc 30       		.byte	0x30
 3867 01dd 9F       		.byte	0x9f
 3868 01de 00000000 		.4byte	0
 3869 01e2 00000000 		.4byte	0
 3870              	.LLST12:
 3871 01e6 00000000 		.4byte	.LVL34
 3872 01ea 16000000 		.4byte	.LVL37
 3873 01ee 0100     		.2byte	0x1
 3874 01f0 50       		.byte	0x50
 3875 01f1 16000000 		.4byte	.LVL37
 3876 01f5 2F000000 		.4byte	.LVL39-1
 3877 01f9 0100     		.2byte	0x1
 3878 01fb 51       		.byte	0x51
 3879 01fc 2F000000 		.4byte	.LVL39-1
 3880 0200 3C000000 		.4byte	.LFE3
 3881 0204 0400     		.2byte	0x4
 3882 0206 F3       		.byte	0xf3
 3883 0207 01       		.uleb128 0x1
 3884 0208 50       		.byte	0x50
 3885 0209 9F       		.byte	0x9f
 3886 020a 00000000 		.4byte	0
 3887 020e 00000000 		.4byte	0
 3888              	.LLST13:
 3889 0212 00000000 		.4byte	.LVL34
 3890 0216 08000000 		.4byte	.LVL35
 3891 021a 0100     		.2byte	0x1
 3892 021c 51       		.byte	0x51
 3893 021d 08000000 		.4byte	.LVL35
 3894 0221 2C000000 		.4byte	.LVL38
 3895 0225 0400     		.2byte	0x4
 3896 0227 F3       		.byte	0xf3
 3897 0228 01       		.uleb128 0x1
 3898 0229 51       		.byte	0x51
 3899 022a 9F       		.byte	0x9f
 3900 022b 2C000000 		.4byte	.LVL38
 3901 022f 2F000000 		.4byte	.LVL39-1
 3902 0233 0100     		.2byte	0x1
 3903 0235 52       		.byte	0x52
 3904 0236 00000000 		.4byte	0
 3905 023a 00000000 		.4byte	0
 3906              	.LLST14:
 3907 023e 12000000 		.4byte	.LVL36
 3908 0242 2F000000 		.4byte	.LVL39-1
 3909 0246 0100     		.2byte	0x1
 3910 0248 53       		.byte	0x53
 3911 0249 00000000 		.4byte	0
 3912 024d 00000000 		.4byte	0
 3913              	.LLST15:
 3914 0251 00000000 		.4byte	.LVL40
 3915 0255 30000000 		.4byte	.LVL46
 3916 0259 0100     		.2byte	0x1
 3917 025b 50       		.byte	0x50
 3918 025c 30000000 		.4byte	.LVL46
 3919 0260 68000000 		.4byte	.LVL52
 3920 0264 0100     		.2byte	0x1
 3921 0266 58       		.byte	0x58
ARM GAS  C:\Users\ingan\AppData\Local\Temp\cc00nNWn.s 			page 91


 3922 0267 68000000 		.4byte	.LVL52
 3923 026b 6C000000 		.4byte	.LVL53
 3924 026f 0400     		.2byte	0x4
 3925 0271 F3       		.byte	0xf3
 3926 0272 01       		.uleb128 0x1
 3927 0273 50       		.byte	0x50
 3928 0274 9F       		.byte	0x9f
 3929 0275 6C000000 		.4byte	.LVL53
 3930 0279 9C000000 		.4byte	.LFE5
 3931 027d 0100     		.2byte	0x1
 3932 027f 58       		.byte	0x58
 3933 0280 00000000 		.4byte	0
 3934 0284 00000000 		.4byte	0
 3935              	.LLST16:
 3936 0288 30000000 		.4byte	.LVL46
 3937 028c 42000000 		.4byte	.LVL48
 3938 0290 0100     		.2byte	0x1
 3939 0292 54       		.byte	0x54
 3940 0293 4C000000 		.4byte	.LVL49
 3941 0297 4E000000 		.4byte	.LVL50
 3942 029b 0100     		.2byte	0x1
 3943 029d 54       		.byte	0x54
 3944 029e 6C000000 		.4byte	.LVL53
 3945 02a2 78000000 		.4byte	.LVL54
 3946 02a6 0100     		.2byte	0x1
 3947 02a8 54       		.byte	0x54
 3948 02a9 78000000 		.4byte	.LVL54
 3949 02ad 8A000000 		.4byte	.LVL57
 3950 02b1 0200     		.2byte	0x2
 3951 02b3 30       		.byte	0x30
 3952 02b4 9F       		.byte	0x9f
 3953 02b5 8A000000 		.4byte	.LVL57
 3954 02b9 8C000000 		.4byte	.LVL58
 3955 02bd 0100     		.2byte	0x1
 3956 02bf 54       		.byte	0x54
 3957 02c0 00000000 		.4byte	0
 3958 02c4 00000000 		.4byte	0
 3959              	.LLST17:
 3960 02c8 40000000 		.4byte	.LVL47
 3961 02cc 4E000000 		.4byte	.LVL50
 3962 02d0 0100     		.2byte	0x1
 3963 02d2 56       		.byte	0x56
 3964 02d3 6C000000 		.4byte	.LVL53
 3965 02d7 88000000 		.4byte	.LVL56
 3966 02db 0100     		.2byte	0x1
 3967 02dd 54       		.byte	0x54
 3968 02de 8A000000 		.4byte	.LVL57
 3969 02e2 9C000000 		.4byte	.LFE5
 3970 02e6 0100     		.2byte	0x1
 3971 02e8 56       		.byte	0x56
 3972 02e9 00000000 		.4byte	0
 3973 02ed 00000000 		.4byte	0
 3974              	.LLST18:
 3975 02f1 00000000 		.4byte	.LVL40
 3976 02f5 30000000 		.4byte	.LVL46
 3977 02f9 0200     		.2byte	0x2
 3978 02fb 30       		.byte	0x30
ARM GAS  C:\Users\ingan\AppData\Local\Temp\cc00nNWn.s 			page 92


 3979 02fc 9F       		.byte	0x9f
 3980 02fd 30000000 		.4byte	.LVL46
 3981 0301 68000000 		.4byte	.LVL52
 3982 0305 0100     		.2byte	0x1
 3983 0307 59       		.byte	0x59
 3984 0308 6C000000 		.4byte	.LVL53
 3985 030c 9C000000 		.4byte	.LFE5
 3986 0310 0100     		.2byte	0x1
 3987 0312 59       		.byte	0x59
 3988 0313 00000000 		.4byte	0
 3989 0317 00000000 		.4byte	0
 3990              	.LLST19:
 3991 031b 12000000 		.4byte	.LVL41
 3992 031f 68000000 		.4byte	.LVL52
 3993 0323 0100     		.2byte	0x1
 3994 0325 57       		.byte	0x57
 3995 0326 68000000 		.4byte	.LVL52
 3996 032a 6B000000 		.4byte	.LVL53-1
 3997 032e 0100     		.2byte	0x1
 3998 0330 50       		.byte	0x50
 3999 0331 6C000000 		.4byte	.LVL53
 4000 0335 9C000000 		.4byte	.LFE5
 4001 0339 0100     		.2byte	0x1
 4002 033b 57       		.byte	0x57
 4003 033c 00000000 		.4byte	0
 4004 0340 00000000 		.4byte	0
 4005              	.LLST20:
 4006 0344 12000000 		.4byte	.LVL41
 4007 0348 30000000 		.4byte	.LVL46
 4008 034c 0100     		.2byte	0x1
 4009 034e 50       		.byte	0x50
 4010 034f 30000000 		.4byte	.LVL46
 4011 0353 68000000 		.4byte	.LVL52
 4012 0357 0100     		.2byte	0x1
 4013 0359 58       		.byte	0x58
 4014 035a 68000000 		.4byte	.LVL52
 4015 035e 6C000000 		.4byte	.LVL53
 4016 0362 0400     		.2byte	0x4
 4017 0364 F3       		.byte	0xf3
 4018 0365 01       		.uleb128 0x1
 4019 0366 50       		.byte	0x50
 4020 0367 9F       		.byte	0x9f
 4021 0368 6C000000 		.4byte	.LVL53
 4022 036c 9C000000 		.4byte	.LFE5
 4023 0370 0100     		.2byte	0x1
 4024 0372 58       		.byte	0x58
 4025 0373 00000000 		.4byte	0
 4026 0377 00000000 		.4byte	0
 4027              	.LLST21:
 4028 037b 12000000 		.4byte	.LVL41
 4029 037f 16000000 		.4byte	.LVL42
 4030 0383 0200     		.2byte	0x2
 4031 0385 30       		.byte	0x30
 4032 0386 9F       		.byte	0x9f
 4033 0387 16000000 		.4byte	.LVL42
 4034 038b 18000000 		.4byte	.LVL43
 4035 038f 0100     		.2byte	0x1
ARM GAS  C:\Users\ingan\AppData\Local\Temp\cc00nNWn.s 			page 93


 4036 0391 54       		.byte	0x54
 4037 0392 1A000000 		.4byte	.LVL44
 4038 0396 22000000 		.4byte	.LVL45
 4039 039a 0100     		.2byte	0x1
 4040 039c 54       		.byte	0x54
 4041 039d 00000000 		.4byte	0
 4042 03a1 00000000 		.4byte	0
 4043              	.LLST22:
 4044 03a5 00000000 		.4byte	.LVL59
 4045 03a9 12000000 		.4byte	.LVL60
 4046 03ad 0100     		.2byte	0x1
 4047 03af 50       		.byte	0x50
 4048 03b0 12000000 		.4byte	.LVL60
 4049 03b4 17000000 		.4byte	.LVL61-1
 4050 03b8 0200     		.2byte	0x2
 4051 03ba 71       		.byte	0x71
 4052 03bb 00       		.sleb128 0
 4053 03bc 17000000 		.4byte	.LVL61-1
 4054 03c0 28000000 		.4byte	.LFE6
 4055 03c4 0400     		.2byte	0x4
 4056 03c6 F3       		.byte	0xf3
 4057 03c7 01       		.uleb128 0x1
 4058 03c8 50       		.byte	0x50
 4059 03c9 9F       		.byte	0x9f
 4060 03ca 00000000 		.4byte	0
 4061 03ce 00000000 		.4byte	0
 4062              	.LLST23:
 4063 03d2 1A000000 		.4byte	.LVL64
 4064 03d6 1E000000 		.4byte	.LVL66
 4065 03da 0200     		.2byte	0x2
 4066 03dc 30       		.byte	0x30
 4067 03dd 9F       		.byte	0x9f
 4068 03de 00000000 		.4byte	0
 4069 03e2 00000000 		.4byte	0
 4070              	.LLST24:
 4071 03e6 0C000000 		.4byte	.LVL63
 4072 03ea 1C000000 		.4byte	.LVL65
 4073 03ee 0100     		.2byte	0x1
 4074 03f0 50       		.byte	0x50
 4075 03f1 1E000000 		.4byte	.LVL66
 4076 03f5 21000000 		.4byte	.LVL67-1
 4077 03f9 0100     		.2byte	0x1
 4078 03fb 50       		.byte	0x50
 4079 03fc 00000000 		.4byte	0
 4080 0400 00000000 		.4byte	0
 4081              	.LLST25:
 4082 0404 00000000 		.4byte	.LVL70
 4083 0408 12000000 		.4byte	.LVL73
 4084 040c 0100     		.2byte	0x1
 4085 040e 50       		.byte	0x50
 4086 040f 12000000 		.4byte	.LVL73
 4087 0413 15000000 		.4byte	.LVL74-1
 4088 0417 0100     		.2byte	0x1
 4089 0419 51       		.byte	0x51
 4090 041a 15000000 		.4byte	.LVL74-1
 4091 041e 34000000 		.4byte	.LFE11
 4092 0422 0400     		.2byte	0x4
ARM GAS  C:\Users\ingan\AppData\Local\Temp\cc00nNWn.s 			page 94


 4093 0424 F3       		.byte	0xf3
 4094 0425 01       		.uleb128 0x1
 4095 0426 50       		.byte	0x50
 4096 0427 9F       		.byte	0x9f
 4097 0428 00000000 		.4byte	0
 4098 042c 00000000 		.4byte	0
 4099              	.LLST26:
 4100 0430 00000000 		.4byte	.LVL70
 4101 0434 0E000000 		.4byte	.LVL71
 4102 0438 0100     		.2byte	0x1
 4103 043a 51       		.byte	0x51
 4104 043b 0E000000 		.4byte	.LVL71
 4105 043f 18000000 		.4byte	.LVL75
 4106 0443 0400     		.2byte	0x4
 4107 0445 F3       		.byte	0xf3
 4108 0446 01       		.uleb128 0x1
 4109 0447 51       		.byte	0x51
 4110 0448 9F       		.byte	0x9f
 4111 0449 18000000 		.4byte	.LVL75
 4112 044d 2C000000 		.4byte	.LVL78
 4113 0451 0100     		.2byte	0x1
 4114 0453 55       		.byte	0x55
 4115 0454 00000000 		.4byte	0
 4116 0458 00000000 		.4byte	0
 4117              	.LLST27:
 4118 045c 10000000 		.4byte	.LVL72
 4119 0460 2C000000 		.4byte	.LVL78
 4120 0464 0100     		.2byte	0x1
 4121 0466 54       		.byte	0x54
 4122 0467 00000000 		.4byte	0
 4123 046b 00000000 		.4byte	0
 4124              	.LLST28:
 4125 046f 00000000 		.4byte	.LVL79
 4126 0473 1C000000 		.4byte	.LVL81
 4127 0477 0100     		.2byte	0x1
 4128 0479 50       		.byte	0x50
 4129 047a 1C000000 		.4byte	.LVL81
 4130 047e 21000000 		.4byte	.LVL82-1
 4131 0482 0100     		.2byte	0x1
 4132 0484 51       		.byte	0x51
 4133 0485 21000000 		.4byte	.LVL82-1
 4134 0489 44000000 		.4byte	.LFE12
 4135 048d 0400     		.2byte	0x4
 4136 048f F3       		.byte	0xf3
 4137 0490 01       		.uleb128 0x1
 4138 0491 50       		.byte	0x50
 4139 0492 9F       		.byte	0x9f
 4140 0493 00000000 		.4byte	0
 4141 0497 00000000 		.4byte	0
 4142              	.LLST29:
 4143 049b 10000000 		.4byte	.LVL80
 4144 049f 38000000 		.4byte	.LVL86
 4145 04a3 0100     		.2byte	0x1
 4146 04a5 54       		.byte	0x54
 4147 04a6 00000000 		.4byte	0
 4148 04aa 00000000 		.4byte	0
 4149              	.LLST30:
ARM GAS  C:\Users\ingan\AppData\Local\Temp\cc00nNWn.s 			page 95


 4150 04ae 24000000 		.4byte	.LVL83
 4151 04b2 38000000 		.4byte	.LVL86
 4152 04b6 0100     		.2byte	0x1
 4153 04b8 55       		.byte	0x55
 4154 04b9 00000000 		.4byte	0
 4155 04bd 00000000 		.4byte	0
 4156              	.LLST31:
 4157 04c1 10000000 		.4byte	.LVL87
 4158 04c5 32000000 		.4byte	.LVL91
 4159 04c9 0100     		.2byte	0x1
 4160 04cb 54       		.byte	0x54
 4161 04cc 00000000 		.4byte	0
 4162 04d0 00000000 		.4byte	0
 4163              	.LLST32:
 4164 04d4 00000000 		.4byte	.LVL92
 4165 04d8 20000000 		.4byte	.LVL93
 4166 04dc 0200     		.2byte	0x2
 4167 04de 30       		.byte	0x30
 4168 04df 9F       		.byte	0x9f
 4169 04e0 20000000 		.4byte	.LVL93
 4170 04e4 24000000 		.4byte	.LVL94
 4171 04e8 0100     		.2byte	0x1
 4172 04ea 50       		.byte	0x50
 4173 04eb 24000000 		.4byte	.LVL94
 4174 04ef 34000000 		.4byte	.LFE14
 4175 04f3 0200     		.2byte	0x2
 4176 04f5 30       		.byte	0x30
 4177 04f6 9F       		.byte	0x9f
 4178 04f7 00000000 		.4byte	0
 4179 04fb 00000000 		.4byte	0
 4180              	.LLST33:
 4181 04ff 10000000 		.4byte	.LVL95
 4182 0503 12000000 		.4byte	.LVL96
 4183 0507 0100     		.2byte	0x1
 4184 0509 50       		.byte	0x50
 4185 050a 12000000 		.4byte	.LVL96
 4186 050e 18000000 		.4byte	.LVL97
 4187 0512 0800     		.2byte	0x8
 4188 0514 70       		.byte	0x70
 4189 0515 00       		.sleb128 0
 4190 0516 38       		.byte	0x38
 4191 0517 24       		.byte	0x24
 4192 0518 71       		.byte	0x71
 4193 0519 00       		.sleb128 0
 4194 051a 21       		.byte	0x21
 4195 051b 9F       		.byte	0x9f
 4196 051c 18000000 		.4byte	.LVL97
 4197 0520 1E000000 		.4byte	.LVL98
 4198 0524 0800     		.2byte	0x8
 4199 0526 71       		.byte	0x71
 4200 0527 00       		.sleb128 0
 4201 0528 38       		.byte	0x38
 4202 0529 24       		.byte	0x24
 4203 052a 72       		.byte	0x72
 4204 052b 00       		.sleb128 0
 4205 052c 21       		.byte	0x21
 4206 052d 9F       		.byte	0x9f
ARM GAS  C:\Users\ingan\AppData\Local\Temp\cc00nNWn.s 			page 96


 4207 052e 1E000000 		.4byte	.LVL98
 4208 0532 22000000 		.4byte	.LVL99
 4209 0536 0800     		.2byte	0x8
 4210 0538 73       		.byte	0x73
 4211 0539 00       		.sleb128 0
 4212 053a 38       		.byte	0x38
 4213 053b 24       		.byte	0x24
 4214 053c 70       		.byte	0x70
 4215 053d 00       		.sleb128 0
 4216 053e 21       		.byte	0x21
 4217 053f 9F       		.byte	0x9f
 4218 0540 22000000 		.4byte	.LVL99
 4219 0544 30000000 		.4byte	.LFE15
 4220 0548 0100     		.2byte	0x1
 4221 054a 50       		.byte	0x50
 4222 054b 00000000 		.4byte	0
 4223 054f 00000000 		.4byte	0
 4224              	.LLST34:
 4225 0553 00000000 		.4byte	.LVL100
 4226 0557 36000000 		.4byte	.LVL102
 4227 055b 0100     		.2byte	0x1
 4228 055d 50       		.byte	0x50
 4229 055e 36000000 		.4byte	.LVL102
 4230 0562 3E000000 		.4byte	.LVL104
 4231 0566 0700     		.2byte	0x7
 4232 0568 74       		.byte	0x74
 4233 0569 00       		.sleb128 0
 4234 056a 31       		.byte	0x31
 4235 056b 24       		.byte	0x24
 4236 056c 71       		.byte	0x71
 4237 056d 00       		.sleb128 0
 4238 056e 22       		.byte	0x22
 4239 056f 3E000000 		.4byte	.LVL104
 4240 0573 48000000 		.4byte	.LVL105
 4241 0577 0A00     		.2byte	0xa
 4242 0579 74       		.byte	0x74
 4243 057a 00       		.sleb128 0
 4244 057b 31       		.byte	0x31
 4245 057c 24       		.byte	0x24
 4246 057d 03       		.byte	0x3
 4247 057e 00000000 		.4byte	USBUART_serialStateBitmap
 4248 0582 22       		.byte	0x22
 4249 0583 48000000 		.4byte	.LVL105
 4250 0587 4B000000 		.4byte	.LVL106-1
 4251 058b 1200     		.2byte	0x12
 4252 058d 03       		.byte	0x3
 4253 058e 00000000 		.4byte	USBUART_activeCom
 4254 0592 94       		.byte	0x94
 4255 0593 01       		.byte	0x1
 4256 0594 08       		.byte	0x8
 4257 0595 FF       		.byte	0xff
 4258 0596 1A       		.byte	0x1a
 4259 0597 31       		.byte	0x31
 4260 0598 24       		.byte	0x24
 4261 0599 03       		.byte	0x3
 4262 059a 00000000 		.4byte	USBUART_serialStateBitmap
 4263 059e 22       		.byte	0x22
ARM GAS  C:\Users\ingan\AppData\Local\Temp\cc00nNWn.s 			page 97


 4264 059f 4B000000 		.4byte	.LVL106-1
 4265 05a3 60000000 		.4byte	.LFE20
 4266 05a7 0400     		.2byte	0x4
 4267 05a9 F3       		.byte	0xf3
 4268 05aa 01       		.uleb128 0x1
 4269 05ab 50       		.byte	0x50
 4270 05ac 9F       		.byte	0x9f
 4271 05ad 00000000 		.4byte	0
 4272 05b1 00000000 		.4byte	0
 4273              	.LLST35:
 4274 05b5 0E000000 		.4byte	.LVL101
 4275 05b9 3A000000 		.4byte	.LVL103
 4276 05bd 0100     		.2byte	0x1
 4277 05bf 53       		.byte	0x53
 4278 05c0 3A000000 		.4byte	.LVL103
 4279 05c4 4B000000 		.4byte	.LVL106-1
 4280 05c8 0100     		.2byte	0x1
 4281 05ca 50       		.byte	0x50
 4282 05cb 00000000 		.4byte	0
 4283 05cf 00000000 		.4byte	0
 4284              	.LLST36:
 4285 05d3 00000000 		.4byte	.LVL108
 4286 05d7 06000000 		.4byte	.LVL109
 4287 05db 0100     		.2byte	0x1
 4288 05dd 50       		.byte	0x50
 4289 05de 06000000 		.4byte	.LVL109
 4290 05e2 50000000 		.4byte	.LFE25
 4291 05e6 0400     		.2byte	0x4
 4292 05e8 F3       		.byte	0xf3
 4293 05e9 01       		.uleb128 0x1
 4294 05ea 50       		.byte	0x50
 4295 05eb 9F       		.byte	0x9f
 4296 05ec 00000000 		.4byte	0
 4297 05f0 00000000 		.4byte	0
 4298              	.LLST37:
 4299 05f4 00000000 		.4byte	.LVL108
 4300 05f8 1E000000 		.4byte	.LVL112
 4301 05fc 0100     		.2byte	0x1
 4302 05fe 52       		.byte	0x52
 4303 05ff 1E000000 		.4byte	.LVL112
 4304 0603 50000000 		.4byte	.LFE25
 4305 0607 0100     		.2byte	0x1
 4306 0609 52       		.byte	0x52
 4307 060a 00000000 		.4byte	0
 4308 060e 00000000 		.4byte	0
 4309              	.LLST38:
 4310 0612 0A000000 		.4byte	.LVL110
 4311 0616 18000000 		.4byte	.LVL111
 4312 061a 0100     		.2byte	0x1
 4313 061c 53       		.byte	0x53
 4314 061d 18000000 		.4byte	.LVL111
 4315 0621 22000000 		.4byte	.LVL113
 4316 0625 0A00     		.2byte	0xa
 4317 0627 F3       		.byte	0xf3
 4318 0628 01       		.uleb128 0x1
 4319 0629 50       		.byte	0x50
 4320 062a 23       		.byte	0x23
ARM GAS  C:\Users\ingan\AppData\Local\Temp\cc00nNWn.s 			page 98


 4321 062b 03       		.uleb128 0x3
 4322 062c 94       		.byte	0x94
 4323 062d 01       		.byte	0x1
 4324 062e 33       		.byte	0x33
 4325 062f 1A       		.byte	0x1a
 4326 0630 9F       		.byte	0x9f
 4327 0631 22000000 		.4byte	.LVL113
 4328 0635 2C000000 		.4byte	.LVL114
 4329 0639 0100     		.2byte	0x1
 4330 063b 53       		.byte	0x53
 4331 063c 2C000000 		.4byte	.LVL114
 4332 0640 36000000 		.4byte	.LVL116
 4333 0644 0A00     		.2byte	0xa
 4334 0646 F3       		.byte	0xf3
 4335 0647 01       		.uleb128 0x1
 4336 0648 50       		.byte	0x50
 4337 0649 23       		.byte	0x23
 4338 064a 03       		.uleb128 0x3
 4339 064b 94       		.byte	0x94
 4340 064c 01       		.byte	0x1
 4341 064d 33       		.byte	0x33
 4342 064e 1A       		.byte	0x1a
 4343 064f 9F       		.byte	0x9f
 4344 0650 36000000 		.4byte	.LVL116
 4345 0654 3C000000 		.4byte	.LVL117
 4346 0658 0100     		.2byte	0x1
 4347 065a 53       		.byte	0x53
 4348 065b 3C000000 		.4byte	.LVL117
 4349 065f 50000000 		.4byte	.LFE25
 4350 0663 0A00     		.2byte	0xa
 4351 0665 F3       		.byte	0xf3
 4352 0666 01       		.uleb128 0x1
 4353 0667 50       		.byte	0x50
 4354 0668 23       		.byte	0x23
 4355 0669 03       		.uleb128 0x3
 4356 066a 94       		.byte	0x94
 4357 066b 01       		.byte	0x1
 4358 066c 33       		.byte	0x33
 4359 066d 1A       		.byte	0x1a
 4360 066e 9F       		.byte	0x9f
 4361 066f 00000000 		.4byte	0
 4362 0673 00000000 		.4byte	0
 4363              		.section	.debug_aranges,"",%progbits
 4364 0000 DC000000 		.4byte	0xdc
 4365 0004 0200     		.2byte	0x2
 4366 0006 00000000 		.4byte	.Ldebug_info0
 4367 000a 04       		.byte	0x4
 4368 000b 00       		.byte	0
 4369 000c 0000     		.2byte	0
 4370 000e 0000     		.2byte	0
 4371 0010 00000000 		.4byte	.LFB0
 4372 0014 B8000000 		.4byte	.LFE0-.LFB0
 4373 0018 00000000 		.4byte	.LFB1
 4374 001c 38000000 		.4byte	.LFE1-.LFB1
 4375 0020 00000000 		.4byte	.LFB2
 4376 0024 74000000 		.4byte	.LFE2-.LFB2
 4377 0028 00000000 		.4byte	.LFB3
ARM GAS  C:\Users\ingan\AppData\Local\Temp\cc00nNWn.s 			page 99


 4378 002c 3C000000 		.4byte	.LFE3-.LFB3
 4379 0030 00000000 		.4byte	.LFB5
 4380 0034 9C000000 		.4byte	.LFE5-.LFB5
 4381 0038 00000000 		.4byte	.LFB6
 4382 003c 28000000 		.4byte	.LFE6-.LFB6
 4383 0040 00000000 		.4byte	.LFB7
 4384 0044 30000000 		.4byte	.LFE7-.LFB7
 4385 0048 00000000 		.4byte	.LFB8
 4386 004c 30000000 		.4byte	.LFE8-.LFB8
 4387 0050 00000000 		.4byte	.LFB9
 4388 0054 14000000 		.4byte	.LFE9-.LFB9
 4389 0058 00000000 		.4byte	.LFB10
 4390 005c 14000000 		.4byte	.LFE10-.LFB10
 4391 0060 00000000 		.4byte	.LFB11
 4392 0064 34000000 		.4byte	.LFE11-.LFB11
 4393 0068 00000000 		.4byte	.LFB12
 4394 006c 44000000 		.4byte	.LFE12-.LFB12
 4395 0070 00000000 		.4byte	.LFB13
 4396 0074 3C000000 		.4byte	.LFE13-.LFB13
 4397 0078 00000000 		.4byte	.LFB14
 4398 007c 34000000 		.4byte	.LFE14-.LFB14
 4399 0080 00000000 		.4byte	.LFB15
 4400 0084 30000000 		.4byte	.LFE15-.LFB15
 4401 0088 00000000 		.4byte	.LFB16
 4402 008c 18000000 		.4byte	.LFE16-.LFB16
 4403 0090 00000000 		.4byte	.LFB17
 4404 0094 18000000 		.4byte	.LFE17-.LFB17
 4405 0098 00000000 		.4byte	.LFB18
 4406 009c 18000000 		.4byte	.LFE18-.LFB18
 4407 00a0 00000000 		.4byte	.LFB19
 4408 00a4 18000000 		.4byte	.LFE19-.LFB19
 4409 00a8 00000000 		.4byte	.LFB20
 4410 00ac 60000000 		.4byte	.LFE20-.LFB20
 4411 00b0 00000000 		.4byte	.LFB21
 4412 00b4 18000000 		.4byte	.LFE21-.LFB21
 4413 00b8 00000000 		.4byte	.LFB22
 4414 00bc 24000000 		.4byte	.LFE22-.LFB22
 4415 00c0 00000000 		.4byte	.LFB23
 4416 00c4 14000000 		.4byte	.LFE23-.LFB23
 4417 00c8 00000000 		.4byte	.LFB24
 4418 00cc 0C000000 		.4byte	.LFE24-.LFB24
 4419 00d0 00000000 		.4byte	.LFB25
 4420 00d4 50000000 		.4byte	.LFE25-.LFB25
 4421 00d8 00000000 		.4byte	0
 4422 00dc 00000000 		.4byte	0
 4423              		.section	.debug_ranges,"",%progbits
 4424              	.Ldebug_ranges0:
 4425 0000 02000000 		.4byte	.LBB6
 4426 0004 04000000 		.4byte	.LBE6
 4427 0008 06000000 		.4byte	.LBB11
 4428 000c 14000000 		.4byte	.LBE11
 4429 0010 16000000 		.4byte	.LBB12
 4430 0014 2E000000 		.4byte	.LBE12
 4431 0018 84000000 		.4byte	.LBB13
 4432 001c 88000000 		.4byte	.LBE13
 4433 0020 00000000 		.4byte	0
 4434 0024 00000000 		.4byte	0
ARM GAS  C:\Users\ingan\AppData\Local\Temp\cc00nNWn.s 			page 100


 4435 0028 0A000000 		.4byte	.LBB14
 4436 002c 0C000000 		.4byte	.LBE14
 4437 0030 12000000 		.4byte	.LBB18
 4438 0034 24000000 		.4byte	.LBE18
 4439 0038 2C000000 		.4byte	.LBB19
 4440 003c 30000000 		.4byte	.LBE19
 4441 0040 00000000 		.4byte	0
 4442 0044 00000000 		.4byte	0
 4443 0048 00000000 		.4byte	.LFB0
 4444 004c B8000000 		.4byte	.LFE0
 4445 0050 00000000 		.4byte	.LFB1
 4446 0054 38000000 		.4byte	.LFE1
 4447 0058 00000000 		.4byte	.LFB2
 4448 005c 74000000 		.4byte	.LFE2
 4449 0060 00000000 		.4byte	.LFB3
 4450 0064 3C000000 		.4byte	.LFE3
 4451 0068 00000000 		.4byte	.LFB5
 4452 006c 9C000000 		.4byte	.LFE5
 4453 0070 00000000 		.4byte	.LFB6
 4454 0074 28000000 		.4byte	.LFE6
 4455 0078 00000000 		.4byte	.LFB7
 4456 007c 30000000 		.4byte	.LFE7
 4457 0080 00000000 		.4byte	.LFB8
 4458 0084 30000000 		.4byte	.LFE8
 4459 0088 00000000 		.4byte	.LFB9
 4460 008c 14000000 		.4byte	.LFE9
 4461 0090 00000000 		.4byte	.LFB10
 4462 0094 14000000 		.4byte	.LFE10
 4463 0098 00000000 		.4byte	.LFB11
 4464 009c 34000000 		.4byte	.LFE11
 4465 00a0 00000000 		.4byte	.LFB12
 4466 00a4 44000000 		.4byte	.LFE12
 4467 00a8 00000000 		.4byte	.LFB13
 4468 00ac 3C000000 		.4byte	.LFE13
 4469 00b0 00000000 		.4byte	.LFB14
 4470 00b4 34000000 		.4byte	.LFE14
 4471 00b8 00000000 		.4byte	.LFB15
 4472 00bc 30000000 		.4byte	.LFE15
 4473 00c0 00000000 		.4byte	.LFB16
 4474 00c4 18000000 		.4byte	.LFE16
 4475 00c8 00000000 		.4byte	.LFB17
 4476 00cc 18000000 		.4byte	.LFE17
 4477 00d0 00000000 		.4byte	.LFB18
 4478 00d4 18000000 		.4byte	.LFE18
 4479 00d8 00000000 		.4byte	.LFB19
 4480 00dc 18000000 		.4byte	.LFE19
 4481 00e0 00000000 		.4byte	.LFB20
 4482 00e4 60000000 		.4byte	.LFE20
 4483 00e8 00000000 		.4byte	.LFB21
 4484 00ec 18000000 		.4byte	.LFE21
 4485 00f0 00000000 		.4byte	.LFB22
 4486 00f4 24000000 		.4byte	.LFE22
 4487 00f8 00000000 		.4byte	.LFB23
 4488 00fc 14000000 		.4byte	.LFE23
 4489 0100 00000000 		.4byte	.LFB24
 4490 0104 0C000000 		.4byte	.LFE24
 4491 0108 00000000 		.4byte	.LFB25
ARM GAS  C:\Users\ingan\AppData\Local\Temp\cc00nNWn.s 			page 101


 4492 010c 50000000 		.4byte	.LFE25
 4493 0110 00000000 		.4byte	0
 4494 0114 00000000 		.4byte	0
 4495              		.section	.debug_line,"",%progbits
 4496              	.Ldebug_line0:
 4497 0000 7C030000 		.section	.debug_str,"MS",%progbits,1
 4497      02006600 
 4497      00000201 
 4497      FB0E0D00 
 4497      01010101 
 4498              	.LASF45:
 4499 0000 77496E64 		.ascii	"wIndex\000"
 4499      657800
 4500              	.LASF35:
 4501 0007 636F756E 		.ascii	"count\000"
 4501      7400
 4502              	.LASF92:
 4503 000d 55534255 		.ascii	"USBUART_GetComPort\000"
 4503      4152545F 
 4503      47657443 
 4503      6F6D506F 
 4503      727400
 4504              	.LASF10:
 4505 0020 75696E74 		.ascii	"uint16\000"
 4505      313600
 4506              	.LASF1:
 4507 0027 756E7369 		.ascii	"unsigned char\000"
 4507      676E6564 
 4507      20636861 
 4507      7200
 4508              	.LASF120:
 4509 0035 55534255 		.ascii	"USBUART_GetInterfaceComPort\000"
 4509      4152545F 
 4509      47657449 
 4509      6E746572 
 4509      66616365 
 4510              	.LASF65:
 4511 0051 74784461 		.ascii	"txDataByte\000"
 4511      74614279 
 4511      746500
 4512              	.LASF53:
 4513 005c 73747269 		.ascii	"string\000"
 4513      6E6700
 4514              	.LASF11:
 4515 0063 75696E74 		.ascii	"uint32\000"
 4515      333200
 4516              	.LASF113:
 4517 006a 55534255 		.ascii	"USBUART_LoadInEP\000"
 4517      4152545F 
 4517      4C6F6164 
 4517      496E4550 
 4517      00
 4518              	.LASF103:
 4519 007b 55534255 		.ascii	"USBUART_serialStateBitmap\000"
 4519      4152545F 
 4519      73657269 
 4519      616C5374 
ARM GAS  C:\Users\ingan\AppData\Local\Temp\cc00nNWn.s 			page 102


 4519      61746542 
 4520              	.LASF7:
 4521 0095 6C6F6E67 		.ascii	"long long unsigned int\000"
 4521      206C6F6E 
 4521      6720756E 
 4521      7369676E 
 4521      65642069 
 4522              	.LASF22:
 4523 00ac 61646472 		.ascii	"addr\000"
 4523      00
 4524              	.LASF41:
 4525 00b1 62526571 		.ascii	"bRequestType\000"
 4525      75657374 
 4525      54797065 
 4525      00
 4526              	.LASF94:
 4527 00be 65704E75 		.ascii	"epNum\000"
 4527      6D00
 4528              	.LASF49:
 4529 00c4 77536572 		.ascii	"wSerialStateMSB\000"
 4529      69616C53 
 4529      74617465 
 4529      4D534200 
 4530              	.LASF107:
 4531 00d4 55534255 		.ascii	"USBUART_EP\000"
 4531      4152545F 
 4531      455000
 4532              	.LASF58:
 4533 00df 65704E75 		.ascii	"epNumber\000"
 4533      6D626572 
 4533      00
 4534              	.LASF100:
 4535 00e8 55534255 		.ascii	"USBUART_linesCoding\000"
 4535      4152545F 
 4535      6C696E65 
 4535      73436F64 
 4535      696E6700 
 4536              	.LASF6:
 4537 00fc 6C6F6E67 		.ascii	"long long int\000"
 4537      206C6F6E 
 4537      6720696E 
 4537      7400
 4538              	.LASF0:
 4539 010a 7369676E 		.ascii	"signed char\000"
 4539      65642063 
 4539      68617200 
 4540              	.LASF81:
 4541 0116 72617465 		.ascii	"rate\000"
 4541      00
 4542              	.LASF112:
 4543 011b 55534255 		.ascii	"USBUART_EnableOutEP\000"
 4543      4152545F 
 4543      456E6162 
 4543      6C654F75 
 4543      74455000 
 4544              	.LASF111:
 4545 012f 55534255 		.ascii	"USBUART_InitControlRead\000"
ARM GAS  C:\Users\ingan\AppData\Local\Temp\cc00nNWn.s 			page 103


 4545      4152545F 
 4545      496E6974 
 4545      436F6E74 
 4545      726F6C52 
 4546              	.LASF72:
 4547 0147 55534255 		.ascii	"USBUART_CDCIsReady\000"
 4547      4152545F 
 4547      43444349 
 4547      73526561 
 4547      647900
 4548              	.LASF79:
 4549 015a 73746174 		.ascii	"state\000"
 4549      6500
 4550              	.LASF40:
 4551 0160 55534255 		.ascii	"USBUART_ep0_data_struct\000"
 4551      4152545F 
 4551      6570305F 
 4551      64617461 
 4551      5F737472 
 4552              	.LASF4:
 4553 0178 6C6F6E67 		.ascii	"long int\000"
 4553      20696E74 
 4553      00
 4554              	.LASF76:
 4555 0181 55534255 		.ascii	"USBUART_GetChar\000"
 4555      4152545F 
 4555      47657443 
 4555      68617200 
 4556              	.LASF59:
 4557 0191 55534255 		.ascii	"USBUART_PutData\000"
 4557      4152545F 
 4557      50757444 
 4557      61746100 
 4558              	.LASF9:
 4559 01a1 75696E74 		.ascii	"uint8\000"
 4559      3800
 4560              	.LASF21:
 4561 01a7 6570546F 		.ascii	"epToggle\000"
 4561      67676C65 
 4561      00
 4562              	.LASF43:
 4563 01b0 7756616C 		.ascii	"wValue\000"
 4563      756500
 4564              	.LASF20:
 4565 01b7 68774570 		.ascii	"hwEpState\000"
 4565      53746174 
 4565      6500
 4566              	.LASF75:
 4567 01c1 64617461 		.ascii	"dataLength\000"
 4567      4C656E67 
 4567      746800
 4568              	.LASF106:
 4569 01cc 55534255 		.ascii	"USBUART_cdcCommInInterruptEp\000"
 4569      4152545F 
 4569      63646343 
 4569      6F6D6D49 
 4569      6E496E74 
ARM GAS  C:\Users\ingan\AppData\Local\Temp\cc00nNWn.s 			page 104


 4570              	.LASF85:
 4571 01e9 55534255 		.ascii	"USBUART_GetLineControl\000"
 4571      4152545F 
 4571      4765744C 
 4571      696E6543 
 4571      6F6E7472 
 4572              	.LASF48:
 4573 0200 77536572 		.ascii	"wSerialState\000"
 4573      69616C53 
 4573      74617465 
 4573      00
 4574              	.LASF47:
 4575 020d 774C656E 		.ascii	"wLengthMSB\000"
 4575      6774684D 
 4575      534200
 4576              	.LASF105:
 4577 0218 55534255 		.ascii	"USBUART_cdcDataOutEp\000"
 4577      4152545F 
 4577      63646344 
 4577      6174614F 
 4577      75744570 
 4578              	.LASF36:
 4579 022d 70446174 		.ascii	"pData\000"
 4579      6100
 4580              	.LASF23:
 4581 0233 65704D6F 		.ascii	"epMode\000"
 4581      646500
 4582              	.LASF96:
 4583 023a 65705479 		.ascii	"epType\000"
 4583      706500
 4584              	.LASF89:
 4585 0241 55534255 		.ascii	"USBUART_NotificationIsReady\000"
 4585      4152545F 
 4585      4E6F7469 
 4585      66696361 
 4585      74696F6E 
 4586              	.LASF78:
 4587 025d 55534255 		.ascii	"USBUART_IsLineChanged\000"
 4587      4152545F 
 4587      49734C69 
 4587      6E654368 
 4587      616E6765 
 4588              	.LASF8:
 4589 0273 756E7369 		.ascii	"unsigned int\000"
 4589      676E6564 
 4589      20696E74 
 4589      00
 4590              	.LASF71:
 4591 0280 55534255 		.ascii	"USBUART_DataIsReady\000"
 4591      4152545F 
 4591      44617461 
 4591      49735265 
 4591      61647900 
 4592              	.LASF5:
 4593 0294 6C6F6E67 		.ascii	"long unsigned int\000"
 4593      20756E73 
 4593      69676E65 
ARM GAS  C:\Users\ingan\AppData\Local\Temp\cc00nNWn.s 			page 105


 4593      6420696E 
 4593      7400
 4594              	.LASF37:
 4595 02a6 70537461 		.ascii	"pStatusBlock\000"
 4595      74757342 
 4595      6C6F636B 
 4595      00
 4596              	.LASF83:
 4597 02b3 55534255 		.ascii	"USBUART_GetParityType\000"
 4597      4152545F 
 4597      47657450 
 4597      61726974 
 4597      79547970 
 4598              	.LASF3:
 4599 02c9 73686F72 		.ascii	"short unsigned int\000"
 4599      7420756E 
 4599      7369676E 
 4599      65642069 
 4599      6E7400
 4600              	.LASF93:
 4601 02dc 55534255 		.ascii	"USBUART_Cdc_EpInit\000"
 4601      4152545F 
 4601      4364635F 
 4601      4570496E 
 4601      697400
 4602              	.LASF63:
 4603 02ef 62756649 		.ascii	"bufIndex\000"
 4603      6E646578 
 4603      00
 4604              	.LASF74:
 4605 02f8 55534255 		.ascii	"USBUART_GetAll\000"
 4605      4152545F 
 4605      47657441 
 4605      6C6C00
 4606              	.LASF61:
 4607 0307 7374724C 		.ascii	"strLength\000"
 4607      656E6774 
 4607      6800
 4608              	.LASF108:
 4609 0311 55534255 		.ascii	"USBUART_currentTD\000"
 4609      4152545F 
 4609      63757272 
 4609      656E7454 
 4609      4400
 4610              	.LASF119:
 4611 0323 433A5C55 		.ascii	"C:\\Users\\ingan\\Documents\\PSoC Creator\\MegaDriv"
 4611      73657273 
 4611      5C696E67 
 4611      616E5C44 
 4611      6F63756D 
 4612 0351 655F706C 		.ascii	"e_player\\VGMPlayer_v0.6.cydsn\000"
 4612      61796572 
 4612      5C56474D 
 4612      506C6179 
 4612      65725F76 
 4613              	.LASF104:
 4614 036f 55534255 		.ascii	"USBUART_cdcDataInEp\000"
ARM GAS  C:\Users\ingan\AppData\Local\Temp\cc00nNWn.s 			page 106


 4614      4152545F 
 4614      63646344 
 4614      61746149 
 4614      6E457000 
 4615              	.LASF27:
 4616 0383 545F5553 		.ascii	"T_USBUART_EP_CTL_BLOCK\000"
 4616      42554152 
 4616      545F4550 
 4616      5F43544C 
 4616      5F424C4F 
 4617              	.LASF26:
 4618 039a 696E7465 		.ascii	"interface\000"
 4618      72666163 
 4618      6500
 4619              	.LASF98:
 4620 03a4 55534255 		.ascii	"USBUART_activeCom\000"
 4620      4152545F 
 4620      61637469 
 4620      7665436F 
 4620      6D00
 4621              	.LASF118:
 4622 03b6 47656E65 		.ascii	"Generated_Source\\PSoC5\\USBUART_cdc.c\000"
 4622      72617465 
 4622      645F536F 
 4622      75726365 
 4622      5C50536F 
 4623              	.LASF66:
 4624 03db 64617461 		.ascii	"dataByte\000"
 4624      42797465 
 4624      00
 4625              	.LASF17:
 4626 03e4 73697A65 		.ascii	"sizetype\000"
 4626      74797065 
 4626      00
 4627              	.LASF110:
 4628 03ed 55534255 		.ascii	"USBUART_InitControlWrite\000"
 4628      4152545F 
 4628      496E6974 
 4628      436F6E74 
 4628      726F6C57 
 4629              	.LASF18:
 4630 0406 61747472 		.ascii	"attrib\000"
 4630      696200
 4631              	.LASF69:
 4632 040d 55534255 		.ascii	"USBUART_GetCount\000"
 4632      4152545F 
 4632      47657443 
 4632      6F756E74 
 4632      00
 4633              	.LASF86:
 4634 041e 55534255 		.ascii	"USBUART_SendSerialState\000"
 4634      4152545F 
 4634      53656E64 
 4634      53657269 
 4634      616C5374 
 4635              	.LASF109:
 4636 0436 55534255 		.ascii	"USBUART_InitNoDataControlTransfer\000"
ARM GAS  C:\Users\ingan\AppData\Local\Temp\cc00nNWn.s 			page 107


 4636      4152545F 
 4636      496E6974 
 4636      4E6F4461 
 4636      7461436F 
 4637              	.LASF51:
 4638 0458 636F6D50 		.ascii	"comPort\000"
 4638      6F727400 
 4639              	.LASF84:
 4640 0460 55534255 		.ascii	"USBUART_GetDataBits\000"
 4640      4152545F 
 4640      47657444 
 4640      61746142 
 4640      69747300 
 4641              	.LASF101:
 4642 0474 55534255 		.ascii	"USBUART_linesChanged\000"
 4642      4152545F 
 4642      6C696E65 
 4642      73436861 
 4642      6E676564 
 4643              	.LASF60:
 4644 0489 55534255 		.ascii	"USBUART_PutString\000"
 4644      4152545F 
 4644      50757453 
 4644      7472696E 
 4644      6700
 4645              	.LASF39:
 4646 049b 65704461 		.ascii	"epData\000"
 4646      746100
 4647              	.LASF12:
 4648 04a2 666C6F61 		.ascii	"float\000"
 4648      7400
 4649              	.LASF64:
 4650 04a8 55534255 		.ascii	"USBUART_PutChar\000"
 4650      4152545F 
 4650      50757443 
 4650      68617200 
 4651              	.LASF116:
 4652 04b8 55534255 		.ascii	"USBUART_ReadOutEP\000"
 4652      4152545F 
 4652      52656164 
 4652      4F757445 
 4652      5000
 4653              	.LASF19:
 4654 04ca 61706945 		.ascii	"apiEpState\000"
 4654      70537461 
 4654      746500
 4655              	.LASF82:
 4656 04d5 55534255 		.ascii	"USBUART_GetCharFormat\000"
 4656      4152545F 
 4656      47657443 
 4656      68617246 
 4656      6F726D61 
 4657              	.LASF91:
 4658 04eb 636F6D4E 		.ascii	"comNumber\000"
 4658      756D6265 
 4658      7200
 4659              	.LASF57:
ARM GAS  C:\Users\ingan\AppData\Local\Temp\cc00nNWn.s 			page 108


 4660 04f5 6F757445 		.ascii	"outEp\000"
 4660      7000
 4661              	.LASF2:
 4662 04fb 73686F72 		.ascii	"short int\000"
 4662      7420696E 
 4662      7400
 4663              	.LASF115:
 4664 0505 55534255 		.ascii	"USBUART_GetEPState\000"
 4664      4152545F 
 4664      47657445 
 4664      50537461 
 4664      746500
 4665              	.LASF52:
 4666 0518 6E6F7445 		.ascii	"notEp\000"
 4666      7000
 4667              	.LASF44:
 4668 051e 7756616C 		.ascii	"wValueMSB\000"
 4668      75654D53 
 4668      4200
 4669              	.LASF38:
 4670 0528 545F5553 		.ascii	"T_USBUART_TD\000"
 4670      42554152 
 4670      545F5444 
 4670      00
 4671              	.LASF97:
 4672 0535 55534255 		.ascii	"USBUART_serialStateNotification\000"
 4672      4152545F 
 4672      73657269 
 4672      616C5374 
 4672      6174654E 
 4673              	.LASF67:
 4674 0555 55534255 		.ascii	"USBUART_PutCRLF\000"
 4674      4152545F 
 4674      50757443 
 4674      524C4600 
 4675              	.LASF29:
 4676 0565 61747472 		.ascii	"attributes\000"
 4676      69627574 
 4676      657300
 4677              	.LASF77:
 4678 0570 72784461 		.ascii	"rxData\000"
 4678      746100
 4679              	.LASF87:
 4680 0577 73657269 		.ascii	"serialState\000"
 4680      616C5374 
 4680      61746500 
 4681              	.LASF55:
 4682 0583 55534255 		.ascii	"USBUART_CDC_Init\000"
 4682      4152545F 
 4682      4344435F 
 4682      496E6974 
 4682      00
 4683              	.LASF90:
 4684 0594 55534255 		.ascii	"USBUART_SetComPort\000"
 4684      4152545F 
 4684      53657443 
 4684      6F6D506F 
ARM GAS  C:\Users\ingan\AppData\Local\Temp\cc00nNWn.s 			page 109


 4684      727400
 4685              	.LASF16:
 4686 05a7 6C6F6E67 		.ascii	"long double\000"
 4686      20646F75 
 4686      626C6500 
 4687              	.LASF28:
 4688 05b3 616C7453 		.ascii	"altSetting\000"
 4688      65747469 
 4688      6E6700
 4689              	.LASF117:
 4690 05be 474E5520 		.ascii	"GNU C11 5.4.1 20160609 (release) [ARM/embedded-5-br"
 4690      43313120 
 4690      352E342E 
 4690      31203230 
 4690      31363036 
 4691 05f1 616E6368 		.ascii	"anch revision 237715] -mcpu=cortex-m3 -mthumb -g -O"
 4691      20726576 
 4691      6973696F 
 4691      6E203233 
 4691      37373135 
 4692 0624 33202D66 		.ascii	"3 -ffunction-sections -ffat-lto-objects\000"
 4692      66756E63 
 4692      74696F6E 
 4692      2D736563 
 4692      74696F6E 
 4693              	.LASF15:
 4694 064c 63686172 		.ascii	"char\000"
 4694      00
 4695              	.LASF25:
 4696 0651 62756666 		.ascii	"bufferSize\000"
 4696      65725369 
 4696      7A6500
 4697              	.LASF56:
 4698 065c 72657175 		.ascii	"requestHandled\000"
 4698      65737448 
 4698      616E646C 
 4698      656400
 4699              	.LASF70:
 4700 066b 62797465 		.ascii	"bytesCount\000"
 4700      73436F75 
 4700      6E7400
 4701              	.LASF24:
 4702 0676 62756666 		.ascii	"buffOffset\000"
 4702      4F666673 
 4702      657400
 4703              	.LASF14:
 4704 0681 63686172 		.ascii	"char8\000"
 4704      3800
 4705              	.LASF31:
 4706 0687 545F5553 		.ascii	"T_USBUART_EP_SETTINGS_BLOCK\000"
 4706      42554152 
 4706      545F4550 
 4706      5F534554 
 4706      54494E47 
 4707              	.LASF114:
 4708 06a3 55534255 		.ascii	"USBUART_GetEPCount\000"
 4708      4152545F 
ARM GAS  C:\Users\ingan\AppData\Local\Temp\cc00nNWn.s 			page 110


 4708      47657445 
 4708      50436F75 
 4708      6E7400
 4709              	.LASF73:
 4710 06b6 55534255 		.ascii	"USBUART_GetData\000"
 4710      4152545F 
 4710      47657444 
 4710      61746100 
 4711              	.LASF121:
 4712 06c6 55534255 		.ascii	"USBUART_StrLen\000"
 4712      4152545F 
 4712      5374724C 
 4712      656E00
 4713              	.LASF102:
 4714 06d5 55534255 		.ascii	"USBUART_linesControlBitmap\000"
 4714      4152545F 
 4714      6C696E65 
 4714      73436F6E 
 4714      74726F6C 
 4715              	.LASF33:
 4716 06f0 6C656E67 		.ascii	"length\000"
 4716      746800
 4717              	.LASF32:
 4718 06f7 73746174 		.ascii	"status\000"
 4718      757300
 4719              	.LASF54:
 4720 06fe 55534255 		.ascii	"USBUART_DispatchCDCClassRqst\000"
 4720      4152545F 
 4720      44697370 
 4720      61746368 
 4720      43444343 
 4721              	.LASF42:
 4722 071b 624E6F74 		.ascii	"bNotification\000"
 4722      69666963 
 4722      6174696F 
 4722      6E00
 4723              	.LASF80:
 4724 0729 55534255 		.ascii	"USBUART_GetDTERate\000"
 4724      4152545F 
 4724      47657444 
 4724      54455261 
 4724      746500
 4725              	.LASF30:
 4726 073c 624D6973 		.ascii	"bMisc\000"
 4726      6300
 4727              	.LASF34:
 4728 0742 545F5553 		.ascii	"T_USBUART_XFER_STATUS_BLOCK\000"
 4728      42554152 
 4728      545F5846 
 4728      45525F53 
 4728      54415455 
 4729              	.LASF50:
 4730 075e 745F5553 		.ascii	"t_USBUART_cdc_notification\000"
 4730      42554152 
 4730      545F6364 
 4730      635F6E6F 
 4730      74696669 
ARM GAS  C:\Users\ingan\AppData\Local\Temp\cc00nNWn.s 			page 111


 4731              	.LASF95:
 4732 0779 63646343 		.ascii	"cdcComNums\000"
 4732      6F6D4E75 
 4732      6D7300
 4733              	.LASF99:
 4734 0784 55534255 		.ascii	"USBUART_transferState\000"
 4734      4152545F 
 4734      7472616E 
 4734      73666572 
 4734      53746174 
 4735              	.LASF62:
 4736 079a 73656E64 		.ascii	"sendLength\000"
 4736      4C656E67 
 4736      746800
 4737              	.LASF68:
 4738 07a5 74784461 		.ascii	"txData\000"
 4738      746100
 4739              	.LASF88:
 4740 07ac 55534255 		.ascii	"USBUART_GetSerialState\000"
 4740      4152545F 
 4740      47657453 
 4740      65726961 
 4740      6C537461 
 4741              	.LASF13:
 4742 07c3 646F7562 		.ascii	"double\000"
 4742      6C6500
 4743              	.LASF46:
 4744 07ca 77496E64 		.ascii	"wIndexMSB\000"
 4744      65784D53 
 4744      4200
 4745              		.ident	"GCC: (GNU Tools for ARM Embedded Processors) 5.4.1 20160609 (release) [ARM/embedded-5-bran
