ARM GAS  C:\Users\ingan\AppData\Local\Temp\cctQsnzd.s 			page 1


   1              		.syntax unified
   2              		.cpu cortex-m3
   3              		.fpu softvfp
   4              		.eabi_attribute 20, 1
   5              		.eabi_attribute 21, 1
   6              		.eabi_attribute 23, 3
   7              		.eabi_attribute 24, 1
   8              		.eabi_attribute 25, 1
   9              		.eabi_attribute 26, 1
  10              		.eabi_attribute 30, 2
  11              		.eabi_attribute 34, 1
  12              		.eabi_attribute 18, 4
  13              		.thumb
  14              		.syntax unified
  15              		.file	"utils.c"
  16              		.text
  17              	.Ltext0:
  18              		.cfi_sections	.debug_frame
  19              		.section	.text.do_return,"ax",%progbits
  20              		.align	2
  21              		.global	do_return
  22              		.thumb
  23              		.thumb_func
  24              		.type	do_return, %function
  25              	do_return:
  26              	.LFB66:
  27              		.file 1 "utils.c"
   1:utils.c       **** #include "project.h"
   2:utils.c       **** #include "stdio.h"
   3:utils.c       **** #include "stdlib.h"
   4:utils.c       **** #include "tty_utils.h"
   5:utils.c       **** #include "utils.h"
   6:utils.c       **** 
   7:utils.c       **** static int      keep_on  = 1 ;
   8:utils.c       **** static uint16_t loop     = 1 ;
   9:utils.c       **** static uint16_t interval = 100 ; /* 100 ms */
  10:utils.c       **** static int      sAddress = 0x08 ; 
  11:utils.c       **** static int      delay    = 30 ; /* default 30ms */
  12:utils.c       **** uint16_t        timeoutms = 500 ;
  13:utils.c       **** 
  14:utils.c       **** f_list_type i2c_func_list[] = {
  15:utils.c       ****     { "help",        do_help,       "show help message" },
  16:utils.c       ****     { "loop",        do_loop,       "set loop counts"},
  17:utils.c       ****     { "interval",    do_interval,   "set interval time (ms)"},
  18:utils.c       ****     { "address",     do_address,    "set address" },
  19:utils.c       ****     { "delay",       do_delay,      "set delay between address and command" },
  20:utils.c       ****     { "status",      do_status,     "print config status" },
  21:utils.c       ****     { "return",      do_return,     "return to the previous mode" },
  22:utils.c       ****     { "reset",       do_soft_reset,  "software rest" },
  23:utils.c       ****     { 0,             0,             0} /* list terminator */
  24:utils.c       **** } ;
  25:utils.c       **** 
  26:utils.c       **** void do_demo(void)
  27:utils.c       **** {
  28:utils.c       ****     func_ptr func ;
  29:utils.c       ****     keep_on = 1 ;
  30:utils.c       ****     
ARM GAS  C:\Users\ingan\AppData\Local\Temp\cctQsnzd.s 			page 2


  31:utils.c       ****     
  32:utils.c       ****     do_help() ;
  33:utils.c       ****     
  34:utils.c       ****     prompt("Demo> ") ;
  35:utils.c       ****     
  36:utils.c       ****     while(keep_on) {
  37:utils.c       ****         if (get_line()) {
  38:utils.c       ****             func = get_func(i2c_func_list, str) ;
  39:utils.c       ****             if (func) {
  40:utils.c       ****                 func() ;
  41:utils.c       ****             } else {
  42:utils.c       ****                 print("Unknown Command: ") ;
  43:utils.c       ****                 print(str) ;
  44:utils.c       ****                 print("\n\r") ;
  45:utils.c       ****                 do_help() ;
  46:utils.c       ****             }
  47:utils.c       ****             if (keep_on) {
  48:utils.c       ****                 prompt("Demo> ") ;
  49:utils.c       ****             }
  50:utils.c       ****         }
  51:utils.c       ****     }
  52:utils.c       **** }
  53:utils.c       **** 
  54:utils.c       **** void do_help(void) 
  55:utils.c       **** {
  56:utils.c       ****     show_help(i2c_func_list) ;    
  57:utils.c       **** }
  58:utils.c       **** 
  59:utils.c       **** void do_return(void) 
  60:utils.c       **** {
  28              		.loc 1 60 0
  29              		.cfi_startproc
  30              		@ args = 0, pretend = 0, frame = 0
  31              		@ frame_needed = 0, uses_anonymous_args = 0
  32              		@ link register save eliminated.
  61:utils.c       ****     keep_on = 0 ;
  33              		.loc 1 61 0
  34 0000 014B     		ldr	r3, .L2
  35 0002 0022     		movs	r2, #0
  36 0004 1A60     		str	r2, [r3]
  37 0006 7047     		bx	lr
  38              	.L3:
  39              		.align	2
  40              	.L2:
  41 0008 00000000 		.word	.LANCHOR0
  42              		.cfi_endproc
  43              	.LFE66:
  44              		.size	do_return, .-do_return
  45              		.section	.text.do_help,"ax",%progbits
  46              		.align	2
  47              		.global	do_help
  48              		.thumb
  49              		.thumb_func
  50              		.type	do_help, %function
  51              	do_help:
  52              	.LFB65:
  55:utils.c       ****     show_help(i2c_func_list) ;    
ARM GAS  C:\Users\ingan\AppData\Local\Temp\cctQsnzd.s 			page 3


  53              		.loc 1 55 0
  54              		.cfi_startproc
  55              		@ args = 0, pretend = 0, frame = 0
  56              		@ frame_needed = 0, uses_anonymous_args = 0
  57              		@ link register save eliminated.
  56:utils.c       **** }
  58              		.loc 1 56 0
  59 0000 0148     		ldr	r0, .L5
  60 0002 FFF7FEBF 		b	show_help
  61              	.LVL0:
  62              	.L6:
  63 0006 00BF     		.align	2
  64              	.L5:
  65 0008 04000000 		.word	.LANCHOR0+4
  66              		.cfi_endproc
  67              	.LFE65:
  68              		.size	do_help, .-do_help
  69              		.section	.text.do_soft_reset,"ax",%progbits
  70              		.align	2
  71              		.global	do_soft_reset
  72              		.thumb
  73              		.thumb_func
  74              		.type	do_soft_reset, %function
  75              	do_soft_reset:
  76              	.LFB67:
  62:utils.c       **** }
  63:utils.c       **** 
  64:utils.c       **** void do_soft_reset(void)
  65:utils.c       **** {
  77              		.loc 1 65 0
  78              		.cfi_startproc
  79              		@ args = 0, pretend = 0, frame = 0
  80              		@ frame_needed = 0, uses_anonymous_args = 0
  81              		@ link register save eliminated.
  66:utils.c       ****     CySoftwareReset();
  82              		.loc 1 66 0
  83 0000 FFF7FEBF 		b	CySoftwareReset
  84              	.LVL1:
  85              		.cfi_endproc
  86              	.LFE67:
  87              		.size	do_soft_reset, .-do_soft_reset
  88              		.section	.text.do_loop,"ax",%progbits
  89              		.align	2
  90              		.global	do_loop
  91              		.thumb
  92              		.thumb_func
  93              		.type	do_loop, %function
  94              	do_loop:
  95              	.LFB68:
  67:utils.c       **** }
  68:utils.c       **** 
  69:utils.c       **** void do_loop(void) 
  70:utils.c       **** {
  96              		.loc 1 70 0
  97              		.cfi_startproc
  98              		@ args = 0, pretend = 0, frame = 0
  99              		@ frame_needed = 0, uses_anonymous_args = 0
ARM GAS  C:\Users\ingan\AppData\Local\Temp\cctQsnzd.s 			page 4


 100              		@ link register save eliminated.
  71:utils.c       ****     sscanf(str, "%*s %hd", &loop) ;
 101              		.loc 1 71 0
 102 0000 024A     		ldr	r2, .L9
 103 0002 0349     		ldr	r1, .L9+4
 104 0004 0348     		ldr	r0, .L9+8
 105 0006 FFF7FEBF 		b	sscanf
 106              	.LVL2:
 107              	.L10:
 108 000a 00BF     		.align	2
 109              	.L9:
 110 000c 70000000 		.word	.LANCHOR0+112
 111 0010 00000000 		.word	.LC0
 112 0014 00000000 		.word	str
 113              		.cfi_endproc
 114              	.LFE68:
 115              		.size	do_loop, .-do_loop
 116              		.section	.text.do_interval,"ax",%progbits
 117              		.align	2
 118              		.global	do_interval
 119              		.thumb
 120              		.thumb_func
 121              		.type	do_interval, %function
 122              	do_interval:
 123              	.LFB69:
  72:utils.c       **** }
  73:utils.c       **** 
  74:utils.c       **** void do_interval(void) 
  75:utils.c       **** {
 124              		.loc 1 75 0
 125              		.cfi_startproc
 126              		@ args = 0, pretend = 0, frame = 0
 127              		@ frame_needed = 0, uses_anonymous_args = 0
 128              		@ link register save eliminated.
  76:utils.c       ****     sscanf(str, "%*s %hd", &interval) ;
 129              		.loc 1 76 0
 130 0000 024A     		ldr	r2, .L12
 131 0002 0349     		ldr	r1, .L12+4
 132 0004 0348     		ldr	r0, .L12+8
 133 0006 FFF7FEBF 		b	sscanf
 134              	.LVL3:
 135              	.L13:
 136 000a 00BF     		.align	2
 137              	.L12:
 138 000c 72000000 		.word	.LANCHOR0+114
 139 0010 00000000 		.word	.LC0
 140 0014 00000000 		.word	str
 141              		.cfi_endproc
 142              	.LFE69:
 143              		.size	do_interval, .-do_interval
 144              		.section	.text.do_delay,"ax",%progbits
 145              		.align	2
 146              		.global	do_delay
 147              		.thumb
 148              		.thumb_func
 149              		.type	do_delay, %function
 150              	do_delay:
ARM GAS  C:\Users\ingan\AppData\Local\Temp\cctQsnzd.s 			page 5


 151              	.LFB70:
  77:utils.c       **** }
  78:utils.c       **** 
  79:utils.c       **** void do_delay(void)
  80:utils.c       **** {
 152              		.loc 1 80 0
 153              		.cfi_startproc
 154              		@ args = 0, pretend = 0, frame = 0
 155              		@ frame_needed = 0, uses_anonymous_args = 0
 156              		@ link register save eliminated.
  81:utils.c       ****     sscanf(str, "%*s %d", &delay) ;
 157              		.loc 1 81 0
 158 0000 024A     		ldr	r2, .L15
 159 0002 0349     		ldr	r1, .L15+4
 160 0004 0348     		ldr	r0, .L15+8
 161 0006 FFF7FEBF 		b	sscanf
 162              	.LVL4:
 163              	.L16:
 164 000a 00BF     		.align	2
 165              	.L15:
 166 000c 74000000 		.word	.LANCHOR0+116
 167 0010 08000000 		.word	.LC1
 168 0014 00000000 		.word	str
 169              		.cfi_endproc
 170              	.LFE70:
 171              		.size	do_delay, .-do_delay
 172              		.section	.text.do_address,"ax",%progbits
 173              		.align	2
 174              		.global	do_address
 175              		.thumb
 176              		.thumb_func
 177              		.type	do_address, %function
 178              	do_address:
 179              	.LFB72:
  82:utils.c       **** }
  83:utils.c       **** 
  84:utils.c       **** void do_status(void) 
  85:utils.c       **** {
  86:utils.c       ****     snprintf(str, STR_BUF_LEN, "Config: address: 0x%02X (%d)\n\r",
  87:utils.c       ****         sAddress, sAddress) ;
  88:utils.c       ****     print(str) ;
  89:utils.c       **** }
  90:utils.c       **** 
  91:utils.c       **** 
  92:utils.c       **** void do_address(void) 
  93:utils.c       **** {
 180              		.loc 1 93 0
 181              		.cfi_startproc
 182              		@ args = 0, pretend = 0, frame = 0
 183              		@ frame_needed = 0, uses_anonymous_args = 0
 184              		@ link register save eliminated.
  94:utils.c       ****     sscanf(str, "%*s %d", &sAddress) ;
 185              		.loc 1 94 0
 186 0000 024A     		ldr	r2, .L18
 187 0002 0349     		ldr	r1, .L18+4
 188 0004 0348     		ldr	r0, .L18+8
 189 0006 FFF7FEBF 		b	sscanf
ARM GAS  C:\Users\ingan\AppData\Local\Temp\cctQsnzd.s 			page 6


 190              	.LVL5:
 191              	.L19:
 192 000a 00BF     		.align	2
 193              	.L18:
 194 000c 78000000 		.word	.LANCHOR0+120
 195 0010 08000000 		.word	.LC1
 196 0014 00000000 		.word	str
 197              		.cfi_endproc
 198              	.LFE72:
 199              		.size	do_address, .-do_address
 200              		.section	.text.do_status,"ax",%progbits
 201              		.align	2
 202              		.global	do_status
 203              		.thumb
 204              		.thumb_func
 205              		.type	do_status, %function
 206              	do_status:
 207              	.LFB71:
  85:utils.c       ****     snprintf(str, STR_BUF_LEN, "Config: address: 0x%02X (%d)\n\r",
 208              		.loc 1 85 0
 209              		.cfi_startproc
 210              		@ args = 0, pretend = 0, frame = 0
 211              		@ frame_needed = 0, uses_anonymous_args = 0
 212 0000 10B5     		push	{r4, lr}
 213              		.cfi_def_cfa_offset 8
 214              		.cfi_offset 4, -8
 215              		.cfi_offset 14, -4
  86:utils.c       ****         sAddress, sAddress) ;
 216              		.loc 1 86 0
 217 0002 084B     		ldr	r3, .L22
 218 0004 084C     		ldr	r4, .L22+4
 219 0006 9B6F     		ldr	r3, [r3, #120]
  85:utils.c       ****     snprintf(str, STR_BUF_LEN, "Config: address: 0x%02X (%d)\n\r",
 220              		.loc 1 85 0
 221 0008 82B0     		sub	sp, sp, #8
 222              		.cfi_def_cfa_offset 16
  86:utils.c       ****         sAddress, sAddress) ;
 223              		.loc 1 86 0
 224 000a 2046     		mov	r0, r4
 225 000c 0093     		str	r3, [sp]
 226 000e 074A     		ldr	r2, .L22+8
 227 0010 4021     		movs	r1, #64
 228 0012 FFF7FEFF 		bl	snprintf
 229              	.LVL6:
  88:utils.c       **** }
 230              		.loc 1 88 0
 231 0016 2046     		mov	r0, r4
  89:utils.c       **** 
 232              		.loc 1 89 0
 233 0018 02B0     		add	sp, sp, #8
 234              		.cfi_def_cfa_offset 8
 235              		@ sp needed
 236 001a BDE81040 		pop	{r4, lr}
 237              		.cfi_restore 14
 238              		.cfi_restore 4
 239              		.cfi_def_cfa_offset 0
  88:utils.c       **** }
ARM GAS  C:\Users\ingan\AppData\Local\Temp\cctQsnzd.s 			page 7


 240              		.loc 1 88 0
 241 001e FFF7FEBF 		b	print
 242              	.LVL7:
 243              	.L23:
 244 0022 00BF     		.align	2
 245              	.L22:
 246 0024 00000000 		.word	.LANCHOR0
 247 0028 00000000 		.word	str
 248 002c 10000000 		.word	.LC2
 249              		.cfi_endproc
 250              	.LFE71:
 251              		.size	do_status, .-do_status
 252              		.section	.text.do_demo,"ax",%progbits
 253              		.align	2
 254              		.global	do_demo
 255              		.thumb
 256              		.thumb_func
 257              		.type	do_demo, %function
 258              	do_demo:
 259              	.LFB64:
  27:utils.c       ****     func_ptr func ;
 260              		.loc 1 27 0
 261              		.cfi_startproc
 262              		@ args = 0, pretend = 0, frame = 0
 263              		@ frame_needed = 0, uses_anonymous_args = 0
 264 0000 10B5     		push	{r4, lr}
 265              		.cfi_def_cfa_offset 8
 266              		.cfi_offset 4, -8
 267              		.cfi_offset 14, -4
  29:utils.c       ****     
 268              		.loc 1 29 0
 269 0002 164C     		ldr	r4, .L38
 270 0004 0123     		movs	r3, #1
 271 0006 2046     		mov	r0, r4
 272 0008 40F8043B 		str	r3, [r0], #4
 273              	.LBB6:
 274              	.LBB7:
  56:utils.c       **** }
 275              		.loc 1 56 0
 276 000c FFF7FEFF 		bl	show_help
 277              	.LVL8:
 278              	.LBE7:
 279              	.LBE6:
  34:utils.c       ****     
 280              		.loc 1 34 0
 281 0010 1348     		ldr	r0, .L38+4
 282 0012 FFF7FEFF 		bl	prompt
 283              	.LVL9:
  36:utils.c       ****         if (get_line()) {
 284              		.loc 1 36 0
 285 0016 02E0     		b	.L25
 286              	.L31:
  37:utils.c       ****             func = get_func(i2c_func_list, str) ;
 287              		.loc 1 37 0
 288 0018 FFF7FEFF 		bl	get_line
 289              	.LVL10:
 290 001c 18B9     		cbnz	r0, .L37
ARM GAS  C:\Users\ingan\AppData\Local\Temp\cctQsnzd.s 			page 8


 291              	.L25:
 292 001e 2368     		ldr	r3, [r4]
  36:utils.c       ****         if (get_line()) {
 293              		.loc 1 36 0
 294 0020 002B     		cmp	r3, #0
 295 0022 F9D1     		bne	.L31
 296              	.L34:
 297 0024 10BD     		pop	{r4, pc}
 298              	.L37:
  38:utils.c       ****             if (func) {
 299              		.loc 1 38 0
 300 0026 0F49     		ldr	r1, .L38+8
 301 0028 0F48     		ldr	r0, .L38+12
 302 002a FFF7FEFF 		bl	get_func
 303              	.LVL11:
  39:utils.c       ****                 func() ;
 304              		.loc 1 39 0
 305 002e 38B1     		cbz	r0, .L28
  40:utils.c       ****             } else {
 306              		.loc 1 40 0
 307 0030 8047     		blx	r0
 308              	.LVL12:
 309              	.L29:
  47:utils.c       ****                 prompt("Demo> ") ;
 310              		.loc 1 47 0
 311 0032 2368     		ldr	r3, [r4]
 312 0034 002B     		cmp	r3, #0
 313 0036 F5D0     		beq	.L34
  48:utils.c       ****             }
 314              		.loc 1 48 0
 315 0038 0948     		ldr	r0, .L38+4
 316 003a FFF7FEFF 		bl	prompt
 317              	.LVL13:
 318 003e EEE7     		b	.L25
 319              	.LVL14:
 320              	.L28:
  42:utils.c       ****                 print(str) ;
 321              		.loc 1 42 0
 322 0040 0A48     		ldr	r0, .L38+16
 323              	.LVL15:
 324 0042 FFF7FEFF 		bl	print
 325              	.LVL16:
  43:utils.c       ****                 print("\n\r") ;
 326              		.loc 1 43 0
 327 0046 0748     		ldr	r0, .L38+8
 328 0048 FFF7FEFF 		bl	print
 329              	.LVL17:
  44:utils.c       ****                 do_help() ;
 330              		.loc 1 44 0
 331 004c 0848     		ldr	r0, .L38+20
 332 004e FFF7FEFF 		bl	print
 333              	.LVL18:
 334              	.LBB8:
 335              	.LBB9:
  56:utils.c       **** }
 336              		.loc 1 56 0
 337 0052 0548     		ldr	r0, .L38+12
ARM GAS  C:\Users\ingan\AppData\Local\Temp\cctQsnzd.s 			page 9


 338 0054 FFF7FEFF 		bl	show_help
 339              	.LVL19:
 340 0058 EBE7     		b	.L29
 341              	.L39:
 342 005a 00BF     		.align	2
 343              	.L38:
 344 005c 00000000 		.word	.LANCHOR0
 345 0060 30000000 		.word	.LC3
 346 0064 00000000 		.word	str
 347 0068 04000000 		.word	.LANCHOR0+4
 348 006c 38000000 		.word	.LC4
 349 0070 4C000000 		.word	.LC5
 350              	.LBE9:
 351              	.LBE8:
 352              		.cfi_endproc
 353              	.LFE64:
 354              		.size	do_demo, .-do_demo
 355              		.global	i2c_func_list
 356              		.global	timeoutms
 357              		.data
 358              		.align	2
 359              		.set	.LANCHOR0,. + 0
 360              		.type	keep_on, %object
 361              		.size	keep_on, 4
 362              	keep_on:
 363 0000 01000000 		.word	1
 364              		.type	i2c_func_list, %object
 365              		.size	i2c_func_list, 108
 366              	i2c_func_list:
 367 0004 50000000 		.word	.LC6
 368 0008 00000000 		.word	do_help
 369 000c 58000000 		.word	.LC7
 370 0010 6C000000 		.word	.LC8
 371 0014 00000000 		.word	do_loop
 372 0018 74000000 		.word	.LC9
 373 001c 84000000 		.word	.LC10
 374 0020 00000000 		.word	do_interval
 375 0024 90000000 		.word	.LC11
 376 0028 A8000000 		.word	.LC12
 377 002c 00000000 		.word	do_address
 378 0030 B0000000 		.word	.LC13
 379 0034 BC000000 		.word	.LC14
 380 0038 00000000 		.word	do_delay
 381 003c C4000000 		.word	.LC15
 382 0040 EC000000 		.word	.LC16
 383 0044 00000000 		.word	do_status
 384 0048 F4000000 		.word	.LC17
 385 004c 08010000 		.word	.LC18
 386 0050 00000000 		.word	do_return
 387 0054 10010000 		.word	.LC19
 388 0058 2C010000 		.word	.LC20
 389 005c 00000000 		.word	do_soft_reset
 390 0060 34010000 		.word	.LC21
 391 0064 00000000 		.word	0
 392 0068 00000000 		.word	0
 393 006c 00000000 		.word	0
 394              		.type	loop, %object
ARM GAS  C:\Users\ingan\AppData\Local\Temp\cctQsnzd.s 			page 10


 395              		.size	loop, 2
 396              	loop:
 397 0070 0100     		.short	1
 398              		.type	interval, %object
 399              		.size	interval, 2
 400              	interval:
 401 0072 6400     		.short	100
 402              		.type	delay, %object
 403              		.size	delay, 4
 404              	delay:
 405 0074 1E000000 		.word	30
 406              		.type	sAddress, %object
 407              		.size	sAddress, 4
 408              	sAddress:
 409 0078 08000000 		.word	8
 410              		.type	timeoutms, %object
 411              		.size	timeoutms, 2
 412              	timeoutms:
 413 007c F401     		.short	500
 414              		.section	.rodata.str1.4,"aMS",%progbits,1
 415              		.align	2
 416              	.LC0:
 417 0000 252A7320 		.ascii	"%*s %hd\000"
 417      25686400 
 418              	.LC1:
 419 0008 252A7320 		.ascii	"%*s %d\000"
 419      256400
 420 000f 00       		.space	1
 421              	.LC2:
 422 0010 436F6E66 		.ascii	"Config: address: 0x%02X (%d)\012\015\000"
 422      69673A20 
 422      61646472 
 422      6573733A 
 422      20307825 
 423 002f 00       		.space	1
 424              	.LC3:
 425 0030 44656D6F 		.ascii	"Demo> \000"
 425      3E2000
 426 0037 00       		.space	1
 427              	.LC4:
 428 0038 556E6B6E 		.ascii	"Unknown Command: \000"
 428      6F776E20 
 428      436F6D6D 
 428      616E643A 
 428      2000
 429 004a 0000     		.space	2
 430              	.LC5:
 431 004c 0A0D00   		.ascii	"\012\015\000"
 432 004f 00       		.space	1
 433              	.LC6:
 434 0050 68656C70 		.ascii	"help\000"
 434      00
 435 0055 000000   		.space	3
 436              	.LC7:
 437 0058 73686F77 		.ascii	"show help message\000"
 437      2068656C 
 437      70206D65 
ARM GAS  C:\Users\ingan\AppData\Local\Temp\cctQsnzd.s 			page 11


 437      73736167 
 437      6500
 438 006a 0000     		.space	2
 439              	.LC8:
 440 006c 6C6F6F70 		.ascii	"loop\000"
 440      00
 441 0071 000000   		.space	3
 442              	.LC9:
 443 0074 73657420 		.ascii	"set loop counts\000"
 443      6C6F6F70 
 443      20636F75 
 443      6E747300 
 444              	.LC10:
 445 0084 696E7465 		.ascii	"interval\000"
 445      7276616C 
 445      00
 446 008d 000000   		.space	3
 447              	.LC11:
 448 0090 73657420 		.ascii	"set interval time (ms)\000"
 448      696E7465 
 448      7276616C 
 448      2074696D 
 448      6520286D 
 449 00a7 00       		.space	1
 450              	.LC12:
 451 00a8 61646472 		.ascii	"address\000"
 451      65737300 
 452              	.LC13:
 453 00b0 73657420 		.ascii	"set address\000"
 453      61646472 
 453      65737300 
 454              	.LC14:
 455 00bc 64656C61 		.ascii	"delay\000"
 455      7900
 456 00c2 0000     		.space	2
 457              	.LC15:
 458 00c4 73657420 		.ascii	"set delay between address and command\000"
 458      64656C61 
 458      79206265 
 458      74776565 
 458      6E206164 
 459 00ea 0000     		.space	2
 460              	.LC16:
 461 00ec 73746174 		.ascii	"status\000"
 461      757300
 462 00f3 00       		.space	1
 463              	.LC17:
 464 00f4 7072696E 		.ascii	"print config status\000"
 464      7420636F 
 464      6E666967 
 464      20737461 
 464      74757300 
 465              	.LC18:
 466 0108 72657475 		.ascii	"return\000"
 466      726E00
 467 010f 00       		.space	1
 468              	.LC19:
ARM GAS  C:\Users\ingan\AppData\Local\Temp\cctQsnzd.s 			page 12


 469 0110 72657475 		.ascii	"return to the previous mode\000"
 469      726E2074 
 469      6F207468 
 469      65207072 
 469      6576696F 
 470              	.LC20:
 471 012c 72657365 		.ascii	"reset\000"
 471      7400
 472 0132 0000     		.space	2
 473              	.LC21:
 474 0134 736F6674 		.ascii	"software rest\000"
 474      77617265 
 474      20726573 
 474      7400
 475              		.text
 476              	.Letext0:
 477              		.file 2 "c:\\program files (x86)\\cypress\\psoc creator\\4.2\\psoc creator\\import\\gnu\\arm\\5.4.
 478              		.file 3 "c:\\program files (x86)\\cypress\\psoc creator\\4.2\\psoc creator\\import\\gnu\\arm\\5.4.
 479              		.file 4 "func_list.h"
 480              		.file 5 "Generated_Source\\PSoC5/core_cm3.h"
 481              		.file 6 "Generated_Source\\PSoC5/CyLib.h"
 482              		.file 7 "c:\\program files (x86)\\cypress\\psoc creator\\4.2\\psoc creator\\import\\gnu\\arm\\5.4.
 483              		.file 8 "tty_utils.h"