ARM GAS  C:\Users\ingan\AppData\Local\Temp\ccbjxiNe.s 			page 1


   1              		.syntax unified
   2              		.cpu cortex-m3
   3              		.fpu softvfp
   4              		.eabi_attribute 20, 1
   5              		.eabi_attribute 21, 1
   6              		.eabi_attribute 23, 3
   7              		.eabi_attribute 24, 1
   8              		.eabi_attribute 25, 1
   9              		.eabi_attribute 26, 1
  10              		.eabi_attribute 30, 1
  11              		.eabi_attribute 34, 1
  12              		.eabi_attribute 18, 4
  13              		.thumb
  14              		.syntax unified
  15              		.file	"main.c"
  16              		.text
  17              	.Ltext0:
  18              		.cfi_sections	.debug_frame
  19              		.section	.text.ym2612_write_step,"ax",%progbits
  20              		.align	2
  21              		.global	ym2612_write_step
  22              		.thumb
  23              		.thumb_func
  24              		.type	ym2612_write_step, %function
  25              	ym2612_write_step:
  26              	.LFB66:
  27              		.file 1 "main.c"
   1:main.c        **** /* ========================================
   2:main.c        ****  *
   3:main.c        ****  * Copyright YOUR COMPANY, THE YEAR
   4:main.c        ****  * All Rights Reserved
   5:main.c        ****  * UNPUBLISHED, LICENSED SOFTWARE.
   6:main.c        ****  *
   7:main.c        ****  * CONFIDENTIAL AND PROPRIETARY INFORMATION
   8:main.c        ****  * WHICH IS THE PROPERTY OF your company.
   9:main.c        ****  *
  10:main.c        ****  * ========================================
  11:main.c        **** */
  12:main.c        **** #include "project.h"
  13:main.c        **** #include "stdio.h"
  14:main.c        **** #include "tty_utils.h"
  15:main.c        **** #include "utils.h"
  16:main.c        **** #include "usb_uart.h"
  17:main.c        **** 
  18:main.c        **** extern uint8_t rx_flag;
  19:main.c        **** extern uint16_t count;
  20:main.c        **** extern uint8_t buffer[USBUART_BUFFER_SIZE];
  21:main.c        **** //extern uint8_t buffer;
  22:main.c        **** 
  23:main.c        **** uint32_t test = 0;
  24:main.c        **** 
  25:main.c        **** void ym2612_write_step (uint8_t data);
  26:main.c        **** void ym2612_write(uint8_t reg, uint8_t data, uint8_t port);
  27:main.c        **** void sn76489_write(uint8_t data);
  28:main.c        **** void ym2612_reset();
  29:main.c        **** void ym2612_init (void);
  30:main.c        **** void SilenceAllChannels();
ARM GAS  C:\Users\ingan\AppData\Local\Temp\ccbjxiNe.s 			page 2


  31:main.c        **** void init_hardware(void);
  32:main.c        **** 
  33:main.c        **** int main(void) {
  34:main.c        **** 
  35:main.c        ****     init_hardware();
  36:main.c        ****     //splash("USBFS-UART demo") ;
  37:main.c        ****     //cls();
  38:main.c        ****     //print("\033c") ; /* reset */
  39:main.c        ****     //CyDelay(20) ;
  40:main.c        ****     while (0u == USBUART_CDCIsReady())
  41:main.c        ****     {
  42:main.c        ****     }
  43:main.c        ****     USBUART_PutString("\0");
  44:main.c        **** 
  45:main.c        ****     for(;;)
  46:main.c        ****     {
  47:main.c        ****         //try_all_address();
  48:main.c        ****         //do_demo();      
  49:main.c        **** //        do_usbuart();
  50:main.c        ****         if (rx_flag == 1)
  51:main.c        ****         {   
  52:main.c        ****             //USBUART_PutData(buffer, count);
  53:main.c        ****             rx_flag = 0;
  54:main.c        ****             
  55:main.c        ****             switch (buffer[0])
  56:main.c        ****             {
  57:main.c        ****                                      
  58:main.c        ****                 case 0x50: // 0x50 	dd 	PSG (SN76489/SN76496) write value dd
  59:main.c        ****                     
  60:main.c        ****                     sn76489_write(buffer[1]);
  61:main.c        ****                     break;
  62:main.c        ****                 
  63:main.c        ****                 case 0x52: // 0x52 	aa dd  YM2612 port 0, write value dd to register aa
  64:main.c        ****                 case 0x53: // 0x53 	aa dd  YM2612 port 1, write value dd to register aa
  65:main.c        **** 
  66:main.c        ****                     ym2612_write(buffer[1], buffer[2], buffer[0] & 0x01);
  67:main.c        ****                     break;
  68:main.c        ****                     
  69:main.c        ****                 case 0x60:
  70:main.c        ****                     
  71:main.c        ****                     ym2612_write(0x2a, buffer[1], 0x00);
  72:main.c        ****                     break;
  73:main.c        ****                    
  74:main.c        ****                 default: break;
  75:main.c        ****             }
  76:main.c        ****             
  77:main.c        ****             test += count;
  78:main.c        ****             
  79:main.c        ****         }
  80:main.c        ****     }  
  81:main.c        **** }
  82:main.c        **** 
  83:main.c        **** void init_hardware(void) 
  84:main.c        **** {
  85:main.c        ****     SilenceAllChannels();
  86:main.c        ****     CyGlobalIntEnable; /* Enable global interrupts. */
  87:main.c        **** 
ARM GAS  C:\Users\ingan\AppData\Local\Temp\ccbjxiNe.s 			page 3


  88:main.c        ****     tty_init() ;
  89:main.c        **** }
  90:main.c        **** 
  91:main.c        **** void ym2612_write_step (uint8_t data)
  92:main.c        **** {
  28              		.loc 1 92 0
  29              		.cfi_startproc
  30              		@ args = 0, pretend = 0, frame = 0
  31              		@ frame_needed = 0, uses_anonymous_args = 0
  32              	.LVL0:
  33 0000 10B5     		push	{r4, lr}
  34              		.cfi_def_cfa_offset 8
  35              		.cfi_offset 4, -8
  36              		.cfi_offset 14, -4
  37 0002 0446     		mov	r4, r0
  93:main.c        ****   // CS Pin low
  94:main.c        ****   YM_CS_Write(0);
  38              		.loc 1 94 0
  39 0004 0020     		movs	r0, #0
  40              	.LVL1:
  41 0006 FFF7FEFF 		bl	YM_CS_Write
  42              	.LVL2:
  95:main.c        ****   // DATA to bus
  96:main.c        ****   YM_Data_Write(data);
  43              		.loc 1 96 0
  44 000a 2046     		mov	r0, r4
  45 000c FFF7FEFF 		bl	YM_Data_Write
  46              	.LVL3:
  97:main.c        ****   // WR data
  98:main.c        ****   YM_WR_Write(0);
  47              		.loc 1 98 0
  48 0010 0020     		movs	r0, #0
  49 0012 FFF7FEFF 		bl	YM_WR_Write
  50              	.LVL4:
  99:main.c        ****   YM_RD_Write(1);
  51              		.loc 1 99 0
  52 0016 0120     		movs	r0, #1
  53 0018 FFF7FEFF 		bl	YM_RD_Write
  54              	.LVL5:
 100:main.c        ****   //CyDelayCycles(1);
 101:main.c        ****   CyDelayUs(3);
  55              		.loc 1 101 0
  56 001c 0320     		movs	r0, #3
  57 001e FFF7FEFF 		bl	CyDelayUs
  58              	.LVL6:
 102:main.c        ****   YM_WR_Write(1);
  59              		.loc 1 102 0
  60 0022 0120     		movs	r0, #1
  61 0024 FFF7FEFF 		bl	YM_WR_Write
  62              	.LVL7:
 103:main.c        ****   YM_RD_Write(0);
  63              		.loc 1 103 0
  64 0028 0020     		movs	r0, #0
  65 002a FFF7FEFF 		bl	YM_RD_Write
  66              	.LVL8:
 104:main.c        ****   // CS Pin high
 105:main.c        ****   YM_CS_Write(1);
ARM GAS  C:\Users\ingan\AppData\Local\Temp\ccbjxiNe.s 			page 4


  67              		.loc 1 105 0
  68 002e 0120     		movs	r0, #1
  69 0030 FFF7FEFF 		bl	YM_CS_Write
  70              	.LVL9:
 106:main.c        ****   CyDelayUs(3);
  71              		.loc 1 106 0
  72 0034 0320     		movs	r0, #3
  73 0036 FFF7FEFF 		bl	CyDelayUs
  74              	.LVL10:
  75 003a 10BD     		pop	{r4, pc}
  76              		.cfi_endproc
  77              	.LFE66:
  78              		.size	ym2612_write_step, .-ym2612_write_step
  79              		.section	.text.ym2612_write,"ax",%progbits
  80              		.align	2
  81              		.global	ym2612_write
  82              		.thumb
  83              		.thumb_func
  84              		.type	ym2612_write, %function
  85              	ym2612_write:
  86              	.LFB67:
 107:main.c        ****   //CyDelayCycles(1);
 108:main.c        **** }
 109:main.c        **** 
 110:main.c        **** void ym2612_write(uint8_t reg, uint8_t data, uint8_t port)
 111:main.c        **** {
  87              		.loc 1 111 0
  88              		.cfi_startproc
  89              		@ args = 0, pretend = 0, frame = 0
  90              		@ frame_needed = 0, uses_anonymous_args = 0
  91              	.LVL11:
  92 0000 38B5     		push	{r3, r4, r5, lr}
  93              		.cfi_def_cfa_offset 16
  94              		.cfi_offset 3, -16
  95              		.cfi_offset 4, -12
  96              		.cfi_offset 5, -8
  97              		.cfi_offset 14, -4
  98 0002 0546     		mov	r5, r0
  99 0004 0C46     		mov	r4, r1
 112:main.c        ****   // A1 selects part0 (channels 1-3) or part1 (channels 1-6)
 113:main.c        ****   YM_A1_Write(port);
 100              		.loc 1 113 0
 101 0006 1046     		mov	r0, r2
 102              	.LVL12:
 103 0008 FFF7FEFF 		bl	YM_A1_Write
 104              	.LVL13:
 114:main.c        ****   YM_A0_Write(0);
 105              		.loc 1 114 0
 106 000c 0020     		movs	r0, #0
 107 000e FFF7FEFF 		bl	YM_A0_Write
 108              	.LVL14:
 115:main.c        ****   // write register selection
 116:main.c        ****   ym2612_write_step(reg);
 109              		.loc 1 116 0
 110 0012 2846     		mov	r0, r5
 111 0014 FFF7FEFF 		bl	ym2612_write_step
 112              	.LVL15:
ARM GAS  C:\Users\ingan\AppData\Local\Temp\ccbjxiNe.s 			page 5


 117:main.c        ****   // data part 0 (channels 1-3)
 118:main.c        ****   // A1 low, A0 high
 119:main.c        ****   YM_A0_Write(1);
 113              		.loc 1 119 0
 114 0018 0120     		movs	r0, #1
 115 001a FFF7FEFF 		bl	YM_A0_Write
 116              	.LVL16:
 120:main.c        ****   ym2612_write_step(data);
 117              		.loc 1 120 0
 118 001e 2046     		mov	r0, r4
 119 0020 FFF7FEFF 		bl	ym2612_write_step
 120              	.LVL17:
 121 0024 38BD     		pop	{r3, r4, r5, pc}
 122              		.cfi_endproc
 123              	.LFE67:
 124              		.size	ym2612_write, .-ym2612_write
 125 0026 00BF     		.section	.text.sn76489_write,"ax",%progbits
 126              		.align	2
 127              		.global	sn76489_write
 128              		.thumb
 129              		.thumb_func
 130              		.type	sn76489_write, %function
 131              	sn76489_write:
 132              	.LFB68:
 121:main.c        **** }
 122:main.c        **** 
 123:main.c        **** void sn76489_write(uint8_t data)
 124:main.c        **** {
 133              		.loc 1 124 0
 134              		.cfi_startproc
 135              		@ args = 0, pretend = 0, frame = 0
 136              		@ frame_needed = 0, uses_anonymous_args = 0
 137              	.LVL18:
 138 0000 10B5     		push	{r4, lr}
 139              		.cfi_def_cfa_offset 8
 140              		.cfi_offset 4, -8
 141              		.cfi_offset 14, -4
 142 0002 0446     		mov	r4, r0
 125:main.c        ****   //data = flip_byte(data);  
 126:main.c        ****   SN_WE_Write(1);
 143              		.loc 1 126 0
 144 0004 0120     		movs	r0, #1
 145              	.LVL19:
 146 0006 FFF7FEFF 		bl	SN_WE_Write
 147              	.LVL20:
 127:main.c        ****   YM_Data_Write(data);
 148              		.loc 1 127 0
 149 000a 2046     		mov	r0, r4
 150 000c FFF7FEFF 		bl	YM_Data_Write
 151              	.LVL21:
 128:main.c        ****   SN_WE_Write(0);
 152              		.loc 1 128 0
 153 0010 0020     		movs	r0, #0
 154 0012 FFF7FEFF 		bl	SN_WE_Write
 155              	.LVL22:
 129:main.c        ****   //CyDelayCycles(1);
 130:main.c        ****   CyDelayUs(10);
ARM GAS  C:\Users\ingan\AppData\Local\Temp\ccbjxiNe.s 			page 6


 156              		.loc 1 130 0
 157 0016 0A20     		movs	r0, #10
 158 0018 FFF7FEFF 		bl	CyDelayUs
 159              	.LVL23:
 131:main.c        ****   SN_WE_Write(1);
 160              		.loc 1 131 0
 161 001c 0120     		movs	r0, #1
 162 001e FFF7FEFF 		bl	SN_WE_Write
 163              	.LVL24:
 164 0022 10BD     		pop	{r4, pc}
 165              		.cfi_endproc
 166              	.LFE68:
 167              		.size	sn76489_write, .-sn76489_write
 168              		.section	.text.ym2612_reset,"ax",%progbits
 169              		.align	2
 170              		.global	ym2612_reset
 171              		.thumb
 172              		.thumb_func
 173              		.type	ym2612_reset, %function
 174              	ym2612_reset:
 175              	.LFB69:
 132:main.c        **** }
 133:main.c        **** 
 134:main.c        **** void ym2612_reset()
 135:main.c        **** {
 176              		.loc 1 135 0
 177              		.cfi_startproc
 178              		@ args = 0, pretend = 0, frame = 0
 179              		@ frame_needed = 0, uses_anonymous_args = 0
 180 0000 08B5     		push	{r3, lr}
 181              		.cfi_def_cfa_offset 8
 182              		.cfi_offset 3, -8
 183              		.cfi_offset 14, -4
 136:main.c        ****   //YM_IC_Write(0);
 137:main.c        ****   //CyDelayUs(1);
 138:main.c        ****   //YM_IC_Write(1);
 139:main.c        ****   YM_IC_Write(0);
 184              		.loc 1 139 0
 185 0002 0020     		movs	r0, #0
 186 0004 FFF7FEFF 		bl	YM_IC_Write
 187              	.LVL25:
 140:main.c        ****   CyDelay(10);
 188              		.loc 1 140 0
 189 0008 0A20     		movs	r0, #10
 190 000a FFF7FEFF 		bl	CyDelay
 191              	.LVL26:
 141:main.c        ****   YM_IC_Write(1);
 192              		.loc 1 141 0
 193 000e 0120     		movs	r0, #1
 194 0010 FFF7FEFF 		bl	YM_IC_Write
 195              	.LVL27:
 142:main.c        ****   CyDelay(10);  
 196              		.loc 1 142 0
 197 0014 0A20     		movs	r0, #10
 198 0016 FFF7FEFF 		bl	CyDelay
 199              	.LVL28:
 200 001a 08BD     		pop	{r3, pc}
ARM GAS  C:\Users\ingan\AppData\Local\Temp\ccbjxiNe.s 			page 7


 201              		.cfi_endproc
 202              	.LFE69:
 203              		.size	ym2612_reset, .-ym2612_reset
 204              		.section	.text.ym2612_init,"ax",%progbits
 205              		.align	2
 206              		.global	ym2612_init
 207              		.thumb
 208              		.thumb_func
 209              		.type	ym2612_init, %function
 210              	ym2612_init:
 211              	.LFB70:
 143:main.c        ****   // Silence channel-0 to channel-6
 144:main.c        ****   //for (uint8_t ch = 0; ch <= 6; ++ch)
 145:main.c        ****   //  ym2612_write(0x28, ch, 0);
 146:main.c        **** }
 147:main.c        **** 
 148:main.c        **** void ym2612_init (void)
 149:main.c        **** {
 212              		.loc 1 149 0
 213              		.cfi_startproc
 214              		@ args = 0, pretend = 0, frame = 0
 215              		@ frame_needed = 0, uses_anonymous_args = 0
 216 0000 08B5     		push	{r3, lr}
 217              		.cfi_def_cfa_offset 8
 218              		.cfi_offset 3, -8
 219              		.cfi_offset 14, -4
 150:main.c        ****   YM_CS_Write(1);
 220              		.loc 1 150 0
 221 0002 0120     		movs	r0, #1
 222 0004 FFF7FEFF 		bl	YM_CS_Write
 223              	.LVL29:
 151:main.c        ****   YM_WR_Write(1);
 224              		.loc 1 151 0
 225 0008 0120     		movs	r0, #1
 226 000a FFF7FEFF 		bl	YM_WR_Write
 227              	.LVL30:
 152:main.c        ****   YM_RD_Write(1);
 228              		.loc 1 152 0
 229 000e 0120     		movs	r0, #1
 230 0010 FFF7FEFF 		bl	YM_RD_Write
 231              	.LVL31:
 153:main.c        ****   YM_IC_Write(1);
 232              		.loc 1 153 0
 233 0014 0120     		movs	r0, #1
 234 0016 FFF7FEFF 		bl	YM_IC_Write
 235              	.LVL32:
 154:main.c        ****   YM_A0_Write(0);
 236              		.loc 1 154 0
 237 001a 0020     		movs	r0, #0
 238 001c FFF7FEFF 		bl	YM_A0_Write
 239              	.LVL33:
 155:main.c        ****   YM_A1_Write(0);
 240              		.loc 1 155 0
 241 0020 0020     		movs	r0, #0
 242 0022 FFF7FEFF 		bl	YM_A1_Write
 243              	.LVL34:
 156:main.c        ****   YM_Data_Write(0xff);
ARM GAS  C:\Users\ingan\AppData\Local\Temp\ccbjxiNe.s 			page 8


 244              		.loc 1 156 0
 245 0026 FF20     		movs	r0, #255
 246 0028 FFF7FEFF 		bl	YM_Data_Write
 247              	.LVL35:
 248 002c 08BD     		pop	{r3, pc}
 249              		.cfi_endproc
 250              	.LFE70:
 251              		.size	ym2612_init, .-ym2612_init
 252 002e 00BF     		.section	.text.SilenceAllChannels,"ax",%progbits
 253              		.align	2
 254              		.global	SilenceAllChannels
 255              		.thumb
 256              		.thumb_func
 257              		.type	SilenceAllChannels, %function
 258              	SilenceAllChannels:
 259              	.LFB71:
 157:main.c        **** }
 158:main.c        **** 
 159:main.c        **** void SilenceAllChannels()
 160:main.c        **** {  
 260              		.loc 1 160 0
 261              		.cfi_startproc
 262              		@ args = 0, pretend = 0, frame = 0
 263              		@ frame_needed = 0, uses_anonymous_args = 0
 264 0000 08B5     		push	{r3, lr}
 265              		.cfi_def_cfa_offset 8
 266              		.cfi_offset 3, -8
 267              		.cfi_offset 14, -4
 161:main.c        ****   sn76489_write(0x9f);
 268              		.loc 1 161 0
 269 0002 9F20     		movs	r0, #159
 270 0004 FFF7FEFF 		bl	sn76489_write
 271              	.LVL36:
 162:main.c        ****   sn76489_write(0xbf);
 272              		.loc 1 162 0
 273 0008 BF20     		movs	r0, #191
 274 000a FFF7FEFF 		bl	sn76489_write
 275              	.LVL37:
 163:main.c        ****   sn76489_write(0xdf);
 276              		.loc 1 163 0
 277 000e DF20     		movs	r0, #223
 278 0010 FFF7FEFF 		bl	sn76489_write
 279              	.LVL38:
 164:main.c        ****   sn76489_write(0xff);
 280              		.loc 1 164 0
 281 0014 FF20     		movs	r0, #255
 282 0016 FFF7FEFF 		bl	sn76489_write
 283              	.LVL39:
 165:main.c        **** 
 166:main.c        ****   ym2612_init();
 284              		.loc 1 166 0
 285 001a FFF7FEFF 		bl	ym2612_init
 286              	.LVL40:
 167:main.c        ****   ym2612_reset();
 287              		.loc 1 167 0
 288 001e FFF7FEFF 		bl	ym2612_reset
 289              	.LVL41:
ARM GAS  C:\Users\ingan\AppData\Local\Temp\ccbjxiNe.s 			page 9


 290 0022 08BD     		pop	{r3, pc}
 291              		.cfi_endproc
 292              	.LFE71:
 293              		.size	SilenceAllChannels, .-SilenceAllChannels
 294              		.section	.text.init_hardware,"ax",%progbits
 295              		.align	2
 296              		.global	init_hardware
 297              		.thumb
 298              		.thumb_func
 299              		.type	init_hardware, %function
 300              	init_hardware:
 301              	.LFB65:
  84:main.c        ****     SilenceAllChannels();
 302              		.loc 1 84 0
 303              		.cfi_startproc
 304              		@ args = 0, pretend = 0, frame = 0
 305              		@ frame_needed = 0, uses_anonymous_args = 0
 306 0000 08B5     		push	{r3, lr}
 307              		.cfi_def_cfa_offset 8
 308              		.cfi_offset 3, -8
 309              		.cfi_offset 14, -4
  85:main.c        ****     CyGlobalIntEnable; /* Enable global interrupts. */
 310              		.loc 1 85 0
 311 0002 FFF7FEFF 		bl	SilenceAllChannels
 312              	.LVL42:
  86:main.c        **** 
 313              		.loc 1 86 0
 314              		.syntax unified
 315              	@ 86 "main.c" 1
 316 0006 62B6     		CPSIE   i
 317              	@ 0 "" 2
  88:main.c        **** }
 318              		.loc 1 88 0
 319              		.thumb
 320              		.syntax unified
 321 0008 FFF7FEFF 		bl	tty_init
 322              	.LVL43:
 323 000c 08BD     		pop	{r3, pc}
 324              		.cfi_endproc
 325              	.LFE65:
 326              		.size	init_hardware, .-init_hardware
 327 000e 00BF     		.section	.text.main,"ax",%progbits
 328              		.align	2
 329              		.global	main
 330              		.thumb
 331              		.thumb_func
 332              		.type	main, %function
 333              	main:
 334              	.LFB64:
  33:main.c        **** 
 335              		.loc 1 33 0
 336              		.cfi_startproc
 337              		@ Volatile: function does not return.
 338              		@ args = 0, pretend = 0, frame = 0
 339              		@ frame_needed = 0, uses_anonymous_args = 0
 340 0000 08B5     		push	{r3, lr}
 341              		.cfi_def_cfa_offset 8
ARM GAS  C:\Users\ingan\AppData\Local\Temp\ccbjxiNe.s 			page 10


 342              		.cfi_offset 3, -8
 343              		.cfi_offset 14, -4
  35:main.c        ****     //splash("USBFS-UART demo") ;
 344              		.loc 1 35 0
 345 0002 FFF7FEFF 		bl	init_hardware
 346              	.LVL44:
 347              	.L16:
  40:main.c        ****     {
 348              		.loc 1 40 0 discriminator 1
 349 0006 FFF7FEFF 		bl	USBUART_CDCIsReady
 350              	.LVL45:
 351 000a 0028     		cmp	r0, #0
 352 000c FBD0     		beq	.L16
  43:main.c        **** 
 353              		.loc 1 43 0
 354 000e 1A48     		ldr	r0, .L25
 355 0010 FFF7FEFF 		bl	USBUART_PutString
 356              	.LVL46:
 357              	.L17:
  50:main.c        ****         {   
 358              		.loc 1 50 0
 359 0014 194B     		ldr	r3, .L25+4
 360 0016 1B78     		ldrb	r3, [r3]	@ zero_extendqisi2
 361 0018 012B     		cmp	r3, #1
 362 001a FBD1     		bne	.L17
  53:main.c        ****             
 363              		.loc 1 53 0
 364 001c 0022     		movs	r2, #0
 365 001e 174B     		ldr	r3, .L25+4
 366 0020 1A70     		strb	r2, [r3]
  55:main.c        ****             {
 367              		.loc 1 55 0
 368 0022 174B     		ldr	r3, .L25+8
 369 0024 1A78     		ldrb	r2, [r3]	@ zero_extendqisi2
 370 0026 A2F15003 		sub	r3, r2, #80
 371 002a 102B     		cmp	r3, #16
 372 002c 1DD8     		bhi	.L18
 373 002e DFE803F0 		tbb	[pc, r3]
 374              	.L20:
 375 0032 09       		.byte	(.L19-.L20)/2
 376 0033 1C       		.byte	(.L18-.L20)/2
 377 0034 0E       		.byte	(.L21-.L20)/2
 378 0035 0E       		.byte	(.L21-.L20)/2
 379 0036 1C       		.byte	(.L18-.L20)/2
 380 0037 1C       		.byte	(.L18-.L20)/2
 381 0038 1C       		.byte	(.L18-.L20)/2
 382 0039 1C       		.byte	(.L18-.L20)/2
 383 003a 1C       		.byte	(.L18-.L20)/2
 384 003b 1C       		.byte	(.L18-.L20)/2
 385 003c 1C       		.byte	(.L18-.L20)/2
 386 003d 1C       		.byte	(.L18-.L20)/2
 387 003e 1C       		.byte	(.L18-.L20)/2
 388 003f 1C       		.byte	(.L18-.L20)/2
 389 0040 1C       		.byte	(.L18-.L20)/2
 390 0041 1C       		.byte	(.L18-.L20)/2
 391 0042 16       		.byte	(.L22-.L20)/2
 392 0043 00       		.p2align 1
ARM GAS  C:\Users\ingan\AppData\Local\Temp\ccbjxiNe.s 			page 11


 393              	.L19:
  60:main.c        ****                     break;
 394              		.loc 1 60 0
 395 0044 0E4B     		ldr	r3, .L25+8
 396 0046 5878     		ldrb	r0, [r3, #1]	@ zero_extendqisi2
 397 0048 FFF7FEFF 		bl	sn76489_write
 398              	.LVL47:
  61:main.c        ****                 
 399              		.loc 1 61 0
 400 004c 0DE0     		b	.L18
 401              	.L21:
  66:main.c        ****                     break;
 402              		.loc 1 66 0
 403 004e 0C4B     		ldr	r3, .L25+8
 404 0050 02F00102 		and	r2, r2, #1
 405 0054 9978     		ldrb	r1, [r3, #2]	@ zero_extendqisi2
 406 0056 5878     		ldrb	r0, [r3, #1]	@ zero_extendqisi2
 407 0058 FFF7FEFF 		bl	ym2612_write
 408              	.LVL48:
  67:main.c        ****                     
 409              		.loc 1 67 0
 410 005c 05E0     		b	.L18
 411              	.L22:
  71:main.c        ****                     break;
 412              		.loc 1 71 0
 413 005e 0022     		movs	r2, #0
 414 0060 074B     		ldr	r3, .L25+8
 415 0062 5978     		ldrb	r1, [r3, #1]	@ zero_extendqisi2
 416 0064 2A20     		movs	r0, #42
 417 0066 FFF7FEFF 		bl	ym2612_write
 418              	.LVL49:
 419              	.L18:
  77:main.c        ****             
 420              		.loc 1 77 0
 421 006a 064A     		ldr	r2, .L25+12
 422 006c 064B     		ldr	r3, .L25+16
 423 006e 1988     		ldrh	r1, [r3]
 424 0070 1368     		ldr	r3, [r2]
 425 0072 0B44     		add	r3, r3, r1
 426 0074 1360     		str	r3, [r2]
 427 0076 CDE7     		b	.L17
 428              	.L26:
 429              		.align	2
 430              	.L25:
 431 0078 00000000 		.word	.LANCHOR0
 432 007c 00000000 		.word	rx_flag
 433 0080 00000000 		.word	buffer
 434 0084 00000000 		.word	.LANCHOR1
 435 0088 00000000 		.word	count
 436              		.cfi_endproc
 437              	.LFE64:
 438              		.size	main, .-main
 439              		.global	test
 440              		.section	.rodata
 441              		.align	2
 442              		.set	.LANCHOR0,. + 0
 443              	.LC0:
ARM GAS  C:\Users\ingan\AppData\Local\Temp\ccbjxiNe.s 			page 12


 444 0000 0000     		.ascii	"\000\000"
 445              		.bss
 446              		.align	2
 447              		.set	.LANCHOR1,. + 0
 448              		.type	test, %object
 449              		.size	test, 4
 450              	test:
 451 0000 00000000 		.space	4
 452              		.text
 453              	.Letext0:
 454              		.file 2 "c:\\program files (x86)\\cypress\\psoc creator\\4.2\\psoc creator\\import\\gnu\\arm\\5.4.
 455              		.file 3 "c:\\program files (x86)\\cypress\\psoc creator\\4.2\\psoc creator\\import\\gnu\\arm\\5.4.
 456              		.file 4 "Generated_Source\\PSoC5/core_cm3.h"
 457              		.file 5 "Generated_Source\\PSoC5/YM_CS.h"
 458              		.file 6 "Generated_Source\\PSoC5/YM_Data.h"
 459              		.file 7 "Generated_Source\\PSoC5/YM_WR.h"
 460              		.file 8 "Generated_Source\\PSoC5/YM_RD.h"
 461              		.file 9 "Generated_Source\\PSoC5/CyLib.h"
 462              		.file 10 "Generated_Source\\PSoC5/YM_A1.h"
 463              		.file 11 "Generated_Source\\PSoC5/YM_A0.h"
 464              		.file 12 "Generated_Source\\PSoC5/SN_WE.h"
 465              		.file 13 "Generated_Source\\PSoC5/YM_IC.h"
 466              		.file 14 "tty_utils.h"
 467              		.file 15 "Generated_Source\\PSoC5/USBUART_cdc.h"