ARM GAS  C:\Users\ingan\AppData\Local\Temp\ccMtFi7x.s 			page 1


   1              		.syntax unified
   2              		.cpu cortex-m3
   3              		.fpu softvfp
   4              		.eabi_attribute 20, 1
   5              		.eabi_attribute 21, 1
   6              		.eabi_attribute 23, 3
   7              		.eabi_attribute 24, 1
   8              		.eabi_attribute 25, 1
   9              		.eabi_attribute 26, 1
  10              		.eabi_attribute 30, 1
  11              		.eabi_attribute 34, 1
  12              		.eabi_attribute 18, 4
  13              		.thumb
  14              		.syntax unified
  15              		.file	"USBUART.c"
  16              		.text
  17              	.Ltext0:
  18              		.cfi_sections	.debug_frame
  19              		.section	.text.USBUART_Init,"ax",%progbits
  20              		.align	2
  21              		.global	USBUART_Init
  22              		.thumb
  23              		.thumb_func
  24              		.type	USBUART_Init, %function
  25              	USBUART_Init:
  26              	.LFB1:
  27              		.file 1 "Generated_Source\\PSoC5\\USBUART.c"
   1:Generated_Source\PSoC5/USBUART.c **** /***************************************************************************//**
   2:Generated_Source\PSoC5/USBUART.c **** * \file USBUART.c
   3:Generated_Source\PSoC5/USBUART.c **** * \version 3.20
   4:Generated_Source\PSoC5/USBUART.c **** *
   5:Generated_Source\PSoC5/USBUART.c **** * \brief
   6:Generated_Source\PSoC5/USBUART.c **** *  This file contains the global USBFS API functions.
   7:Generated_Source\PSoC5/USBUART.c **** *
   8:Generated_Source\PSoC5/USBUART.c **** * Note:
   9:Generated_Source\PSoC5/USBUART.c **** *  Many of the functions use an endpoint number. SRAM arrays are sized with 9
  10:Generated_Source\PSoC5/USBUART.c **** *  elements, so they are indexed directly by epNumber.  The SIE and ARB
  11:Generated_Source\PSoC5/USBUART.c **** *  registers are indexed by variations of epNumber - 1.
  12:Generated_Source\PSoC5/USBUART.c **** *
  13:Generated_Source\PSoC5/USBUART.c **** ********************************************************************************
  14:Generated_Source\PSoC5/USBUART.c **** * \copyright
  15:Generated_Source\PSoC5/USBUART.c **** * Copyright 2008-2016, Cypress Semiconductor Corporation.  All rights reserved.
  16:Generated_Source\PSoC5/USBUART.c **** * You may use this file only in accordance with the license, terms, conditions,
  17:Generated_Source\PSoC5/USBUART.c **** * disclaimers, and limitations in the end user license agreement accompanying
  18:Generated_Source\PSoC5/USBUART.c **** * the software package with which this file was provided.
  19:Generated_Source\PSoC5/USBUART.c **** *******************************************************************************/
  20:Generated_Source\PSoC5/USBUART.c **** 
  21:Generated_Source\PSoC5/USBUART.c **** #include "USBUART_pvt.h"
  22:Generated_Source\PSoC5/USBUART.c **** #include "USBUART_cydmac.h"
  23:Generated_Source\PSoC5/USBUART.c **** #include "USBUART_hid.h"
  24:Generated_Source\PSoC5/USBUART.c **** #include "USBUART_Dp.h"
  25:Generated_Source\PSoC5/USBUART.c **** 
  26:Generated_Source\PSoC5/USBUART.c **** 
  27:Generated_Source\PSoC5/USBUART.c **** /***************************************
  28:Generated_Source\PSoC5/USBUART.c **** * Global data allocation
  29:Generated_Source\PSoC5/USBUART.c **** ***************************************/
  30:Generated_Source\PSoC5/USBUART.c **** 
ARM GAS  C:\Users\ingan\AppData\Local\Temp\ccMtFi7x.s 			page 2


  31:Generated_Source\PSoC5/USBUART.c **** /** Indicates whether the USBFS has been initialized. The variable is
  32:Generated_Source\PSoC5/USBUART.c **** * initialized to 0 after device reset and set to 1 the first time USBFS_Start()
  33:Generated_Source\PSoC5/USBUART.c **** * is called. This allows the Component to restart without reinitialization after
  34:Generated_Source\PSoC5/USBUART.c **** * the first call to the USBFS_Start() routine.
  35:Generated_Source\PSoC5/USBUART.c **** * If re-initialization of the Component is required, the variable should be set
  36:Generated_Source\PSoC5/USBUART.c **** * to 0 before the USBFS_Start() routine is called. Alternatively, the USBFS can
  37:Generated_Source\PSoC5/USBUART.c **** * be reinitialized by calling both USBFS_Init() and USBFS_InitComponent()
  38:Generated_Source\PSoC5/USBUART.c **** * functions.
  39:Generated_Source\PSoC5/USBUART.c **** */
  40:Generated_Source\PSoC5/USBUART.c **** uint8 USBUART_initVar = 0u;
  41:Generated_Source\PSoC5/USBUART.c **** 
  42:Generated_Source\PSoC5/USBUART.c **** #if (USBUART_EP_MANAGEMENT_DMA)
  43:Generated_Source\PSoC5/USBUART.c ****     #if (CY_PSOC4)
  44:Generated_Source\PSoC5/USBUART.c ****         static void USBUART_InitEpDma(void);
  45:Generated_Source\PSoC5/USBUART.c **** 
  46:Generated_Source\PSoC5/USBUART.c ****         /* DMA chanels assigend for endpoints. */
  47:Generated_Source\PSoC5/USBUART.c ****         const uint8 USBUART_DmaChan[USBUART_MAX_EP] =
  48:Generated_Source\PSoC5/USBUART.c ****         {
  49:Generated_Source\PSoC5/USBUART.c ****             0u,
  50:Generated_Source\PSoC5/USBUART.c ****             (uint8) USBUART_ep1_dma_CHANNEL,
  51:Generated_Source\PSoC5/USBUART.c ****             (uint8) USBUART_ep2_dma_CHANNEL,
  52:Generated_Source\PSoC5/USBUART.c ****             (uint8) USBUART_ep3_dma_CHANNEL,
  53:Generated_Source\PSoC5/USBUART.c ****             0u,
  54:Generated_Source\PSoC5/USBUART.c ****             0u,
  55:Generated_Source\PSoC5/USBUART.c ****             0u,
  56:Generated_Source\PSoC5/USBUART.c ****             0u,
  57:Generated_Source\PSoC5/USBUART.c ****             0u,
  58:Generated_Source\PSoC5/USBUART.c ****         };        
  59:Generated_Source\PSoC5/USBUART.c ****     #else
  60:Generated_Source\PSoC5/USBUART.c ****         /* DMA chanels assigend for endpoints. */
  61:Generated_Source\PSoC5/USBUART.c ****         uint8 USBUART_DmaChan[USBUART_MAX_EP];
  62:Generated_Source\PSoC5/USBUART.c ****         
  63:Generated_Source\PSoC5/USBUART.c ****         /* DMA TDs require for PSoC 3/5LP operation. */
  64:Generated_Source\PSoC5/USBUART.c ****         uint8 USBUART_DmaTd[USBUART_MAX_EP];
  65:Generated_Source\PSoC5/USBUART.c ****     #endif /* (CY_PSOC4) */
  66:Generated_Source\PSoC5/USBUART.c **** #endif /* (USBUART_EP_MANAGEMENT_DMA) */
  67:Generated_Source\PSoC5/USBUART.c **** 
  68:Generated_Source\PSoC5/USBUART.c **** #if (USBUART_EP_MANAGEMENT_DMA_AUTO)
  69:Generated_Source\PSoC5/USBUART.c **** #if (CY_PSOC4)
  70:Generated_Source\PSoC5/USBUART.c ****     /* Number of DMA bursts. */
  71:Generated_Source\PSoC5/USBUART.c ****     uint8  USBUART_DmaEpBurstCnt   [USBUART_MAX_EP];
  72:Generated_Source\PSoC5/USBUART.c ****     
  73:Generated_Source\PSoC5/USBUART.c ****     /* Number of bytes to transfer in last DMA burst. */
  74:Generated_Source\PSoC5/USBUART.c ****     uint8  USBUART_DmaEpLastBurstEl[USBUART_MAX_EP];
  75:Generated_Source\PSoC5/USBUART.c **** 
  76:Generated_Source\PSoC5/USBUART.c ****     /* Storage for arrays above. */
  77:Generated_Source\PSoC5/USBUART.c ****     uint8  USBUART_DmaEpBurstCntBackup  [USBUART_MAX_EP];
  78:Generated_Source\PSoC5/USBUART.c ****     uint32 USBUART_DmaEpBufferAddrBackup[USBUART_MAX_EP];
  79:Generated_Source\PSoC5/USBUART.c ****      
  80:Generated_Source\PSoC5/USBUART.c ****     /* DMA trigger mux output for usb.dma_req[0-7]. */
  81:Generated_Source\PSoC5/USBUART.c ****     const uint8 USBUART_DmaReqOut[USBUART_MAX_EP] =
  82:Generated_Source\PSoC5/USBUART.c ****     {
  83:Generated_Source\PSoC5/USBUART.c ****         0u,
  84:Generated_Source\PSoC5/USBUART.c ****         USBUART_ep1_dma__TR_OUTPUT,
  85:Generated_Source\PSoC5/USBUART.c ****         USBUART_ep2_dma__TR_OUTPUT,
  86:Generated_Source\PSoC5/USBUART.c ****         USBUART_ep3_dma__TR_OUTPUT,
  87:Generated_Source\PSoC5/USBUART.c ****         0u,
ARM GAS  C:\Users\ingan\AppData\Local\Temp\ccMtFi7x.s 			page 3


  88:Generated_Source\PSoC5/USBUART.c ****         0u,
  89:Generated_Source\PSoC5/USBUART.c ****         0u,
  90:Generated_Source\PSoC5/USBUART.c ****         0u,
  91:Generated_Source\PSoC5/USBUART.c ****         0u,
  92:Generated_Source\PSoC5/USBUART.c ****     };
  93:Generated_Source\PSoC5/USBUART.c **** 
  94:Generated_Source\PSoC5/USBUART.c ****     /* DMA trigger mux output for usb.dma_burstend[0-7]. */
  95:Generated_Source\PSoC5/USBUART.c ****     const uint8 USBUART_DmaBurstEndOut[USBUART_MAX_EP] =
  96:Generated_Source\PSoC5/USBUART.c ****     {
  97:Generated_Source\PSoC5/USBUART.c ****         0u,
  98:Generated_Source\PSoC5/USBUART.c ****         USBUART_BURSTEND_0_TR_OUTPUT,
  99:Generated_Source\PSoC5/USBUART.c ****         USBUART_BURSTEND_1_TR_OUTPUT,
 100:Generated_Source\PSoC5/USBUART.c ****         USBUART_BURSTEND_2_TR_OUTPUT,
 101:Generated_Source\PSoC5/USBUART.c ****         USBUART_BURSTEND_3_TR_OUTPUT,
 102:Generated_Source\PSoC5/USBUART.c ****         USBUART_BURSTEND_4_TR_OUTPUT,
 103:Generated_Source\PSoC5/USBUART.c ****         USBUART_BURSTEND_5_TR_OUTPUT,
 104:Generated_Source\PSoC5/USBUART.c ****         USBUART_BURSTEND_6_TR_OUTPUT,
 105:Generated_Source\PSoC5/USBUART.c ****         USBUART_BURSTEND_7_TR_OUTPUT
 106:Generated_Source\PSoC5/USBUART.c ****     };
 107:Generated_Source\PSoC5/USBUART.c ****     
 108:Generated_Source\PSoC5/USBUART.c **** #else
 109:Generated_Source\PSoC5/USBUART.c ****     #if (USBUART_EP_DMA_AUTO_OPT == 0u)
 110:Generated_Source\PSoC5/USBUART.c ****         static uint8 clearInDataRdyStatus = USBUART_ARB_EPX_CFG_DEFAULT;
 111:Generated_Source\PSoC5/USBUART.c ****         uint8 USBUART_DmaNextTd[USBUART_MAX_EP];
 112:Generated_Source\PSoC5/USBUART.c ****         const uint8 USBUART_epX_TD_TERMOUT_EN[USBUART_MAX_EP] =
 113:Generated_Source\PSoC5/USBUART.c ****         {
 114:Generated_Source\PSoC5/USBUART.c ****             0u,
 115:Generated_Source\PSoC5/USBUART.c ****             USBUART_ep1__TD_TERMOUT_EN,
 116:Generated_Source\PSoC5/USBUART.c ****             USBUART_ep2__TD_TERMOUT_EN,
 117:Generated_Source\PSoC5/USBUART.c ****             USBUART_ep3__TD_TERMOUT_EN,
 118:Generated_Source\PSoC5/USBUART.c ****             0u,
 119:Generated_Source\PSoC5/USBUART.c ****             0u,
 120:Generated_Source\PSoC5/USBUART.c ****             0u,
 121:Generated_Source\PSoC5/USBUART.c ****             0u,
 122:Generated_Source\PSoC5/USBUART.c ****             0u,
 123:Generated_Source\PSoC5/USBUART.c ****         };
 124:Generated_Source\PSoC5/USBUART.c **** 
 125:Generated_Source\PSoC5/USBUART.c ****         volatile uint16 USBUART_inLength[USBUART_MAX_EP];
 126:Generated_Source\PSoC5/USBUART.c ****         const uint8 *USBUART_inDataPointer[USBUART_MAX_EP];
 127:Generated_Source\PSoC5/USBUART.c ****         volatile uint8 USBUART_inBufFull[USBUART_MAX_EP];
 128:Generated_Source\PSoC5/USBUART.c ****     #endif /* (USBUART_EP_DMA_AUTO_OPT == 0u) */
 129:Generated_Source\PSoC5/USBUART.c **** #endif /* (CY_PSOC4) */
 130:Generated_Source\PSoC5/USBUART.c **** #endif /* (USBUART_EP_MANAGEMENT_DMA_AUTO) */
 131:Generated_Source\PSoC5/USBUART.c **** 
 132:Generated_Source\PSoC5/USBUART.c **** 
 133:Generated_Source\PSoC5/USBUART.c **** /*******************************************************************************
 134:Generated_Source\PSoC5/USBUART.c **** * Function Name: USBUART_Start
 135:Generated_Source\PSoC5/USBUART.c **** ****************************************************************************//**
 136:Generated_Source\PSoC5/USBUART.c **** *
 137:Generated_Source\PSoC5/USBUART.c **** *   This function performs all required initialization for the USBFS component.
 138:Generated_Source\PSoC5/USBUART.c **** *   After this function call, the USB device initiates communication with the
 139:Generated_Source\PSoC5/USBUART.c **** *   host by pull-up D+ line. This is the preferred method to begin component
 140:Generated_Source\PSoC5/USBUART.c **** *   operation.
 141:Generated_Source\PSoC5/USBUART.c **** *
 142:Generated_Source\PSoC5/USBUART.c **** *   Note that global interrupts have to be enabled because interrupts are
 143:Generated_Source\PSoC5/USBUART.c **** *   required for USBFS component operation.
 144:Generated_Source\PSoC5/USBUART.c **** *
ARM GAS  C:\Users\ingan\AppData\Local\Temp\ccMtFi7x.s 			page 4


 145:Generated_Source\PSoC5/USBUART.c **** *   PSoC 4200L devices: when USBFS component configured to DMA with Automatic
 146:Generated_Source\PSoC5/USBUART.c **** *   Buffer Management, the DMA interrupt priority is changed to the highest
 147:Generated_Source\PSoC5/USBUART.c **** *   (priority 0) inside this function.
 148:Generated_Source\PSoC5/USBUART.c **** *
 149:Generated_Source\PSoC5/USBUART.c **** *   PSoC 3/PSoC 5LP devices: when USBFS component configured to DMA with
 150:Generated_Source\PSoC5/USBUART.c **** *   Automatic Buffer Management, the Arbiter interrupt priority is changed to
 151:Generated_Source\PSoC5/USBUART.c **** *   the highest (priority 0) inside this function.
 152:Generated_Source\PSoC5/USBUART.c **** *
 153:Generated_Source\PSoC5/USBUART.c **** *  \param device
 154:Generated_Source\PSoC5/USBUART.c **** *          Contains the device number of the desired device descriptor.
 155:Generated_Source\PSoC5/USBUART.c **** *          The device number can be found in the Device Descriptor Tab of
 156:Generated_Source\PSoC5/USBUART.c **** *          "Configure" dialog, under the settings of desired Device Descriptor,
 157:Generated_Source\PSoC5/USBUART.c **** *          in the "Device Number" field.
 158:Generated_Source\PSoC5/USBUART.c **** *  \param mode:
 159:Generated_Source\PSoC5/USBUART.c **** *   The operating voltage. This determines whether the voltage regulator
 160:Generated_Source\PSoC5/USBUART.c **** *   is enabled for 5V operation or if pass through mode is used for 3.3V
 161:Generated_Source\PSoC5/USBUART.c **** *   operation. Symbolic names and their associated values are given in the
 162:Generated_Source\PSoC5/USBUART.c **** *   following list.
 163:Generated_Source\PSoC5/USBUART.c **** *
 164:Generated_Source\PSoC5/USBUART.c **** *       *USBUART_3V_OPERATION* - Disable voltage regulator and pass-
 165:Generated_Source\PSoC5/USBUART.c **** *                                      through Vcc for pull-up
 166:Generated_Source\PSoC5/USBUART.c **** *
 167:Generated_Source\PSoC5/USBUART.c **** *       *USBUART_5V_OPERATION* - Enable voltage regulator and use
 168:Generated_Source\PSoC5/USBUART.c **** *                                      regulator for pull-up
 169:Generated_Source\PSoC5/USBUART.c **** *
 170:Generated_Source\PSoC5/USBUART.c **** *       *USBUART_DWR_POWER_OPERATION* - Enable or disable the voltage
 171:Generated_Source\PSoC5/USBUART.c **** *                                      regulator depending on the power supply
 172:Generated_Source\PSoC5/USBUART.c **** *                                      voltage configuration in the DWR tab.
 173:Generated_Source\PSoC5/USBUART.c **** *                                      For PSoC 3/5LP devices, the VDDD supply
 174:Generated_Source\PSoC5/USBUART.c **** *                                      voltage is considered and for PSoC 4A-L,
 175:Generated_Source\PSoC5/USBUART.c **** *                                      the VBUS supply voltage is considered.*
 176:Generated_Source\PSoC5/USBUART.c **** * \globalvars
 177:Generated_Source\PSoC5/USBUART.c **** *  \ref USBUART_initVar
 178:Generated_Source\PSoC5/USBUART.c **** *
 179:Generated_Source\PSoC5/USBUART.c **** * \sideeffect
 180:Generated_Source\PSoC5/USBUART.c **** *   This function will reset all communication states to default.
 181:Generated_Source\PSoC5/USBUART.c **** *
 182:Generated_Source\PSoC5/USBUART.c **** * \reentrant
 183:Generated_Source\PSoC5/USBUART.c **** *  No.
 184:Generated_Source\PSoC5/USBUART.c **** *
 185:Generated_Source\PSoC5/USBUART.c **** *******************************************************************************/
 186:Generated_Source\PSoC5/USBUART.c **** void USBUART_Start(uint8 device, uint8 mode) 
 187:Generated_Source\PSoC5/USBUART.c **** {
 188:Generated_Source\PSoC5/USBUART.c ****     if (0u == USBUART_initVar)
 189:Generated_Source\PSoC5/USBUART.c ****     {
 190:Generated_Source\PSoC5/USBUART.c ****         USBUART_Init();
 191:Generated_Source\PSoC5/USBUART.c ****         USBUART_initVar = 1u;
 192:Generated_Source\PSoC5/USBUART.c ****     }
 193:Generated_Source\PSoC5/USBUART.c **** 
 194:Generated_Source\PSoC5/USBUART.c ****     USBUART_InitComponent(device, mode);
 195:Generated_Source\PSoC5/USBUART.c **** }
 196:Generated_Source\PSoC5/USBUART.c **** 
 197:Generated_Source\PSoC5/USBUART.c **** 
 198:Generated_Source\PSoC5/USBUART.c **** /*******************************************************************************
 199:Generated_Source\PSoC5/USBUART.c **** * Function Name: USBUART_Init
 200:Generated_Source\PSoC5/USBUART.c **** ****************************************************************************//**
 201:Generated_Source\PSoC5/USBUART.c **** *
ARM GAS  C:\Users\ingan\AppData\Local\Temp\ccMtFi7x.s 			page 5


 202:Generated_Source\PSoC5/USBUART.c **** * This function initializes or restores the component according to the
 203:Generated_Source\PSoC5/USBUART.c **** * customizer Configure dialog settings. It is not necessary to call
 204:Generated_Source\PSoC5/USBUART.c **** * USBUART_Init() because the USBUART_Start() routine calls
 205:Generated_Source\PSoC5/USBUART.c **** * this function and is the preferred method to begin component operation.
 206:Generated_Source\PSoC5/USBUART.c **** *
 207:Generated_Source\PSoC5/USBUART.c **** * \reentrant
 208:Generated_Source\PSoC5/USBUART.c **** *  No.
 209:Generated_Source\PSoC5/USBUART.c **** *
 210:Generated_Source\PSoC5/USBUART.c **** *******************************************************************************/
 211:Generated_Source\PSoC5/USBUART.c **** void USBUART_Init(void) 
 212:Generated_Source\PSoC5/USBUART.c **** {
  28              		.loc 1 212 0
  29              		.cfi_startproc
  30              		@ args = 0, pretend = 0, frame = 0
  31              		@ frame_needed = 0, uses_anonymous_args = 0
  32 0000 F8B5     		push	{r3, r4, r5, r6, r7, lr}
  33              		.cfi_def_cfa_offset 24
  34              		.cfi_offset 3, -24
  35              		.cfi_offset 4, -20
  36              		.cfi_offset 5, -16
  37              		.cfi_offset 6, -12
  38              		.cfi_offset 7, -8
  39              		.cfi_offset 14, -4
 213:Generated_Source\PSoC5/USBUART.c **** #if (CY_PSOC4)
 214:Generated_Source\PSoC5/USBUART.c ****     /* Enable clock to USB IP. */
 215:Generated_Source\PSoC5/USBUART.c ****     USBUART_USB_CLK_EN_REG = USBUART_USB_CLK_CSR_CLK_EN;
 216:Generated_Source\PSoC5/USBUART.c **** 
 217:Generated_Source\PSoC5/USBUART.c ****     /* The internal regulator (CR1.REG_ENABLE) is enabled in
 218:Generated_Source\PSoC5/USBUART.c ****     * USBUART_InitComponent() if it is required.
 219:Generated_Source\PSoC5/USBUART.c ****     */
 220:Generated_Source\PSoC5/USBUART.c **** 
 221:Generated_Source\PSoC5/USBUART.c ****     /* Enable USBIO control on drive mode of D+ and D- pins. */
 222:Generated_Source\PSoC5/USBUART.c ****     USBUART_USBIO_CR1_REG &= ~ (uint32) USBUART_USBIO_CR1_IOMODE;
 223:Generated_Source\PSoC5/USBUART.c **** 
 224:Generated_Source\PSoC5/USBUART.c ****     /* Set number of LF CLK to detect UBS bus reset. */
 225:Generated_Source\PSoC5/USBUART.c ****     USBUART_BUS_RST_CNT_REG = USBUART_DEFUALT_BUS_RST_CNT;
 226:Generated_Source\PSoC5/USBUART.c **** 
 227:Generated_Source\PSoC5/USBUART.c ****     /* Select VBUS detection source and clear PHY isolate. The application level
 228:Generated_Source\PSoC5/USBUART.c ****     * must ensure that VBUS is valid. There is no need to wait 2us before VBUS is valid.
 229:Generated_Source\PSoC5/USBUART.c ****     */
 230:Generated_Source\PSoC5/USBUART.c ****     USBUART_POWER_CTRL_REG = USBUART_DEFAULT_POWER_CTRL_VBUS;
 231:Generated_Source\PSoC5/USBUART.c **** 
 232:Generated_Source\PSoC5/USBUART.c ****     /* Enable PHY detector and single-ended and differential receivers. */
 233:Generated_Source\PSoC5/USBUART.c ****     USBUART_POWER_CTRL_REG |= USBUART_DEFAULT_POWER_CTRL_PHY;
 234:Generated_Source\PSoC5/USBUART.c **** 
 235:Generated_Source\PSoC5/USBUART.c ****     /* Suspend clear sequence. */
 236:Generated_Source\PSoC5/USBUART.c ****     USBUART_POWER_CTRL_REG &= (uint32) ~USBUART_POWER_CTRL_SUSPEND;
 237:Generated_Source\PSoC5/USBUART.c ****     CyDelayUs(USBUART_WAIT_SUSPEND_DEL_DISABLE);
 238:Generated_Source\PSoC5/USBUART.c ****     USBUART_POWER_CTRL_REG &= (uint32) ~USBUART_POWER_CTRL_SUSPEND_DEL;
 239:Generated_Source\PSoC5/USBUART.c **** 
 240:Generated_Source\PSoC5/USBUART.c ****     /* Sets IMO lock options and clear all other bits. */
 241:Generated_Source\PSoC5/USBUART.c ****     USBUART_CR1_REG = USBUART_DEFUALT_CR1;
 242:Generated_Source\PSoC5/USBUART.c **** 
 243:Generated_Source\PSoC5/USBUART.c ****     /* Configure level (hi, lo, med) for each interrupt source. */
 244:Generated_Source\PSoC5/USBUART.c ****     USBUART_INTR_LVL_SEL_REG = USBUART_DEFAULT_INTR_LVL_SEL;
 245:Generated_Source\PSoC5/USBUART.c **** 
 246:Generated_Source\PSoC5/USBUART.c ****     /* Configure interrupt sources from: SOF, Bus Reset and EP0. */
ARM GAS  C:\Users\ingan\AppData\Local\Temp\ccMtFi7x.s 			page 6


 247:Generated_Source\PSoC5/USBUART.c ****     USBUART_INTR_SIE_MASK_REG = USBUART_DEFAULT_INTR_SIE_MASK;
 248:Generated_Source\PSoC5/USBUART.c **** 
 249:Generated_Source\PSoC5/USBUART.c **** #else
 250:Generated_Source\PSoC5/USBUART.c ****     uint8 enableInterrupts = CyEnterCriticalSection();
  40              		.loc 1 250 0
  41 0002 FFF7FEFF 		bl	CyEnterCriticalSection
  42              	.LVL0:
  43 0006 0546     		mov	r5, r0
  44              	.LVL1:
 251:Generated_Source\PSoC5/USBUART.c **** 
 252:Generated_Source\PSoC5/USBUART.c **** #if (USBUART_EP_MANAGEMENT_DMA)
 253:Generated_Source\PSoC5/USBUART.c ****     uint16 i;
 254:Generated_Source\PSoC5/USBUART.c **** #endif /* (USBUART_EP_MANAGEMENT_DMA) */
 255:Generated_Source\PSoC5/USBUART.c **** 
 256:Generated_Source\PSoC5/USBUART.c ****     /* Enable USB block. */
 257:Generated_Source\PSoC5/USBUART.c ****     USBUART_PM_ACT_CFG_REG |= USBUART_PM_ACT_EN_FSUSB;
  45              		.loc 1 257 0
  46 0008 484A     		ldr	r2, .L5
  47 000a 1378     		ldrb	r3, [r2]	@ zero_extendqisi2
  48 000c 43F00103 		orr	r3, r3, #1
  49 0010 1370     		strb	r3, [r2]
 258:Generated_Source\PSoC5/USBUART.c ****     /* Enable USB block for Standby Power Mode. */
 259:Generated_Source\PSoC5/USBUART.c ****     USBUART_PM_STBY_CFG_REG |= USBUART_PM_STBY_EN_FSUSB;
  50              		.loc 1 259 0
  51 0012 1032     		adds	r2, r2, #16
  52 0014 1378     		ldrb	r3, [r2]	@ zero_extendqisi2
  53 0016 43F00103 		orr	r3, r3, #1
  54 001a 1370     		strb	r3, [r2]
 260:Generated_Source\PSoC5/USBUART.c **** 
 261:Generated_Source\PSoC5/USBUART.c ****     /* Enable core clock. */
 262:Generated_Source\PSoC5/USBUART.c ****     USBUART_USB_CLK_EN_REG = USBUART_USB_CLK_ENABLE;
  55              		.loc 1 262 0
  56 001c 0127     		movs	r7, #1
  57 001e 444B     		ldr	r3, .L5+4
  58 0020 1F70     		strb	r7, [r3]
 263:Generated_Source\PSoC5/USBUART.c **** 
 264:Generated_Source\PSoC5/USBUART.c ****     USBUART_CR1_REG = USBUART_CR1_ENABLE_LOCK;
  59              		.loc 1 264 0
  60 0022 0226     		movs	r6, #2
  61 0024 943B     		subs	r3, r3, #148
  62 0026 1E70     		strb	r6, [r3]
 265:Generated_Source\PSoC5/USBUART.c **** 
 266:Generated_Source\PSoC5/USBUART.c ****     /* ENABLING USBIO PADS IN USB MODE FROM I/O MODE. */
 267:Generated_Source\PSoC5/USBUART.c ****     /* Ensure USB transmit enable is low (USB_USBIO_CR0.ten). - Manual Transmission - Disabled. */
 268:Generated_Source\PSoC5/USBUART.c ****     USBUART_USBIO_CR0_REG &= (uint8) ~USBUART_USBIO_CR0_TEN;
  63              		.loc 1 268 0
  64 0028 02F5E252 		add	r2, r2, #7232
  65 002c 1B32     		adds	r2, r2, #27
  66 002e 1378     		ldrb	r3, [r2]	@ zero_extendqisi2
  67 0030 03F07F03 		and	r3, r3, #127
  68 0034 1370     		strb	r3, [r2]
 269:Generated_Source\PSoC5/USBUART.c ****     CyDelayUs(USBUART_WAIT_REG_STABILITY_50NS);  /* ~50ns delay. */
  69              		.loc 1 269 0
  70 0036 0020     		movs	r0, #0
  71 0038 FFF7FEFF 		bl	CyDelayUs
  72              	.LVL2:
 270:Generated_Source\PSoC5/USBUART.c ****     /* Disable USBIO by asserting PM.USB_CR0.fsusbio_pd_n(Inverted.
ARM GAS  C:\Users\ingan\AppData\Local\Temp\ccMtFi7x.s 			page 7


 271:Generated_Source\PSoC5/USBUART.c ****     *  high. These bits will be set low by the power manager out-of-reset.
 272:Generated_Source\PSoC5/USBUART.c ****     *  Also confirm USBIO pull-up is disabled.
 273:Generated_Source\PSoC5/USBUART.c ****     */
 274:Generated_Source\PSoC5/USBUART.c ****     USBUART_PM_USB_CR0_REG &= (uint8) ~(USBUART_PM_USB_CR0_PD_N |
  73              		.loc 1 274 0
  74 003c 3D4C     		ldr	r4, .L5+8
  75 003e 2378     		ldrb	r3, [r4]	@ zero_extendqisi2
  76 0040 03F0F903 		and	r3, r3, #249
  77 0044 2370     		strb	r3, [r4]
 275:Generated_Source\PSoC5/USBUART.c ****                                                  USBUART_PM_USB_CR0_PD_PULLUP_N);
 276:Generated_Source\PSoC5/USBUART.c **** 
 277:Generated_Source\PSoC5/USBUART.c ****     /* Select IOMODE to USB mode. */
 278:Generated_Source\PSoC5/USBUART.c ****     USBUART_USBIO_CR1_REG &= (uint8) ~USBUART_USBIO_CR1_IOMODE;
  78              		.loc 1 278 0
  79 0046 3C4A     		ldr	r2, .L5+12
  80 0048 1378     		ldrb	r3, [r2]	@ zero_extendqisi2
  81 004a 03F0DF03 		and	r3, r3, #223
  82 004e 1370     		strb	r3, [r2]
 279:Generated_Source\PSoC5/USBUART.c **** 
 280:Generated_Source\PSoC5/USBUART.c ****     /* Enable USBIO reference by setting PM.USB_CR0.fsusbio_ref_en. */
 281:Generated_Source\PSoC5/USBUART.c ****     USBUART_PM_USB_CR0_REG |= USBUART_PM_USB_CR0_REF_EN;
  83              		.loc 1 281 0
  84 0050 2378     		ldrb	r3, [r4]	@ zero_extendqisi2
  85 0052 3B43     		orrs	r3, r3, r7
  86 0054 2370     		strb	r3, [r4]
 282:Generated_Source\PSoC5/USBUART.c ****     /* Reference is available for 1us after regulator is enabled. */
 283:Generated_Source\PSoC5/USBUART.c ****     CyDelayUs(USBUART_WAIT_REG_STABILITY_1US);
  87              		.loc 1 283 0
  88 0056 3846     		mov	r0, r7
  89 0058 FFF7FEFF 		bl	CyDelayUs
  90              	.LVL3:
 284:Generated_Source\PSoC5/USBUART.c ****     /* OR 40us after power is restored. */
 285:Generated_Source\PSoC5/USBUART.c ****     CyDelayUs(USBUART_WAIT_VREF_RESTORE);
  91              		.loc 1 285 0
  92 005c 2820     		movs	r0, #40
  93 005e FFF7FEFF 		bl	CyDelayUs
  94              	.LVL4:
 286:Generated_Source\PSoC5/USBUART.c ****     /* Ensure single-ended disable bits are low (PRT15.INP_DIS[7:6])(input receiver enabled). */
 287:Generated_Source\PSoC5/USBUART.c ****     USBUART_DM_INP_DIS_REG &= (uint8) ~USBUART_DM_MASK;
  95              		.loc 1 287 0
  96 0062 364B     		ldr	r3, .L5+16
  97 0064 1A78     		ldrb	r2, [r3]	@ zero_extendqisi2
  98 0066 02F07F02 		and	r2, r2, #127
  99 006a 1A70     		strb	r2, [r3]
 288:Generated_Source\PSoC5/USBUART.c ****     USBUART_DP_INP_DIS_REG &= (uint8) ~USBUART_DP_MASK;
 100              		.loc 1 288 0
 101 006c 1A78     		ldrb	r2, [r3]	@ zero_extendqisi2
 102 006e 02F0BF02 		and	r2, r2, #191
 103 0072 1A70     		strb	r2, [r3]
 289:Generated_Source\PSoC5/USBUART.c **** 
 290:Generated_Source\PSoC5/USBUART.c ****     /* Enable USBIO. */
 291:Generated_Source\PSoC5/USBUART.c ****     USBUART_PM_USB_CR0_REG |= USBUART_PM_USB_CR0_PD_N;
 104              		.loc 1 291 0
 105 0074 2378     		ldrb	r3, [r4]	@ zero_extendqisi2
 106 0076 3343     		orrs	r3, r3, r6
 107 0078 2370     		strb	r3, [r4]
 292:Generated_Source\PSoC5/USBUART.c ****     CyDelayUs(USBUART_WAIT_PD_PULLUP_N_ENABLE);
ARM GAS  C:\Users\ingan\AppData\Local\Temp\ccMtFi7x.s 			page 8


 108              		.loc 1 292 0
 109 007a 3046     		mov	r0, r6
 110 007c FFF7FEFF 		bl	CyDelayUs
 111              	.LVL5:
 293:Generated_Source\PSoC5/USBUART.c ****     /* Set USBIO pull-up enable. */
 294:Generated_Source\PSoC5/USBUART.c ****     USBUART_PM_USB_CR0_REG |= USBUART_PM_USB_CR0_PD_PULLUP_N;
 112              		.loc 1 294 0
 113 0080 2378     		ldrb	r3, [r4]	@ zero_extendqisi2
 114 0082 43F00403 		orr	r3, r3, #4
 115 0086 2370     		strb	r3, [r4]
 295:Generated_Source\PSoC5/USBUART.c **** 
 296:Generated_Source\PSoC5/USBUART.c ****     /* Reset Arbiter Write Address register for endpoint 1. */
 297:Generated_Source\PSoC5/USBUART.c ****     CY_SET_REG8(USBUART_ARB_RW1_WA_PTR,     0u);
 116              		.loc 1 297 0
 117 0088 0023     		movs	r3, #0
 118 008a 2D4A     		ldr	r2, .L5+20
 119 008c 1370     		strb	r3, [r2]
 298:Generated_Source\PSoC5/USBUART.c ****     CY_SET_REG8(USBUART_ARB_RW1_WA_MSB_PTR, 0u);
 120              		.loc 1 298 0
 121 008e 0132     		adds	r2, r2, #1
 122 0090 1370     		strb	r3, [r2]
 123              	.LVL6:
 299:Generated_Source\PSoC5/USBUART.c **** 
 300:Generated_Source\PSoC5/USBUART.c **** #if (USBUART_EP_MANAGEMENT_DMA)
 301:Generated_Source\PSoC5/USBUART.c ****     /* Initialize transfer descriptor. This will be used to detect DMA state - initialized or not. 
 302:Generated_Source\PSoC5/USBUART.c ****     for (i = 0u; i < USBUART_MAX_EP; ++i)
 124              		.loc 1 302 0
 125 0092 04E0     		b	.L2
 126              	.LVL7:
 127              	.L3:
 303:Generated_Source\PSoC5/USBUART.c ****     {
 304:Generated_Source\PSoC5/USBUART.c ****         USBUART_DmaTd[i] = DMA_INVALID_TD;
 128              		.loc 1 304 0 discriminator 3
 129 0094 FF21     		movs	r1, #255
 130 0096 2B4A     		ldr	r2, .L5+24
 131 0098 D154     		strb	r1, [r2, r3]
 302:Generated_Source\PSoC5/USBUART.c ****     {
 132              		.loc 1 302 0 discriminator 3
 133 009a 0133     		adds	r3, r3, #1
 134              	.LVL8:
 135 009c 9BB2     		uxth	r3, r3
 136              	.LVL9:
 137              	.L2:
 302:Generated_Source\PSoC5/USBUART.c ****     {
 138              		.loc 1 302 0 is_stmt 0 discriminator 1
 139 009e 082B     		cmp	r3, #8
 140 00a0 F8D9     		bls	.L3
 305:Generated_Source\PSoC5/USBUART.c **** 
 306:Generated_Source\PSoC5/USBUART.c ****     #if (USBUART_EP_MANAGEMENT_DMA_AUTO && (USBUART_EP_DMA_AUTO_OPT == 0u))
 307:Generated_Source\PSoC5/USBUART.c ****         USBUART_DmaNextTd[i] = DMA_INVALID_TD;
 308:Generated_Source\PSoC5/USBUART.c ****     #endif /* (USBUART_EP_MANAGEMENT_DMA_AUTO && (USBUART_EP_DMA_AUTO_OPT == 0u)) */
 309:Generated_Source\PSoC5/USBUART.c ****     }
 310:Generated_Source\PSoC5/USBUART.c **** #endif /* (USBUART_EP_MANAGEMENT_DMA) */
 311:Generated_Source\PSoC5/USBUART.c **** 
 312:Generated_Source\PSoC5/USBUART.c ****     CyExitCriticalSection(enableInterrupts);
 141              		.loc 1 312 0 is_stmt 1
 142 00a2 2846     		mov	r0, r5
ARM GAS  C:\Users\ingan\AppData\Local\Temp\ccMtFi7x.s 			page 9


 143 00a4 FFF7FEFF 		bl	CyExitCriticalSection
 144              	.LVL10:
 313:Generated_Source\PSoC5/USBUART.c **** #endif /* (CY_PSOC4) */
 314:Generated_Source\PSoC5/USBUART.c **** 
 315:Generated_Source\PSoC5/USBUART.c ****     /* Configure interrupts from USB block. */
 316:Generated_Source\PSoC5/USBUART.c **** #if (CY_PSOC4)
 317:Generated_Source\PSoC5/USBUART.c ****     /* Configure hi_int: set handler and priority. */
 318:Generated_Source\PSoC5/USBUART.c ****     CyIntSetPriority     (USBUART_INTR_HI_VECT_NUM,  USBUART_INTR_HI_PRIORITY);
 319:Generated_Source\PSoC5/USBUART.c ****     (void) CyIntSetVector(USBUART_INTR_HI_VECT_NUM, &USBUART_INTR_HI_ISR);
 320:Generated_Source\PSoC5/USBUART.c **** 
 321:Generated_Source\PSoC5/USBUART.c ****     /* Configure lo_int: set handler and priority. */
 322:Generated_Source\PSoC5/USBUART.c ****     CyIntSetPriority     (USBUART_INTR_LO_VECT_NUM,  USBUART_INTR_LO_PRIORITY);
 323:Generated_Source\PSoC5/USBUART.c ****     (void) CyIntSetVector(USBUART_INTR_LO_VECT_NUM, &USBUART_INTR_LO_ISR);
 324:Generated_Source\PSoC5/USBUART.c **** 
 325:Generated_Source\PSoC5/USBUART.c ****     /* Configure med_int: set handler and priority (routed through DSI). */
 326:Generated_Source\PSoC5/USBUART.c ****     CyIntSetPriority     (USBUART_INTR_MED_VECT_NUM,  USBUART_INTR_MED_PRIORITY);
 327:Generated_Source\PSoC5/USBUART.c ****     (void) CyIntSetVector(USBUART_INTR_MED_VECT_NUM, &USBUART_INTR_MED_ISR);
 328:Generated_Source\PSoC5/USBUART.c **** 
 329:Generated_Source\PSoC5/USBUART.c **** #else
 330:Generated_Source\PSoC5/USBUART.c ****     /* Set bus reset interrupt. */
 331:Generated_Source\PSoC5/USBUART.c ****     CyIntSetPriority(USBUART_BUS_RESET_VECT_NUM, USBUART_BUS_RESET_PRIOR);
 145              		.loc 1 331 0
 146 00a8 0721     		movs	r1, #7
 147 00aa 1720     		movs	r0, #23
 148 00ac FFF7FEFF 		bl	CyIntSetPriority
 149              	.LVL11:
 332:Generated_Source\PSoC5/USBUART.c ****     (void) CyIntSetVector(USBUART_BUS_RESET_VECT_NUM,   &USBUART_BUS_RESET_ISR);
 150              		.loc 1 332 0
 151 00b0 2549     		ldr	r1, .L5+28
 152 00b2 1720     		movs	r0, #23
 153 00b4 FFF7FEFF 		bl	CyIntSetVector
 154              	.LVL12:
 333:Generated_Source\PSoC5/USBUART.c **** 
 334:Generated_Source\PSoC5/USBUART.c ****     /* Set Control Endpoint Interrupt. */
 335:Generated_Source\PSoC5/USBUART.c ****     CyIntSetPriority(USBUART_EP_0_VECT_NUM, USBUART_EP_0_PRIOR);
 155              		.loc 1 335 0
 156 00b8 0721     		movs	r1, #7
 157 00ba 1820     		movs	r0, #24
 158 00bc FFF7FEFF 		bl	CyIntSetPriority
 159              	.LVL13:
 336:Generated_Source\PSoC5/USBUART.c ****     (void) CyIntSetVector(USBUART_EP_0_VECT_NUM,   &USBUART_EP_0_ISR);
 160              		.loc 1 336 0
 161 00c0 2249     		ldr	r1, .L5+32
 162 00c2 1820     		movs	r0, #24
 163 00c4 FFF7FEFF 		bl	CyIntSetVector
 164              	.LVL14:
 337:Generated_Source\PSoC5/USBUART.c **** 
 338:Generated_Source\PSoC5/USBUART.c ****     /* Set SOF interrupt. */
 339:Generated_Source\PSoC5/USBUART.c ****     #if (USBUART_SOF_ISR_ACTIVE)
 340:Generated_Source\PSoC5/USBUART.c ****         CyIntSetPriority     (USBUART_SOF_VECT_NUM,  USBUART_SOF_PRIOR);
 165              		.loc 1 340 0
 166 00c8 0721     		movs	r1, #7
 167 00ca 1520     		movs	r0, #21
 168 00cc FFF7FEFF 		bl	CyIntSetPriority
 169              	.LVL15:
 341:Generated_Source\PSoC5/USBUART.c ****         (void) CyIntSetVector(USBUART_SOF_VECT_NUM, &USBUART_SOF_ISR);
 170              		.loc 1 341 0
ARM GAS  C:\Users\ingan\AppData\Local\Temp\ccMtFi7x.s 			page 10


 171 00d0 1F49     		ldr	r1, .L5+36
 172 00d2 1520     		movs	r0, #21
 173 00d4 FFF7FEFF 		bl	CyIntSetVector
 174              	.LVL16:
 342:Generated_Source\PSoC5/USBUART.c ****     #endif /* (USBUART_SOF_ISR_ACTIVE) */
 343:Generated_Source\PSoC5/USBUART.c **** 
 344:Generated_Source\PSoC5/USBUART.c ****     /* Set Data Endpoint 1 Interrupt. */
 345:Generated_Source\PSoC5/USBUART.c ****     #if (USBUART_EP1_ISR_ACTIVE)
 346:Generated_Source\PSoC5/USBUART.c ****         CyIntSetPriority     (USBUART_EP_1_VECT_NUM,  USBUART_EP_1_PRIOR);
 175              		.loc 1 346 0
 176 00d8 0721     		movs	r1, #7
 177 00da 0020     		movs	r0, #0
 178 00dc FFF7FEFF 		bl	CyIntSetPriority
 179              	.LVL17:
 347:Generated_Source\PSoC5/USBUART.c ****         (void) CyIntSetVector(USBUART_EP_1_VECT_NUM,  &USBUART_EP_1_ISR);
 180              		.loc 1 347 0
 181 00e0 1C49     		ldr	r1, .L5+40
 182 00e2 0020     		movs	r0, #0
 183 00e4 FFF7FEFF 		bl	CyIntSetVector
 184              	.LVL18:
 348:Generated_Source\PSoC5/USBUART.c ****     #endif /* (USBUART_EP1_ISR_ACTIVE) */
 349:Generated_Source\PSoC5/USBUART.c **** 
 350:Generated_Source\PSoC5/USBUART.c ****     /* Set Data Endpoint 2 Interrupt. */
 351:Generated_Source\PSoC5/USBUART.c ****     #if (USBUART_EP2_ISR_ACTIVE)
 352:Generated_Source\PSoC5/USBUART.c ****         CyIntSetPriority     (USBUART_EP_2_VECT_NUM,  USBUART_EP_2_PRIOR);
 185              		.loc 1 352 0
 186 00e8 0721     		movs	r1, #7
 187 00ea 0120     		movs	r0, #1
 188 00ec FFF7FEFF 		bl	CyIntSetPriority
 189              	.LVL19:
 353:Generated_Source\PSoC5/USBUART.c ****         (void) CyIntSetVector(USBUART_EP_2_VECT_NUM, &USBUART_EP_2_ISR);
 190              		.loc 1 353 0
 191 00f0 1949     		ldr	r1, .L5+44
 192 00f2 0120     		movs	r0, #1
 193 00f4 FFF7FEFF 		bl	CyIntSetVector
 194              	.LVL20:
 354:Generated_Source\PSoC5/USBUART.c ****     #endif /* (USBUART_EP2_ISR_ACTIVE) */
 355:Generated_Source\PSoC5/USBUART.c **** 
 356:Generated_Source\PSoC5/USBUART.c ****     /* Set Data Endpoint 3 Interrupt. */
 357:Generated_Source\PSoC5/USBUART.c ****     #if (USBUART_EP3_ISR_ACTIVE)
 358:Generated_Source\PSoC5/USBUART.c ****         CyIntSetPriority     (USBUART_EP_3_VECT_NUM,  USBUART_EP_3_PRIOR);
 195              		.loc 1 358 0
 196 00f8 0721     		movs	r1, #7
 197 00fa 0220     		movs	r0, #2
 198 00fc FFF7FEFF 		bl	CyIntSetPriority
 199              	.LVL21:
 359:Generated_Source\PSoC5/USBUART.c ****         (void) CyIntSetVector(USBUART_EP_3_VECT_NUM, &USBUART_EP_3_ISR);
 200              		.loc 1 359 0
 201 0100 1649     		ldr	r1, .L5+48
 202 0102 0220     		movs	r0, #2
 203 0104 FFF7FEFF 		bl	CyIntSetVector
 204              	.LVL22:
 360:Generated_Source\PSoC5/USBUART.c ****     #endif /* (USBUART_EP3_ISR_ACTIVE) */
 361:Generated_Source\PSoC5/USBUART.c **** 
 362:Generated_Source\PSoC5/USBUART.c ****     /* Set Data Endpoint 4 Interrupt. */
 363:Generated_Source\PSoC5/USBUART.c ****     #if (USBUART_EP4_ISR_ACTIVE)
 364:Generated_Source\PSoC5/USBUART.c ****         CyIntSetPriority     (USBUART_EP_4_VECT_NUM,  USBUART_EP_4_PRIOR);
ARM GAS  C:\Users\ingan\AppData\Local\Temp\ccMtFi7x.s 			page 11


 365:Generated_Source\PSoC5/USBUART.c ****         (void) CyIntSetVector(USBUART_EP_4_VECT_NUM, &USBUART_EP_4_ISR);
 366:Generated_Source\PSoC5/USBUART.c ****     #endif /* (USBUART_EP4_ISR_ACTIVE) */
 367:Generated_Source\PSoC5/USBUART.c **** 
 368:Generated_Source\PSoC5/USBUART.c ****     /* Set Data Endpoint 5 Interrupt. */
 369:Generated_Source\PSoC5/USBUART.c ****     #if (USBUART_EP5_ISR_ACTIVE)
 370:Generated_Source\PSoC5/USBUART.c ****         CyIntSetPriority     (USBUART_EP_5_VECT_NUM,  USBUART_EP_5_PRIOR);
 371:Generated_Source\PSoC5/USBUART.c ****         (void) CyIntSetVector(USBUART_EP_5_VECT_NUM, &USBUART_EP_5_ISR);
 372:Generated_Source\PSoC5/USBUART.c ****     #endif /* (USBUART_EP5_ISR_ACTIVE) */
 373:Generated_Source\PSoC5/USBUART.c **** 
 374:Generated_Source\PSoC5/USBUART.c ****     /* Set Data Endpoint 6 Interrupt. */
 375:Generated_Source\PSoC5/USBUART.c ****     #if (USBUART_EP6_ISR_ACTIVE)
 376:Generated_Source\PSoC5/USBUART.c ****         CyIntSetPriority     (USBUART_EP_6_VECT_NUM,  USBUART_EP_6_PRIOR);
 377:Generated_Source\PSoC5/USBUART.c ****         (void) CyIntSetVector(USBUART_EP_6_VECT_NUM, &USBUART_EP_6_ISR);
 378:Generated_Source\PSoC5/USBUART.c ****     #endif /* (USBUART_EP6_ISR_ACTIVE) */
 379:Generated_Source\PSoC5/USBUART.c **** 
 380:Generated_Source\PSoC5/USBUART.c ****      /* Set Data Endpoint 7 Interrupt. */
 381:Generated_Source\PSoC5/USBUART.c ****     #if (USBUART_EP7_ISR_ACTIVE)
 382:Generated_Source\PSoC5/USBUART.c ****         CyIntSetPriority     (USBUART_EP_7_VECT_NUM,  USBUART_EP_7_PRIOR);
 383:Generated_Source\PSoC5/USBUART.c ****         (void) CyIntSetVector(USBUART_EP_7_VECT_NUM, &USBUART_EP_7_ISR);
 384:Generated_Source\PSoC5/USBUART.c ****     #endif /* (USBUART_EP7_ISR_ACTIVE) */
 385:Generated_Source\PSoC5/USBUART.c **** 
 386:Generated_Source\PSoC5/USBUART.c ****     /* Set Data Endpoint 8 Interrupt. */
 387:Generated_Source\PSoC5/USBUART.c ****     #if (USBUART_EP8_ISR_ACTIVE)
 388:Generated_Source\PSoC5/USBUART.c ****         CyIntSetPriority     (USBUART_EP_8_VECT_NUM,  USBUART_EP_8_PRIOR);
 389:Generated_Source\PSoC5/USBUART.c ****         (void) CyIntSetVector(USBUART_EP_8_VECT_NUM, &USBUART_EP_8_ISR);
 390:Generated_Source\PSoC5/USBUART.c ****     #endif /* (USBUART_EP8_ISR_ACTIVE) */
 391:Generated_Source\PSoC5/USBUART.c **** 
 392:Generated_Source\PSoC5/USBUART.c ****     /* Set ARB Interrupt. */
 393:Generated_Source\PSoC5/USBUART.c ****     #if (USBUART_EP_MANAGEMENT_DMA && USBUART_ARB_ISR_ACTIVE)
 394:Generated_Source\PSoC5/USBUART.c ****         CyIntSetPriority     (USBUART_ARB_VECT_NUM,  USBUART_ARB_PRIOR);
 205              		.loc 1 394 0
 206 0108 0021     		movs	r1, #0
 207 010a 1620     		movs	r0, #22
 208 010c FFF7FEFF 		bl	CyIntSetPriority
 209              	.LVL23:
 395:Generated_Source\PSoC5/USBUART.c ****         (void) CyIntSetVector(USBUART_ARB_VECT_NUM, &USBUART_ARB_ISR);
 210              		.loc 1 395 0
 211 0110 1349     		ldr	r1, .L5+52
 212 0112 1620     		movs	r0, #22
 213 0114 FFF7FEFF 		bl	CyIntSetVector
 214              	.LVL24:
 396:Generated_Source\PSoC5/USBUART.c ****     #endif /* (USBUART_EP_MANAGEMENT_DMA && USBUART_ARB_ISR_ACTIVE) */
 397:Generated_Source\PSoC5/USBUART.c **** #endif /* (CY_PSOC4) */
 398:Generated_Source\PSoC5/USBUART.c **** 
 399:Generated_Source\PSoC5/USBUART.c ****     /* Common: Configure GPIO interrupt for wakeup. */
 400:Generated_Source\PSoC5/USBUART.c **** #if (USBUART_DP_ISR_ACTIVE)
 401:Generated_Source\PSoC5/USBUART.c ****     CyIntSetPriority     (USBUART_DP_INTC_VECT_NUM,  USBUART_DP_INTC_PRIORITY);
 215              		.loc 1 401 0
 216 0118 0721     		movs	r1, #7
 217 011a 0C20     		movs	r0, #12
 218 011c FFF7FEFF 		bl	CyIntSetPriority
 219              	.LVL25:
 402:Generated_Source\PSoC5/USBUART.c ****     (void) CyIntSetVector(USBUART_DP_INTC_VECT_NUM, &USBUART_DP_ISR);
 220              		.loc 1 402 0
 221 0120 1049     		ldr	r1, .L5+56
 222 0122 0C20     		movs	r0, #12
 223 0124 FFF7FEFF 		bl	CyIntSetVector
ARM GAS  C:\Users\ingan\AppData\Local\Temp\ccMtFi7x.s 			page 12


 224              	.LVL26:
 225 0128 F8BD     		pop	{r3, r4, r5, r6, r7, pc}
 226              	.LVL27:
 227              	.L6:
 228 012a 00BF     		.align	2
 229              	.L5:
 230 012c A5430040 		.word	1073759141
 231 0130 9D600040 		.word	1073766557
 232 0134 94430040 		.word	1073759124
 233 0138 12600040 		.word	1073766418
 234 013c F8510040 		.word	1073762808
 235 0140 84600040 		.word	1073766532
 236 0144 00000000 		.word	USBUART_DmaTd
 237 0148 00000000 		.word	USBUART_BUS_RESET_ISR
 238 014c 00000000 		.word	USBUART_EP_0_ISR
 239 0150 00000000 		.word	USBUART_SOF_ISR
 240 0154 00000000 		.word	USBUART_EP_1_ISR
 241 0158 00000000 		.word	USBUART_EP_2_ISR
 242 015c 00000000 		.word	USBUART_EP_3_ISR
 243 0160 00000000 		.word	USBUART_ARB_ISR
 244 0164 00000000 		.word	USBUART_DP_ISR
 245              		.cfi_endproc
 246              	.LFE1:
 247              		.size	USBUART_Init, .-USBUART_Init
 248              		.section	.text.USBUART_InitComponent,"ax",%progbits
 249              		.align	2
 250              		.global	USBUART_InitComponent
 251              		.thumb
 252              		.thumb_func
 253              		.type	USBUART_InitComponent, %function
 254              	USBUART_InitComponent:
 255              	.LFB2:
 403:Generated_Source\PSoC5/USBUART.c **** #endif /* (USBUART_DP_ISR_ACTIVE) */
 404:Generated_Source\PSoC5/USBUART.c **** 
 405:Generated_Source\PSoC5/USBUART.c **** #if (USBUART_EP_MANAGEMENT_DMA && CY_PSOC4)
 406:Generated_Source\PSoC5/USBUART.c ****     /* Initialize DMA channels. */
 407:Generated_Source\PSoC5/USBUART.c ****     USBUART_InitEpDma();
 408:Generated_Source\PSoC5/USBUART.c **** #endif /* (USBUART_EP_MANAGEMENT_DMA && CY_PSOC4) */
 409:Generated_Source\PSoC5/USBUART.c **** }
 410:Generated_Source\PSoC5/USBUART.c **** 
 411:Generated_Source\PSoC5/USBUART.c **** 
 412:Generated_Source\PSoC5/USBUART.c **** /*******************************************************************************
 413:Generated_Source\PSoC5/USBUART.c **** * Function Name: USBUART_InitComponent
 414:Generated_Source\PSoC5/USBUART.c **** ****************************************************************************//**
 415:Generated_Source\PSoC5/USBUART.c **** *
 416:Generated_Source\PSoC5/USBUART.c **** *   This function initializes the component’s global variables and initiates
 417:Generated_Source\PSoC5/USBUART.c **** *   communication with the host by pull-up D+ line.
 418:Generated_Source\PSoC5/USBUART.c **** *
 419:Generated_Source\PSoC5/USBUART.c **** * \param device:
 420:Generated_Source\PSoC5/USBUART.c **** *   Contains the device number of the desired device descriptor. The device
 421:Generated_Source\PSoC5/USBUART.c **** *   number can be found in the Device Descriptor Tab of "Configure" dialog,
 422:Generated_Source\PSoC5/USBUART.c **** *   under the settings of desired Device Descriptor, in the *Device Number*
 423:Generated_Source\PSoC5/USBUART.c **** *   field.
 424:Generated_Source\PSoC5/USBUART.c **** *  \param mode:
 425:Generated_Source\PSoC5/USBUART.c **** *   The operating voltage. This determines whether the voltage regulator
 426:Generated_Source\PSoC5/USBUART.c **** *   is enabled for 5V operation or if pass through mode is used for 3.3V
 427:Generated_Source\PSoC5/USBUART.c **** *   operation. Symbolic names and their associated values are given in the
ARM GAS  C:\Users\ingan\AppData\Local\Temp\ccMtFi7x.s 			page 13


 428:Generated_Source\PSoC5/USBUART.c **** *   following list.
 429:Generated_Source\PSoC5/USBUART.c **** *
 430:Generated_Source\PSoC5/USBUART.c **** *       *USBUART_3V_OPERATION* - Disable voltage regulator and pass-
 431:Generated_Source\PSoC5/USBUART.c **** *                                      through Vcc for pull-up
 432:Generated_Source\PSoC5/USBUART.c **** *
 433:Generated_Source\PSoC5/USBUART.c **** *       *USBUART_5V_OPERATION* - Enable voltage regulator and use
 434:Generated_Source\PSoC5/USBUART.c **** *                                      regulator for pull-up
 435:Generated_Source\PSoC5/USBUART.c **** *
 436:Generated_Source\PSoC5/USBUART.c **** *       *USBUART_DWR_POWER_OPERATION* - Enable or disable the voltage
 437:Generated_Source\PSoC5/USBUART.c **** *                                      regulator depending on the power supply
 438:Generated_Source\PSoC5/USBUART.c **** *                                      voltage configuration in the DWR tab.
 439:Generated_Source\PSoC5/USBUART.c **** *                                      For PSoC 3/5LP devices, the VDDD supply
 440:Generated_Source\PSoC5/USBUART.c **** *                                      voltage is considered and for PSoC 4A-L,
 441:Generated_Source\PSoC5/USBUART.c **** *                                      the VBUS supply voltage is considered.
 442:Generated_Source\PSoC5/USBUART.c **** *
 443:Generated_Source\PSoC5/USBUART.c **** * \globalvars
 444:Generated_Source\PSoC5/USBUART.c **** *   \ref USBUART_device
 445:Generated_Source\PSoC5/USBUART.c **** *   \ref USBUART_transferState
 446:Generated_Source\PSoC5/USBUART.c **** *   \ref USBUART_configuration
 447:Generated_Source\PSoC5/USBUART.c **** *   \ref USBUART_deviceStatus
 448:Generated_Source\PSoC5/USBUART.c **** *
 449:Generated_Source\PSoC5/USBUART.c **** *   \ref USBUART_deviceAddress - Contains the current device address. This
 450:Generated_Source\PSoC5/USBUART.c **** *       variable is initialized to zero in this API. The Host starts to communicate
 451:Generated_Source\PSoC5/USBUART.c **** *      to the device with address 0 and then sets it to a whatever value using a
 452:Generated_Source\PSoC5/USBUART.c **** *      SET_ADDRESS request.
 453:Generated_Source\PSoC5/USBUART.c **** *
 454:Generated_Source\PSoC5/USBUART.c **** *   \ref USBUART_lastPacketSize - Initialized to 0;
 455:Generated_Source\PSoC5/USBUART.c **** *
 456:Generated_Source\PSoC5/USBUART.c **** * \reentrant
 457:Generated_Source\PSoC5/USBUART.c **** *  No.
 458:Generated_Source\PSoC5/USBUART.c **** *
 459:Generated_Source\PSoC5/USBUART.c **** *******************************************************************************/
 460:Generated_Source\PSoC5/USBUART.c **** void USBUART_InitComponent(uint8 device, uint8 mode) 
 461:Generated_Source\PSoC5/USBUART.c **** {
 256              		.loc 1 461 0
 257              		.cfi_startproc
 258              		@ args = 0, pretend = 0, frame = 0
 259              		@ frame_needed = 0, uses_anonymous_args = 0
 260              	.LVL28:
 261 0000 08B5     		push	{r3, lr}
 262              		.cfi_def_cfa_offset 8
 263              		.cfi_offset 3, -8
 264              		.cfi_offset 14, -4
 462:Generated_Source\PSoC5/USBUART.c ****     /* Initialize _hidProtocol variable to comply with
 463:Generated_Source\PSoC5/USBUART.c ****     *  HID 7.2.6 Set_Protocol Request:
 464:Generated_Source\PSoC5/USBUART.c ****     *  "When initialized, all devices default to report protocol."
 465:Generated_Source\PSoC5/USBUART.c ****     */
 466:Generated_Source\PSoC5/USBUART.c **** #if defined(USBUART_ENABLE_HID_CLASS)
 467:Generated_Source\PSoC5/USBUART.c ****     uint8 i;
 468:Generated_Source\PSoC5/USBUART.c **** 
 469:Generated_Source\PSoC5/USBUART.c ****     for (i = 0u; i < USBUART_MAX_INTERFACES_NUMBER; i++)
 470:Generated_Source\PSoC5/USBUART.c ****     {
 471:Generated_Source\PSoC5/USBUART.c ****         USBUART_hidProtocol[i] = USBUART_PROTOCOL_REPORT;
 472:Generated_Source\PSoC5/USBUART.c ****     }
 473:Generated_Source\PSoC5/USBUART.c **** #endif /* USBUART_ENABLE_HID_CLASS */
 474:Generated_Source\PSoC5/USBUART.c **** 
 475:Generated_Source\PSoC5/USBUART.c ****     /* Store device number to access descriptor. */
ARM GAS  C:\Users\ingan\AppData\Local\Temp\ccMtFi7x.s 			page 14


 476:Generated_Source\PSoC5/USBUART.c ****     USBUART_device = device;
 265              		.loc 1 476 0
 266 0002 264B     		ldr	r3, .L14
 267 0004 1870     		strb	r0, [r3]
 477:Generated_Source\PSoC5/USBUART.c **** 
 478:Generated_Source\PSoC5/USBUART.c ****     /* Reset component internal variables. */
 479:Generated_Source\PSoC5/USBUART.c ****     USBUART_transferState   = USBUART_TRANS_STATE_IDLE;
 268              		.loc 1 479 0
 269 0006 0023     		movs	r3, #0
 270 0008 254A     		ldr	r2, .L14+4
 271 000a 1370     		strb	r3, [r2]
 480:Generated_Source\PSoC5/USBUART.c ****     USBUART_configurationChanged = 0u;
 272              		.loc 1 480 0
 273 000c 254A     		ldr	r2, .L14+8
 274 000e 1370     		strb	r3, [r2]
 481:Generated_Source\PSoC5/USBUART.c ****     USBUART_configuration   = 0u;
 275              		.loc 1 481 0
 276 0010 254A     		ldr	r2, .L14+12
 277 0012 1370     		strb	r3, [r2]
 482:Generated_Source\PSoC5/USBUART.c ****     USBUART_interfaceNumber = 0u;
 278              		.loc 1 482 0
 279 0014 254A     		ldr	r2, .L14+16
 280 0016 1370     		strb	r3, [r2]
 483:Generated_Source\PSoC5/USBUART.c ****     USBUART_deviceAddress   = 0u;
 281              		.loc 1 483 0
 282 0018 254A     		ldr	r2, .L14+20
 283 001a 1370     		strb	r3, [r2]
 484:Generated_Source\PSoC5/USBUART.c ****     USBUART_deviceStatus    = 0u;
 284              		.loc 1 484 0
 285 001c 254A     		ldr	r2, .L14+24
 286 001e 1370     		strb	r3, [r2]
 485:Generated_Source\PSoC5/USBUART.c ****     USBUART_lastPacketSize  = 0u;
 287              		.loc 1 485 0
 288 0020 254A     		ldr	r2, .L14+28
 289 0022 1370     		strb	r3, [r2]
 486:Generated_Source\PSoC5/USBUART.c **** 
 487:Generated_Source\PSoC5/USBUART.c ****     /* Enable component interrupts. */
 488:Generated_Source\PSoC5/USBUART.c **** #if (CY_PSOC4)
 489:Generated_Source\PSoC5/USBUART.c ****     CyIntEnable(USBUART_INTR_HI_VECT_NUM);
 490:Generated_Source\PSoC5/USBUART.c ****     CyIntEnable(USBUART_INTR_MED_VECT_NUM);
 491:Generated_Source\PSoC5/USBUART.c ****     CyIntEnable(USBUART_INTR_LO_VECT_NUM);
 492:Generated_Source\PSoC5/USBUART.c **** #else
 493:Generated_Source\PSoC5/USBUART.c ****     CyIntEnable(USBUART_BUS_RESET_VECT_NUM);
 290              		.loc 1 493 0
 291 0024 254B     		ldr	r3, .L14+32
 292 0026 4FF40002 		mov	r2, #8388608
 293 002a 1A60     		str	r2, [r3]
 494:Generated_Source\PSoC5/USBUART.c ****     CyIntEnable(USBUART_EP_0_VECT_NUM);
 294              		.loc 1 494 0
 295 002c 4FF08072 		mov	r2, #16777216
 296 0030 1A60     		str	r2, [r3]
 495:Generated_Source\PSoC5/USBUART.c **** 
 496:Generated_Source\PSoC5/USBUART.c ****     #if (USBUART_SOF_ISR_ACTIVE)
 497:Generated_Source\PSoC5/USBUART.c ****         CyIntEnable(USBUART_SOF_VECT_NUM);
 297              		.loc 1 497 0
 298 0032 4FF40012 		mov	r2, #2097152
 299 0036 1A60     		str	r2, [r3]
ARM GAS  C:\Users\ingan\AppData\Local\Temp\ccMtFi7x.s 			page 15


 498:Generated_Source\PSoC5/USBUART.c ****     #endif /* (USBUART_SOF_ISR_ACTIVE) */
 499:Generated_Source\PSoC5/USBUART.c **** 
 500:Generated_Source\PSoC5/USBUART.c ****     #if (USBUART_EP1_ISR_ACTIVE)
 501:Generated_Source\PSoC5/USBUART.c ****         CyIntEnable(USBUART_EP_1_VECT_NUM);
 300              		.loc 1 501 0
 301 0038 0122     		movs	r2, #1
 302 003a 1A60     		str	r2, [r3]
 502:Generated_Source\PSoC5/USBUART.c ****     #endif /* (USBUART_EP1_ISR_ACTIVE) */
 503:Generated_Source\PSoC5/USBUART.c **** 
 504:Generated_Source\PSoC5/USBUART.c ****     #if (USBUART_EP2_ISR_ACTIVE)
 505:Generated_Source\PSoC5/USBUART.c ****         CyIntEnable(USBUART_EP_2_VECT_NUM);
 303              		.loc 1 505 0
 304 003c 0222     		movs	r2, #2
 305 003e 1A60     		str	r2, [r3]
 506:Generated_Source\PSoC5/USBUART.c ****     #endif /* (USBUART_EP5_ISR_ACTIVE) */
 507:Generated_Source\PSoC5/USBUART.c **** 
 508:Generated_Source\PSoC5/USBUART.c ****     #if (USBUART_EP3_ISR_ACTIVE)
 509:Generated_Source\PSoC5/USBUART.c ****         CyIntEnable(USBUART_EP_3_VECT_NUM);
 306              		.loc 1 509 0
 307 0040 0422     		movs	r2, #4
 308 0042 1A60     		str	r2, [r3]
 510:Generated_Source\PSoC5/USBUART.c ****     #endif /* (USBUART_EP5_ISR_ACTIVE) */
 511:Generated_Source\PSoC5/USBUART.c **** 
 512:Generated_Source\PSoC5/USBUART.c ****     #if (USBUART_EP4_ISR_ACTIVE)
 513:Generated_Source\PSoC5/USBUART.c ****         CyIntEnable(USBUART_EP_4_VECT_NUM);
 514:Generated_Source\PSoC5/USBUART.c ****     #endif /* (USBUART_EP5_ISR_ACTIVE) */
 515:Generated_Source\PSoC5/USBUART.c **** 
 516:Generated_Source\PSoC5/USBUART.c ****     #if (USBUART_EP5_ISR_ACTIVE)
 517:Generated_Source\PSoC5/USBUART.c ****         CyIntEnable(USBUART_EP_5_VECT_NUM);
 518:Generated_Source\PSoC5/USBUART.c ****     #endif /* (USBUART_EP5_ISR_ACTIVE) */
 519:Generated_Source\PSoC5/USBUART.c **** 
 520:Generated_Source\PSoC5/USBUART.c ****     #if (USBUART_EP6_ISR_ACTIVE)
 521:Generated_Source\PSoC5/USBUART.c ****         CyIntEnable(USBUART_EP_6_VECT_NUM);
 522:Generated_Source\PSoC5/USBUART.c ****     #endif /* USBUART_EP6_ISR_REMOVE */
 523:Generated_Source\PSoC5/USBUART.c **** 
 524:Generated_Source\PSoC5/USBUART.c ****     #if (USBUART_EP7_ISR_ACTIVE)
 525:Generated_Source\PSoC5/USBUART.c ****         CyIntEnable(USBUART_EP_7_VECT_NUM);
 526:Generated_Source\PSoC5/USBUART.c ****     #endif /* (USBUART_EP7_ISR_ACTIVE) */
 527:Generated_Source\PSoC5/USBUART.c **** 
 528:Generated_Source\PSoC5/USBUART.c ****     #if (USBUART_EP8_ISR_ACTIVE)
 529:Generated_Source\PSoC5/USBUART.c ****         CyIntEnable(USBUART_EP_8_VECT_NUM);
 530:Generated_Source\PSoC5/USBUART.c ****     #endif /* (USBUART_EP8_ISR_ACTIVE) */
 531:Generated_Source\PSoC5/USBUART.c **** #endif /* (CY_PSOC4) */
 532:Generated_Source\PSoC5/USBUART.c **** 
 533:Generated_Source\PSoC5/USBUART.c **** #if (USBUART_EP_MANAGEMENT_DMA && USBUART_ARB_ISR_ACTIVE)
 534:Generated_Source\PSoC5/USBUART.c ****     /* Enable ARB EP interrupt sources. */
 535:Generated_Source\PSoC5/USBUART.c ****     USBUART_ARB_INT_EN_REG = USBUART_DEFAULT_ARB_INT_EN;
 309              		.loc 1 535 0
 310 0044 0720     		movs	r0, #7
 311              	.LVL29:
 312 0046 1E4A     		ldr	r2, .L14+36
 313 0048 1070     		strb	r0, [r2]
 536:Generated_Source\PSoC5/USBUART.c **** 
 537:Generated_Source\PSoC5/USBUART.c ****     #if (CY_PSOC3 || CY_PSOC5)
 538:Generated_Source\PSoC5/USBUART.c ****         CyIntEnable(USBUART_ARB_VECT_NUM);
 314              		.loc 1 538 0
 315 004a 4FF48002 		mov	r2, #4194304
ARM GAS  C:\Users\ingan\AppData\Local\Temp\ccMtFi7x.s 			page 16


 316 004e 1A60     		str	r2, [r3]
 539:Generated_Source\PSoC5/USBUART.c ****     #endif /* (CY_PSOC3 || CY_PSOC5) */
 540:Generated_Source\PSoC5/USBUART.c **** #endif   /* (USBUART_EP_MANAGEMENT_DMA && USBUART_ARB_ISR_ACTIVE) */
 541:Generated_Source\PSoC5/USBUART.c **** 
 542:Generated_Source\PSoC5/USBUART.c **** /* Arbiter configuration for DMA transfers. */
 543:Generated_Source\PSoC5/USBUART.c **** #if (USBUART_EP_MANAGEMENT_DMA)
 544:Generated_Source\PSoC5/USBUART.c ****     /* Configure Arbiter for Manual or Auto DMA operation and clear configuration completion. */
 545:Generated_Source\PSoC5/USBUART.c ****     USBUART_ARB_CFG_REG = USBUART_DEFAULT_ARB_CFG;
 317              		.loc 1 545 0
 318 0050 2022     		movs	r2, #32
 319 0052 1C4B     		ldr	r3, .L14+40
 320 0054 1A70     		strb	r2, [r3]
 546:Generated_Source\PSoC5/USBUART.c **** 
 547:Generated_Source\PSoC5/USBUART.c ****     #if (CY_PSOC4)
 548:Generated_Source\PSoC5/USBUART.c ****         /* Enable DMA operation. */
 549:Generated_Source\PSoC5/USBUART.c ****         CyDmaEnable();
 550:Generated_Source\PSoC5/USBUART.c **** 
 551:Generated_Source\PSoC5/USBUART.c ****         #if (USBUART_EP_MANAGEMENT_DMA_AUTO)
 552:Generated_Source\PSoC5/USBUART.c ****             /* Change DMA priority to be highest. */
 553:Generated_Source\PSoC5/USBUART.c ****              CyIntSetPriority(CYDMA_INTR_NUMBER, USBUART_DMA_AUTO_INTR_PRIO);
 554:Generated_Source\PSoC5/USBUART.c ****         #endif /* (USBUART_EP_MANAGEMENT_DMA_AUTO) */
 555:Generated_Source\PSoC5/USBUART.c ****     #endif /* (CY_PSOC4) */
 556:Generated_Source\PSoC5/USBUART.c **** 
 557:Generated_Source\PSoC5/USBUART.c ****     #if (USBUART_EP_MANAGEMENT_DMA_AUTO)
 558:Generated_Source\PSoC5/USBUART.c ****         #if (CY_PSOC4)
 559:Generated_Source\PSoC5/USBUART.c ****             /* Enable DMA interrupt to handle DMA management. */
 560:Generated_Source\PSoC5/USBUART.c ****             CyIntEnable(CYDMA_INTR_NUMBER);
 561:Generated_Source\PSoC5/USBUART.c ****         #else
 562:Generated_Source\PSoC5/USBUART.c ****             #if (USBUART_EP_DMA_AUTO_OPT == 0u)
 563:Generated_Source\PSoC5/USBUART.c ****                 /* Initialize interrupts which handle verification of successful DMA transaction. *
 564:Generated_Source\PSoC5/USBUART.c ****                 USBUART_EP_DMA_Done_isr_StartEx(&USBUART_EP_DMA_DONE_ISR);
 565:Generated_Source\PSoC5/USBUART.c ****                 USBUART_EP17_DMA_Done_SR_InterruptEnable();
 566:Generated_Source\PSoC5/USBUART.c ****                 USBUART_EP8_DMA_Done_SR_InterruptEnable();
 567:Generated_Source\PSoC5/USBUART.c ****             #endif /* (USBUART_EP_DMA_AUTO_OPT == 0u) */
 568:Generated_Source\PSoC5/USBUART.c ****         #endif /* (CY_PSOC4) */
 569:Generated_Source\PSoC5/USBUART.c ****     #endif /* (USBUART_EP_MANAGEMENT_DMA_AUTO) */
 570:Generated_Source\PSoC5/USBUART.c **** #endif /* (USBUART_EP_MANAGEMENT_DMA) */
 571:Generated_Source\PSoC5/USBUART.c **** 
 572:Generated_Source\PSoC5/USBUART.c ****     /* Enable USB regulator depends on operation voltage. IMO Locking is enabled in Init(). */
 573:Generated_Source\PSoC5/USBUART.c ****     switch(mode)
 321              		.loc 1 573 0
 322 0056 11B1     		cbz	r1, .L9
 323 0058 0129     		cmp	r1, #1
 324 005a 06D0     		beq	.L10
 325 005c 0BE0     		b	.L12
 326              	.L9:
 574:Generated_Source\PSoC5/USBUART.c ****     {
 575:Generated_Source\PSoC5/USBUART.c ****     case USBUART_3V_OPERATION:
 576:Generated_Source\PSoC5/USBUART.c ****         /* Disable regulator for 3V operation. */
 577:Generated_Source\PSoC5/USBUART.c ****         USBUART_CR1_REG &= (uint8) ~USBUART_CR1_REG_ENABLE;
 327              		.loc 1 577 0
 328 005e 1A4A     		ldr	r2, .L14+44
 329 0060 1378     		ldrb	r3, [r2]	@ zero_extendqisi2
 330 0062 03F0FE03 		and	r3, r3, #254
 331 0066 1370     		strb	r3, [r2]
 578:Generated_Source\PSoC5/USBUART.c ****         break;
 332              		.loc 1 578 0
ARM GAS  C:\Users\ingan\AppData\Local\Temp\ccMtFi7x.s 			page 17


 333 0068 0AE0     		b	.L11
 334              	.L10:
 579:Generated_Source\PSoC5/USBUART.c **** 
 580:Generated_Source\PSoC5/USBUART.c ****     case USBUART_5V_OPERATION:
 581:Generated_Source\PSoC5/USBUART.c ****         /* Enable regulator for 5V operation. */
 582:Generated_Source\PSoC5/USBUART.c ****         USBUART_CR1_REG |= (uint8)  USBUART_CR1_REG_ENABLE;
 335              		.loc 1 582 0
 336 006a 174A     		ldr	r2, .L14+44
 337 006c 1378     		ldrb	r3, [r2]	@ zero_extendqisi2
 338 006e 43F00103 		orr	r3, r3, #1
 339 0072 1370     		strb	r3, [r2]
 583:Generated_Source\PSoC5/USBUART.c ****         break;
 340              		.loc 1 583 0
 341 0074 04E0     		b	.L11
 342              	.L12:
 584:Generated_Source\PSoC5/USBUART.c **** 
 585:Generated_Source\PSoC5/USBUART.c ****     default: /* Check DWR settings of USB power supply. */
 586:Generated_Source\PSoC5/USBUART.c ****     #if (USBUART_VDDD_MV < USBUART_3500MV)
 587:Generated_Source\PSoC5/USBUART.c ****         /* Disable regulator for 3V operation. */
 588:Generated_Source\PSoC5/USBUART.c ****         USBUART_CR1_REG &= (uint8) ~USBUART_CR1_REG_ENABLE;
 589:Generated_Source\PSoC5/USBUART.c ****     #else
 590:Generated_Source\PSoC5/USBUART.c ****         /* Enable regulator for 5V operation. */
 591:Generated_Source\PSoC5/USBUART.c ****         USBUART_CR1_REG |= (uint8)  USBUART_CR1_REG_ENABLE;
 343              		.loc 1 591 0
 344 0076 144A     		ldr	r2, .L14+44
 345 0078 1378     		ldrb	r3, [r2]	@ zero_extendqisi2
 346 007a 43F00103 		orr	r3, r3, #1
 347 007e 1370     		strb	r3, [r2]
 348              	.L11:
 592:Generated_Source\PSoC5/USBUART.c ****     #endif /* (USBUART_VDDD_MV < USBUART_3500MV) */
 593:Generated_Source\PSoC5/USBUART.c ****         break;
 594:Generated_Source\PSoC5/USBUART.c ****     }
 595:Generated_Source\PSoC5/USBUART.c **** 
 596:Generated_Source\PSoC5/USBUART.c **** #if (CY_PSOC4)
 597:Generated_Source\PSoC5/USBUART.c ****     /* Clear bus activity. */
 598:Generated_Source\PSoC5/USBUART.c ****     USBUART_CR1_REG &= (uint32) ~USBUART_CR1_BUS_ACTIVITY;
 599:Generated_Source\PSoC5/USBUART.c **** 
 600:Generated_Source\PSoC5/USBUART.c ****     /* Clear EP0 count register. */
 601:Generated_Source\PSoC5/USBUART.c ****     USBUART_EP0_CNT_REG = USBUART_CLEAR_REG;
 602:Generated_Source\PSoC5/USBUART.c **** 
 603:Generated_Source\PSoC5/USBUART.c ****     /* Set EP0.CR: ACK Setup, NAK IN/OUT. */
 604:Generated_Source\PSoC5/USBUART.c ****     USBUART_EP0_CR_REG = USBUART_MODE_NAK_IN_OUT;
 605:Generated_Source\PSoC5/USBUART.c **** 
 606:Generated_Source\PSoC5/USBUART.c ****     #if (USBUART_LPM_ACTIVE)
 607:Generated_Source\PSoC5/USBUART.c ****         if (NULL != USBUART_GetBOSPtr())
 608:Generated_Source\PSoC5/USBUART.c ****         {
 609:Generated_Source\PSoC5/USBUART.c ****             /* Enable LPM and acknowledge LPM packets for active device.
 610:Generated_Source\PSoC5/USBUART.c ****             * Reset NYET_EN and SUB_RESP bits in the LPM_CTRL register.
 611:Generated_Source\PSoC5/USBUART.c ****             */
 612:Generated_Source\PSoC5/USBUART.c ****             USBUART_LPM_CTRL_REG = (USBUART_LPM_CTRL_LPM_EN | \
 613:Generated_Source\PSoC5/USBUART.c ****                                              USBUART_LPM_CTRL_LPM_ACK_RESP);
 614:Generated_Source\PSoC5/USBUART.c ****         }
 615:Generated_Source\PSoC5/USBUART.c ****         else
 616:Generated_Source\PSoC5/USBUART.c ****         {
 617:Generated_Source\PSoC5/USBUART.c ****             /* Disable LPM for active device. */
 618:Generated_Source\PSoC5/USBUART.c ****             USBUART_LPM_CTRL_REG &= (uint32) ~USBUART_LPM_CTRL_LPM_EN;
 619:Generated_Source\PSoC5/USBUART.c ****         }
ARM GAS  C:\Users\ingan\AppData\Local\Temp\ccMtFi7x.s 			page 18


 620:Generated_Source\PSoC5/USBUART.c ****     #endif /* (USBUART_LPM_ACTIVE) */
 621:Generated_Source\PSoC5/USBUART.c **** 
 622:Generated_Source\PSoC5/USBUART.c ****     /* Enable device to responds to USB traffic with address 0. */
 623:Generated_Source\PSoC5/USBUART.c ****     USBUART_CR0_REG = USBUART_DEFUALT_CR0;
 624:Generated_Source\PSoC5/USBUART.c **** 
 625:Generated_Source\PSoC5/USBUART.c **** #else
 626:Generated_Source\PSoC5/USBUART.c ****     /* Set EP0.CR: ACK Setup, STALL IN/OUT. */
 627:Generated_Source\PSoC5/USBUART.c ****     USBUART_EP0_CR_REG = USBUART_MODE_STALL_IN_OUT;
 349              		.loc 1 627 0
 350 0080 0322     		movs	r2, #3
 351 0082 124B     		ldr	r3, .L14+48
 352 0084 1A70     		strb	r2, [r3]
 628:Generated_Source\PSoC5/USBUART.c **** 
 629:Generated_Source\PSoC5/USBUART.c ****     /* Enable device to respond to USB traffic with address 0. */
 630:Generated_Source\PSoC5/USBUART.c ****     USBUART_CR0_REG = USBUART_DEFUALT_CR0;
 353              		.loc 1 630 0
 354 0086 8022     		movs	r2, #128
 355 0088 203B     		subs	r3, r3, #32
 356 008a 1A70     		strb	r2, [r3]
 631:Generated_Source\PSoC5/USBUART.c ****     CyDelayCycles(USBUART_WAIT_CR0_REG_STABILITY);
 357              		.loc 1 631 0
 358 008c 0120     		movs	r0, #1
 359 008e FFF7FEFF 		bl	CyDelayCycles
 360              	.LVL30:
 632:Generated_Source\PSoC5/USBUART.c **** #endif /* (CY_PSOC4) */
 633:Generated_Source\PSoC5/USBUART.c **** 
 634:Generated_Source\PSoC5/USBUART.c ****     /* Enable D+ pull-up and keep USB control on IO. */
 635:Generated_Source\PSoC5/USBUART.c ****     USBUART_USBIO_CR1_REG = USBUART_USBIO_CR1_USBPUEN;
 361              		.loc 1 635 0
 362 0092 0422     		movs	r2, #4
 363 0094 0E4B     		ldr	r3, .L14+52
 364 0096 1A70     		strb	r2, [r3]
 365 0098 08BD     		pop	{r3, pc}
 366              	.L15:
 367 009a 00BF     		.align	2
 368              	.L14:
 369 009c 00000000 		.word	USBUART_device
 370 00a0 00000000 		.word	USBUART_transferState
 371 00a4 00000000 		.word	USBUART_configurationChanged
 372 00a8 00000000 		.word	USBUART_configuration
 373 00ac 00000000 		.word	USBUART_interfaceNumber
 374 00b0 00000000 		.word	USBUART_deviceAddress
 375 00b4 00000000 		.word	USBUART_deviceStatus
 376 00b8 00000000 		.word	USBUART_lastPacketSize
 377 00bc 00E100E0 		.word	-536813312
 378 00c0 9E600040 		.word	1073766558
 379 00c4 9C600040 		.word	1073766556
 380 00c8 09600040 		.word	1073766409
 381 00cc 28600040 		.word	1073766440
 382 00d0 12600040 		.word	1073766418
 383              		.cfi_endproc
 384              	.LFE2:
 385              		.size	USBUART_InitComponent, .-USBUART_InitComponent
 386              		.section	.text.USBUART_Start,"ax",%progbits
 387              		.align	2
 388              		.global	USBUART_Start
 389              		.thumb
ARM GAS  C:\Users\ingan\AppData\Local\Temp\ccMtFi7x.s 			page 19


 390              		.thumb_func
 391              		.type	USBUART_Start, %function
 392              	USBUART_Start:
 393              	.LFB0:
 187:Generated_Source\PSoC5/USBUART.c ****     if (0u == USBUART_initVar)
 394              		.loc 1 187 0
 395              		.cfi_startproc
 396              		@ args = 0, pretend = 0, frame = 0
 397              		@ frame_needed = 0, uses_anonymous_args = 0
 398              	.LVL31:
 399 0000 38B5     		push	{r3, r4, r5, lr}
 400              		.cfi_def_cfa_offset 16
 401              		.cfi_offset 3, -16
 402              		.cfi_offset 4, -12
 403              		.cfi_offset 5, -8
 404              		.cfi_offset 14, -4
 405 0002 0446     		mov	r4, r0
 406 0004 0D46     		mov	r5, r1
 188:Generated_Source\PSoC5/USBUART.c ****     {
 407              		.loc 1 188 0
 408 0006 064B     		ldr	r3, .L19
 409 0008 1B78     		ldrb	r3, [r3]	@ zero_extendqisi2
 410 000a 23B9     		cbnz	r3, .L17
 190:Generated_Source\PSoC5/USBUART.c ****         USBUART_initVar = 1u;
 411              		.loc 1 190 0
 412 000c FFF7FEFF 		bl	USBUART_Init
 413              	.LVL32:
 191:Generated_Source\PSoC5/USBUART.c ****     }
 414              		.loc 1 191 0
 415 0010 0122     		movs	r2, #1
 416 0012 034B     		ldr	r3, .L19
 417 0014 1A70     		strb	r2, [r3]
 418              	.L17:
 194:Generated_Source\PSoC5/USBUART.c **** }
 419              		.loc 1 194 0
 420 0016 2946     		mov	r1, r5
 421 0018 2046     		mov	r0, r4
 422 001a FFF7FEFF 		bl	USBUART_InitComponent
 423              	.LVL33:
 424 001e 38BD     		pop	{r3, r4, r5, pc}
 425              	.L20:
 426              		.align	2
 427              	.L19:
 428 0020 00000000 		.word	.LANCHOR0
 429              		.cfi_endproc
 430              	.LFE0:
 431              		.size	USBUART_Start, .-USBUART_Start
 432              		.section	.text.USBUART_ReInitComponent,"ax",%progbits
 433              		.align	2
 434              		.global	USBUART_ReInitComponent
 435              		.thumb
 436              		.thumb_func
 437              		.type	USBUART_ReInitComponent, %function
 438              	USBUART_ReInitComponent:
 439              	.LFB3:
 636:Generated_Source\PSoC5/USBUART.c **** }
 637:Generated_Source\PSoC5/USBUART.c **** 
ARM GAS  C:\Users\ingan\AppData\Local\Temp\ccMtFi7x.s 			page 20


 638:Generated_Source\PSoC5/USBUART.c **** 
 639:Generated_Source\PSoC5/USBUART.c **** /*******************************************************************************
 640:Generated_Source\PSoC5/USBUART.c **** * Function Name: USBUART_ReInitComponent
 641:Generated_Source\PSoC5/USBUART.c **** ****************************************************************************//**
 642:Generated_Source\PSoC5/USBUART.c **** *
 643:Generated_Source\PSoC5/USBUART.c **** *  This function reinitialize the component configuration and is
 644:Generated_Source\PSoC5/USBUART.c **** *  intend to be called from the Reset interrupt.
 645:Generated_Source\PSoC5/USBUART.c **** *
 646:Generated_Source\PSoC5/USBUART.c **** * \globalvars
 647:Generated_Source\PSoC5/USBUART.c **** *   USBUART_device - Contains the device number of the desired Device
 648:Generated_Source\PSoC5/USBUART.c **** *        Descriptor. The device number can be found in the Device Descriptor tab
 649:Generated_Source\PSoC5/USBUART.c **** *       of the Configure dialog, under the settings of the desired Device Descriptor,
 650:Generated_Source\PSoC5/USBUART.c **** *       in the Device Number field.
 651:Generated_Source\PSoC5/USBUART.c **** *   USBUART_transferState - This variable is used by the communication
 652:Generated_Source\PSoC5/USBUART.c **** *       functions to handle the current transfer state. Initialized to
 653:Generated_Source\PSoC5/USBUART.c **** *       TRANS_STATE_IDLE in this API.
 654:Generated_Source\PSoC5/USBUART.c **** *   USBUART_configuration - Contains the current configuration number
 655:Generated_Source\PSoC5/USBUART.c **** *       set by the Host using a SET_CONFIGURATION request.
 656:Generated_Source\PSoC5/USBUART.c **** *       Initialized to zero in this API.
 657:Generated_Source\PSoC5/USBUART.c **** *   USBUART_deviceAddress - Contains the current device address. This
 658:Generated_Source\PSoC5/USBUART.c **** *       variable is initialized to zero in this API. The Host starts to communicate
 659:Generated_Source\PSoC5/USBUART.c **** *      to the device with address 0 and then sets it to a whatever value using
 660:Generated_Source\PSoC5/USBUART.c **** *      a SET_ADDRESS request.
 661:Generated_Source\PSoC5/USBUART.c **** *   USBUART_deviceStatus - Initialized to 0.
 662:Generated_Source\PSoC5/USBUART.c **** *       This is a two-bit variable which contains the power status in the first bit
 663:Generated_Source\PSoC5/USBUART.c **** *       (DEVICE_STATUS_BUS_POWERED or DEVICE_STATUS_SELF_POWERED) and the remote
 664:Generated_Source\PSoC5/USBUART.c **** *       wakeup status (DEVICE_STATUS_REMOTE_WAKEUP) in the second bit.
 665:Generated_Source\PSoC5/USBUART.c **** *   USBUART_lastPacketSize - Initialized to 0;
 666:Generated_Source\PSoC5/USBUART.c **** *
 667:Generated_Source\PSoC5/USBUART.c **** * \reentrant
 668:Generated_Source\PSoC5/USBUART.c **** *  No.
 669:Generated_Source\PSoC5/USBUART.c **** *
 670:Generated_Source\PSoC5/USBUART.c **** *******************************************************************************/
 671:Generated_Source\PSoC5/USBUART.c **** void USBUART_ReInitComponent(void) 
 672:Generated_Source\PSoC5/USBUART.c **** {
 440              		.loc 1 672 0
 441              		.cfi_startproc
 442              		@ args = 0, pretend = 0, frame = 0
 443              		@ frame_needed = 0, uses_anonymous_args = 0
 444              		@ link register save eliminated.
 673:Generated_Source\PSoC5/USBUART.c ****     /* Initialize _hidProtocol variable to comply with HID 7.2.6 Set_Protocol
 674:Generated_Source\PSoC5/USBUART.c ****     *  Request: "When initialized, all devices default to report protocol."
 675:Generated_Source\PSoC5/USBUART.c ****     */
 676:Generated_Source\PSoC5/USBUART.c **** #if defined(USBUART_ENABLE_HID_CLASS)
 677:Generated_Source\PSoC5/USBUART.c ****     uint8 i;
 678:Generated_Source\PSoC5/USBUART.c **** 
 679:Generated_Source\PSoC5/USBUART.c ****     for (i = 0u; i < USBUART_MAX_INTERFACES_NUMBER; i++)
 680:Generated_Source\PSoC5/USBUART.c ****     {
 681:Generated_Source\PSoC5/USBUART.c ****         USBUART_hidProtocol[i] = USBUART_PROTOCOL_REPORT;
 682:Generated_Source\PSoC5/USBUART.c ****     }
 683:Generated_Source\PSoC5/USBUART.c **** #endif /* USBUART_ENABLE_HID_CLASS */
 684:Generated_Source\PSoC5/USBUART.c **** 
 685:Generated_Source\PSoC5/USBUART.c ****     /* Reset component internal variables. */
 686:Generated_Source\PSoC5/USBUART.c ****     USBUART_transferState   = USBUART_TRANS_STATE_IDLE;
 445              		.loc 1 686 0
 446 0000 0023     		movs	r3, #0
 447 0002 0A4A     		ldr	r2, .L22
ARM GAS  C:\Users\ingan\AppData\Local\Temp\ccMtFi7x.s 			page 21


 448 0004 1370     		strb	r3, [r2]
 687:Generated_Source\PSoC5/USBUART.c ****     USBUART_configurationChanged = 0u;
 449              		.loc 1 687 0
 450 0006 0A4A     		ldr	r2, .L22+4
 451 0008 1370     		strb	r3, [r2]
 688:Generated_Source\PSoC5/USBUART.c ****     USBUART_configuration   = 0u;
 452              		.loc 1 688 0
 453 000a 0A4A     		ldr	r2, .L22+8
 454 000c 1370     		strb	r3, [r2]
 689:Generated_Source\PSoC5/USBUART.c ****     USBUART_interfaceNumber = 0u;
 455              		.loc 1 689 0
 456 000e 0A4A     		ldr	r2, .L22+12
 457 0010 1370     		strb	r3, [r2]
 690:Generated_Source\PSoC5/USBUART.c ****     USBUART_deviceAddress   = 0u;
 458              		.loc 1 690 0
 459 0012 0A4A     		ldr	r2, .L22+16
 460 0014 1370     		strb	r3, [r2]
 691:Generated_Source\PSoC5/USBUART.c ****     USBUART_deviceStatus    = 0u;
 461              		.loc 1 691 0
 462 0016 0A4A     		ldr	r2, .L22+20
 463 0018 1370     		strb	r3, [r2]
 692:Generated_Source\PSoC5/USBUART.c ****     USBUART_lastPacketSize  = 0u;
 464              		.loc 1 692 0
 465 001a 0A4A     		ldr	r2, .L22+24
 466 001c 1370     		strb	r3, [r2]
 693:Generated_Source\PSoC5/USBUART.c **** 
 694:Generated_Source\PSoC5/USBUART.c **** #if (CY_PSOC4)
 695:Generated_Source\PSoC5/USBUART.c ****     /* Set EP0.CR: ACK Setup, NAK IN/OUT. */
 696:Generated_Source\PSoC5/USBUART.c ****     USBUART_EP0_CR_REG = USBUART_MODE_NAK_IN_OUT;
 697:Generated_Source\PSoC5/USBUART.c **** #else
 698:Generated_Source\PSoC5/USBUART.c ****     /* Set EP0.CR: ACK Setup, STALL IN/OUT. */
 699:Generated_Source\PSoC5/USBUART.c ****     USBUART_EP0_CR_REG = USBUART_MODE_STALL_IN_OUT;
 467              		.loc 1 699 0
 468 001e 0322     		movs	r2, #3
 469 0020 094B     		ldr	r3, .L22+28
 470 0022 1A70     		strb	r2, [r3]
 700:Generated_Source\PSoC5/USBUART.c **** #endif /* (CY_PSOC4) */
 701:Generated_Source\PSoC5/USBUART.c **** 
 702:Generated_Source\PSoC5/USBUART.c ****     /* Enable device to respond to USB traffic with address 0. */
 703:Generated_Source\PSoC5/USBUART.c ****     USBUART_CR0_REG = USBUART_DEFUALT_CR0;
 471              		.loc 1 703 0
 472 0024 8022     		movs	r2, #128
 473 0026 203B     		subs	r3, r3, #32
 474 0028 1A70     		strb	r2, [r3]
 475 002a 7047     		bx	lr
 476              	.L23:
 477              		.align	2
 478              	.L22:
 479 002c 00000000 		.word	USBUART_transferState
 480 0030 00000000 		.word	USBUART_configurationChanged
 481 0034 00000000 		.word	USBUART_configuration
 482 0038 00000000 		.word	USBUART_interfaceNumber
 483 003c 00000000 		.word	USBUART_deviceAddress
 484 0040 00000000 		.word	USBUART_deviceStatus
 485 0044 00000000 		.word	USBUART_lastPacketSize
 486 0048 28600040 		.word	1073766440
 487              		.cfi_endproc
ARM GAS  C:\Users\ingan\AppData\Local\Temp\ccMtFi7x.s 			page 22


 488              	.LFE3:
 489              		.size	USBUART_ReInitComponent, .-USBUART_ReInitComponent
 490              		.section	.text.USBUART_CheckActivity,"ax",%progbits
 491              		.align	2
 492              		.global	USBUART_CheckActivity
 493              		.thumb
 494              		.thumb_func
 495              		.type	USBUART_CheckActivity, %function
 496              	USBUART_CheckActivity:
 497              	.LFB5:
 704:Generated_Source\PSoC5/USBUART.c **** }
 705:Generated_Source\PSoC5/USBUART.c **** 
 706:Generated_Source\PSoC5/USBUART.c **** 
 707:Generated_Source\PSoC5/USBUART.c **** /*******************************************************************************
 708:Generated_Source\PSoC5/USBUART.c **** * Function Name: USBUART_Stop
 709:Generated_Source\PSoC5/USBUART.c **** ****************************************************************************//**
 710:Generated_Source\PSoC5/USBUART.c **** *
 711:Generated_Source\PSoC5/USBUART.c **** *  This function shuts down the USB function including to release
 712:Generated_Source\PSoC5/USBUART.c **** *  the D+ pull-up and disabling the SIE.
 713:Generated_Source\PSoC5/USBUART.c **** *
 714:Generated_Source\PSoC5/USBUART.c **** * \globalvars
 715:Generated_Source\PSoC5/USBUART.c **** *   \ref USBUART_configuration
 716:Generated_Source\PSoC5/USBUART.c **** *
 717:Generated_Source\PSoC5/USBUART.c **** *   USBUART_deviceAddress - Contains the current device address. This
 718:Generated_Source\PSoC5/USBUART.c **** *       variable is initialized to zero in this API. The Host starts to communicate
 719:Generated_Source\PSoC5/USBUART.c **** *      to the device with address 0 and then sets it to a whatever value using
 720:Generated_Source\PSoC5/USBUART.c **** *      a SET_ADDRESS request.
 721:Generated_Source\PSoC5/USBUART.c **** *
 722:Generated_Source\PSoC5/USBUART.c **** *   \ref USBUART_deviceStatus
 723:Generated_Source\PSoC5/USBUART.c **** *
 724:Generated_Source\PSoC5/USBUART.c **** *   \ref USBUART_configurationChanged
 725:Generated_Source\PSoC5/USBUART.c **** *
 726:Generated_Source\PSoC5/USBUART.c **** *   USBUART_intiVar -  This variable is set to zero
 727:Generated_Source\PSoC5/USBUART.c **** *
 728:Generated_Source\PSoC5/USBUART.c **** *******************************************************************************/
 729:Generated_Source\PSoC5/USBUART.c **** void USBUART_Stop(void) 
 730:Generated_Source\PSoC5/USBUART.c **** {
 731:Generated_Source\PSoC5/USBUART.c ****     uint8 enableInterrupts;
 732:Generated_Source\PSoC5/USBUART.c **** 
 733:Generated_Source\PSoC5/USBUART.c **** #if (USBUART_EP_MANAGEMENT_DMA)
 734:Generated_Source\PSoC5/USBUART.c ****     /* Stop all DMA channels. */
 735:Generated_Source\PSoC5/USBUART.c ****     USBUART_Stop_DMA(USBUART_MAX_EP);
 736:Generated_Source\PSoC5/USBUART.c **** #endif /* (USBUART_EP_MANAGEMENT_DMA) */
 737:Generated_Source\PSoC5/USBUART.c **** 
 738:Generated_Source\PSoC5/USBUART.c ****     enableInterrupts = CyEnterCriticalSection();
 739:Generated_Source\PSoC5/USBUART.c **** 
 740:Generated_Source\PSoC5/USBUART.c ****     /* Disable USB IP to respond to USB traffic. */
 741:Generated_Source\PSoC5/USBUART.c ****     USBUART_CR0_REG &= (uint8) ~USBUART_CR0_ENABLE;
 742:Generated_Source\PSoC5/USBUART.c **** 
 743:Generated_Source\PSoC5/USBUART.c ****     /* Disable D+ pull-up. */
 744:Generated_Source\PSoC5/USBUART.c ****     USBUART_USBIO_CR1_REG &= (uint8) ~ USBUART_USBIO_CR1_USBPUEN;
 745:Generated_Source\PSoC5/USBUART.c **** 
 746:Generated_Source\PSoC5/USBUART.c **** #if (CY_PSOC4)
 747:Generated_Source\PSoC5/USBUART.c ****     /* Disable USBFS block. */
 748:Generated_Source\PSoC5/USBUART.c ****     USBUART_POWER_CTRL_REG &= (uint32) ~USBUART_POWER_CTRL_ENABLE;
 749:Generated_Source\PSoC5/USBUART.c **** #else
 750:Generated_Source\PSoC5/USBUART.c ****     /* Clear power active and standby mode templates. */
ARM GAS  C:\Users\ingan\AppData\Local\Temp\ccMtFi7x.s 			page 23


 751:Generated_Source\PSoC5/USBUART.c ****     USBUART_PM_ACT_CFG_REG  &= (uint8) ~USBUART_PM_ACT_EN_FSUSB;
 752:Generated_Source\PSoC5/USBUART.c ****     USBUART_PM_STBY_CFG_REG &= (uint8) ~USBUART_PM_STBY_EN_FSUSB;
 753:Generated_Source\PSoC5/USBUART.c **** 
 754:Generated_Source\PSoC5/USBUART.c ****     /* Ensure single-ended disable bits are high (PRT15.INP_DIS[7:6])
 755:Generated_Source\PSoC5/USBUART.c ****      * (input receiver disabled). */
 756:Generated_Source\PSoC5/USBUART.c ****     USBUART_DM_INP_DIS_REG |= (uint8) USBUART_DM_MASK;
 757:Generated_Source\PSoC5/USBUART.c ****     USBUART_DP_INP_DIS_REG |= (uint8) USBUART_DP_MASK;
 758:Generated_Source\PSoC5/USBUART.c **** 
 759:Generated_Source\PSoC5/USBUART.c **** #endif /* (CY_PSOC4) */
 760:Generated_Source\PSoC5/USBUART.c **** 
 761:Generated_Source\PSoC5/USBUART.c ****     CyExitCriticalSection(enableInterrupts);
 762:Generated_Source\PSoC5/USBUART.c **** 
 763:Generated_Source\PSoC5/USBUART.c ****     /* Disable component interrupts. */
 764:Generated_Source\PSoC5/USBUART.c **** #if (CY_PSOC4)
 765:Generated_Source\PSoC5/USBUART.c ****     CyIntDisable(USBUART_INTR_HI_VECT_NUM);
 766:Generated_Source\PSoC5/USBUART.c ****     CyIntDisable(USBUART_INTR_LO_VECT_NUM);
 767:Generated_Source\PSoC5/USBUART.c ****     CyIntDisable(USBUART_INTR_MED_VECT_NUM);
 768:Generated_Source\PSoC5/USBUART.c **** #else
 769:Generated_Source\PSoC5/USBUART.c **** 
 770:Generated_Source\PSoC5/USBUART.c ****     CyIntDisable(USBUART_BUS_RESET_VECT_NUM);
 771:Generated_Source\PSoC5/USBUART.c ****     CyIntDisable(USBUART_EP_0_VECT_NUM);
 772:Generated_Source\PSoC5/USBUART.c **** 
 773:Generated_Source\PSoC5/USBUART.c ****     #if (USBUART_SOF_ISR_ACTIVE)
 774:Generated_Source\PSoC5/USBUART.c ****         CyIntDisable(USBUART_SOF_VECT_NUM);
 775:Generated_Source\PSoC5/USBUART.c ****     #endif /* (USBUART_SOF_ISR_ACTIVE) */
 776:Generated_Source\PSoC5/USBUART.c **** 
 777:Generated_Source\PSoC5/USBUART.c ****     #if (USBUART_EP1_ISR_ACTIVE)
 778:Generated_Source\PSoC5/USBUART.c ****         CyIntDisable(USBUART_EP_1_VECT_NUM);
 779:Generated_Source\PSoC5/USBUART.c ****     #endif /* (USBUART_EP1_ISR_ACTIVE) */
 780:Generated_Source\PSoC5/USBUART.c **** 
 781:Generated_Source\PSoC5/USBUART.c ****     #if (USBUART_EP2_ISR_ACTIVE)
 782:Generated_Source\PSoC5/USBUART.c ****         CyIntDisable(USBUART_EP_2_VECT_NUM);
 783:Generated_Source\PSoC5/USBUART.c ****     #endif /* (USBUART_EP2_ISR_ACTIVE) */
 784:Generated_Source\PSoC5/USBUART.c **** 
 785:Generated_Source\PSoC5/USBUART.c ****     #if (USBUART_EP3_ISR_ACTIVE)
 786:Generated_Source\PSoC5/USBUART.c ****         CyIntDisable(USBUART_EP_3_VECT_NUM);
 787:Generated_Source\PSoC5/USBUART.c ****     #endif /* (USBUART_EP3_ISR_ACTIVE) */
 788:Generated_Source\PSoC5/USBUART.c **** 
 789:Generated_Source\PSoC5/USBUART.c ****     #if (USBUART_EP4_ISR_ACTIVE)
 790:Generated_Source\PSoC5/USBUART.c ****         CyIntDisable(USBUART_EP_4_VECT_NUM);
 791:Generated_Source\PSoC5/USBUART.c ****     #endif /* (USBUART_EP4_ISR_ACTIVE) */
 792:Generated_Source\PSoC5/USBUART.c **** 
 793:Generated_Source\PSoC5/USBUART.c ****     #if (USBUART_EP5_ISR_ACTIVE)
 794:Generated_Source\PSoC5/USBUART.c ****         CyIntDisable(USBUART_EP_5_VECT_NUM);
 795:Generated_Source\PSoC5/USBUART.c ****     #endif /* (USBUART_EP5_ISR_ACTIVE) */
 796:Generated_Source\PSoC5/USBUART.c **** 
 797:Generated_Source\PSoC5/USBUART.c ****     #if (USBUART_EP6_ISR_ACTIVE)
 798:Generated_Source\PSoC5/USBUART.c ****         CyIntDisable(USBUART_EP_6_VECT_NUM);
 799:Generated_Source\PSoC5/USBUART.c ****     #endif /* USBUART_EP6_ISR_REMOVE */
 800:Generated_Source\PSoC5/USBUART.c **** 
 801:Generated_Source\PSoC5/USBUART.c ****     #if (USBUART_EP7_ISR_ACTIVE)
 802:Generated_Source\PSoC5/USBUART.c ****         CyIntDisable(USBUART_EP_7_VECT_NUM);
 803:Generated_Source\PSoC5/USBUART.c ****     #endif /* (USBUART_EP7_ISR_ACTIVE) */
 804:Generated_Source\PSoC5/USBUART.c **** 
 805:Generated_Source\PSoC5/USBUART.c ****     #if (USBUART_EP8_ISR_ACTIVE)
 806:Generated_Source\PSoC5/USBUART.c ****         CyIntDisable(USBUART_EP_8_VECT_NUM);
 807:Generated_Source\PSoC5/USBUART.c ****     #endif /* (USBUART_EP8_ISR_ACTIVE) */
ARM GAS  C:\Users\ingan\AppData\Local\Temp\ccMtFi7x.s 			page 24


 808:Generated_Source\PSoC5/USBUART.c **** 
 809:Generated_Source\PSoC5/USBUART.c ****     #if (USBUART_DP_ISR_ACTIVE)
 810:Generated_Source\PSoC5/USBUART.c ****         /* Clear active mode Dp interrupt source history. */
 811:Generated_Source\PSoC5/USBUART.c ****         (void) USBUART_Dp_ClearInterrupt();
 812:Generated_Source\PSoC5/USBUART.c ****         CyIntClearPending(USBUART_DP_INTC_VECT_NUM);
 813:Generated_Source\PSoC5/USBUART.c ****     #endif /* (USBUART_DP_ISR_ACTIVE). */
 814:Generated_Source\PSoC5/USBUART.c **** 
 815:Generated_Source\PSoC5/USBUART.c **** #endif /* (CY_PSOC4) */
 816:Generated_Source\PSoC5/USBUART.c **** 
 817:Generated_Source\PSoC5/USBUART.c ****     /* Reset component internal variables. */
 818:Generated_Source\PSoC5/USBUART.c ****     USBUART_configurationChanged = 0u;
 819:Generated_Source\PSoC5/USBUART.c ****     USBUART_configuration   = 0u;
 820:Generated_Source\PSoC5/USBUART.c ****     USBUART_interfaceNumber = 0u;
 821:Generated_Source\PSoC5/USBUART.c ****     USBUART_deviceAddress   = 0u;
 822:Generated_Source\PSoC5/USBUART.c ****     USBUART_deviceStatus    = 0u;
 823:Generated_Source\PSoC5/USBUART.c **** 
 824:Generated_Source\PSoC5/USBUART.c ****     /* It is mandatory for correct device startup. */
 825:Generated_Source\PSoC5/USBUART.c ****     USBUART_initVar = 0u;
 826:Generated_Source\PSoC5/USBUART.c **** }
 827:Generated_Source\PSoC5/USBUART.c **** 
 828:Generated_Source\PSoC5/USBUART.c **** 
 829:Generated_Source\PSoC5/USBUART.c **** /*******************************************************************************
 830:Generated_Source\PSoC5/USBUART.c **** * Function Name: USBUART_CheckActivity
 831:Generated_Source\PSoC5/USBUART.c **** ****************************************************************************//**
 832:Generated_Source\PSoC5/USBUART.c **** *
 833:Generated_Source\PSoC5/USBUART.c **** *  This function returns the activity status of the bus. It clears the hardware
 834:Generated_Source\PSoC5/USBUART.c **** *  status to provide updated status on the next call of this function. It
 835:Generated_Source\PSoC5/USBUART.c **** *  provides a way to determine whether any USB bus activity occurred. The
 836:Generated_Source\PSoC5/USBUART.c **** *  application should use this function to determine if the USB suspend
 837:Generated_Source\PSoC5/USBUART.c **** *  conditions are met.
 838:Generated_Source\PSoC5/USBUART.c **** *
 839:Generated_Source\PSoC5/USBUART.c **** *
 840:Generated_Source\PSoC5/USBUART.c **** * \return
 841:Generated_Source\PSoC5/USBUART.c **** *  cystatus: Status of the bus since the last call of the function.
 842:Generated_Source\PSoC5/USBUART.c **** *  Return Value |   Description
 843:Generated_Source\PSoC5/USBUART.c **** *  -------------|---------------------------------------------------------------
 844:Generated_Source\PSoC5/USBUART.c **** *  1            |Bus activity was detected since the last call to this function
 845:Generated_Source\PSoC5/USBUART.c **** *  0            |Bus activity was not detected since the last call to this function
 846:Generated_Source\PSoC5/USBUART.c **** *
 847:Generated_Source\PSoC5/USBUART.c **** *
 848:Generated_Source\PSoC5/USBUART.c **** *******************************************************************************/
 849:Generated_Source\PSoC5/USBUART.c **** uint8 USBUART_CheckActivity(void) 
 850:Generated_Source\PSoC5/USBUART.c **** {
 498              		.loc 1 850 0
 499              		.cfi_startproc
 500              		@ args = 0, pretend = 0, frame = 0
 501              		@ frame_needed = 0, uses_anonymous_args = 0
 502              		@ link register save eliminated.
 851:Generated_Source\PSoC5/USBUART.c ****     uint8 cr1Reg = USBUART_CR1_REG;
 503              		.loc 1 851 0
 504 0000 064A     		ldr	r2, .L26
 505 0002 1378     		ldrb	r3, [r2]	@ zero_extendqisi2
 506 0004 DBB2     		uxtb	r3, r3
 507              	.LVL34:
 852:Generated_Source\PSoC5/USBUART.c **** 
 853:Generated_Source\PSoC5/USBUART.c ****     /* Clear bus activity. */
 854:Generated_Source\PSoC5/USBUART.c ****     USBUART_CR1_REG = (cr1Reg & (uint8) ~USBUART_CR1_BUS_ACTIVITY);
ARM GAS  C:\Users\ingan\AppData\Local\Temp\ccMtFi7x.s 			page 25


 508              		.loc 1 854 0
 509 0006 03F0FB01 		and	r1, r3, #251
 510 000a 1170     		strb	r1, [r2]
 511 000c 03F00403 		and	r3, r3, #4
 512              	.LVL35:
 855:Generated_Source\PSoC5/USBUART.c **** 
 856:Generated_Source\PSoC5/USBUART.c ****     /* Get bus activity. */
 857:Generated_Source\PSoC5/USBUART.c ****     return ((0u != (cr1Reg & USBUART_CR1_BUS_ACTIVITY)) ? (1u) : (0u));
 513              		.loc 1 857 0
 514 0010 03F0FF00 		and	r0, r3, #255
 515 0014 03B1     		cbz	r3, .L25
 516 0016 0120     		movs	r0, #1
 517              	.L25:
 858:Generated_Source\PSoC5/USBUART.c **** }
 518              		.loc 1 858 0 discriminator 4
 519 0018 7047     		bx	lr
 520              	.L27:
 521 001a 00BF     		.align	2
 522              	.L26:
 523 001c 09600040 		.word	1073766409
 524              		.cfi_endproc
 525              	.LFE5:
 526              		.size	USBUART_CheckActivity, .-USBUART_CheckActivity
 527              		.section	.text.USBUART_GetConfiguration,"ax",%progbits
 528              		.align	2
 529              		.global	USBUART_GetConfiguration
 530              		.thumb
 531              		.thumb_func
 532              		.type	USBUART_GetConfiguration, %function
 533              	USBUART_GetConfiguration:
 534              	.LFB6:
 859:Generated_Source\PSoC5/USBUART.c **** 
 860:Generated_Source\PSoC5/USBUART.c **** 
 861:Generated_Source\PSoC5/USBUART.c **** /*******************************************************************************
 862:Generated_Source\PSoC5/USBUART.c **** * Function Name: USBUART_GetConfiguration
 863:Generated_Source\PSoC5/USBUART.c **** ****************************************************************************//**
 864:Generated_Source\PSoC5/USBUART.c **** *
 865:Generated_Source\PSoC5/USBUART.c **** *  This function gets the current configuration of the USB device.
 866:Generated_Source\PSoC5/USBUART.c **** *
 867:Generated_Source\PSoC5/USBUART.c **** * \return
 868:Generated_Source\PSoC5/USBUART.c **** *  Returns the currently assigned configuration. Returns 0 if the device
 869:Generated_Source\PSoC5/USBUART.c **** *  is not configured
 870:Generated_Source\PSoC5/USBUART.c **** *
 871:Generated_Source\PSoC5/USBUART.c **** *******************************************************************************/
 872:Generated_Source\PSoC5/USBUART.c **** uint8 USBUART_GetConfiguration(void) 
 873:Generated_Source\PSoC5/USBUART.c **** {
 535              		.loc 1 873 0
 536              		.cfi_startproc
 537              		@ args = 0, pretend = 0, frame = 0
 538              		@ frame_needed = 0, uses_anonymous_args = 0
 539              		@ link register save eliminated.
 874:Generated_Source\PSoC5/USBUART.c ****     return (USBUART_configuration);
 540              		.loc 1 874 0
 541 0000 014B     		ldr	r3, .L29
 542 0002 1878     		ldrb	r0, [r3]	@ zero_extendqisi2
 875:Generated_Source\PSoC5/USBUART.c **** }
 543              		.loc 1 875 0
ARM GAS  C:\Users\ingan\AppData\Local\Temp\ccMtFi7x.s 			page 26


 544 0004 7047     		bx	lr
 545              	.L30:
 546 0006 00BF     		.align	2
 547              	.L29:
 548 0008 00000000 		.word	USBUART_configuration
 549              		.cfi_endproc
 550              	.LFE6:
 551              		.size	USBUART_GetConfiguration, .-USBUART_GetConfiguration
 552              		.section	.text.USBUART_IsConfigurationChanged,"ax",%progbits
 553              		.align	2
 554              		.global	USBUART_IsConfigurationChanged
 555              		.thumb
 556              		.thumb_func
 557              		.type	USBUART_IsConfigurationChanged, %function
 558              	USBUART_IsConfigurationChanged:
 559              	.LFB7:
 876:Generated_Source\PSoC5/USBUART.c **** 
 877:Generated_Source\PSoC5/USBUART.c **** 
 878:Generated_Source\PSoC5/USBUART.c **** /*******************************************************************************
 879:Generated_Source\PSoC5/USBUART.c **** * Function Name: USBUART_IsConfigurationChanged
 880:Generated_Source\PSoC5/USBUART.c **** ****************************************************************************//**
 881:Generated_Source\PSoC5/USBUART.c **** *
 882:Generated_Source\PSoC5/USBUART.c **** *  This function returns the clear-on-read configuration state.  It is useful
 883:Generated_Source\PSoC5/USBUART.c **** *  when the host sends double SET_CONFIGURATION request with the same 
 884:Generated_Source\PSoC5/USBUART.c **** *  configuration number or changes alternate settings of the interface. 
 885:Generated_Source\PSoC5/USBUART.c **** *  After configuration has been changed the OUT endpoints must be enabled and IN 
 886:Generated_Source\PSoC5/USBUART.c **** *  endpoint must be loaded with data to start communication with the host.
 887:Generated_Source\PSoC5/USBUART.c **** *
 888:Generated_Source\PSoC5/USBUART.c **** * \return
 889:Generated_Source\PSoC5/USBUART.c **** *  None-zero value when new configuration has been changed, otherwise zero is
 890:Generated_Source\PSoC5/USBUART.c **** *  returned.
 891:Generated_Source\PSoC5/USBUART.c **** *
 892:Generated_Source\PSoC5/USBUART.c **** * \globalvars
 893:Generated_Source\PSoC5/USBUART.c **** *
 894:Generated_Source\PSoC5/USBUART.c **** *  \ref USBUART_configurationChanged - This variable is set to 1 after
 895:Generated_Source\PSoC5/USBUART.c **** *   a SET_CONFIGURATION request and cleared in this function.
 896:Generated_Source\PSoC5/USBUART.c **** *
 897:Generated_Source\PSoC5/USBUART.c **** *******************************************************************************/
 898:Generated_Source\PSoC5/USBUART.c **** uint8 USBUART_IsConfigurationChanged(void) 
 899:Generated_Source\PSoC5/USBUART.c **** {
 560              		.loc 1 899 0
 561              		.cfi_startproc
 562              		@ args = 0, pretend = 0, frame = 0
 563              		@ frame_needed = 0, uses_anonymous_args = 0
 564              		@ link register save eliminated.
 565              	.LVL36:
 900:Generated_Source\PSoC5/USBUART.c ****     uint8 res = 0u;
 901:Generated_Source\PSoC5/USBUART.c **** 
 902:Generated_Source\PSoC5/USBUART.c ****     if (USBUART_configurationChanged != 0u)
 566              		.loc 1 902 0
 567 0000 064B     		ldr	r3, .L34
 568 0002 1B78     		ldrb	r3, [r3]	@ zero_extendqisi2
 569 0004 13F0FF0F 		tst	r3, #255
 570 0008 05D0     		beq	.L33
 903:Generated_Source\PSoC5/USBUART.c ****     {
 904:Generated_Source\PSoC5/USBUART.c ****         res = USBUART_configurationChanged;
 571              		.loc 1 904 0
ARM GAS  C:\Users\ingan\AppData\Local\Temp\ccMtFi7x.s 			page 27


 572 000a 044B     		ldr	r3, .L34
 573 000c 1878     		ldrb	r0, [r3]	@ zero_extendqisi2
 574 000e C0B2     		uxtb	r0, r0
 575              	.LVL37:
 905:Generated_Source\PSoC5/USBUART.c ****         USBUART_configurationChanged = 0u;
 576              		.loc 1 905 0
 577 0010 0022     		movs	r2, #0
 578 0012 1A70     		strb	r2, [r3]
 579 0014 7047     		bx	lr
 580              	.LVL38:
 581              	.L33:
 900:Generated_Source\PSoC5/USBUART.c ****     uint8 res = 0u;
 582              		.loc 1 900 0
 583 0016 0020     		movs	r0, #0
 584              	.LVL39:
 906:Generated_Source\PSoC5/USBUART.c ****     }
 907:Generated_Source\PSoC5/USBUART.c **** 
 908:Generated_Source\PSoC5/USBUART.c ****     return (res);
 909:Generated_Source\PSoC5/USBUART.c **** }
 585              		.loc 1 909 0
 586 0018 7047     		bx	lr
 587              	.L35:
 588 001a 00BF     		.align	2
 589              	.L34:
 590 001c 00000000 		.word	USBUART_configurationChanged
 591              		.cfi_endproc
 592              	.LFE7:
 593              		.size	USBUART_IsConfigurationChanged, .-USBUART_IsConfigurationChanged
 594              		.section	.text.USBUART_GetInterfaceSetting,"ax",%progbits
 595              		.align	2
 596              		.global	USBUART_GetInterfaceSetting
 597              		.thumb
 598              		.thumb_func
 599              		.type	USBUART_GetInterfaceSetting, %function
 600              	USBUART_GetInterfaceSetting:
 601              	.LFB8:
 910:Generated_Source\PSoC5/USBUART.c **** 
 911:Generated_Source\PSoC5/USBUART.c **** 
 912:Generated_Source\PSoC5/USBUART.c **** /*******************************************************************************
 913:Generated_Source\PSoC5/USBUART.c **** * Function Name: USBUART_GetInterfaceSetting
 914:Generated_Source\PSoC5/USBUART.c **** ****************************************************************************//**
 915:Generated_Source\PSoC5/USBUART.c **** *
 916:Generated_Source\PSoC5/USBUART.c **** *  This function gets the current alternate setting for the specified interface.
 917:Generated_Source\PSoC5/USBUART.c **** *  It is useful to identify which alternate settings are active in the specified 
 918:Generated_Source\PSoC5/USBUART.c **** *  interface.
 919:Generated_Source\PSoC5/USBUART.c **** *
 920:Generated_Source\PSoC5/USBUART.c **** *  \param
 921:Generated_Source\PSoC5/USBUART.c **** *  interfaceNumber interface number
 922:Generated_Source\PSoC5/USBUART.c **** *
 923:Generated_Source\PSoC5/USBUART.c **** * \return
 924:Generated_Source\PSoC5/USBUART.c **** *  Returns the current alternate setting for the specified interface.
 925:Generated_Source\PSoC5/USBUART.c **** *
 926:Generated_Source\PSoC5/USBUART.c **** *******************************************************************************/
 927:Generated_Source\PSoC5/USBUART.c **** uint8  USBUART_GetInterfaceSetting(uint8 interfaceNumber)
 928:Generated_Source\PSoC5/USBUART.c ****                                                     
 929:Generated_Source\PSoC5/USBUART.c **** {
 602              		.loc 1 929 0
ARM GAS  C:\Users\ingan\AppData\Local\Temp\ccMtFi7x.s 			page 28


 603              		.cfi_startproc
 604              		@ args = 0, pretend = 0, frame = 0
 605              		@ frame_needed = 0, uses_anonymous_args = 0
 606              		@ link register save eliminated.
 607              	.LVL40:
 930:Generated_Source\PSoC5/USBUART.c ****     return (USBUART_interfaceSetting[interfaceNumber]);
 608              		.loc 1 930 0
 609 0000 014B     		ldr	r3, .L37
 610 0002 185C     		ldrb	r0, [r3, r0]	@ zero_extendqisi2
 611              	.LVL41:
 931:Generated_Source\PSoC5/USBUART.c **** }
 612              		.loc 1 931 0
 613 0004 7047     		bx	lr
 614              	.L38:
 615 0006 00BF     		.align	2
 616              	.L37:
 617 0008 00000000 		.word	USBUART_interfaceSetting
 618              		.cfi_endproc
 619              	.LFE8:
 620              		.size	USBUART_GetInterfaceSetting, .-USBUART_GetInterfaceSetting
 621              		.section	.text.USBUART_GetEPState,"ax",%progbits
 622              		.align	2
 623              		.global	USBUART_GetEPState
 624              		.thumb
 625              		.thumb_func
 626              		.type	USBUART_GetEPState, %function
 627              	USBUART_GetEPState:
 628              	.LFB9:
 932:Generated_Source\PSoC5/USBUART.c **** 
 933:Generated_Source\PSoC5/USBUART.c **** 
 934:Generated_Source\PSoC5/USBUART.c **** /*******************************************************************************
 935:Generated_Source\PSoC5/USBUART.c **** * Function Name: USBUART_GetEPState
 936:Generated_Source\PSoC5/USBUART.c **** ****************************************************************************//**
 937:Generated_Source\PSoC5/USBUART.c **** *
 938:Generated_Source\PSoC5/USBUART.c **** *  This function returns the state of the requested endpoint.
 939:Generated_Source\PSoC5/USBUART.c **** *
 940:Generated_Source\PSoC5/USBUART.c **** * \param epNumber Data endpoint number
 941:Generated_Source\PSoC5/USBUART.c **** *
 942:Generated_Source\PSoC5/USBUART.c **** * \return
 943:Generated_Source\PSoC5/USBUART.c **** *  Returns the current state of the specified USBFS endpoint. Symbolic names and
 944:Generated_Source\PSoC5/USBUART.c **** *  their associated values are given in the following table. Use these constants
 945:Generated_Source\PSoC5/USBUART.c **** *  whenever you write code to change the state of the endpoints, such as ISR
 946:Generated_Source\PSoC5/USBUART.c **** *  code, to handle data sent or received.
 947:Generated_Source\PSoC5/USBUART.c **** *
 948:Generated_Source\PSoC5/USBUART.c **** *  Return Value           | Description
 949:Generated_Source\PSoC5/USBUART.c **** *  -----------------------|-----------------------------------------------------
 950:Generated_Source\PSoC5/USBUART.c **** *  USBFS_NO_EVENT_PENDING |The endpoint is awaiting SIE action
 951:Generated_Source\PSoC5/USBUART.c **** *  USBFS_EVENT_PENDING    |The endpoint is awaiting CPU action
 952:Generated_Source\PSoC5/USBUART.c **** *  USBFS_NO_EVENT_ALLOWED |The endpoint is locked from access
 953:Generated_Source\PSoC5/USBUART.c **** *  USBFS_IN_BUFFER_FULL   |The IN endpoint is loaded and the mode is set to ACK IN
 954:Generated_Source\PSoC5/USBUART.c **** *  USBFS_IN_BUFFER_EMPTY  |An IN transaction occurred and more data can be loaded
 955:Generated_Source\PSoC5/USBUART.c **** *  USBFS_OUT_BUFFER_EMPTY |The OUT endpoint is set to ACK OUT and is waiting for data
 956:Generated_Source\PSoC5/USBUART.c **** *  USBFS_OUT_BUFFER_FULL  |An OUT transaction has occurred and data can be read
 957:Generated_Source\PSoC5/USBUART.c **** *
 958:Generated_Source\PSoC5/USBUART.c **** *******************************************************************************/
 959:Generated_Source\PSoC5/USBUART.c **** uint8 USBUART_GetEPState(uint8 epNumber) 
 960:Generated_Source\PSoC5/USBUART.c **** {
ARM GAS  C:\Users\ingan\AppData\Local\Temp\ccMtFi7x.s 			page 29


 629              		.loc 1 960 0
 630              		.cfi_startproc
 631              		@ args = 0, pretend = 0, frame = 0
 632              		@ frame_needed = 0, uses_anonymous_args = 0
 633              		@ link register save eliminated.
 634              	.LVL42:
 961:Generated_Source\PSoC5/USBUART.c ****     return (USBUART_EP[epNumber].apiEpState);
 635              		.loc 1 961 0
 636 0000 00EB4000 		add	r0, r0, r0, lsl #1
 637              	.LVL43:
 638 0004 8300     		lsls	r3, r0, #2
 639 0006 024A     		ldr	r2, .L40
 640 0008 1344     		add	r3, r3, r2
 641 000a 5878     		ldrb	r0, [r3, #1]	@ zero_extendqisi2
 962:Generated_Source\PSoC5/USBUART.c **** }
 642              		.loc 1 962 0
 643 000c 7047     		bx	lr
 644              	.L41:
 645 000e 00BF     		.align	2
 646              	.L40:
 647 0010 00000000 		.word	USBUART_EP
 648              		.cfi_endproc
 649              	.LFE9:
 650              		.size	USBUART_GetEPState, .-USBUART_GetEPState
 651              		.section	.text.USBUART_GetEPCount,"ax",%progbits
 652              		.align	2
 653              		.global	USBUART_GetEPCount
 654              		.thumb
 655              		.thumb_func
 656              		.type	USBUART_GetEPCount, %function
 657              	USBUART_GetEPCount:
 658              	.LFB10:
 963:Generated_Source\PSoC5/USBUART.c **** 
 964:Generated_Source\PSoC5/USBUART.c **** 
 965:Generated_Source\PSoC5/USBUART.c **** /*******************************************************************************
 966:Generated_Source\PSoC5/USBUART.c **** * Function Name: USBUART_GetEPCount
 967:Generated_Source\PSoC5/USBUART.c **** ****************************************************************************//**
 968:Generated_Source\PSoC5/USBUART.c **** *
 969:Generated_Source\PSoC5/USBUART.c **** *  This function supports Data Endpoints only(EP1-EP8).
 970:Generated_Source\PSoC5/USBUART.c **** *  Returns the transfer count for the requested endpoint.  The value from
 971:Generated_Source\PSoC5/USBUART.c **** *  the count registers includes 2 counts for the two byte checksum of the
 972:Generated_Source\PSoC5/USBUART.c **** *  packet.  This function subtracts the two counts.
 973:Generated_Source\PSoC5/USBUART.c **** *
 974:Generated_Source\PSoC5/USBUART.c **** *  \param epNumber Data Endpoint Number.
 975:Generated_Source\PSoC5/USBUART.c **** *                   Valid values are between 1 and 8.
 976:Generated_Source\PSoC5/USBUART.c **** *
 977:Generated_Source\PSoC5/USBUART.c **** * \return
 978:Generated_Source\PSoC5/USBUART.c **** *  Returns the current byte count from the specified endpoint or 0 for an
 979:Generated_Source\PSoC5/USBUART.c **** *  invalid endpoint.
 980:Generated_Source\PSoC5/USBUART.c **** *
 981:Generated_Source\PSoC5/USBUART.c **** *******************************************************************************/
 982:Generated_Source\PSoC5/USBUART.c **** uint16 USBUART_GetEPCount(uint8 epNumber) 
 983:Generated_Source\PSoC5/USBUART.c **** {
 659              		.loc 1 983 0
 660              		.cfi_startproc
 661              		@ args = 0, pretend = 0, frame = 0
 662              		@ frame_needed = 0, uses_anonymous_args = 0
ARM GAS  C:\Users\ingan\AppData\Local\Temp\ccMtFi7x.s 			page 30


 663              		@ link register save eliminated.
 664              	.LVL44:
 984:Generated_Source\PSoC5/USBUART.c ****     uint16 cntr = 0u;
 985:Generated_Source\PSoC5/USBUART.c **** 
 986:Generated_Source\PSoC5/USBUART.c ****     if ((epNumber > USBUART_EP0) && (epNumber < USBUART_MAX_EP))
 665              		.loc 1 986 0
 666 0000 431E     		subs	r3, r0, #1
 667 0002 DBB2     		uxtb	r3, r3
 668 0004 072B     		cmp	r3, #7
 669 0006 0BD8     		bhi	.L44
 987:Generated_Source\PSoC5/USBUART.c ****     {
 988:Generated_Source\PSoC5/USBUART.c ****         /* Get 11-bits EP counter where epCnt0 - 3 bits MSB and epCnt1 - 8 bits LSB. */
 989:Generated_Source\PSoC5/USBUART.c ****         cntr  = ((uint16) USBUART_SIE_EP_BASE.sieEp[epNumber].epCnt0) & USBUART_EPX_CNT0_MASK;
 670              		.loc 1 989 0
 671 0008 064B     		ldr	r3, .L45
 672 000a 0001     		lsls	r0, r0, #4
 673              	.LVL45:
 674 000c 1A18     		adds	r2, r3, r0
 675 000e 185C     		ldrb	r0, [r3, r0]	@ zero_extendqisi2
 676 0010 00F00F00 		and	r0, r0, #15
 677              	.LVL46:
 990:Generated_Source\PSoC5/USBUART.c ****         cntr  = ((uint16) (cntr << 8u)) | ((uint16) USBUART_SIE_EP_BASE.sieEp[epNumber].epCnt1);
 678              		.loc 1 990 0
 679 0014 5378     		ldrb	r3, [r2, #1]	@ zero_extendqisi2
 680 0016 43EA0020 		orr	r0, r3, r0, lsl #8
 681              	.LVL47:
 991:Generated_Source\PSoC5/USBUART.c ****         cntr -= USBUART_EPX_CNTX_CRC_COUNT;
 682              		.loc 1 991 0
 683 001a 0238     		subs	r0, r0, #2
 684              	.LVL48:
 685 001c 80B2     		uxth	r0, r0
 686              	.LVL49:
 687 001e 7047     		bx	lr
 688              	.LVL50:
 689              	.L44:
 984:Generated_Source\PSoC5/USBUART.c **** 
 690              		.loc 1 984 0
 691 0020 0020     		movs	r0, #0
 692              	.LVL51:
 992:Generated_Source\PSoC5/USBUART.c ****     }
 993:Generated_Source\PSoC5/USBUART.c **** 
 994:Generated_Source\PSoC5/USBUART.c ****     return (cntr);
 995:Generated_Source\PSoC5/USBUART.c **** }
 693              		.loc 1 995 0
 694 0022 7047     		bx	lr
 695              	.L46:
 696              		.align	2
 697              	.L45:
 698 0024 FC5F0040 		.word	1073766396
 699              		.cfi_endproc
 700              	.LFE10:
 701              		.size	USBUART_GetEPCount, .-USBUART_GetEPCount
 702              		.section	.text.USBUART_InitEP_DMA,"ax",%progbits
 703              		.align	2
 704              		.global	USBUART_InitEP_DMA
 705              		.thumb
 706              		.thumb_func
ARM GAS  C:\Users\ingan\AppData\Local\Temp\ccMtFi7x.s 			page 31


 707              		.type	USBUART_InitEP_DMA, %function
 708              	USBUART_InitEP_DMA:
 709              	.LFB11:
 996:Generated_Source\PSoC5/USBUART.c **** 
 997:Generated_Source\PSoC5/USBUART.c **** 
 998:Generated_Source\PSoC5/USBUART.c **** #if (USBUART_EP_MANAGEMENT_DMA)
 999:Generated_Source\PSoC5/USBUART.c **** #if (CY_PSOC4)
1000:Generated_Source\PSoC5/USBUART.c ****     /*******************************************************************************
1001:Generated_Source\PSoC5/USBUART.c ****     * Function Name: USBUART_InitEpDma
1002:Generated_Source\PSoC5/USBUART.c ****     ****************************************************************************//**
1003:Generated_Source\PSoC5/USBUART.c ****     *
1004:Generated_Source\PSoC5/USBUART.c ****     *  This function configures priority for all DMA channels utilized by the
1005:Generated_Source\PSoC5/USBUART.c ****     *  component. Also sets callbacks for DMA auto mode.
1006:Generated_Source\PSoC5/USBUART.c ****     *
1007:Generated_Source\PSoC5/USBUART.c ****     *******************************************************************************/
1008:Generated_Source\PSoC5/USBUART.c ****     static void USBUART_InitEpDma(void)
1009:Generated_Source\PSoC5/USBUART.c ****     {
1010:Generated_Source\PSoC5/USBUART.c ****     #if (USBUART_DMA1_ACTIVE)
1011:Generated_Source\PSoC5/USBUART.c ****         CYDMA_CH_CTL_BASE.ctl[USBUART_ep1_dma_CHANNEL] = USBUART_ep1_dma_CHANNEL_CFG;
1012:Generated_Source\PSoC5/USBUART.c ****     #endif /* (USBUART_DMA1_ACTIVE) */
1013:Generated_Source\PSoC5/USBUART.c **** 
1014:Generated_Source\PSoC5/USBUART.c ****     #if (USBUART_DMA2_ACTIVE)
1015:Generated_Source\PSoC5/USBUART.c ****         CYDMA_CH_CTL_BASE.ctl[USBUART_ep2_dma_CHANNEL] = USBUART_ep2_dma_CHANNEL_CFG;
1016:Generated_Source\PSoC5/USBUART.c ****     #endif /* (USBUART_DMA2_ACTIVE) */
1017:Generated_Source\PSoC5/USBUART.c **** 
1018:Generated_Source\PSoC5/USBUART.c ****     #if (USBUART_DMA3_ACTIVE)
1019:Generated_Source\PSoC5/USBUART.c ****         CYDMA_CH_CTL_BASE.ctl[USBUART_ep3_dma_CHANNEL] = USBUART_ep3_dma_CHANNEL_CFG;
1020:Generated_Source\PSoC5/USBUART.c ****     #endif /* (USBUART_DMA3_ACTIVE) */
1021:Generated_Source\PSoC5/USBUART.c **** 
1022:Generated_Source\PSoC5/USBUART.c ****     #if (USBUART_DMA4_ACTIVE)
1023:Generated_Source\PSoC5/USBUART.c ****         CYDMA_CH_CTL_BASE.ctl[USBUART_ep4_dma_CHANNEL] = USBUART_ep4_dma_CHANNEL_CFG;
1024:Generated_Source\PSoC5/USBUART.c ****     #endif /* (USBUART_DMA4_ACTIVE) */
1025:Generated_Source\PSoC5/USBUART.c **** 
1026:Generated_Source\PSoC5/USBUART.c ****     #if (USBUART_DMA5_ACTIVE)
1027:Generated_Source\PSoC5/USBUART.c ****         CYDMA_CH_CTL_BASE.ctl[USBUART_ep5_dma_CHANNEL] = USBUART_ep5_dma_CHANNEL_CFG;
1028:Generated_Source\PSoC5/USBUART.c ****     #endif /* (USBUART_DMA5_ACTIVE) */
1029:Generated_Source\PSoC5/USBUART.c **** 
1030:Generated_Source\PSoC5/USBUART.c ****     #if (USBUART_DMA6_ACTIVE)
1031:Generated_Source\PSoC5/USBUART.c ****         CYDMA_CH_CTL_BASE.ctl[USBUART_ep6_dma_CHANNEL] = USBUART_ep6_dma_CHANNEL_CFG;
1032:Generated_Source\PSoC5/USBUART.c ****     #endif /* (USBUART_DMA6_ACTIVE) */
1033:Generated_Source\PSoC5/USBUART.c **** 
1034:Generated_Source\PSoC5/USBUART.c ****     #if (USBUART_DMA7_ACTIVE)
1035:Generated_Source\PSoC5/USBUART.c ****         CYDMA_CH_CTL_BASE.ctl[USBUART_ep7_dma_CHANNEL] = USBUART_ep7_dma_CHANNEL_CFG;
1036:Generated_Source\PSoC5/USBUART.c ****     #endif /* (USBUART_DMA7_ACTIVE) */
1037:Generated_Source\PSoC5/USBUART.c **** 
1038:Generated_Source\PSoC5/USBUART.c ****     #if (USBUART_DMA8_ACTIVE)
1039:Generated_Source\PSoC5/USBUART.c ****         CYDMA_CH_CTL_BASE.ctl[USBUART_ep8_dma_CHANNEL] = USBUART_ep8_dma_CHANNEL_CFG;
1040:Generated_Source\PSoC5/USBUART.c ****     #endif /* (USBUART_DMA8_ACTIVE) */
1041:Generated_Source\PSoC5/USBUART.c **** 
1042:Generated_Source\PSoC5/USBUART.c ****     #if (USBUART_EP_MANAGEMENT_DMA_AUTO)
1043:Generated_Source\PSoC5/USBUART.c ****         /* Initialize DMA channel callbacks. */
1044:Generated_Source\PSoC5/USBUART.c ****         #if (USBUART_DMA1_ACTIVE)
1045:Generated_Source\PSoC5/USBUART.c ****             (void) USBUART_ep1_dma_SetInterruptCallback(&USBUART_EP1_DMA_DONE_ISR);
1046:Generated_Source\PSoC5/USBUART.c ****         #endif /* (USBUART_DMA1_ACTIVE) */
1047:Generated_Source\PSoC5/USBUART.c **** 
1048:Generated_Source\PSoC5/USBUART.c ****         #if (USBUART_DMA2_ACTIVE)
1049:Generated_Source\PSoC5/USBUART.c ****             (void) USBUART_ep2_dma_SetInterruptCallback(&USBUART_EP2_DMA_DONE_ISR);
ARM GAS  C:\Users\ingan\AppData\Local\Temp\ccMtFi7x.s 			page 32


1050:Generated_Source\PSoC5/USBUART.c ****         #endif /* (USBUART_DMA2_ACTIVE) */
1051:Generated_Source\PSoC5/USBUART.c **** 
1052:Generated_Source\PSoC5/USBUART.c ****         #if (USBUART_DMA3_ACTIVE)
1053:Generated_Source\PSoC5/USBUART.c ****             (void) USBUART_ep3_dma_SetInterruptCallback(&USBUART_EP3_DMA_DONE_ISR);
1054:Generated_Source\PSoC5/USBUART.c ****         #endif /* (USBUART_DMA3_ACTIVE) */
1055:Generated_Source\PSoC5/USBUART.c **** 
1056:Generated_Source\PSoC5/USBUART.c ****         #if (USBUART_DMA4_ACTIVE)
1057:Generated_Source\PSoC5/USBUART.c ****             (void) USBUART_ep4_dma_SetInterruptCallback(&USBUART_EP4_DMA_DONE_ISR);
1058:Generated_Source\PSoC5/USBUART.c ****         #endif /* (USBUART_DMA4_ACTIVE) */
1059:Generated_Source\PSoC5/USBUART.c **** 
1060:Generated_Source\PSoC5/USBUART.c ****         #if (USBUART_DMA5_ACTIVE)
1061:Generated_Source\PSoC5/USBUART.c ****             (void) USBUART_ep5_dma_SetInterruptCallback(&USBUART_EP5_DMA_DONE_ISR);
1062:Generated_Source\PSoC5/USBUART.c ****         #endif /* (USBUART_DMA5_ACTIVE) */
1063:Generated_Source\PSoC5/USBUART.c **** 
1064:Generated_Source\PSoC5/USBUART.c ****         #if (USBUART_DMA6_ACTIVE)
1065:Generated_Source\PSoC5/USBUART.c ****             (void) USBUART_ep6_dma_SetInterruptCallback(&USBUART_EP6_DMA_DONE_ISR);
1066:Generated_Source\PSoC5/USBUART.c ****         #endif /* (USBUART_DMA6_ACTIVE) */
1067:Generated_Source\PSoC5/USBUART.c **** 
1068:Generated_Source\PSoC5/USBUART.c ****         #if (USBUART_DMA7_ACTIVE)
1069:Generated_Source\PSoC5/USBUART.c ****             (void) USBUART_ep7_dma_SetInterruptCallback(&USBUART_EP7_DMA_DONE_ISR);
1070:Generated_Source\PSoC5/USBUART.c ****         #endif /* (USBUART_DMA7_ACTIVE) */
1071:Generated_Source\PSoC5/USBUART.c **** 
1072:Generated_Source\PSoC5/USBUART.c ****         #if (USBUART_DMA8_ACTIVE)
1073:Generated_Source\PSoC5/USBUART.c ****             (void) USBUART_ep8_dma_SetInterruptCallback(&USBUART_EP8_DMA_DONE_ISR);
1074:Generated_Source\PSoC5/USBUART.c ****         #endif /* (USBUART_DMA8_ACTIVE) */
1075:Generated_Source\PSoC5/USBUART.c ****     #endif /* (USBUART_EP_MANAGEMENT_DMA_AUTO) */
1076:Generated_Source\PSoC5/USBUART.c ****     }
1077:Generated_Source\PSoC5/USBUART.c **** #else
1078:Generated_Source\PSoC5/USBUART.c **** 
1079:Generated_Source\PSoC5/USBUART.c **** 
1080:Generated_Source\PSoC5/USBUART.c ****     /***************************************************************************
1081:Generated_Source\PSoC5/USBUART.c ****     * Function Name: USBUART_InitEP_DMA
1082:Generated_Source\PSoC5/USBUART.c ****     ************************************************************************//**
1083:Generated_Source\PSoC5/USBUART.c ****     *
1084:Generated_Source\PSoC5/USBUART.c ****     *  This function allocates and initializes a DMA channel to be used by the
1085:Generated_Source\PSoC5/USBUART.c ****     *  USBUART_LoadInEP() or USBUART_ReadOutEP() APIs for data
1086:Generated_Source\PSoC5/USBUART.c ****     *  transfer. It is available when the Endpoint Memory Management parameter
1087:Generated_Source\PSoC5/USBUART.c ****     *  is set to DMA.
1088:Generated_Source\PSoC5/USBUART.c ****     *
1089:Generated_Source\PSoC5/USBUART.c ****     *  This function is automatically called from the USBFS_LoadInEP() and USBFS_ReadOutEP() APIs.
1090:Generated_Source\PSoC5/USBUART.c ****     *
1091:Generated_Source\PSoC5/USBUART.c ****     *  \param epNumber Contains the data endpoint number.
1092:Generated_Source\PSoC5/USBUART.c ****     *            Valid values are between 1 and 8.
1093:Generated_Source\PSoC5/USBUART.c ****     *  \param *pData Pointer to a data array that is related to the EP transfers.
1094:Generated_Source\PSoC5/USBUART.c ****     *
1095:Generated_Source\PSoC5/USBUART.c ****     * \reentrant No.
1096:Generated_Source\PSoC5/USBUART.c ****     *
1097:Generated_Source\PSoC5/USBUART.c ****     ***************************************************************************/
1098:Generated_Source\PSoC5/USBUART.c ****     void USBUART_InitEP_DMA(uint8 epNumber, const uint8 *pData)
1099:Generated_Source\PSoC5/USBUART.c ****                                                                     
1100:Generated_Source\PSoC5/USBUART.c ****     {
 710              		.loc 1 1100 0
 711              		.cfi_startproc
 712              		@ args = 0, pretend = 0, frame = 0
 713              		@ frame_needed = 0, uses_anonymous_args = 0
 714              	.LVL52:
 715 0000 10B5     		push	{r4, lr}
ARM GAS  C:\Users\ingan\AppData\Local\Temp\ccMtFi7x.s 			page 33


 716              		.cfi_def_cfa_offset 8
 717              		.cfi_offset 4, -8
 718              		.cfi_offset 14, -4
 719 0002 0446     		mov	r4, r0
1101:Generated_Source\PSoC5/USBUART.c ****         uint16 src;
1102:Generated_Source\PSoC5/USBUART.c ****         uint16 dst;
1103:Generated_Source\PSoC5/USBUART.c **** 
1104:Generated_Source\PSoC5/USBUART.c ****     #if (CY_PSOC3)
1105:Generated_Source\PSoC5/USBUART.c ****         src = HI16(CYDEV_SRAM_BASE);
1106:Generated_Source\PSoC5/USBUART.c ****         dst = HI16(CYDEV_PERIPH_BASE);
1107:Generated_Source\PSoC5/USBUART.c ****         pData = pData;
1108:Generated_Source\PSoC5/USBUART.c ****     #else
1109:Generated_Source\PSoC5/USBUART.c ****         if ((USBUART_EP[epNumber].addr & USBUART_DIR_IN) != 0u)
 720              		.loc 1 1109 0
 721 0004 00EB4003 		add	r3, r0, r0, lsl #1
 722 0008 9800     		lsls	r0, r3, #2
 723              	.LVL53:
 724 000a 184B     		ldr	r3, .L56
 725 000c 1844     		add	r0, r0, r3
 726 000e 0379     		ldrb	r3, [r0, #4]	@ zero_extendqisi2
 727 0010 13F0800F 		tst	r3, #128
 728 0014 03D0     		beq	.L48
1110:Generated_Source\PSoC5/USBUART.c ****         {
1111:Generated_Source\PSoC5/USBUART.c ****             /* IN endpoint: source is memory buffer. */
1112:Generated_Source\PSoC5/USBUART.c ****             src = HI16(pData);
 729              		.loc 1 1112 0
 730 0016 0A0C     		lsrs	r2, r1, #16
 731              	.LVL54:
1113:Generated_Source\PSoC5/USBUART.c ****             dst = HI16(CYDEV_PERIPH_BASE);
 732              		.loc 1 1113 0
 733 0018 4FF48043 		mov	r3, #16384
 734 001c 02E0     		b	.L49
 735              	.LVL55:
 736              	.L48:
1114:Generated_Source\PSoC5/USBUART.c ****         }
1115:Generated_Source\PSoC5/USBUART.c ****         else
1116:Generated_Source\PSoC5/USBUART.c ****         {
1117:Generated_Source\PSoC5/USBUART.c ****             /* OUT endpoint: source is USB IP memory buffer. */
1118:Generated_Source\PSoC5/USBUART.c ****             src = HI16(CYDEV_PERIPH_BASE);
1119:Generated_Source\PSoC5/USBUART.c ****             dst = HI16(pData);
 737              		.loc 1 1119 0
 738 001e 0B0C     		lsrs	r3, r1, #16
 739              	.LVL56:
1118:Generated_Source\PSoC5/USBUART.c ****             dst = HI16(pData);
 740              		.loc 1 1118 0
 741 0020 4FF48042 		mov	r2, #16384
 742              	.LVL57:
 743              	.L49:
1120:Generated_Source\PSoC5/USBUART.c ****         }
1121:Generated_Source\PSoC5/USBUART.c ****     #endif  /* (CY_PSOC3) */
1122:Generated_Source\PSoC5/USBUART.c **** 
1123:Generated_Source\PSoC5/USBUART.c ****         switch(epNumber)
 744              		.loc 1 1123 0
 745 0024 022C     		cmp	r4, #2
 746 0026 0AD0     		beq	.L51
 747 0028 032C     		cmp	r4, #3
 748 002a 0FD0     		beq	.L52
ARM GAS  C:\Users\ingan\AppData\Local\Temp\ccMtFi7x.s 			page 34


 749 002c 012C     		cmp	r4, #1
 750 002e 13D1     		bne	.L50
1124:Generated_Source\PSoC5/USBUART.c ****         {
1125:Generated_Source\PSoC5/USBUART.c ****     #if (USBUART_DMA1_ACTIVE)
1126:Generated_Source\PSoC5/USBUART.c ****         case USBUART_EP1:
1127:Generated_Source\PSoC5/USBUART.c ****             USBUART_DmaChan[epNumber] = USBUART_ep1_DmaInitialize(USBUART_DMA_BYTES_PER_BURST,
 751              		.loc 1 1127 0
 752 0030 0021     		movs	r1, #0
 753              	.LVL58:
 754 0032 0846     		mov	r0, r1
 755 0034 FFF7FEFF 		bl	USBUART_ep1_DmaInitialize
 756              	.LVL59:
 757 0038 0D4B     		ldr	r3, .L56+4
 758 003a 1855     		strb	r0, [r3, r4]
1128:Generated_Source\PSoC5/USBUART.c ****                                                                                     USBUART_DMA_REQ
1129:Generated_Source\PSoC5/USBUART.c ****             break;
 759              		.loc 1 1129 0
 760 003c 0CE0     		b	.L50
 761              	.LVL60:
 762              	.L51:
1130:Generated_Source\PSoC5/USBUART.c ****     #endif /* (USBUART_DMA1_ACTIVE) */
1131:Generated_Source\PSoC5/USBUART.c **** 
1132:Generated_Source\PSoC5/USBUART.c ****     #if (USBUART_DMA2_ACTIVE)
1133:Generated_Source\PSoC5/USBUART.c ****         case USBUART_EP2:
1134:Generated_Source\PSoC5/USBUART.c ****             USBUART_DmaChan[epNumber] = USBUART_ep2_DmaInitialize(USBUART_DMA_BYTES_PER_BURST,
 763              		.loc 1 1134 0
 764 003e 0021     		movs	r1, #0
 765              	.LVL61:
 766 0040 0846     		mov	r0, r1
 767 0042 FFF7FEFF 		bl	USBUART_ep2_DmaInitialize
 768              	.LVL62:
 769 0046 0A4B     		ldr	r3, .L56+4
 770 0048 1855     		strb	r0, [r3, r4]
1135:Generated_Source\PSoC5/USBUART.c ****                                                                                     USBUART_DMA_REQ
1136:Generated_Source\PSoC5/USBUART.c ****             break;
 771              		.loc 1 1136 0
 772 004a 05E0     		b	.L50
 773              	.LVL63:
 774              	.L52:
1137:Generated_Source\PSoC5/USBUART.c ****     #endif /* (USBUART_DMA2_ACTIVE) */
1138:Generated_Source\PSoC5/USBUART.c **** 
1139:Generated_Source\PSoC5/USBUART.c ****     #if (USBUART_DMA3_ACTIVE)
1140:Generated_Source\PSoC5/USBUART.c ****             case USBUART_EP3:
1141:Generated_Source\PSoC5/USBUART.c ****                 USBUART_DmaChan[epNumber] = USBUART_ep3_DmaInitialize(USBUART_DMA_BYTES_PER_BURST,
 775              		.loc 1 1141 0
 776 004c 0021     		movs	r1, #0
 777              	.LVL64:
 778 004e 0846     		mov	r0, r1
 779 0050 FFF7FEFF 		bl	USBUART_ep3_DmaInitialize
 780              	.LVL65:
 781 0054 064B     		ldr	r3, .L56+4
 782 0056 1855     		strb	r0, [r3, r4]
 783              	.L50:
1142:Generated_Source\PSoC5/USBUART.c ****                                                                                         USBUART_DMA
1143:Generated_Source\PSoC5/USBUART.c ****             break;
1144:Generated_Source\PSoC5/USBUART.c ****     #endif /* (USBUART_DMA3_ACTIVE) */
1145:Generated_Source\PSoC5/USBUART.c **** 
ARM GAS  C:\Users\ingan\AppData\Local\Temp\ccMtFi7x.s 			page 35


1146:Generated_Source\PSoC5/USBUART.c ****     #if (USBUART_DMA4_ACTIVE)
1147:Generated_Source\PSoC5/USBUART.c ****             case USBUART_EP4:
1148:Generated_Source\PSoC5/USBUART.c ****                 USBUART_DmaChan[epNumber] = USBUART_ep4_DmaInitialize(USBUART_DMA_BYTES_PER_BURST,
1149:Generated_Source\PSoC5/USBUART.c ****                                                                                         USBUART_DMA
1150:Generated_Source\PSoC5/USBUART.c ****             break;
1151:Generated_Source\PSoC5/USBUART.c ****     #endif /* (USBUART_DMA4_ACTIVE) */
1152:Generated_Source\PSoC5/USBUART.c **** 
1153:Generated_Source\PSoC5/USBUART.c ****     #if (USBUART_DMA5_ACTIVE)
1154:Generated_Source\PSoC5/USBUART.c ****             case USBUART_EP5:
1155:Generated_Source\PSoC5/USBUART.c ****                 USBUART_DmaChan[epNumber] = USBUART_ep5_DmaInitialize(USBUART_DMA_BYTES_PER_BURST,
1156:Generated_Source\PSoC5/USBUART.c ****                                                                                         USBUART_DMA
1157:Generated_Source\PSoC5/USBUART.c ****             break;
1158:Generated_Source\PSoC5/USBUART.c ****     #endif /* (USBUART_DMA5_ACTIVE) */
1159:Generated_Source\PSoC5/USBUART.c **** 
1160:Generated_Source\PSoC5/USBUART.c ****     #if (USBUART_DMA6_ACTIVE)
1161:Generated_Source\PSoC5/USBUART.c ****         case USBUART_EP6:
1162:Generated_Source\PSoC5/USBUART.c ****             USBUART_DmaChan[epNumber] = USBUART_ep6_DmaInitialize(USBUART_DMA_BYTES_PER_BURST,
1163:Generated_Source\PSoC5/USBUART.c ****                                                                                     USBUART_DMA_REQ
1164:Generated_Source\PSoC5/USBUART.c ****             break;
1165:Generated_Source\PSoC5/USBUART.c ****     #endif /* (USBUART_DMA6_ACTIVE) */
1166:Generated_Source\PSoC5/USBUART.c **** 
1167:Generated_Source\PSoC5/USBUART.c ****     #if (USBUART_DMA7_ACTIVE)
1168:Generated_Source\PSoC5/USBUART.c ****         case USBUART_EP7:
1169:Generated_Source\PSoC5/USBUART.c ****                 USBUART_DmaChan[epNumber] = USBUART_ep7_DmaInitialize(USBUART_DMA_BYTES_PER_BURST,
1170:Generated_Source\PSoC5/USBUART.c ****                                                                                         USBUART_DMA
1171:Generated_Source\PSoC5/USBUART.c ****             break;
1172:Generated_Source\PSoC5/USBUART.c ****     #endif /* (USBUART_DMA7_ACTIVE) */
1173:Generated_Source\PSoC5/USBUART.c **** 
1174:Generated_Source\PSoC5/USBUART.c ****     #if (USBUART_DMA8_ACTIVE)
1175:Generated_Source\PSoC5/USBUART.c ****         case USBUART_EP8:
1176:Generated_Source\PSoC5/USBUART.c ****                 USBUART_DmaChan[epNumber] = USBUART_ep8_DmaInitialize(USBUART_DMA_BYTES_PER_BURST,
1177:Generated_Source\PSoC5/USBUART.c ****                                                                                         USBUART_DMA
1178:Generated_Source\PSoC5/USBUART.c ****             break;
1179:Generated_Source\PSoC5/USBUART.c ****     #endif /* (USBUART_DMA8_ACTIVE) */
1180:Generated_Source\PSoC5/USBUART.c **** 
1181:Generated_Source\PSoC5/USBUART.c ****         default:
1182:Generated_Source\PSoC5/USBUART.c ****             /* Do nothing for endpoints other than 1-8. */
1183:Generated_Source\PSoC5/USBUART.c ****             break;
1184:Generated_Source\PSoC5/USBUART.c ****         }
1185:Generated_Source\PSoC5/USBUART.c **** 
1186:Generated_Source\PSoC5/USBUART.c ****         if ((epNumber > USBUART_EP0) && (epNumber < USBUART_MAX_EP))
 784              		.loc 1 1186 0
 785 0058 631E     		subs	r3, r4, #1
 786 005a DBB2     		uxtb	r3, r3
 787 005c 072B     		cmp	r3, #7
 788 005e 03D8     		bhi	.L47
1187:Generated_Source\PSoC5/USBUART.c ****         {
1188:Generated_Source\PSoC5/USBUART.c ****             USBUART_DmaTd[epNumber] = CyDmaTdAllocate();
 789              		.loc 1 1188 0
 790 0060 FFF7FEFF 		bl	CyDmaTdAllocate
 791              	.LVL66:
 792 0064 034B     		ldr	r3, .L56+8
 793 0066 1855     		strb	r0, [r3, r4]
 794              	.L47:
 795 0068 10BD     		pop	{r4, pc}
 796              	.L57:
 797 006a 00BF     		.align	2
ARM GAS  C:\Users\ingan\AppData\Local\Temp\ccMtFi7x.s 			page 36


 798              	.L56:
 799 006c 00000000 		.word	USBUART_EP
 800 0070 00000000 		.word	USBUART_DmaChan
 801 0074 00000000 		.word	USBUART_DmaTd
 802              		.cfi_endproc
 803              	.LFE11:
 804              		.size	USBUART_InitEP_DMA, .-USBUART_InitEP_DMA
 805              		.section	.text.USBUART_Stop_DMA,"ax",%progbits
 806              		.align	2
 807              		.global	USBUART_Stop_DMA
 808              		.thumb
 809              		.thumb_func
 810              		.type	USBUART_Stop_DMA, %function
 811              	USBUART_Stop_DMA:
 812              	.LFB12:
1189:Generated_Source\PSoC5/USBUART.c **** 
1190:Generated_Source\PSoC5/USBUART.c ****         #if (USBUART_EP_MANAGEMENT_DMA_AUTO && (USBUART_EP_DMA_AUTO_OPT == 0u))
1191:Generated_Source\PSoC5/USBUART.c ****             USBUART_DmaNextTd[epNumber] = CyDmaTdAllocate();
1192:Generated_Source\PSoC5/USBUART.c ****         #endif /* (USBUART_EP_MANAGEMENT_DMA_AUTO && (USBUART_EP_DMA_AUTO_OPT == 0u)) */
1193:Generated_Source\PSoC5/USBUART.c ****         }
1194:Generated_Source\PSoC5/USBUART.c ****     }
1195:Generated_Source\PSoC5/USBUART.c **** #endif /* (CY_PSOC4) */
1196:Generated_Source\PSoC5/USBUART.c **** 
1197:Generated_Source\PSoC5/USBUART.c ****     /***************************************************************************
1198:Generated_Source\PSoC5/USBUART.c ****     * Function Name: USBUART_Stop_DMA
1199:Generated_Source\PSoC5/USBUART.c ****     ************************************************************************//**
1200:Generated_Source\PSoC5/USBUART.c ****     *  
1201:Generated_Source\PSoC5/USBUART.c ****     *  This function stops DMA channel associated with endpoint. It is available 
1202:Generated_Source\PSoC5/USBUART.c ****     *  when the Endpoint Buffer Management parameter is set to DMA. Call this 
1203:Generated_Source\PSoC5/USBUART.c ****     *  function when endpoint direction is changed from IN to OUT or vice versa 
1204:Generated_Source\PSoC5/USBUART.c ****     *  to trigger DMA re-configuration when USBUART_LoadInEP() or 
1205:Generated_Source\PSoC5/USBUART.c ****     *  USBUART_ReadOutEP() functions are called the first time. 
1206:Generated_Source\PSoC5/USBUART.c ****     *  
1207:Generated_Source\PSoC5/USBUART.c ****     *  \param epNumber: The data endpoint number for which associated DMA 
1208:Generated_Source\PSoC5/USBUART.c ****     *  channel is stopped. The range of valid values is between 1 and 8. To stop 
1209:Generated_Source\PSoC5/USBUART.c ****     *  all DMAs associated with endpoints call this function with 
1210:Generated_Source\PSoC5/USBUART.c ****     *  USBUART_MAX_EP argument.
1211:Generated_Source\PSoC5/USBUART.c ****     *
1212:Generated_Source\PSoC5/USBUART.c ****     * \reentrant
1213:Generated_Source\PSoC5/USBUART.c ****     *  No.
1214:Generated_Source\PSoC5/USBUART.c ****     *
1215:Generated_Source\PSoC5/USBUART.c ****     ***************************************************************************/
1216:Generated_Source\PSoC5/USBUART.c ****     void USBUART_Stop_DMA(uint8 epNumber) 
1217:Generated_Source\PSoC5/USBUART.c ****     {
 813              		.loc 1 1217 0
 814              		.cfi_startproc
 815              		@ args = 0, pretend = 0, frame = 0
 816              		@ frame_needed = 0, uses_anonymous_args = 0
 817              	.LVL67:
 818 0000 70B5     		push	{r4, r5, r6, lr}
 819              		.cfi_def_cfa_offset 16
 820              		.cfi_offset 4, -16
 821              		.cfi_offset 5, -12
 822              		.cfi_offset 6, -8
 823              		.cfi_offset 14, -4
 824 0002 0646     		mov	r6, r0
1218:Generated_Source\PSoC5/USBUART.c ****         uint8 i;
ARM GAS  C:\Users\ingan\AppData\Local\Temp\ccMtFi7x.s 			page 37


1219:Generated_Source\PSoC5/USBUART.c **** 
1220:Generated_Source\PSoC5/USBUART.c ****         i = (epNumber < USBUART_MAX_EP) ? epNumber : USBUART_EP1;
 825              		.loc 1 1220 0
 826 0004 0828     		cmp	r0, #8
 827 0006 01D9     		bls	.L63
 828 0008 0124     		movs	r4, #1
 829 000a 00E0     		b	.L62
 830              	.L63:
 831 000c 0446     		mov	r4, r0
 832              	.LVL68:
 833              	.L62:
1221:Generated_Source\PSoC5/USBUART.c **** 
1222:Generated_Source\PSoC5/USBUART.c ****         do
1223:Generated_Source\PSoC5/USBUART.c ****         {
1224:Generated_Source\PSoC5/USBUART.c ****         #if (CY_PSOC4)
1225:Generated_Source\PSoC5/USBUART.c ****             if (0u != USBUART_DmaChan[i])
1226:Generated_Source\PSoC5/USBUART.c ****             {
1227:Generated_Source\PSoC5/USBUART.c ****                 USBUART_CyDmaChDisable(USBUART_DmaChan[i]);
1228:Generated_Source\PSoC5/USBUART.c ****             }
1229:Generated_Source\PSoC5/USBUART.c ****         #else
1230:Generated_Source\PSoC5/USBUART.c ****             if(USBUART_DmaTd[i] != DMA_INVALID_TD)
 834              		.loc 1 1230 0
 835 000e 0A4B     		ldr	r3, .L65
 836 0010 1B5D     		ldrb	r3, [r3, r4]	@ zero_extendqisi2
 837 0012 FF2B     		cmp	r3, #255
 838 0014 09D0     		beq	.L60
1231:Generated_Source\PSoC5/USBUART.c ****             {
1232:Generated_Source\PSoC5/USBUART.c ****                 (void) CyDmaChDisable(USBUART_DmaChan[i]);
 839              		.loc 1 1232 0
 840 0016 094B     		ldr	r3, .L65+4
 841 0018 185D     		ldrb	r0, [r3, r4]	@ zero_extendqisi2
 842 001a FFF7FEFF 		bl	CyDmaChDisable
 843              	.LVL69:
1233:Generated_Source\PSoC5/USBUART.c ****                 CyDmaTdFree(USBUART_DmaTd[i]);
 844              		.loc 1 1233 0
 845 001e 064D     		ldr	r5, .L65
 846 0020 285D     		ldrb	r0, [r5, r4]	@ zero_extendqisi2
 847 0022 FFF7FEFF 		bl	CyDmaTdFree
 848              	.LVL70:
1234:Generated_Source\PSoC5/USBUART.c ****                 USBUART_DmaTd[i] = DMA_INVALID_TD;
 849              		.loc 1 1234 0
 850 0026 FF23     		movs	r3, #255
 851 0028 2B55     		strb	r3, [r5, r4]
 852              	.L60:
1235:Generated_Source\PSoC5/USBUART.c ****             }
1236:Generated_Source\PSoC5/USBUART.c **** 
1237:Generated_Source\PSoC5/USBUART.c ****             #if (USBUART_EP_MANAGEMENT_DMA_AUTO && (USBUART_EP_DMA_AUTO_OPT == 0u))
1238:Generated_Source\PSoC5/USBUART.c ****                 if(USBUART_DmaNextTd[i] != DMA_INVALID_TD)
1239:Generated_Source\PSoC5/USBUART.c ****                 {
1240:Generated_Source\PSoC5/USBUART.c ****                     CyDmaTdFree(USBUART_DmaNextTd[i]);
1241:Generated_Source\PSoC5/USBUART.c ****                     USBUART_DmaNextTd[i] = DMA_INVALID_TD;
1242:Generated_Source\PSoC5/USBUART.c ****                 }
1243:Generated_Source\PSoC5/USBUART.c ****             #endif /* (USBUART_EP_MANAGEMENT_DMA_AUTO && (USBUART_EP_DMA_AUTO_OPT == 0u)) */
1244:Generated_Source\PSoC5/USBUART.c **** 
1245:Generated_Source\PSoC5/USBUART.c ****         #endif /* (CY_PSOC4) */
1246:Generated_Source\PSoC5/USBUART.c ****             i++;
 853              		.loc 1 1246 0
ARM GAS  C:\Users\ingan\AppData\Local\Temp\ccMtFi7x.s 			page 38


 854 002a 0134     		adds	r4, r4, #1
 855              	.LVL71:
 856 002c E4B2     		uxtb	r4, r4
 857              	.LVL72:
1247:Generated_Source\PSoC5/USBUART.c ****         }
1248:Generated_Source\PSoC5/USBUART.c ****         while ((i < USBUART_MAX_EP) && (epNumber == USBUART_MAX_EP));
 858              		.loc 1 1248 0
 859 002e 082C     		cmp	r4, #8
 860 0030 01D8     		bhi	.L58
 861              		.loc 1 1248 0 is_stmt 0 discriminator 1
 862 0032 092E     		cmp	r6, #9
 863 0034 EBD0     		beq	.L62
 864              	.L58:
 865 0036 70BD     		pop	{r4, r5, r6, pc}
 866              	.LVL73:
 867              	.L66:
 868              		.align	2
 869              	.L65:
 870 0038 00000000 		.word	USBUART_DmaTd
 871 003c 00000000 		.word	USBUART_DmaChan
 872              		.cfi_endproc
 873              	.LFE12:
 874              		.size	USBUART_Stop_DMA, .-USBUART_Stop_DMA
 875              		.section	.text.USBUART_Stop,"ax",%progbits
 876              		.align	2
 877              		.global	USBUART_Stop
 878              		.thumb
 879              		.thumb_func
 880              		.type	USBUART_Stop, %function
 881              	USBUART_Stop:
 882              	.LFB4:
 730:Generated_Source\PSoC5/USBUART.c ****     uint8 enableInterrupts;
 883              		.loc 1 730 0 is_stmt 1
 884              		.cfi_startproc
 885              		@ args = 0, pretend = 0, frame = 0
 886              		@ frame_needed = 0, uses_anonymous_args = 0
 887 0000 08B5     		push	{r3, lr}
 888              		.cfi_def_cfa_offset 8
 889              		.cfi_offset 3, -8
 890              		.cfi_offset 14, -4
 735:Generated_Source\PSoC5/USBUART.c **** #endif /* (USBUART_EP_MANAGEMENT_DMA) */
 891              		.loc 1 735 0
 892 0002 0920     		movs	r0, #9
 893 0004 FFF7FEFF 		bl	USBUART_Stop_DMA
 894              	.LVL74:
 738:Generated_Source\PSoC5/USBUART.c **** 
 895              		.loc 1 738 0
 896 0008 FFF7FEFF 		bl	CyEnterCriticalSection
 897              	.LVL75:
 741:Generated_Source\PSoC5/USBUART.c **** 
 898              		.loc 1 741 0
 899 000c 224A     		ldr	r2, .L69
 900 000e 1378     		ldrb	r3, [r2]	@ zero_extendqisi2
 901 0010 03F07F03 		and	r3, r3, #127
 902 0014 1370     		strb	r3, [r2]
 744:Generated_Source\PSoC5/USBUART.c **** 
 903              		.loc 1 744 0
ARM GAS  C:\Users\ingan\AppData\Local\Temp\ccMtFi7x.s 			page 39


 904 0016 0A32     		adds	r2, r2, #10
 905 0018 1378     		ldrb	r3, [r2]	@ zero_extendqisi2
 906 001a 03F0FB03 		and	r3, r3, #251
 907 001e 1370     		strb	r3, [r2]
 751:Generated_Source\PSoC5/USBUART.c ****     USBUART_PM_STBY_CFG_REG &= (uint8) ~USBUART_PM_STBY_EN_FSUSB;
 908              		.loc 1 751 0
 909 0020 A2F5E352 		sub	r2, r2, #7264
 910 0024 0D3A     		subs	r2, r2, #13
 911 0026 1378     		ldrb	r3, [r2]	@ zero_extendqisi2
 912 0028 03F0FE03 		and	r3, r3, #254
 913 002c 1370     		strb	r3, [r2]
 752:Generated_Source\PSoC5/USBUART.c **** 
 914              		.loc 1 752 0
 915 002e 1032     		adds	r2, r2, #16
 916 0030 1378     		ldrb	r3, [r2]	@ zero_extendqisi2
 917 0032 03F0FE03 		and	r3, r3, #254
 918 0036 1370     		strb	r3, [r2]
 756:Generated_Source\PSoC5/USBUART.c ****     USBUART_DP_INP_DIS_REG |= (uint8) USBUART_DP_MASK;
 919              		.loc 1 756 0
 920 0038 184B     		ldr	r3, .L69+4
 921 003a 1A78     		ldrb	r2, [r3]	@ zero_extendqisi2
 922 003c 42F08002 		orr	r2, r2, #128
 923 0040 1A70     		strb	r2, [r3]
 757:Generated_Source\PSoC5/USBUART.c **** 
 924              		.loc 1 757 0
 925 0042 1A78     		ldrb	r2, [r3]	@ zero_extendqisi2
 926 0044 42F04002 		orr	r2, r2, #64
 927 0048 1A70     		strb	r2, [r3]
 761:Generated_Source\PSoC5/USBUART.c **** 
 928              		.loc 1 761 0
 929 004a FFF7FEFF 		bl	CyExitCriticalSection
 930              	.LVL76:
 770:Generated_Source\PSoC5/USBUART.c ****     CyIntDisable(USBUART_EP_0_VECT_NUM);
 931              		.loc 1 770 0
 932 004e 144B     		ldr	r3, .L69+8
 933 0050 4FF40002 		mov	r2, #8388608
 934 0054 1A60     		str	r2, [r3]
 771:Generated_Source\PSoC5/USBUART.c **** 
 935              		.loc 1 771 0
 936 0056 4FF08072 		mov	r2, #16777216
 937 005a 1A60     		str	r2, [r3]
 774:Generated_Source\PSoC5/USBUART.c ****     #endif /* (USBUART_SOF_ISR_ACTIVE) */
 938              		.loc 1 774 0
 939 005c 4FF40012 		mov	r2, #2097152
 940 0060 1A60     		str	r2, [r3]
 778:Generated_Source\PSoC5/USBUART.c ****     #endif /* (USBUART_EP1_ISR_ACTIVE) */
 941              		.loc 1 778 0
 942 0062 0122     		movs	r2, #1
 943 0064 1A60     		str	r2, [r3]
 782:Generated_Source\PSoC5/USBUART.c ****     #endif /* (USBUART_EP2_ISR_ACTIVE) */
 944              		.loc 1 782 0
 945 0066 0222     		movs	r2, #2
 946 0068 1A60     		str	r2, [r3]
 786:Generated_Source\PSoC5/USBUART.c ****     #endif /* (USBUART_EP3_ISR_ACTIVE) */
 947              		.loc 1 786 0
 948 006a 0422     		movs	r2, #4
 949 006c 1A60     		str	r2, [r3]
ARM GAS  C:\Users\ingan\AppData\Local\Temp\ccMtFi7x.s 			page 40


 811:Generated_Source\PSoC5/USBUART.c ****         CyIntClearPending(USBUART_DP_INTC_VECT_NUM);
 950              		.loc 1 811 0
 951 006e FFF7FEFF 		bl	USBUART_Dp_ClearInterrupt
 952              	.LVL77:
 812:Generated_Source\PSoC5/USBUART.c ****     #endif /* (USBUART_DP_ISR_ACTIVE). */
 953              		.loc 1 812 0
 954 0072 4FF48052 		mov	r2, #4096
 955 0076 0B4B     		ldr	r3, .L69+12
 956 0078 1A60     		str	r2, [r3]
 818:Generated_Source\PSoC5/USBUART.c ****     USBUART_configuration   = 0u;
 957              		.loc 1 818 0
 958 007a 0023     		movs	r3, #0
 959 007c 0A4A     		ldr	r2, .L69+16
 960 007e 1370     		strb	r3, [r2]
 819:Generated_Source\PSoC5/USBUART.c ****     USBUART_interfaceNumber = 0u;
 961              		.loc 1 819 0
 962 0080 0A4A     		ldr	r2, .L69+20
 963 0082 1370     		strb	r3, [r2]
 820:Generated_Source\PSoC5/USBUART.c ****     USBUART_deviceAddress   = 0u;
 964              		.loc 1 820 0
 965 0084 0A4A     		ldr	r2, .L69+24
 966 0086 1370     		strb	r3, [r2]
 821:Generated_Source\PSoC5/USBUART.c ****     USBUART_deviceStatus    = 0u;
 967              		.loc 1 821 0
 968 0088 0A4A     		ldr	r2, .L69+28
 969 008a 1370     		strb	r3, [r2]
 822:Generated_Source\PSoC5/USBUART.c **** 
 970              		.loc 1 822 0
 971 008c 0A4A     		ldr	r2, .L69+32
 972 008e 1370     		strb	r3, [r2]
 825:Generated_Source\PSoC5/USBUART.c **** }
 973              		.loc 1 825 0
 974 0090 0A4A     		ldr	r2, .L69+36
 975 0092 1370     		strb	r3, [r2]
 976 0094 08BD     		pop	{r3, pc}
 977              	.L70:
 978 0096 00BF     		.align	2
 979              	.L69:
 980 0098 08600040 		.word	1073766408
 981 009c F8510040 		.word	1073762808
 982 00a0 80E100E0 		.word	-536813184
 983 00a4 80E200E0 		.word	-536812928
 984 00a8 00000000 		.word	USBUART_configurationChanged
 985 00ac 00000000 		.word	USBUART_configuration
 986 00b0 00000000 		.word	USBUART_interfaceNumber
 987 00b4 00000000 		.word	USBUART_deviceAddress
 988 00b8 00000000 		.word	USBUART_deviceStatus
 989 00bc 00000000 		.word	.LANCHOR0
 990              		.cfi_endproc
 991              	.LFE4:
 992              		.size	USBUART_Stop, .-USBUART_Stop
 993              		.section	.text.USBUART_LoadInEP,"ax",%progbits
 994              		.align	2
 995              		.global	USBUART_LoadInEP
 996              		.thumb
 997              		.thumb_func
 998              		.type	USBUART_LoadInEP, %function
ARM GAS  C:\Users\ingan\AppData\Local\Temp\ccMtFi7x.s 			page 41


 999              	USBUART_LoadInEP:
 1000              	.LFB13:
1249:Generated_Source\PSoC5/USBUART.c ****     }
1250:Generated_Source\PSoC5/USBUART.c **** #endif /* (USBUART_EP_MANAGEMENT_DMA) */
1251:Generated_Source\PSoC5/USBUART.c **** 
1252:Generated_Source\PSoC5/USBUART.c **** 
1253:Generated_Source\PSoC5/USBUART.c **** #if (CY_PSOC3 || CY_PSOC5)
1254:Generated_Source\PSoC5/USBUART.c **** #if (USBUART_EP_MANAGEMENT_DMA_AUTO && (USBUART_EP_DMA_AUTO_OPT == 0u))
1255:Generated_Source\PSoC5/USBUART.c ****     /***************************************************************************
1256:Generated_Source\PSoC5/USBUART.c ****     * Function Name: USBUART_LoadNextInEP
1257:Generated_Source\PSoC5/USBUART.c ****     ************************************************************************//**
1258:Generated_Source\PSoC5/USBUART.c ****     *
1259:Generated_Source\PSoC5/USBUART.c ****     * Summary:
1260:Generated_Source\PSoC5/USBUART.c ****     *  This internal function is used for IN endpoint DMA reconfiguration in
1261:Generated_Source\PSoC5/USBUART.c ****     *  Auto DMA mode.
1262:Generated_Source\PSoC5/USBUART.c ****     *
1263:Generated_Source\PSoC5/USBUART.c ****     * Parameters:
1264:Generated_Source\PSoC5/USBUART.c ****     *  epNumber: Contains the data endpoint number.
1265:Generated_Source\PSoC5/USBUART.c ****     *  mode:   0 - Configure DMA to send the the rest of data.
1266:Generated_Source\PSoC5/USBUART.c ****     *          1 - Configure DMA to repeat 2 last bytes of the first burst.
1267:Generated_Source\PSoC5/USBUART.c ****     *
1268:Generated_Source\PSoC5/USBUART.c ****     ***************************************************************************/
1269:Generated_Source\PSoC5/USBUART.c ****     void USBUART_LoadNextInEP(uint8 epNumber, uint8 mode) 
1270:Generated_Source\PSoC5/USBUART.c ****     {
1271:Generated_Source\PSoC5/USBUART.c ****         reg16 *convert;
1272:Generated_Source\PSoC5/USBUART.c **** 
1273:Generated_Source\PSoC5/USBUART.c ****         if (mode == 0u)
1274:Generated_Source\PSoC5/USBUART.c ****         {
1275:Generated_Source\PSoC5/USBUART.c ****             /* Configure DMA to send rest of data. */
1276:Generated_Source\PSoC5/USBUART.c ****             /* CyDmaTdSetConfiguration API is optimized to change transfer length only and configur
1277:Generated_Source\PSoC5/USBUART.c ****             convert = (reg16 *) &CY_DMA_TDMEM_STRUCT_PTR[USBUART_DmaTd[epNumber]].TD0[0u];
1278:Generated_Source\PSoC5/USBUART.c ****             /* Set transfer length. */
1279:Generated_Source\PSoC5/USBUART.c ****             CY_SET_REG16(convert, USBUART_inLength[epNumber] - USBUART_DMA_BYTES_PER_BURST);
1280:Generated_Source\PSoC5/USBUART.c ****             /* CyDmaTdSetAddress API is optimized to change source address only. */
1281:Generated_Source\PSoC5/USBUART.c ****             convert = (reg16 *) &CY_DMA_TDMEM_STRUCT_PTR[USBUART_DmaTd[epNumber]].TD1[0u];
1282:Generated_Source\PSoC5/USBUART.c ****             CY_SET_REG16(convert, LO16((uint32)USBUART_inDataPointer[epNumber] +
1283:Generated_Source\PSoC5/USBUART.c ****                                             USBUART_DMA_BYTES_PER_BURST));
1284:Generated_Source\PSoC5/USBUART.c ****             USBUART_inBufFull[epNumber] = 1u;
1285:Generated_Source\PSoC5/USBUART.c ****         }
1286:Generated_Source\PSoC5/USBUART.c ****         else
1287:Generated_Source\PSoC5/USBUART.c ****         {
1288:Generated_Source\PSoC5/USBUART.c ****             /* Configure DMA to repeat 2 last bytes of the first burst. */
1289:Generated_Source\PSoC5/USBUART.c ****             /* CyDmaTdSetConfiguration API is optimized to change transfer length only and configur
1290:Generated_Source\PSoC5/USBUART.c ****             convert = (reg16 *) &CY_DMA_TDMEM_STRUCT_PTR[USBUART_DmaTd[epNumber]].TD0[0u];
1291:Generated_Source\PSoC5/USBUART.c ****             /* Set transfer length. */
1292:Generated_Source\PSoC5/USBUART.c ****             CY_SET_REG16(convert, USBUART_DMA_BYTES_REPEAT);
1293:Generated_Source\PSoC5/USBUART.c ****             /* CyDmaTdSetAddress API is optimized to change source address only. */
1294:Generated_Source\PSoC5/USBUART.c ****             convert = (reg16 *) &CY_DMA_TDMEM_STRUCT_PTR[USBUART_DmaTd[epNumber]].TD1[0u];
1295:Generated_Source\PSoC5/USBUART.c ****             CY_SET_REG16(convert,  LO16((uint32)USBUART_inDataPointer[epNumber] +
1296:Generated_Source\PSoC5/USBUART.c ****                                    (USBUART_DMA_BYTES_PER_BURST - USBUART_DMA_BYTES_REPEAT)));
1297:Generated_Source\PSoC5/USBUART.c ****         }
1298:Generated_Source\PSoC5/USBUART.c **** 
1299:Generated_Source\PSoC5/USBUART.c ****         /* CyDmaChSetInitialTd API is optimized to initialize TD. */
1300:Generated_Source\PSoC5/USBUART.c ****         CY_DMA_CH_STRUCT_PTR[USBUART_DmaChan[epNumber]].basic_status[1u] = USBUART_DmaTd[epNumber];
1301:Generated_Source\PSoC5/USBUART.c ****     }
1302:Generated_Source\PSoC5/USBUART.c **** #endif /* (USBUART_EP_MANAGEMENT_DMA_AUTO && (USBUART_EP_DMA_AUTO_OPT == 0u)) */
1303:Generated_Source\PSoC5/USBUART.c **** #endif /* (CY_PSOC3 || CY_PSOC5) */
ARM GAS  C:\Users\ingan\AppData\Local\Temp\ccMtFi7x.s 			page 42


1304:Generated_Source\PSoC5/USBUART.c **** 
1305:Generated_Source\PSoC5/USBUART.c **** 
1306:Generated_Source\PSoC5/USBUART.c **** /*******************************************************************************
1307:Generated_Source\PSoC5/USBUART.c **** * Function Name: USBUART_LoadInEP
1308:Generated_Source\PSoC5/USBUART.c **** ****************************************************************************//**
1309:Generated_Source\PSoC5/USBUART.c **** *
1310:Generated_Source\PSoC5/USBUART.c **** *  This function performs different functionality depending on the Component’s
1311:Generated_Source\PSoC5/USBUART.c **** *  configured Endpoint Buffer Management. This parameter is defined in
1312:Generated_Source\PSoC5/USBUART.c **** *  the Descriptor Root in Component Configure window.
1313:Generated_Source\PSoC5/USBUART.c **** *
1314:Generated_Source\PSoC5/USBUART.c **** *  *Manual (Static/Dynamic Allocation):*
1315:Generated_Source\PSoC5/USBUART.c **** *  This function loads and enables the specified USB data endpoint for an IN
1316:Generated_Source\PSoC5/USBUART.c **** *  data transfer.
1317:Generated_Source\PSoC5/USBUART.c **** *
1318:Generated_Source\PSoC5/USBUART.c **** *  *DMA with Manual Buffer Management:*
1319:Generated_Source\PSoC5/USBUART.c **** *  Configures DMA for a data transfer from system RAM to endpoint buffer.
1320:Generated_Source\PSoC5/USBUART.c **** *  Generates request for a transfer.
1321:Generated_Source\PSoC5/USBUART.c **** *
1322:Generated_Source\PSoC5/USBUART.c **** *  *DMA with Automatic Buffer Management:*
1323:Generated_Source\PSoC5/USBUART.c **** *  Configures DMA. This is required only once, so it is done only when parameter
1324:Generated_Source\PSoC5/USBUART.c **** *  pData is not NULL. When the pData pointer is NULL, the function skips this
1325:Generated_Source\PSoC5/USBUART.c **** *  task. Sets Data ready status: This generates the first DMA transfer and
1326:Generated_Source\PSoC5/USBUART.c **** *  prepares data in endpoint buffer.
1327:Generated_Source\PSoC5/USBUART.c **** *
1328:Generated_Source\PSoC5/USBUART.c **** *  \param epNumber Contains the data endpoint number.
1329:Generated_Source\PSoC5/USBUART.c **** *            Valid values are between 1 and 8.
1330:Generated_Source\PSoC5/USBUART.c **** *  \param *pData A pointer to a data array from which the data for the endpoint space
1331:Generated_Source\PSoC5/USBUART.c **** *          is loaded.
1332:Generated_Source\PSoC5/USBUART.c **** *  \param length The number of bytes to transfer from the array and then send as
1333:Generated_Source\PSoC5/USBUART.c **** *          a result of an IN request. Valid values are between 0 and 512
1334:Generated_Source\PSoC5/USBUART.c **** *          (1023 for DMA with Automatic Buffer Management mode). The value 512
1335:Generated_Source\PSoC5/USBUART.c **** *          is applicable if only one endpoint is used.
1336:Generated_Source\PSoC5/USBUART.c **** *
1337:Generated_Source\PSoC5/USBUART.c **** *
1338:Generated_Source\PSoC5/USBUART.c **** * \reentrant
1339:Generated_Source\PSoC5/USBUART.c **** *  No.
1340:Generated_Source\PSoC5/USBUART.c **** *
1341:Generated_Source\PSoC5/USBUART.c **** *******************************************************************************/
1342:Generated_Source\PSoC5/USBUART.c **** void USBUART_LoadInEP(uint8 epNumber, const uint8 pData[], uint16 length)
1343:Generated_Source\PSoC5/USBUART.c ****                                                                         
1344:Generated_Source\PSoC5/USBUART.c **** {
 1001              		.loc 1 1344 0
 1002              		.cfi_startproc
 1003              		@ args = 0, pretend = 0, frame = 0
 1004              		@ frame_needed = 0, uses_anonymous_args = 0
 1005              	.LVL78:
1345:Generated_Source\PSoC5/USBUART.c ****     if ((epNumber > USBUART_EP0) && (epNumber < USBUART_MAX_EP))
 1006              		.loc 1 1345 0
 1007 0000 431E     		subs	r3, r0, #1
 1008 0002 DBB2     		uxtb	r3, r3
 1009 0004 072B     		cmp	r3, #7
 1010 0006 6FD8     		bhi	.L77
1344:Generated_Source\PSoC5/USBUART.c ****     if ((epNumber > USBUART_EP0) && (epNumber < USBUART_MAX_EP))
 1011              		.loc 1 1344 0
 1012 0008 2DE9F041 		push	{r4, r5, r6, r7, r8, lr}
 1013              		.cfi_def_cfa_offset 24
 1014              		.cfi_offset 4, -24
ARM GAS  C:\Users\ingan\AppData\Local\Temp\ccMtFi7x.s 			page 43


 1015              		.cfi_offset 5, -20
 1016              		.cfi_offset 6, -16
 1017              		.cfi_offset 7, -12
 1018              		.cfi_offset 8, -8
 1019              		.cfi_offset 14, -4
 1020 000c 0446     		mov	r4, r0
 1021 000e 0E46     		mov	r6, r1
 1022 0010 1546     		mov	r5, r2
1346:Generated_Source\PSoC5/USBUART.c ****     {
1347:Generated_Source\PSoC5/USBUART.c ****     #if (!USBUART_EP_MANAGEMENT_DMA_AUTO)
1348:Generated_Source\PSoC5/USBUART.c ****         /* Limit length to available buffer USB IP buffer size.*/
1349:Generated_Source\PSoC5/USBUART.c ****         if (length > (USBUART_EPX_DATA_BUF_MAX - USBUART_EP[epNumber].buffOffset))
 1023              		.loc 1 1349 0
 1024 0012 00EB4002 		add	r2, r0, r0, lsl #1
 1025              	.LVL79:
 1026 0016 9300     		lsls	r3, r2, #2
 1027 0018 344A     		ldr	r2, .L78
 1028 001a 1344     		add	r3, r3, r2
 1029 001c DB88     		ldrh	r3, [r3, #6]
 1030 001e 9BB2     		uxth	r3, r3
 1031 0020 C3F50073 		rsb	r3, r3, #512
 1032 0024 9D42     		cmp	r5, r3
 1033 0026 09D9     		bls	.L73
1350:Generated_Source\PSoC5/USBUART.c ****         {
1351:Generated_Source\PSoC5/USBUART.c ****             length = USBUART_EPX_DATA_BUF_MAX - USBUART_EP[epNumber].buffOffset;
 1034              		.loc 1 1351 0
 1035 0028 00EB4002 		add	r2, r0, r0, lsl #1
 1036 002c 9300     		lsls	r3, r2, #2
 1037 002e 2F4A     		ldr	r2, .L78
 1038 0030 1344     		add	r3, r3, r2
 1039 0032 DD88     		ldrh	r5, [r3, #6]
 1040 0034 ADB2     		uxth	r5, r5
 1041 0036 C5F50075 		rsb	r5, r5, #512
 1042 003a ADB2     		uxth	r5, r5
 1043              	.LVL80:
 1044              	.L73:
1352:Generated_Source\PSoC5/USBUART.c ****         }
1353:Generated_Source\PSoC5/USBUART.c ****     #endif /* (!USBUART_EP_MANAGEMENT_DMA_AUTO) */
1354:Generated_Source\PSoC5/USBUART.c **** 
1355:Generated_Source\PSoC5/USBUART.c ****         /* Set count and data toggle. */
1356:Generated_Source\PSoC5/USBUART.c ****         USBUART_SIE_EP_BASE.sieEp[epNumber].epCnt0 = (uint8) HI8(length) | USBUART_EP[epNumber].epT
 1045              		.loc 1 1356 0
 1046 003c 04EB4402 		add	r2, r4, r4, lsl #1
 1047 0040 9300     		lsls	r3, r2, #2
 1048 0042 2A4A     		ldr	r2, .L78
 1049 0044 1344     		add	r3, r3, r2
 1050 0046 DB78     		ldrb	r3, [r3, #3]	@ zero_extendqisi2
 1051 0048 43EA1523 		orr	r3, r3, r5, lsr #8
 1052 004c 2849     		ldr	r1, .L78+4
 1053              	.LVL81:
 1054 004e 2201     		lsls	r2, r4, #4
 1055 0050 8818     		adds	r0, r1, r2
 1056              	.LVL82:
 1057 0052 8B54     		strb	r3, [r1, r2]
1357:Generated_Source\PSoC5/USBUART.c ****         USBUART_SIE_EP_BASE.sieEp[epNumber].epCnt1 = (uint8) LO8(length);
 1058              		.loc 1 1357 0
 1059 0054 EBB2     		uxtb	r3, r5
ARM GAS  C:\Users\ingan\AppData\Local\Temp\ccMtFi7x.s 			page 44


 1060 0056 4370     		strb	r3, [r0, #1]
1358:Generated_Source\PSoC5/USBUART.c **** 
1359:Generated_Source\PSoC5/USBUART.c ****     #if (USBUART_EP_MANAGEMENT_MANUAL)
1360:Generated_Source\PSoC5/USBUART.c ****         if (NULL != pData)
1361:Generated_Source\PSoC5/USBUART.c ****         {
1362:Generated_Source\PSoC5/USBUART.c **** 			/* Copy data using arbiter data register. */
1363:Generated_Source\PSoC5/USBUART.c ****             uint16 i;
1364:Generated_Source\PSoC5/USBUART.c ****             for (i = 0u; i < length; ++i)
1365:Generated_Source\PSoC5/USBUART.c ****             {
1366:Generated_Source\PSoC5/USBUART.c ****                 USBUART_ARB_EP_BASE.arbEp[epNumber].rwDr = pData[i];
1367:Generated_Source\PSoC5/USBUART.c ****             }
1368:Generated_Source\PSoC5/USBUART.c ****         }
1369:Generated_Source\PSoC5/USBUART.c **** 
1370:Generated_Source\PSoC5/USBUART.c ****         /* IN endpoint buffer is full - read to be read. */
1371:Generated_Source\PSoC5/USBUART.c ****         USBUART_EP[epNumber].apiEpState = USBUART_NO_EVENT_PENDING;
1372:Generated_Source\PSoC5/USBUART.c **** 
1373:Generated_Source\PSoC5/USBUART.c ****         /* Arm IN endpoint. */
1374:Generated_Source\PSoC5/USBUART.c ****         USBUART_SIE_EP_BASE.sieEp[epNumber].epCr0 = USBUART_EP[epNumber].epMode;
1375:Generated_Source\PSoC5/USBUART.c **** 
1376:Generated_Source\PSoC5/USBUART.c ****     #else
1377:Generated_Source\PSoC5/USBUART.c **** 
1378:Generated_Source\PSoC5/USBUART.c ****         #if (CY_PSOC3 || CY_PSOC5LP)
1379:Generated_Source\PSoC5/USBUART.c ****             /* Initialize DMA if it was not initialized. */
1380:Generated_Source\PSoC5/USBUART.c ****             if (DMA_INVALID_TD == USBUART_DmaTd[epNumber])
 1061              		.loc 1 1380 0
 1062 0058 264B     		ldr	r3, .L78+8
 1063 005a 1B5D     		ldrb	r3, [r3, r4]	@ zero_extendqisi2
 1064 005c FF2B     		cmp	r3, #255
 1065 005e 03D1     		bne	.L74
1381:Generated_Source\PSoC5/USBUART.c ****             {
1382:Generated_Source\PSoC5/USBUART.c ****                 USBUART_InitEP_DMA(epNumber, pData);
 1066              		.loc 1 1382 0
 1067 0060 3146     		mov	r1, r6
 1068 0062 2046     		mov	r0, r4
 1069 0064 FFF7FEFF 		bl	USBUART_InitEP_DMA
 1070              	.LVL83:
 1071              	.L74:
1383:Generated_Source\PSoC5/USBUART.c ****             }
1384:Generated_Source\PSoC5/USBUART.c ****         #endif /* (CY_PSOC3 || CY_PSOC5LP) */
1385:Generated_Source\PSoC5/USBUART.c **** 
1386:Generated_Source\PSoC5/USBUART.c ****         #if (USBUART_EP_MANAGEMENT_DMA_MANUAL)
1387:Generated_Source\PSoC5/USBUART.c ****             /* IN endpoint buffer will be fully loaded by DMA shortly. */
1388:Generated_Source\PSoC5/USBUART.c ****             USBUART_EP[epNumber].apiEpState = USBUART_NO_EVENT_PENDING;
 1072              		.loc 1 1388 0
 1073 0068 04EB4402 		add	r2, r4, r4, lsl #1
 1074 006c 9300     		lsls	r3, r2, #2
 1075 006e 1F4A     		ldr	r2, .L78
 1076 0070 1344     		add	r3, r3, r2
 1077 0072 0022     		movs	r2, #0
 1078 0074 5A70     		strb	r2, [r3, #1]
1389:Generated_Source\PSoC5/USBUART.c **** 
1390:Generated_Source\PSoC5/USBUART.c ****             if ((pData != NULL) && (length > 0u))
 1079              		.loc 1 1390 0
 1080 0076 5EB3     		cbz	r6, .L75
 1081              		.loc 1 1390 0 is_stmt 0 discriminator 1
 1082 0078 55B3     		cbz	r5, .L75
1391:Generated_Source\PSoC5/USBUART.c ****             {
ARM GAS  C:\Users\ingan\AppData\Local\Temp\ccMtFi7x.s 			page 45


1392:Generated_Source\PSoC5/USBUART.c ****             #if (CY_PSOC4)
1393:Generated_Source\PSoC5/USBUART.c ****                 uint32 channelNum = (uint32) USBUART_DmaChan[epNumber];
1394:Generated_Source\PSoC5/USBUART.c **** 
1395:Generated_Source\PSoC5/USBUART.c ****                 /* Disable DMA channel: start configuration. */
1396:Generated_Source\PSoC5/USBUART.c ****                 USBUART_CyDmaChDisable(channelNum);
1397:Generated_Source\PSoC5/USBUART.c **** 
1398:Generated_Source\PSoC5/USBUART.c ****                 /* Configure source and destination. */
1399:Generated_Source\PSoC5/USBUART.c ****                 USBUART_CyDmaSetSrcAddress(channelNum, USBUART_DMA_DESCR0, (void*) pData);
1400:Generated_Source\PSoC5/USBUART.c ****                 USBUART_CyDmaSetDstAddress(channelNum, USBUART_DMA_DESCR0, (void*) &USBUART_ARB_EP_
1401:Generated_Source\PSoC5/USBUART.c **** 
1402:Generated_Source\PSoC5/USBUART.c ****                 /* Configure DMA descriptor. */
1403:Generated_Source\PSoC5/USBUART.c ****                 --length;
1404:Generated_Source\PSoC5/USBUART.c ****                 USBUART_CyDmaSetConfiguration(channelNum, USBUART_DMA_DESCR0, USBUART_DMA_COMMON_CF
1405:Generated_Source\PSoC5/USBUART.c ****                                                         CYDMA_BYTE | CYDMA_ELEMENT_WORD | CYDMA_INC
1406:Generated_Source\PSoC5/USBUART.c **** 
1407:Generated_Source\PSoC5/USBUART.c ****                 /* Validate descriptor to execute on following DMA request. */
1408:Generated_Source\PSoC5/USBUART.c ****                 USBUART_CyDmaValidateDescriptor(channelNum, USBUART_DMA_DESCR0);
1409:Generated_Source\PSoC5/USBUART.c **** 
1410:Generated_Source\PSoC5/USBUART.c ****                 /* Enable DMA channel: configuration complete. */
1411:Generated_Source\PSoC5/USBUART.c ****                 USBUART_CyDmaChEnable(channelNum);
1412:Generated_Source\PSoC5/USBUART.c ****             #else
1413:Generated_Source\PSoC5/USBUART.c ****                 /* Configure DMA to transfer data. */
1414:Generated_Source\PSoC5/USBUART.c ****                 (void) CyDmaChDisable(USBUART_DmaChan[epNumber]);
 1083              		.loc 1 1414 0 is_stmt 1
 1084 007a 1F4F     		ldr	r7, .L78+12
 1085 007c 385D     		ldrb	r0, [r7, r4]	@ zero_extendqisi2
 1086 007e FFF7FEFF 		bl	CyDmaChDisable
 1087              	.LVL84:
1415:Generated_Source\PSoC5/USBUART.c ****                 (void) CyDmaTdSetConfiguration(USBUART_DmaTd[epNumber], length, CY_DMA_DISABLE_TD, 
 1088              		.loc 1 1415 0
 1089 0082 DFF87080 		ldr	r8, .L78+8
 1090 0086 1123     		movs	r3, #17
 1091 0088 FE22     		movs	r2, #254
 1092 008a 2946     		mov	r1, r5
 1093 008c 18F80400 		ldrb	r0, [r8, r4]	@ zero_extendqisi2
 1094 0090 FFF7FEFF 		bl	CyDmaTdSetConfiguration
 1095              	.LVL85:
1416:Generated_Source\PSoC5/USBUART.c ****                 (void) CyDmaTdSetAddress(USBUART_DmaTd[epNumber], LO16((uint32) pData), LO16((uint3
 1096              		.loc 1 1416 0
 1097 0094 2201     		lsls	r2, r4, #4
 1098 0096 0832     		adds	r2, r2, #8
 1099 0098 184D     		ldr	r5, .L78+16
 1100              	.LVL86:
 1101 009a 2A44     		add	r2, r2, r5
 1102 009c 92B2     		uxth	r2, r2
 1103 009e B1B2     		uxth	r1, r6
 1104 00a0 18F80400 		ldrb	r0, [r8, r4]	@ zero_extendqisi2
 1105 00a4 FFF7FEFF 		bl	CyDmaTdSetAddress
 1106              	.LVL87:
1417:Generated_Source\PSoC5/USBUART.c **** 
1418:Generated_Source\PSoC5/USBUART.c ****                 /* Enable DMA channel. */
1419:Generated_Source\PSoC5/USBUART.c ****                 (void) CyDmaChSetInitialTd(USBUART_DmaChan[epNumber], USBUART_DmaTd[epNumber]);
 1107              		.loc 1 1419 0
 1108 00a8 18F80410 		ldrb	r1, [r8, r4]	@ zero_extendqisi2
 1109 00ac 385D     		ldrb	r0, [r7, r4]	@ zero_extendqisi2
 1110 00ae FFF7FEFF 		bl	CyDmaChSetInitialTd
 1111              	.LVL88:
ARM GAS  C:\Users\ingan\AppData\Local\Temp\ccMtFi7x.s 			page 46


1420:Generated_Source\PSoC5/USBUART.c ****                 (void) CyDmaChEnable(USBUART_DmaChan[epNumber], 1u);
 1112              		.loc 1 1420 0
 1113 00b2 0121     		movs	r1, #1
 1114 00b4 385D     		ldrb	r0, [r7, r4]	@ zero_extendqisi2
 1115 00b6 FFF7FEFF 		bl	CyDmaChEnable
 1116              	.LVL89:
1421:Generated_Source\PSoC5/USBUART.c ****             #endif /* (CY_PSOC4) */
1422:Generated_Source\PSoC5/USBUART.c **** 
1423:Generated_Source\PSoC5/USBUART.c ****                 /* Generate DMA request. */
1424:Generated_Source\PSoC5/USBUART.c ****                 USBUART_ARB_EP_BASE.arbEp[epNumber].epCfg |=  (uint8)  USBUART_ARB_EPX_CFG_DMA_REQ;
 1117              		.loc 1 1424 0
 1118 00ba 2401     		lsls	r4, r4, #4
 1119 00bc 2B5D     		ldrb	r3, [r5, r4]	@ zero_extendqisi2
 1120 00be 43F00203 		orr	r3, r3, #2
 1121 00c2 2B55     		strb	r3, [r5, r4]
1425:Generated_Source\PSoC5/USBUART.c ****                 USBUART_ARB_EP_BASE.arbEp[epNumber].epCfg &=  (uint8) ~USBUART_ARB_EPX_CFG_DMA_REQ;
 1122              		.loc 1 1425 0
 1123 00c4 2B5D     		ldrb	r3, [r5, r4]	@ zero_extendqisi2
 1124 00c6 03F0FD03 		and	r3, r3, #253
 1125 00ca 2B55     		strb	r3, [r5, r4]
 1126 00cc BDE8F081 		pop	{r4, r5, r6, r7, r8, pc}
 1127              	.LVL90:
 1128              	.L75:
1426:Generated_Source\PSoC5/USBUART.c **** 
1427:Generated_Source\PSoC5/USBUART.c ****                 /* IN endpoint will be armed in ARB_ISR(source: IN_BUF_FULL) after first DMA transf
1428:Generated_Source\PSoC5/USBUART.c ****             }
1429:Generated_Source\PSoC5/USBUART.c ****             else
1430:Generated_Source\PSoC5/USBUART.c ****             {
1431:Generated_Source\PSoC5/USBUART.c ****                 /* When zero-length packet: arm IN endpoint directly. */
1432:Generated_Source\PSoC5/USBUART.c ****                 USBUART_SIE_EP_BASE.sieEp[epNumber].epCr0 = USBUART_EP[epNumber].epMode;
 1129              		.loc 1 1432 0
 1130 00d0 04EB4402 		add	r2, r4, r4, lsl #1
 1131 00d4 9300     		lsls	r3, r2, #2
 1132 00d6 054A     		ldr	r2, .L78
 1133 00d8 1344     		add	r3, r3, r2
 1134 00da 5A79     		ldrb	r2, [r3, #5]	@ zero_extendqisi2
 1135 00dc D2B2     		uxtb	r2, r2
 1136 00de 2401     		lsls	r4, r4, #4
 1137 00e0 074B     		ldr	r3, .L78+20
 1138 00e2 1A55     		strb	r2, [r3, r4]
 1139 00e4 BDE8F081 		pop	{r4, r5, r6, r7, r8, pc}
 1140              	.LVL91:
 1141              	.L77:
 1142              		.cfi_def_cfa_offset 0
 1143              		.cfi_restore 4
 1144              		.cfi_restore 5
 1145              		.cfi_restore 6
 1146              		.cfi_restore 7
 1147              		.cfi_restore 8
 1148              		.cfi_restore 14
 1149 00e8 7047     		bx	lr
 1150              	.L79:
 1151 00ea 00BF     		.align	2
 1152              	.L78:
 1153 00ec 00000000 		.word	USBUART_EP
 1154 00f0 FC5F0040 		.word	1073766396
 1155 00f4 00000000 		.word	USBUART_DmaTd
ARM GAS  C:\Users\ingan\AppData\Local\Temp\ccMtFi7x.s 			page 47


 1156 00f8 00000000 		.word	USBUART_DmaChan
 1157 00fc 70600040 		.word	1073766512
 1158 0100 FE5F0040 		.word	1073766398
 1159              		.cfi_endproc
 1160              	.LFE13:
 1161              		.size	USBUART_LoadInEP, .-USBUART_LoadInEP
 1162              		.section	.text.USBUART_ReadOutEP,"ax",%progbits
 1163              		.align	2
 1164              		.global	USBUART_ReadOutEP
 1165              		.thumb
 1166              		.thumb_func
 1167              		.type	USBUART_ReadOutEP, %function
 1168              	USBUART_ReadOutEP:
 1169              	.LFB14:
1433:Generated_Source\PSoC5/USBUART.c ****             }
1434:Generated_Source\PSoC5/USBUART.c ****         #endif /* (USBUART_EP_MANAGEMENT_DMA_MANUAL) */
1435:Generated_Source\PSoC5/USBUART.c **** 
1436:Generated_Source\PSoC5/USBUART.c ****         #if (USBUART_EP_MANAGEMENT_DMA_AUTO)
1437:Generated_Source\PSoC5/USBUART.c ****             if (pData != NULL)
1438:Generated_Source\PSoC5/USBUART.c ****             {
1439:Generated_Source\PSoC5/USBUART.c ****             #if (CY_PSOC4)
1440:Generated_Source\PSoC5/USBUART.c ****                 uint32 channelNum = (uint32) USBUART_DmaChan[epNumber];
1441:Generated_Source\PSoC5/USBUART.c **** 
1442:Generated_Source\PSoC5/USBUART.c ****                 /* Store address of buffer. */
1443:Generated_Source\PSoC5/USBUART.c ****                 USBUART_DmaEpBufferAddrBackup[epNumber] = (uint32) pData;
1444:Generated_Source\PSoC5/USBUART.c **** 
1445:Generated_Source\PSoC5/USBUART.c ****                 /* Disable DMA channel: start configuration. */
1446:Generated_Source\PSoC5/USBUART.c ****                 USBUART_CyDmaChDisable(channelNum);
1447:Generated_Source\PSoC5/USBUART.c **** 
1448:Generated_Source\PSoC5/USBUART.c ****                 /* Set destination address. */
1449:Generated_Source\PSoC5/USBUART.c ****                 USBUART_CyDmaSetDstAddress(channelNum, USBUART_DMA_DESCR0, (void*) &USBUART_ARB_EP_
1450:Generated_Source\PSoC5/USBUART.c ****                 USBUART_CyDmaSetDstAddress(channelNum, USBUART_DMA_DESCR1, (void*) &USBUART_ARB_EP_
1451:Generated_Source\PSoC5/USBUART.c **** 
1452:Generated_Source\PSoC5/USBUART.c ****                 /* Configure DMA descriptor. */
1453:Generated_Source\PSoC5/USBUART.c ****                 USBUART_CyDmaSetConfiguration(channelNum, USBUART_DMA_DESCR0, USBUART_DMA_COMMON_CF
1454:Generated_Source\PSoC5/USBUART.c ****                                                         CYDMA_BYTE | CYDMA_ELEMENT_WORD | CYDMA_INC
1455:Generated_Source\PSoC5/USBUART.c **** 
1456:Generated_Source\PSoC5/USBUART.c ****                 /* Configure DMA descriptor. */
1457:Generated_Source\PSoC5/USBUART.c ****                 USBUART_CyDmaSetConfiguration(channelNum, USBUART_DMA_DESCR1, USBUART_DMA_COMMON_CF
1458:Generated_Source\PSoC5/USBUART.c ****                                                         CYDMA_BYTE | CYDMA_ELEMENT_WORD | CYDMA_INC
1459:Generated_Source\PSoC5/USBUART.c **** 
1460:Generated_Source\PSoC5/USBUART.c ****                 /* Enable interrupt from DMA channel. */
1461:Generated_Source\PSoC5/USBUART.c ****                 USBUART_CyDmaSetInterruptMask(channelNum);
1462:Generated_Source\PSoC5/USBUART.c **** 
1463:Generated_Source\PSoC5/USBUART.c **** 
1464:Generated_Source\PSoC5/USBUART.c ****                 /* Enable DMA channel: configuration complete. */
1465:Generated_Source\PSoC5/USBUART.c ****                 USBUART_CyDmaChEnable(channelNum);
1466:Generated_Source\PSoC5/USBUART.c **** 
1467:Generated_Source\PSoC5/USBUART.c ****             #else
1468:Generated_Source\PSoC5/USBUART.c ****                 (void) CyDmaChDisable(USBUART_DmaChan[epNumber]);
1469:Generated_Source\PSoC5/USBUART.c **** 
1470:Generated_Source\PSoC5/USBUART.c ****                 #if (USBUART_EP_DMA_AUTO_OPT == 0u)
1471:Generated_Source\PSoC5/USBUART.c ****                     USBUART_inLength[epNumber] = length;
1472:Generated_Source\PSoC5/USBUART.c ****                     USBUART_inDataPointer[epNumber] = pData;
1473:Generated_Source\PSoC5/USBUART.c **** 
1474:Generated_Source\PSoC5/USBUART.c ****                     /* Configure DMA to send data only for first burst */
1475:Generated_Source\PSoC5/USBUART.c ****                     (void) CyDmaTdSetConfiguration(USBUART_DmaTd[epNumber],
ARM GAS  C:\Users\ingan\AppData\Local\Temp\ccMtFi7x.s 			page 48


1476:Generated_Source\PSoC5/USBUART.c ****                         (length > USBUART_DMA_BYTES_PER_BURST) ? USBUART_DMA_BYTES_PER_BURST : leng
1477:Generated_Source\PSoC5/USBUART.c ****                         USBUART_DmaNextTd[epNumber], TD_TERMIN_EN | TD_INC_SRC_ADR);
1478:Generated_Source\PSoC5/USBUART.c ****                     (void) CyDmaTdSetAddress(USBUART_DmaTd[epNumber], LO16((uint32) pData),
1479:Generated_Source\PSoC5/USBUART.c ****                                                                                LO16((uint32) &USBUA
1480:Generated_Source\PSoC5/USBUART.c **** 
1481:Generated_Source\PSoC5/USBUART.c ****                     /* The second TD will be executed only when the first one fails.
1482:Generated_Source\PSoC5/USBUART.c ****                     *  The intention of this TD is to generate NRQ interrupt
1483:Generated_Source\PSoC5/USBUART.c ****                     *  and repeat 2 last bytes of the first burst.
1484:Generated_Source\PSoC5/USBUART.c ****                     */
1485:Generated_Source\PSoC5/USBUART.c ****                     (void) CyDmaTdSetConfiguration(USBUART_DmaNextTd[epNumber], 1u,
1486:Generated_Source\PSoC5/USBUART.c ****                                                    USBUART_DmaNextTd[epNumber],
1487:Generated_Source\PSoC5/USBUART.c ****                                                    USBUART_epX_TD_TERMOUT_EN[epNumber]);
1488:Generated_Source\PSoC5/USBUART.c **** 
1489:Generated_Source\PSoC5/USBUART.c ****                     /* Configure DmaNextTd to clear Data Ready status. */
1490:Generated_Source\PSoC5/USBUART.c ****                     (void) CyDmaTdSetAddress(USBUART_DmaNextTd[epNumber], LO16((uint32) &clearInDat
1491:Generated_Source\PSoC5/USBUART.c ****                                                                                    LO16((uint32) &U
1492:Generated_Source\PSoC5/USBUART.c ****                 #else
1493:Generated_Source\PSoC5/USBUART.c ****                     /* Configure DMA to send all data. */
1494:Generated_Source\PSoC5/USBUART.c ****                     (void) CyDmaTdSetConfiguration(USBUART_DmaTd[epNumber], length,
1495:Generated_Source\PSoC5/USBUART.c ****                                                    USBUART_DmaTd[epNumber], TD_TERMIN_EN | TD_INC_S
1496:Generated_Source\PSoC5/USBUART.c ****                     (void) CyDmaTdSetAddress(USBUART_DmaTd[epNumber], LO16((uint32) pData),
1497:Generated_Source\PSoC5/USBUART.c ****                                                                                LO16((uint32) &USBUA
1498:Generated_Source\PSoC5/USBUART.c ****                 #endif /* (USBUART_EP_DMA_AUTO_OPT == 0u) */
1499:Generated_Source\PSoC5/USBUART.c **** 
1500:Generated_Source\PSoC5/USBUART.c ****                 /* Clear any potential pending DMA requests before starting DMA channel to transfer
1501:Generated_Source\PSoC5/USBUART.c ****                 (void) CyDmaClearPendingDrq(USBUART_DmaChan[epNumber]);
1502:Generated_Source\PSoC5/USBUART.c ****                 /* Enable DMA. */
1503:Generated_Source\PSoC5/USBUART.c ****                 (void) CyDmaChSetInitialTd(USBUART_DmaChan[epNumber], USBUART_DmaTd[epNumber]);
1504:Generated_Source\PSoC5/USBUART.c ****                 (void) CyDmaChEnable(USBUART_DmaChan[epNumber], 1u);
1505:Generated_Source\PSoC5/USBUART.c ****             #endif /* (CY_PSOC4) */
1506:Generated_Source\PSoC5/USBUART.c ****             }
1507:Generated_Source\PSoC5/USBUART.c ****             else
1508:Generated_Source\PSoC5/USBUART.c ****             {
1509:Generated_Source\PSoC5/USBUART.c ****                 /* IN endpoint buffer (32 bytes) will shortly be preloaded by DMA. */
1510:Generated_Source\PSoC5/USBUART.c ****                 USBUART_EP[epNumber].apiEpState = USBUART_NO_EVENT_PENDING;
1511:Generated_Source\PSoC5/USBUART.c **** 
1512:Generated_Source\PSoC5/USBUART.c ****                 if (length > 0u)
1513:Generated_Source\PSoC5/USBUART.c ****                 {
1514:Generated_Source\PSoC5/USBUART.c ****                 #if (CY_PSOC4)
1515:Generated_Source\PSoC5/USBUART.c ****                     uint32 lengthDescr0, lengthDescr1;
1516:Generated_Source\PSoC5/USBUART.c ****                     uint32 channelNum = (uint32) USBUART_DmaChan[epNumber];
1517:Generated_Source\PSoC5/USBUART.c **** 
1518:Generated_Source\PSoC5/USBUART.c ****                     /* Get number of full bursts. */
1519:Generated_Source\PSoC5/USBUART.c ****                     USBUART_DmaEpBurstCnt[epNumber] = (uint8) (length / USBUART_DMA_BYTES_PER_BURST
1520:Generated_Source\PSoC5/USBUART.c **** 
1521:Generated_Source\PSoC5/USBUART.c ****                     /* Get number of elements in the last burst. */
1522:Generated_Source\PSoC5/USBUART.c ****                     USBUART_DmaEpLastBurstEl[epNumber] = (uint8) (length % USBUART_DMA_BYTES_PER_BU
1523:Generated_Source\PSoC5/USBUART.c **** 
1524:Generated_Source\PSoC5/USBUART.c ****                     /* Get total number of bursts. */
1525:Generated_Source\PSoC5/USBUART.c ****                     USBUART_DmaEpBurstCnt[epNumber] += (0u != USBUART_DmaEpLastBurstEl[epNumber]) ?
1526:Generated_Source\PSoC5/USBUART.c **** 
1527:Generated_Source\PSoC5/USBUART.c ****                     /* Adjust number of data elements transferred in last burst. */
1528:Generated_Source\PSoC5/USBUART.c ****                     USBUART_DmaEpLastBurstEl[epNumber] = (0u != USBUART_DmaEpLastBurstEl[epNumber])
1529:Generated_Source\PSoC5/USBUART.c ****                                                                           (USBUART_DmaEpLastBurstEl
1530:Generated_Source\PSoC5/USBUART.c ****                                                                           (USBUART_DMA_BYTES_PER_BU
1531:Generated_Source\PSoC5/USBUART.c **** 
1532:Generated_Source\PSoC5/USBUART.c ****                     /* Get number of data elements to transfer for descriptor 0 and 1. */
ARM GAS  C:\Users\ingan\AppData\Local\Temp\ccMtFi7x.s 			page 49


1533:Generated_Source\PSoC5/USBUART.c ****                     lengthDescr0 = (1u == USBUART_DmaEpBurstCnt[epNumber]) ? USBUART_DmaEpLastBurst
1534:Generated_Source\PSoC5/USBUART.c ****                     lengthDescr1 = (2u == USBUART_DmaEpBurstCnt[epNumber]) ? USBUART_DmaEpLastBurst
1535:Generated_Source\PSoC5/USBUART.c **** 
1536:Generated_Source\PSoC5/USBUART.c **** 
1537:Generated_Source\PSoC5/USBUART.c ****                     /* Mark which descriptor is last one to execute. */
1538:Generated_Source\PSoC5/USBUART.c ****                     USBUART_DmaEpLastBurstEl[epNumber] |= (0u != (USBUART_DmaEpBurstCnt[epNumber] &
1539:Generated_Source\PSoC5/USBUART.c ****                                                                             USBUART_DMA_DESCR0_MASK
1540:Generated_Source\PSoC5/USBUART.c **** 
1541:Generated_Source\PSoC5/USBUART.c ****                     /* Restore DMA settings for current transfer. */
1542:Generated_Source\PSoC5/USBUART.c ****                     USBUART_CyDmaChDisable(channelNum);
1543:Generated_Source\PSoC5/USBUART.c **** 
1544:Generated_Source\PSoC5/USBUART.c ****                     /* Restore destination address for input endpoint. */
1545:Generated_Source\PSoC5/USBUART.c ****                     USBUART_CyDmaSetSrcAddress(channelNum, USBUART_DMA_DESCR0, (void*) ((uint32) US
1546:Generated_Source\PSoC5/USBUART.c ****                     USBUART_CyDmaSetSrcAddress(channelNum, USBUART_DMA_DESCR1, (void*) ((uint32) US
1547:Generated_Source\PSoC5/USBUART.c ****                                                                                                    
1548:Generated_Source\PSoC5/USBUART.c **** 
1549:Generated_Source\PSoC5/USBUART.c ****                     /* Set number of elements to transfer. */
1550:Generated_Source\PSoC5/USBUART.c ****                     USBUART_CyDmaSetNumDataElements(channelNum, USBUART_DMA_DESCR0, lengthDescr0);
1551:Generated_Source\PSoC5/USBUART.c ****                     USBUART_CyDmaSetNumDataElements(channelNum, USBUART_DMA_DESCR1, lengthDescr1);
1552:Generated_Source\PSoC5/USBUART.c **** 
1553:Generated_Source\PSoC5/USBUART.c ****                     /* Validate descriptor 0 and command to start with it. */
1554:Generated_Source\PSoC5/USBUART.c ****                     USBUART_CyDmaValidateDescriptor(channelNum, USBUART_DMA_DESCR0);
1555:Generated_Source\PSoC5/USBUART.c ****                     USBUART_CyDmaSetDescriptor0Next(channelNum);
1556:Generated_Source\PSoC5/USBUART.c **** 
1557:Generated_Source\PSoC5/USBUART.c ****                     /* Validate descriptor 1. */
1558:Generated_Source\PSoC5/USBUART.c ****                     if (USBUART_DmaEpBurstCnt[epNumber] > 1u)
1559:Generated_Source\PSoC5/USBUART.c ****                     {
1560:Generated_Source\PSoC5/USBUART.c ****                         USBUART_CyDmaValidateDescriptor(channelNum, USBUART_DMA_DESCR1); 
1561:Generated_Source\PSoC5/USBUART.c ****                     }                   
1562:Generated_Source\PSoC5/USBUART.c **** 
1563:Generated_Source\PSoC5/USBUART.c ****                     /* Adjust burst counter taking to account: 2 valid descriptors and interrupt tr
1564:Generated_Source\PSoC5/USBUART.c ****                     USBUART_DmaEpBurstCnt[epNumber] = USBUART_DMA_GET_BURST_CNT(USBUART_DmaEpBurstC
1565:Generated_Source\PSoC5/USBUART.c **** 
1566:Generated_Source\PSoC5/USBUART.c ****                     /* Enable DMA channel: configuration complete. */
1567:Generated_Source\PSoC5/USBUART.c ****                     USBUART_CyDmaChEnable(channelNum);
1568:Generated_Source\PSoC5/USBUART.c **** 
1569:Generated_Source\PSoC5/USBUART.c ****                 #elif (USBUART_EP_DMA_AUTO_OPT == 0u)
1570:Generated_Source\PSoC5/USBUART.c ****                     USBUART_inLength[epNumber]  = length;
1571:Generated_Source\PSoC5/USBUART.c ****                     USBUART_inBufFull[epNumber] = 0u;
1572:Generated_Source\PSoC5/USBUART.c **** 
1573:Generated_Source\PSoC5/USBUART.c ****                     (void) CyDmaChDisable(USBUART_DmaChan[epNumber]);
1574:Generated_Source\PSoC5/USBUART.c ****                     /* Configure DMA to send data only for first burst. */
1575:Generated_Source\PSoC5/USBUART.c ****                     (void) CyDmaTdSetConfiguration(
1576:Generated_Source\PSoC5/USBUART.c ****                         USBUART_DmaTd[epNumber], (length > USBUART_DMA_BYTES_PER_BURST) ?
1577:Generated_Source\PSoC5/USBUART.c ****                         USBUART_DMA_BYTES_PER_BURST : length,
1578:Generated_Source\PSoC5/USBUART.c ****                         USBUART_DmaNextTd[epNumber], TD_TERMIN_EN | TD_INC_SRC_ADR );
1579:Generated_Source\PSoC5/USBUART.c ****                     (void) CyDmaTdSetAddress(USBUART_DmaTd[epNumber], LO16((uint32)  USBUART_inData
1580:Generated_Source\PSoC5/USBUART.c ****                                                                                LO16((uint32) &USBUA
1581:Generated_Source\PSoC5/USBUART.c ****                     /* Clear Any potential pending DMA requests before starting DMA channel to tran
1582:Generated_Source\PSoC5/USBUART.c ****                     (void) CyDmaClearPendingDrq(USBUART_DmaChan[epNumber]);
1583:Generated_Source\PSoC5/USBUART.c ****                     /* Enable DMA. */
1584:Generated_Source\PSoC5/USBUART.c ****                     (void) CyDmaChSetInitialTd(USBUART_DmaChan[epNumber], USBUART_DmaTd[epNumber]);
1585:Generated_Source\PSoC5/USBUART.c ****                     (void) CyDmaChEnable(USBUART_DmaChan[epNumber], 1u);
1586:Generated_Source\PSoC5/USBUART.c ****                 #endif /* (CY_PSOC4) */
1587:Generated_Source\PSoC5/USBUART.c **** 
1588:Generated_Source\PSoC5/USBUART.c ****                 #if !defined (USBUART_MANUAL_IN_EP_ARM)
1589:Generated_Source\PSoC5/USBUART.c ****                     /* Set IN data ready to generate DMA request to load data into endpoint buffer.
ARM GAS  C:\Users\ingan\AppData\Local\Temp\ccMtFi7x.s 			page 50


1590:Generated_Source\PSoC5/USBUART.c ****                     USBUART_ARB_EP_BASE.arbEp[epNumber].epCfg |= USBUART_ARB_EPX_CFG_IN_DATA_RDY;
1591:Generated_Source\PSoC5/USBUART.c ****                 #endif  /* (USBUART_MANUAL_IN_EP_ARM) */
1592:Generated_Source\PSoC5/USBUART.c **** 
1593:Generated_Source\PSoC5/USBUART.c ****                     /* IN endpoint will be armed in ARB_ISR(source: IN_BUF_FULL) after first DMA tr
1594:Generated_Source\PSoC5/USBUART.c ****                 }
1595:Generated_Source\PSoC5/USBUART.c ****                 else
1596:Generated_Source\PSoC5/USBUART.c ****                 {
1597:Generated_Source\PSoC5/USBUART.c ****                     /* When zero-length packet: arm IN endpoint directly. */
1598:Generated_Source\PSoC5/USBUART.c ****                     USBUART_SIE_EP_BASE.sieEp[epNumber].epCr0 = USBUART_EP[epNumber].epMode;
1599:Generated_Source\PSoC5/USBUART.c ****                 }
1600:Generated_Source\PSoC5/USBUART.c ****             }
1601:Generated_Source\PSoC5/USBUART.c ****         #endif /* (USBUART_EP_MANAGEMENT_DMA_AUTO) */
1602:Generated_Source\PSoC5/USBUART.c ****     #endif /* (USBUART_EP_MANAGEMENT_MANUAL) */
1603:Generated_Source\PSoC5/USBUART.c ****     }
1604:Generated_Source\PSoC5/USBUART.c **** }
1605:Generated_Source\PSoC5/USBUART.c **** 
1606:Generated_Source\PSoC5/USBUART.c **** 
1607:Generated_Source\PSoC5/USBUART.c **** /*******************************************************************************
1608:Generated_Source\PSoC5/USBUART.c **** * Function Name: USBUART_ReadOutEP
1609:Generated_Source\PSoC5/USBUART.c **** ****************************************************************************//**
1610:Generated_Source\PSoC5/USBUART.c **** *
1611:Generated_Source\PSoC5/USBUART.c **** *   This function performs different functionality depending on the Component’s
1612:Generated_Source\PSoC5/USBUART.c **** *   configured Endpoint Buffer Management. This parameter is defined in the
1613:Generated_Source\PSoC5/USBUART.c **** *   Descriptor Root in Component Configure window.
1614:Generated_Source\PSoC5/USBUART.c **** *
1615:Generated_Source\PSoC5/USBUART.c **** *   *Manual (Static/Dynamic Allocation):*
1616:Generated_Source\PSoC5/USBUART.c **** *   This function moves the specified number of bytes from endpoint buffer to
1617:Generated_Source\PSoC5/USBUART.c **** *   system RAM. The number of bytes actually transferred from endpoint buffer to
1618:Generated_Source\PSoC5/USBUART.c **** *   system RAM is the lesser of the actual number of bytes sent by the host or
1619:Generated_Source\PSoC5/USBUART.c **** *   the number of bytes requested by the length parameter.
1620:Generated_Source\PSoC5/USBUART.c **** *
1621:Generated_Source\PSoC5/USBUART.c **** *   *DMA with Manual Buffer Management:*
1622:Generated_Source\PSoC5/USBUART.c **** *   Configure DMA to transfer data from endpoint buffer to system RAM. Generate
1623:Generated_Source\PSoC5/USBUART.c **** *   a DMA request. The firmware must wait until the DMA completes the data
1624:Generated_Source\PSoC5/USBUART.c **** *   transfer after calling the USBUART_ReadOutEP() API. For example,
1625:Generated_Source\PSoC5/USBUART.c **** *   by checking EPstate:
1626:Generated_Source\PSoC5/USBUART.c **** *
1627:Generated_Source\PSoC5/USBUART.c **** *   \snippet /USBFS_sut_02.cydsn/main.c checking EPstatey
1628:Generated_Source\PSoC5/USBUART.c **** *
1629:Generated_Source\PSoC5/USBUART.c **** *   The USBFS_EnableOutEP() has to be called to allow host to write data into
1630:Generated_Source\PSoC5/USBUART.c **** *   the endpoint buffer after DMA has completed transfer data from OUT endpoint
1631:Generated_Source\PSoC5/USBUART.c **** *   buffer to SRAM.
1632:Generated_Source\PSoC5/USBUART.c **** *
1633:Generated_Source\PSoC5/USBUART.c **** *   *DMA with Automatic Buffer Management:*
1634:Generated_Source\PSoC5/USBUART.c **** *   Configure DMA. This is required only once and automatically generates DMA
1635:Generated_Source\PSoC5/USBUART.c **** *   requests as data arrives
1636:Generated_Source\PSoC5/USBUART.c **** *
1637:Generated_Source\PSoC5/USBUART.c **** *  \param epNumber: Contains the data endpoint number.
1638:Generated_Source\PSoC5/USBUART.c **** *            Valid values are between 1 and 8.
1639:Generated_Source\PSoC5/USBUART.c **** *  \param pData: A pointer to a data array from which the data for the endpoint
1640:Generated_Source\PSoC5/USBUART.c **** *         space is loaded.
1641:Generated_Source\PSoC5/USBUART.c **** *  \param length: The number of bytes to transfer from the USB Out endpoint and
1642:Generated_Source\PSoC5/USBUART.c **** *          loads it into data array. Valid values are between 0 and 1023. The
1643:Generated_Source\PSoC5/USBUART.c **** *          function moves fewer than the requested number of bytes if the host
1644:Generated_Source\PSoC5/USBUART.c **** *          sends fewer bytes than requested.
1645:Generated_Source\PSoC5/USBUART.c **** *
1646:Generated_Source\PSoC5/USBUART.c **** * \return
ARM GAS  C:\Users\ingan\AppData\Local\Temp\ccMtFi7x.s 			page 51


1647:Generated_Source\PSoC5/USBUART.c **** *  Number of bytes received, 0 for an invalid endpoint.
1648:Generated_Source\PSoC5/USBUART.c **** *
1649:Generated_Source\PSoC5/USBUART.c **** * \reentrant
1650:Generated_Source\PSoC5/USBUART.c **** *  No.
1651:Generated_Source\PSoC5/USBUART.c **** *
1652:Generated_Source\PSoC5/USBUART.c **** *******************************************************************************/
1653:Generated_Source\PSoC5/USBUART.c **** uint16 USBUART_ReadOutEP(uint8 epNumber, uint8 pData[], uint16 length)
1654:Generated_Source\PSoC5/USBUART.c ****                                                                         
1655:Generated_Source\PSoC5/USBUART.c **** {
 1170              		.loc 1 1655 0
 1171              		.cfi_startproc
 1172              		@ args = 0, pretend = 0, frame = 0
 1173              		@ frame_needed = 0, uses_anonymous_args = 0
 1174              	.LVL92:
 1175 0000 2DE9F843 		push	{r3, r4, r5, r6, r7, r8, r9, lr}
 1176              		.cfi_def_cfa_offset 32
 1177              		.cfi_offset 3, -32
 1178              		.cfi_offset 4, -28
 1179              		.cfi_offset 5, -24
 1180              		.cfi_offset 6, -20
 1181              		.cfi_offset 7, -16
 1182              		.cfi_offset 8, -12
 1183              		.cfi_offset 9, -8
 1184              		.cfi_offset 14, -4
1656:Generated_Source\PSoC5/USBUART.c ****     if ((pData != NULL) && (epNumber > USBUART_EP0) && (epNumber < USBUART_MAX_EP))
 1185              		.loc 1 1656 0
 1186 0004 0029     		cmp	r1, #0
 1187 0006 44D0     		beq	.L84
 1188 0008 0446     		mov	r4, r0
 1189 000a 1546     		mov	r5, r2
 1190 000c 0F46     		mov	r7, r1
 1191              		.loc 1 1656 0 is_stmt 0 discriminator 1
 1192 000e 0028     		cmp	r0, #0
 1193 0010 41D0     		beq	.L85
 1194              		.loc 1 1656 0 discriminator 2
 1195 0012 0828     		cmp	r0, #8
 1196 0014 41D8     		bhi	.L86
1657:Generated_Source\PSoC5/USBUART.c ****     {
1658:Generated_Source\PSoC5/USBUART.c ****     #if (!USBUART_EP_MANAGEMENT_DMA_AUTO)
1659:Generated_Source\PSoC5/USBUART.c ****         /* Adjust requested length to available data. */
1660:Generated_Source\PSoC5/USBUART.c ****         length = (length > USBUART_GetEPCount(epNumber)) ? USBUART_GetEPCount(epNumber) : length;
 1197              		.loc 1 1660 0 is_stmt 1
 1198 0016 FFF7FEFF 		bl	USBUART_GetEPCount
 1199              	.LVL93:
 1200 001a A842     		cmp	r0, r5
 1201 001c 03D2     		bcs	.L82
 1202              		.loc 1 1660 0 is_stmt 0 discriminator 1
 1203 001e 2046     		mov	r0, r4
 1204 0020 FFF7FEFF 		bl	USBUART_GetEPCount
 1205              	.LVL94:
 1206 0024 0546     		mov	r5, r0
 1207              	.L82:
 1208              	.LVL95:
1661:Generated_Source\PSoC5/USBUART.c ****     #endif /* (!USBUART_EP_MANAGEMENT_DMA_AUTO) */
1662:Generated_Source\PSoC5/USBUART.c **** 
1663:Generated_Source\PSoC5/USBUART.c ****     #if (USBUART_EP_MANAGEMENT_MANUAL)
1664:Generated_Source\PSoC5/USBUART.c ****         {
ARM GAS  C:\Users\ingan\AppData\Local\Temp\ccMtFi7x.s 			page 52


1665:Generated_Source\PSoC5/USBUART.c ****             /* Copy data using arbiter data register. */
1666:Generated_Source\PSoC5/USBUART.c ****             uint16 i;
1667:Generated_Source\PSoC5/USBUART.c ****             for (i = 0u; i < length; ++i)
1668:Generated_Source\PSoC5/USBUART.c ****             {
1669:Generated_Source\PSoC5/USBUART.c ****                 pData[i] = (uint8) USBUART_ARB_EP_BASE.arbEp[epNumber].rwDr;
1670:Generated_Source\PSoC5/USBUART.c ****             }
1671:Generated_Source\PSoC5/USBUART.c ****         }
1672:Generated_Source\PSoC5/USBUART.c **** 
1673:Generated_Source\PSoC5/USBUART.c ****         /* Arm OUT endpoint after data has been copied from endpoint buffer. */
1674:Generated_Source\PSoC5/USBUART.c ****         USBUART_EnableOutEP(epNumber);
1675:Generated_Source\PSoC5/USBUART.c ****     #else
1676:Generated_Source\PSoC5/USBUART.c **** 
1677:Generated_Source\PSoC5/USBUART.c ****         #if (CY_PSOC3 || CY_PSOC5LP)
1678:Generated_Source\PSoC5/USBUART.c ****             /* Initialize DMA if it was not initialized. */
1679:Generated_Source\PSoC5/USBUART.c ****             if (DMA_INVALID_TD == USBUART_DmaTd[epNumber])
 1209              		.loc 1 1679 0 is_stmt 1 discriminator 4
 1210 0026 1F4B     		ldr	r3, .L88
 1211 0028 1B5D     		ldrb	r3, [r3, r4]	@ zero_extendqisi2
 1212 002a FF2B     		cmp	r3, #255
 1213 002c 03D1     		bne	.L83
1680:Generated_Source\PSoC5/USBUART.c ****             {
1681:Generated_Source\PSoC5/USBUART.c ****                 USBUART_InitEP_DMA(epNumber, pData);
 1214              		.loc 1 1681 0
 1215 002e 3946     		mov	r1, r7
 1216 0030 2046     		mov	r0, r4
 1217 0032 FFF7FEFF 		bl	USBUART_InitEP_DMA
 1218              	.LVL96:
 1219              	.L83:
1682:Generated_Source\PSoC5/USBUART.c ****             }
1683:Generated_Source\PSoC5/USBUART.c ****         #endif /* (CY_PSOC3 || CY_PSOC5LP) */
1684:Generated_Source\PSoC5/USBUART.c **** 
1685:Generated_Source\PSoC5/USBUART.c ****         #if (USBUART_EP_MANAGEMENT_DMA_MANUAL)
1686:Generated_Source\PSoC5/USBUART.c ****         #if (CY_PSOC4)
1687:Generated_Source\PSoC5/USBUART.c ****         {
1688:Generated_Source\PSoC5/USBUART.c ****             uint32 channelNum = (uint32) USBUART_DmaChan[epNumber];
1689:Generated_Source\PSoC5/USBUART.c **** 
1690:Generated_Source\PSoC5/USBUART.c ****             /* Disable DMA channel: start configuration. */
1691:Generated_Source\PSoC5/USBUART.c ****             USBUART_CyDmaChDisable(channelNum);
1692:Generated_Source\PSoC5/USBUART.c **** 
1693:Generated_Source\PSoC5/USBUART.c ****             /* Configure source and destination. */
1694:Generated_Source\PSoC5/USBUART.c ****             USBUART_CyDmaSetSrcAddress(channelNum, USBUART_DMA_DESCR0, (void*) &USBUART_ARB_EP_BASE
1695:Generated_Source\PSoC5/USBUART.c ****             USBUART_CyDmaSetDstAddress(channelNum, USBUART_DMA_DESCR0, (void*) pData);
1696:Generated_Source\PSoC5/USBUART.c **** 
1697:Generated_Source\PSoC5/USBUART.c ****             /* Configure DMA descriptor. */
1698:Generated_Source\PSoC5/USBUART.c ****             USBUART_CyDmaSetConfiguration(channelNum, USBUART_DMA_DESCR0, USBUART_DMA_COMMON_CFG | 
1699:Generated_Source\PSoC5/USBUART.c ****                                                     CYDMA_BYTE | CYDMA_WORD_ELEMENT | CYDMA_INC_DST
1700:Generated_Source\PSoC5/USBUART.c **** 
1701:Generated_Source\PSoC5/USBUART.c ****             /* Validate descriptor to execute on following DMA request. */
1702:Generated_Source\PSoC5/USBUART.c ****             USBUART_CyDmaValidateDescriptor(channelNum, USBUART_DMA_DESCR0);
1703:Generated_Source\PSoC5/USBUART.c **** 
1704:Generated_Source\PSoC5/USBUART.c ****             /* Enable DMA channel: configuration complete. */
1705:Generated_Source\PSoC5/USBUART.c ****             USBUART_CyDmaChEnable(channelNum);
1706:Generated_Source\PSoC5/USBUART.c ****         }
1707:Generated_Source\PSoC5/USBUART.c ****         #else
1708:Generated_Source\PSoC5/USBUART.c ****             /* Configure DMA to transfer data. */
1709:Generated_Source\PSoC5/USBUART.c ****             (void) CyDmaChDisable(USBUART_DmaChan[epNumber]);
 1220              		.loc 1 1709 0
ARM GAS  C:\Users\ingan\AppData\Local\Temp\ccMtFi7x.s 			page 53


 1221 0036 DFF87480 		ldr	r8, .L88+8
 1222 003a 18F80400 		ldrb	r0, [r8, r4]	@ zero_extendqisi2
 1223 003e FFF7FEFF 		bl	CyDmaChDisable
 1224              	.LVL97:
1710:Generated_Source\PSoC5/USBUART.c ****             (void) CyDmaTdSetConfiguration(USBUART_DmaTd[epNumber], length, CY_DMA_DISABLE_TD, TD_T
 1225              		.loc 1 1710 0
 1226 0042 DFF86090 		ldr	r9, .L88
 1227 0046 1223     		movs	r3, #18
 1228 0048 FE22     		movs	r2, #254
 1229 004a 2946     		mov	r1, r5
 1230 004c 19F80400 		ldrb	r0, [r9, r4]	@ zero_extendqisi2
 1231 0050 FFF7FEFF 		bl	CyDmaTdSetConfiguration
 1232              	.LVL98:
1711:Generated_Source\PSoC5/USBUART.c ****             (void) CyDmaTdSetAddress(USBUART_DmaTd[epNumber], LO16((uint32) &USBUART_ARB_EP_BASE.ar
 1233              		.loc 1 1711 0
 1234 0054 2101     		lsls	r1, r4, #4
 1235 0056 0831     		adds	r1, r1, #8
 1236 0058 134E     		ldr	r6, .L88+4
 1237 005a 3144     		add	r1, r1, r6
 1238 005c 89B2     		uxth	r1, r1
 1239 005e BAB2     		uxth	r2, r7
 1240 0060 19F80400 		ldrb	r0, [r9, r4]	@ zero_extendqisi2
 1241 0064 FFF7FEFF 		bl	CyDmaTdSetAddress
 1242              	.LVL99:
1712:Generated_Source\PSoC5/USBUART.c **** 
1713:Generated_Source\PSoC5/USBUART.c ****             /* Enable DMA channel. */
1714:Generated_Source\PSoC5/USBUART.c ****             (void) CyDmaChSetInitialTd(USBUART_DmaChan[epNumber], USBUART_DmaTd[epNumber]);
 1243              		.loc 1 1714 0
 1244 0068 19F80410 		ldrb	r1, [r9, r4]	@ zero_extendqisi2
 1245 006c 18F80400 		ldrb	r0, [r8, r4]	@ zero_extendqisi2
 1246 0070 FFF7FEFF 		bl	CyDmaChSetInitialTd
 1247              	.LVL100:
1715:Generated_Source\PSoC5/USBUART.c ****             (void) CyDmaChEnable(USBUART_DmaChan[epNumber], 1u);
 1248              		.loc 1 1715 0
 1249 0074 0121     		movs	r1, #1
 1250 0076 18F80400 		ldrb	r0, [r8, r4]	@ zero_extendqisi2
 1251 007a FFF7FEFF 		bl	CyDmaChEnable
 1252              	.LVL101:
1716:Generated_Source\PSoC5/USBUART.c ****         #endif /* (CY_PSOC4) */
1717:Generated_Source\PSoC5/USBUART.c **** 
1718:Generated_Source\PSoC5/USBUART.c ****             /* Generate DMA request. */
1719:Generated_Source\PSoC5/USBUART.c ****             USBUART_ARB_EP_BASE.arbEp[epNumber].epCfg |=  (uint8)  USBUART_ARB_EPX_CFG_DMA_REQ;
 1253              		.loc 1 1719 0
 1254 007e 2401     		lsls	r4, r4, #4
 1255 0080 335D     		ldrb	r3, [r6, r4]	@ zero_extendqisi2
 1256 0082 43F00203 		orr	r3, r3, #2
 1257 0086 3355     		strb	r3, [r6, r4]
1720:Generated_Source\PSoC5/USBUART.c ****             USBUART_ARB_EP_BASE.arbEp[epNumber].epCfg &=  (uint8) ~USBUART_ARB_EPX_CFG_DMA_REQ;
 1258              		.loc 1 1720 0
 1259 0088 335D     		ldrb	r3, [r6, r4]	@ zero_extendqisi2
 1260 008a 03F0FD03 		and	r3, r3, #253
 1261 008e 3355     		strb	r3, [r6, r4]
 1262 0090 04E0     		b	.L81
 1263              	.LVL102:
 1264              	.L84:
1721:Generated_Source\PSoC5/USBUART.c **** 
1722:Generated_Source\PSoC5/USBUART.c ****             /* OUT endpoint has to be armed again by user when DMA transfers have been completed.
ARM GAS  C:\Users\ingan\AppData\Local\Temp\ccMtFi7x.s 			page 54


1723:Generated_Source\PSoC5/USBUART.c ****             * NO_EVENT_PENDING: notifies that data has been copied from endpoint buffer.
1724:Generated_Source\PSoC5/USBUART.c ****             */
1725:Generated_Source\PSoC5/USBUART.c **** 
1726:Generated_Source\PSoC5/USBUART.c ****         #endif /* (USBUART_EP_MANAGEMENT_DMA_MANUAL) */
1727:Generated_Source\PSoC5/USBUART.c **** 
1728:Generated_Source\PSoC5/USBUART.c ****         #if (USBUART_EP_MANAGEMENT_DMA_AUTO)
1729:Generated_Source\PSoC5/USBUART.c ****         #if (CY_PSOC4)
1730:Generated_Source\PSoC5/USBUART.c ****         {
1731:Generated_Source\PSoC5/USBUART.c ****             uint32 channelNum = (uint32) USBUART_DmaChan[epNumber];
1732:Generated_Source\PSoC5/USBUART.c ****             uint32 lengthDescr0, lengthDescr1;
1733:Generated_Source\PSoC5/USBUART.c **** 
1734:Generated_Source\PSoC5/USBUART.c ****             /* Get number of full bursts. */
1735:Generated_Source\PSoC5/USBUART.c ****             USBUART_DmaEpBurstCnt[epNumber] = (uint8) (length / USBUART_DMA_BYTES_PER_BURST);
1736:Generated_Source\PSoC5/USBUART.c **** 
1737:Generated_Source\PSoC5/USBUART.c ****             /* Get number of elements in the last burst. */
1738:Generated_Source\PSoC5/USBUART.c ****             USBUART_DmaEpLastBurstEl[epNumber] = (uint8) (length % USBUART_DMA_BYTES_PER_BURST);
1739:Generated_Source\PSoC5/USBUART.c **** 
1740:Generated_Source\PSoC5/USBUART.c ****             /* Get total number of bursts. */
1741:Generated_Source\PSoC5/USBUART.c ****             USBUART_DmaEpBurstCnt[epNumber] += (0u != USBUART_DmaEpLastBurstEl[epNumber]) ? 1u : 0u
1742:Generated_Source\PSoC5/USBUART.c **** 
1743:Generated_Source\PSoC5/USBUART.c ****             /* Adjust number of the data elements transfered in last burst. */
1744:Generated_Source\PSoC5/USBUART.c ****             USBUART_DmaEpLastBurstEl[epNumber] = (0u != USBUART_DmaEpLastBurstEl[epNumber]) ?
1745:Generated_Source\PSoC5/USBUART.c ****                                                                   (USBUART_DmaEpLastBurstEl[epNumbe
1746:Generated_Source\PSoC5/USBUART.c ****                                                                   (USBUART_DMA_BYTES_PER_BURST - 1u
1747:Generated_Source\PSoC5/USBUART.c **** 
1748:Generated_Source\PSoC5/USBUART.c ****             /* Get number of data elements to transfer for descriptor 0 and 1. */
1749:Generated_Source\PSoC5/USBUART.c ****             lengthDescr0 = (1u == USBUART_DmaEpBurstCnt[epNumber]) ? USBUART_DmaEpLastBurstEl[epNum
1750:Generated_Source\PSoC5/USBUART.c ****             lengthDescr1 = (2u == USBUART_DmaEpBurstCnt[epNumber]) ? USBUART_DmaEpLastBurstEl[epNum
1751:Generated_Source\PSoC5/USBUART.c **** 
1752:Generated_Source\PSoC5/USBUART.c ****             /* Mark if revert number of data elements in descriptor after transfer completion. */
1753:Generated_Source\PSoC5/USBUART.c ****             USBUART_DmaEpLastBurstEl[epNumber] |= (USBUART_DmaEpBurstCnt[epNumber] > 2u) ? USBUART_
1754:Generated_Source\PSoC5/USBUART.c **** 
1755:Generated_Source\PSoC5/USBUART.c ****             /* Mark last descriptor to be executed. */
1756:Generated_Source\PSoC5/USBUART.c ****             USBUART_DmaEpLastBurstEl[epNumber] |= (0u != (USBUART_DmaEpBurstCnt[epNumber] & 0x1u)) 
1757:Generated_Source\PSoC5/USBUART.c ****                                                                     USBUART_DMA_DESCR0_MASK : USBUA
1758:Generated_Source\PSoC5/USBUART.c **** 
1759:Generated_Source\PSoC5/USBUART.c ****             /* Store address of buffer and burst counter for endpoint. */
1760:Generated_Source\PSoC5/USBUART.c ****             USBUART_DmaEpBufferAddrBackup[epNumber] = (uint32) pData;
1761:Generated_Source\PSoC5/USBUART.c ****             USBUART_DmaEpBurstCntBackup[epNumber]   = USBUART_DmaEpBurstCnt[epNumber];
1762:Generated_Source\PSoC5/USBUART.c **** 
1763:Generated_Source\PSoC5/USBUART.c ****             /* Adjust burst counter taking to account: 2 valid descriptors and interrupt trigger af
1764:Generated_Source\PSoC5/USBUART.c ****             USBUART_DmaEpBurstCnt[epNumber] = USBUART_DMA_GET_BURST_CNT(USBUART_DmaEpBurstCnt[epNum
1765:Generated_Source\PSoC5/USBUART.c **** 
1766:Generated_Source\PSoC5/USBUART.c ****             /* Disable DMA channel: start configuration. */
1767:Generated_Source\PSoC5/USBUART.c ****             USBUART_CyDmaChDisable(channelNum);
1768:Generated_Source\PSoC5/USBUART.c **** 
1769:Generated_Source\PSoC5/USBUART.c ****             /* Set destination address. */
1770:Generated_Source\PSoC5/USBUART.c ****             USBUART_CyDmaSetSrcAddress(channelNum, USBUART_DMA_DESCR0, (void*) &USBUART_ARB_EP_BASE
1771:Generated_Source\PSoC5/USBUART.c ****             USBUART_CyDmaSetSrcAddress(channelNum, USBUART_DMA_DESCR1, (void*) &USBUART_ARB_EP_BASE
1772:Generated_Source\PSoC5/USBUART.c **** 
1773:Generated_Source\PSoC5/USBUART.c ****             USBUART_CyDmaSetDstAddress(channelNum, USBUART_DMA_DESCR0, (void*) ((uint32) pData));
1774:Generated_Source\PSoC5/USBUART.c ****             USBUART_CyDmaSetDstAddress(channelNum, USBUART_DMA_DESCR1, (void*) ((uint32) pData + US
1775:Generated_Source\PSoC5/USBUART.c **** 
1776:Generated_Source\PSoC5/USBUART.c ****             /* Configure DMA descriptor. */
1777:Generated_Source\PSoC5/USBUART.c ****             USBUART_CyDmaSetConfiguration(channelNum, USBUART_DMA_DESCR0, USBUART_DMA_COMMON_CFG  |
1778:Generated_Source\PSoC5/USBUART.c ****                                                     CYDMA_BYTE | CYDMA_WORD_ELEMENT | CYDMA_INC_DST
1779:Generated_Source\PSoC5/USBUART.c **** 
ARM GAS  C:\Users\ingan\AppData\Local\Temp\ccMtFi7x.s 			page 55


1780:Generated_Source\PSoC5/USBUART.c ****             /* Configure DMA descriptor. */
1781:Generated_Source\PSoC5/USBUART.c ****             USBUART_CyDmaSetConfiguration(channelNum, USBUART_DMA_DESCR1, USBUART_DMA_COMMON_CFG  |
1782:Generated_Source\PSoC5/USBUART.c ****                                                     CYDMA_BYTE | CYDMA_WORD_ELEMENT | CYDMA_INC_DST
1783:Generated_Source\PSoC5/USBUART.c **** 
1784:Generated_Source\PSoC5/USBUART.c ****             /* Enable interrupt from DMA channel. */
1785:Generated_Source\PSoC5/USBUART.c ****             USBUART_CyDmaSetInterruptMask(channelNum);
1786:Generated_Source\PSoC5/USBUART.c **** 
1787:Generated_Source\PSoC5/USBUART.c ****             /* Validate DMA descriptor 0 and 1. */
1788:Generated_Source\PSoC5/USBUART.c ****             USBUART_CyDmaValidateDescriptor(channelNum, USBUART_DMA_DESCR0);
1789:Generated_Source\PSoC5/USBUART.c **** 
1790:Generated_Source\PSoC5/USBUART.c ****             if (USBUART_DmaEpBurstCntBackup[epNumber] > 1u)
1791:Generated_Source\PSoC5/USBUART.c ****             {
1792:Generated_Source\PSoC5/USBUART.c ****                 USBUART_CyDmaValidateDescriptor(channelNum, USBUART_DMA_DESCR1);
1793:Generated_Source\PSoC5/USBUART.c ****             }
1794:Generated_Source\PSoC5/USBUART.c **** 
1795:Generated_Source\PSoC5/USBUART.c ****             /* Enable DMA channel: configuration complete. */
1796:Generated_Source\PSoC5/USBUART.c ****             USBUART_CyDmaChEnable(channelNum);
1797:Generated_Source\PSoC5/USBUART.c ****         }
1798:Generated_Source\PSoC5/USBUART.c ****         #else
1799:Generated_Source\PSoC5/USBUART.c ****             (void) CyDmaChDisable(USBUART_DmaChan[epNumber]);
1800:Generated_Source\PSoC5/USBUART.c ****             (void) CyDmaTdSetConfiguration(USBUART_DmaTd[epNumber], length,  USBUART_DmaTd[epNumber
1801:Generated_Source\PSoC5/USBUART.c ****             (void) CyDmaTdSetAddress(USBUART_DmaTd[epNumber], LO16((uint32) &USBUART_ARB_EP_BASE.ar
1802:Generated_Source\PSoC5/USBUART.c **** 
1803:Generated_Source\PSoC5/USBUART.c ****             /* Clear Any potential pending DMA requests before starting DMA channel to transfer dat
1804:Generated_Source\PSoC5/USBUART.c ****             (void) CyDmaClearPendingDrq(USBUART_DmaChan[epNumber]);
1805:Generated_Source\PSoC5/USBUART.c **** 
1806:Generated_Source\PSoC5/USBUART.c ****             /* Enable DMA channel. */
1807:Generated_Source\PSoC5/USBUART.c ****             (void) CyDmaChSetInitialTd(USBUART_DmaChan[epNumber], USBUART_DmaTd[epNumber]);
1808:Generated_Source\PSoC5/USBUART.c ****             (void) CyDmaChEnable(USBUART_DmaChan[epNumber], 1u);
1809:Generated_Source\PSoC5/USBUART.c ****         #endif /* (CY_PSOC4) */
1810:Generated_Source\PSoC5/USBUART.c **** 
1811:Generated_Source\PSoC5/USBUART.c ****             /* OUT endpoint has to be armed again by user when DMA transfers have been completed.
1812:Generated_Source\PSoC5/USBUART.c ****             * NO_EVENT_PENDING: notifies that data has been copied from endpoint buffer.
1813:Generated_Source\PSoC5/USBUART.c ****             */
1814:Generated_Source\PSoC5/USBUART.c **** 
1815:Generated_Source\PSoC5/USBUART.c ****         #endif /* (USBUART_EP_MANAGEMENT_DMA_AUTO) */
1816:Generated_Source\PSoC5/USBUART.c ****     #endif /* (USBUART_EP_MANAGEMENT_MANUAL) */
1817:Generated_Source\PSoC5/USBUART.c ****     }
1818:Generated_Source\PSoC5/USBUART.c ****     else
1819:Generated_Source\PSoC5/USBUART.c ****     {
1820:Generated_Source\PSoC5/USBUART.c ****         length = 0u;
 1265              		.loc 1 1820 0
 1266 0092 0025     		movs	r5, #0
 1267 0094 02E0     		b	.L81
 1268              	.L85:
 1269 0096 0025     		movs	r5, #0
 1270 0098 00E0     		b	.L81
 1271              	.L86:
 1272 009a 0025     		movs	r5, #0
 1273              	.LVL103:
 1274              	.L81:
1821:Generated_Source\PSoC5/USBUART.c ****     }
1822:Generated_Source\PSoC5/USBUART.c **** 
1823:Generated_Source\PSoC5/USBUART.c ****     return (length);
1824:Generated_Source\PSoC5/USBUART.c **** }
 1275              		.loc 1 1824 0
 1276 009c 2846     		mov	r0, r5
ARM GAS  C:\Users\ingan\AppData\Local\Temp\ccMtFi7x.s 			page 56


 1277 009e BDE8F883 		pop	{r3, r4, r5, r6, r7, r8, r9, pc}
 1278              	.LVL104:
 1279              	.L89:
 1280 00a2 00BF     		.align	2
 1281              	.L88:
 1282 00a4 00000000 		.word	USBUART_DmaTd
 1283 00a8 70600040 		.word	1073766512
 1284 00ac 00000000 		.word	USBUART_DmaChan
 1285              		.cfi_endproc
 1286              	.LFE14:
 1287              		.size	USBUART_ReadOutEP, .-USBUART_ReadOutEP
 1288              		.section	.text.USBUART_EnableOutEP,"ax",%progbits
 1289              		.align	2
 1290              		.global	USBUART_EnableOutEP
 1291              		.thumb
 1292              		.thumb_func
 1293              		.type	USBUART_EnableOutEP, %function
 1294              	USBUART_EnableOutEP:
 1295              	.LFB15:
1825:Generated_Source\PSoC5/USBUART.c **** 
1826:Generated_Source\PSoC5/USBUART.c **** 
1827:Generated_Source\PSoC5/USBUART.c **** #if (USBUART_16BITS_EP_ACCESS_ENABLE)
1828:Generated_Source\PSoC5/USBUART.c **** /*******************************************************************************
1829:Generated_Source\PSoC5/USBUART.c **** * Function Name: USBUART_LoadInEP16
1830:Generated_Source\PSoC5/USBUART.c **** ****************************************************************************//**
1831:Generated_Source\PSoC5/USBUART.c **** *
1832:Generated_Source\PSoC5/USBUART.c **** *  This function performs different functionality depending on the Component’s
1833:Generated_Source\PSoC5/USBUART.c **** *  configured Endpoint Buffer Management. This parameter is defined in
1834:Generated_Source\PSoC5/USBUART.c **** *  the Descriptor Root in Component Configure window.
1835:Generated_Source\PSoC5/USBUART.c **** *
1836:Generated_Source\PSoC5/USBUART.c **** *  *Manual (Static/Dynamic Allocation):*
1837:Generated_Source\PSoC5/USBUART.c **** *  This function loads and enables the specified USB data endpoint for an IN
1838:Generated_Source\PSoC5/USBUART.c **** *  data transfer.
1839:Generated_Source\PSoC5/USBUART.c **** *
1840:Generated_Source\PSoC5/USBUART.c **** *  *DMA with Manual Buffer Management:*
1841:Generated_Source\PSoC5/USBUART.c **** *  Configures DMA for a data transfer from system RAM to endpoint buffer.
1842:Generated_Source\PSoC5/USBUART.c **** *  Generates request for a transfer.
1843:Generated_Source\PSoC5/USBUART.c **** *
1844:Generated_Source\PSoC5/USBUART.c **** *  *DMA with Automatic Buffer Management:*
1845:Generated_Source\PSoC5/USBUART.c **** *  Configures DMA. This is required only once, so it is done only when parameter
1846:Generated_Source\PSoC5/USBUART.c **** *  pData is not NULL. When the pData pointer is NULL, the function skips this
1847:Generated_Source\PSoC5/USBUART.c **** *  task. Sets Data ready status: This generates the first DMA transfer and
1848:Generated_Source\PSoC5/USBUART.c **** *  prepares data in endpoint buffer.
1849:Generated_Source\PSoC5/USBUART.c **** *
1850:Generated_Source\PSoC5/USBUART.c **** *  \param epNumber Contains the data endpoint number.
1851:Generated_Source\PSoC5/USBUART.c **** *        Valid values are between 1 and 8.
1852:Generated_Source\PSoC5/USBUART.c **** *  \param *pData A pointer to a data array from which the data for the endpoint
1853:Generated_Source\PSoC5/USBUART.c **** *        space is loaded. It shall be ensured that this pointer address is even
1854:Generated_Source\PSoC5/USBUART.c **** *        to ensure the 16-bit transfer is aligned to even address. Else, a hard
1855:Generated_Source\PSoC5/USBUART.c **** *        fault condition can occur.
1856:Generated_Source\PSoC5/USBUART.c **** *  \param length The number of bytes to transfer from the array and then send as
1857:Generated_Source\PSoC5/USBUART.c **** *        a result of an IN request. Valid values are between 0 and 512 (1023 for
1858:Generated_Source\PSoC5/USBUART.c **** *        DMA with Automatic Buffer Management mode). The value 512 is applicable
1859:Generated_Source\PSoC5/USBUART.c **** *        if only one endpoint is used.
1860:Generated_Source\PSoC5/USBUART.c **** *
1861:Generated_Source\PSoC5/USBUART.c **** * \reentrant
1862:Generated_Source\PSoC5/USBUART.c **** *  No.
ARM GAS  C:\Users\ingan\AppData\Local\Temp\ccMtFi7x.s 			page 57


1863:Generated_Source\PSoC5/USBUART.c **** *
1864:Generated_Source\PSoC5/USBUART.c **** *******************************************************************************/
1865:Generated_Source\PSoC5/USBUART.c **** void USBUART_LoadInEP16(uint8 epNumber, const uint8 pData[], uint16 length)
1866:Generated_Source\PSoC5/USBUART.c **** {
1867:Generated_Source\PSoC5/USBUART.c ****     /* Check array alignment on half-word boundary. */
1868:Generated_Source\PSoC5/USBUART.c ****     CYASSERT(0u == (((uint32) pData) & 0x01u));
1869:Generated_Source\PSoC5/USBUART.c **** 
1870:Generated_Source\PSoC5/USBUART.c ****     if ((epNumber > USBUART_EP0) && (epNumber < USBUART_MAX_EP))
1871:Generated_Source\PSoC5/USBUART.c ****     {
1872:Generated_Source\PSoC5/USBUART.c ****     #if (!USBUART_EP_MANAGEMENT_DMA_AUTO)
1873:Generated_Source\PSoC5/USBUART.c ****         /* Limit length to available buffer USB IP buffer size. */
1874:Generated_Source\PSoC5/USBUART.c ****         if (length > (USBUART_EPX_DATA_BUF_MAX - USBUART_EP[epNumber].buffOffset))
1875:Generated_Source\PSoC5/USBUART.c ****         {
1876:Generated_Source\PSoC5/USBUART.c ****             length = USBUART_EPX_DATA_BUF_MAX - USBUART_EP[epNumber].buffOffset;
1877:Generated_Source\PSoC5/USBUART.c ****         }
1878:Generated_Source\PSoC5/USBUART.c ****     #endif /* (!USBUART_EP_MANAGEMENT_DMA_AUTO) */
1879:Generated_Source\PSoC5/USBUART.c **** 
1880:Generated_Source\PSoC5/USBUART.c ****         /* Set count and data toggle. */
1881:Generated_Source\PSoC5/USBUART.c ****         USBUART_SIE_EP_BASE.sieEp[epNumber].epCnt0 = (uint32) HI8(length) | USBUART_EP[epNumber].ep
1882:Generated_Source\PSoC5/USBUART.c ****         USBUART_SIE_EP_BASE.sieEp[epNumber].epCnt1 = (uint32) LO8(length);
1883:Generated_Source\PSoC5/USBUART.c **** 
1884:Generated_Source\PSoC5/USBUART.c ****         /* Adjust requested length: 2 bytes are handled at one data register access. */
1885:Generated_Source\PSoC5/USBUART.c ****         length += (length & 0x01u);
1886:Generated_Source\PSoC5/USBUART.c **** 
1887:Generated_Source\PSoC5/USBUART.c ****     #if (USBUART_EP_MANAGEMENT_MANUAL)
1888:Generated_Source\PSoC5/USBUART.c ****         if (NULL != pData)
1889:Generated_Source\PSoC5/USBUART.c ****         {
1890:Generated_Source\PSoC5/USBUART.c ****             /* Convert uint8 array to uint16. */
1891:Generated_Source\PSoC5/USBUART.c ****             const uint16 *dataBuf = (uint16 *) pData;
1892:Generated_Source\PSoC5/USBUART.c **** 
1893:Generated_Source\PSoC5/USBUART.c ****             /* Copy data using 16-bits arbiter data register. */
1894:Generated_Source\PSoC5/USBUART.c ****             uint16 i;
1895:Generated_Source\PSoC5/USBUART.c ****             for (i = 0u; i < (length >> 1u); ++i)
1896:Generated_Source\PSoC5/USBUART.c ****             {
1897:Generated_Source\PSoC5/USBUART.c ****                 USBUART_ARB_EP16_BASE.arbEp[epNumber].rwDr16 = dataBuf[i];
1898:Generated_Source\PSoC5/USBUART.c ****             }
1899:Generated_Source\PSoC5/USBUART.c ****         }
1900:Generated_Source\PSoC5/USBUART.c **** 
1901:Generated_Source\PSoC5/USBUART.c ****         /* IN endpoint buffer is full - read to be read. */
1902:Generated_Source\PSoC5/USBUART.c ****         USBUART_EP[epNumber].apiEpState = USBUART_NO_EVENT_PENDING;
1903:Generated_Source\PSoC5/USBUART.c **** 
1904:Generated_Source\PSoC5/USBUART.c ****         /* Arm IN endpoint. */
1905:Generated_Source\PSoC5/USBUART.c ****         USBUART_SIE_EP_BASE.sieEp[epNumber].epCr0 = USBUART_EP[epNumber].epMode;
1906:Generated_Source\PSoC5/USBUART.c **** 
1907:Generated_Source\PSoC5/USBUART.c ****     #else
1908:Generated_Source\PSoC5/USBUART.c **** 
1909:Generated_Source\PSoC5/USBUART.c ****         #if (USBUART_EP_MANAGEMENT_DMA_MANUAL)
1910:Generated_Source\PSoC5/USBUART.c ****             /* IN endpoint buffer will be fully loaded by DMA shortly. */
1911:Generated_Source\PSoC5/USBUART.c ****             USBUART_EP[epNumber].apiEpState = USBUART_NO_EVENT_PENDING;
1912:Generated_Source\PSoC5/USBUART.c **** 
1913:Generated_Source\PSoC5/USBUART.c ****             if ((pData != NULL) && (length > 0u))
1914:Generated_Source\PSoC5/USBUART.c ****             {
1915:Generated_Source\PSoC5/USBUART.c ****                 uint32 channelNum = (uint32) USBUART_DmaChan[epNumber];
1916:Generated_Source\PSoC5/USBUART.c **** 
1917:Generated_Source\PSoC5/USBUART.c ****                 /* Disable DMA channel: start configuration. */
1918:Generated_Source\PSoC5/USBUART.c ****                 USBUART_CyDmaChDisable(channelNum);
1919:Generated_Source\PSoC5/USBUART.c **** 
ARM GAS  C:\Users\ingan\AppData\Local\Temp\ccMtFi7x.s 			page 58


1920:Generated_Source\PSoC5/USBUART.c ****                 /* Configure source and destination. */
1921:Generated_Source\PSoC5/USBUART.c ****                 USBUART_CyDmaSetSrcAddress(channelNum, USBUART_DMA_DESCR0, (void*) pData);
1922:Generated_Source\PSoC5/USBUART.c ****                 USBUART_CyDmaSetDstAddress(channelNum, USBUART_DMA_DESCR0, (void*) &USBUART_ARB_EP1
1923:Generated_Source\PSoC5/USBUART.c **** 
1924:Generated_Source\PSoC5/USBUART.c ****                 /* Configure DMA descriptor. */
1925:Generated_Source\PSoC5/USBUART.c ****                 length = (length >> 1u) - 1u;
1926:Generated_Source\PSoC5/USBUART.c ****                 USBUART_CyDmaSetConfiguration(channelNum, USBUART_DMA_DESCR0, USBUART_DMA_COMMON_CF
1927:Generated_Source\PSoC5/USBUART.c ****                                                         CYDMA_HALFWORD | CYDMA_ELEMENT_WORD | CYDMA
1928:Generated_Source\PSoC5/USBUART.c **** 
1929:Generated_Source\PSoC5/USBUART.c ****                 /* Validate descriptor to execute on following DMA request. */
1930:Generated_Source\PSoC5/USBUART.c ****                 USBUART_CyDmaValidateDescriptor(channelNum, USBUART_DMA_DESCR0);
1931:Generated_Source\PSoC5/USBUART.c **** 
1932:Generated_Source\PSoC5/USBUART.c ****                 /* Enable DMA channel: configuration complete. */
1933:Generated_Source\PSoC5/USBUART.c ****                 USBUART_CyDmaChEnable(channelNum);
1934:Generated_Source\PSoC5/USBUART.c **** 
1935:Generated_Source\PSoC5/USBUART.c ****                 /* Generate DMA request. */
1936:Generated_Source\PSoC5/USBUART.c ****                 USBUART_ARB_EP_BASE.arbEp[epNumber].epCfg |=  (uint32)  USBUART_ARB_EPX_CFG_DMA_REQ
1937:Generated_Source\PSoC5/USBUART.c ****                 USBUART_ARB_EP_BASE.arbEp[epNumber].epCfg &=  (uint32) ~USBUART_ARB_EPX_CFG_DMA_REQ
1938:Generated_Source\PSoC5/USBUART.c **** 
1939:Generated_Source\PSoC5/USBUART.c ****                 /* IN endpoint will be armed in ARB_ISR(source: IN_BUF_FULL) after first DMA transf
1940:Generated_Source\PSoC5/USBUART.c ****             }
1941:Generated_Source\PSoC5/USBUART.c ****             else
1942:Generated_Source\PSoC5/USBUART.c ****             {
1943:Generated_Source\PSoC5/USBUART.c ****                 /* When zero-length packet: arm IN endpoint directly. */
1944:Generated_Source\PSoC5/USBUART.c ****                 USBUART_SIE_EP_BASE.sieEp[epNumber].epCr0 = USBUART_EP[epNumber].epMode;
1945:Generated_Source\PSoC5/USBUART.c ****             }
1946:Generated_Source\PSoC5/USBUART.c ****         #endif /* (USBUART_EP_MANAGEMENT_DMA_MANUAL) */
1947:Generated_Source\PSoC5/USBUART.c **** 
1948:Generated_Source\PSoC5/USBUART.c ****         #if (USBUART_EP_MANAGEMENT_DMA_AUTO)
1949:Generated_Source\PSoC5/USBUART.c ****             if (pData != NULL)
1950:Generated_Source\PSoC5/USBUART.c ****             {
1951:Generated_Source\PSoC5/USBUART.c ****                 uint32 channelNum = (uint32) USBUART_DmaChan[epNumber];
1952:Generated_Source\PSoC5/USBUART.c **** 
1953:Generated_Source\PSoC5/USBUART.c ****                 /* Store address of buffer. */
1954:Generated_Source\PSoC5/USBUART.c ****                 USBUART_DmaEpBufferAddrBackup[epNumber] = (uint32) pData;
1955:Generated_Source\PSoC5/USBUART.c **** 
1956:Generated_Source\PSoC5/USBUART.c ****                 /* Disable DMA channel: start configuration. */
1957:Generated_Source\PSoC5/USBUART.c ****                 USBUART_CyDmaChDisable(channelNum);
1958:Generated_Source\PSoC5/USBUART.c **** 
1959:Generated_Source\PSoC5/USBUART.c ****                 /* Set destination address. */
1960:Generated_Source\PSoC5/USBUART.c ****                 USBUART_CyDmaSetDstAddress(channelNum, USBUART_DMA_DESCR0, (void*) &USBUART_ARB_EP1
1961:Generated_Source\PSoC5/USBUART.c ****                 USBUART_CyDmaSetDstAddress(channelNum, USBUART_DMA_DESCR1, (void*) &USBUART_ARB_EP1
1962:Generated_Source\PSoC5/USBUART.c **** 
1963:Generated_Source\PSoC5/USBUART.c ****                 /* Configure DMA descriptor. */
1964:Generated_Source\PSoC5/USBUART.c ****                 USBUART_CyDmaSetConfiguration(channelNum, USBUART_DMA_DESCR0, USBUART_DMA_COMMON_CF
1965:Generated_Source\PSoC5/USBUART.c ****                                                         CYDMA_HALFWORD | CYDMA_ELEMENT_WORD | CYDMA
1966:Generated_Source\PSoC5/USBUART.c **** 
1967:Generated_Source\PSoC5/USBUART.c ****                 /* Configure DMA descriptor. */
1968:Generated_Source\PSoC5/USBUART.c ****                 USBUART_CyDmaSetConfiguration(channelNum, USBUART_DMA_DESCR1, USBUART_DMA_COMMON_CF
1969:Generated_Source\PSoC5/USBUART.c ****                                                         CYDMA_HALFWORD | CYDMA_ELEMENT_WORD | CYDMA
1970:Generated_Source\PSoC5/USBUART.c **** 
1971:Generated_Source\PSoC5/USBUART.c ****                 /* Enable interrupt from DMA channel. */
1972:Generated_Source\PSoC5/USBUART.c ****                 USBUART_CyDmaSetInterruptMask(channelNum);
1973:Generated_Source\PSoC5/USBUART.c **** 
1974:Generated_Source\PSoC5/USBUART.c ****                 /* Enable DMA channel: configuration complete. */
1975:Generated_Source\PSoC5/USBUART.c ****                 USBUART_CyDmaChEnable(channelNum);
1976:Generated_Source\PSoC5/USBUART.c ****             }
ARM GAS  C:\Users\ingan\AppData\Local\Temp\ccMtFi7x.s 			page 59


1977:Generated_Source\PSoC5/USBUART.c ****             else
1978:Generated_Source\PSoC5/USBUART.c ****             {
1979:Generated_Source\PSoC5/USBUART.c ****                 /* IN endpoint buffer (32 bytes) will shortly be preloaded by DMA. */
1980:Generated_Source\PSoC5/USBUART.c ****                 USBUART_EP[epNumber].apiEpState = USBUART_NO_EVENT_PENDING;
1981:Generated_Source\PSoC5/USBUART.c **** 
1982:Generated_Source\PSoC5/USBUART.c ****                 if (length > 0u)
1983:Generated_Source\PSoC5/USBUART.c ****                 {
1984:Generated_Source\PSoC5/USBUART.c ****                     uint32 lengthDescr0, lengthDescr1;
1985:Generated_Source\PSoC5/USBUART.c ****                     uint32 channelNum = (uint32) USBUART_DmaChan[epNumber];
1986:Generated_Source\PSoC5/USBUART.c **** 
1987:Generated_Source\PSoC5/USBUART.c ****                     /* Get number of full bursts. */
1988:Generated_Source\PSoC5/USBUART.c ****                     USBUART_DmaEpBurstCnt[epNumber] = (uint8) (length / USBUART_DMA_BYTES_PER_BURST
1989:Generated_Source\PSoC5/USBUART.c **** 
1990:Generated_Source\PSoC5/USBUART.c ****                     /* Get number of elements in the last burst. */
1991:Generated_Source\PSoC5/USBUART.c ****                     USBUART_DmaEpLastBurstEl[epNumber] = (uint8) (length % USBUART_DMA_BYTES_PER_BU
1992:Generated_Source\PSoC5/USBUART.c **** 
1993:Generated_Source\PSoC5/USBUART.c ****                     /* Get total number of bursts. */
1994:Generated_Source\PSoC5/USBUART.c ****                     USBUART_DmaEpBurstCnt[epNumber] += (0u != USBUART_DmaEpLastBurstEl[epNumber]) ?
1995:Generated_Source\PSoC5/USBUART.c **** 
1996:Generated_Source\PSoC5/USBUART.c ****                     /* Adjust number of data elements transferred in last burst. */
1997:Generated_Source\PSoC5/USBUART.c ****                     USBUART_DmaEpLastBurstEl[epNumber] = (0u != USBUART_DmaEpLastBurstEl[epNumber])
1998:Generated_Source\PSoC5/USBUART.c ****                                                                           ((USBUART_DmaEpLastBurstE
1999:Generated_Source\PSoC5/USBUART.c ****                                                                            (USBUART_DMA_HALFWORDS_P
2000:Generated_Source\PSoC5/USBUART.c **** 
2001:Generated_Source\PSoC5/USBUART.c ****                     /* Get number of data elements to transfer for descriptor 0 and 1. */
2002:Generated_Source\PSoC5/USBUART.c ****                     lengthDescr0 = (1u == USBUART_DmaEpBurstCnt[epNumber]) ? USBUART_DmaEpLastBurst
2003:Generated_Source\PSoC5/USBUART.c ****                     lengthDescr1 = (2u == USBUART_DmaEpBurstCnt[epNumber]) ? USBUART_DmaEpLastBurst
2004:Generated_Source\PSoC5/USBUART.c **** 
2005:Generated_Source\PSoC5/USBUART.c ****                     /* Mark which descriptor is last one to execute. */
2006:Generated_Source\PSoC5/USBUART.c ****                     USBUART_DmaEpLastBurstEl[epNumber] |= (0u != (USBUART_DmaEpBurstCnt[epNumber] &
2007:Generated_Source\PSoC5/USBUART.c ****                                                                             USBUART_DMA_DESCR0_MASK
2008:Generated_Source\PSoC5/USBUART.c **** 
2009:Generated_Source\PSoC5/USBUART.c ****                     /* Restore DMA settings for current transfer. */
2010:Generated_Source\PSoC5/USBUART.c ****                     USBUART_CyDmaChDisable(channelNum);
2011:Generated_Source\PSoC5/USBUART.c **** 
2012:Generated_Source\PSoC5/USBUART.c ****                     /* Restore destination address for input endpoint. */
2013:Generated_Source\PSoC5/USBUART.c ****                     USBUART_CyDmaSetSrcAddress(channelNum, USBUART_DMA_DESCR0, (void*) ((uint32) US
2014:Generated_Source\PSoC5/USBUART.c ****                     USBUART_CyDmaSetSrcAddress(channelNum, USBUART_DMA_DESCR1, (void*) ((uint32) US
2015:Generated_Source\PSoC5/USBUART.c ****                                                                                                    
2016:Generated_Source\PSoC5/USBUART.c **** 
2017:Generated_Source\PSoC5/USBUART.c ****                     /* Set number of elements to transfer. */
2018:Generated_Source\PSoC5/USBUART.c ****                     USBUART_CyDmaSetNumDataElements(channelNum, USBUART_DMA_DESCR0, lengthDescr0);
2019:Generated_Source\PSoC5/USBUART.c ****                     USBUART_CyDmaSetNumDataElements(channelNum, USBUART_DMA_DESCR1, lengthDescr1);
2020:Generated_Source\PSoC5/USBUART.c **** 
2021:Generated_Source\PSoC5/USBUART.c ****                     /* Validate descriptor 0 and command to start with it. */
2022:Generated_Source\PSoC5/USBUART.c ****                     USBUART_CyDmaValidateDescriptor(channelNum, USBUART_DMA_DESCR0);
2023:Generated_Source\PSoC5/USBUART.c ****                     USBUART_CyDmaSetDescriptor0Next(channelNum);
2024:Generated_Source\PSoC5/USBUART.c **** 
2025:Generated_Source\PSoC5/USBUART.c ****                     /* Validate descriptor 1. */
2026:Generated_Source\PSoC5/USBUART.c ****                     if (USBUART_DmaEpBurstCnt[epNumber] > 1u)
2027:Generated_Source\PSoC5/USBUART.c ****                     {
2028:Generated_Source\PSoC5/USBUART.c ****                         USBUART_CyDmaValidateDescriptor(channelNum, USBUART_DMA_DESCR1);
2029:Generated_Source\PSoC5/USBUART.c ****                     }
2030:Generated_Source\PSoC5/USBUART.c **** 
2031:Generated_Source\PSoC5/USBUART.c ****                     /* Adjust burst counter taking to account: 2 valid descriptors and interrupt tr
2032:Generated_Source\PSoC5/USBUART.c ****                     USBUART_DmaEpBurstCnt[epNumber] = USBUART_DMA_GET_BURST_CNT(USBUART_DmaEpBurstC
2033:Generated_Source\PSoC5/USBUART.c **** 
ARM GAS  C:\Users\ingan\AppData\Local\Temp\ccMtFi7x.s 			page 60


2034:Generated_Source\PSoC5/USBUART.c ****                     /* Enable DMA channel: configuration complete. */
2035:Generated_Source\PSoC5/USBUART.c ****                     USBUART_CyDmaChEnable(channelNum);
2036:Generated_Source\PSoC5/USBUART.c **** 
2037:Generated_Source\PSoC5/USBUART.c ****                 #if !defined (USBUART_MANUAL_IN_EP_ARM)
2038:Generated_Source\PSoC5/USBUART.c ****                     /* Set IN data ready to generate DMA request to load data into endpoint buffer.
2039:Generated_Source\PSoC5/USBUART.c ****                     USBUART_ARB_EP_BASE.arbEp[epNumber].epCfg |= USBUART_ARB_EPX_CFG_IN_DATA_RDY;
2040:Generated_Source\PSoC5/USBUART.c ****                 #endif  /* (USBUART_MANUAL_IN_EP_ARM) */
2041:Generated_Source\PSoC5/USBUART.c **** 
2042:Generated_Source\PSoC5/USBUART.c ****                     /* IN endpoint will be armed in ARB_ISR(source: IN_BUF_FULL) after first DMA tr
2043:Generated_Source\PSoC5/USBUART.c ****                 }
2044:Generated_Source\PSoC5/USBUART.c ****                 else
2045:Generated_Source\PSoC5/USBUART.c ****                 {
2046:Generated_Source\PSoC5/USBUART.c ****                     /* When zero-length packet: arm IN endpoint directly. */
2047:Generated_Source\PSoC5/USBUART.c ****                     USBUART_SIE_EP_BASE.sieEp[epNumber].epCr0 = USBUART_EP[epNumber].epMode;
2048:Generated_Source\PSoC5/USBUART.c ****                 }
2049:Generated_Source\PSoC5/USBUART.c ****             }
2050:Generated_Source\PSoC5/USBUART.c ****         #endif /* (USBUART_EP_MANAGEMENT_DMA_AUTO) */
2051:Generated_Source\PSoC5/USBUART.c ****     #endif /* (USBUART_EP_MANAGEMENT_MANUAL) */
2052:Generated_Source\PSoC5/USBUART.c ****     }
2053:Generated_Source\PSoC5/USBUART.c **** }
2054:Generated_Source\PSoC5/USBUART.c **** 
2055:Generated_Source\PSoC5/USBUART.c **** 
2056:Generated_Source\PSoC5/USBUART.c **** /*******************************************************************************
2057:Generated_Source\PSoC5/USBUART.c **** * Function Name: USBUART_ReadOutEP16
2058:Generated_Source\PSoC5/USBUART.c **** ****************************************************************************//**
2059:Generated_Source\PSoC5/USBUART.c **** *
2060:Generated_Source\PSoC5/USBUART.c **** *   This function performs different functionality depending on the Component’s
2061:Generated_Source\PSoC5/USBUART.c **** *   configured Endpoint Buffer Management. This parameter is defined in the
2062:Generated_Source\PSoC5/USBUART.c **** *   Descriptor Root in Component Configure window.
2063:Generated_Source\PSoC5/USBUART.c **** *
2064:Generated_Source\PSoC5/USBUART.c **** *   *Manual (Static/Dynamic Allocation):*
2065:Generated_Source\PSoC5/USBUART.c **** *   This function moves the specified number of bytes from endpoint buffer to
2066:Generated_Source\PSoC5/USBUART.c **** *   system RAM. The number of bytes actually transferred from endpoint buffer to
2067:Generated_Source\PSoC5/USBUART.c **** *   system RAM is the lesser of the actual number of bytes sent by the host or
2068:Generated_Source\PSoC5/USBUART.c **** *   the number of bytes requested by the length parameter.
2069:Generated_Source\PSoC5/USBUART.c **** *
2070:Generated_Source\PSoC5/USBUART.c **** *   *DMA with Manual Buffer Management:*
2071:Generated_Source\PSoC5/USBUART.c **** *   Configure DMA to transfer data from endpoint buffer to system RAM. Generate
2072:Generated_Source\PSoC5/USBUART.c **** *   a DMA request. The firmware must wait until the DMA completes the data
2073:Generated_Source\PSoC5/USBUART.c **** *   transfer after calling the USBUART_ReadOutEP() API. For example,
2074:Generated_Source\PSoC5/USBUART.c **** *   by checking EPstate:
2075:Generated_Source\PSoC5/USBUART.c **** *
2076:Generated_Source\PSoC5/USBUART.c **** *   \snippet /USBFS_sut_02.cydsn/main.c checking EPstatey
2077:Generated_Source\PSoC5/USBUART.c **** *
2078:Generated_Source\PSoC5/USBUART.c **** *   The USBFS_EnableOutEP() has to be called to allow host to write data into
2079:Generated_Source\PSoC5/USBUART.c **** *   the endpoint buffer after DMA has completed transfer data from OUT endpoint
2080:Generated_Source\PSoC5/USBUART.c **** *   buffer to SRAM.
2081:Generated_Source\PSoC5/USBUART.c **** *
2082:Generated_Source\PSoC5/USBUART.c **** *   *DMA with Automatic Buffer Management:*
2083:Generated_Source\PSoC5/USBUART.c **** *   Configure DMA. This is required only once and automatically generates DMA
2084:Generated_Source\PSoC5/USBUART.c **** *   requests as data arrives
2085:Generated_Source\PSoC5/USBUART.c **** *
2086:Generated_Source\PSoC5/USBUART.c **** *  \param epNumber: Contains the data endpoint number.
2087:Generated_Source\PSoC5/USBUART.c **** *         Valid values are between 1 and 8.
2088:Generated_Source\PSoC5/USBUART.c **** *  \param pData: A pointer to a data array into which the data for the endpoint
2089:Generated_Source\PSoC5/USBUART.c **** *         space is copied. It shall be ensured that this pointer address is
2090:Generated_Source\PSoC5/USBUART.c **** *         even to ensure the 16-bit transfer is aligned to even address. Else,
ARM GAS  C:\Users\ingan\AppData\Local\Temp\ccMtFi7x.s 			page 61


2091:Generated_Source\PSoC5/USBUART.c **** *         a hard fault condition can occur.
2092:Generated_Source\PSoC5/USBUART.c **** *  \param length: The number of bytes to transfer from the USB Out endpoint and
2093:Generated_Source\PSoC5/USBUART.c **** *         loads it into data array. Valid values are between 0 and 1023. The
2094:Generated_Source\PSoC5/USBUART.c **** *         function moves fewer than the requested number of bytes if the host
2095:Generated_Source\PSoC5/USBUART.c **** *         sends fewer bytes than requested.
2096:Generated_Source\PSoC5/USBUART.c **** *
2097:Generated_Source\PSoC5/USBUART.c **** * \return
2098:Generated_Source\PSoC5/USBUART.c **** *  Number of bytes received, 0 for an invalid endpoint.
2099:Generated_Source\PSoC5/USBUART.c **** *
2100:Generated_Source\PSoC5/USBUART.c **** * \reentrant
2101:Generated_Source\PSoC5/USBUART.c **** *  No.
2102:Generated_Source\PSoC5/USBUART.c **** *
2103:Generated_Source\PSoC5/USBUART.c **** *******************************************************************************/
2104:Generated_Source\PSoC5/USBUART.c **** uint16 USBUART_ReadOutEP16(uint8 epNumber, uint8 pData[], uint16 length)
2105:Generated_Source\PSoC5/USBUART.c **** {
2106:Generated_Source\PSoC5/USBUART.c ****     uint32 adjLength;
2107:Generated_Source\PSoC5/USBUART.c **** 
2108:Generated_Source\PSoC5/USBUART.c ****     /* Check array alignment on half-word boundary */
2109:Generated_Source\PSoC5/USBUART.c ****     CYASSERT(0u == (((uint32) pData) & 0x01u));
2110:Generated_Source\PSoC5/USBUART.c **** 
2111:Generated_Source\PSoC5/USBUART.c ****     if ((pData != NULL) && (epNumber > USBUART_EP0) && (epNumber < USBUART_MAX_EP))
2112:Generated_Source\PSoC5/USBUART.c ****     {
2113:Generated_Source\PSoC5/USBUART.c ****     #if (!USBUART_EP_MANAGEMENT_DMA_AUTO)
2114:Generated_Source\PSoC5/USBUART.c ****         /* Adjust requested length to available data. */
2115:Generated_Source\PSoC5/USBUART.c ****         length = (length > USBUART_GetEPCount(epNumber)) ? USBUART_GetEPCount(epNumber) : length;
2116:Generated_Source\PSoC5/USBUART.c ****     #endif /* (!USBUART_EP_MANAGEMENT_DMA_AUTO) */
2117:Generated_Source\PSoC5/USBUART.c **** 
2118:Generated_Source\PSoC5/USBUART.c ****     /* Adjust requested length: 2 bytes are handled at one data register access. */
2119:Generated_Source\PSoC5/USBUART.c ****     adjLength =  length + ((uint32)length & 1u);
2120:Generated_Source\PSoC5/USBUART.c **** 
2121:Generated_Source\PSoC5/USBUART.c ****     #if (USBUART_EP_MANAGEMENT_MANUAL)
2122:Generated_Source\PSoC5/USBUART.c ****         {
2123:Generated_Source\PSoC5/USBUART.c ****             /* Convert uint8 array to uint16. */
2124:Generated_Source\PSoC5/USBUART.c ****             uint16 *dataBuf = (uint16 *) pData;
2125:Generated_Source\PSoC5/USBUART.c **** 
2126:Generated_Source\PSoC5/USBUART.c ****             /* Copy data using 16-bits arbiter data register. */
2127:Generated_Source\PSoC5/USBUART.c ****             uint16 i;
2128:Generated_Source\PSoC5/USBUART.c ****             for (i = 0u; i < (adjLength >> 1u); ++i)
2129:Generated_Source\PSoC5/USBUART.c ****             {
2130:Generated_Source\PSoC5/USBUART.c ****                 dataBuf[i] = (uint16) USBUART_ARB_EP16_BASE.arbEp[epNumber].rwDr16;
2131:Generated_Source\PSoC5/USBUART.c ****             }
2132:Generated_Source\PSoC5/USBUART.c ****         }
2133:Generated_Source\PSoC5/USBUART.c **** 
2134:Generated_Source\PSoC5/USBUART.c ****         /* Arm OUT endpoint after data has been read from endpoint buffer. */
2135:Generated_Source\PSoC5/USBUART.c ****         USBUART_EnableOutEP(epNumber);
2136:Generated_Source\PSoC5/USBUART.c ****     #else
2137:Generated_Source\PSoC5/USBUART.c **** 
2138:Generated_Source\PSoC5/USBUART.c ****         #if (USBUART_EP_MANAGEMENT_DMA_MANUAL)
2139:Generated_Source\PSoC5/USBUART.c ****         {
2140:Generated_Source\PSoC5/USBUART.c ****             uint32 channelNum = (uint32) USBUART_DmaChan[epNumber];
2141:Generated_Source\PSoC5/USBUART.c **** 
2142:Generated_Source\PSoC5/USBUART.c ****             /* Disable DMA channel: start configuration. */
2143:Generated_Source\PSoC5/USBUART.c ****             USBUART_CyDmaChDisable(channelNum);
2144:Generated_Source\PSoC5/USBUART.c **** 
2145:Generated_Source\PSoC5/USBUART.c ****             /* Configure source and destination. */
2146:Generated_Source\PSoC5/USBUART.c ****             USBUART_CyDmaSetSrcAddress(channelNum, USBUART_DMA_DESCR0, (void*) &USBUART_ARB_EP16_BA
2147:Generated_Source\PSoC5/USBUART.c ****             USBUART_CyDmaSetDstAddress(channelNum, USBUART_DMA_DESCR0, (void*) pData);
ARM GAS  C:\Users\ingan\AppData\Local\Temp\ccMtFi7x.s 			page 62


2148:Generated_Source\PSoC5/USBUART.c **** 
2149:Generated_Source\PSoC5/USBUART.c ****             /* Configure DMA descriptor. */
2150:Generated_Source\PSoC5/USBUART.c ****             USBUART_CyDmaSetConfiguration(channelNum, USBUART_DMA_DESCR0, USBUART_DMA_COMMON_CFG | 
2151:Generated_Source\PSoC5/USBUART.c ****                                                     CYDMA_HALFWORD | CYDMA_WORD_ELEMENT | CYDMA_INC
2152:Generated_Source\PSoC5/USBUART.c **** 
2153:Generated_Source\PSoC5/USBUART.c ****             /* Validate descriptor to execute on following DMA request. */
2154:Generated_Source\PSoC5/USBUART.c ****             USBUART_CyDmaValidateDescriptor(channelNum, USBUART_DMA_DESCR0);
2155:Generated_Source\PSoC5/USBUART.c **** 
2156:Generated_Source\PSoC5/USBUART.c ****             /* Enable DMA channel: configuration complete. */
2157:Generated_Source\PSoC5/USBUART.c ****             USBUART_CyDmaChEnable(channelNum);
2158:Generated_Source\PSoC5/USBUART.c **** 
2159:Generated_Source\PSoC5/USBUART.c ****             /* Generate DMA request. */
2160:Generated_Source\PSoC5/USBUART.c ****             USBUART_ARB_EP_BASE.arbEp[epNumber].epCfg |=  (uint32)  USBUART_ARB_EPX_CFG_DMA_REQ;
2161:Generated_Source\PSoC5/USBUART.c ****             USBUART_ARB_EP_BASE.arbEp[epNumber].epCfg &=  (uint32) ~USBUART_ARB_EPX_CFG_DMA_REQ;
2162:Generated_Source\PSoC5/USBUART.c **** 
2163:Generated_Source\PSoC5/USBUART.c ****             /* OUT endpoint has to be armed again by user when DMA transfers have been completed.
2164:Generated_Source\PSoC5/USBUART.c ****             * NO_EVENT_PENDING: notifies that data has been copied from endpoint buffer.
2165:Generated_Source\PSoC5/USBUART.c ****             */
2166:Generated_Source\PSoC5/USBUART.c ****         }
2167:Generated_Source\PSoC5/USBUART.c ****         #endif /* (USBUART_EP_MANAGEMENT_DMA_MANUAL) */
2168:Generated_Source\PSoC5/USBUART.c **** 
2169:Generated_Source\PSoC5/USBUART.c ****         #if (USBUART_EP_MANAGEMENT_DMA_AUTO)
2170:Generated_Source\PSoC5/USBUART.c ****         {
2171:Generated_Source\PSoC5/USBUART.c ****             uint32 lengthDescr0, lengthDescr1;
2172:Generated_Source\PSoC5/USBUART.c ****             uint32 channelNum = (uint32) USBUART_DmaChan[epNumber];
2173:Generated_Source\PSoC5/USBUART.c **** 
2174:Generated_Source\PSoC5/USBUART.c ****             /* Get number of full bursts. */
2175:Generated_Source\PSoC5/USBUART.c ****             USBUART_DmaEpBurstCnt[epNumber] = (uint8) (adjLength / USBUART_DMA_BYTES_PER_BURST);
2176:Generated_Source\PSoC5/USBUART.c **** 
2177:Generated_Source\PSoC5/USBUART.c ****             /* Get number of elements in last burst. */
2178:Generated_Source\PSoC5/USBUART.c ****             USBUART_DmaEpLastBurstEl[epNumber] = (uint8) (adjLength % USBUART_DMA_BYTES_PER_BURST);
2179:Generated_Source\PSoC5/USBUART.c **** 
2180:Generated_Source\PSoC5/USBUART.c ****             /* Get total number of bursts. */
2181:Generated_Source\PSoC5/USBUART.c ****             USBUART_DmaEpBurstCnt[epNumber] += (0u != USBUART_DmaEpLastBurstEl[epNumber]) ? 1u : 0u
2182:Generated_Source\PSoC5/USBUART.c **** 
2183:Generated_Source\PSoC5/USBUART.c ****             /* Adjust number of data elements transferred in last burst. */
2184:Generated_Source\PSoC5/USBUART.c ****             USBUART_DmaEpLastBurstEl[epNumber] = (0u != USBUART_DmaEpLastBurstEl[epNumber]) ?
2185:Generated_Source\PSoC5/USBUART.c ****                                                                   ((USBUART_DmaEpLastBurstEl[epNumb
2186:Generated_Source\PSoC5/USBUART.c ****                                                                    (USBUART_DMA_HALFWORDS_PER_BURST
2187:Generated_Source\PSoC5/USBUART.c **** 
2188:Generated_Source\PSoC5/USBUART.c ****             /* Get number of data elements to transfer for descriptor 0 and 1. */
2189:Generated_Source\PSoC5/USBUART.c ****             lengthDescr0 = (1u == USBUART_DmaEpBurstCnt[epNumber]) ? USBUART_DmaEpLastBurstEl[epNum
2190:Generated_Source\PSoC5/USBUART.c ****             lengthDescr1 = (2u == USBUART_DmaEpBurstCnt[epNumber]) ? USBUART_DmaEpLastBurstEl[epNum
2191:Generated_Source\PSoC5/USBUART.c **** 
2192:Generated_Source\PSoC5/USBUART.c ****             /* Mark last descriptor to be executed. */
2193:Generated_Source\PSoC5/USBUART.c ****             USBUART_DmaEpLastBurstEl[epNumber] |= (0u != (USBUART_DmaEpBurstCnt[epNumber] & 0x1u)) 
2194:Generated_Source\PSoC5/USBUART.c ****                                                                     USBUART_DMA_DESCR0_MASK : USBUA
2195:Generated_Source\PSoC5/USBUART.c **** 
2196:Generated_Source\PSoC5/USBUART.c ****             /* Mark if revert number of data elements in descriptor after transfer completion. */
2197:Generated_Source\PSoC5/USBUART.c ****             USBUART_DmaEpLastBurstEl[epNumber] |= (USBUART_DmaEpBurstCnt[epNumber] > 2u) ? USBUART_
2198:Generated_Source\PSoC5/USBUART.c **** 
2199:Generated_Source\PSoC5/USBUART.c ****             /* Mark that 16-bits access to data register is performed. */
2200:Generated_Source\PSoC5/USBUART.c ****             USBUART_DmaEpLastBurstEl[epNumber] |= USBUART_DMA_DESCR_16BITS;
2201:Generated_Source\PSoC5/USBUART.c **** 
2202:Generated_Source\PSoC5/USBUART.c ****             /* Store address of buffer and burst counter for endpoint. */
2203:Generated_Source\PSoC5/USBUART.c ****             USBUART_DmaEpBufferAddrBackup[epNumber] = (uint32) pData;
2204:Generated_Source\PSoC5/USBUART.c ****             USBUART_DmaEpBurstCntBackup[epNumber]   = USBUART_DmaEpBurstCnt[epNumber];
ARM GAS  C:\Users\ingan\AppData\Local\Temp\ccMtFi7x.s 			page 63


2205:Generated_Source\PSoC5/USBUART.c **** 
2206:Generated_Source\PSoC5/USBUART.c ****             /* Adjust burst counter taking to account: 2 valid descriptors and interrupt trigger af
2207:Generated_Source\PSoC5/USBUART.c ****             USBUART_DmaEpBurstCnt[epNumber] = USBUART_DMA_GET_BURST_CNT(USBUART_DmaEpBurstCnt[epNum
2208:Generated_Source\PSoC5/USBUART.c **** 
2209:Generated_Source\PSoC5/USBUART.c ****             /* Disable DMA channel: start configuration. */
2210:Generated_Source\PSoC5/USBUART.c ****             USBUART_CyDmaChDisable(channelNum);
2211:Generated_Source\PSoC5/USBUART.c **** 
2212:Generated_Source\PSoC5/USBUART.c ****             /* Set destination address. */
2213:Generated_Source\PSoC5/USBUART.c ****             USBUART_CyDmaSetSrcAddress(channelNum, USBUART_DMA_DESCR0, (void*) &USBUART_ARB_EP16_BA
2214:Generated_Source\PSoC5/USBUART.c ****             USBUART_CyDmaSetSrcAddress(channelNum, USBUART_DMA_DESCR1, (void*) &USBUART_ARB_EP16_BA
2215:Generated_Source\PSoC5/USBUART.c **** 
2216:Generated_Source\PSoC5/USBUART.c ****             USBUART_CyDmaSetDstAddress(channelNum, USBUART_DMA_DESCR0, (void*) ((uint32) pData));
2217:Generated_Source\PSoC5/USBUART.c ****             USBUART_CyDmaSetDstAddress(channelNum, USBUART_DMA_DESCR1, (void*) ((uint32) pData + US
2218:Generated_Source\PSoC5/USBUART.c **** 
2219:Generated_Source\PSoC5/USBUART.c ****             /* Configure DMA descriptor 0. */
2220:Generated_Source\PSoC5/USBUART.c ****             USBUART_CyDmaSetConfiguration(channelNum, USBUART_DMA_DESCR0, USBUART_DMA_COMMON_CFG  |
2221:Generated_Source\PSoC5/USBUART.c ****                                                     CYDMA_HALFWORD | CYDMA_WORD_ELEMENT | CYDMA_INC
2222:Generated_Source\PSoC5/USBUART.c **** 
2223:Generated_Source\PSoC5/USBUART.c ****             /* Configure DMA descriptor 1. */
2224:Generated_Source\PSoC5/USBUART.c ****             USBUART_CyDmaSetConfiguration(channelNum, USBUART_DMA_DESCR1, USBUART_DMA_COMMON_CFG  |
2225:Generated_Source\PSoC5/USBUART.c ****                                                     CYDMA_HALFWORD | CYDMA_WORD_ELEMENT | CYDMA_INC
2226:Generated_Source\PSoC5/USBUART.c **** 
2227:Generated_Source\PSoC5/USBUART.c ****             /* Enable interrupt from DMA channel. */
2228:Generated_Source\PSoC5/USBUART.c ****             USBUART_CyDmaSetInterruptMask(channelNum);
2229:Generated_Source\PSoC5/USBUART.c **** 
2230:Generated_Source\PSoC5/USBUART.c ****             /* Validate DMA descriptor 0 and 1. */
2231:Generated_Source\PSoC5/USBUART.c ****             USBUART_CyDmaValidateDescriptor(channelNum, USBUART_DMA_DESCR0);
2232:Generated_Source\PSoC5/USBUART.c ****             
2233:Generated_Source\PSoC5/USBUART.c ****             if (USBUART_DmaEpBurstCntBackup[epNumber] > 1u)
2234:Generated_Source\PSoC5/USBUART.c ****             {
2235:Generated_Source\PSoC5/USBUART.c ****                 USBUART_CyDmaValidateDescriptor(channelNum, USBUART_DMA_DESCR1);
2236:Generated_Source\PSoC5/USBUART.c ****             }
2237:Generated_Source\PSoC5/USBUART.c **** 
2238:Generated_Source\PSoC5/USBUART.c ****             /* Enable DMA channel: configuration complete. */
2239:Generated_Source\PSoC5/USBUART.c ****             USBUART_CyDmaChEnable(channelNum);
2240:Generated_Source\PSoC5/USBUART.c **** 
2241:Generated_Source\PSoC5/USBUART.c ****             /* OUT endpoint has to be armed again by user when DMA transfers have been completed.
2242:Generated_Source\PSoC5/USBUART.c ****             * NO_EVENT_PENDING: notifies that data has been copied from endpoint buffer.
2243:Generated_Source\PSoC5/USBUART.c ****             */
2244:Generated_Source\PSoC5/USBUART.c ****         }
2245:Generated_Source\PSoC5/USBUART.c ****         #endif /* (USBUART_EP_MANAGEMENT_DMA_AUTO) */
2246:Generated_Source\PSoC5/USBUART.c ****     #endif /* (USBUART_EP_MANAGEMENT_MANUAL) */
2247:Generated_Source\PSoC5/USBUART.c ****     }
2248:Generated_Source\PSoC5/USBUART.c ****     else
2249:Generated_Source\PSoC5/USBUART.c ****     {
2250:Generated_Source\PSoC5/USBUART.c ****         length = 0u;
2251:Generated_Source\PSoC5/USBUART.c ****     }
2252:Generated_Source\PSoC5/USBUART.c **** 
2253:Generated_Source\PSoC5/USBUART.c ****     return (length);
2254:Generated_Source\PSoC5/USBUART.c **** }
2255:Generated_Source\PSoC5/USBUART.c **** #endif /* (USBUART_16BITS_EP_ACCESS_ENABLE) */
2256:Generated_Source\PSoC5/USBUART.c **** 
2257:Generated_Source\PSoC5/USBUART.c **** 
2258:Generated_Source\PSoC5/USBUART.c **** /*******************************************************************************
2259:Generated_Source\PSoC5/USBUART.c **** * Function Name: USBUART_EnableOutEP
2260:Generated_Source\PSoC5/USBUART.c **** ****************************************************************************//**
2261:Generated_Source\PSoC5/USBUART.c **** *
ARM GAS  C:\Users\ingan\AppData\Local\Temp\ccMtFi7x.s 			page 64


2262:Generated_Source\PSoC5/USBUART.c **** *  This function enables the specified endpoint for OUT transfers. Do not call
2263:Generated_Source\PSoC5/USBUART.c **** *  this function for IN endpoints.
2264:Generated_Source\PSoC5/USBUART.c **** *
2265:Generated_Source\PSoC5/USBUART.c **** *  \param epNumber: Contains the data endpoint number. Valid values are between
2266:Generated_Source\PSoC5/USBUART.c **** *  1 and 8.
2267:Generated_Source\PSoC5/USBUART.c **** *
2268:Generated_Source\PSoC5/USBUART.c **** * \globalvars
2269:Generated_Source\PSoC5/USBUART.c **** *
2270:Generated_Source\PSoC5/USBUART.c **** *  \ref USBUART_EP[epNumber].apiEpState - set to NO_EVENT_PENDING
2271:Generated_Source\PSoC5/USBUART.c **** *
2272:Generated_Source\PSoC5/USBUART.c **** * \reentrant
2273:Generated_Source\PSoC5/USBUART.c **** *  No.
2274:Generated_Source\PSoC5/USBUART.c **** *
2275:Generated_Source\PSoC5/USBUART.c **** *******************************************************************************/
2276:Generated_Source\PSoC5/USBUART.c **** void USBUART_EnableOutEP(uint8 epNumber) 
2277:Generated_Source\PSoC5/USBUART.c **** {
 1296              		.loc 1 2277 0
 1297              		.cfi_startproc
 1298              		@ args = 0, pretend = 0, frame = 0
 1299              		@ frame_needed = 0, uses_anonymous_args = 0
 1300              		@ link register save eliminated.
 1301              	.LVL105:
2278:Generated_Source\PSoC5/USBUART.c ****     if ((epNumber > USBUART_EP0) && (epNumber < USBUART_MAX_EP))
 1302              		.loc 1 2278 0
 1303 0000 431E     		subs	r3, r0, #1
 1304 0002 DBB2     		uxtb	r3, r3
 1305 0004 072B     		cmp	r3, #7
 1306 0006 0BD8     		bhi	.L90
2279:Generated_Source\PSoC5/USBUART.c ****     {
2280:Generated_Source\PSoC5/USBUART.c ****         USBUART_EP[epNumber].apiEpState = USBUART_NO_EVENT_PENDING;
 1307              		.loc 1 2280 0
 1308 0008 4200     		lsls	r2, r0, #1
 1309 000a 0244     		add	r2, r2, r0
 1310 000c 9300     		lsls	r3, r2, #2
 1311 000e 054A     		ldr	r2, .L92
 1312 0010 1344     		add	r3, r3, r2
 1313 0012 0022     		movs	r2, #0
 1314 0014 5A70     		strb	r2, [r3, #1]
2281:Generated_Source\PSoC5/USBUART.c **** 
2282:Generated_Source\PSoC5/USBUART.c ****         /* Enable OUT endpoint to be written by Host. */
2283:Generated_Source\PSoC5/USBUART.c ****         USBUART_SIE_EP_BASE.sieEp[epNumber].epCr0 = USBUART_EP[epNumber].epMode;
 1315              		.loc 1 2283 0
 1316 0016 5A79     		ldrb	r2, [r3, #5]	@ zero_extendqisi2
 1317 0018 D2B2     		uxtb	r2, r2
 1318 001a 0001     		lsls	r0, r0, #4
