ARM GAS  C:\Users\ingan\AppData\Local\Temp\ccMtFi7x.s 			page 1


   1              		.syntax unified
   2              		.cpu cortex-m3
   3              		.fpu softvfp
   4              		.eabi_attribute 20, 1
   5              		.eabi_attribute 21, 1
   6              		.eabi_attribute 23, 3
   7              		.eabi_attribute 24, 1
   8              		.eabi_attribute 25, 1
   9              		.eabi_attribute 26, 1
  10              		.eabi_attribute 30, 1
  11              		.eabi_attribute 34, 1
  12              		.eabi_attribute 18, 4
  13              		.thumb
  14              		.syntax unified
  15              		.file	"USBUART.c"
  16              		.text
  17              	.Ltext0:
  18              		.cfi_sections	.debug_frame
  19              		.section	.text.USBUART_Init,"ax",%progbits
  20              		.align	2
  21              		.global	USBUART_Init
  22              		.thumb
  23              		.thumb_func
  24              		.type	USBUART_Init, %function
  25              	USBUART_Init:
  26              	.LFB1:
  27              		.file 1 "Generated_Source\\PSoC5\\USBUART.c"
   1:Generated_Source\PSoC5/USBUART.c **** /***************************************************************************//**
   2:Generated_Source\PSoC5/USBUART.c **** * \file USBUART.c
   3:Generated_Source\PSoC5/USBUART.c **** * \version 3.20
   4:Generated_Source\PSoC5/USBUART.c **** *
   5:Generated_Source\PSoC5/USBUART.c **** * \brief
   6:Generated_Source\PSoC5/USBUART.c **** *  This file contains the global USBFS API functions.
   7:Generated_Source\PSoC5/USBUART.c **** *
   8:Generated_Source\PSoC5/USBUART.c **** * Note:
   9:Generated_Source\PSoC5/USBUART.c **** *  Many of the functions use an endpoint number. SRAM arrays are sized with 9
  10:Generated_Source\PSoC5/USBUART.c **** *  elements, so they are indexed directly by epNumber.  The SIE and ARB
  11:Generated_Source\PSoC5/USBUART.c **** *  registers are indexed by variations of epNumber - 1.
  12:Generated_Source\PSoC5/USBUART.c **** *
  13:Generated_Source\PSoC5/USBUART.c **** ********************************************************************************
  14:Generated_Source\PSoC5/USBUART.c **** * \copyright
  15:Generated_Source\PSoC5/USBUART.c **** * Copyright 2008-2016, Cypress Semiconductor Corporation.  All rights reserved.
  16:Generated_Source\PSoC5/USBUART.c **** * You may use this file only in accordance with the license, terms, conditions,
  17:Generated_Source\PSoC5/USBUART.c **** * disclaimers, and limitations in the end user license agreement accompanying
  18:Generated_Source\PSoC5/USBUART.c **** * the software package with which this file was provided.
  19:Generated_Source\PSoC5/USBUART.c **** *******************************************************************************/
  20:Generated_Source\PSoC5/USBUART.c **** 
  21:Generated_Source\PSoC5/USBUART.c **** #include "USBUART_pvt.h"
  22:Generated_Source\PSoC5/USBUART.c **** #include "USBUART_cydmac.h"
  23:Generated_Source\PSoC5/USBUART.c **** #include "USBUART_hid.h"
  24:Generated_Source\PSoC5/USBUART.c **** #include "USBUART_Dp.h"
  25:Generated_Source\PSoC5/USBUART.c **** 
  26:Generated_Source\PSoC5/USBUART.c **** 
  27:Generated_Source\PSoC5/USBUART.c **** /***************************************
  28:Generated_Source\PSoC5/USBUART.c **** * Global data allocation
  29:Generated_Source\PSoC5/USBUART.c **** ***************************************/
  30:Generated_Source\PSoC5/USBUART.c **** 
ARM GAS  C:\Users\ingan\AppData\Local\Temp\ccMtFi7x.s 			page 2


  31:Generated_Source\PSoC5/USBUART.c **** /** Indicates whether the USBFS has been initialized. The variable is
  32:Generated_Source\PSoC5/USBUART.c **** * initialized to 0 after device reset and set to 1 the first time USBFS_Start()
  33:Generated_Source\PSoC5/USBUART.c **** * is called. This allows the Component to restart without reinitialization after
  34:Generated_Source\PSoC5/USBUART.c **** * the first call to the USBFS_Start() routine.
  35:Generated_Source\PSoC5/USBUART.c **** * If re-initialization of the Component is required, the variable should be set
  36:Generated_Source\PSoC5/USBUART.c **** * to 0 before the USBFS_Start() routine is called. Alternatively, the USBFS can
  37:Generated_Source\PSoC5/USBUART.c **** * be reinitialized by calling both USBFS_Init() and USBFS_InitComponent()
  38:Generated_Source\PSoC5/USBUART.c **** * functions.
  39:Generated_Source\PSoC5/USBUART.c **** */
  40:Generated_Source\PSoC5/USBUART.c **** uint8 USBUART_initVar = 0u;
  41:Generated_Source\PSoC5/USBUART.c **** 
  42:Generated_Source\PSoC5/USBUART.c **** #if (USBUART_EP_MANAGEMENT_DMA)
  43:Generated_Source\PSoC5/USBUART.c ****     #if (CY_PSOC4)
  44:Generated_Source\PSoC5/USBUART.c ****         static void USBUART_InitEpDma(void);
  45:Generated_Source\PSoC5/USBUART.c **** 
  46:Generated_Source\PSoC5/USBUART.c ****         /* DMA chanels assigend for endpoints. */
  47:Generated_Source\PSoC5/USBUART.c ****         const uint8 USBUART_DmaChan[USBUART_MAX_EP] =
  48:Generated_Source\PSoC5/USBUART.c ****         {
  49:Generated_Source\PSoC5/USBUART.c ****             0u,
  50:Generated_Source\PSoC5/USBUART.c ****             (uint8) USBUART_ep1_dma_CHANNEL,
  51:Generated_Source\PSoC5/USBUART.c ****             (uint8) USBUART_ep2_dma_CHANNEL,
  52:Generated_Source\PSoC5/USBUART.c ****             (uint8) USBUART_ep3_dma_CHANNEL,
  53:Generated_Source\PSoC5/USBUART.c ****             0u,
  54:Generated_Source\PSoC5/USBUART.c ****             0u,
  55:Generated_Source\PSoC5/USBUART.c ****             0u,
  56:Generated_Source\PSoC5/USBUART.c ****             0u,
  57:Generated_Source\PSoC5/USBUART.c ****             0u,
  58:Generated_Source\PSoC5/USBUART.c ****         };        
  59:Generated_Source\PSoC5/USBUART.c ****     #else
  60:Generated_Source\PSoC5/USBUART.c ****         /* DMA chanels assigend for endpoints. */
  61:Generated_Source\PSoC5/USBUART.c ****         uint8 USBUART_DmaChan[USBUART_MAX_EP];
  62:Generated_Source\PSoC5/USBUART.c ****         
  63:Generated_Source\PSoC5/USBUART.c ****         /* DMA TDs require for PSoC 3/5LP operation. */
  64:Generated_Source\PSoC5/USBUART.c ****         uint8 USBUART_DmaTd[USBUART_MAX_EP];
  65:Generated_Source\PSoC5/USBUART.c ****     #endif /* (CY_PSOC4) */
  66:Generated_Source\PSoC5/USBUART.c **** #endif /* (USBUART_EP_MANAGEMENT_DMA) */
  67:Generated_Source\PSoC5/USBUART.c **** 
  68:Generated_Source\PSoC5/USBUART.c **** #if (USBUART_EP_MANAGEMENT_DMA_AUTO)
  69:Generated_Source\PSoC5/USBUART.c **** #if (CY_PSOC4)
  70:Generated_Source\PSoC5/USBUART.c ****     /* Number of DMA bursts. */
  71:Generated_Source\PSoC5/USBUART.c ****     uint8  USBUART_DmaEpBurstCnt   [USBUART_MAX_EP];
  72:Generated_Source\PSoC5/USBUART.c ****     
  73:Generated_Source\PSoC5/USBUART.c ****     /* Number of bytes to transfer in last DMA burst. */
  74:Generated_Source\PSoC5/USBUART.c ****     uint8  USBUART_DmaEpLastBurstEl[USBUART_MAX_EP];
  75:Generated_Source\PSoC5/USBUART.c **** 
  76:Generated_Source\PSoC5/USBUART.c ****     /* Storage for arrays above. */
  77:Generated_Source\PSoC5/USBUART.c ****     uint8  USBUART_DmaEpBurstCntBackup  [USBUART_MAX_EP];
  78:Generated_Source\PSoC5/USBUART.c ****     uint32 USBUART_DmaEpBufferAddrBackup[USBUART_MAX_EP];
  79:Generated_Source\PSoC5/USBUART.c ****      
  80:Generated_Source\PSoC5/USBUART.c ****     /* DMA trigger mux output for usb.dma_req[0-7]. */
  81:Generated_Source\PSoC5/USBUART.c ****     const uint8 USBUART_DmaReqOut[USBUART_MAX_EP] =
  82:Generated_Source\PSoC5/USBUART.c ****     {
  83:Generated_Source\PSoC5/USBUART.c ****         0u,
  84:Generated_Source\PSoC5/USBUART.c ****         USBUART_ep1_dma__TR_OUTPUT,
  85:Generated_Source\PSoC5/USBUART.c ****         USBUART_ep2_dma__TR_OUTPUT,
  86:Generated_Source\PSoC5/USBUART.c ****         USBUART_ep3_dma__TR_OUTPUT,
  87:Generated_Source\PSoC5/USBUART.c ****         0u,
ARM GAS  C:\Users\ingan\AppData\Local\Temp\ccMtFi7x.s 			page 3


  88:Generated_Source\PSoC5/USBUART.c ****         0u,
  89:Generated_Source\PSoC5/USBUART.c ****         0u,
  90:Generated_Source\PSoC5/USBUART.c ****         0u,
  91:Generated_Source\PSoC5/USBUART.c ****         0u,
  92:Generated_Source\PSoC5/USBUART.c ****     };
  93:Generated_Source\PSoC5/USBUART.c **** 
  94:Generated_Source\PSoC5/USBUART.c ****     /* DMA trigger mux output for usb.dma_burstend[0-7]. */
  95:Generated_Source\PSoC5/USBUART.c ****     const uint8 USBUART_DmaBurstEndOut[USBUART_MAX_EP] =
  96:Generated_Source\PSoC5/USBUART.c ****     {
  97:Generated_Source\PSoC5/USBUART.c ****         0u,
  98:Generated_Source\PSoC5/USBUART.c ****         USBUART_BURSTEND_0_TR_OUTPUT,
  99:Generated_Source\PSoC5/USBUART.c ****         USBUART_BURSTEND_1_TR_OUTPUT,
 100:Generated_Source\PSoC5/USBUART.c ****         USBUART_BURSTEND_2_TR_OUTPUT,
 101:Generated_Source\PSoC5/USBUART.c ****         USBUART_BURSTEND_3_TR_OUTPUT,
 102:Generated_Source\PSoC5/USBUART.c ****         USBUART_BURSTEND_4_TR_OUTPUT,
 103:Generated_Source\PSoC5/USBUART.c ****         USBUART_BURSTEND_5_TR_OUTPUT,
 104:Generated_Source\PSoC5/USBUART.c ****         USBUART_BURSTEND_6_TR_OUTPUT,
 105:Generated_Source\PSoC5/USBUART.c ****         USBUART_BURSTEND_7_TR_OUTPUT
 106:Generated_Source\PSoC5/USBUART.c ****     };
 107:Generated_Source\PSoC5/USBUART.c ****     
 108:Generated_Source\PSoC5/USBUART.c **** #else
 109:Generated_Source\PSoC5/USBUART.c ****     #if (USBUART_EP_DMA_AUTO_OPT == 0u)
 110:Generated_Source\PSoC5/USBUART.c ****         static uint8 clearInDataRdyStatus = USBUART_ARB_EPX_CFG_DEFAULT;
 111:Generated_Source\PSoC5/USBUART.c ****         uint8 USBUART_DmaNextTd[USBUART_MAX_EP];
 112:Generated_Source\PSoC5/USBUART.c ****         const uint8 USBUART_epX_TD_TERMOUT_EN[USBUART_MAX_EP] =
 113:Generated_Source\PSoC5/USBUART.c ****         {
 114:Generated_Source\PSoC5/USBUART.c ****             0u,
 115:Generated_Source\PSoC5/USBUART.c ****             USBUART_ep1__TD_TERMOUT_EN,
 116:Generated_Source\PSoC5/USBUART.c ****             USBUART_ep2__TD_TERMOUT_EN,
 117:Generated_Source\PSoC5/USBUART.c ****             USBUART_ep3__TD_TERMOUT_EN,
 118:Generated_Source\PSoC5/USBUART.c ****             0u,
 119:Generated_Source\PSoC5/USBUART.c ****             0u,
 120:Generated_Source\PSoC5/USBUART.c ****             0u,
 121:Generated_Source\PSoC5/USBUART.c ****             0u,
 122:Generated_Source\PSoC5/USBUART.c ****             0u,
 123:Generated_Source\PSoC5/USBUART.c ****         };
 124:Generated_Source\PSoC5/USBUART.c **** 
 125:Generated_Source\PSoC5/USBUART.c ****         volatile uint16 USBUART_inLength[USBUART_MAX_EP];
 126:Generated_Source\PSoC5/USBUART.c ****         const uint8 *USBUART_inDataPointer[USBUART_MAX_EP];
 127:Generated_Source\PSoC5/USBUART.c ****         volatile uint8 USBUART_inBufFull[USBUART_MAX_EP];
 128:Generated_Source\PSoC5/USBUART.c ****     #endif /* (USBUART_EP_DMA_AUTO_OPT == 0u) */
 129:Generated_Source\PSoC5/USBUART.c **** #endif /* (CY_PSOC4) */
 130:Generated_Source\PSoC5/USBUART.c **** #endif /* (USBUART_EP_MANAGEMENT_DMA_AUTO) */
 131:Generated_Source\PSoC5/USBUART.c **** 
 132:Generated_Source\PSoC5/USBUART.c **** 
 133:Generated_Source\PSoC5/USBUART.c **** /*******************************************************************************
 134:Generated_Source\PSoC5/USBUART.c **** * Function Name: USBUART_Start
 135:Generated_Source\PSoC5/USBUART.c **** ****************************************************************************//**
 136:Generated_Source\PSoC5/USBUART.c **** *
 137:Generated_Source\PSoC5/USBUART.c **** *   This function performs all required initialization for the USBFS component.
 138:Generated_Source\PSoC5/USBUART.c **** *   After this function call, the USB device initiates communication with the
 139:Generated_Source\PSoC5/USBUART.c **** *   host by pull-up D+ line. This is the preferred method to begin component
 140:Generated_Source\PSoC5/USBUART.c **** *   operation.
 141:Generated_Source\PSoC5/USBUART.c **** *
 142:Generated_Source\PSoC5/USBUART.c **** *   Note that global interrupts have to be enabled because interrupts are
 143:Generated_Source\PSoC5/USBUART.c **** *   required for USBFS component operation.
 144:Generated_Source\PSoC5/USBUART.c **** *
ARM GAS  C:\Users\ingan\AppData\Local\Temp\ccMtFi7x.s 			page 4


 145:Generated_Source\PSoC5/USBUART.c **** *   PSoC 4200L devices: when USBFS component configured to DMA with Automatic
 146:Generated_Source\PSoC5/USBUART.c **** *   Buffer Management, the DMA interrupt priority is changed to the highest
 147:Generated_Source\PSoC5/USBUART.c **** *   (priority 0) inside this function.
 148:Generated_Source\PSoC5/USBUART.c **** *
 149:Generated_Source\PSoC5/USBUART.c **** *   PSoC 3/PSoC 5LP devices: when USBFS component configured to DMA with
 150:Generated_Source\PSoC5/USBUART.c **** *   Automatic Buffer Management, the Arbiter interrupt priority is changed to
 151:Generated_Source\PSoC5/USBUART.c **** *   the highest (priority 0) inside this function.
 152:Generated_Source\PSoC5/USBUART.c **** *
 153:Generated_Source\PSoC5/USBUART.c **** *  \param device
 154:Generated_Source\PSoC5/USBUART.c **** *          Contains the device number of the desired device descriptor.
 155:Generated_Source\PSoC5/USBUART.c **** *          The device number can be found in the Device Descriptor Tab of
 156:Generated_Source\PSoC5/USBUART.c **** *          "Configure" dialog, under the settings of desired Device Descriptor,
 157:Generated_Source\PSoC5/USBUART.c **** *          in the "Device Number" field.
 158:Generated_Source\PSoC5/USBUART.c **** *  \param mode:
 159:Generated_Source\PSoC5/USBUART.c **** *   The operating voltage. This determines whether the voltage regulator
 160:Generated_Source\PSoC5/USBUART.c **** *   is enabled for 5V operation or if pass through mode is used for 3.3V
 161:Generated_Source\PSoC5/USBUART.c **** *   operation. Symbolic names and their associated values are given in the
 162:Generated_Source\PSoC5/USBUART.c **** *   following list.
 163:Generated_Source\PSoC5/USBUART.c **** *
 164:Generated_Source\PSoC5/USBUART.c **** *       *USBUART_3V_OPERATION* - Disable voltage regulator and pass-
 165:Generated_Source\PSoC5/USBUART.c **** *                                      through Vcc for pull-up
 166:Generated_Source\PSoC5/USBUART.c **** *
 167:Generated_Source\PSoC5/USBUART.c **** *       *USBUART_5V_OPERATION* - Enable voltage regulator and use
 168:Generated_Source\PSoC5/USBUART.c **** *                                      regulator for pull-up
 169:Generated_Source\PSoC5/USBUART.c **** *
 170:Generated_Source\PSoC5/USBUART.c **** *       *USBUART_DWR_POWER_OPERATION* - Enable or disable the voltage
 171:Generated_Source\PSoC5/USBUART.c **** *                                      regulator depending on the power supply
 172:Generated_Source\PSoC5/USBUART.c **** *                                      voltage configuration in the DWR tab.
 173:Generated_Source\PSoC5/USBUART.c **** *                                      For PSoC 3/5LP devices, the VDDD supply
 174:Generated_Source\PSoC5/USBUART.c **** *                                      voltage is considered and for PSoC 4A-L,
 175:Generated_Source\PSoC5/USBUART.c **** *                                      the VBUS supply voltage is considered.*
 176:Generated_Source\PSoC5/USBUART.c **** * \globalvars
 177:Generated_Source\PSoC5/USBUART.c **** *  \ref USBUART_initVar
 178:Generated_Source\PSoC5/USBUART.c **** *
 179:Generated_Source\PSoC5/USBUART.c **** * \sideeffect
 180:Generated_Source\PSoC5/USBUART.c **** *   This function will reset all communication states to default.
 181:Generated_Source\PSoC5/USBUART.c **** *
 182:Generated_Source\PSoC5/USBUART.c **** * \reentrant
 183:Generated_Source\PSoC5/USBUART.c **** *  No.
 184:Generated_Source\PSoC5/USBUART.c **** *
 185:Generated_Source\PSoC5/USBUART.c **** *******************************************************************************/
 186:Generated_Source\PSoC5/USBUART.c **** void USBUART_Start(uint8 device, uint8 mode) 
 187:Generated_Source\PSoC5/USBUART.c **** {
 188:Generated_Source\PSoC5/USBUART.c ****     if (0u == USBUART_initVar)
 189:Generated_Source\PSoC5/USBUART.c ****     {
 190:Generated_Source\PSoC5/USBUART.c ****         USBUART_Init();
 191:Generated_Source\PSoC5/USBUART.c ****         USBUART_initVar = 1u;
 192:Generated_Source\PSoC5/USBUART.c ****     }
 193:Generated_Source\PSoC5/USBUART.c **** 
 194:Generated_Source\PSoC5/USBUART.c ****     USBUART_InitComponent(device, mode);
 195:Generated_Source\PSoC5/USBUART.c **** }
 196:Generated_Source\PSoC5/USBUART.c **** 
 197:Generated_Source\PSoC5/USBUART.c **** 
 198:Generated_Source\PSoC5/USBUART.c **** /*******************************************************************************
 199:Generated_Source\PSoC5/USBUART.c **** * Function Name: USBUART_Init
 200:Generated_Source\PSoC5/USBUART.c **** ****************************************************************************//**
 201:Generated_Source\PSoC5/USBUART.c **** *
ARM GAS  C:\Users\ingan\AppData\Local\Temp\ccMtFi7x.s 			page 5


 202:Generated_Source\PSoC5/USBUART.c **** * This function initializes or restores the component according to the
 203:Generated_Source\PSoC5/USBUART.c **** * customizer Configure dialog settings. It is not necessary to call
 204:Generated_Source\PSoC5/USBUART.c **** * USBUART_Init() because the USBUART_Start() routine calls
 205:Generated_Source\PSoC5/USBUART.c **** * this function and is the preferred method to begin component operation.
 206:Generated_Source\PSoC5/USBUART.c **** *
 207:Generated_Source\PSoC5/USBUART.c **** * \reentrant
 208:Generated_Source\PSoC5/USBUART.c **** *  No.
 209:Generated_Source\PSoC5/USBUART.c **** *
 210:Generated_Source\PSoC5/USBUART.c **** *******************************************************************************/
 211:Generated_Source\PSoC5/USBUART.c **** void USBUART_Init(void) 
 212:Generated_Source\PSoC5/USBUART.c **** {
  28              		.loc 1 212 0
  29              		.cfi_startproc
  30              		@ args = 0, pretend = 0, frame = 0
  31              		@ frame_needed = 0, uses_anonymous_args = 0
  32 0000 F8B5     		push	{r3, r4, r5, r6, r7, lr}
  33              		.cfi_def_cfa_offset 24
  34              		.cfi_offset 3, -24
  35              		.cfi_offset 4, -20
  36              		.cfi_offset 5, -16
  37              		.cfi_offset 6, -12
  38              		.cfi_offset 7, -8
  39              		.cfi_offset 14, -4
 213:Generated_Source\PSoC5/USBUART.c **** #if (CY_PSOC4)
 214:Generated_Source\PSoC5/USBUART.c ****     /* Enable clock to USB IP. */
 215:Generated_Source\PSoC5/USBUART.c ****     USBUART_USB_CLK_EN_REG = USBUART_USB_CLK_CSR_CLK_EN;
 216:Generated_Source\PSoC5/USBUART.c **** 
 217:Generated_Source\PSoC5/USBUART.c ****     /* The internal regulator (CR1.REG_ENABLE) is enabled in
 218:Generated_Source\PSoC5/USBUART.c ****     * USBUART_InitComponent() if it is required.
 219:Generated_Source\PSoC5/USBUART.c ****     */
 220:Generated_Source\PSoC5/USBUART.c **** 
 221:Generated_Source\PSoC5/USBUART.c ****     /* Enable USBIO control on drive mode of D+ and D- pins. */
 222:Generated_Source\PSoC5/USBUART.c ****     USBUART_USBIO_CR1_REG &= ~ (uint32) USBUART_USBIO_CR1_IOMODE;
 223:Generated_Source\PSoC5/USBUART.c **** 
 224:Generated_Source\PSoC5/USBUART.c ****     /* Set number of LF CLK to detect UBS bus reset. */
 225:Generated_Source\PSoC5/USBUART.c ****     USBUART_BUS_RST_CNT_REG = USBUART_DEFUALT_BUS_RST_CNT;
 226:Generated_Source\PSoC5/USBUART.c **** 
 227:Generated_Source\PSoC5/USBUART.c ****     /* Select VBUS detection source and clear PHY isolate. The application level
 228:Generated_Source\PSoC5/USBUART.c ****     * must ensure that VBUS is valid. There is no need to wait 2us before VBUS is valid.
 229:Generated_Source\PSoC5/USBUART.c ****     */
 230:Generated_Source\PSoC5/USBUART.c ****     USBUART_POWER_CTRL_REG = USBUART_DEFAULT_POWER_CTRL_VBUS;
 231:Generated_Source\PSoC5/USBUART.c **** 
 232:Generated_Source\PSoC5/USBUART.c ****     /* Enable PHY detector and single-ended and differential receivers. */
 233:Generated_Source\PSoC5/USBUART.c ****     USBUART_POWER_CTRL_REG |= USBUART_DEFAULT_POWER_CTRL_PHY;
 234:Generated_Source\PSoC5/USBUART.c **** 
 235:Generated_Source\PSoC5/USBUART.c ****     /* Suspend clear sequence. */
 236:Generated_Source\PSoC5/USBUART.c ****     USBUART_POWER_CTRL_REG &= (uint32) ~USBUART_POWER_CTRL_SUSPEND;
 237:Generated_Source\PSoC5/USBUART.c ****     CyDelayUs(USBUART_WAIT_SUSPEND_DEL_DISABLE);
 238:Generated_Source\PSoC5/USBUART.c ****     USBUART_POWER_CTRL_REG &= (uint32) ~USBUART_POWER_CTRL_SUSPEND_DEL;
 239:Generated_Source\PSoC5/USBUART.c **** 
 240:Generated_Source\PSoC5/USBUART.c ****     /* Sets IMO lock options and clear all other bits. */
 241:Generated_Source\PSoC5/USBUART.c ****     USBUART_CR1_REG = USBUART_DEFUALT_CR1;
 242:Generated_Source\PSoC5/USBUART.c **** 
 243:Generated_Source\PSoC5/USBUART.c ****     /* Configure level (hi, lo, med) for each interrupt source. */
 244:Generated_Source\PSoC5/USBUART.c ****     USBUART_INTR_LVL_SEL_REG = USBUART_DEFAULT_INTR_LVL_SEL;
 245:Generated_Source\PSoC5/USBUART.c **** 
 246:Generated_Source\PSoC5/USBUART.c ****     /* Configure interrupt sources from: SOF, Bus Reset and EP0. */
ARM GAS  C:\Users\ingan\AppData\Local\Temp\ccMtFi7x.s 			page 6


 247:Generated_Source\PSoC5/USBUART.c ****     USBUART_INTR_SIE_MASK_REG = USBUART_DEFAULT_INTR_SIE_MASK;
 248:Generated_Source\PSoC5/USBUART.c **** 
 249:Generated_Source\PSoC5/USBUART.c **** #else
 250:Generated_Source\PSoC5/USBUART.c ****     uint8 enableInterrupts = CyEnterCriticalSection();
  40              		.loc 1 250 0
  41 0002 FFF7FEFF 		bl	CyEnterCriticalSection
  42              	.LVL0:
  43 0006 0546     		mov	r5, r0
  44              	.LVL1:
 251:Generated_Source\PSoC5/USBUART.c **** 
 252:Generated_Source\PSoC5/USBUART.c **** #if (USBUART_EP_MANAGEMENT_DMA)
 253:Generated_Source\PSoC5/USBUART.c ****     uint16 i;
 254:Generated_Source\PSoC5/USBUART.c **** #endif /* (USBUART_EP_MANAGEMENT_DMA) */
 255:Generated_Source\PSoC5/USBUART.c **** 
 256:Generated_Source\PSoC5/USBUART.c ****     /* Enable USB block. */
 257:Generated_Source\PSoC5/USBUART.c ****     USBUART_PM_ACT_CFG_REG |= USBUART_PM_ACT_EN_FSUSB;
  45              		.loc 1 257 0
  46 0008 484A     		ldr	r2, .L5
  47 000a 1378     		ldrb	r3, [r2]	@ zero_extendqisi2
  48 000c 43F00103 		orr	r3, r3, #1
  49 0010 1370     		strb	r3, [r2]
 258:Generated_Source\PSoC5/USBUART.c ****     /* Enable USB block for Standby Power Mode. */
 259:Generated_Source\PSoC5/USBUART.c ****     USBUART_PM_STBY_CFG_REG |= USBUART_PM_STBY_EN_FSUSB;
  50              		.loc 1 259 0
  51 0012 1032     		adds	r2, r2, #16
  52 0014 1378     		ldrb	r3, [r2]	@ zero_extendqisi2
  53 0016 43F00103 		orr	r3, r3, #1
  54 001a 1370     		strb	r3, [r2]
 260:Generated_Source\PSoC5/USBUART.c **** 
 261:Generated_Source\PSoC5/USBUART.c ****     /* Enable core clock. */
 262:Generated_Source\PSoC5/USBUART.c ****     USBUART_USB_CLK_EN_REG = USBUART_USB_CLK_ENABLE;
  55              		.loc 1 262 0
  56 001c 0127     		movs	r7, #1
  57 001e 444B     		ldr	r3, .L5+4
  58 0020 1F70     		strb	r7, [r3]
 263:Generated_Source\PSoC5/USBUART.c **** 
 264:Generated_Source\PSoC5/USBUART.c ****     USBUART_CR1_REG = USBUART_CR1_ENABLE_LOCK;
  59              		.loc 1 264 0
  60 0022 0226     		movs	r6, #2
  61 0024 943B     		subs	r3, r3, #148
  62 0026 1E70     		strb	r6, [r3]
 265:Generated_Source\PSoC5/USBUART.c **** 
 266:Generated_Source\PSoC5/USBUART.c ****     /* ENABLING USBIO PADS IN USB MODE FROM I/O MODE. */
 267:Generated_Source\PSoC5/USBUART.c ****     /* Ensure USB transmit enable is low (USB_USBIO_CR0.ten). - Manual Transmission - Disabled. */
 268:Generated_Source\PSoC5/USBUART.c ****     USBUART_USBIO_CR0_REG &= (uint8) ~USBUART_USBIO_CR0_TEN;
  63              		.loc 1 268 0
  64 0028 02F5E252 		add	r2, r2, #7232
  65 002c 1B32     		adds	r2, r2, #27
  66 002e 1378     		ldrb	r3, [r2]	@ zero_extendqisi2
  67 0030 03F07F03 		and	r3, r3, #127
  68 0034 1370     		strb	r3, [r2]
 269:Generated_Source\PSoC5/USBUART.c ****     CyDelayUs(USBUART_WAIT_REG_STABILITY_50NS);  /* ~50ns delay. */
  69              		.loc 1 269 0
  70 0036 0020     		movs	r0, #0
  71 0038 FFF7FEFF 		bl	CyDelayUs
  72              	.LVL2:
 270:Generated_Source\PSoC5/USBUART.c ****     /* Disable USBIO by asserting PM.USB_CR0.fsusbio_pd_n(Inverted.
ARM GAS  C:\Users\ingan\AppData\Local\Temp\ccMtFi7x.s 			page 7


 271:Generated_Source\PSoC5/USBUART.c ****     *  high. These bits will be set low by the power manager out-of-reset.
 272:Generated_Source\PSoC5/USBUART.c ****     *  Also confirm USBIO pull-up is disabled.
 273:Generated_Source\PSoC5/USBUART.c ****     */
 274:Generated_Source\PSoC5/USBUART.c ****     USBUART_PM_USB_CR0_REG &= (uint8) ~(USBUART_PM_USB_CR0_PD_N |
  73              		.loc 1 274 0
  74 003c 3D4C     		ldr	r4, .L5+8
  75 003e 2378     		ldrb	r3, [r4]	@ zero_extendqisi2
  76 0040 03F0F903 		and	r3, r3, #249
  77 0044 2370     		strb	r3, [r4]
 275:Generated_Source\PSoC5/USBUART.c ****                                                  USBUART_PM_USB_CR0_PD_PULLUP_N);
 276:Generated_Source\PSoC5/USBUART.c **** 
 277:Generated_Source\PSoC5/USBUART.c ****     /* Select IOMODE to USB mode. */
 278:Generated_Source\PSoC5/USBUART.c ****     USBUART_USBIO_CR1_REG &= (uint8) ~USBUART_USBIO_CR1_IOMODE;
  78              		.loc 1 278 0
  79 0046 3C4A     		ldr	r2, .L5+12
  80 0048 1378     		ldrb	r3, [r2]	@ zero_extendqisi2
  81 004a 03F0DF03 		and	r3, r3, #223
  82 004e 1370     		strb	r3, [r2]
 279:Generated_Source\PSoC5/USBUART.c **** 
 280:Generated_Source\PSoC5/USBUART.c ****     /* Enable USBIO reference by setting PM.USB_CR0.fsusbio_ref_en. */
 281:Generated_Source\PSoC5/USBUART.c ****     USBUART_PM_USB_CR0_REG |= USBUART_PM_USB_CR0_REF_EN;
  83              		.loc 1 281 0
  84 0050 2378     		ldrb	r3, [r4]	@ zero_extendqisi2
  85 0052 3B43     		orrs	r3, r3, r7
  86 0054 2370     		strb	r3, [r4]
 282:Generated_Source\PSoC5/USBUART.c ****     /* Reference is available for 1us after regulator is enabled. */
 283:Generated_Source\PSoC5/USBUART.c ****     CyDelayUs(USBUART_WAIT_REG_STABILITY_1US);
  87              		.loc 1 283 0
  88 0056 3846     		mov	r0, r7
  89 0058 FFF7FEFF 		bl	CyDelayUs
  90              	.LVL3:
 284:Generated_Source\PSoC5/USBUART.c ****     /* OR 40us after power is restored. */
 285:Generated_Source\PSoC5/USBUART.c ****     CyDelayUs(USBUART_WAIT_VREF_RESTORE);
  91              		.loc 1 285 0
  92 005c 2820     		movs	r0, #40
  93 005e FFF7FEFF 		bl	CyDelayUs
  94              	.LVL4:
 286:Generated_Source\PSoC5/USBUART.c ****     /* Ensure single-ended disable bits are low (PRT15.INP_DIS[7:6])(input receiver enabled). */
 287:Generated_Source\PSoC5/USBUART.c ****     USBUART_DM_INP_DIS_REG &= (uint8) ~USBUART_DM_MASK;
  95              		.loc 1 287 0
  96 0062 364B     		ldr	r3, .L5+16
  97 0064 1A78     		ldrb	r2, [r3]	@ zero_extendqisi2
  98 0066 02F07F02 		and	r2, r2, #127
  99 006a 1A70     		strb	r2, [r3]
 288:Generated_Source\PSoC5/USBUART.c ****     USBUART_DP_INP_DIS_REG &= (uint8) ~USBUART_DP_MASK;
 100              		.loc 1 288 0
 101 006c 1A78     		ldrb	r2, [r3]	@ zero_extendqisi2
 102 006e 02F0BF02 		and	r2, r2, #191
 103 0072 1A70     		strb	r2, [r3]
 289:Generated_Source\PSoC5/USBUART.c **** 
 290:Generated_Source\PSoC5/USBUART.c ****     /* Enable USBIO. */
 291:Generated_Source\PSoC5/USBUART.c ****     USBUART_PM_USB_CR0_REG |= USBUART_PM_USB_CR0_PD_N;
 104              		.loc 1 291 0
 105 0074 2378     		ldrb	r3, [r4]	@ zero_extendqisi2
 106 0076 3343     		orrs	r3, r3, r6
 107 0078 2370     		strb	r3, [r4]
 292:Generated_Source\PSoC5/USBUART.c ****     CyDelayUs(USBUART_WAIT_PD_PULLUP_N_ENABLE);
ARM GAS  C:\Users\ingan\AppData\Local\Temp\ccMtFi7x.s 			page 8


 108              		.loc 1 292 0
 109 007a 3046     		mov	r0, r6
 110 007c FFF7FEFF 		bl	CyDelayUs
 111              	.LVL5:
 293:Generated_Source\PSoC5/USBUART.c ****     /* Set USBIO pull-up enable. */
 294:Generated_Source\PSoC5/USBUART.c ****     USBUART_PM_USB_CR0_REG |= USBUART_PM_USB_CR0_PD_PULLUP_N;
 112              		.loc 1 294 0
 113 0080 2378     		ldrb	r3, [r4]	@ zero_extendqisi2
 114 0082 43F00403 		orr	r3, r3, #4
 115 0086 2370     		strb	r3, [r4]
 295:Generated_Source\PSoC5/USBUART.c **** 
 296:Generated_Source\PSoC5/USBUART.c ****     /* Reset Arbiter Write Address register for endpoint 1. */
 297:Generated_Source\PSoC5/USBUART.c ****     CY_SET_REG8(USBUART_ARB_RW1_WA_PTR,     0u);
 116              		.loc 1 297 0
 117 0088 0023     		movs	r3, #0
 118 008a 2D4A     		ldr	r2, .L5+20
 119 008c 1370     		strb	r3, [r2]
 298:Generated_Source\PSoC5/USBUART.c ****     CY_SET_REG8(USBUART_ARB_RW1_WA_MSB_PTR, 0u);
 120              		.loc 1 298 0
 121 008e 0132     		adds	r2, r2, #1
 122 0090 1370     		strb	r3, [r2]
 123              	.LVL6:
 299:Generated_Source\PSoC5/USBUART.c **** 
 300:Generated_Source\PSoC5/USBUART.c **** #if (USBUART_EP_MANAGEMENT_DMA)
 301:Generated_Source\PSoC5/USBUART.c ****     /* Initialize transfer descriptor. This will be used to detect DMA state - initialized or not. 
 302:Generated_Source\PSoC5/USBUART.c ****     for (i = 0u; i < USBUART_MAX_EP; ++i)
 124              		.loc 1 302 0
 125 0092 04E0     		b	.L2
 126              	.LVL7:
 127              	.L3:
 303:Generated_Source\PSoC5/USBUART.c ****     {
 304:Generated_Source\PSoC5/USBUART.c ****         USBUART_DmaTd[i] = DMA_INVALID_TD;
 128              		.loc 1 304 0 discriminator 3
 129 0094 FF21     		movs	r1, #255
 130 0096 2B4A     		ldr	r2, .L5+24
 131 0098 D154     		strb	r1, [r2, r3]
 302:Generated_Source\PSoC5/USBUART.c ****     {
 132              		.loc 1 302 0 discriminator 3
 133 009a 0133     		adds	r3, r3, #1
 134              	.LVL8:
 135 009c 9BB2     		uxth	r3, r3
 136              	.LVL9:
 137              	.L2:
 302:Generated_Source\PSoC5/USBUART.c ****     {
 138              		.loc 1 302 0 is_stmt 0 discriminator 1
 139 009e 082B     		cmp	r3, #8
 140 00a0 F8D9     		bls	.L3
 305:Generated_Source\PSoC5/USBUART.c **** 
 306:Generated_Source\PSoC5/USBUART.c ****     #if (USBUART_EP_MANAGEMENT_DMA_AUTO && (USBUART_EP_DMA_AUTO_OPT == 0u))
 307:Generated_Source\PSoC5/USBUART.c ****         USBUART_DmaNextTd[i] = DMA_INVALID_TD;
 308:Generated_Source\PSoC5/USBUART.c ****     #endif /* (USBUART_EP_MANAGEMENT_DMA_AUTO && (USBUART_EP_DMA_AUTO_OPT == 0u)) */
 309:Generated_Source\PSoC5/USBUART.c ****     }
 310:Generated_Source\PSoC5/USBUART.c **** #endif /* (USBUART_EP_MANAGEMENT_DMA) */
 311:Generated_Source\PSoC5/USBUART.c **** 
 312:Generated_Source\PSoC5/USBUART.c ****     CyExitCriticalSection(enableInterrupts);
 141              		.loc 1 312 0 is_stmt 1
 142 00a2 2846     		mov	r0, r5
ARM GAS  C:\Users\ingan\AppData\Local\Temp\ccMtFi7x.s 			page 9


 143 00a4 FFF7FEFF 		bl	CyExitCriticalSection
 144              	.LVL10:
 313:Generated_Source\PSoC5/USBUART.c **** #endif /* (CY_PSOC4) */
 314:Generated_Source\PSoC5/USBUART.c **** 
 315:Generated_Source\PSoC5/USBUART.c ****     /* Configure interrupts from USB block. */
 316:Generated_Source\PSoC5/USBUART.c **** #if (CY_PSOC4)
 317:Generated_Source\PSoC5/USBUART.c ****     /* Configure hi_int: set handler and priority. */
 318:Generated_Source\PSoC5/USBUART.c ****     CyIntSetPriority     (USBUART_INTR_HI_VECT_NUM,  USBUART_INTR_HI_PRIORITY);
 319:Generated_Source\PSoC5/USBUART.c ****     (void) CyIntSetVector(USBUART_INTR_HI_VECT_NUM, &USBUART_INTR_HI_ISR);
 320:Generated_Source\PSoC5/USBUART.c **** 
 321:Generated_Source\PSoC5/USBUART.c ****     /* Configure lo_int: set handler and priority. */
 322:Generated_Source\PSoC5/USBUART.c ****     CyIntSetPriority     (USBUART_INTR_LO_VECT_NUM,  USBUART_INTR_LO_PRIORITY);
 323:Generated_Source\PSoC5/USBUART.c ****     (void) CyIntSetVector(USBUART_INTR_LO_VECT_NUM, &USBUART_INTR_LO_ISR);
 324:Generated_Source\PSoC5/USBUART.c **** 
 325:Generated_Source\PSoC5/USBUART.c ****     /* Configure med_int: set handler and priority (routed through DSI). */
 326:Generated_Source\PSoC5/USBUART.c ****     CyIntSetPriority     (USBUART_INTR_MED_VECT_NUM,  USBUART_INTR_MED_PRIORITY);
 327:Generated_Source\PSoC5/USBUART.c ****     (void) CyIntSetVector(USBUART_INTR_MED_VECT_NUM, &USBUART_INTR_MED_ISR);
 328:Generated_Source\PSoC5/USBUART.c **** 
 329:Generated_Source\PSoC5/USBUART.c **** #else
 330:Generated_Source\PSoC5/USBUART.c ****     /* Set bus reset interrupt. */
 331:Generated_Source\PSoC5/USBUART.c ****     CyIntSetPriority(USBUART_BUS_RESET_VECT_NUM, USBUART_BUS_RESET_PRIOR);
 145              		.loc 1 331 0
 146 00a8 0721     		movs	r1, #7
 147 00aa 1720     		movs	r0, #23
 148 00ac FFF7FEFF 		bl	CyIntSetPriority
 149              	.LVL11:
 332:Generated_Source\PSoC5/USBUART.c ****     (void) CyIntSetVector(USBUART_BUS_RESET_VECT_NUM,   &USBUART_BUS_RESET_ISR);
 150              		.loc 1 332 0
 151 00b0 2549     		ldr	r1, .L5+28
 152 00b2 1720     		movs	r0, #23
 153 00b4 FFF7FEFF 		bl	CyIntSetVector
 154              	.LVL12:
 333:Generated_Source\PSoC5/USBUART.c **** 
 334:Generated_Source\PSoC5/USBUART.c ****     /* Set Control Endpoint Interrupt. */
 335:Generated_Source\PSoC5/USBUART.c ****     CyIntSetPriority(USBUART_EP_0_VECT_NUM, USBUART_EP_0_PRIOR);
 155              		.loc 1 335 0
 156 00b8 0721     		movs	r1, #7
 157 00ba 1820     		movs	r0, #24
 158 00bc FFF7FEFF 		bl	CyIntSetPriority
 159              	.LVL13:
 336:Generated_Source\PSoC5/USBUART.c ****     (void) CyIntSetVector(USBUART_EP_0_VECT_NUM,   &USBUART_EP_0_ISR);
 160              		.loc 1 336 0
 161 00c0 2249     		ldr	r1, .L5+32
 162 00c2 1820     		movs	r0, #24
 163 00c4 FFF7FEFF 		bl	CyIntSetVector
 164              	.LVL14:
 337:Generated_Source\PSoC5/USBUART.c **** 
 338:Generated_Source\PSoC5/USBUART.c ****     /* Set SOF interrupt. */
 339:Generated_Source\PSoC5/USBUART.c ****     #if (USBUART_SOF_ISR_ACTIVE)
 340:Generated_Source\PSoC5/USBUART.c ****         CyIntSetPriority     (USBUART_SOF_VECT_NUM,  USBUART_SOF_PRIOR);
 165              		.loc 1 340 0
 166 00c8 0721     		movs	r1, #7
 167 00ca 1520     		movs	r0, #21
 168 00cc FFF7FEFF 		bl	CyIntSetPriority
 169              	.LVL15:
 341:Generated_Source\PSoC5/USBUART.c ****         (void) CyIntSetVector(USBUART_SOF_VECT_NUM, &USBUART_SOF_ISR);
 170              		.loc 1 341 0
ARM GAS  C:\Users\ingan\AppData\Local\Temp\ccMtFi7x.s 			page 10


 171 00d0 1F49     		ldr	r1, .L5+36
 172 00d2 1520     		movs	r0, #21
 173 00d4 FFF7FEFF 		bl	CyIntSetVector
 174              	.LVL16:
 342:Generated_Source\PSoC5/USBUART.c ****     #endif /* (USBUART_SOF_ISR_ACTIVE) */
 343:Generated_Source\PSoC5/USBUART.c **** 
 344:Generated_Source\PSoC5/USBUART.c ****     /* Set Data Endpoint 1 Interrupt. */
 345:Generated_Source\PSoC5/USBUART.c ****     #if (USBUART_EP1_ISR_ACTIVE)
 346:Generated_Source\PSoC5/USBUART.c ****         CyIntSetPriority     (USBUART_EP_1_VECT_NUM,  USBUART_EP_1_PRIOR);
 175              		.loc 1 346 0
 176 00d8 0721     		movs	r1, #7
 177 00da 0020     		movs	r0, #0
 178 00dc FFF7FEFF 		bl	CyIntSetPriority
 179              	.LVL17:
 347:Generated_Source\PSoC5/USBUART.c ****         (void) CyIntSetVector(USBUART_EP_1_VECT_NUM,  &USBUART_EP_1_ISR);
 180              		.loc 1 347 0
 181 00e0 1C49     		ldr	r1, .L5+40
 182 00e2 0020     		movs	r0, #0
 183 00e4 FFF7FEFF 		bl	CyIntSetVector
 184              	.LVL18:
 348:Generated_Source\PSoC5/USBUART.c ****     #endif /* (USBUART_EP1_ISR_ACTIVE) */
 349:Generated_Source\PSoC5/USBUART.c **** 
 350:Generated_Source\PSoC5/USBUART.c ****     /* Set Data Endpoint 2 Interrupt. */
 351:Generated_Source\PSoC5/USBUART.c ****     #if (USBUART_EP2_ISR_ACTIVE)
 352:Generated_Source\PSoC5/USBUART.c ****         CyIntSetPriority     (USBUART_EP_2_VECT_NUM,  USBUART_EP_2_PRIOR);
 185              		.loc 1 352 0
 186 00e8 0721     		movs	r1, #7
 187 00ea 0120     		movs	r0, #1
 188 00ec FFF7FEFF 		bl	CyIntSetPriority
 189              	.LVL19:
 353:Generated_Source\PSoC5/USBUART.c ****         (void) CyIntSetVector(USBUART_EP_2_VECT_NUM, &USBUART_EP_2_ISR);
 190              		.loc 1 353 0
 191 00f0 1949     		ldr	r1, .L5+44
 192 00f2 0120     		movs	r0, #1
 193 00f4 FFF7FEFF 		bl	CyIntSetVector
 194              	.LVL20:
 354:Generated_Source\PSoC5/USBUART.c ****     #endif /* (USBUART_EP2_ISR_ACTIVE) */
 355:Generated_Source\PSoC5/USBUART.c **** 
 356:Generated_Source\PSoC5/USBUART.c ****     /* Set Data Endpoint 3 Interrupt. */
 357:Generated_Source\PSoC5/USBUART.c ****     #if (USBUART_EP3_ISR_ACTIVE)
 358:Generated_Source\PSoC5/USBUART.c ****         CyIntSetPriority     (USBUART_EP_3_VECT_NUM,  USBUART_EP_3_PRIOR);
 195              		.loc 1 358 0
 196 00f8 0721     		movs	r1, #7
 197 00fa 0220     		movs	r0, #2
 198 00fc FFF7FEFF 		bl	CyIntSetPriority
 199              	.LVL21:
 359:Generated_Source\PSoC5/USBUART.c ****         (void) CyIntSetVector(USBUART_EP_3_VECT_NUM, &USBUART_EP_3_ISR);
 200              		.loc 1 359 0
 201 0100 1649     		ldr	r1, .L5+48
 202 0102 0220     		movs	r0, #2
 203 0104 FFF7FEFF 		bl	CyIntSetVector
 204              	.LVL22:
 360:Generated_Source\PSoC5/USBUART.c ****     #endif /* (USBUART_EP3_ISR_ACTIVE) */
 361:Generated_Source\PSoC5/USBUART.c **** 
 362:Generated_Source\PSoC5/USBUART.c ****     /* Set Data Endpoint 4 Interrupt. */
 363:Generated_Source\PSoC5/USBUART.c ****     #if (USBUART_EP4_ISR_ACTIVE)
 364:Generated_Source\PSoC5/USBUART.c ****         CyIntSetPriority     (USBUART_EP_4_VECT_NUM,  USBUART_EP_4_PRIOR);
ARM GAS  C:\Users\ingan\AppData\Local\Temp\ccMtFi7x.s 			page 11


 365:Generated_Source\PSoC5/USBUART.c ****         (void) CyIntSetVector(USBUART_EP_4_VECT_NUM, &USBUART_EP_4_ISR);
 366:Generated_Source\PSoC5/USBUART.c ****     #endif /* (USBUART_EP4_ISR_ACTIVE) */
 367:Generated_Source\PSoC5/USBUART.c **** 
 368:Generated_Source\PSoC5/USBUART.c ****     /* Set Data Endpoint 5 Interrupt. */
 369:Generated_Source\PSoC5/USBUART.c ****     #if (USBUART_EP5_ISR_ACTIVE)
 370:Generated_Source\PSoC5/USBUART.c ****         CyIntSetPriority     (USBUART_EP_5_VECT_NUM,  USBUART_EP_5_PRIOR);
 371:Generated_Source\PSoC5/USBUART.c ****         (void) CyIntSetVector(USBUART_EP_5_VECT_NUM, &USBUART_EP_5_ISR);
 372:Generated_Source\PSoC5/USBUART.c ****     #endif /* (USBUART_EP5_ISR_ACTIVE) */
 373:Generated_Source\PSoC5/USBUART.c **** 
 374:Generated_Source\PSoC5/USBUART.c ****     /* Set Data Endpoint 6 Interrupt. */
 375:Generated_Source\PSoC5/USBUART.c ****     #if (USBUART_EP6_ISR_ACTIVE)
 376:Generated_Source\PSoC5/USBUART.c ****         CyIntSetPriority     (USBUART_EP_6_VECT_NUM,  USBUART_EP_6_PRIOR);
 377:Generated_Source\PSoC5/USBUART.c ****         (void) CyIntSetVector(USBUART_EP_6_VECT_NUM, &USBUART_EP_6_ISR);
 378:Generated_Source\PSoC5/USBUART.c ****     #endif /* (USBUART_EP6_ISR_ACTIVE) */
 379:Generated_Source\PSoC5/USBUART.c **** 
 380:Generated_Source\PSoC5/USBUART.c ****      /* Set Data Endpoint 7 Interrupt. */
 381:Generated_Source\PSoC5/USBUART.c ****     #if (USBUART_EP7_ISR_ACTIVE)
 382:Generated_Source\PSoC5/USBUART.c ****         CyIntSetPriority     (USBUART_EP_7_VECT_NUM,  USBUART_EP_7_PRIOR);
 383:Generated_Source\PSoC5/USBUART.c ****         (void) CyIntSetVector(USBUART_EP_7_VECT_NUM, &USBUART_EP_7_ISR);
 384:Generated_Source\PSoC5/USBUART.c ****     #endif /* (USBUART_EP7_ISR_ACTIVE) */
 385:Generated_Source\PSoC5/USBUART.c **** 
 386:Generated_Source\PSoC5/USBUART.c ****     /* Set Data Endpoint 8 Interrupt. */
 387:Generated_Source\PSoC5/USBUART.c ****     #if (USBUART_EP8_ISR_ACTIVE)
 388:Generated_Source\PSoC5/USBUART.c ****         CyIntSetPriority     (USBUART_EP_8_VECT_NUM,  USBUART_EP_8_PRIOR);
 389:Generated_Source\PSoC5/USBUART.c ****         (void) CyIntSetVector(USBUART_EP_8_VECT_NUM, &USBUART_EP_8_ISR);
 390:Generated_Source\PSoC5/USBUART.c ****     #endif /* (USBUART_EP8_ISR_ACTIVE) */
 391:Generated_Source\PSoC5/USBUART.c **** 
 392:Generated_Source\PSoC5/USBUART.c ****     /* Set ARB Interrupt. */
 393:Generated_Source\PSoC5/USBUART.c ****     #if (USBUART_EP_MANAGEMENT_DMA && USBUART_ARB_ISR_ACTIVE)
 394:Generated_Source\PSoC5/USBUART.c ****         CyIntSetPriority     (USBUART_ARB_VECT_NUM,  USBUART_ARB_PRIOR);
 205              		.loc 1 394 0
 206 0108 0021     		movs	r1, #0
 207 010a 1620     		movs	r0, #22
 208 010c FFF7FEFF 		bl	CyIntSetPriority
 209              	.LVL23:
 395:Generated_Source\PSoC5/USBUART.c ****         (void) CyIntSetVector(USBUART_ARB_VECT_NUM, &USBUART_ARB_ISR);
 210              		.loc 1 395 0
 211 0110 1349     		ldr	r1, .L5+52
 212 0112 1620     		movs	r0, #22
 213 0114 FFF7FEFF 		bl	CyIntSetVector
 214              	.LVL24:
 396:Generated_Source\PSoC5/USBUART.c ****     #endif /* (USBUART_EP_MANAGEMENT_DMA && USBUART_ARB_ISR_ACTIVE) */
 397:Generated_Source\PSoC5/USBUART.c **** #endif /* (CY_PSOC4) */
 398:Generated_Source\PSoC5/USBUART.c **** 
 399:Generated_Source\PSoC5/USBUART.c ****     /* Common: Configure GPIO interrupt for wakeup. */
 400:Generated_Source\PSoC5/USBUART.c **** #if (USBUART_DP_ISR_ACTIVE)
 401:Generated_Source\PSoC5/USBUART.c ****     CyIntSetPriority     (USBUART_DP_INTC_VECT_NUM,  USBUART_DP_INTC_PRIORITY);
 215              		.loc 1 401 0
 216 0118 0721     		movs	r1, #7
 217 011a 0C20     		movs	r0, #12
 218 011c FFF7FEFF 		bl	CyIntSetPriority
 219              	.LVL25:
 402:Generated_Source\PSoC5/USBUART.c ****     (void) CyIntSetVector(USBUART_DP_INTC_VECT_NUM, &USBUART_DP_ISR);
 220              		.loc 1 402 0
 221 0120 1049     		ldr	r1, .L5+56
 222 0122 0C20     		movs	r0, #12
 223 0124 FFF7FEFF 		bl	CyIntSetVector
ARM GAS  C:\Users\ingan\AppData\Local\Temp\ccMtFi7x.s 			page 12


 224              	.LVL26:
 225 0128 F8BD     		pop	{r3, r4, r5, r6, r7, pc}
 226              	.LVL27:
 227              	.L6:
 228 012a 00BF     		.align	2
 229              	.L5:
 230 012c A5430040 		.word	1073759141
 231 0130 9D600040 		.word	1073766557
 232 0134 94430040 		.word	1073759124
 233 0138 12600040 		.word	1073766418
 234 013c F8510040 		.word	1073762808
 235 0140 84600040 		.word	1073766532
 236 0144 00000000 		.word	USBUART_DmaTd
 237 0148 00000000 		.word	USBUART_BUS_RESET_ISR
 238 014c 00000000 		.word	USBUART_EP_0_ISR
 239 0150 00000000 		.word	USBUART_SOF_ISR
 240 0154 00000000 		.word	USBUART_EP_1_ISR
 241 0158 00000000 		.word	USBUART_EP_2_ISR
 242 015c 00000000 		.word	USBUART_EP_3_ISR
 243 0160 00000000 		.word	USBUART_ARB_ISR
 244 0164 00000000 		.word	USBUART_DP_ISR
 245              		.cfi_endproc
 246              	.LFE1:
 247              		.size	USBUART_Init, .-USBUART_Init
 248              		.section	.text.USBUART_InitComponent,"ax",%progbits
 249              		.align	2
 250              		.global	USBUART_InitComponent
 251              		.thumb
 252              		.thumb_func
 253              		.type	USBUART_InitComponent, %function
 254              	USBUART_InitComponent:
 255              	.LFB2:
 403:Generated_Source\PSoC5/USBUART.c **** #endif /* (USBUART_DP_ISR_ACTIVE) */
 404:Generated_Source\PSoC5/USBUART.c **** 
 405:Generated_Source\PSoC5/USBUART.c **** #if (USBUART_EP_MANAGEMENT_DMA && CY_PSOC4)
 406:Generated_Source\PSoC5/USBUART.c ****     /* Initialize DMA channels. */
 407:Generated_Source\PSoC5/USBUART.c ****     USBUART_InitEpDma();
 408:Generated_Source\PSoC5/USBUART.c **** #endif /* (USBUART_EP_MANAGEMENT_DMA && CY_PSOC4) */
 409:Generated_Source\PSoC5/USBUART.c **** }
 410:Generated_Source\PSoC5/USBUART.c **** 
 411:Generated_Source\PSoC5/USBUART.c **** 
 412:Generated_Source\PSoC5/USBUART.c **** /*******************************************************************************
 413:Generated_Source\PSoC5/USBUART.c **** * Function Name: USBUART_InitComponent
 414:Generated_Source\PSoC5/USBUART.c **** ****************************************************************************//**
 415:Generated_Source\PSoC5/USBUART.c **** *
 416:Generated_Source\PSoC5/USBUART.c **** *   This function initializes the component’s global variables and initiates
 417:Generated_Source\PSoC5/USBUART.c **** *   communication with the host by pull-up D+ line.
 418:Generated_Source\PSoC5/USBUART.c **** *
 419:Generated_Source\PSoC5/USBUART.c **** * \param device:
 420:Generated_Source\PSoC5/USBUART.c **** *   Contains the device number of the desired device descriptor. The device
 421:Generated_Source\PSoC5/USBUART.c **** *   number can be found in the Device Descriptor Tab of "Configure" dialog,
 422:Generated_Source\PSoC5/USBUART.c **** *   under the settings of desired Device Descriptor, in the *Device Number*
 423:Generated_Source\PSoC5/USBUART.c **** *   field.
 424:Generated_Source\PSoC5/USBUART.c **** *  \param mode:
 425:Generated_Source\PSoC5/USBUART.c **** *   The operating voltage. This determines whether the voltage regulator
 426:Generated_Source\PSoC5/USBUART.c **** *   is enabled for 5V operation or if pass through mode is used for 3.3V
 427:Generated_Source\PSoC5/USBUART.c **** *   operation. Symbolic names and their associated values are given in the
ARM GAS  C:\Users\ingan\AppData\Local\Temp\ccMtFi7x.s 			page 13


 428:Generated_Source\PSoC5/USBUART.c **** *   following list.
 429:Generated_Source\PSoC5/USBUART.c **** *
 430:Generated_Source\PSoC5/USBUART.c **** *       *USBUART_3V_OPERATION* - Disable voltage regulator and pass-
 431:Generated_Source\PSoC5/USBUART.c **** *                                      through Vcc for pull-up
 432:Generated_Source\PSoC5/USBUART.c **** *
 433:Generated_Source\PSoC5/USBUART.c **** *       *USBUART_5V_OPERATION* - Enable voltage regulator and use
 434:Generated_Source\PSoC5/USBUART.c **** *                                      regulator for pull-up
 435:Generated_Source\PSoC5/USBUART.c **** *
 436:Generated_Source\PSoC5/USBUART.c **** *       *USBUART_DWR_POWER_OPERATION* - Enable or disable the voltage
 437:Generated_Source\PSoC5/USBUART.c **** *                                      regulator depending on the power supply
 438:Generated_Source\PSoC5/USBUART.c **** *                                      voltage configuration in the DWR tab.
 439:Generated_Source\PSoC5/USBUART.c **** *                                      For PSoC 3/5LP devices, the VDDD supply
 440:Generated_Source\PSoC5/USBUART.c **** *                                      voltage is considered and for PSoC 4A-L,
 441:Generated_Source\PSoC5/USBUART.c **** *                                      the VBUS supply voltage is considered.
 442:Generated_Source\PSoC5/USBUART.c **** *
 443:Generated_Source\PSoC5/USBUART.c **** * \globalvars
 444:Generated_Source\PSoC5/USBUART.c **** *   \ref USBUART_device
 445:Generated_Source\PSoC5/USBUART.c **** *   \ref USBUART_transferState
 446:Generated_Source\PSoC5/USBUART.c **** *   \ref USBUART_configuration
 447:Generated_Source\PSoC5/USBUART.c **** *   \ref USBUART_deviceStatus
 448:Generated_Source\PSoC5/USBUART.c **** *
 449:Generated_Source\PSoC5/USBUART.c **** *   \ref USBUART_deviceAddress - Contains the current device address. This
 450:Generated_Source\PSoC5/USBUART.c **** *       variable is initialized to zero in this API. The Host starts to communicate
 451:Generated_Source\PSoC5/USBUART.c **** *      to the device with address 0 and then sets it to a whatever value using a
 452:Generated_Source\PSoC5/USBUART.c **** *      SET_ADDRESS request.
 453:Generated_Source\PSoC5/USBUART.c **** *
 454:Generated_Source\PSoC5/USBUART.c **** *   \ref USBUART_lastPacketSize - Initialized to 0;
 455:Generated_Source\PSoC5/USBUART.c **** *
 456:Generated_Source\PSoC5/USBUART.c **** * \reentrant
 457:Generated_Source\PSoC5/USBUART.c **** *  No.
 458:Generated_Source\PSoC5/USBUART.c **** *
 459:Generated_Source\PSoC5/USBUART.c **** *******************************************************************************/
 460:Generated_Source\PSoC5/USBUART.c **** void USBUART_InitComponent(uint8 device, uint8 mode) 
 461:Generated_Source\PSoC5/USBUART.c **** {
 256              		.loc 1 461 0
 257              		.cfi_startproc
 258              		@ args = 0, pretend = 0, frame = 0
 259              		@ frame_needed = 0, uses_anonymous_args = 0
 260              	.LVL28:
 261 0000 08B5     		push	{r3, lr}
 262              		.cfi_def_cfa_offset 8
 263              		.cfi_offset 3, -8
 264              		.cfi_offset 14, -4
 462:Generated_Source\PSoC5/USBUART.c ****     /* Initialize _hidProtocol variable to comply with
 463:Generated_Source\PSoC5/USBUART.c ****     *  HID 7.2.6 Set_Protocol Request:
 464:Generated_Source\PSoC5/USBUART.c ****     *  "When initialized, all devices default to report protocol."
 465:Generated_Source\PSoC5/USBUART.c ****     */
 466:Generated_Source\PSoC5/USBUART.c **** #if defined(USBUART_ENABLE_HID_CLASS)
 467:Generated_Source\PSoC5/USBUART.c ****     uint8 i;
 468:Generated_Source\PSoC5/USBUART.c **** 
 469:Generated_Source\PSoC5/USBUART.c ****     for (i = 0u; i < USBUART_MAX_INTERFACES_NUMBER; i++)
 470:Generated_Source\PSoC5/USBUART.c ****     {
 471:Generated_Source\PSoC5/USBUART.c ****         USBUART_hidProtocol[i] = USBUART_PROTOCOL_REPORT;
 472:Generated_Source\PSoC5/USBUART.c ****     }
 473:Generated_Source\PSoC5/USBUART.c **** #endif /* USBUART_ENABLE_HID_CLASS */
 474:Generated_Source\PSoC5/USBUART.c **** 
 475:Generated_Source\PSoC5/USBUART.c ****     /* Store device number to access descriptor. */
ARM GAS  C:\Users\ingan\AppData\Local\Temp\ccMtFi7x.s 			page 14


 476:Generated_Source\PSoC5/USBUART.c ****     USBUART_device = device;
 265              		.loc 1 476 0
 266 0002 264B     		ldr	r3, .L14
 267 0004 1870     		strb	r0, [r3]
 477:Generated_Source\PSoC5/USBUART.c **** 
 478:Generated_Source\PSoC5/USBUART.c ****     /* Reset component internal variables. */
 479:Generated_Source\PSoC5/USBUART.c ****     USBUART_transferState   = USBUART_TRANS_STATE_IDLE;
 268              		.loc 1 479 0
 269 0006 0023     		movs	r3, #0
 270 0008 254A     		ldr	r2, .L14+4
 271 000a 1370     		strb	r3, [r2]
 480:Generated_Source\PSoC5/USBUART.c ****     USBUART_configurationChanged = 0u;
 272              		.loc 1 480 0
 273 000c 254A     		ldr	r2, .L14+8
 274 000e 1370     		strb	r3, [r2]
 481:Generated_Source\PSoC5/USBUART.c ****     USBUART_configuration   = 0u;
 275              		.loc 1 481 0
 276 0010 254A     		ldr	r2, .L14+12
 277 0012 1370     		strb	r3, [r2]
 482:Generated_Source\PSoC5/USBUART.c ****     USBUART_interfaceNumber = 0u;
 278              		.loc 1 482 0
 279 0014 254A     		ldr	r2, .L14+16
 280 0016 1370     		strb	r3, [r2]
 483:Generated_Source\PSoC5/USBUART.c ****     USBUART_deviceAddress   = 0u;
 281              		.loc 1 483 0
 282 0018 254A     		ldr	r2, .L14+20
 283 001a 1370     		strb	r3, [r2]
 484:Generated_Source\PSoC5/USBUART.c ****     USBUART_deviceStatus    = 0u;
 284              		.loc 1 484 0
 285 001c 254A     		ldr	r2, .L14+24
 286 001e 1370     		strb	r3, [r2]
 485:Generated_Source\PSoC5/USBUART.c ****     USBUART_lastPacketSize  = 0u;
 287              		.loc 1 485 0
 288 0020 254A     		ldr	r2, .L14+28
 289 0022 1370     		strb	r3, [r2]
 486:Generated_Source\PSoC5/USBUART.c **** 
 487:Generated_Source\PSoC5/USBUART.c ****     /* Enable component interrupts. */
 488:Generated_Source\PSoC5/USBUART.c **** #if (CY_PSOC4)
 489:Generated_Source\PSoC5/USBUART.c ****     CyIntEnable(USBUART_INTR_HI_VECT_NUM);
 490:Generated_Source\PSoC5/USBUART.c ****     CyIntEnable(USBUART_INTR_MED_VECT_NUM);
 491:Generated_Source\PSoC5/USBUART.c ****     CyIntEnable(USBUART_INTR_LO_VECT_NUM);
 492:Generated_Source\PSoC5/USBUART.c **** #else
 493:Generated_Source\PSoC5/USBUART.c ****     CyIntEnable(USBUART_BUS_RESET_VECT_NUM);
 290              		.loc 1 493 0
 291 0024 254B     		ldr	r3, .L14+32
 292 0026 4FF40002 		mov	r2, #8388608
 293 002a 1A60     		str	r2, [r3]
 494:Generated_Source\PSoC5/USBUART.c ****     CyIntEnable(USBUART_EP_0_VECT_NUM);
 294              		.loc 1 494 0
 295 002c 4FF08072 		mov	r2, #16777216
 296 0030 1A60     		str	r2, [r3]
 495:Generated_Source\PSoC5/USBUART.c **** 
 496:Generated_Source\PSoC5/USBUART.c ****     #if (USBUART_SOF_ISR_ACTIVE)
 497:Generated_Source\PSoC5/USBUART.c ****         CyIntEnable(USBUART_SOF_VECT_NUM);
 297              		.loc 1 497 0
 298 0032 4FF40012 		mov	r2, #2097152
 299 0036 1A60     		str	r2, [r3]
ARM GAS  C:\Users\ingan\AppData\Local\Temp\ccMtFi7x.s 			page 15


 498:Generated_Source\PSoC5/USBUART.c ****     #endif /* (USBUART_SOF_ISR_ACTIVE) */
 499:Generated_Source\PSoC5/USBUART.c **** 
 500:Generated_Source\PSoC5/USBUART.c ****     #if (USBUART_EP1_ISR_ACTIVE)
 501:Generated_Source\PSoC5/USBUART.c ****         CyIntEnable(USBUART_EP_1_VECT_NUM);
 300              		.loc 1 501 0
 301 0038 0122     		movs	r2, #1
 302 003a 1A60     		str	r2, [r3]
 502:Generated_Source\PSoC5/USBUART.c ****     #endif /* (USBUART_EP1_ISR_ACTIVE) */
 503:Generated_Source\PSoC5/USBUART.c **** 
 504:Generated_Source\PSoC5/USBUART.c ****     #if (USBUART_EP2_ISR_ACTIVE)
 505:Generated_Source\PSoC5/USBUART.c ****         CyIntEnable(USBUART_EP_2_VECT_NUM);
 303              		.loc 1 505 0
 304 003c 0222     		movs	r2, #2
 305 003e 1A60     		str	r2, [r3]
 506:Generated_Source\PSoC5/USBUART.c ****     #endif /* (USBUART_EP5_ISR_ACTIVE) */
 507:Generated_Source\PSoC5/USBUART.c **** 
 508:Generated_Source\PSoC5/USBUART.c ****     #if (USBUART_EP3_ISR_ACTIVE)
 509:Generated_Source\PSoC5/USBUART.c ****         CyIntEnable(USBUART_EP_3_VECT_NUM);
 306              		.loc 1 509 0
 307 0040 0422     		movs	r2, #4
 308 0042 1A60     		str	r2, [r3]
 510:Generated_Source\PSoC5/USBUART.c ****     #endif /* (USBUART_EP5_ISR_ACTIVE) */
 511:Generated_Source\PSoC5/USBUART.c **** 
 512:Generated_Source\PSoC5/USBUART.c ****     #if (USBUART_EP4_ISR_ACTIVE)
 513:Generated_Source\PSoC5/USBUART.c ****         CyIntEnable(USBUART_EP_4_VECT_NUM);
 514:Generated_Source\PSoC5/USBUART.c ****     #endif /* (USBUART_EP5_ISR_ACTIVE) */
 515:Generated_Source\PSoC5/USBUART.c **** 
 516:Generated_Source\PSoC5/USBUART.c ****     #if (USBUART_EP5_ISR_ACTIVE)
 517:Generated_Source\PSoC5/USBUART.c ****         CyIntEnable(USBUART_EP_5_VECT_NUM);
 518:Generated_Source\PSoC5/USBUART.c ****     #endif /* (USBUART_EP5_ISR_ACTIVE) */
 519:Generated_Source\PSoC5/USBUART.c **** 
 520:Generated_Source\PSoC5/USBUART.c ****     #if (USBUART_EP6_ISR_ACTIVE)
 521:Generated_Source\PSoC5/USBUART.c ****         CyIntEnable(USBUART_EP_6_VECT_NUM);
 522:Generated_Source\PSoC5/USBUART.c ****     #endif /* USBUART_EP6_ISR_REMOVE */
 523:Generated_Source\PSoC5/USBUART.c **** 
 524:Generated_Source\PSoC5/USBUART.c ****     #if (USBUART_EP7_ISR_ACTIVE)
 525:Generated_Source\PSoC5/USBUART.c ****         CyIntEnable(USBUART_EP_7_VECT_NUM);
 526:Generated_Source\PSoC5/USBUART.c ****     #endif /* (USBUART_EP7_ISR_ACTIVE) */
 527:Generated_Source\PSoC5/USBUART.c **** 
 528:Generated_Source\PSoC5/USBUART.c ****     #if (USBUART_EP8_ISR_ACTIVE)
 529:Generated_Source\PSoC5/USBUART.c ****         CyIntEnable(USBUART_EP_8_VECT_NUM);
 530:Generated_Source\PSoC5/USBUART.c ****     #endif /* (USBUART_EP8_ISR_ACTIVE) */
 531:Generated_Source\PSoC5/USBUART.c **** #endif /* (CY_PSOC4) */
 532:Generated_Source\PSoC5/USBUART.c **** 
 533:Generated_Source\PSoC5/USBUART.c **** #if (USBUART_EP_MANAGEMENT_DMA && USBUART_ARB_ISR_ACTIVE)
 534:Generated_Source\PSoC5/USBUART.c ****     /* Enable ARB EP interrupt sources. */
 535:Generated_Source\PSoC5/USBUART.c ****     USBUART_ARB_INT_EN_REG = USBUART_DEFAULT_ARB_INT_EN;
 309              		.loc 1 535 0
 310 0044 0720     		movs	r0, #7
 311              	.LVL29:
 312 0046 1E4A     		ldr	r2, .L14+36
 313 0048 1070     		strb	r0, [r2]
 536:Generated_Source\PSoC5/USBUART.c **** 
 537:Generated_Source\PSoC5/USBUART.c ****     #if (CY_PSOC3 || CY_PSOC5)
 538:Generated_Source\PSoC5/USBUART.c ****         CyIntEnable(USBUART_ARB_VECT_NUM);
 314              		.loc 1 538 0
 315 004a 4FF48002 		mov	r2, #4194304
ARM GAS  C:\Users\ingan\AppData\Local\Temp\ccMtFi7x.s 			page 16


 316 004e 1A60     		str	r2, [r3]
 539:Generated_Source\PSoC5/USBUART.c ****     #endif /* (CY_PSOC3 || CY_PSOC5) */
 540:Generated_Source\PSoC5/USBUART.c **** #endif   /* (USBUART_EP_MANAGEMENT_DMA && USBUART_ARB_ISR_ACTIVE) */
 541:Generated_Source\PSoC5/USBUART.c **** 
 542:Generated_Source\PSoC5/USBUART.c **** /* Arbiter configuration for DMA transfers. */
 543:Generated_Source\PSoC5/USBUART.c **** #if (USBUART_EP_MANAGEMENT_DMA)
 544:Generated_Source\PSoC5/USBUART.c ****     /* Configure Arbiter for Manual or Auto DMA operation and clear configuration completion. */
 545:Generated_Source\PSoC5/USBUART.c ****     USBUART_ARB_CFG_REG = USBUART_DEFAULT_ARB_CFG;
 317              		.loc 1 545 0
 318 0050 2022     		movs	r2, #32
 319 0052 1C4B     		ldr	r3, .L14+40
 320 0054 1A70     		strb	r2, [r3]
 546:Generated_Source\PSoC5/USBUART.c **** 
 547:Generated_Source\PSoC5/USBUART.c ****     #if (CY_PSOC4)
 548:Generated_Source\PSoC5/USBUART.c ****         /* Enable DMA operation. */
 549:Generated_Source\PSoC5/USBUART.c ****         CyDmaEnable();
 550:Generated_Source\PSoC5/USBUART.c **** 
 551:Generated_Source\PSoC5/USBUART.c ****         #if (USBUART_EP_MANAGEMENT_DMA_AUTO)
 552:Generated_Source\PSoC5/USBUART.c ****             /* Change DMA priority to be highest. */
 553:Generated_Source\PSoC5/USBUART.c ****              CyIntSetPriority(CYDMA_INTR_NUMBER, USBUART_DMA_AUTO_INTR_PRIO);
 554:Generated_Source\PSoC5/USBUART.c ****         #endif /* (USBUART_EP_MANAGEMENT_DMA_AUTO) */
 555:Generated_Source\PSoC5/USBUART.c ****     #endif /* (CY_PSOC4) */
 556:Generated_Source\PSoC5/USBUART.c **** 
 557:Generated_Source\PSoC5/USBUART.c ****     #if (USBUART_EP_MANAGEMENT_DMA_AUTO)
 558:Generated_Source\PSoC5/USBUART.c ****         #if (CY_PSOC4)
 559:Generated_Source\PSoC5/USBUART.c ****             /* Enable DMA interrupt to handle DMA management. */
 560:Generated_Source\PSoC5/USBUART.c ****             CyIntEnable(CYDMA_INTR_NUMBER);
 561:Generated_Source\PSoC5/USBUART.c ****         #else
 562:Generated_Source\PSoC5/USBUART.c ****             #if (USBUART_EP_DMA_AUTO_OPT == 0u)
 563:Generated_Source\PSoC5/USBUART.c ****                 /* Initialize interrupts which handle verification of successful DMA transaction. *
 564:Generated_Source\PSoC5/USBUART.c ****                 USBUART_EP_DMA_Done_isr_StartEx(&USBUART_EP_DMA_DONE_ISR);
 565:Generated_Source\PSoC5/USBUART.c ****                 USBUART_EP17_DMA_Done_SR_InterruptEnable();
 566:Generated_Source\PSoC5/USBUART.c ****                 USBUART_EP8_DMA_Done_SR_InterruptEnable();
 567:Generated_Source\PSoC5/USBUART.c ****             #endif /* (USBUART_EP_DMA_AUTO_OPT == 0u) */
 568:Generated_Source\PSoC5/USBUART.c ****         #endif /* (CY_PSOC4) */
 569:Generated_Source\PSoC5/USBUART.c ****     #endif /* (USBUART_EP_MANAGEMENT_DMA_AUTO) */
 570:Generated_Source\PSoC5/USBUART.c **** #endif /* (USBUART_EP_MANAGEMENT_DMA) */
 571:Generated_Source\PSoC5/USBUART.c **** 
 572:Generated_Source\PSoC5/USBUART.c ****     /* Enable USB regulator depends on operation voltage. IMO Locking is enabled in Init(). */
 573:Generated_Source\PSoC5/USBUART.c ****     switch(mode)
 321              		.loc 1 573 0
 322 0056 11B1     		cbz	r1, .L9
 323 0058 0129     		cmp	r1, #1
 324 005a 06D0     		beq	.L10
 325 005c 0BE0     		b	.L12
 326              	.L9:
 574:Generated_Source\PSoC5/USBUART.c ****     {
 575:Generated_Source\PSoC5/USBUART.c ****     case USBUART_3V_OPERATION:
 576:Generated_Source\PSoC5/USBUART.c ****         /* Disable regulator for 3V operation. */
 577:Generated_Source\PSoC5/USBUART.c ****         USBUART_CR1_REG &= (uint8) ~USBUART_CR1_REG_ENABLE;
 327              		.loc 1 577 0
 328 005e 1A4A     		ldr	r2, .L14+44
 329 0060 1378     		ldrb	r3, [r2]	@ zero_extendqisi2
 330 0062 03F0FE03 		and	r3, r3, #254
 331 0066 1370     		strb	r3, [r2]
 578:Generated_Source\PSoC5/USBUART.c ****         break;
 332              		.loc 1 578 0
ARM GAS  C:\Users\ingan\AppData\Local\Temp\ccMtFi7x.s 			page 17


 333 0068 0AE0     		b	.L11
 334              	.L10:
 579:Generated_Source\PSoC5/USBUART.c **** 
 580:Generated_Source\PSoC5/USBUART.c ****     case USBUART_5V_OPERATION:
 581:Generated_Source\PSoC5/USBUART.c ****         /* Enable regulator for 5V operation. */
 582:Generated_Source\PSoC5/USBUART.c ****         USBUART_CR1_REG |= (uint8)  USBUART_CR1_REG_ENABLE;
 335              		.loc 1 582 0
 336 006a 174A     		ldr	r2, .L14+44
 337 006c 1378     		ldrb	r3, [r2]	@ zero_extendqisi2
 338 006e 43F00103 		orr	r3, r3, #1
 339 0072 1370     		strb	r3, [r2]
 583:Generated_Source\PSoC5/USBUART.c ****         break;
 340              		.loc 1 583 0
 341 0074 04E0     		b	.L11
 342              	.L12:
 584:Generated_Source\PSoC5/USBUART.c **** 
 585:Generated_Source\PSoC5/USBUART.c ****     default: /* Check DWR settings of USB power supply. */
 586:Generated_Source\PSoC5/USBUART.c ****     #if (USBUART_VDDD_MV < USBUART_3500MV)
 587:Generated_Source\PSoC5/USBUART.c ****         /* Disable regulator for 3V operation. */
 588:Generated_Source\PSoC5/USBUART.c ****         USBUART_CR1_REG &= (uint8) ~USBUART_CR1_REG_ENABLE;
 589:Generated_Source\PSoC5/USBUART.c ****     #else
 590:Generated_Source\PSoC5/USBUART.c ****         /* Enable regulator for 5V operation. */
 591:Generated_Source\PSoC5/USBUART.c ****         USBUART_CR1_REG |= (uint8)  USBUART_CR1_REG_ENABLE;
 343              		.loc 1 591 0
 344 0076 144A     		ldr	r2, .L14+44
 345 0078 1378     		ldrb	r3, [r2]	@ zero_extendqisi2
 346 007a 43F00103 		orr	r3, r3, #1
 347 007e 1370     		strb	r3, [r2]
 348              	.L11:
 592:Generated_Source\PSoC5/USBUART.c ****     #endif /* (USBUART_VDDD_MV < USBUART_3500MV) */
 593:Generated_Source\PSoC5/USBUART.c ****         break;
 594:Generated_Source\PSoC5/USBUART.c ****     }
 595:Generated_Source\PSoC5/USBUART.c **** 
 596:Generated_Source\PSoC5/USBUART.c **** #if (CY_PSOC4)
 597:Generated_Source\PSoC5/USBUART.c ****     /* Clear bus activity. */
 598:Generated_Source\PSoC5/USBUART.c ****     USBUART_CR1_REG &= (uint32) ~USBUART_CR1_BUS_ACTIVITY;
 599:Generated_Source\PSoC5/USBUART.c **** 
 600:Generated_Source\PSoC5/USBUART.c ****     /* Clear EP0 count register. */
 601:Generated_Source\PSoC5/USBUART.c ****     USBUART_EP0_CNT_REG = USBUART_CLEAR_REG;
 602:Generated_Source\PSoC5/USBUART.c **** 
 603:Generated_Source\PSoC5/USBUART.c ****     /* Set EP0.CR: ACK Setup, NAK IN/OUT. */
 604:Generated_Source\PSoC5/USBUART.c ****     USBUART_EP0_CR_REG = USBUART_MODE_NAK_IN_OUT;
 605:Generated_Source\PSoC5/USBUART.c **** 
 606:Generated_Source\PSoC5/USBUART.c ****     #if (USBUART_LPM_ACTIVE)
 607:Generated_Source\PSoC5/USBUART.c ****         if (NULL != USBUART_GetBOSPtr())
 608:Generated_Source\PSoC5/USBUART.c ****         {
 609:Generated_Source\PSoC5/USBUART.c ****             /* Enable LPM and acknowledge LPM packets for active device.
 610:Generated_Source\PSoC5/USBUART.c ****             * Reset NYET_EN and SUB_RESP bits in the LPM_CTRL register.
 611:Generated_Source\PSoC5/USBUART.c ****             */
 612:Generated_Source\PSoC5/USBUART.c ****             USBUART_LPM_CTRL_REG = (USBUART_LPM_CTRL_LPM_EN | \
 613:Generated_Source\PSoC5/USBUART.c ****                                              USBUART_LPM_CTRL_LPM_ACK_RESP);
 614:Generated_Source\PSoC5/USBUART.c ****         }
 615:Generated_Source\PSoC5/USBUART.c ****         else
 616:Generated_Source\PSoC5/USBUART.c ****         {
 617:Generated_Source\PSoC5/USBUART.c ****             /* Disable LPM for active device. */
 618:Generated_Source\PSoC5/USBUART.c ****             USBUART_LPM_CTRL_REG &= (uint32) ~USBUART_LPM_CTRL_LPM_EN;
 619:Generated_Source\PSoC5/USBUART.c ****         }
ARM GAS  C:\Users\ingan\AppData\Local\Temp\ccMtFi7x.s 			page 18


 620:Generated_Source\PSoC5/USBUART.c ****     #endif /* (USBUART_LPM_ACTIVE) */
 621:Generated_Source\PSoC5/USBUART.c **** 
 622:Generated_Source\PSoC5/USBUART.c ****     /* Enable device to responds to USB traffic with address 0. */
 623:Generated_Source\PSoC5/USBUART.c ****     USBUART_CR0_REG = USBUART_DEFUALT_CR0;
 624:Generated_Source\PSoC5/USBUART.c **** 
 625:Generated_Source\PSoC5/USBUART.c **** #else
 626:Generated_Source\PSoC5/USBUART.c ****     /* Set EP0.CR: ACK Setup, STALL IN/OUT. */
 627:Generated_Source\PSoC5/USBUART.c ****     USBUART_EP0_CR_REG = USBUART_MODE_STALL_IN_OUT;
 349              		.loc 1 627 0
 350 0080 0322     		movs	r2, #3
 351 0082 124B     		ldr	r3, .L14+48
 352 0084 1A70     		strb	r2, [r3]
 628:Generated_Source\PSoC5/USBUART.c **** 
 629:Generated_Source\PSoC5/USBUART.c ****     /* Enable device to respond to USB traffic with address 0. */
 630:Generated_Source\PSoC5/USBUART.c ****     USBUART_CR0_REG = USBUART_DEFUALT_CR0;
 353              		.loc 1 630 0
 354 0086 8022     		movs	r2, #128
 355 0088 203B     		subs	r3, r3, #32
 356 008a 1A70     		strb	r2, [r3]
 631:Generated_Source\PSoC5/USBUART.c ****     CyDelayCycles(USBUART_WAIT_CR0_REG_STABILITY);
 357              		.loc 1 631 0
 358 008c 0120     		movs	r0, #1
 359 008e FFF7FEFF 		bl	CyDelayCycles
 360              	.LVL30:
 632:Generated_Source\PSoC5/USBUART.c **** #endif /* (CY_PSOC4) */
 633:Generated_Source\PSoC5/USBUART.c **** 
 634:Generated_Source\PSoC5/USBUART.c ****     /* Enable D+ pull-up and keep USB control on IO. */
 635:Generated_Source\PSoC5/USBUART.c ****     USBUART_USBIO_CR1_REG = USBUART_USBIO_CR1_USBPUEN;
 361              		.loc 1 635 0
 362 0092 0422     		movs	r2, #4
 363 0094 0E4B     		ldr	r3, .L14+52
 364 0096 1A70     		strb	r2, [r3]
 365 0098 08BD     		pop	{r3, pc}
 366              	.L15:
 367 009a 00BF     		.align	2
 368              	.L14:
 369 009c 00000000 		.word	USBUART_device
 370 00a0 00000000 		.word	USBUART_transferState
 371 00a4 00000000 		.word	USBUART_configurationChanged
 372 00a8 00000000 		.word	USBUART_configuration
 373 00ac 00000000 		.word	USBUART_interfaceNumber
 374 00b0 00000000 		.word	USBUART_deviceAddress
 375 00b4 00000000 		.word	USBUART_deviceStatus
 376 00b8 00000000 		.word	USBUART_lastPacketSize
 377 00bc 00E100E0 		.word	-536813312
 378 00c0 9E600040 		.word	1073766558
 379 00c4 9C600040 		.word	1073766556
 380 00c8 09600040 		.word	1073766409
 381 00cc 28600040 		.word	1073766440
 382 00d0 12600040 		.word	1073766418
 383              		.cfi_endproc
 384              	.LFE2:
 385              		.size	USBUART_InitComponent, .-USBUART_InitComponent
 386              		.section	.text.USBUART_Start,"ax",%progbits
 387              		.align	2
 388              		.global	USBUART_Start
 389              		.thumb
ARM GAS  C:\Users\ingan\AppData\Local\Temp\ccMtFi7x.s 			page 19


 390              		.thumb_func
 391              		.type	USBUART_Start, %function
 392              	USBUART_Start:
 393              	.LFB0:
 187:Generated_Source\PSoC5/USBUART.c ****     if (0u == USBUART_initVar)
 394              		.loc 1 187 0
 395              		.cfi_startproc
 396              		@ args = 0, pretend = 0, frame = 0
 397              		@ frame_needed = 0, uses_anonymous_args = 0
 398              	.LVL31:
 399 0000 38B5     		push	{r3, r4, r5, lr}
 400              		.cfi_def_cfa_offset 16
 401              		.cfi_offset 3, -16
 402              		.cfi_offset 4, -12
 403              		.cfi_offset 5, -8
 404              		.cfi_offset 14, -4
 405 0002 0446     		mov	r4, r0
 406 0004 0D46     		mov	r5, r1
 188:Generated_Source\PSoC5/USBUART.c ****     {
 407              		.loc 1 188 0
 408 0006 064B     		ldr	r3, .L19
 409 0008 1B78     		ldrb	r3, [r3]	@ zero_extendqisi2
 410 000a 23B9     		cbnz	r3, .L17
 190:Generated_Source\PSoC5/USBUART.c ****         USBUART_initVar = 1u;
 411              		.loc 1 190 0
 412 000c FFF7FEFF 		bl	USBUART_Init
 413              	.LVL32:
 191:Generated_Source\PSoC5/USBUART.c ****     }
 414              		.loc 1 191 0
 415 0010 0122     		movs	r2, #1
 416 0012 034B     		ldr	r3, .L19
 417 0014 1A70     		strb	r2, [r3]
 418              	.L17:
 194:Generated_Source\PSoC5/USBUART.c **** }
 419              		.loc 1 194 0
 420 0016 2946     		mov	r1, r5
 421 0018 2046     		mov	r0, r4
 422 001a FFF7FEFF 		bl	USBUART_InitComponent
 423              	.LVL33:
 424 001e 38BD     		pop	{r3, r4, r5, pc}
 425              	.L20:
 426              		.align	2
 427              	.L19:
 428 0020 00000000 		.word	.LANCHOR0
 429              		.cfi_endproc
 430              	.LFE0:
 431              		.size	USBUART_Start, .-USBUART_Start
 432              		.section	.text.USBUART_ReInitComponent,"ax",%progbits
 433              		.align	2
 434              		.global	USBUART_ReInitComponent
 435              		.thumb
 436              		.thumb_func
 437              		.type	USBUART_ReInitComponent, %function
 438              	USBUART_ReInitComponent:
 439              	.LFB3:
 636:Generated_Source\PSoC5/USBUART.c **** }
 637:Generated_Source\PSoC5/USBUART.c **** 
ARM GAS  C:\Users\ingan\AppData\Local\Temp\ccMtFi7x.s 			page 20


 638:Generated_Source\PSoC5/USBUART.c **** 
 639:Generated_Source\PSoC5/USBUART.c **** /*******************************************************************************
 640:Generated_Source\PSoC5/USBUART.c **** * Function Name: USBUART_ReInitComponent
 641:Generated_Source\PSoC5/USBUART.c **** ****************************************************************************//**
 642:Generated_Source\PSoC5/USBUART.c **** *
 643:Generated_Source\PSoC5/USBUART.c **** *  This function reinitialize the component configuration and is
 644:Generated_Source\PSoC5/USBUART.c **** *  intend to be called from the Reset interrupt.
 645:Generated_Source\PSoC5/USBUART.c **** *
 646:Generated_Source\PSoC5/USBUART.c **** * \globalvars
 647:Generated_Source\PSoC5/USBUART.c **** *   USBUART_device - Contains the device number of the desired Device
 648:Generated_Source\PSoC5/USBUART.c **** *        Descriptor. The device number can be found in the Device Descriptor tab
 649:Generated_Source\PSoC5/USBUART.c **** *       of the Configure dialog, under the settings of the desired Device Descriptor,
 650:Generated_Source\PSoC5/USBUART.c **** *       in the Device Number field.
 651:Generated_Source\PSoC5/USBUART.c **** *   USBUART_transferState - This variable is used by the communication
 652:Generated_Source\PSoC5/USBUART.c **** *       functions to handle the current transfer state. Initialized to
 653:Generated_Source\PSoC5/USBUART.c **** *       TRANS_STATE_IDLE in this API.
 654:Generated_Source\PSoC5/USBUART.c **** *   USBUART_configuration - Contains the current configuration number
 655:Generated_Source\PSoC5/USBUART.c **** *       set by the Host using a SET_CONFIGURATION request.
 656:Generated_Source\PSoC5/USBUART.c **** *       Initialized to zero in this API.
 657:Generated_Source\PSoC5/USBUART.c **** *   USBUART_deviceAddress - Contains the current device address. This
 658:Generated_Source\PSoC5/USBUART.c **** *       variable is initialized to zero in this API. The Host starts to communicate
 659:Generated_Source\PSoC5/USBUART.c **** *      to the device with address 0 and then sets it to a whatever value using
 660:Generated_Source\PSoC5/USBUART.c **** *      a SET_ADDRESS request.
 661:Generated_Source\PSoC5/USBUART.c **** *   USBUART_deviceStatus - Initialized to 0.
 662:Generated_Source\PSoC5/USBUART.c **** *       This is a two-bit variable which contains the power status in the first bit
 663:Generated_Source\PSoC5/USBUART.c **** *       (DEVICE_STATUS_BUS_POWERED or DEVICE_STATUS_SELF_POWERED) and the remote
 664:Generated_Source\PSoC5/USBUART.c **** *       wakeup status (DEVICE_STATUS_REMOTE_WAKEUP) in the second bit.
 665:Generated_Source\PSoC5/USBUART.c **** *   USBUART_lastPacketSize - Initialized to 0;
 666:Generated_Source\PSoC5/USBUART.c **** *
 667:Generated_Source\PSoC5/USBUART.c **** * \reentrant
 668:Generated_Source\PSoC5/USBUART.c **** *  No.
 669:Generated_Source\PSoC5/USBUART.c **** *
 670:Generated_Source\PSoC5/USBUART.c **** *******************************************************************************/
 671:Generated_Source\PSoC5/USBUART.c **** void USBUART_ReInitComponent(void) 
 672:Generated_Source\PSoC5/USBUART.c **** {
 440              		.loc 1 672 0
 441              		.cfi_startproc
 442              		@ args = 0, pretend = 0, frame = 0
 443              		@ frame_needed = 0, uses_anonymous_args = 0
 444              		@ link register save eliminated.
 673:Generated_Source\PSoC5/USBUART.c ****     /* Initialize _hidProtocol variable to comply with HID 7.2.6 Set_Protocol
 674:Generated_Source\PSoC5/USBUART.c ****     *  Request: "When initialized, all devices default to report protocol."
 675:Generated_Source\PSoC5/USBUART.c ****     */
 676:Generated_Source\PSoC5/USBUART.c **** #if defined(USBUART_ENABLE_HID_CLASS)
 677:Generated_Source\PSoC5/USBUART.c ****     uint8 i;
 678:Generated_Source\PSoC5/USBUART.c **** 
 679:Generated_Source\PSoC5/USBUART.c ****     for (i = 0u; i < USBUART_MAX_INTERFACES_NUMBER; i++)
 680:Generated_Source\PSoC5/USBUART.c ****     {
 681:Generated_Source\PSoC5/USBUART.c ****         USBUART_hidProtocol[i] = USBUART_PROTOCOL_REPORT;
 682:Generated_Source\PSoC5/USBUART.c ****     }
 683:Generated_Source\PSoC5/USBUART.c **** #endif /* USBUART_ENABLE_HID_CLASS */
 684:Generated_Source\PSoC5/USBUART.c **** 
 685:Generated_Source\PSoC5/USBUART.c ****     /* Reset component internal variables. */
 686:Generated_Source\PSoC5/USBUART.c ****     USBUART_transferState   = USBUART_TRANS_STATE_IDLE;
 445              		.loc 1 686 0
 446 0000 0023     		movs	r3, #0
 447 0002 0A4A     		ldr	r2, .L22
ARM GAS  C:\Users\ingan\AppData\Local\Temp\ccMtFi7x.s 			page 21


 448 0004 1370     		strb	r3, [r2]
 687:Generated_Source\PSoC5/USBUART.c ****     USBUART_configurationChanged = 0u;
 449              		.loc 1 687 0
 450 0006 0A4A     		ldr	r2, .L22+4
 451 0008 1370     		strb	r3, [r2]
 688:Generated_Source\PSoC5/USBUART.c ****     USBUART_configuration   = 0u;
 452              		.loc 1 688 0
 453 000a 0A4A     		ldr	r2, .L22+8
 454 000c 1370     		strb	r3, [r2]
 689:Generated_Source\PSoC5/USBUART.c ****     USBUART_interfaceNumber = 0u;
 455              		.loc 1 689 0
 456 000e 0A4A     		ldr	r2, .L22+12
 457 0010 1370     		strb	r3, [r2]
 690:Generated_Source\PSoC5/USBUART.c ****     USBUART_deviceAddress   = 0u;
 458              		.loc 1 690 0
 459 0012 0A4A     		ldr	r2, .L22+16
 460 0014 1370     		strb	r3, [r2]
 691:Generated_Source\PSoC5/USBUART.c ****     USBUART_deviceStatus    = 0u;
 461              		.loc 1 691 0
 462 0016 0A4A     		ldr	r2, .L22+20
 463 0018 1370     		strb	r3, [r2]
 692:Generated_Source\PSoC5/USBUART.c ****     USBUART_lastPacketSize  = 0u;
 464              		.loc 1 692 0
 465 001a 0A4A     		ldr	r2, .L22+24
 466 001c 1370     		strb	r3, [r2]
 693:Generated_Source\PSoC5/USBUART.c **** 
 694:Generated_Source\PSoC5/USBUART.c **** #if (CY_PSOC4)
 695:Generated_Source\PSoC5/USBUART.c ****     /* Set EP0.CR: ACK Setup, NAK IN/OUT. */
 696:Generated_Source\PSoC5/USBUART.c ****     USBUART_EP0_CR_REG = USBUART_MODE_NAK_IN_OUT;
 697:Generated_Source\PSoC5/USBUART.c **** #else
 698:Generated_Source\PSoC5/USBUART.c ****     /* Set EP0.CR: ACK Setup, STALL IN/OUT. */
 699:Generated_Source\PSoC5/USBUART.c ****     USBUART_EP0_CR_REG = USBUART_MODE_STALL_IN_OUT;
 467              		.loc 1 699 0
 468 001e 0322     		movs	r2, #3
 469 0020 094B     		ldr	r3, .L22+28
 470 0022 1A70     		strb	r2, [r3]
 700:Generated_Source\PSoC5/USBUART.c **** #endif /* (CY_PSOC4) */
 701:Generated_Source\PSoC5/USBUART.c **** 
 702:Generated_Source\PSoC5/USBUART.c ****     /* Enable device to respond to USB traffic with address 0. */
 703:Generated_Source\PSoC5/USBUART.c ****     USBUART_CR0_REG = USBUART_DEFUALT_CR0;
 471              		.loc 1 703 0
 472 0024 8022     		movs	r2, #128
 473 0026 203B     		subs	r3, r3, #32
 474 0028 1A70     		strb	r2, [r3]
 475 002a 7047     		bx	lr
 476              	.L23:
 477              		.align	2
 478              	.L22:
 479 002c 00000000 		.word	USBUART_transferState
 480 0030 00000000 		.word	USBUART_configurationChanged
 481 0034 00000000 		.word	USBUART_configuration
 482 0038 00000000 		.word	USBUART_interfaceNumber
 483 003c 00000000 		.word	USBUART_deviceAddress
 484 0040 00000000 		.word	USBUART_deviceStatus
 485 0044 00000000 		.word	USBUART_lastPacketSize
 486 0048 28600040 		.word	1073766440
 487              		.cfi_endproc
ARM GAS  C:\Users\ingan\AppData\Local\Temp\ccMtFi7x.s 			page 22


 488              	.LFE3:
 489              		.size	USBUART_ReInitComponent, .-USBUART_ReInitComponent
 490              		.section	.text.USBUART_CheckActivity,"ax",%progbits
 491              		.align	2
 492              		.global	USBUART_CheckActivity
 493              		.thumb
 494              		.thumb_func
 495              		.type	USBUART_CheckActivity, %function
 496              	USBUART_CheckActivity:
 497              	.LFB5:
 704:Generated_Source\PSoC5/USBUART.c **** }
 705:Generated_Source\PSoC5/USBUART.c **** 
 706:Generated_Source\PSoC5/USBUART.c **** 
 707:Generated_Source\PSoC5/USBUART.c **** /*******************************************************************************
 708:Generated_Source\PSoC5/USBUART.c **** * Function Name: USBUART_Stop
 709:Generated_Source\PSoC5/USBUART.c **** ****************************************************************************//**
 710:Generated_Source\PSoC5/USBUART.c **** *
 711:Generated_Source\PSoC5/USBUART.c **** *  This function shuts down the USB function including to release
 712:Generated_Source\PSoC5/USBUART.c **** *  the D+ pull-up and disabling the SIE.
 713:Generated_Source\PSoC5/USBUART.c **** *
 714:Generated_Source\PSoC5/USBUART.c **** * \globalvars
 715:Generated_Source\PSoC5/USBUART.c **** *   \ref USBUART_configuration
 716:Generated_Source\PSoC5/USBUART.c **** *
 717:Generated_Source\PSoC5/USBUART.c **** *   USBUART_deviceAddress - Contains the current device address. This
 718:Generated_Source\PSoC5/USBUART.c **** *       variable is initialized to zero in this API. The Host starts to communicate
 719:Generated_Source\PSoC5/USBUART.c **** *      to the device with address 0 and then sets it to a whatever value using
 720:Generated_Source\PSoC5/USBUART.c **** *      a SET_ADDRESS request.
 721:Generated_Source\PSoC5/USBUART.c **** *
 722:Generated_Source\PSoC5/USBUART.c **** *   \ref USBUART_deviceStatus
 723:Generated_Source\PSoC5/USBUART.c **** *
 724:Generated_Source\PSoC5/USBUART.c **** *   \ref USBUART_configurationChanged
 725:Generated_Source\PSoC5/USBUART.c **** *
 726:Generated_Source\PSoC5/USBUART.c **** *   USBUART_intiVar -  This variable is set to zero
 727:Generated_Source\PSoC5/USBUART.c **** *
 728:Generated_Source\PSoC5/USBUART.c **** *******************************************************************************/
 729:Generated_Source\PSoC5/USBUART.c **** void USBUART_Stop(void) 
 730:Generated_Source\PSoC5/USBUART.c **** {
 731:Generated_Source\PSoC5/USBUART.c ****     uint8 enableInterrupts;
 732:Generated_Source\PSoC5/USBUART.c **** 
 733:Generated_Source\PSoC5/USBUART.c **** #if (USBUART_EP_MANAGEMENT_DMA)
 734:Generated_Source\PSoC5/USBUART.c ****     /* Stop all DMA channels. */
 735:Generated_Source\PSoC5/USBUART.c ****     USBUART_Stop_DMA(USBUART_MAX_EP);
 736:Generated_Source\PSoC5/USBUART.c **** #endif /* (USBUART_EP_MANAGEMENT_DMA) */
 737:Generated_Source\PSoC5/USBUART.c **** 
 738:Generated_Source\PSoC5/USBUART.c ****     enableInterrupts = CyEnterCriticalSection();
 739:Generated_Source\PSoC5/USBUART.c **** 
 740:Generated_Source\PSoC5/USBUART.c ****     /* Disable USB IP to respond to USB traffic. */
 741:Generated_Source\PSoC5/USBUART.c ****     USBUART_CR0_REG &= (uint8) ~USBUART_CR0_ENABLE;
 742:Generated_Source\PSoC5/USBUART.c **** 
 743:Generated_Source\PSoC5/USBUART.c ****     /* Disable D+ pull-up. */
 744:Generated_Source\PSoC5/USBUART.c ****     USBUART_USBIO_CR1_REG &= (uint8) ~ USBUART_USBIO_CR1_USBPUEN;
 745:Generated_Source\PSoC5/USBUART.c **** 
 746:Generated_Source\PSoC5/USBUART.c **** #if (CY_PSOC4)
 747:Generated_Source\PSoC5/USBUART.c ****     /* Disable USBFS block. */
 748:Generated_Source\PSoC5/USBUART.c ****     USBUART_POWER_CTRL_REG &= (uint32) ~USBUART_POWER_CTRL_ENABLE;
 749:Generated_Source\PSoC5/USBUART.c **** #else
 750:Generated_Source\PSoC5/USBUART.c ****     /* Clear power active and standby mode templates. */
ARM GAS  C:\Users\ingan\AppData\Local\Temp\ccMtFi7x.s 			page 23


 751:Generated_Source\PSoC5/USBUART.c ****     USBUART_PM_ACT_CFG_REG  &= (uint8) ~USBUART_PM_ACT_EN_FSUSB;
 752:Generated_Source\PSoC5/USBUART.c ****     USBUART_PM_STBY_CFG_REG &= (uint8) ~USBUART_PM_STBY_EN_FSUSB;
 753:Generated_Source\PSoC5/USBUART.c **** 
 754:Generated_Source\PSoC5/USBUART.c ****     /* Ensure single-ended disable bits are high (PRT15.INP_DIS[7:6])
 755:Generated_Source\PSoC5/USBUART.c ****      * (input receiver disabled). */
 756:Generated_Source\PSoC5/USBUART.c ****     USBUART_DM_INP_DIS_REG |= (uint8) USBUART_DM_MASK;
 757:Generated_Source\PSoC5/USBUART.c ****     USBUART_DP_INP_DIS_REG |= (uint8) USBUART_DP_MASK;
 758:Generated_Source\PSoC5/USBUART.c **** 
 759:Generated_Source\PSoC5/USBUART.c **** #endif /* (CY_PSOC4) */
 760:Generated_Source\PSoC5/USBUART.c **** 
 761:Generated_Source\PSoC5/USBUART.c ****     CyExitCriticalSection(enableInterrupts);
 762:Generated_Source\PSoC5/USBUART.c **** 
 763:Generated_Source\PSoC5/USBUART.c ****     /* Disable component interrupts. */
 764:Generated_Source\PSoC5/USBUART.c **** #if (CY_PSOC4)
 765:Generated_Source\PSoC5/USBUART.c ****     CyIntDisable(USBUART_INTR_HI_VECT_NUM);
 766:Generated_Source\PSoC5/USBUART.c ****     CyIntDisable(USBUART_INTR_LO_VECT_NUM);
 767:Generated_Source\PSoC5/USBUART.c ****     CyIntDisable(USBUART_INTR_MED_VECT_NUM);
 768:Generated_Source\PSoC5/USBUART.c **** #else
 769:Generated_Source\PSoC5/USBUART.c **** 
 770:Generated_Source\PSoC5/USBUART.c ****     CyIntDisable(USBUART_BUS_RESET_VECT_NUM);
 771:Generated_Source\PSoC5/USBUART.c ****     CyIntDisable(USBUART_EP_0_VECT_NUM);
 772:Generated_Source\PSoC5/USBUART.c **** 
 773:Generated_Source\PSoC5/USBUART.c ****     #if (USBUART_SOF_ISR_ACTIVE)
 774:Generated_Source\PSoC5/USBUART.c ****         CyIntDisable(USBUART_SOF_VECT_NUM);
 775:Generated_Source\PSoC5/USBUART.c ****     #endif /* (USBUART_SOF_ISR_ACTIVE) */
 776:Generated_Source\PSoC5/USBUART.c **** 
 777:Generated_Source\PSoC5/USBUART.c ****     #if (USBUART_EP1_ISR_ACTIVE)
 778:Generated_Source\PSoC5/USBUART.c ****         CyIntDisable(USBUART_EP_1_VECT_NUM);
 779:Generated_Source\PSoC5/USBUART.c ****     #endif /* (USBUART_EP1_ISR_ACTIVE) */
 780:Generated_Source\PSoC5/USBUART.c **** 
 781:Generated_Source\PSoC5/USBUART.c ****     #if (USBUART_EP2_ISR_ACTIVE)
 782:Generated_Source\PSoC5/USBUART.c ****         CyIntDisable(USBUART_EP_2_VECT_NUM);
 783:Generated_Source\PSoC5/USBUART.c ****     #endif /* (USBUART_EP2_ISR_ACTIVE) */
 784:Generated_Source\PSoC5/USBUART.c **** 
 785:Generated_Source\PSoC5/USBUART.c ****     #if (USBUART_EP3_ISR_ACTIVE)
 786:Generated_Source\PSoC5/USBUART.c ****         CyIntDisable(USBUART_EP_3_VECT_NUM);
 787:Generated_Source\PSoC5/USBUART.c ****     #endif /* (USBUART_EP3_ISR_ACTIVE) */
 788:Generated_Source\PSoC5/USBUART.c **** 
 789:Generated_Source\PSoC5/USBUART.c ****     #if (USBUART_EP4_ISR_ACTIVE)
 790:Generated_Source\PSoC5/USBUART.c ****         CyIntDisable(USBUART_EP_4_VECT_NUM);
 791:Generated_Source\PSoC5/USBUART.c ****     #endif /* (USBUART_EP4_ISR_ACTIVE) */
 792:Generated_Source\PSoC5/USBUART.c **** 
 793:Generated_Source\PSoC5/USBUART.c ****     #if (USBUART_EP5_ISR_ACTIVE)
 794:Generated_Source\PSoC5/USBUART.c ****         CyIntDisable(USBUART_EP_5_VECT_NUM);
 795:Generated_Source\PSoC5/USBUART.c ****     #endif /* (USBUART_EP5_ISR_ACTIVE) */
 796:Generated_Source\PSoC5/USBUART.c **** 
 797:Generated_Source\PSoC5/USBUART.c ****     #if (USBUART_EP6_ISR_ACTIVE)
 798:Generated_Source\PSoC5/USBUART.c ****         CyIntDisable(USBUART_EP_6_VECT_NUM);
 799:Generated_Source\PSoC5/USBUART.c ****     #endif /* USBUART_EP6_ISR_REMOVE */
 800:Generated_Source\PSoC5/USBUART.c **** 
 801:Generated_Source\PSoC5/USBUART.c ****     #if (USBUART_EP7_ISR_ACTIVE)
 802:Generated_Source\PSoC5/USBUART.c ****         CyIntDisable(USBUART_EP_7_VECT_NUM);
 803:Generated_Source\PSoC5/USBUART.c ****     #endif /* (USBUART_EP7_ISR_ACTIVE) */
 804:Generated_Source\PSoC5/USBUART.c **** 
 805:Generated_Source\PSoC5/USBUART.c ****     #if (USBUART_EP8_ISR_ACTIVE)
 806:Generated_Source\PSoC5/USBUART.c ****         CyIntDisable(USBUART_EP_8_VECT_NUM);
 807:Generated_Source\PSoC5/USBUART.c ****     #endif /* (USBUART_EP8_ISR_ACTIVE) */
ARM GAS  C:\Users\ingan\AppData\Local\Temp\ccMtFi7x.s 			page 24


 808:Generated_Source\PSoC5/USBUART.c **** 
 809:Generated_Source\PSoC5/USBUART.c ****     #if (USBUART_DP_ISR_ACTIVE)
 810:Generated_Source\PSoC5/USBUART.c ****         /* Clear active mode Dp interrupt source history. */
 811:Generated_Source\PSoC5/USBUART.c ****         (void) USBUART_Dp_ClearInterrupt();
 812:Generated_Source\PSoC5/USBUART.c ****         CyIntClearPending(USBUART_DP_INTC_VECT_NUM);
 813:Generated_Source\PSoC5/USBUART.c ****     #endif /* (USBUART_DP_ISR_ACTIVE). */
 814:Generated_Source\PSoC5/USBUART.c **** 
 815:Generated_Source\PSoC5/USBUART.c **** #endif /* (CY_PSOC4) */
 816:Generated_Source\PSoC5/USBUART.c **** 
 817:Generated_Source\PSoC5/USBUART.c ****     /* Reset component internal variables. */
 818:Generated_Source\PSoC5/USBUART.c ****     USBUART_configurationChanged = 0u;
 819:Generated_Source\PSoC5/USBUART.c ****     USBUART_configuration   = 0u;
 820:Generated_Source\PSoC5/USBUART.c ****     USBUART_interfaceNumber = 0u;
 821:Generated_Source\PSoC5/USBUART.c ****     USBUART_deviceAddress   = 0u;
 822:Generated_Source\PSoC5/USBUART.c ****     USBUART_deviceStatus    = 0u;
 823:Generated_Source\PSoC5/USBUART.c **** 
 824:Generated_Source\PSoC5/USBUART.c ****     /* It is mandatory for correct device startup. */
 825:Generated_Source\PSoC5/USBUART.c ****     USBUART_initVar = 0u;
 826:Generated_Source\PSoC5/USBUART.c **** }
 827:Generated_Source\PSoC5/USBUART.c **** 
 828:Generated_Source\PSoC5/USBUART.c **** 
 829:Generated_Source\PSoC5/USBUART.c **** /*******************************************************************************
 830:Generated_Source\PSoC5/USBUART.c **** * Function Name: USBUART_CheckActivity
 831:Generated_Source\PSoC5/USBUART.c **** ****************************************************************************//**
 832:Generated_Source\PSoC5/USBUART.c **** *
 833:Generated_Source\PSoC5/USBUART.c **** *  This function returns the activity status of the bus. It clears the hardware
 834:Generated_Source\PSoC5/USBUART.c **** *  status to provide updated status on the next call of this function. It
 835:Generated_Source\PSoC5/USBUART.c **** *  provides a way to determine whether any USB bus activity occurred. The
 836:Generated_Source\PSoC5/USBUART.c **** *  application should use this function to determine if the USB suspend
 837:Generated_Source\PSoC5/USBUART.c **** *  conditions are met.
 838:Generated_Source\PSoC5/USBUART.c **** *
 839:Generated_Source\PSoC5/USBUART.c **** *
 840:Generated_Source\PSoC5/USBUART.c **** * \return
 841:Generated_Source\PSoC5/USBUART.c **** *  cystatus: Status of the bus since the last call of the function.
 842:Generated_Source\PSoC5/USBUART.c **** *  Return Value |   Description
 843:Generated_Source\PSoC5/USBUART.c **** *  -------------|---------------------------------------------------------------
 844:Generated_Source\PSoC5/USBUART.c **** *  1            |Bus activity was detected since the last call to this function
 845:Generated_Source\PSoC5/USBUART.c **** *  0            |Bus activity was not detected since the last call to this function
 846:Generated_Source\PSoC5/USBUART.c **** *
 847:Generated_Source\PSoC5/USBUART.c **** *
 848:Generated_Source\PSoC5/USBUART.c **** *******************************************************************************/
 849:Generated_Source\PSoC5/USBUART.c **** uint8 USBUART_CheckActivity(void) 
 850:Generated_Source\PSoC5/USBUART.c **** {
 498              		.loc 1 850 0
 499              		.cfi_startproc
 500              		@ args = 0, pretend = 0, frame = 0
 501              		@ frame_needed = 0, uses_anonymous_args = 0
 502              		@ link register save eliminated.
 851:Generated_Source\PSoC5/USBUART.c ****     uint8 cr1Reg = USBUART_CR1_REG;
 503              		.loc 1 851 0
 504 0000 064A     		ldr	r2, .L26
 505 0002 1378     		ldrb	r3, [r2]	@ zero_extendqisi2
 506 0004 DBB2     		uxtb	r3, r3
 507              	.LVL34:
 852:Generated_Source\PSoC5/USBUART.c **** 
 853:Generated_Source\PSoC5/USBUART.c ****     /* Clear bus activity. */
 854:Generated_Source\PSoC5/USBUART.c ****     USBUART_CR1_REG = (cr1Reg & (uint8) ~USBUART_CR1_BUS_ACTIVITY);
ARM GAS  C:\Users\ingan\AppData\Local\Temp\ccMtFi7x.s 			page 25


 508              		.loc 1 854 0
 509 0006 03F0FB01 		and	r1, r3, #251
 510 000a 1170     		strb	r1, [r2]
 511 000c 03F00403 		and	r3, r3, #4
 512              	.LVL35:
 855:Generated_Source\PSoC5/USBUART.c **** 
 856:Generated_Source\PSoC5/USBUART.c ****     /* Get bus activity. */
 857:Generated_Source\PSoC5/USBUART.c ****     return ((0u != (cr1Reg & USBUART_CR1_BUS_ACTIVITY)) ? (1u) : (0u));
 513              		.loc 1 857 0
 514 0010 03F0FF00 		and	r0, r3, #255
 515 0014 03B1     		cbz	r3, .L25
 516 0016 0120     		movs	r0, #1
 517              	.L25:
 858:Generated_Source\PSoC5/USBUART.c **** }
 518              		.loc 1 858 0 discriminator 4
 519 0018 7047     		bx	lr
 520              	.L27:
 521 001a 00BF     		.align	2
 522              	.L26:
 523 001c 09600040 		.word	1073766409
 524              		.cfi_endproc
 525              	.LFE5:
 526              		.size	USBUART_CheckActivity, .-USBUART_CheckActivity
 527              		.section	.text.USBUART_GetConfiguration,"ax",%progbits
 528              		.align	2
 529              		.global	USBUART_GetConfiguration
 530              		.thumb
 531              		.thumb_func
 532              		.type	USBUART_GetConfiguration, %function
 533              	USBUART_GetConfiguration:
 534              	.LFB6:
 859:Generated_Source\PSoC5/USBUART.c **** 
 860:Generated_Source\PSoC5/USBUART.c **** 
 861:Generated_Source\PSoC5/USBUART.c **** /*******************************************************************************
 862:Generated_Source\PSoC5/USBUART.c **** * Function Name: USBUART_GetConfiguration
 863:Generated_Source\PSoC5/USBUART.c **** ****************************************************************************//**
 864:Generated_Source\PSoC5/USBUART.c **** *
 865:Generated_Source\PSoC5/USBUART.c **** *  This function gets the current configuration of the USB device.
 866:Generated_Source\PSoC5/USBUART.c **** *
 867:Generated_Source\PSoC5/USBUART.c **** * \return
 868:Generated_Source\PSoC5/USBUART.c **** *  Returns the currently assigned configuration. Returns 0 if the device
 869:Generated_Source\PSoC5/USBUART.c **** *  is not configured
 870:Generated_Source\PSoC5/USBUART.c **** *
 871:Generated_Source\PSoC5/USBUART.c **** *******************************************************************************/
 872:Generated_Source\PSoC5/USBUART.c **** uint8 USBUART_GetConfiguration(void) 
 873:Generated_Source\PSoC5/USBUART.c **** {
 535              		.loc 1 873 0
 536              		.cfi_startproc
 537              		@ args = 0, pretend = 0, frame = 0
 538              		@ frame_needed = 0, uses_anonymous_args = 0
 539              		@ link register save eliminated.
 874:Generated_Source\PSoC5/USBUART.c ****     return (USBUART_configuration);
 540              		.loc 1 874 0
 541 0000 014B     		ldr	r3, .L29
 542 0002 1878     		ldrb	r0, [r3]	@ zero_extendqisi2
 875:Generated_Source\PSoC5/USBUART.c **** }
 543              		.loc 1 875 0
ARM GAS  C:\Users\ingan\AppData\Local\Temp\ccMtFi7x.s 			page 26


 544 0004 7047     		bx	lr
 545              	.L30:
 546 0006 00BF     		.align	2
 547              	.L29:
 548 0008 00000000 		.word	USBUART_configuration
 549              		.cfi_endproc
 550              	.LFE6:
 551              		.size	USBUART_GetConfiguration, .-USBUART_GetConfiguration
 552              		.section	.text.USBUART_IsConfigurationChanged,"ax",%progbits
 553              		.align	2
 554              		.global	USBUART_IsConfigurationChanged
 555              		.thumb
 556              		.thumb_func
 557              		.type	USBUART_IsConfigurationChanged, %function
 558              	USBUART_IsConfigurationChanged:
 559              	.LFB7:
 876:Generated_Source\PSoC5/USBUART.c **** 
 877:Generated_Source\PSoC5/USBUART.c **** 
 878:Generated_Source\PSoC5/USBUART.c **** /*******************************************************************************
 879:Generated_Source\PSoC5/USBUART.c **** * Function Name: USBUART_IsConfigurationChanged
 880:Generated_Source\PSoC5/USBUART.c **** ****************************************************************************//**
 881:Generated_Source\PSoC5/USBUART.c **** *
 882:Generated_Source\PSoC5/USBUART.c **** *  This function returns the clear-on-read configuration state.  It is useful
 883:Generated_Source\PSoC5/USBUART.c **** *  when the host sends double SET_CONFIGURATION request with the same 
 884:Generated_Source\PSoC5/USBUART.c **** *  configuration number or changes alternate settings of the interface. 
 885:Generated_Source\PSoC5/USBUART.c **** *  After configuration has been changed the OUT endpoints must be enabled and IN 
 886:Generated_Source\PSoC5/USBUART.c **** *  endpoint must be loaded with data to start communication with the host.
 887:Generated_Source\PSoC5/USBUART.c **** *
 888:Generated_Source\PSoC5/USBUART.c **** * \return
 889:Generated_Source\PSoC5/USBUART.c **** *  None-zero value when new configuration has been changed, otherwise zero is
 890:Generated_Source\PSoC5/USBUART.c **** *  returned.
 891:Generated_Source\PSoC5/USBUART.c **** *
 892:Generated_Source\PSoC5/USBUART.c **** * \globalvars
 893:Generated_Source\PSoC5/USBUART.c **** *
 894:Generated_Source\PSoC5/USBUART.c **** *  \ref USBUART_configurationChanged - This variable is set to 1 after
 895:Generated_Source\PSoC5/USBUART.c **** *   a SET_CONFIGURATION request and cleared in this function.
 896:Generated_Source\PSoC5/USBUART.c **** *
 897:Generated_Source\PSoC5/USBUART.c **** *******************************************************************************/
 898:Generated_Source\PSoC5/USBUART.c **** uint8 USBUART_IsConfigurationChanged(void) 
 899:Generated_Source\PSoC5/USBUART.c **** {
 560              		.loc 1 899 0
 561              		.cfi_startproc
 562              		@ args = 0, pretend = 0, frame = 0
 563              		@ frame_needed = 0, uses_anonymous_args = 0
 564              		@ link register save eliminated.
 565              	.LVL36:
 900:Generated_Source\PSoC5/USBUART.c ****     uint8 res = 0u;
 901:Generated_Source\PSoC5/USBUART.c **** 
 902:Generated_Source\PSoC5/USBUART.c ****     if (USBUART_configurationChanged != 0u)
 566              		.loc 1 902 0
 567 0000 064B     		ldr	r3, .L34
 568 0002 1B78     		ldrb	r3, [r3]	@ zero_extendqisi2
 569 0004 13F0FF0F 		tst	r3, #255
 570 0008 05D0     		beq	.L33
 903:Generated_Source\PSoC5/USBUART.c ****     {
 904:Generated_Source\PSoC5/USBUART.c ****         res = USBUART_configurationChanged;
 571              		.loc 1 904 0
ARM GAS  C:\Users\ingan\AppData\Local\Temp\ccMtFi7x.s 			page 27


 572 000a 044B     		ldr	r3, .L34
 573 000c 1878     		ldrb	r0, [r3]	@ zero_extendqisi2
 574 000e C0B2     		uxtb	r0, r0
 575              	.LVL37:
 905:Generated_Source\PSoC5/USBUART.c ****         USBUART_configurationChanged = 0u;
 576              		.loc 1 905 0
 577 0010 0022     		movs	r2, #0
 578 0012 1A70     		strb	r2, [r3]
 579 0014 7047     		bx	lr
 580              	.LVL38:
 581              	.L33:
 900:Generated_Source\PSoC5/USBUART.c ****     uint8 res = 0u;
 582              		.loc 1 900 0
 583 0016 0020     		movs	r0, #0
 584              	.LVL39:
 906:Generated_Source\PSoC5/USBUART.c ****     }
 907:Generated_Source\PSoC5/USBUART.c **** 
 908:Generated_Source\PSoC5/USBUART.c ****     return (res);
 909:Generated_Source\PSoC5/USBUART.c **** }
 585              		.loc 1 909 0
 586 0018 7047     		bx	lr
 587              	.L35:
 588 001a 00BF     		.align	2
 589              	.L34:
 590 001c 00000000 		.word	USBUART_configurationChanged
 591              		.cfi_endproc
 592              	.LFE7:
 593              		.size	USBUART_IsConfigurationChanged, .-USBUART_IsConfigurationChanged
 594              		.section	.text.USBUART_GetInterfaceSetting,"ax",%progbits
 595              		.align	2
 596              		.global	USBUART_GetInterfaceSetting
 597              		.thumb
 598              		.thumb_func
 599              		.type	USBUART_GetInterfaceSetting, %function
 600              	USBUART_GetInterfaceSetting:
 601              	.LFB8:
 910:Generated_Source\PSoC5/USBUART.c **** 
 911:Generated_Source\PSoC5/USBUART.c **** 
 912:Generated_Source\PSoC5/USBUART.c **** /*******************************************************************************
 913:Generated_Source\PSoC5/USBUART.c **** * Function Name: USBUART_GetInterfaceSetting
 914:Generated_Source\PSoC5/USBUART.c **** ****************************************************************************//**
 915:Generated_Source\PSoC5/USBUART.c **** *
 916:Generated_Source\PSoC5/USBUART.c **** *  This function gets the current alternate setting for the specified interface.
 917:Generated_Source\PSoC5/USBUART.c **** *  It is useful to identify which alternate settings are active in the specified 
 918:Generated_Source\PSoC5/USBUART.c **** *  interface.
 919:Generated_Source\PSoC5/USBUART.c **** *
 920:Generated_Source\PSoC5/USBUART.c **** *  \param
 921:Generated_Source\PSoC5/USBUART.c **** *  interfaceNumber interface number
 922:Generated_Source\PSoC5/USBUART.c **** *
 923:Generated_Source\PSoC5/USBUART.c **** * \return
 924:Generated_Source\PSoC5/USBUART.c **** *  Returns the current alternate setting for the specified interface.
 925:Generated_Source\PSoC5/USBUART.c **** *
 926:Generated_Source\PSoC5/USBUART.c **** *******************************************************************************/
 927:Generated_Source\PSoC5/USBUART.c **** uint8  USBUART_GetInterfaceSetting(uint8 interfaceNumber)
 928:Generated_Source\PSoC5/USBUART.c ****                                                     
 929:Generated_Source\PSoC5/USBUART.c **** {
 602              		.loc 1 929 0
ARM GAS  C:\Users\ingan\AppData\Local\Temp\ccMtFi7x.s 			page 28


 603              		.cfi_startproc
 604              		@ args = 0, pretend = 0, frame = 0
 605              		@ frame_needed = 0, uses_anonymous_args = 0
 606              		@ link register save eliminated.
 607              	.LVL40:
 930:Generated_Source\PSoC5/USBUART.c ****     return (USBUART_interfaceSetting[interfaceNumber]);
 608              		.loc 1 930 0
 609 0000 014B     		ldr	r3, .L37
 610 0002 185C     		ldrb	r0, [r3, r0]	@ zero_extendqisi2
 611              	.LVL41:
 931:Generated_Source\PSoC5/USBUART.c **** }
 612              		.loc 1 931 0
 613 0004 7047     		bx	lr
 614              	.L38:
 615 0006 00BF     		.align	2
 616              	.L37:
 617 0008 00000000 		.word	USBUART_interfaceSetting
 618              		.cfi_endproc
 619              	.LFE8:
 620              		.size	USBUART_GetInterfaceSetting, .-USBUART_GetInterfaceSetting
 621              		.section	.text.USBUART_GetEPState,"ax",%progbits
 622              		.align	2
 623              		.global	USBUART_GetEPState
 624              		.thumb
 625              		.thumb_func
 626              		.type	USBUART_GetEPState, %function
 627              	USBUART_GetEPState:
 628              	.LFB9:
 932:Generated_Source\PSoC5/USBUART.c **** 
 933:Generated_Source\PSoC5/USBUART.c **** 
 934:Generated_Source\PSoC5/USBUART.c **** /*******************************************************************************
 935:Generated_Source\PSoC5/USBUART.c **** * Function Name: USBUART_GetEPState
 936:Generated_Source\PSoC5/USBUART.c **** ****************************************************************************//**
 937:Generated_Source\PSoC5/USBUART.c **** *
 938:Generated_Source\PSoC5/USBUART.c **** *  This function returns the state of the requested endpoint.
 939:Generated_Source\PSoC5/USBUART.c **** *
 940:Generated_Source\PSoC5/USBUART.c **** * \param epNumber Data endpoint number
 941:Generated_Source\PSoC5/USBUART.c **** *
 942:Generated_Source\PSoC5/USBUART.c **** * \return
 943:Generated_Source\PSoC5/USBUART.c **** *  Returns the current state of the specified USBFS endpoint. Symbolic names and
 944:Generated_Source\PSoC5/USBUART.c **** *  their associated values are given in the following table. Use these constants
 945:Generated_Source\PSoC5/USBUART.c **** *  whenever you write code to change the state of the endpoints, such as ISR
 946:Generated_Source\PSoC5/USBUART.c **** *  code, to handle data sent or received.
 947:Generated_Source\PSoC5/USBUART.c **** *
 948:Generated_Source\PSoC5/USBUART.c **** *  Return Value           | Description
 949:Generated_Source\PSoC5/USBUART.c **** *  -----------------------|-----------------------------------------------------
 950:Generated_Source\PSoC5/USBUART.c **** *  USBFS_NO_EVENT_PENDING |The endpoint is awaiting SIE action
 951:Generated_Source\PSoC5/USBUART.c **** *  USBFS_EVENT_PENDING    |The endpoint is awaiting CPU action
 952:Generated_Source\PSoC5/USBUART.c **** *  USBFS_NO_EVENT_ALLOWED |The endpoint is locked from access
 953:Generated_Source\PSoC5/USBUART.c **** *  USBFS_IN_BUFFER_FULL   |The IN endpoint is loaded and the mode is set to ACK IN
 954:Generated_Source\PSoC5/USBUART.c **** *  USBFS_IN_BUFFER_EMPTY  |An IN transaction occurred and more data can be loaded
 955:Generated_Source\PSoC5/USBUART.c **** *  USBFS_OUT_BUFFER_EMPTY |The OUT endpoint is set to ACK OUT and is waiting for data
 956:Generated_Source\PSoC5/USBUART.c **** *  USBFS_OUT_BUFFER_FULL  |An OUT transaction has occurred and data can be read
 957:Generated_Source\PSoC5/USBUART.c **** *
 958:Generated_Source\PSoC5/USBUART.c **** *******************************************************************************/
 959:Generated_Source\PSoC5/USBUART.c **** uint8 USBUART_GetEPState(uint8 epNumber) 
 960:Generated_Source\PSoC5/USBUART.c **** {
ARM GAS  C:\Users\ingan\AppData\Local\Temp\ccMtFi7x.s 			page 29


 629              		.loc 1 960 0
 630              		.cfi_startproc
 631              		@ args = 0, pretend = 0, frame = 0
 632              		@ frame_needed = 0, uses_anonymous_args = 0
 633              		@ link register save eliminated.
 634              	.LVL42:
 961:Generated_Source\PSoC5/USBUART.c ****     return (USBUART_EP[epNumber].apiEpState);
 635              		.loc 1 961 0
 636 0000 00EB4000 		add	r0, r0, r0, lsl #1
 637              	.LVL43:
 638 0004 8300     		lsls	r3, r0, #2
 639 0006 024A     		ldr	r2, .L40
 640 0008 1344     		add	r3, r3, r2
 641 000a 5878     		ldrb	r0, [r3, #1]	@ zero_extendqisi2
 962:Generated_Source\PSoC5/USBUART.c **** }
 642              		.loc 1 962 0
 643 000c 7047     		bx	lr
 644              	.L41:
 645 000e 00BF     		.align	2
 646              	.L40:
 647 0010 00000000 		.word	USBUART_EP
 648              		.cfi_endproc
 649              	.LFE9:
 650              		.size	USBUART_GetEPState, .-USBUART_GetEPState
 651              		.section	.text.USBUART_GetEPCount,"ax",%progbits
 652              		.align	2
 653              		.global	USBUART_GetEPCount
 654              		.thumb
 655              		.thumb_func
 656              		.type	USBUART_GetEPCount, %function
 657              	USBUART_GetEPCount:
 658              	.LFB10:
 963:Generated_Source\PSoC5/USBUART.c **** 
 964:Generated_Source\PSoC5/USBUART.c **** 
 965:Generated_Source\PSoC5/USBUART.c **** /*******************************************************************************
 966:Generated_Source\PSoC5/USBUART.c **** * Function Name: USBUART_GetEPCount
 967:Generated_Source\PSoC5/USBUART.c **** ****************************************************************************//**
 968:Generated_Source\PSoC5/USBUART.c **** *
 969:Generated_Source\PSoC5/USBUART.c **** *  This function supports Data Endpoints only(EP1-EP8).
 970:Generated_Source\PSoC5/USBUART.c **** *  Returns the transfer count for the requested endpoint.  The value from
 971:Generated_Source\PSoC5/USBUART.c **** *  the count registers includes 2 counts for the two byte checksum of the
 972:Generated_Source\PSoC5/USBUART.c **** *  packet.  This function subtracts the two counts.
 973:Generated_Source\PSoC5/USBUART.c **** *
 974:Generated_Source\PSoC5/USBUART.c **** *  \param epNumber Data Endpoint Number.
 975:Generated_Source\PSoC5/USBUART.c **** *                   Valid values are between 1 and 8.
 976:Generated_Source\PSoC5/USBUART.c **** *
 977:Generated_Source\PSoC5/USBUART.c **** * \return
 978:Generated_Source\PSoC5/USBUART.c **** *  Returns the current byte count from the specified endpoint or 0 for an
 979:Generated_Source\PSoC5/USBUART.c **** *  invalid endpoint.
 980:Generated_Source\PSoC5/USBUART.c **** *
 981:Generated_Source\PSoC5/USBUART.c **** *******************************************************************************/
 982:Generated_Source\PSoC5/USBUART.c **** uint16 USBUART_GetEPCount(uint8 epNumber) 
 983:Generated_Source\PSoC5/USBUART.c **** {
 659              		.loc 1 983 0
 660              		.cfi_startproc
 661              		@ args = 0, pretend = 0, frame = 0
 662              		@ frame_needed = 0, uses_anonymous_args = 0
ARM GAS  C:\Users\ingan\AppData\Local\Temp\ccMtFi7x.s 			page 30


 663              		@ link register save eliminated.
 664              	.LVL44:
 984:Generated_Source\PSoC5/USBUART.c ****     uint16 cntr = 0u;
 985:Generated_Source\PSoC5/USBUART.c **** 
 986:Generated_Source\PSoC5/USBUART.c ****     if ((epNumber > USBUART_EP0) && (epNumber < USBUART_MAX_EP))
 665              		.loc 1 986 0
 666 0000 431E     		subs	r3, r0, #1
 667 0002 DBB2     		uxtb	r3, r3
 668 0004 072B     		cmp	r3, #7
 669 0006 0BD8     		bhi	.L44
 987:Generated_Source\PSoC5/USBUART.c ****     {
 988:Generated_Source\PSoC5/USBUART.c ****         /* Get 11-bits EP counter where epCnt0 - 3 bits MSB and epCnt1 - 8 bits LSB. */
 989:Generated_Source\PSoC5/USBUART.c ****         cntr  = ((uint16) USBUART_SIE_EP_BASE.sieEp[epNumber].epCnt0) & USBUART_EPX_CNT0_MASK;
 670              		.loc 1 989 0
 671 0008 064B     		ldr	r3, .L45
 672 000a 0001     		lsls	r0, r0, #4
 673              	.LVL45:
 674 000c 1A18     		adds	r2, r3, r0
 675 000e 185C     		ldrb	r0, [r3, r0]	@ zero_extendqisi2
 676 0010 00F00F00 		and	r0, r0, #15
 677              	.LVL46:
 990:Generated_Source\PSoC5/USBUART.c ****         cntr  = ((uint16) (cntr << 8u)) | ((uint16) USBUART_SIE_EP_BASE.sieEp[epNumber].epCnt1);
 678              		.loc 1 990 0
 679 0014 5378     		ldrb	r3, [r2, #1]	@ zero_extendqisi2
 680 0016 43EA0020 		orr	r0, r3, r0, lsl #8
 681              	.LVL47:
 991:Generated_Source\PSoC5/USBUART.c ****         cntr -= USBUART_EPX_CNTX_CRC_COUNT;
 682              		.loc 1 991 0
 683 001a 0238     		subs	r0, r0, #2
 684              	.LVL48:
 685 001c 80B2     		uxth	r0, r0
 686              	.LVL49:
 687 001e 7047     		bx	lr
 688              	.LVL50:
 689              	.L44:
 984:Generated_Source\PSoC5/USBUART.c **** 
 690              		.loc 1 984 0
 691 0020 0020     		movs	r0, #0
 692              	.LVL51:
 992:Generated_Source\PSoC5/USBUART.c ****     }
 993:Generated_Source\PSoC5/USBUART.c **** 
 994:Generated_Source\PSoC5/USBUART.c ****     return (cntr);
 995:Generated_Source\PSoC5/USBUART.c **** }
 693              		.loc 1 995 0
 694 0022 7047     		bx	lr
 695              	.L46:
 696              		.align	2
 697              	.L45:
 698 0024 FC5F0040 		.word	1073766396
 699              		.cfi_endproc
 700              	.LFE10:
 701              		.size	USBUART_GetEPCount, .-USBUART_GetEPCount
 702              		.section	.text.USBUART_InitEP_DMA,"ax",%progbits
 703              		.align	2
 704              		.global	USBUART_InitEP_DMA
 705              		.thumb
 706              		.thumb_func
ARM GAS  C:\Users\ingan\AppData\Local\Temp\ccMtFi7x.s 			page 31


 707              		.type	USBUART_InitEP_DMA, %function
 708              	USBUART_InitEP_DMA:
 709              	.LFB11:
 996:Generated_Source\PSoC5/USBUART.c **** 
 997:Generated_Source\PSoC5/USBUART.c **** 
 998:Generated_Source\PSoC5/USBUART.c **** #if (USBUART_EP_MANAGEMENT_DMA)
 999:Generated_Source\PSoC5/USBUART.c **** #if (CY_PSOC4)
1000:Generated_Source\PSoC5/USBUART.c ****     /*******************************************************************************
1001:Generated_Source\PSoC5/USBUART.c ****     * Function Name: USBUART_InitEpDma
1002:Generated_Source\PSoC5/USBUART.c ****     ****************************************************************************//**
1003:Generated_Source\PSoC5/USBUART.c ****     *
1004:Generated_Source\PSoC5/USBUART.c ****     *  This function configures priority for all DMA channels utilized by the
1005:Generated_Source\PSoC5/USBUART.c ****     *  component. Also sets callbacks for DMA auto mode.
1006:Generated_Source\PSoC5/USBUART.c ****     *
1007:Generated_Source\PSoC5/USBUART.c ****     *******************************************************************************/
1008:Generated_Source\PSoC5/USBUART.c ****     static void USBUART_InitEpDma(void)
1009:Generated_Source\PSoC5/USBUART.c ****     {
1010:Generated_Source\PSoC5/USBUART.c ****     #if (USBUART_DMA1_ACTIVE)
1011:Generated_Source\PSoC5/USBUART.c ****         CYDMA_CH_CTL_BASE.ctl[USBUART_ep1_dma_CHANNEL] = USBUART_ep1_dma_CHANNEL_CFG;
1012:Generated_Source\PSoC5/USBUART.c ****     #endif /* (USBUART_DMA1_ACTIVE) */
1013:Generated_Source\PSoC5/USBUART.c **** 
1014:Generated_Source\PSoC5/USBUART.c ****     #if (USBUART_DMA2_ACTIVE)
1015:Generated_Source\PSoC5/USBUART.c ****         CYDMA_CH_CTL_BASE.ctl[USBUART_ep2_dma_CHANNEL] = USBUART_ep2_dma_CHANNEL_CFG;
1016:Generated_Source\PSoC5/USBUART.c ****     #endif /* (USBUART_DMA2_ACTIVE) */
1017:Generated_Source\PSoC5/USBUART.c **** 
1018:Generated_Source\PSoC5/USBUART.c ****     #if (USBUART_DMA3_ACTIVE)
1019:Generated_Source\PSoC5/USBUART.c ****         CYDMA_CH_CTL_BASE.ctl[USBUART_ep3_dma_CHANNEL] = USBUART_ep3_dma_CHANNEL_CFG;
1020:Generated_Source\PSoC5/USBUART.c ****     #endif /* (USBUART_DMA3_ACTIVE) */
1021:Generated_Source\PSoC5/USBUART.c **** 
1022:Generated_Source\PSoC5/USBUART.c ****     #if (USBUART_DMA4_ACTIVE)
1023:Generated_Source\PSoC5/USBUART.c ****         CYDMA_CH_CTL_BASE.ctl[USBUART_ep4_dma_CHANNEL] = USBUART_ep4_dma_CHANNEL_CFG;
1024:Generated_Source\PSoC5/USBUART.c ****     #endif /* (USBUART_DMA4_ACTIVE) */
1025:Generated_Source\PSoC5/USBUART.c **** 
1026:Generated_Source\PSoC5/USBUART.c ****     #if (USBUART_DMA5_ACTIVE)
1027:Generated_Source\PSoC5/USBUART.c ****         CYDMA_CH_CTL_BASE.ctl[USBUART_ep5_dma_CHANNEL] = USBUART_ep5_dma_CHANNEL_CFG;
1028:Generated_Source\PSoC5/USBUART.c ****     #endif /* (USBUART_DMA5_ACTIVE) */
1029:Generated_Source\PSoC5/USBUART.c **** 
1030:Generated_Source\PSoC5/USBUART.c ****     #if (USBUART_DMA6_ACTIVE)
1031:Generated_Source\PSoC5/USBUART.c ****         CYDMA_CH_CTL_BASE.ctl[USBUART_ep6_dma_CHANNEL] = USBUART_ep6_dma_CHANNEL_CFG;
1032:Generated_Source\PSoC5/USBUART.c ****     #endif /* (USBUART_DMA6_ACTIVE) */
1033:Generated_Source\PSoC5/USBUART.c **** 
1034:Generated_Source\PSoC5/USBUART.c ****     #if (USBUART_DMA7_ACTIVE)
1035:Generated_Source\PSoC5/USBUART.c ****         CYDMA_CH_CTL_BASE.ctl[USBUART_ep7_dma_CHANNEL] = USBUART_ep7_dma_CHANNEL_CFG;
1036:Generated_Source\PSoC5/USBUART.c ****     #endif /* (USBUART_DMA7_ACTIVE) */
1037:Generated_Source\PSoC5/USBUART.c **** 
1038:Generated_Source\PSoC5/USBUART.c ****     #if (USBUART_DMA8_ACTIVE)
1039:Generated_Source\PSoC5/USBUART.c ****         CYDMA_CH_CTL_BASE.ctl[USBUART_ep8_dma_CHANNEL] = USBUART_ep8_dma_CHANNEL_CFG;
1040:Generated_Source\PSoC5/USBUART.c ****     #endif /* (USBUART_DMA8_ACTIVE) */
1041:Generated_Source\PSoC5/USBUART.c **** 
1042:Generated_Source\PSoC5/USBUART.c ****     #if (USBUART_EP_MANAGEMENT_DMA_AUTO)
1043:Generated_Source\PSoC5/USBUART.c ****         /* Initialize DMA channel callbacks. */
1044:Generated_Source\PSoC5/USBUART.c ****         #if (USBUART_DMA1_ACTIVE)
1045:Generated_Source\PSoC5/USBUART.c ****             (void) USBUART_ep1_dma_SetInterruptCallback(&USBUART_EP1_DMA_DONE_ISR);
1046:Generated_Source\PSoC5/USBUART.c ****         #endif /* (USBUART_DMA1_ACTIVE) */
1047:Generated_Source\PSoC5/USBUART.c **** 
1048:Generated_Source\PSoC5/USBUART.c ****         #if (USBUART_DMA2_ACTIVE)
1049:Generated_Source\PSoC5/USBUART.c ****             (void) USBUART_ep2_dma_SetInterruptCallback(&USBUART_EP2_DMA_DONE_ISR);
ARM GAS  C:\Users\ingan\AppData\Local\Temp\ccMtFi7x.s 			page 32


1050:Generated_Source\PSoC5/USBUART.c ****         #endif /* (USBUART_DMA2_ACTIVE) */
1051:Generated_Source\PSoC5/USBUART.c **** 
1052:Generated_Source\PSoC5/USBUART.c ****         #if (USBUART_DMA3_ACTIVE)
1053:Generated_Source\PSoC5/USBUART.c ****             (void) USBUART_ep3_dma_SetInterruptCallback(&USBUART_EP3_DMA_DONE_ISR);
1054:Generated_Source\PSoC5/USBUART.c ****         #endif /* (USBUART_DMA3_ACTIVE) */
1055:Generated_Source\PSoC5/USBUART.c **** 
1056:Generated_Source\PSoC5/USBUART.c ****         #if (USBUART_DMA4_ACTIVE)
1057:Generated_Source\PSoC5/USBUART.c ****             (void) USBUART_ep4_dma_SetInterruptCallback(&USBUART_EP4_DMA_DONE_ISR);
1058:Generated_Source\PSoC5/USBUART.c ****         #endif /* (USBUART_DMA4_ACTIVE) */
1059:Generated_Source\PSoC5/USBUART.c **** 
1060:Generated_Source\PSoC5/USBUART.c ****         #if (USBUART_DMA5_ACTIVE)
1061:Generated_Source\PSoC5/USBUART.c ****             (void) USBUART_ep5_dma_SetInterruptCallback(&USBUART_EP5_DMA_DONE_ISR);
1062:Generated_Source\PSoC5/USBUART.c ****         #endif /* (USBUART_DMA5_ACTIVE) */
1063:Generated_Source\PSoC5/USBUART.c **** 
1064:Generated_Source\PSoC5/USBUART.c ****         #if (USBUART_DMA6_ACTIVE)
1065:Generated_Source\PSoC5/USBUART.c ****             (void) USBUART_ep6_dma_SetInterruptCallback(&USBUART_EP6_DMA_DONE_ISR);
1066:Generated_Source\PSoC5/USBUART.c ****         #endif /* (USBUART_DMA6_ACTIVE) */
1067:Generated_Source\PSoC5/USBUART.c **** 
1068:Generated_Source\PSoC5/USBUART.c ****         #if (USBUART_DMA7_ACTIVE)
1069:Generated_Source\PSoC5/USBUART.c ****             (void) USBUART_ep7_dma_SetInterruptCallback(&USBUART_EP7_DMA_DONE_ISR);
1070:Generated_Source\PSoC5/USBUART.c ****         #endif /* (USBUART_DMA7_ACTIVE) */
1071:Generated_Source\PSoC5/USBUART.c **** 
1072:Generated_Source\PSoC5/USBUART.c ****         #if (USBUART_DMA8_ACTIVE)
1073:Generated_Source\PSoC5/USBUART.c ****             (void) USBUART_ep8_dma_SetInterruptCallback(&USBUART_EP8_DMA_DONE_ISR);
1074:Generated_Source\PSoC5/USBUART.c ****         #endif /* (USBUART_DMA8_ACTIVE) */
1075:Generated_Source\PSoC5/USBUART.c ****     #endif /* (USBUART_EP_MANAGEMENT_DMA_AUTO) */
1076:Generated_Source\PSoC5/USBUART.c ****     }
1077:Generated_Source\PSoC5/USBUART.c **** #else
1078:Generated_Source\PSoC5/USBUART.c **** 
1079:Generated_Source\PSoC5/USBUART.c **** 
1080:Generated_Source\PSoC5/USBUART.c ****     /***************************************************************************
1081:Generated_Source\PSoC5/USBUART.c ****     * Function Name: USBUART_InitEP_DMA
1082:Generated_Source\PSoC5/USBUART.c ****     ************************************************************************//**
1083:Generated_Source\PSoC5/USBUART.c ****     *
1084:Generated_Source\PSoC5/USBUART.c ****     *  This function allocates and initializes a DMA channel to be used by the
1085:Generated_Source\PSoC5/USBUART.c ****     *  USBUART_LoadInEP() or USBUART_ReadOutEP() APIs for data
1086:Generated_Source\PSoC5/USBUART.c ****     *  transfer. It is available when the Endpoint Memory Management parameter
1087:Generated_Source\PSoC5/USBUART.c ****     *  is set to DMA.
1088:Generated_Source\PSoC5/USBUART.c ****     *
1089:Generated_Source\PSoC5/USBUART.c ****     *  This function is automatically called from the USBFS_LoadInEP() and USBFS_ReadOutEP() APIs.
1090:Generated_Source\PSoC5/USBUART.c ****     *
1091:Generated_Source\PSoC5/USBUART.c ****     *  \param epNumber Contains the data endpoint number.
1092:Generated_Source\PSoC5/USBUART.c ****     *            Valid values are between 1 and 8.
1093:Generated_Source\PSoC5/USBUART.c ****     *  \param *pData Pointer to a data array that is related to the EP transfers.
1094:Generated_Source\PSoC5/USBUART.c ****     *
1095:Generated_Source\PSoC5/USBUART.c ****     * \reentrant No.
1096:Generated_Source\PSoC5/USBUART.c ****     *
1097:Generated_Source\PSoC5/USBUART.c ****     ***************************************************************************/
1098:Generated_Source\PSoC5/USBUART.c ****     void USBUART_InitEP_DMA(uint8 epNumber, const uint8 *pData)
1099:Generated_Source\PSoC5/USBUART.c ****                                                                     
1100:Generated_Source\PSoC5/USBUART.c ****     {
 710              		.loc 1 1100 0
 711              		.cfi_startproc
 712              		@ args = 0, pretend = 0, frame = 0
 713              		@ frame_needed = 0, uses_anonymous_args = 0
 714              	.LVL52:
 715 0000 10B5     		push	{r4, lr}
ARM GAS  C:\Users\ingan\AppData\Local\Temp\ccMtFi7x.s 			page 33


 716              		.cfi_def_cfa_offset 8
 717              		.cfi_offset 4, -8
 718              		.cfi_offset 14, -4
 719 0002 0446     		mov	r4, r0
1101:Generated_Source\PSoC5/USBUART.c ****         uint16 src;
1102:Generated_Source\PSoC5/USBUART.c ****         uint16 dst;
1103:Generated_Source\PSoC5/USBUART.c **** 
1104:Generated_Source\PSoC5/USBUART.c ****     #if (CY_PSOC3)
1105:Generated_Source\PSoC5/USBUART.c ****         src = HI16(CYDEV_SRAM_BASE);
1106:Generated_Source\PSoC5/USBUART.c ****         dst = HI16(CYDEV_PERIPH_BASE);
1107:Generated_Source\PSoC5/USBUART.c ****         pData = pData;
1108:Generated_Source\PSoC5/USBUART.c ****     #else
1109:Generated_Source\PSoC5/USBUART.c ****         if ((USBUART_EP[epNumber].addr & USBUART_DIR_IN) != 0u)
 720              		.loc 1 1109 0
 721 0004 00EB4003 		add	r3, r0, r0, lsl #1
 722 0008 9800     		lsls	r0, r3, #2
 723              	.LVL53:
 724 000a 184B     		ldr	r3, .L56
 725 000c 1844     		add	r0, r0, r3
 726 000e 0379     		ldrb	r3, [r0, #4]	@ zero_extendqisi2
 727 0010 13F0800F 		tst	r3, #128
 728 0014 03D0     		beq	.L48
1110:Generated_Source\PSoC5/USBUART.c ****         {
1111:Generated_Source\PSoC5/USBUART.c ****             /* IN endpoint: source is memory buffer. */
1112:Generated_Source\PSoC5/USBUART.c ****             src = HI16(pData);
 729              		.loc 1 1112 0
 730 0016 0A0C     		lsrs	r2, r1, #16
 731              	.LVL54:
1113:Generated_Source\PSoC5/USBUART.c ****             dst = HI16(CYDEV_PERIPH_BASE);
 732              		.loc 1 1113 0
 733 0018 4FF48043 		mov	r3, #16384
 734 001c 02E0     		b	.L49
 735              	.LVL55:
 736              	.L48:
1114:Generated_Source\PSoC5/USBUART.c ****         }
1115:Generated_Source\PSoC5/USBUART.c ****         else
1116:Generated_Source\PSoC5/USBUART.c ****         {
1117:Generated_Source\PSoC5/USBUART.c ****             /* OUT endpoint: source is USB IP memory buffer. */
1118:Generated_Source\PSoC5/USBUART.c ****             src = HI16(CYDEV_PERIPH_BASE);
1119:Generated_Source\PSoC5/USBUART.c ****             dst = HI16(pData);
 737              		.loc 1 1119 0
 738 001e 0B0C     		lsrs	r3, r1, #16
 739              	.LVL56:
1118:Generated_Source\PSoC5/USBUART.c ****             dst = HI16(pData);
 740              		.loc 1 1118 0
 741 0020 4FF48042 		mov	r2, #16384
 742              	.LVL57:
 743              	.L49:
1120:Generated_Source\PSoC5/USBUART.c ****         }
1121:Generated_Source\PSoC5/USBUART.c ****     #endif  /* (CY_PSOC3) */
1122:Generated_Source\PSoC5/USBUART.c **** 
1123:Generated_Source\PSoC5/USBUART.c ****         switch(epNumber)
 744              		.loc 1 1123 0
 745 0024 022C     		cmp	r4, #2
 746 0026 0AD0     		beq	.L51
 747 0028 032C     		cmp	r4, #3
 748 002a 0FD0     		beq	.L52
ARM GAS  C:\Users\ingan\AppData\Local\Temp\ccMtFi7x.s 			page 34


 749 002c 012C     		cmp	r4, #1
 750 002e 13D1     		bne	.L50
1124:Generated_Source\PSoC5/USBUART.c ****         {
1125:Generated_Source\PSoC5/USBUART.c ****     #if (USBUART_DMA1_ACTIVE)
1126:Generated_Source\PSoC5/USBUART.c ****         case USBUART_EP1:
1127:Generated_Source\PSoC5/USBUART.c ****             USBUART_DmaChan[epNumber] = USBUART_ep1_DmaInitialize(USBUART_DMA_BYTES_PER_BURST,
 751              		.loc 1 1127 0
 752 0030 0021     		movs	r1, #0
 753              	.LVL58:
 754 0032 0846     		mov	r0, r1
 755 0034 FFF7FEFF 		bl	USBUART_ep1_DmaInitialize
 756              	.LVL59:
 757 0038 0D4B     		ldr	r3, .L56+4
 758 003a 1855     		strb	r0, [r3, r4]
1128:Generated_Source\PSoC5/USBUART.c ****                                                                                     USBUART_DMA_REQ
1129:Generated_Source\PSoC5/USBUART.c ****             break;
 759              		.loc 1 1129 0
 760 003c 0CE0     		b	.L50
 761              	.LVL60:
 762              	.L51:
1130:Generated_Source\PSoC5/USBUART.c ****     #endif /* (USBUART_DMA1_ACTIVE) */
1131:Generated_Source\PSoC5/USBUART.c **** 
1132:Generated_Source\PSoC5/USBUART.c ****     #if (USBUART_DMA2_ACTIVE)
1133:Generated_Source\PSoC5/USBUART.c ****         case USBUART_EP2:
1134:Generated_Source\PSoC5/USBUART.c ****             USBUART_DmaChan[epNumber] = USBUART_ep2_DmaInitialize(USBUART_DMA_BYTES_PER_BURST,
 763              		.loc 1 1134 0
 764 003e 0021     		movs	r1, #0
 765              	.LVL61:
 766 0040 0846     		mov	r0, r1
 767 0042 FFF7FEFF 		bl	USBUART_ep2_DmaInitialize
 768              	.LVL62:
 769 0046 0A4B     		ldr	r3, .L56+4
 770 0048 1855     		strb	r0, [r3, r4]
1135:Generated_Source\PSoC5/USBUART.c ****                                                                                     USBUART_DMA_REQ
1136:Generated_Source\PSoC5/USBUART.c ****             break;
 771              		.loc 1 1136 0
 772 004a 05E0     		b	.L50
 773              	.LVL63:
 774              	.L52:
1137:Generated_Source\PSoC5/USBUART.c ****     #endif /* (USBUART_DMA2_ACTIVE) */
1138:Generated_Source\PSoC5/USBUART.c **** 
1139:Generated_Source\PSoC5/USBUART.c ****     #if (USBUART_DMA3_ACTIVE)
1140:Generated_Source\PSoC5/USBUART.c ****             case USBUART_EP3:
1141:Generated_Source\PSoC5/USBUART.c ****                 USBUART_DmaChan[epNumber] = USBUART_ep3_DmaInitialize(USBUART_DMA_BYTES_PER_BURST,
 775              		.loc 1 1141 0
 776 004c 0021     		movs	r1, #0
 777              	.LVL64:
 778 004e 0846     		mov	r0, r1
 779 0050 FFF7FEFF 		bl	USBUART_ep3_DmaInitialize
 780              	.LVL65:
 781 0054 064B     		ldr	r3, .L56+4
 782 0056 1855     		strb	r0, [r3, r4]
 783              	.L50:
1142:Generated_Source\PSoC5/USBUART.c ****                                                                                         USBUART_DMA
1143:Generated_Source\PSoC5/USBUART.c ****             break;
1144:Generated_Source\PSoC5/USBUART.c ****     #endif /* (USBUART_DMA3_ACTIVE) */
1145:Generated_Source\PSoC5/USBUART.c **** 
ARM GAS  C:\Users\ingan\AppData\Local\Temp\ccMtFi7x.s 			page 35


1146:Generated_Source\PSoC5/USBUART.c ****     #if (USBUART_DMA4_ACTIVE)
1147:Generated_Source\PSoC5/USBUART.c ****             case USBUART_EP4:
1148:Generated_Source\PSoC5/USBUART.c ****                 USBUART_DmaChan[epNumber] = USBUART_ep4_DmaInitialize(USBUART_DMA_BYTES_PER_BURST,
1149:Generated_Source\PSoC5/USBUART.c ****                                                                                         USBUART_DMA
1150:Generated_Source\PSoC5/USBUART.c ****             break;
1151:Generated_Source\PSoC5/USBUART.c ****     #endif /* (USBUART_DMA4_ACTIVE) */
1152:Generated_Source\PSoC5/USBUART.c **** 
1153:Generated_Source\PSoC5/USBUART.c ****     #if (USBUART_DMA5_ACTIVE)
1154:Generated_Source\PSoC5/USBUART.c ****             case USBUART_EP5:
1155:Generated_Source\PSoC5/USBUART.c ****                 USBUART_DmaChan[epNumber] = USBUART_ep5_DmaInitialize(USBUART_DMA_BYTES_PER_BURST,
1156:Generated_Source\PSoC5/USBUART.c ****                                                                                         USBUART_DMA
1157:Generated_Source\PSoC5/USBUART.c ****             break;
1158:Generated_Source\PSoC5/USBUART.c ****     #endif /* (USBUART_DMA5_ACTIVE) */
1159:Generated_Source\PSoC5/USBUART.c **** 
1160:Generated_Source\PSoC5/USBUART.c ****     #if (USBUART_DMA6_ACTIVE)
1161:Generated_Source\PSoC5/USBUART.c ****         case USBUART_EP6:
1162:Generated_Source\PSoC5/USBUART.c ****             USBUART_DmaChan[epNumber] = USBUART_ep6_DmaInitialize(USBUART_DMA_BYTES_PER_BURST,
1163:Generated_Source\PSoC5/USBUART.c ****                                                                                     USBUART_DMA_REQ
1164:Generated_Source\PSoC5/USBUART.c ****             break;
1165:Generated_Source\PSoC5/USBUART.c ****     #endif /* (USBUART_DMA6_ACTIVE) */
1166:Generated_Source\PSoC5/USBUART.c **** 
1167:Generated_Source\PSoC5/USBUART.c ****     #if (USBUART_DMA7_ACTIVE)
1168:Generated_Source\PSoC5/USBUART.c ****         case USBUART_EP7:
1169:Generated_Source\PSoC5/USBUART.c ****                 USBUART_DmaChan[epNumber] = USBUART_ep7_DmaInitialize(USBUART_DMA_BYTES_PER_BURST,
1170:Generated_Source\PSoC5/USBUART.c ****                                                                                         USBUART_DMA
1171:Generated_Source\PSoC5/USBUART.c ****             break;
1172:Generated_Source\PSoC5/USBUART.c ****     #endif /* (USBUART_DMA7_ACTIVE) */
1173:Generated_Source\PSoC5/USBUART.c **** 
1174:Generated_Source\PSoC5/USBUART.c ****     #if (USBUART_DMA8_ACTIVE)
1175:Generated_Source\PSoC5/USBUART.c ****         case USBUART_EP8:
1176:Generated_Source\PSoC5/USBUART.c ****                 USBUART_DmaChan[epNumber] = USBUART_ep8_DmaInitialize(USBUART_DMA_BYTES_PER_BURST,
1177:Generated_Source\PSoC5/USBUART.c ****                                                                                         USBUART_DMA
1178:Generated_Source\PSoC5/USBUART.c ****             break;
1179:Generated_Source\PSoC5/USBUART.c ****     #endif /* (USBUART_DMA8_ACTIVE) */
1180:Generated_Source\PSoC5/USBUART.c **** 
1181:Generated_Source\PSoC5/USBUART.c ****         default:
1182:Generated_Source\PSoC5/USBUART.c ****             /* Do nothing for endpoints other than 1-8. */
1183:Generated_Source\PSoC5/USBUART.c ****             break;
1184:Generated_Source\PSoC5/USBUART.c ****         }
1185:Generated_Source\PSoC5/USBUART.c **** 
1186:Generated_Source\PSoC5/USBUART.c ****         if ((epNumber > USBUART_EP0) && (epNumber < USBUART_MAX_EP))
 784              		.loc 1 1186 0
 785 0058 631E     		subs	r3, r4, #1
 786 005a DBB2     		uxtb	r3, r3
 787 005c 072B     		cmp	r3, #7
 788 005e 03D8     		bhi	.L47
1187:Generated_Source\PSoC5/USBUART.c ****         {
1188:Generated_Source\PSoC5/USBUART.c ****             USBUART_DmaTd[epNumber] = CyDmaTdAllocate();
 789              		.loc 1 1188 0
 790 0060 FFF7FEFF 		bl	CyDmaTdAllocate
 791              	.LVL66:
 792 0064 034B     		ldr	r3, .L56+8
 793 0066 1855     		strb	r0, [r3, r4]
 794              	.L47:
 795 0068 10BD     		pop	{r4, pc}
 796              	.L57:
 797 006a 00BF     		.align	2
ARM GAS  C:\Users\ingan\AppData\Local\Temp\ccMtFi7x.s 			page 36


 798              	.L56:
 799 006c 00000000 		.word	USBUART_EP
 800 0070 00000000 		.word	USBUART_DmaChan
 801 0074 00000000 		.word	USBUART_DmaTd
 802              		.cfi_endproc
 803              	.LFE11:
 804              		.size	USBUART_InitEP_DMA, .-USBUART_InitEP_DMA
 805              		.section	.text.USBUART_Stop_DMA,"ax",%progbits
 806              		.align	2
 807              		.global	USBUART_Stop_DMA
 808              		.thumb
 809              		.thumb_func
 810              		.type	USBUART_Stop_DMA, %function
 811              	USBUART_Stop_DMA:
 812              	.LFB12:
1189:Generated_Source\PSoC5/USBUART.c **** 
1190:Generated_Source\PSoC5/USBUART.c ****         #if (USBUART_EP_MANAGEMENT_DMA_AUTO && (USBUART_EP_DMA_AUTO_OPT == 0u))
1191:Generated_Source\PSoC5/USBUART.c ****             USBUART_DmaNextTd[epNumber] = CyDmaTdAllocate();
1192:Generated_Source\PSoC5/USBUART.c ****         #endif /* (USBUART_EP_MANAGEMENT_DMA_AUTO && (USBUART_EP_DMA_AUTO_OPT == 0u)) */
1193:Generated_Source\PSoC5/USBUART.c ****         }
1194:Generated_Source\PSoC5/USBUART.c ****     }
1195:Generated_Source\PSoC5/USBUART.c **** #endif /* (CY_PSOC4) */
1196:Generated_Source\PSoC5/USBUART.c **** 
1197:Generated_Source\PSoC5/USBUART.c ****     /***************************************************************************
1198:Generated_Source\PSoC5/USBUART.c ****     * Function Name: USBUART_Stop_DMA
1199:Generated_Source\PSoC5/USBUART.c ****     ************************************************************************//**
1200:Generated_Source\PSoC5/USBUART.c ****     *  
1201:Generated_Source\PSoC5/USBUART.c ****     *  This function stops DMA channel associated with endpoint. It is available 
1202:Generated_Source\PSoC5/USBUART.c ****     *  when the Endpoint Buffer Management parameter is set to DMA. Call this 
1203:Generated_Source\PSoC5/USBUART.c ****     *  function when endpoint direction is changed from IN to OUT or vice versa 
1204:Generated_Source\PSoC5/USBUART.c ****     *  to trigger DMA re-configuration when USBUART_LoadInEP() or 
1205:Generated_Source\PSoC5/USBUART.c ****     *  USBUART_ReadOutEP() functions are called the first time. 
1206:Generated_Source\PSoC5/USBUART.c ****     *  
1207:Generated_Source\PSoC5/USBUART.c ****     *  \param epNumber: The data endpoint number for which associated DMA 
1208:Generated_Source\PSoC5/USBUART.c ****     *  channel is stopped. The range of valid values is between 1 and 8. To stop 
1209:Generated_Source\PSoC5/USBUART.c ****     *  all DMAs associated with endpoints call this function with 
1210:Generated_Source\PSoC5/USBUART.c ****     *  USBUART_MAX_EP argument.
1211:Generated_Source\PSoC5/USBUART.c ****     *
1212:Generated_Source\PSoC5/USBUART.c ****     * \reentrant
1213:Generated_Source\PSoC5/USBUART.c ****     *  No.
1214:Generated_Source\PSoC5/USBUART.c ****     *
1215:Generated_Source\PSoC5/USBUART.c ****     ***************************************************************************/
1216:Generated_Source\PSoC5/USBUART.c ****     void USBUART_Stop_DMA(uint8 epNumber) 
1217:Generated_Source\PSoC5/USBUART.c ****     {
 813              		.loc 1 1217 0
 814              		.cfi_startproc
 815              		@ args = 0, pretend = 0, frame = 0
 816              		@ frame_needed = 0, uses_anonymous_args = 0
 817              	.LVL67:
 818 0000 70B5     		push	{r4, r5, r6, lr}
 819              		.cfi_def_cfa_offset 16
 820              		.cfi_offset 4, -16
 821              		.cfi_offset 5, -12
 822              		.cfi_offset 6, -8
 823              		.cfi_offset 14, -4
 824 0002 0646     		mov	r6, r0
1218:Generated_Source\PSoC5/USBUART.c ****         uint8 i;
ARM GAS  C:\Users\ingan\AppData\Local\Temp\ccMtFi7x.s 			page 37


1219:Generated_Source\PSoC5/USBUART.c **** 
1220:Generated_Source\PSoC5/USBUART.c ****         i = (epNumber < USBUART_MAX_EP) ? epNumber : USBUART_EP1;
 825              		.loc 1 1220 0
 826 0004 0828     		cmp	r0, #8
 827 0006 01D9     		bls	.L63
 828 0008 0124     		movs	r4, #1
 829 000a 00E0     		b	.L62
 830              	.L63:
 831 000c 0446     		mov	r4, r0
 832              	.LVL68:
 833              	.L62:
1221:Generated_Source\PSoC5/USBUART.c **** 
1222:Generated_Source\PSoC5/USBUART.c ****         do
1223:Generated_Source\PSoC5/USBUART.c ****         {
1224:Generated_Source\PSoC5/USBUART.c ****         #if (CY_PSOC4)
1225:Generated_Source\PSoC5/USBUART.c ****             if (0u != USBUART_DmaChan[i])
1226:Generated_Source\PSoC5/USBUART.c ****             {
1227:Generated_Source\PSoC5/USBUART.c ****                 USBUART_CyDmaChDisable(USBUART_DmaChan[i]);
1228:Generated_Source\PSoC5/USBUART.c ****             }
1229:Generated_Source\PSoC5/USBUART.c ****         #else
1230:Generated_Source\PSoC5/USBUART.c ****             if(USBUART_DmaTd[i] != DMA_INVALID_TD)
 834              		.loc 1 1230 0
 835 000e 0A4B     		ldr	r3, .L65
 836 0010 1B5D     		ldrb	r3, [r3, r4]	@ zero_extendqisi2
 837 0012 FF2B     		cmp	r3, #255
 838 0014 09D0     		beq	.L60
1231:Generated_Source\PSoC5/USBUART.c ****             {
1232:Generated_Source\PSoC5/USBUART.c ****                 (void) CyDmaChDisable(USBUART_DmaChan[i]);
 839              		.loc 1 1232 0
 840 0016 094B     		ldr	r3, .L65+4
 841 0018 185D     		ldrb	r0, [r3, r4]	@ zero_extendqisi2
 842 001a FFF7FEFF 		bl	CyDmaChDisable
 843              	.LVL69:
1233:Generated_Source\PSoC5/USBUART.c ****                 CyDmaTdFree(USBUART_DmaTd[i]);
 844              		.loc 1 1233 0
 845 001e 064D     		ldr	r5, .L65
 846 0020 285D     		ldrb	r0, [r5, r4]	@ zero_extendqisi2
 847 0022 FFF7FEFF 		bl	CyDmaTdFree
 848              	.LVL70:
1234:Generated_Source\PSoC5/USBUART.c ****                 USBUART_DmaTd[i] = DMA_INVALID_TD;
 849              		.loc 1 1234 0
 850 0026 FF23     		movs	r3, #255
 851 0028 2B55     		strb	r3, [r5, r4]
 852              	.L60:
1235:Generated_Source\PSoC5/USBUART.c ****             }
1236:Generated_Source\PSoC5/USBUART.c **** 
1237:Generated_Source\PSoC5/USBUART.c ****             #if (USBUART_EP_MANAGEMENT_DMA_AUTO && (USBUART_EP_DMA_AUTO_OPT == 0u))
1238:Generated_Source\PSoC5/USBUART.c ****                 if(USBUART_DmaNextTd[i] != DMA_INVALID_TD)
1239:Generated_Source\PSoC5/USBUART.c ****                 {
1240:Generated_Source\PSoC5/USBUART.c ****                     CyDmaTdFree(USBUART_DmaNextTd[i]);
1241:Generated_Source\PSoC5/USBUART.c ****                     USBUART_DmaNextTd[i] = DMA_INVALID_TD;
1242:Generated_Source\PSoC5/USBUART.c ****                 }
1243:Generated_Source\PSoC5/USBUART.c ****             #endif /* (USBUART_EP_MANAGEMENT_DMA_AUTO && (USBUART_EP_DMA_AUTO_OPT == 0u)) */
1244:Generated_Source\PSoC5/USBUART.c **** 
1245:Generated_Source\PSoC5/USBUART.c ****         #endif /* (CY_PSOC4) */
1246:Generated_Source\PSoC5/USBUART.c ****             i++;
 853              		.loc 1 1246 0
ARM GAS  C:\Users\ingan\AppData\Local\Temp\ccMtFi7x.s 			page 38


 854 002a 0134     		adds	r4, r4, #1
 855              	.LVL71:
 856 002c E4B2     		uxtb	r4, r4
 857              	.LVL72:
1247:Generated_Source\PSoC5/USBUART.c ****         }
1248:Generated_Source\PSoC5/USBUART.c ****         while ((i < USBUART_MAX_EP) && (epNumber == USBUART_MAX_EP));
 858              		.loc 1 1248 0
 859 002e 082C     		cmp	r4, #8
 860 0030 01D8     		bhi	.L58
 861              		.loc 1 1248 0 is_stmt 0 discriminator 1
 862 0032 092E     		cmp	r6, #9
 863 0034 EBD0     		beq	.L62
 864              	.L58:
 865 0036 70BD     		pop	{r4, r5, r6, pc}
 866              	.LVL73:
 867              	.L66:
 868              		.align	2
 869              	.L65:
 870 0038 00000000 		.word	USBUART_DmaTd
 871 003c 00000000 		.word	USBUART_DmaChan
 872              		.cfi_endproc
 873              	.LFE12:
 874              		.size	USBUART_Stop_DMA, .-USBUART_Stop_DMA
 875              		.section	.text.USBUART_Stop,"ax",%progbits
 876              		.align	2
 877              		.global	USBUART_Stop
 878              		.thumb
 879              		.thumb_func
 880              		.type	USBUART_Stop, %function
 881              	USBUART_Stop:
 882              	.LFB4:
 730:Generated_Source\PSoC5/USBUART.c ****     uint8 enableInterrupts;
 883              		.loc 1 730 0 is_stmt 1
 884              		.cfi_startproc
 885              		@ args = 0, pretend = 0, frame = 0
 886              		@ frame_needed = 0, uses_anonymous_args = 0
 887 0000 08B5     		push	{r3, lr}
 888              		.cfi_def_cfa_offset 8
 889              		.cfi_offset 3, -8
 890              		.cfi_offset 14, -4
 735:Generated_Source\PSoC5/USBUART.c **** #endif /* (USBUART_EP_MANAGEMENT_DMA) */
 891              		.loc 1 735 0
 892 0002 0920     		movs	r0, #9
 893 0004 FFF7FEFF 		bl	USBUART_Stop_DMA
 894              	.LVL74:
 738:Generated_Source\PSoC5/USBUART.c **** 
 895              		.loc 1 738 0
 896 0008 FFF7FEFF 		bl	CyEnterCriticalSection
 897              	.LVL75:
 741:Generated_Source\PSoC5/USBUART.c **** 
 898              		.loc 1 741 0
 899 000c 224A     		ldr	r2, .L69
 900 000e 1378     		ldrb	r3, [r2]	@ zero_extendqisi2
 901 0010 03F07F03 		and	r3, r3, #127
 902 0014 1370     		strb	r3, [r2]
 744:Generated_Source\PSoC5/USBUART.c **** 
 903              		.loc 1 744 0
ARM GAS  C:\Users\ingan\AppData\Local\Temp\ccMtFi7x.s 			page 39


 904 0016 0A32     		adds	r2, r2, #10
 905 0018 1378     		ldrb	r3, [r2]	@ zero_extendqisi2
 906 001a 03F0FB03 		and	r3, r3, #251
 907 001e 1370     		strb	r3, [r2]
 751:Generated_Source\PSoC5/USBUART.c ****     USBUART_PM_STBY_CFG_REG &= (uint8) ~USBUART_PM_STBY_EN_FSUSB;
 908              		.loc 1 751 0
 909 0020 A2F5E352 		sub	r2, r2, #7264
 910 0024 0D3A     		subs	r2, r2, #13
 911 0026 1378     		ldrb	r3, [r2]	@ zero_extendqisi2
 912 0028 03F0FE03 		and	r3, r3, #254
 913 002c 1370     		strb	r3, [r2]
 752:Generated_Source\PSoC5/USBUART.c **** 
 914              		.loc 1 752 0
 915 002e 1032     		adds	r2, r2, #16
 916 0030 1378     		ldrb	r3, [r2]	@ zero_extendqisi2
 917 0032 03F0FE03 		and	r3, r3, #254
 918 0036 1370     		strb	r3, [r2]
 756:Generated_Source\PSoC5/USBUART.c ****     USBUART_DP_INP_DIS_REG |= (uint8) USBUART_DP_MASK;
 919              		.loc 1 756 0
 920 0038 184B     		ldr	r3, .L69+4
 921 003a 1A78     		ldrb	r2, [r3]	@ zero_extendqisi2
 922 003c 42F08002 		orr	r2, r2, #128
 923 0040 1A70     		strb	r2, [r3]
 757:Generated_Source\PSoC5/USBUART.c **** 
 924              		.loc 1 757 0
 925 0042 1A78     		ldrb	r2, [r3]	@ zero_extendqisi2
 926 0044 42F04002 		orr	r2, r2, #64
 927 0048 1A70     		strb	r2, [r3]
 761:Generated_Source\PSoC5/USBUART.c **** 
 928              		.loc 1 761 0
 929 004a FFF7FEFF 		bl	CyExitCriticalSection
 930              	.LVL76:
 770:Generated_Source\PSoC5/USBUART.c ****     CyIntDisable(USBUART_EP_0_VECT_NUM);
 931              		.loc 1 770 0
 932 004e 144B     		ldr	r3, .L69+8
 933 0050 4FF40002 		mov	r2, #8388608
 934 0054 1A60     		str	r2, [r3]
 771:Generated_Source\PSoC5/USBUART.c **** 
 935              		.loc 1 771 0
 936 0056 4FF08072 		mov	r2, #16777216
 937 005a 1A60     		str	r2, [r3]
 774:Generated_Source\PSoC5/USBUART.c ****     #endif /* (USBUART_SOF_ISR_ACTIVE) */
 938              		.loc 1 774 0
 939 005c 4FF40012 		mov	r2, #2097152
 940 0060 1A60     		str	r2, [r3]
 778:Generated_Source\PSoC5/USBUART.c ****     #endif /* (USBUART_EP1_ISR_ACTIVE) */
 941              		.loc 1 778 0
 942 0062 0122     		movs	r2, #1
 943 0064 1A60     		str	r2, [r3]
 782:Generated_Source\PSoC5/USBUART.c ****     #endif /* (USBUART_EP2_ISR_ACTIVE) */
 944              		.loc 1 782 0
 945 0066 0222     		movs	r2, #2
 946 0068 1A60     		str	r2, [r3]
 786:Generated_Source\PSoC5/USBUART.c ****     #endif /* (USBUART_EP3_ISR_ACTIVE) */
 947              		.loc 1 786 0
 948 006a 0422     		movs	r2, #4
 949 006c 1A60     		str	r2, [r3]
ARM GAS  C:\Users\ingan\AppData\Local\Temp\ccMtFi7x.s 			page 40


 811:Generated_Source\PSoC5/USBUART.c ****         CyIntClearPending(USBUART_DP_INTC_VECT_NUM);
 950              		.loc 1 811 0
 951 006e FFF7FEFF 		bl	USBUART_Dp_ClearInterrupt
 952              	.LVL77:
 812:Generated_Source\PSoC5/USBUART.c ****     #endif /* (USBUART_DP_ISR_ACTIVE). */
 953              		.loc 1 812 0
 954 0072 4FF48052 		mov	r2, #4096
 955 0076 0B4B     		ldr	r3, .L69+12
 956 0078 1A60     		str	r2, [r3]
 818:Generated_Source\PSoC5/USBUART.c ****     USBUART_configuration   = 0u;
 957              		.loc 1 818 0
 958 007a 0023     		movs	r3, #0
 959 007c 0A4A     		ldr	r2, .L69+16
 960 007e 1370     		strb	r3, [r2]
 819:Generated_Source\PSoC5/USBUART.c ****     USBUART_interfaceNumber = 0u;
 961              		.loc 1 819 0
 962 0080 0A4A     		ldr	r2, .L69+20
 963 0082 1370     		strb	r3, [r2]
 820:Generated_Source\PSoC5/USBUART.c ****     USBUART_deviceAddress   = 0u;
 964              		.loc 1 820 0
 965 0084 0A4A     		ldr	r2, .L69+24
 966 0086 1370     		strb	r3, [r2]
 821:Generated_Source\PSoC5/USBUART.c ****     USBUART_deviceStatus    = 0u;
 967              		.loc 1 821 0
 968 0088 0A4A     		ldr	r2, .L69+28
 969 008a 1370     		strb	r3, [r2]
 822:Generated_Source\PSoC5/USBUART.c **** 
 970              		.loc 1 822 0
 971 008c 0A4A     		ldr	r2, .L69+32
 972 008e 1370     		strb	r3, [r2]
 825:Generated_Source\PSoC5/USBUART.c **** }
 973              		.loc 1 825 0
 974 0090 0A4A     		ldr	r2, .L69+36
 975 0092 1370     		strb	r3, [r2]
 976 0094 08BD     		pop	{r3, pc}
 977              	.L70:
 978 0096 00BF     		.align	2
 979              	.L69:
 980 0098 08600040 		.word	1073766408
 981 009c F8510040 		.word	1073762808
 982 00a0 80E100E0 		.word	-536813184
 983 00a4 80E200E0 		.word	-536812928
 984 00a8 00000000 		.word	USBUART_configurationChanged
 985 00ac 00000000 		.word	USBUART_configuration
 986 00b0 00000000 		.word	USBUART_interfaceNumber
 987 00b4 00000000 		.word	USBUART_deviceAddress
 988 00b8 00000000 		.word	USBUART_deviceStatus
 989 00bc 00000000 		.word	.LANCHOR0
 990              		.cfi_endproc
 991              	.LFE4:
 992              		.size	USBUART_Stop, .-USBUART_Stop
 993              		.section	.text.USBUART_LoadInEP,"ax",%progbits
 994              		.align	2
 995              		.global	USBUART_LoadInEP
 996              		.thumb
 997              		.thumb_func
 998              		.type	USBUART_LoadInEP, %function
ARM GAS  C:\Users\ingan\AppData\Local\Temp\ccMtFi7x.s 			page 41


 999              	USBUART_LoadInEP:
 1000              	.LFB13:
1249:Generated_Source\PSoC5/USBUART.c ****     }
1250:Generated_Source\PSoC5/USBUART.c **** #endif /* (USBUART_EP_MANAGEMENT_DMA) */
1251:Generated_Source\PSoC5/USBUART.c **** 
1252:Generated_Source\PSoC5/USBUART.c **** 
1253:Generated_Source\PSoC5/USBUART.c **** #if (CY_PSOC3 || CY_PSOC5)
1254:Generated_Source\PSoC5/USBUART.c **** #if (USBUART_EP_MANAGEMENT_DMA_AUTO && (USBUART_EP_DMA_AUTO_OPT == 0u))
1255:Generated_Source\PSoC5/USBUART.c ****     /***************************************************************************
1256:Generated_Source\PSoC5/USBUART.c ****     * Function Name: USBUART_LoadNextInEP
1257:Generated_Source\PSoC5/USBUART.c ****     ************************************************************************//**
1258:Generated_Source\PSoC5/USBUART.c ****     *
1259:Generated_Source\PSoC5/USBUART.c ****     * Summary:
1260:Generated_Source\PSoC5/USBUART.c ****     *  This internal function is used for IN endpoint DMA reconfiguration in
1261:Generated_Source\PSoC5/USBUART.c ****     *  Auto DMA mode.
1262:Generated_Source\PSoC5/USBUART.c ****     *
1263:Generated_Source\PSoC5/USBUART.c ****     * Parameters:
1264:Generated_Source\PSoC5/USBUART.c ****     *  epNumber: Contains the data endpoint number.
1265:Generated_Source\PSoC5/USBUART.c ****     *  mode:   0 - Configure DMA to send the the rest of data.
1266:Generated_Source\PSoC5/USBUART.c ****     *          1 - Configure DMA to repeat 2 last bytes of the first burst.
1267:Generated_Source\PSoC5/USBUART.c ****     *
1268:Generated_Source\PSoC5/USBUART.c ****     ***************************************************************************/
1269:Generated_Source\PSoC5/USBUART.c ****     void USBUART_LoadNextInEP(uint8 epNumber, uint8 mode) 
1270:Generated_Source\PSoC5/USBUART.c ****     {
1271:Generated_Source\PSoC5/USBUART.c ****         reg16 *convert;
1272:Generated_Source\PSoC5/USBUART.c **** 
1273:Generated_Source\PSoC5/USBUART.c ****         if (mode == 0u)
1274:Generated_Source\PSoC5/USBUART.c ****         {
1275:Generated_Source\PSoC5/USBUART.c ****             /* Configure DMA to send rest of data. */
1276:Generated_Source\PSoC5/USBUART.c ****             /* CyDmaTdSetConfiguration API is optimized to change transfer length only and configur
1277:Generated_Source\PSoC5/USBUART.c ****             convert = (reg16 *) &CY_DMA_TDMEM_STRUCT_PTR[USBUART_DmaTd[epNumber]].TD0[0u];
1278:Generated_Source\PSoC5/USBUART.c ****             /* Set transfer length. */
1279:Generated_Source\PSoC5/USBUART.c ****             CY_SET_REG16(convert, USBUART_inLength[epNumber] - USBUART_DMA_BYTES_PER_BURST);
1280:Generated_Source\PSoC5/USBUART.c ****             /* CyDmaTdSetAddress API is optimized to change source address only. */
1281:Generated_Source\PSoC5/USBUART.c ****             convert = (reg16 *) &CY_DMA_TDMEM_STRUCT_PTR[USBUART_DmaTd[epNumber]].TD1[0u];
1282:Generated_Source\PSoC5/USBUART.c ****             CY_SET_REG16(convert, LO16((uint32)USBUART_inDataPointer[epNumber] +
1283:Generated_Source\PSoC5/USBUART.c ****                                             USBUART_DMA_BYTES_PER_BURST));
1284:Generated_Source\PSoC5/USBUART.c ****             USBUART_inBufFull[epNumber] = 1u;
1285:Generated_Source\PSoC5/USBUART.c ****         }
1286:Generated_Source\PSoC5/USBUART.c ****         else
1287:Generated_Source\PSoC5/USBUART.c ****         {
1288:Generated_Source\PSoC5/USBUART.c ****             /* Configure DMA to repeat 2 last bytes of the first burst. */
1289:Generated_Source\PSoC5/USBUART.c ****             /* CyDmaTdSetConfiguration API is optimized to change transfer length only and configur
1290:Generated_Source\PSoC5/USBUART.c ****             convert = (reg16 *) &CY_DMA_TDMEM_STRUCT_PTR[USBUART_DmaTd[epNumber]].TD0[0u];
1291:Generated_Source\PSoC5/USBUART.c ****             /* Set transfer length. */
1292:Generated_Source\PSoC5/USBUART.c ****             CY_SET_REG16(convert, USBUART_DMA_BYTES_REPEAT);
1293:Generated_Source\PSoC5/USBUART.c ****             /* CyDmaTdSetAddress API is optimized to change source address only. */
1294:Generated_Source\PSoC5/USBUART.c ****             convert = (reg16 *) &CY_DMA_TDMEM_STRUCT_PTR[USBUART_DmaTd[epNumber]].TD1[0u];
1295:Generated_Source\PSoC5/USBUART.c ****             CY_SET_REG16(convert,  LO16((uint32)USBUART_inDataPointer[epNumber] +
1296:Generated_Source\PSoC5/USBUART.c ****                                    (USBUART_DMA_BYTES_PER_BURST - USBUART_DMA_BYTES_REPEAT)));
1297:Generated_Source\PSoC5/USBUART.c ****         }
1298:Generated_Source\PSoC5/USBUART.c **** 
1299:Generated_Source\PSoC5/USBUART.c ****         /* CyDmaChSetInitialTd API is optimized to initialize TD. */
1300:Generated_Source\PSoC5/USBUART.c ****         CY_DMA_CH_STRUCT_PTR[USBUART_DmaChan[epNumber]].basic_status[1u] = USBUART_DmaTd[epNumber];
1301:Generated_Source\PSoC5/USBUART.c ****     }
1302:Generated_Source\PSoC5/USBUART.c **** #endif /* (USBUART_EP_MANAGEMENT_DMA_AUTO && (USBUART_EP_DMA_AUTO_OPT == 0u)) */
1303:Generated_Source\PSoC5/USBUART.c **** #endif /* (CY_PSOC3 || CY_PSOC5) */
ARM GAS  C:\Users\ingan\AppData\Local\Temp\ccMtFi7x.s 			page 42


1304:Generated_Source\PSoC5/USBUART.c **** 
1305:Generated_Source\PSoC5/USBUART.c **** 
1306:Generated_Source\PSoC5/USBUART.c **** /*******************************************************************************
1307:Generated_Source\PSoC5/USBUART.c **** * Function Name: USBUART_LoadInEP
1308:Generated_Source\PSoC5/USBUART.c **** ****************************************************************************//**
1309:Generated_Source\PSoC5/USBUART.c **** *
1310:Generated_Source\PSoC5/USBUART.c **** *  This function performs different functionality depending on the Component’s
1311:Generated_Source\PSoC5/USBUART.c **** *  configured Endpoint Buffer Management. This parameter is defined in
1312:Generated_Source\PSoC5/USBUART.c **** *  the Descriptor Root in Component Configure window.
1313:Generated_Source\PSoC5/USBUART.c **** *
1314:Generated_Source\PSoC5/USBUART.c **** *  *Manual (Static/Dynamic Allocation):*
1315:Generated_Source\PSoC5/USBUART.c **** *  This function loads and enables the specified USB data endpoint for an IN
1316:Generated_Source\PSoC5/USBUART.c **** *  data transfer.
1317:Generated_Source\PSoC5/USBUART.c **** *
1318:Generated_Source\PSoC5/USBUART.c **** *  *DMA with Manual Buffer Management:*
1319:Generated_Source\PSoC5/USBUART.c **** *  Configures DMA for a data transfer from system RAM to endpoint buffer.
1320:Generated_Source\PSoC5/USBUART.c **** *  Generates request for a transfer.
1321:Generated_Source\PSoC5/USBUART.c **** *
1322:Generated_Source\PSoC5/USBUART.c **** *  *DMA with Automatic Buffer Management:*
1323:Generated_Source\PSoC5/USBUART.c **** *  Configures DMA. This is required only once, so it is done only when parameter
1324:Generated_Source\PSoC5/USBUART.c **** *  pData is not NULL. When the pData pointer is NULL, the function skips this
1325:Generated_Source\PSoC5/USBUART.c **** *  task. Sets Data ready status: This generates the first DMA transfer and
1326:Generated_Source\PSoC5/USBUART.c **** *  prepares data in endpoint buffer.
1327:Generated_Source\PSoC5/USBUART.c **** *
1328:Generated_Source\PSoC5/USBUART.c **** *  \param epNumber Contains the data endpoint number.
1329:Generated_Source\PSoC5/USBUART.c **** *            Valid values are between 1 and 8.
1330:Generated_Source\PSoC5/USBUART.c **** *  \param *pData A pointer to a data array from which the data for the endpoint space
1331:Generated_Source\PSoC5/USBUART.c **** *          is loaded.
1332:Generated_Source\PSoC5/USBUART.c **** *  \param length The number of bytes to transfer from the array and then send as
1333:Generated_Source\PSoC5/USBUART.c **** *          a result of an IN request. Valid values are between 0 and 512
1334:Generated_Source\PSoC5/USBUART.c **** *          (1023 for DMA with Automatic Buffer Management mode). The value 512
1335:Generated_Source\PSoC5/USBUART.c **** *          is applicable if only one endpoint is used.
1336:Generated_Source\PSoC5/USBUART.c **** *
1337:Generated_Source\PSoC5/USBUART.c **** *
1338:Generated_Source\PSoC5/USBUART.c **** * \reentrant
1339:Generated_Source\PSoC5/USBUART.c **** *  No.
1340:Generated_Source\PSoC5/USBUART.c **** *
1341:Generated_Source\PSoC5/USBUART.c **** *******************************************************************************/
1342:Generated_Source\PSoC5/USBUART.c **** void USBUART_LoadInEP(uint8 epNumber, const uint8 pData[], uint16 length)
1343:Generated_Source\PSoC5/USBUART.c ****                                                                         
1344:Generated_Source\PSoC5/USBUART.c **** {
 1001              		.loc 1 1344 0
 1002              		.cfi_startproc
 1003              		@ args = 0, pretend = 0, frame = 0
 1004              		@ frame_needed = 0, uses_anonymous_args = 0
 1005              	.LVL78:
1345:Generated_Source\PSoC5/USBUART.c ****     if ((epNumber > USBUART_EP0) && (epNumber < USBUART_MAX_EP))
 1006              		.loc 1 1345 0
 1007 0000 431E     		subs	r3, r0, #1
 1008 0002 DBB2     		uxtb	r3, r3
 1009 0004 072B     		cmp	r3, #7
 1010 0006 6FD8     		bhi	.L77
1344:Generated_Source\PSoC5/USBUART.c ****     if ((epNumber > USBUART_EP0) && (epNumber < USBUART_MAX_EP))
 1011              		.loc 1 1344 0
 1012 0008 2DE9F041 		push	{r4, r5, r6, r7, r8, lr}
 1013              		.cfi_def_cfa_offset 24
 1014              		.cfi_offset 4, -24
ARM GAS  C:\Users\ingan\AppData\Local\Temp\ccMtFi7x.s 			page 43


 1015              		.cfi_offset 5, -20
 1016              		.cfi_offset 6, -16
 1017              		.cfi_offset 7, -12
 1018              		.cfi_offset 8, -8
 1019              		.cfi_offset 14, -4
 1020 000c 0446     		mov	r4, r0
 1021 000e 0E46     		mov	r6, r1
 1022 0010 1546     		mov	r5, r2
1346:Generated_Source\PSoC5/USBUART.c ****     {
1347:Generated_Source\PSoC5/USBUART.c ****     #if (!USBUART_EP_MANAGEMENT_DMA_AUTO)
1348:Generated_Source\PSoC5/USBUART.c ****         /* Limit length to available buffer USB IP buffer size.*/
1349:Generated_Source\PSoC5/USBUART.c ****         if (length > (USBUART_EPX_DATA_BUF_MAX - USBUART_EP[epNumber].buffOffset))
 1023              		.loc 1 1349 0
 1024 0012 00EB4002 		add	r2, r0, r0, lsl #1
 1025              	.LVL79:
 1026 0016 9300     		lsls	r3, r2, #2
 1027 0018 344A     		ldr	r2, .L78
 1028 001a 1344     		add	r3, r3, r2
 1029 001c DB88     		ldrh	r3, [r3, #6]
 1030 001e 9BB2     		uxth	r3, r3
 1031 0020 C3F50073 		rsb	r3, r3, #512
 1032 0024 9D42     		cmp	r5, r3
 1033 0026 09D9     		bls	.L73
1350:Generated_Source\PSoC5/USBUART.c ****         {
1351:Generated_Source\PSoC5/USBUART.c ****             length = USBUART_EPX_DATA_BUF_MAX - USBUART_EP[epNumber].buffOffset;
 1034              		.loc 1 1351 0
 1035 0028 00EB4002 		add	r2, r0, r0, lsl #1
 1036 002c 9300     		lsls	r3, r2, #2
 1037 002e 2F4A     		ldr	r2, .L78
 1038 0030 1344     		add	r3, r3, r2
 1039 0032 DD88     		ldrh	r5, [r3, #6]
 1040 0034 ADB2     		uxth	r5, r5
 1041 0036 C5F50075 		rsb	r5, r5, #512
 1042 003a ADB2     		uxth	r5, r5
 1043              	.LVL80:
 1044              	.L73:
1352:Generated_Source\PSoC5/USBUART.c ****         }
1353:Generated_Source\PSoC5/USBUART.c ****     #endif /* (!USBUART_EP_MANAGEMENT_DMA_AUTO) */
1354:Generated_Source\PSoC5/USBUART.c **** 
1355:Generated_Source\PSoC5/USBUART.c ****         /* Set count and data toggle. */
1356:Generated_Source\PSoC5/USBUART.c ****         USBUART_SIE_EP_BASE.sieEp[epNumber].epCnt0 = (uint8) HI8(length) | USBUART_EP[epNumber].epT
 1045              		.loc 1 1356 0
 1046 003c 04EB4402 		add	r2, r4, r4, lsl #1
 1047 0040 9300     		lsls	r3, r2, #2
 1048 0042 2A4A     		ldr	r2, .L78
 1049 0044 1344     		add	r3, r3, r2
 1050 0046 DB78     		ldrb	r3, [r3, #3]	@ zero_extendqisi2
 1051 0048 43EA1523 		orr	r3, r3, r5, lsr #8
 1052 004c 2849     		ldr	r1, .L78+4
 1053              	.LVL81:
 1054 004e 2201     		lsls	r2, r4, #4
 1055 0050 8818     		adds	r0, r1, r2
 1056              	.LVL82:
 1057 0052 8B54     		strb	r3, [r1, r2]
1357:Generated_Source\PSoC5/USBUART.c ****         USBUART_SIE_EP_BASE.sieEp[epNumber].epCnt1 = (uint8) LO8(length);
 1058              		.loc 1 1357 0
 1059 0054 EBB2     		uxtb	r3, r5
ARM GAS  C:\Users\ingan\AppData\Local\Temp\ccMtFi7x.s 			page 44


 1060 0056 4370     		strb	r3, [r0, #1]
1358:Generated_Source\PSoC5/USBUART.c **** 
1359:Generated_Source\PSoC5/USBUART.c ****     #if (USBUART_EP_MANAGEMENT_MANUAL)
1360:Generated_Source\PSoC5/USBUART.c ****         if (NULL != pData)
1361:Generated_Source\PSoC5/USBUART.c ****         {
1362:Generated_Source\PSoC5/USBUART.c **** 			/* Copy data using arbiter data register. */
1363:Generated_Source\PSoC5/USBUART.c ****             uint16 i;
1364:Generated_Source\PSoC5/USBUART.c ****             for (i = 0u; i < length; ++i)
1365:Generated_Source\PSoC5/USBUART.c ****             {
1366:Generated_Source\PSoC5/USBUART.c ****                 USBUART_ARB_EP_BASE.arbEp[epNumber].rwDr = pData[i];
1367:Generated_Source\PSoC5/USBUART.c ****             }
1368:Generated_Source\PSoC5/USBUART.c ****         }
1369:Generated_Source\PSoC5/USBUART.c **** 
1370:Generated_Source\PSoC5/USBUART.c ****         /* IN endpoint buffer is full - read to be read. */
1371:Generated_Source\PSoC5/USBUART.c ****         USBUART_EP[epNumber].apiEpState = USBUART_NO_EVENT_PENDING;
1372:Generated_Source\PSoC5/USBUART.c **** 
1373:Generated_Source\PSoC5/USBUART.c ****         /* Arm IN endpoint. */
1374:Generated_Source\PSoC5/USBUART.c ****         USBUART_SIE_EP_BASE.sieEp[epNumber].epCr0 = USBUART_EP[epNumber].epMode;
1375:Generated_Source\PSoC5/USBUART.c **** 
1376:Generated_Source\PSoC5/USBUART.c ****     #else
1377:Generated_Source\PSoC5/USBUART.c **** 
1378:Generated_Source\PSoC5/USBUART.c ****         #if (CY_PSOC3 || CY_PSOC5LP)
1379:Generated_Source\PSoC5/USBUART.c ****             /* Initialize DMA if it was not initialized. */
1380:Generated_Source\PSoC5/USBUART.c ****             if (DMA_INVALID_TD == USBUART_DmaTd[epNumber])
 1061              		.loc 1 1380 0
 1062 0058 264B     		ldr	r3, .L78+8
 1063 005a 1B5D     		ldrb	r3, [r3, r4]	@ zero_extendqisi2
 1064 005c FF2B     		cmp	r3, #255
 1065 005e 03D1     		bne	.L74
1381:Generated_Source\PSoC5/USBUART.c ****             {
1382:Generated_Source\PSoC5/USBUART.c ****                 USBUART_InitEP_DMA(epNumber, pData);
 1066              		.loc 1 1382 0
 1067 0060 3146     		mov	r1, r6
 1068 0062 2046     		mov	r0, r4
 1069 0064 FFF7FEFF 		bl	USBUART_InitEP_DMA
 1070              	.LVL83:
 1071              	.L74:
1383:Generated_Source\PSoC5/USBUART.c ****             }
1384:Generated_Source\PSoC5/USBUART.c ****         #endif /* (CY_PSOC3 || CY_PSOC5LP) */
1385:Generated_Source\PSoC5/USBUART.c **** 
1386:Generated_Source\PSoC5/USBUART.c ****         #if (USBUART_EP_MANAGEMENT_DMA_MANUAL)
1387:Generated_Source\PSoC5/USBUART.c ****             /* IN endpoint buffer will be fully loaded by DMA shortly. */
1388:Generated_Source\PSoC5/USBUART.c ****             USBUART_EP[epNumber].apiEpState = USBUART_NO_EVENT_PENDING;
 1072              		.loc 1 1388 0
 1073 0068 04EB4402 		add	r2, r4, r4, lsl #1
 1074 006c 9300     		lsls	r3, r2, #2
 1075 006e 1F4A     		ldr	r2, .L78
 1076 0070 1344     		add	r3, r3, r2
 1077 0072 0022     		movs	r2, #0
 1078 0074 5A70     		strb	r2, [r3, #1]
1389:Generated_Source\PSoC5/USBUART.c **** 
1390:Generated_Source\PSoC5/USBUART.c ****             if ((pData != NULL) && (length > 0u))
 1079              		.loc 1 1390 0
 1080 0076 5EB3     		cbz	r6, .L75
 1081              		.loc 1 1390 0 is_stmt 0 discriminator 1
 1082 0078 55B3     		cbz	r5, .L75
1391:Generated_Source\PSoC5/USBUART.c ****             {
ARM GAS  C:\Users\ingan\AppData\Local\Temp\ccMtFi7x.s 			page 45


1392:Generated_Source\PSoC5/USBUART.c ****             #if (CY_PSOC4)
1393:Generated_Source\PSoC5/USBUART.c ****                 uint32 channelNum = (uint32) USBUART_DmaChan[epNumber];
1394:Generated_Source\PSoC5/USBUART.c **** 
1395:Generated_Source\PSoC5/USBUART.c ****                 /* Disable DMA channel: start configuration. */
1396:Generated_Source\PSoC5/USBUART.c ****                 USBUART_CyDmaChDisable(channelNum);
1397:Generated_Source\PSoC5/USBUART.c **** 
1398:Generated_Source\PSoC5/USBUART.c ****                 /* Configure source and destination. */
1399:Generated_Source\PSoC5/USBUART.c ****                 USBUART_CyDmaSetSrcAddress(channelNum, USBUART_DMA_DESCR0, (void*) pData);
1400:Generated_Source\PSoC5/USBUART.c ****                 USBUART_CyDmaSetDstAddress(channelNum, USBUART_DMA_DESCR0, (void*) &USBUART_ARB_EP_
1401:Generated_Source\PSoC5/USBUART.c **** 
1402:Generated_Source\PSoC5/USBUART.c ****                 /* Configure DMA descriptor. */
1403:Generated_Source\PSoC5/USBUART.c ****                 --length;
1404:Generated_Source\PSoC5/USBUART.c ****                 USBUART_CyDmaSetConfiguration(channelNum, USBUART_DMA_DESCR0, USBUART_DMA_COMMON_CF
1405:Generated_Source\PSoC5/USBUART.c ****                                                         CYDMA_BYTE | CYDMA_ELEMENT_WORD | CYDMA_INC
1406:Generated_Source\PSoC5/USBUART.c **** 
1407:Generated_Source\PSoC5/USBUART.c ****                 /* Validate descriptor to execute on following DMA request. */
1408:Generated_Source\PSoC5/USBUART.c ****                 USBUART_CyDmaValidateDescriptor(channelNum, USBUART_DMA_DESCR0);
1409:Generated_Source\PSoC5/USBUART.c **** 
1410:Generated_Source\PSoC5/USBUART.c ****                 /* Enable DMA channel: configuration complete. */
1411:Generated_Source\PSoC5/USBUART.c ****                 USBUART_CyDmaChEnable(channelNum);
1412:Generated_Source\PSoC5/USBUART.c ****             #else
1413:Generated_Source\PSoC5/USBUART.c ****                 /* Configure DMA to transfer data. */
1414:Generated_Source\PSoC5/USBUART.c ****                 (void) CyDmaChDisable(USBUART_DmaChan[epNumber]);
 1083              		.loc 1 1414 0 is_stmt 1
 1084 007a 1F4F     		ldr	r7, .L78+12
 1085 007c 385D     		ldrb	r0, [r7, r4]	@ zero_extendqisi2
 1086 007e FFF7FEFF 		bl	CyDmaChDisable
 1087              	.LVL84:
1415:Generated_Source\PSoC5/USBUART.c ****                 (void) CyDmaTdSetConfiguration(USBUART_DmaTd[epNumber], length, CY_DMA_DISABLE_TD, 
 1088              		.loc 1 1415 0
 1089 0082 DFF87080 		ldr	r8, .L78+8
 1090 0086 1123     		movs	r3, #17
 1091 0088 FE22     		movs	r2, #254
 1092 008a 2946     		mov	r1, r5
 1093 008c 18F80400 		ldrb	r0, [r8, r4]	@ zero_extendqisi2
 1094 0090 FFF7FEFF 		bl	CyDmaTdSetConfiguration
 1095              	.LVL85:
1416:Generated_Source\PSoC5/USBUART.c ****                 (void) CyDmaTdSetAddress(USBUART_DmaTd[epNumber], LO16((uint32) pData), LO16((uint3
 1096              		.loc 1 1416 0
 1097 0094 2201     		lsls	r2, r4, #4
 1098 0096 0832     		adds	r2, r2, #8
 1099 0098 184D     		ldr	r5, .L78+16
 1100              	.LVL86:
 1101 009a 2A44     		add	r2, r2, r5
 1102 009c 92B2     		uxth	r2, r2
 1103 009e B1B2     		uxth	r1, r6
 1104 00a0 18F80400 		ldrb	r0, [r8, r4]	@ zero_extendqisi2
 1105 00a4 FFF7FEFF 		bl	CyDmaTdSetAddress
 1106              	.LVL87:
1417:Generated_Source\PSoC5/USBUART.c **** 
1418:Generated_Source\PSoC5/USBUART.c ****                 /* Enable DMA channel. */
1419:Generated_Source\PSoC5/USBUART.c ****                 (void) CyDmaChSetInitialTd(USBUART_DmaChan[epNumber], USBUART_DmaTd[epNumber]);
 1107              		.loc 1 1419 0
 1108 00a8 18F80410 		ldrb	r1, [r8, r4]	@ zero_extendqisi2
 1109 00ac 385D     		ldrb	r0, [r7, r4]	@ zero_extendqisi2
 1110 00ae FFF7FEFF 		bl	CyDmaChSetInitialTd
 1111              	.LVL88:
ARM GAS  C:\Users\ingan\AppData\Local\Temp\ccMtFi7x.s 			page 46


1420:Generated_Source\PSoC5/USBUART.c ****                 (void) CyDmaChEnable(USBUART_DmaChan[epNumber], 1u);
 1112              		.loc 1 1420 0
 1113 00b2 0121     		movs	r1, #1
 1114 00b4 385D     		ldrb	r0, [r7, r4]	@ zero_extendqisi2
 1115 00b6 FFF7FEFF 		bl	CyDmaChEnable
 1116              	.LVL89:
1421:Generated_Source\PSoC5/USBUART.c ****             #endif /* (CY_PSOC4) */
1422:Generated_Source\PSoC5/USBUART.c **** 
1423:Generated_Source\PSoC5/USBUART.c ****                 /* Generate DMA request. */
1424:Generated_Source\PSoC5/USBUART.c ****                 USBUART_ARB_EP_BASE.arbEp[epNumber].epCfg |=  (uint8)  USBUART_ARB_EPX_CFG_DMA_REQ;
 1117              		.loc 1 1424 0
 1118 00ba 2401     		lsls	r4, r4, #4
 1119 00bc 2B5D     		ldrb	r3, [r5, r4]	@ zero_extendqisi2
 1120 00be 43F00203 		orr	r3, r3, #2
 1121 00c2 2B55     		strb	r3, [r5, r4]
1425:Generated_Source\PSoC5/USBUART.c ****                 USBUART_ARB_EP_BASE.arbEp[epNumber].epCfg &=  (uint8) ~USBUART_ARB_EPX_CFG_DMA_REQ;
 1122              		.loc 1 1425 0
 1123 00c4 2B5D     		ldrb	r3, [r5, r4]	@ zero_extendqisi2
 1124 00c6 03F0FD03 		and	r3, r3, #253
 1125 00ca 2B55     		strb	r3, [r5, r4]
 1126 00cc BDE8F081 		pop	{r4, r5, r6, r7, r8, pc}
 1127              	.LVL90:
 1128              	.L75:
1426:Generated_Source\PSoC5/USBUART.c **** 
1427:Generated_Source\PSoC5/USBUART.c ****                 /* IN endpoint will be armed in ARB_ISR(source: IN_BUF_FULL) after first DMA transf
1428:Generated_Source\PSoC5/USBUART.c ****             }
1429:Generated_Source\PSoC5/USBUART.c ****             else
1430:Generated_Source\PSoC5/USBUART.c ****             {
1431:Generated_Source\PSoC5/USBUART.c ****                 /* When zero-length packet: arm IN endpoint directly. */
1432:Generated_Source\PSoC5/USBUART.c ****                 USBUART_SIE_EP_BASE.sieEp[epNumber].epCr0 = USBUART_EP[epNumber].epMode;
 1129              		.loc 1 1432 0
 1130 00d0 04EB4402 		add	r2, r4, r4, lsl #1
 1131 00d4 9300     		lsls	r3, r2, #2
 1132 00d6 054A     		ldr	r2, .L78
 1133 00d8 1344     		add	r3, r3, r2
 1134 00da 5A79     		ldrb	r2, [r3, #5]	@ zero_extendqisi2
 1135 00dc D2B2     		uxtb	r2, r2
 1136 00de 2401     		lsls	r4, r4, #4
 1137 00e0 074B     		ldr	r3, .L78+20
 1138 00e2 1A55     		strb	r2, [r3, r4]
 1139 00e4 BDE8F081 		pop	{r4, r5, r6, r7, r8, pc}
 1140              	.LVL91:
 1141              	.L77:
 1142              		.cfi_def_cfa_offset 0
 1143              		.cfi_restore 4
 1144              		.cfi_restore 5
 1145              		.cfi_restore 6
 1146              		.cfi_restore 7
 1147              		.cfi_restore 8
 1148              		.cfi_restore 14
 1149 00e8 7047     		bx	lr
 1150              	.L79:
 1151 00ea 00BF     		.align	2
 1152              	.L78:
 1153 00ec 00000000 		.word	USBUART_EP
 1154 00f0 FC5F0040 		.word	1073766396
 1155 00f4 00000000 		.word	USBUART_DmaTd
ARM GAS  C:\Users\ingan\AppData\Local\Temp\ccMtFi7x.s 			page 47


 1156 00f8 00000000 		.word	USBUART_DmaChan
 1157 00fc 70600040 		.word	1073766512
 1158 0100 FE5F0040 		.word	1073766398
 1159              		.cfi_endproc
 1160              	.LFE13:
 1161              		.size	USBUART_LoadInEP, .-USBUART_LoadInEP
 1162              		.section	.text.USBUART_ReadOutEP,"ax",%progbits
 1163              		.align	2
 1164              		.global	USBUART_ReadOutEP
 1165              		.thumb
 1166              		.thumb_func
 1167              		.type	USBUART_ReadOutEP, %function
 1168              	USBUART_ReadOutEP:
 1169              	.LFB14:
1433:Generated_Source\PSoC5/USBUART.c ****             }
1434:Generated_Source\PSoC5/USBUART.c ****         #endif /* (USBUART_EP_MANAGEMENT_DMA_MANUAL) */
1435:Generated_Source\PSoC5/USBUART.c **** 
1436:Generated_Source\PSoC5/USBUART.c ****         #if (USBUART_EP_MANAGEMENT_DMA_AUTO)
1437:Generated_Source\PSoC5/USBUART.c ****             if (pData != NULL)
1438:Generated_Source\PSoC5/USBUART.c ****             {
1439:Generated_Source\PSoC5/USBUART.c ****             #if (CY_PSOC4)
1440:Generated_Source\PSoC5/USBUART.c ****                 uint32 channelNum = (uint32) USBUART_DmaChan[epNumber];
1441:Generated_Source\PSoC5/USBUART.c **** 
1442:Generated_Source\PSoC5/USBUART.c ****                 /* Store address of buffer. */
1443:Generated_Source\PSoC5/USBUART.c ****                 USBUART_DmaEpBufferAddrBackup[epNumber] = (uint32) pData;
1444:Generated_Source\PSoC5/USBUART.c **** 
1445:Generated_Source\PSoC5/USBUART.c ****                 /* Disable DMA channel: start configuration. */
1446:Generated_Source\PSoC5/USBUART.c ****                 USBUART_CyDmaChDisable(channelNum);
1447:Generated_Source\PSoC5/USBUART.c **** 
1448:Generated_Source\PSoC5/USBUART.c ****                 /* Set destination address. */
1449:Generated_Source\PSoC5/USBUART.c ****                 USBUART_CyDmaSetDstAddress(channelNum, USBUART_DMA_DESCR0, (void*) &USBUART_ARB_EP_
1450:Generated_Source\PSoC5/USBUART.c ****                 USBUART_CyDmaSetDstAddress(channelNum, USBUART_DMA_DESCR1, (void*) &USBUART_ARB_EP_
1451:Generated_Source\PSoC5/USBUART.c **** 
1452:Generated_Source\PSoC5/USBUART.c ****                 /* Configure DMA descriptor. */
1453:Generated_Source\PSoC5/USBUART.c ****                 USBUART_CyDmaSetConfiguration(channelNum, USBUART_DMA_DESCR0, USBUART_DMA_COMMON_CF
1454:Generated_Source\PSoC5/USBUART.c ****                                                         CYDMA_BYTE | CYDMA_ELEMENT_WORD | CYDMA_INC
1455:Generated_Source\PSoC5/USBUART.c **** 
1456:Generated_Source\PSoC5/USBUART.c ****                 /* Configure DMA descriptor. */
1457:Generated_Source\PSoC5/USBUART.c ****                 USBUART_CyDmaSetConfiguration(channelNum, USBUART_DMA_DESCR1, USBUART_DMA_COMMON_CF
1458:Generated_Source\PSoC5/USBUART.c ****                                                         CYDMA_BYTE | CYDMA_ELEMENT_WORD | CYDMA_INC
1459:Generated_Source\PSoC5/USBUART.c **** 
1460:Generated_Source\PSoC5/USBUART.c ****                 /* Enable interrupt from DMA channel. */
1461:Generated_Source\PSoC5/USBUART.c ****                 USBUART_CyDmaSetInterruptMask(channelNum);
1462:Generated_Source\PSoC5/USBUART.c **** 
1463:Generated_Source\PSoC5/USBUART.c **** 
1464:Generated_Source\PSoC5/USBUART.c ****                 /* Enable DMA channel: configuration complete. */
1465:Generated_Source\PSoC5/USBUART.c ****                 USBUART_CyDmaChEnable(channelNum);
1466:Generated_Source\PSoC5/USBUART.c **** 
1467:Generated_Source\PSoC5/USBUART.c ****             #else
1468:Generated_Source\PSoC5/USBUART.c ****                 (void) CyDmaChDisable(USBUART_DmaChan[epNumber]);
1469:Generated_Source\PSoC5/USBUART.c **** 
1470:Generated_Source\PSoC5/USBUART.c ****                 #if (USBUART_EP_DMA_AUTO_OPT == 0u)
1471:Generated_Source\PSoC5/USBUART.c ****                     USBUART_inLength[epNumber] = length;
1472:Generated_Source\PSoC5/USBUART.c ****                     USBUART_inDataPointer[epNumber] = pData;
1473:Generated_Source\PSoC5/USBUART.c **** 
1474:Generated_Source\PSoC5/USBUART.c ****                     /* Configure DMA to send data only for first burst */
1475:Generated_Source\PSoC5/USBUART.c ****                     (void) CyDmaTdSetConfiguration(USBUART_DmaTd[epNumber],
ARM GAS  C:\Users\ingan\AppData\Local\Temp\ccMtFi7x.s 			page 48


1476:Generated_Source\PSoC5/USBUART.c ****                         (length > USBUART_DMA_BYTES_PER_BURST) ? USBUART_DMA_BYTES_PER_BURST : leng
1477:Generated_Source\PSoC5/USBUART.c ****                         USBUART_DmaNextTd[epNumber], TD_TERMIN_EN | TD_INC_SRC_ADR);
1478:Generated_Source\PSoC5/USBUART.c ****                     (void) CyDmaTdSetAddress(USBUART_DmaTd[epNumber], LO16((uint32) pData),
1479:Generated_Source\PSoC5/USBUART.c ****                                                                                LO16((uint32) &USBUA
1480:Generated_Source\PSoC5/USBUART.c **** 
1481:Generated_Source\PSoC5/USBUART.c ****                     /* The second TD will be executed only when the first one fails.
1482:Generated_Source\PSoC5/USBUART.c ****                     *  The intention of this TD is to generate NRQ interrupt
1483:Generated_Source\PSoC5/USBUART.c ****                     *  and repeat 2 last bytes of the first burst.
1484:Generated_Source\PSoC5/USBUART.c ****                     */
1485:Generated_Source\PSoC5/USBUART.c ****                     (void) CyDmaTdSetConfiguration(USBUART_DmaNextTd[epNumber], 1u,
1486:Generated_Source\PSoC5/USBUART.c ****                                                    USBUART_DmaNextTd[epNumber],
1487:Generated_Source\PSoC5/USBUART.c ****                                                    USBUART_epX_TD_TERMOUT_EN[epNumber]);
1488:Generated_Source\PSoC5/USBUART.c **** 
1489:Generated_Source\PSoC5/USBUART.c ****                     /* Configure DmaNextTd to clear Data Ready status. */
1490:Generated_Source\PSoC5/USBUART.c ****                     (void) CyDmaTdSetAddress(USBUART_DmaNextTd[epNumber], LO16((uint32) &clearInDat
1491:Generated_Source\PSoC5/USBUART.c ****                                                                                    LO16((uint32) &U
1492:Generated_Source\PSoC5/USBUART.c ****                 #else
1493:Generated_Source\PSoC5/USBUART.c ****                     /* Configure DMA to send all data. */
1494:Generated_Source\PSoC5/USBUART.c ****                     (void) CyDmaTdSetConfiguration(USBUART_DmaTd[epNumber], length,
1495:Generated_Source\PSoC5/USBUART.c ****                                                    USBUART_DmaTd[epNumber], TD_TERMIN_EN | TD_INC_S
1496:Generated_Source\PSoC5/USBUART.c ****                     (void) CyDmaTdSetAddress(USBUART_DmaTd[epNumber], LO16((uint32) pData),
1497:Generated_Source\PSoC5/USBUART.c ****                                                                                LO16((uint32) &USBUA
1498:Generated_Source\PSoC5/USBUART.c ****                 #endif /* (USBUART_EP_DMA_AUTO_OPT == 0u) */
1499:Generated_Source\PSoC5/USBUART.c **** 
1500:Generated_Source\PSoC5/USBUART.c ****                 /* Clear any potential pending DMA requests before starting DMA channel to transfer
1501:Generated_Source\PSoC5/USBUART.c ****                 (void) CyDmaClearPendingDrq(USBUART_DmaChan[epNumber]);
1502:Generated_Source\PSoC5/USBUART.c ****                 /* Enable DMA. */
1503:Generated_Source\PSoC5/USBUART.c ****                 (void) CyDmaChSetInitialTd(USBUART_DmaChan[epNumber], USBUART_DmaTd[epNumber]);
1504:Generated_Source\PSoC5/USBUART.c ****                 (void) CyDmaChEnable(USBUART_DmaChan[epNumber], 1u);
1505:Generated_Source\PSoC5/USBUART.c ****             #endif /* (CY_PSOC4) */
1506:Generated_Source\PSoC5/USBUART.c ****             }
1507:Generated_Source\PSoC5/USBUART.c ****             else
1508:Generated_Source\PSoC5/USBUART.c ****             {
1509:Generated_Source\PSoC5/USBUART.c ****                 /* IN endpoint buffer (32 bytes) will shortly be preloaded by DMA. */
1510:Generated_Source\PSoC5/USBUART.c ****                 USBUART_EP[epNumber].apiEpState = USBUART_NO_EVENT_PENDING;
1511:Generated_Source\PSoC5/USBUART.c **** 
1512:Generated_Source\PSoC5/USBUART.c ****                 if (length > 0u)
1513:Generated_Source\PSoC5/USBUART.c ****                 {
1514:Generated_Source\PSoC5/USBUART.c ****                 #if (CY_PSOC4)
1515:Generated_Source\PSoC5/USBUART.c ****                     uint32 lengthDescr0, lengthDescr1;
1516:Generated_Source\PSoC5/USBUART.c ****                     uint32 channelNum = (uint32) USBUART_DmaChan[epNumber];
1517:Generated_Source\PSoC5/USBUART.c **** 
1518:Generated_Source\PSoC5/USBUART.c ****                     /* Get number of full bursts. */
1519:Generated_Source\PSoC5/USBUART.c ****                     USBUART_DmaEpBurstCnt[epNumber] = (uint8) (length / USBUART_DMA_BYTES_PER_BURST
1520:Generated_Source\PSoC5/USBUART.c **** 
1521:Generated_Source\PSoC5/USBUART.c ****                     /* Get number of elements in the last burst. */
1522:Generated_Source\PSoC5/USBUART.c ****                     USBUART_DmaEpLastBurstEl[epNumber] = (uint8) (length % USBUART_DMA_BYTES_PER_BU
1523:Generated_Source\PSoC5/USBUART.c **** 
1524:Generated_Source\PSoC5/USBUART.c ****                     /* Get total number of bursts. */
1525:Generated_Source\PSoC5/USBUART.c ****                     USBUART_DmaEpBurstCnt[epNumber] += (0u != USBUART_DmaEpLastBurstEl[epNumber]) ?
1526:Generated_Source\PSoC5/USBUART.c **** 
1527:Generated_Source\PSoC5/USBUART.c ****                     /* Adjust number of data elements transferred in last burst. */
1528:Generated_Source\PSoC5/USBUART.c ****                     USBUART_DmaEpLastBurstEl[epNumber] = (0u != USBUART_DmaEpLastBurstEl[epNumber])
1529:Generated_Source\PSoC5/USBUART.c ****                                                                           (USBUART_DmaEpLastBurstEl
1530:Generated_Source\PSoC5/USBUART.c ****                                                                           (USBUART_DMA_BYTES_PER_BU
1531:Generated_Source\PSoC5/USBUART.c **** 
1532:Generated_Source\PSoC5/USBUART.c ****                     /* Get number of data elements to transfer for descriptor 0 and 1. */
ARM GAS  C:\Users\ingan\AppData\Local\Temp\ccMtFi7x.s 			page 49


1533:Generated_Source\PSoC5/USBUART.c ****                     lengthDescr0 = (1u == USBUART_DmaEpBurstCnt[epNumber]) ? USBUART_DmaEpLastBurst
1534:Generated_Source\PSoC5/USBUART.c ****                     lengthDescr1 = (2u == USBUART_DmaEpBurstCnt[epNumber]) ? USBUART_DmaEpLastBurst
1535:Generated_Source\PSoC5/USBUART.c **** 
1536:Generated_Source\PSoC5/USBUART.c **** 
1537:Generated_Source\PSoC5/USBUART.c ****                     /* Mark which descriptor is last one to execute. */
1538:Generated_Source\PSoC5/USBUART.c ****                     USBUART_DmaEpLastBurstEl[epNumber] |= (0u != (USBUART_DmaEpBurstCnt[epNumber] &
1539:Generated_Source\PSoC5/USBUART.c ****                                                                             USBUART_DMA_DESCR0_MASK
1540:Generated_Source\PSoC5/USBUART.c **** 
1541:Generated_Source\PSoC5/USBUART.c ****                     /* Restore DMA settings for current transfer. */
1542:Generated_Source\PSoC5/USBUART.c ****                     USBUART_CyDmaChDisable(channelNum);
1543:Generated_Source\PSoC5/USBUART.c **** 
1544:Generated_Source\PSoC5/USBUART.c ****                     /* Restore destination address for input endpoint. */
1545:Generated_Source\PSoC5/USBUART.c ****                     USBUART_CyDmaSetSrcAddress(channelNum, USBUART_DMA_DESCR0, (void*) ((uint32) US
1546:Generated_Source\PSoC5/USBUART.c ****                     USBUART_CyDmaSetSrcAddress(channelNum, USBUART_DMA_DESCR1, (void*) ((uint32) US
1547:Generated_Source\PSoC5/USBUART.c ****                                                                                                    
1548:Generated_Source\PSoC5/USBUART.c **** 
1549:Generated_Source\PSoC5/USBUART.c ****                     /* Set number of elements to transfer. */
1550:Generated_Source\PSoC5/USBUART.c ****                     USBUART_CyDmaSetNumDataElements(channelNum, USBUART_DMA_DESCR0, lengthDescr0);
1551:Generated_Source\PSoC5/USBUART.c ****                     USBUART_CyDmaSetNumDataElements(channelNum, USBUART_DMA_DESCR1, lengthDescr1);
1552:Generated_Source\PSoC5/USBUART.c **** 
1553:Generated_Source\PSoC5/USBUART.c ****                     /* Validate descriptor 0 and command to start with it. */
1554:Generated_Source\PSoC5/USBUART.c ****                     USBUART_CyDmaValidateDescriptor(channelNum, USBUART_DMA_DESCR0);
1555:Generated_Source\PSoC5/USBUART.c ****                     USBUART_CyDmaSetDescriptor0Next(channelNum);
1556:Generated_Source\PSoC5/USBUART.c **** 
1557:Generated_Source\PSoC5/USBUART.c ****                     /* Validate descriptor 1. */
1558:Generated_Source\PSoC5/USBUART.c ****                     if (USBUART_DmaEpBurstCnt[epNumber] > 1u)
1559:Generated_Source\PSoC5/USBUART.c ****                     {
1560:Generated_Source\PSoC5/USBUART.c ****                         USBUART_CyDmaValidateDescriptor(channelNum, USBUART_DMA_DESCR1); 
1561:Generated_Source\PSoC5/USBUART.c ****                     }                   
1562:Generated_Source\PSoC5/USBUART.c **** 
1563:Generated_Source\PSoC5/USBUART.c ****                     /* Adjust burst counter taking to account: 2 valid descriptors and interrupt tr
1564:Generated_Source\PSoC5/USBUART.c ****                     USBUART_DmaEpBurstCnt[epNumber] = USBUART_DMA_GET_BURST_CNT(USBUART_DmaEpBurstC
1565:Generated_Source\PSoC5/USBUART.c **** 
1566:Generated_Source\PSoC5/USBUART.c ****                     /* Enable DMA channel: configuration complete. */
1567:Generated_Source\PSoC5/USBUART.c ****                     USBUART_CyDmaChEnable(channelNum);
1568:Generated_Source\PSoC5/USBUART.c **** 
1569:Generated_Source\PSoC5/USBUART.c ****                 #elif (USBUART_EP_DMA_AUTO_OPT == 0u)
1570:Generated_Source\PSoC5/USBUART.c ****                     USBUART_inLength[epNumber]  = length;
1571:Generated_Source\PSoC5/USBUART.c ****                     USBUART_inBufFull[epNumber] = 0u;
1572:Generated_Source\PSoC5/USBUART.c **** 
1573:Generated_Source\PSoC5/USBUART.c ****                     (void) CyDmaChDisable(USBUART_DmaChan[epNumber]);
1574:Generated_Source\PSoC5/USBUART.c ****                     /* Configure DMA to send data only for first burst. */
1575:Generated_Source\PSoC5/USBUART.c ****                     (void) CyDmaTdSetConfiguration(
1576:Generated_Source\PSoC5/USBUART.c ****                         USBUART_DmaTd[epNumber], (length > USBUART_DMA_BYTES_PER_BURST) ?
1577:Generated_Source\PSoC5/USBUART.c ****                         USBUART_DMA_BYTES_PER_BURST : length,
1578:Generated_Source\PSoC5/USBUART.c ****                         USBUART_DmaNextTd[epNumber], TD_TERMIN_EN | TD_INC_SRC_ADR );
1579:Generated_Source\PSoC5/USBUART.c ****                     (void) CyDmaTdSetAddress(USBUART_DmaTd[epNumber], LO16((uint32)  USBUART_inData
1580:Generated_Source\PSoC5/USBUART.c ****                                                                                LO16((uint32) &USBUA
1581:Generated_Source\PSoC5/USBUART.c ****                     /* Clear Any potential pending DMA requests before starting DMA channel to tran
1582:Generated_Source\PSoC5/USBUART.c ****                     (void) CyDmaClearPendingDrq(USBUART_DmaChan[epNumber]);
1583:Generated_Source\PSoC5/USBUART.c ****                     /* Enable DMA. */
1584:Generated_Source\PSoC5/USBUART.c ****                     (void) CyDmaChSetInitialTd(USBUART_DmaChan[epNumber], USBUART_DmaTd[epNumber]);
1585:Generated_Source\PSoC5/USBUART.c ****                     (void) CyDmaChEnable(USBUART_DmaChan[epNumber], 1u);
1586:Generated_Source\PSoC5/USBUART.c ****                 #endif /* (CY_PSOC4) */
1587:Generated_Source\PSoC5/USBUART.c **** 
1588:Generated_Source\PSoC5/USBUART.c ****                 #if !defined (USBUART_MANUAL_IN_EP_ARM)
1589:Generated_Source\PSoC5/USBUART.c ****                     /* Set IN data ready to generate DMA request to load data into endpoint buffer.
ARM GAS  C:\Users\ingan\AppData\Local\Temp\ccMtFi7x.s 			page 50


1590:Generated_Source\PSoC5/USBUART.c ****                     USBUART_ARB_EP_BASE.arbEp[epNumber].epCfg |= USBUART_ARB_EPX_CFG_IN_DATA_RDY;
1591:Generated_Source\PSoC5/USBUART.c ****                 #endif  /* (USBUART_MANUAL_IN_EP_ARM) */
1592:Generated_Source\PSoC5/USBUART.c **** 
1593:Generated_Source\PSoC5/USBUART.c ****                     /* IN endpoint will be armed in ARB_ISR(source: IN_BUF_FULL) after first DMA tr
1594:Generated_Source\PSoC5/USBUART.c ****                 }
1595:Generated_Source\PSoC5/USBUART.c ****                 else
1596:Generated_Source\PSoC5/USBUART.c ****                 {
1597:Generated_Source\PSoC5/USBUART.c ****                     /* When zero-length packet: arm IN endpoint directly. */
1598:Generated_Source\PSoC5/USBUART.c ****                     USBUART_SIE_EP_BASE.sieEp[epNumber].epCr0 = USBUART_EP[epNumber].epMode;
1599:Generated_Source\PSoC5/USBUART.c ****                 }
1600:Generated_Source\PSoC5/USBUART.c ****             }
1601:Generated_Source\PSoC5/USBUART.c ****         #endif /* (USBUART_EP_MANAGEMENT_DMA_AUTO) */
1602:Generated_Source\PSoC5/USBUART.c ****     #endif /* (USBUART_EP_MANAGEMENT_MANUAL) */
1603:Generated_Source\PSoC5/USBUART.c ****     }
1604:Generated_Source\PSoC5/USBUART.c **** }
1605:Generated_Source\PSoC5/USBUART.c **** 
1606:Generated_Source\PSoC5/USBUART.c **** 
1607:Generated_Source\PSoC5/USBUART.c **** /*******************************************************************************
1608:Generated_Source\PSoC5/USBUART.c **** * Function Name: USBUART_ReadOutEP
1609:Generated_Source\PSoC5/USBUART.c **** ****************************************************************************//**
1610:Generated_Source\PSoC5/USBUART.c **** *
1611:Generated_Source\PSoC5/USBUART.c **** *   This function performs different functionality depending on the Component’s
1612:Generated_Source\PSoC5/USBUART.c **** *   configured Endpoint Buffer Management. This parameter is defined in the
1613:Generated_Source\PSoC5/USBUART.c **** *   Descriptor Root in Component Configure window.
1614:Generated_Source\PSoC5/USBUART.c **** *
1615:Generated_Source\PSoC5/USBUART.c **** *   *Manual (Static/Dynamic Allocation):*
1616:Generated_Source\PSoC5/USBUART.c **** *   This function moves the specified number of bytes from endpoint buffer to
1617:Generated_Source\PSoC5/USBUART.c **** *   system RAM. The number of bytes actually transferred from endpoint buffer to
1618:Generated_Source\PSoC5/USBUART.c **** *   system RAM is the lesser of the actual number of bytes sent by the host or
1619:Generated_Source\PSoC5/USBUART.c **** *   the number of bytes requested by the length parameter.
1620:Generated_Source\PSoC5/USBUART.c **** *
1621:Generated_Source\PSoC5/USBUART.c **** *   *DMA with Manual Buffer Management:*
1622:Generated_Source\PSoC5/USBUART.c **** *   Configure DMA to transfer data from endpoint buffer to system RAM. Generate
1623:Generated_Source\PSoC5/USBUART.c **** *   a DMA request. The firmware must wait until the DMA completes the data
1624:Generated_Source\PSoC5/USBUART.c **** *   transfer after calling the USBUART_ReadOutEP() API. For example,
1625:Generated_Source\PSoC5/USBUART.c **** *   by checking EPstate:
1626:Generated_Source\PSoC5/USBUART.c **** *
1627:Generated_Source\PSoC5/USBUART.c **** *   \snippet /USBFS_sut_02.cydsn/main.c checking EPstatey
1628:Generated_Source\PSoC5/USBUART.c **** *
1629:Generated_Source\PSoC5/USBUART.c **** *   The USBFS_EnableOutEP() has to be called to allow host to write data into
1630:Generated_Source\PSoC5/USBUART.c **** *   the endpoint buffer after DMA has completed transfer data from OUT endpoint
1631:Generated_Source\PSoC5/USBUART.c **** *   buffer to SRAM.
1632:Generated_Source\PSoC5/USBUART.c **** *
1633:Generated_Source\PSoC5/USBUART.c **** *   *DMA with Automatic Buffer Management:*
1634:Generated_Source\PSoC5/USBUART.c **** *   Configure DMA. This is required only once and automatically generates DMA
1635:Generated_Source\PSoC5/USBUART.c **** *   requests as data arrives
1636:Generated_Source\PSoC5/USBUART.c **** *
1637:Generated_Source\PSoC5/USBUART.c **** *  \param epNumber: Contains the data endpoint number.
1638:Generated_Source\PSoC5/USBUART.c **** *            Valid values are between 1 and 8.
1639:Generated_Source\PSoC5/USBUART.c **** *  \param pData: A pointer to a data array from which the data for the endpoint
1640:Generated_Source\PSoC5/USBUART.c **** *         space is loaded.
1641:Generated_Source\PSoC5/USBUART.c **** *  \param length: The number of bytes to transfer from the USB Out endpoint and
1642:Generated_Source\PSoC5/USBUART.c **** *          loads it into data array. Valid values are between 0 and 1023. The
1643:Generated_Source\PSoC5/USBUART.c **** *          function moves fewer than the requested number of bytes if the host
1644:Generated_Source\PSoC5/USBUART.c **** *          sends fewer bytes than requested.
1645:Generated_Source\PSoC5/USBUART.c **** *
1646:Generated_Source\PSoC5/USBUART.c **** * \return
ARM GAS  C:\Users\ingan\AppData\Local\Temp\ccMtFi7x.s 			page 51


1647:Generated_Source\PSoC5/USBUART.c **** *  Number of bytes received, 0 for an invalid endpoint.
1648:Generated_Source\PSoC5/USBUART.c **** *
1649:Generated_Source\PSoC5/USBUART.c **** * \reentrant
1650:Generated_Source\PSoC5/USBUART.c **** *  No.
1651:Generated_Source\PSoC5/USBUART.c **** *
1652:Generated_Source\PSoC5/USBUART.c **** *******************************************************************************/
1653:Generated_Source\PSoC5/USBUART.c **** uint16 USBUART_ReadOutEP(uint8 epNumber, uint8 pData[], uint16 length)
1654:Generated_Source\PSoC5/USBUART.c ****                                                                         
1655:Generated_Source\PSoC5/USBUART.c **** {
 1170              		.loc 1 1655 0
 1171              		.cfi_startproc
 1172              		@ args = 0, pretend = 0, frame = 0
 1173              		@ frame_needed = 0, uses_anonymous_args = 0
 1174              	.LVL92:
 1175 0000 2DE9F843 		push	{r3, r4, r5, r6, r7, r8, r9, lr}
 1176              		.cfi_def_cfa_offset 32
 1177              		.cfi_offset 3, -32
 1178              		.cfi_offset 4, -28
 1179              		.cfi_offset 5, -24
 1180              		.cfi_offset 6, -20
 1181              		.cfi_offset 7, -16
 1182              		.cfi_offset 8, -12
 1183              		.cfi_offset 9, -8
 1184              		.cfi_offset 14, -4
1656:Generated_Source\PSoC5/USBUART.c ****     if ((pData != NULL) && (epNumber > USBUART_EP0) && (epNumber < USBUART_MAX_EP))
 1185              		.loc 1 1656 0
 1186 0004 0029     		cmp	r1, #0
 1187 0006 44D0     		beq	.L84
 1188 0008 0446     		mov	r4, r0
 1189 000a 1546     		mov	r5, r2
 1190 000c 0F46     		mov	r7, r1
 1191              		.loc 1 1656 0 is_stmt 0 discriminator 1
 1192 000e 0028     		cmp	r0, #0
 1193 0010 41D0     		beq	.L85
 1194              		.loc 1 1656 0 discriminator 2
 1195 0012 0828     		cmp	r0, #8
 1196 0014 41D8     		bhi	.L86
1657:Generated_Source\PSoC5/USBUART.c ****     {
1658:Generated_Source\PSoC5/USBUART.c ****     #if (!USBUART_EP_MANAGEMENT_DMA_AUTO)
1659:Generated_Source\PSoC5/USBUART.c ****         /* Adjust requested length to available data. */
1660:Generated_Source\PSoC5/USBUART.c ****         length = (length > USBUART_GetEPCount(epNumber)) ? USBUART_GetEPCount(epNumber) : length;
 1197              		.loc 1 1660 0 is_stmt 1
 1198 0016 FFF7FEFF 		bl	USBUART_GetEPCount
 1199              	.LVL93:
 1200 001a A842     		cmp	r0, r5
 1201 001c 03D2     		bcs	.L82
 1202              		.loc 1 1660 0 is_stmt 0 discriminator 1
 1203 001e 2046     		mov	r0, r4
 1204 0020 FFF7FEFF 		bl	USBUART_GetEPCount
 1205              	.LVL94:
 1206 0024 0546     		mov	r5, r0
 1207              	.L82:
 1208              	.LVL95:
1661:Generated_Source\PSoC5/USBUART.c ****     #endif /* (!USBUART_EP_MANAGEMENT_DMA_AUTO) */
1662:Generated_Source\PSoC5/USBUART.c **** 
1663:Generated_Source\PSoC5/USBUART.c ****     #if (USBUART_EP_MANAGEMENT_MANUAL)
1664:Generated_Source\PSoC5/USBUART.c ****         {
ARM GAS  C:\Users\ingan\AppData\Local\Temp\ccMtFi7x.s 			page 52


1665:Generated_Source\PSoC5/USBUART.c ****             /* Copy data using arbiter data register. */
1666:Generated_Source\PSoC5/USBUART.c ****             uint16 i;
1667:Generated_Source\PSoC5/USBUART.c ****             for (i = 0u; i < length; ++i)
1668:Generated_Source\PSoC5/USBUART.c ****             {
1669:Generated_Source\PSoC5/USBUART.c ****                 pData[i] = (uint8) USBUART_ARB_EP_BASE.arbEp[epNumber].rwDr;
1670:Generated_Source\PSoC5/USBUART.c ****             }
1671:Generated_Source\PSoC5/USBUART.c ****         }
1672:Generated_Source\PSoC5/USBUART.c **** 
1673:Generated_Source\PSoC5/USBUART.c ****         /* Arm OUT endpoint after data has been copied from endpoint buffer. */
1674:Generated_Source\PSoC5/USBUART.c ****         USBUART_EnableOutEP(epNumber);
1675:Generated_Source\PSoC5/USBUART.c ****     #else
1676:Generated_Source\PSoC5/USBUART.c **** 
1677:Generated_Source\PSoC5/USBUART.c ****         #if (CY_PSOC3 || CY_PSOC5LP)
1678:Generated_Source\PSoC5/USBUART.c ****             /* Initialize DMA if it was not initialized. */
1679:Generated_Source\PSoC5/USBUART.c ****             if (DMA_INVALID_TD == USBUART_DmaTd[epNumber])
 1209              		.loc 1 1679 0 is_stmt 1 discriminator 4
 1210 0026 1F4B     		ldr	r3, .L88
 1211 0028 1B5D     		ldrb	r3, [r3, r4]	@ zero_extendqisi2
 1212 002a FF2B     		cmp	r3, #255
 1213 002c 03D1     		bne	.L83
1680:Generated_Source\PSoC5/USBUART.c ****             {
1681:Generated_Source\PSoC5/USBUART.c ****                 USBUART_InitEP_DMA(epNumber, pData);
 1214              		.loc 1 1681 0
 1215 002e 3946     		mov	r1, r7
 1216 0030 2046     		mov	r0, r4
 1217 0032 FFF7FEFF 		bl	USBUART_InitEP_DMA
 1218              	.LVL96:
 1219              	.L83:
1682:Generated_Source\PSoC5/USBUART.c ****             }
1683:Generated_Source\PSoC5/USBUART.c ****         #endif /* (CY_PSOC3 || CY_PSOC5LP) */
1684:Generated_Source\PSoC5/USBUART.c **** 
1685:Generated_Source\PSoC5/USBUART.c ****         #if (USBUART_EP_MANAGEMENT_DMA_MANUAL)
1686:Generated_Source\PSoC5/USBUART.c ****         #if (CY_PSOC4)
1687:Generated_Source\PSoC5/USBUART.c ****         {
1688:Generated_Source\PSoC5/USBUART.c ****             uint32 channelNum = (uint32) USBUART_DmaChan[epNumber];
1689:Generated_Source\PSoC5/USBUART.c **** 
1690:Generated_Source\PSoC5/USBUART.c ****             /* Disable DMA channel: start configuration. */
1691:Generated_Source\PSoC5/USBUART.c ****             USBUART_CyDmaChDisable(channelNum);
1692:Generated_Source\PSoC5/USBUART.c **** 
1693:Generated_Source\PSoC5/USBUART.c ****             /* Configure source and destination. */
1694:Generated_Source\PSoC5/USBUART.c ****             USBUART_CyDmaSetSrcAddress(channelNum, USBUART_DMA_DESCR0, (void*) &USBUART_ARB_EP_BASE
1695:Generated_Source\PSoC5/USBUART.c ****             USBUART_CyDmaSetDstAddress(channelNum, USBUART_DMA_DESCR0, (void*) pData);
1696:Generated_Source\PSoC5/USBUART.c **** 
1697:Generated_Source\PSoC5/USBUART.c ****             /* Configure DMA descriptor. */
1698:Generated_Source\PSoC5/USBUART.c ****             USBUART_CyDmaSetConfiguration(channelNum, USBUART_DMA_DESCR0, USBUART_DMA_COMMON_CFG | 
1699:Generated_Source\PSoC5/USBUART.c ****                                                     CYDMA_BYTE | CYDMA_WORD_ELEMENT | CYDMA_INC_DST
1700:Generated_Source\PSoC5/USBUART.c **** 
1701:Generated_Source\PSoC5/USBUART.c ****             /* Validate descriptor to execute on following DMA request. */
1702:Generated_Source\PSoC5/USBUART.c ****             USBUART_CyDmaValidateDescriptor(channelNum, USBUART_DMA_DESCR0);
1703:Generated_Source\PSoC5/USBUART.c **** 
1704:Generated_Source\PSoC5/USBUART.c ****             /* Enable DMA channel: configuration complete. */
1705:Generated_Source\PSoC5/USBUART.c ****             USBUART_CyDmaChEnable(channelNum);
1706:Generated_Source\PSoC5/USBUART.c ****         }
1707:Generated_Source\PSoC5/USBUART.c ****         #else
1708:Generated_Source\PSoC5/USBUART.c ****             /* Configure DMA to transfer data. */
1709:Generated_Source\PSoC5/USBUART.c ****             (void) CyDmaChDisable(USBUART_DmaChan[epNumber]);
 1220              		.loc 1 1709 0
ARM GAS  C:\Users\ingan\AppData\Local\Temp\ccMtFi7x.s 			page 53


 1221 0036 DFF87480 		ldr	r8, .L88+8
 1222 003a 18F80400 		ldrb	r0, [r8, r4]	@ zero_extendqisi2
 1223 003e FFF7FEFF 		bl	CyDmaChDisable
 1224              	.LVL97:
1710:Generated_Source\PSoC5/USBUART.c ****             (void) CyDmaTdSetConfiguration(USBUART_DmaTd[epNumber], length, CY_DMA_DISABLE_TD, TD_T
 1225              		.loc 1 1710 0
 1226 0042 DFF86090 		ldr	r9, .L88
 1227 0046 1223     		movs	r3, #18
 1228 0048 FE22     		movs	r2, #254
 1229 004a 2946     		mov	r1, r5
 1230 004c 19F80400 		ldrb	r0, [r9, r4]	@ zero_extendqisi2
 1231 0050 FFF7FEFF 		bl	CyDmaTdSetConfiguration
 1232              	.LVL98:
1711:Generated_Source\PSoC5/USBUART.c ****             (void) CyDmaTdSetAddress(USBUART_DmaTd[epNumber], LO16((uint32) &USBUART_ARB_EP_BASE.ar
 1233              		.loc 1 1711 0
 1234 0054 2101     		lsls	r1, r4, #4
 1235 0056 0831     		adds	r1, r1, #8
 1236 0058 134E     		ldr	r6, .L88+4
 1237 005a 3144     		add	r1, r1, r6
 1238 005c 89B2     		uxth	r1, r1
 1239 005e BAB2     		uxth	r2, r7
 1240 0060 19F80400 		ldrb	r0, [r9, r4]	@ zero_extendqisi2
 1241 0064 FFF7FEFF 		bl	CyDmaTdSetAddress
 1242              	.LVL99:
1712:Generated_Source\PSoC5/USBUART.c **** 
1713:Generated_Source\PSoC5/USBUART.c ****             /* Enable DMA channel. */
1714:Generated_Source\PSoC5/USBUART.c ****             (void) CyDmaChSetInitialTd(USBUART_DmaChan[epNumber], USBUART_DmaTd[epNumber]);
 1243              		.loc 1 1714 0
 1244 0068 19F80410 		ldrb	r1, [r9, r4]	@ zero_extendqisi2
 1245 006c 18F80400 		ldrb	r0, [r8, r4]	@ zero_extendqisi2
 1246 0070 FFF7FEFF 		bl	CyDmaChSetInitialTd
 1247              	.LVL100:
1715:Generated_Source\PSoC5/USBUART.c ****             (void) CyDmaChEnable(USBUART_DmaChan[epNumber], 1u);
 1248              		.loc 1 1715 0
 1249 0074 0121     		movs	r1, #1
 1250 0076 18F80400 		ldrb	r0, [r8, r4]	@ zero_extendqisi2
 1251 007a FFF7FEFF 		bl	CyDmaChEnable
 1252              	.LVL101:
1716:Generated_Source\PSoC5/USBUART.c ****         #endif /* (CY_PSOC4) */
1717:Generated_Source\PSoC5/USBUART.c **** 
1718:Generated_Source\PSoC5/USBUART.c ****             /* Generate DMA request. */
1719:Generated_Source\PSoC5/USBUART.c ****             USBUART_ARB_EP_BASE.arbEp[epNumber].epCfg |=  (uint8)  USBUART_ARB_EPX_CFG_DMA_REQ;
 1253              		.loc 1 1719 0
 1254 007e 2401     		lsls	r4, r4, #4
 1255 0080 335D     		ldrb	r3, [r6, r4]	@ zero_extendqisi2
 1256 0082 43F00203 		orr	r3, r3, #2
 1257 0086 3355     		strb	r3, [r6, r4]
1720:Generated_Source\PSoC5/USBUART.c ****             USBUART_ARB_EP_BASE.arbEp[epNumber].epCfg &=  (uint8) ~USBUART_ARB_EPX_CFG_DMA_REQ;
 1258              		.loc 1 1720 0
 1259 0088 335D     		ldrb	r3, [r6, r4]	@ zero_extendqisi2
 1260 008a 03F0FD03 		and	r3, r3, #253
 1261 008e 3355     		strb	r3, [r6, r4]
 1262 0090 04E0     		b	.L81
 1263              	.LVL102:
 1264              	.L84:
1721:Generated_Source\PSoC5/USBUART.c **** 
1722:Generated_Source\PSoC5/USBUART.c ****             /* OUT endpoint has to be armed again by user when DMA transfers have been completed.
ARM GAS  C:\Users\ingan\AppData\Local\Temp\ccMtFi7x.s 			page 54


1723:Generated_Source\PSoC5/USBUART.c ****             * NO_EVENT_PENDING: notifies that data has been copied from endpoint buffer.
1724:Generated_Source\PSoC5/USBUART.c ****             */
1725:Generated_Source\PSoC5/USBUART.c **** 
1726:Generated_Source\PSoC5/USBUART.c ****         #endif /* (USBUART_EP_MANAGEMENT_DMA_MANUAL) */
1727:Generated_Source\PSoC5/USBUART.c **** 
1728:Generated_Source\PSoC5/USBUART.c ****         #if (USBUART_EP_MANAGEMENT_DMA_AUTO)
1729:Generated_Source\PSoC5/USBUART.c ****         #if (CY_PSOC4)
1730:Generated_Source\PSoC5/USBUART.c ****         {
1731:Generated_Source\PSoC5/USBUART.c ****             uint32 channelNum = (uint32) USBUART_DmaChan[epNumber];
1732:Generated_Source\PSoC5/USBUART.c ****             uint32 lengthDescr0, lengthDescr1;
1733:Generated_Source\PSoC5/USBUART.c **** 
1734:Generated_Source\PSoC5/USBUART.c ****             /* Get number of full bursts. */
1735:Generated_Source\PSoC5/USBUART.c ****             USBUART_DmaEpBurstCnt[epNumber] = (uint8) (length / USBUART_DMA_BYTES_PER_BURST);
1736:Generated_Source\PSoC5/USBUART.c **** 
1737:Generated_Source\PSoC5/USBUART.c ****             /* Get number of elements in the last burst. */
1738:Generated_Source\PSoC5/USBUART.c ****             USBUART_DmaEpLastBurstEl[epNumber] = (uint8) (length % USBUART_DMA_BYTES_PER_BURST);
1739:Generated_Source\PSoC5/USBUART.c **** 
1740:Generated_Source\PSoC5/USBUART.c ****             /* Get total number of bursts. */
1741:Generated_Source\PSoC5/USBUART.c ****             USBUART_DmaEpBurstCnt[epNumber] += (0u != USBUART_DmaEpLastBurstEl[epNumber]) ? 1u : 0u
1742:Generated_Source\PSoC5/USBUART.c **** 
1743:Generated_Source\PSoC5/USBUART.c ****             /* Adjust number of the data elements transfered in last burst. */
1744:Generated_Source\PSoC5/USBUART.c ****             USBUART_DmaEpLastBurstEl[epNumber] = (0u != USBUART_DmaEpLastBurstEl[epNumber]) ?
1745:Generated_Source\PSoC5/USBUART.c ****                                                                   (USBUART_DmaEpLastBurstEl[epNumbe
1746:Generated_Source\PSoC5/USBUART.c ****                                                                   (USBUART_DMA_BYTES_PER_BURST - 1u
1747:Generated_Source\PSoC5/USBUART.c **** 
1748:Generated_Source\PSoC5/USBUART.c ****             /* Get number of data elements to transfer for descriptor 0 and 1. */
1749:Generated_Source\PSoC5/USBUART.c ****             lengthDescr0 = (1u == USBUART_DmaEpBurstCnt[epNumber]) ? USBUART_DmaEpLastBurstEl[epNum
1750:Generated_Source\PSoC5/USBUART.c ****             lengthDescr1 = (2u == USBUART_DmaEpBurstCnt[epNumber]) ? USBUART_DmaEpLastBurstEl[epNum
1751:Generated_Source\PSoC5/USBUART.c **** 
1752:Generated_Source\PSoC5/USBUART.c ****             /* Mark if revert number of data elements in descriptor after transfer completion. */
1753:Generated_Source\PSoC5/USBUART.c ****             USBUART_DmaEpLastBurstEl[epNumber] |= (USBUART_DmaEpBurstCnt[epNumber] > 2u) ? USBUART_
1754:Generated_Source\PSoC5/USBUART.c **** 
1755:Generated_Source\PSoC5/USBUART.c ****             /* Mark last descriptor to be executed. */
1756:Generated_Source\PSoC5/USBUART.c ****             USBUART_DmaEpLastBurstEl[epNumber] |= (0u != (USBUART_DmaEpBurstCnt[epNumber] & 0x1u)) 
1757:Generated_Source\PSoC5/USBUART.c ****                                                                     USBUART_DMA_DESCR0_MASK : USBUA
1758:Generated_Source\PSoC5/USBUART.c **** 
1759:Generated_Source\PSoC5/USBUART.c ****             /* Store address of buffer and burst counter for endpoint. */
1760:Generated_Source\PSoC5/USBUART.c ****             USBUART_DmaEpBufferAddrBackup[epNumber] = (uint32) pData;
1761:Generated_Source\PSoC5/USBUART.c ****             USBUART_DmaEpBurstCntBackup[epNumber]   = USBUART_DmaEpBurstCnt[epNumber];
1762:Generated_Source\PSoC5/USBUART.c **** 
1763:Generated_Source\PSoC5/USBUART.c ****             /* Adjust burst counter taking to account: 2 valid descriptors and interrupt trigger af
1764:Generated_Source\PSoC5/USBUART.c ****             USBUART_DmaEpBurstCnt[epNumber] = USBUART_DMA_GET_BURST_CNT(USBUART_DmaEpBurstCnt[epNum
1765:Generated_Source\PSoC5/USBUART.c **** 
1766:Generated_Source\PSoC5/USBUART.c ****             /* Disable DMA channel: start configuration. */
1767:Generated_Source\PSoC5/USBUART.c ****             USBUART_CyDmaChDisable(channelNum);
1768:Generated_Source\PSoC5/USBUART.c **** 
1769:Generated_Source\PSoC5/USBUART.c ****             /* Set destination address. */
1770:Generated_Source\PSoC5/USBUART.c ****             USBUART_CyDmaSetSrcAddress(channelNum, USBUART_DMA_DESCR0, (void*) &USBUART_ARB_EP_BASE
1771:Generated_Source\PSoC5/USBUART.c ****             USBUART_CyDmaSetSrcAddress(channelNum, USBUART_DMA_DESCR1, (void*) &USBUART_ARB_EP_BASE
1772:Generated_Source\PSoC5/USBUART.c **** 
1773:Generated_Source\PSoC5/USBUART.c ****             USBUART_CyDmaSetDstAddress(channelNum, USBUART_DMA_DESCR0, (void*) ((uint32) pData));
1774:Generated_Source\PSoC5/USBUART.c ****             USBUART_CyDmaSetDstAddress(channelNum, USBUART_DMA_DESCR1, (void*) ((uint32) pData + US
1775:Generated_Source\PSoC5/USBUART.c **** 
1776:Generated_Source\PSoC5/USBUART.c ****             /* Configure DMA descriptor. */
1777:Generated_Source\PSoC5/USBUART.c ****             USBUART_CyDmaSetConfiguration(channelNum, USBUART_DMA_DESCR0, USBUART_DMA_COMMON_CFG  |
1778:Generated_Source\PSoC5/USBUART.c ****                                                     CYDMA_BYTE | CYDMA_WORD_ELEMENT | CYDMA_INC_DST
1779:Generated_Source\PSoC5/USBUART.c **** 
ARM GAS  C:\Users\ingan\AppData\Local\Temp\ccMtFi7x.s 			page 55


1780:Generated_Source\PSoC5/USBUART.c ****             /* Configure DMA descriptor. */
1781:Generated_Source\PSoC5/USBUART.c ****             USBUART_CyDmaSetConfiguration(channelNum, USBUART_DMA_DESCR1, USBUART_DMA_COMMON_CFG  |
1782:Generated_Source\PSoC5/USBUART.c ****                                                     CYDMA_BYTE | CYDMA_WORD_ELEMENT | CYDMA_INC_DST
1783:Generated_Source\PSoC5/USBUART.c **** 
1784:Generated_Source\PSoC5/USBUART.c ****             /* Enable interrupt from DMA channel. */
1785:Generated_Source\PSoC5/USBUART.c ****             USBUART_CyDmaSetInterruptMask(channelNum);
1786:Generated_Source\PSoC5/USBUART.c **** 
1787:Generated_Source\PSoC5/USBUART.c ****             /* Validate DMA descriptor 0 and 1. */
1788:Generated_Source\PSoC5/USBUART.c ****             USBUART_CyDmaValidateDescriptor(channelNum, USBUART_DMA_DESCR0);
1789:Generated_Source\PSoC5/USBUART.c **** 
1790:Generated_Source\PSoC5/USBUART.c ****             if (USBUART_DmaEpBurstCntBackup[epNumber] > 1u)
1791:Generated_Source\PSoC5/USBUART.c ****             {
1792:Generated_Source\PSoC5/USBUART.c ****                 USBUART_CyDmaValidateDescriptor(channelNum, USBUART_DMA_DESCR1);
1793:Generated_Source\PSoC5/USBUART.c ****             }
1794:Generated_Source\PSoC5/USBUART.c **** 
1795:Generated_Source\PSoC5/USBUART.c ****             /* Enable DMA channel: configuration complete. */
1796:Generated_Source\PSoC5/USBUART.c ****             USBUART_CyDmaChEnable(channelNum);
1797:Generated_Source\PSoC5/USBUART.c ****         }
1798:Generated_Source\PSoC5/USBUART.c ****         #else
1799:Generated_Source\PSoC5/USBUART.c ****             (void) CyDmaChDisable(USBUART_DmaChan[epNumber]);
1800:Generated_Source\PSoC5/USBUART.c ****             (void) CyDmaTdSetConfiguration(USBUART_DmaTd[epNumber], length,  USBUART_DmaTd[epNumber
1801:Generated_Source\PSoC5/USBUART.c ****             (void) CyDmaTdSetAddress(USBUART_DmaTd[epNumber], LO16((uint32) &USBUART_ARB_EP_BASE.ar
1802:Generated_Source\PSoC5/USBUART.c **** 
1803:Generated_Source\PSoC5/USBUART.c ****             /* Clear Any potential pending DMA requests before starting DMA channel to transfer dat
1804:Generated_Source\PSoC5/USBUART.c ****             (void) CyDmaClearPendingDrq(USBUART_DmaChan[epNumber]);
1805:Generated_Source\PSoC5/USBUART.c **** 
1806:Generated_Source\PSoC5/USBUART.c ****             /* Enable DMA channel. */
1807:Generated_Source\PSoC5/USBUART.c ****             (void) CyDmaChSetInitialTd(USBUART_DmaChan[epNumber], USBUART_DmaTd[epNumber]);
1808:Generated_Source\PSoC5/USBUART.c ****             (void) CyDmaChEnable(USBUART_DmaChan[epNumber], 1u);
1809:Generated_Source\PSoC5/USBUART.c ****         #endif /* (CY_PSOC4) */
1810:Generated_Source\PSoC5/USBUART.c **** 
1811:Generated_Source\PSoC5/USBUART.c ****             /* OUT endpoint has to be armed again by user when DMA transfers have been completed.
1812:Generated_Source\PSoC5/USBUART.c ****             * NO_EVENT_PENDING: notifies that data has been copied from endpoint buffer.
1813:Generated_Source\PSoC5/USBUART.c ****             */
1814:Generated_Source\PSoC5/USBUART.c **** 
1815:Generated_Source\PSoC5/USBUART.c ****         #endif /* (USBUART_EP_MANAGEMENT_DMA_AUTO) */
1816:Generated_Source\PSoC5/USBUART.c ****     #endif /* (USBUART_EP_MANAGEMENT_MANUAL) */
1817:Generated_Source\PSoC5/USBUART.c ****     }
1818:Generated_Source\PSoC5/USBUART.c ****     else
1819:Generated_Source\PSoC5/USBUART.c ****     {
1820:Generated_Source\PSoC5/USBUART.c ****         length = 0u;
 1265              		.loc 1 1820 0
 1266 0092 0025     		movs	r5, #0
 1267 0094 02E0     		b	.L81
 1268              	.L85:
 1269 0096 0025     		movs	r5, #0
 1270 0098 00E0     		b	.L81
 1271              	.L86:
 1272 009a 0025     		movs	r5, #0
 1273              	.LVL103:
 1274              	.L81:
1821:Generated_Source\PSoC5/USBUART.c ****     }
1822:Generated_Source\PSoC5/USBUART.c **** 
1823:Generated_Source\PSoC5/USBUART.c ****     return (length);
1824:Generated_Source\PSoC5/USBUART.c **** }
 1275              		.loc 1 1824 0
 1276 009c 2846     		mov	r0, r5
ARM GAS  C:\Users\ingan\AppData\Local\Temp\ccMtFi7x.s 			page 56


 1277 009e BDE8F883 		pop	{r3, r4, r5, r6, r7, r8, r9, pc}
 1278              	.LVL104:
 1279              	.L89:
 1280 00a2 00BF     		.align	2
 1281              	.L88:
 1282 00a4 00000000 		.word	USBUART_DmaTd
 1283 00a8 70600040 		.word	1073766512
 1284 00ac 00000000 		.word	USBUART_DmaChan
 1285              		.cfi_endproc
 1286              	.LFE14:
 1287              		.size	USBUART_ReadOutEP, .-USBUART_ReadOutEP
 1288              		.section	.text.USBUART_EnableOutEP,"ax",%progbits
 1289              		.align	2
 1290              		.global	USBUART_EnableOutEP
 1291              		.thumb
 1292              		.thumb_func
 1293              		.type	USBUART_EnableOutEP, %function
 1294              	USBUART_EnableOutEP:
 1295              	.LFB15:
1825:Generated_Source\PSoC5/USBUART.c **** 
1826:Generated_Source\PSoC5/USBUART.c **** 
1827:Generated_Source\PSoC5/USBUART.c **** #if (USBUART_16BITS_EP_ACCESS_ENABLE)
1828:Generated_Source\PSoC5/USBUART.c **** /*******************************************************************************
1829:Generated_Source\PSoC5/USBUART.c **** * Function Name: USBUART_LoadInEP16
1830:Generated_Source\PSoC5/USBUART.c **** ****************************************************************************//**
1831:Generated_Source\PSoC5/USBUART.c **** *
1832:Generated_Source\PSoC5/USBUART.c **** *  This function performs different functionality depending on the Component’s
1833:Generated_Source\PSoC5/USBUART.c **** *  configured Endpoint Buffer Management. This parameter is defined in
1834:Generated_Source\PSoC5/USBUART.c **** *  the Descriptor Root in Component Configure window.
1835:Generated_Source\PSoC5/USBUART.c **** *
1836:Generated_Source\PSoC5/USBUART.c **** *  *Manual (Static/Dynamic Allocation):*
1837:Generated_Source\PSoC5/USBUART.c **** *  This function loads and enables the specified USB data endpoint for an IN
1838:Generated_Source\PSoC5/USBUART.c **** *  data transfer.
1839:Generated_Source\PSoC5/USBUART.c **** *
1840:Generated_Source\PSoC5/USBUART.c **** *  *DMA with Manual Buffer Management:*
1841:Generated_Source\PSoC5/USBUART.c **** *  Configures DMA for a data transfer from system RAM to endpoint buffer.
1842:Generated_Source\PSoC5/USBUART.c **** *  Generates request for a transfer.
1843:Generated_Source\PSoC5/USBUART.c **** *
1844:Generated_Source\PSoC5/USBUART.c **** *  *DMA with Automatic Buffer Management:*
1845:Generated_Source\PSoC5/USBUART.c **** *  Configures DMA. This is required only once, so it is done only when parameter
1846:Generated_Source\PSoC5/USBUART.c **** *  pData is not NULL. When the pData pointer is NULL, the function skips this
1847:Generated_Source\PSoC5/USBUART.c **** *  task. Sets Data ready status: This generates the first DMA transfer and
1848:Generated_Source\PSoC5/USBUART.c **** *  prepares data in endpoint buffer.
1849:Generated_Source\PSoC5/USBUART.c **** *
1850:Generated_Source\PSoC5/USBUART.c **** *  \param epNumber Contains the data endpoint number.
1851:Generated_Source\PSoC5/USBUART.c **** *        Valid values are between 1 and 8.
1852:Generated_Source\PSoC5/USBUART.c **** *  \param *pData A pointer to a data array from which the data for the endpoint
1853:Generated_Source\PSoC5/USBUART.c **** *        space is loaded. It shall be ensured that this pointer address is even
1854:Generated_Source\PSoC5/USBUART.c **** *        to ensure the 16-bit transfer is aligned to even address. Else, a hard
1855:Generated_Source\PSoC5/USBUART.c **** *        fault condition can occur.
1856:Generated_Source\PSoC5/USBUART.c **** *  \param length The number of bytes to transfer from the array and then send as
1857:Generated_Source\PSoC5/USBUART.c **** *        a result of an IN request. Valid values are between 0 and 512 (1023 for
1858:Generated_Source\PSoC5/USBUART.c **** *        DMA with Automatic Buffer Management mode). The value 512 is applicable
1859:Generated_Source\PSoC5/USBUART.c **** *        if only one endpoint is used.
1860:Generated_Source\PSoC5/USBUART.c **** *
1861:Generated_Source\PSoC5/USBUART.c **** * \reentrant
1862:Generated_Source\PSoC5/USBUART.c **** *  No.
ARM GAS  C:\Users\ingan\AppData\Local\Temp\ccMtFi7x.s 			page 57


1863:Generated_Source\PSoC5/USBUART.c **** *
1864:Generated_Source\PSoC5/USBUART.c **** *******************************************************************************/
1865:Generated_Source\PSoC5/USBUART.c **** void USBUART_LoadInEP16(uint8 epNumber, const uint8 pData[], uint16 length)
1866:Generated_Source\PSoC5/USBUART.c **** {
1867:Generated_Source\PSoC5/USBUART.c ****     /* Check array alignment on half-word boundary. */
1868:Generated_Source\PSoC5/USBUART.c ****     CYASSERT(0u == (((uint32) pData) & 0x01u));
1869:Generated_Source\PSoC5/USBUART.c **** 
1870:Generated_Source\PSoC5/USBUART.c ****     if ((epNumber > USBUART_EP0) && (epNumber < USBUART_MAX_EP))
1871:Generated_Source\PSoC5/USBUART.c ****     {
1872:Generated_Source\PSoC5/USBUART.c ****     #if (!USBUART_EP_MANAGEMENT_DMA_AUTO)
1873:Generated_Source\PSoC5/USBUART.c ****         /* Limit length to available buffer USB IP buffer size. */
1874:Generated_Source\PSoC5/USBUART.c ****         if (length > (USBUART_EPX_DATA_BUF_MAX - USBUART_EP[epNumber].buffOffset))
1875:Generated_Source\PSoC5/USBUART.c ****         {
1876:Generated_Source\PSoC5/USBUART.c ****             length = USBUART_EPX_DATA_BUF_MAX - USBUART_EP[epNumber].buffOffset;
1877:Generated_Source\PSoC5/USBUART.c ****         }
1878:Generated_Source\PSoC5/USBUART.c ****     #endif /* (!USBUART_EP_MANAGEMENT_DMA_AUTO) */
1879:Generated_Source\PSoC5/USBUART.c **** 
1880:Generated_Source\PSoC5/USBUART.c ****         /* Set count and data toggle. */
1881:Generated_Source\PSoC5/USBUART.c ****         USBUART_SIE_EP_BASE.sieEp[epNumber].epCnt0 = (uint32) HI8(length) | USBUART_EP[epNumber].ep
1882:Generated_Source\PSoC5/USBUART.c ****         USBUART_SIE_EP_BASE.sieEp[epNumber].epCnt1 = (uint32) LO8(length);
1883:Generated_Source\PSoC5/USBUART.c **** 
1884:Generated_Source\PSoC5/USBUART.c ****         /* Adjust requested length: 2 bytes are handled at one data register access. */
1885:Generated_Source\PSoC5/USBUART.c ****         length += (length & 0x01u);
1886:Generated_Source\PSoC5/USBUART.c **** 
1887:Generated_Source\PSoC5/USBUART.c ****     #if (USBUART_EP_MANAGEMENT_MANUAL)
1888:Generated_Source\PSoC5/USBUART.c ****         if (NULL != pData)
1889:Generated_Source\PSoC5/USBUART.c ****         {
1890:Generated_Source\PSoC5/USBUART.c ****             /* Convert uint8 array to uint16. */
1891:Generated_Source\PSoC5/USBUART.c ****             const uint16 *dataBuf = (uint16 *) pData;
1892:Generated_Source\PSoC5/USBUART.c **** 
1893:Generated_Source\PSoC5/USBUART.c ****             /* Copy data using 16-bits arbiter data register. */
1894:Generated_Source\PSoC5/USBUART.c ****             uint16 i;
1895:Generated_Source\PSoC5/USBUART.c ****             for (i = 0u; i < (length >> 1u); ++i)
1896:Generated_Source\PSoC5/USBUART.c ****             {
1897:Generated_Source\PSoC5/USBUART.c ****                 USBUART_ARB_EP16_BASE.arbEp[epNumber].rwDr16 = dataBuf[i];
1898:Generated_Source\PSoC5/USBUART.c ****             }
1899:Generated_Source\PSoC5/USBUART.c ****         }
1900:Generated_Source\PSoC5/USBUART.c **** 
1901:Generated_Source\PSoC5/USBUART.c ****         /* IN endpoint buffer is full - read to be read. */
1902:Generated_Source\PSoC5/USBUART.c ****         USBUART_EP[epNumber].apiEpState = USBUART_NO_EVENT_PENDING;
1903:Generated_Source\PSoC5/USBUART.c **** 
1904:Generated_Source\PSoC5/USBUART.c ****         /* Arm IN endpoint. */
1905:Generated_Source\PSoC5/USBUART.c ****         USBUART_SIE_EP_BASE.sieEp[epNumber].epCr0 = USBUART_EP[epNumber].epMode;
1906:Generated_Source\PSoC5/USBUART.c **** 
1907:Generated_Source\PSoC5/USBUART.c ****     #else
1908:Generated_Source\PSoC5/USBUART.c **** 
1909:Generated_Source\PSoC5/USBUART.c ****         #if (USBUART_EP_MANAGEMENT_DMA_MANUAL)
1910:Generated_Source\PSoC5/USBUART.c ****             /* IN endpoint buffer will be fully loaded by DMA shortly. */
1911:Generated_Source\PSoC5/USBUART.c ****             USBUART_EP[epNumber].apiEpState = USBUART_NO_EVENT_PENDING;
1912:Generated_Source\PSoC5/USBUART.c **** 
1913:Generated_Source\PSoC5/USBUART.c ****             if ((pData != NULL) && (length > 0u))
1914:Generated_Source\PSoC5/USBUART.c ****             {
1915:Generated_Source\PSoC5/USBUART.c ****                 uint32 channelNum = (uint32) USBUART_DmaChan[epNumber];
1916:Generated_Source\PSoC5/USBUART.c **** 
1917:Generated_Source\PSoC5/USBUART.c ****                 /* Disable DMA channel: start configuration. */
1918:Generated_Source\PSoC5/USBUART.c ****                 USBUART_CyDmaChDisable(channelNum);
1919:Generated_Source\PSoC5/USBUART.c **** 
ARM GAS  C:\Users\ingan\AppData\Local\Temp\ccMtFi7x.s 			page 58


1920:Generated_Source\PSoC5/USBUART.c ****                 /* Configure source and destination. */
1921:Generated_Source\PSoC5/USBUART.c ****                 USBUART_CyDmaSetSrcAddress(channelNum, USBUART_DMA_DESCR0, (void*) pData);
1922:Generated_Source\PSoC5/USBUART.c ****                 USBUART_CyDmaSetDstAddress(channelNum, USBUART_DMA_DESCR0, (void*) &USBUART_ARB_EP1
1923:Generated_Source\PSoC5/USBUART.c **** 
1924:Generated_Source\PSoC5/USBUART.c ****                 /* Configure DMA descriptor. */
1925:Generated_Source\PSoC5/USBUART.c ****                 length = (length >> 1u) - 1u;
1926:Generated_Source\PSoC5/USBUART.c ****                 USBUART_CyDmaSetConfiguration(channelNum, USBUART_DMA_DESCR0, USBUART_DMA_COMMON_CF
1927:Generated_Source\PSoC5/USBUART.c ****                                                         CYDMA_HALFWORD | CYDMA_ELEMENT_WORD | CYDMA
1928:Generated_Source\PSoC5/USBUART.c **** 
1929:Generated_Source\PSoC5/USBUART.c ****                 /* Validate descriptor to execute on following DMA request. */
1930:Generated_Source\PSoC5/USBUART.c ****                 USBUART_CyDmaValidateDescriptor(channelNum, USBUART_DMA_DESCR0);
1931:Generated_Source\PSoC5/USBUART.c **** 
1932:Generated_Source\PSoC5/USBUART.c ****                 /* Enable DMA channel: configuration complete. */
1933:Generated_Source\PSoC5/USBUART.c ****                 USBUART_CyDmaChEnable(channelNum);
1934:Generated_Source\PSoC5/USBUART.c **** 
1935:Generated_Source\PSoC5/USBUART.c ****                 /* Generate DMA request. */
1936:Generated_Source\PSoC5/USBUART.c ****                 USBUART_ARB_EP_BASE.arbEp[epNumber].epCfg |=  (uint32)  USBUART_ARB_EPX_CFG_DMA_REQ
1937:Generated_Source\PSoC5/USBUART.c ****                 USBUART_ARB_EP_BASE.arbEp[epNumber].epCfg &=  (uint32) ~USBUART_ARB_EPX_CFG_DMA_REQ
1938:Generated_Source\PSoC5/USBUART.c **** 
1939:Generated_Source\PSoC5/USBUART.c ****                 /* IN endpoint will be armed in ARB_ISR(source: IN_BUF_FULL) after first DMA transf
1940:Generated_Source\PSoC5/USBUART.c ****             }
1941:Generated_Source\PSoC5/USBUART.c ****             else
1942:Generated_Source\PSoC5/USBUART.c ****             {
1943:Generated_Source\PSoC5/USBUART.c ****                 /* When zero-length packet: arm IN endpoint directly. */
1944:Generated_Source\PSoC5/USBUART.c ****                 USBUART_SIE_EP_BASE.sieEp[epNumber].epCr0 = USBUART_EP[epNumber].epMode;
1945:Generated_Source\PSoC5/USBUART.c ****             }
1946:Generated_Source\PSoC5/USBUART.c ****         #endif /* (USBUART_EP_MANAGEMENT_DMA_MANUAL) */
1947:Generated_Source\PSoC5/USBUART.c **** 
1948:Generated_Source\PSoC5/USBUART.c ****         #if (USBUART_EP_MANAGEMENT_DMA_AUTO)
1949:Generated_Source\PSoC5/USBUART.c ****             if (pData != NULL)
1950:Generated_Source\PSoC5/USBUART.c ****             {
1951:Generated_Source\PSoC5/USBUART.c ****                 uint32 channelNum = (uint32) USBUART_DmaChan[epNumber];
1952:Generated_Source\PSoC5/USBUART.c **** 
1953:Generated_Source\PSoC5/USBUART.c ****                 /* Store address of buffer. */
1954:Generated_Source\PSoC5/USBUART.c ****                 USBUART_DmaEpBufferAddrBackup[epNumber] = (uint32) pData;
1955:Generated_Source\PSoC5/USBUART.c **** 
1956:Generated_Source\PSoC5/USBUART.c ****                 /* Disable DMA channel: start configuration. */
1957:Generated_Source\PSoC5/USBUART.c ****                 USBUART_CyDmaChDisable(channelNum);
1958:Generated_Source\PSoC5/USBUART.c **** 
1959:Generated_Source\PSoC5/USBUART.c ****                 /* Set destination address. */
1960:Generated_Source\PSoC5/USBUART.c ****                 USBUART_CyDmaSetDstAddress(channelNum, USBUART_DMA_DESCR0, (void*) &USBUART_ARB_EP1
1961:Generated_Source\PSoC5/USBUART.c ****                 USBUART_CyDmaSetDstAddress(channelNum, USBUART_DMA_DESCR1, (void*) &USBUART_ARB_EP1
1962:Generated_Source\PSoC5/USBUART.c **** 
1963:Generated_Source\PSoC5/USBUART.c ****                 /* Configure DMA descriptor. */
1964:Generated_Source\PSoC5/USBUART.c ****                 USBUART_CyDmaSetConfiguration(channelNum, USBUART_DMA_DESCR0, USBUART_DMA_COMMON_CF
1965:Generated_Source\PSoC5/USBUART.c ****                                                         CYDMA_HALFWORD | CYDMA_ELEMENT_WORD | CYDMA
1966:Generated_Source\PSoC5/USBUART.c **** 
1967:Generated_Source\PSoC5/USBUART.c ****                 /* Configure DMA descriptor. */
1968:Generated_Source\PSoC5/USBUART.c ****                 USBUART_CyDmaSetConfiguration(channelNum, USBUART_DMA_DESCR1, USBUART_DMA_COMMON_CF
1969:Generated_Source\PSoC5/USBUART.c ****                                                         CYDMA_HALFWORD | CYDMA_ELEMENT_WORD | CYDMA
1970:Generated_Source\PSoC5/USBUART.c **** 
1971:Generated_Source\PSoC5/USBUART.c ****                 /* Enable interrupt from DMA channel. */
1972:Generated_Source\PSoC5/USBUART.c ****                 USBUART_CyDmaSetInterruptMask(channelNum);
1973:Generated_Source\PSoC5/USBUART.c **** 
1974:Generated_Source\PSoC5/USBUART.c ****                 /* Enable DMA channel: configuration complete. */
1975:Generated_Source\PSoC5/USBUART.c ****                 USBUART_CyDmaChEnable(channelNum);
1976:Generated_Source\PSoC5/USBUART.c ****             }
ARM GAS  C:\Users\ingan\AppData\Local\Temp\ccMtFi7x.s 			page 59


1977:Generated_Source\PSoC5/USBUART.c ****             else
1978:Generated_Source\PSoC5/USBUART.c ****             {
1979:Generated_Source\PSoC5/USBUART.c ****                 /* IN endpoint buffer (32 bytes) will shortly be preloaded by DMA. */
1980:Generated_Source\PSoC5/USBUART.c ****                 USBUART_EP[epNumber].apiEpState = USBUART_NO_EVENT_PENDING;
1981:Generated_Source\PSoC5/USBUART.c **** 
1982:Generated_Source\PSoC5/USBUART.c ****                 if (length > 0u)
1983:Generated_Source\PSoC5/USBUART.c ****                 {
1984:Generated_Source\PSoC5/USBUART.c ****                     uint32 lengthDescr0, lengthDescr1;
1985:Generated_Source\PSoC5/USBUART.c ****                     uint32 channelNum = (uint32) USBUART_DmaChan[epNumber];
1986:Generated_Source\PSoC5/USBUART.c **** 
1987:Generated_Source\PSoC5/USBUART.c ****                     /* Get number of full bursts. */
1988:Generated_Source\PSoC5/USBUART.c ****                     USBUART_DmaEpBurstCnt[epNumber] = (uint8) (length / USBUART_DMA_BYTES_PER_BURST
1989:Generated_Source\PSoC5/USBUART.c **** 
1990:Generated_Source\PSoC5/USBUART.c ****                     /* Get number of elements in the last burst. */
1991:Generated_Source\PSoC5/USBUART.c ****                     USBUART_DmaEpLastBurstEl[epNumber] = (uint8) (length % USBUART_DMA_BYTES_PER_BU
1992:Generated_Source\PSoC5/USBUART.c **** 
1993:Generated_Source\PSoC5/USBUART.c ****                     /* Get total number of bursts. */
1994:Generated_Source\PSoC5/USBUART.c ****                     USBUART_DmaEpBurstCnt[epNumber] += (0u != USBUART_DmaEpLastBurstEl[epNumber]) ?
1995:Generated_Source\PSoC5/USBUART.c **** 
1996:Generated_Source\PSoC5/USBUART.c ****                     /* Adjust number of data elements transferred in last burst. */
1997:Generated_Source\PSoC5/USBUART.c ****                     USBUART_DmaEpLastBurstEl[epNumber] = (0u != USBUART_DmaEpLastBurstEl[epNumber])
1998:Generated_Source\PSoC5/USBUART.c ****                                                                           ((USBUART_DmaEpLastBurstE
1999:Generated_Source\PSoC5/USBUART.c ****                                                                            (USBUART_DMA_HALFWORDS_P
2000:Generated_Source\PSoC5/USBUART.c **** 
2001:Generated_Source\PSoC5/USBUART.c ****                     /* Get number of data elements to transfer for descriptor 0 and 1. */
2002:Generated_Source\PSoC5/USBUART.c ****                     lengthDescr0 = (1u == USBUART_DmaEpBurstCnt[epNumber]) ? USBUART_DmaEpLastBurst
2003:Generated_Source\PSoC5/USBUART.c ****                     lengthDescr1 = (2u == USBUART_DmaEpBurstCnt[epNumber]) ? USBUART_DmaEpLastBurst
2004:Generated_Source\PSoC5/USBUART.c **** 
2005:Generated_Source\PSoC5/USBUART.c ****                     /* Mark which descriptor is last one to execute. */
2006:Generated_Source\PSoC5/USBUART.c ****                     USBUART_DmaEpLastBurstEl[epNumber] |= (0u != (USBUART_DmaEpBurstCnt[epNumber] &
2007:Generated_Source\PSoC5/USBUART.c ****                                                                             USBUART_DMA_DESCR0_MASK
2008:Generated_Source\PSoC5/USBUART.c **** 
2009:Generated_Source\PSoC5/USBUART.c ****                     /* Restore DMA settings for current transfer. */
2010:Generated_Source\PSoC5/USBUART.c ****                     USBUART_CyDmaChDisable(channelNum);
2011:Generated_Source\PSoC5/USBUART.c **** 
2012:Generated_Source\PSoC5/USBUART.c ****                     /* Restore destination address for input endpoint. */
2013:Generated_Source\PSoC5/USBUART.c ****                     USBUART_CyDmaSetSrcAddress(channelNum, USBUART_DMA_DESCR0, (void*) ((uint32) US
2014:Generated_Source\PSoC5/USBUART.c ****                     USBUART_CyDmaSetSrcAddress(channelNum, USBUART_DMA_DESCR1, (void*) ((uint32) US
2015:Generated_Source\PSoC5/USBUART.c ****                                                                                                    
2016:Generated_Source\PSoC5/USBUART.c **** 
2017:Generated_Source\PSoC5/USBUART.c ****                     /* Set number of elements to transfer. */
2018:Generated_Source\PSoC5/USBUART.c ****                     USBUART_CyDmaSetNumDataElements(channelNum, USBUART_DMA_DESCR0, lengthDescr0);
2019:Generated_Source\PSoC5/USBUART.c ****                     USBUART_CyDmaSetNumDataElements(channelNum, USBUART_DMA_DESCR1, lengthDescr1);
2020:Generated_Source\PSoC5/USBUART.c **** 
2021:Generated_Source\PSoC5/USBUART.c ****                     /* Validate descriptor 0 and command to start with it. */
2022:Generated_Source\PSoC5/USBUART.c ****                     USBUART_CyDmaValidateDescriptor(channelNum, USBUART_DMA_DESCR0);
2023:Generated_Source\PSoC5/USBUART.c ****                     USBUART_CyDmaSetDescriptor0Next(channelNum);
2024:Generated_Source\PSoC5/USBUART.c **** 
2025:Generated_Source\PSoC5/USBUART.c ****                     /* Validate descriptor 1. */
2026:Generated_Source\PSoC5/USBUART.c ****                     if (USBUART_DmaEpBurstCnt[epNumber] > 1u)
2027:Generated_Source\PSoC5/USBUART.c ****                     {
2028:Generated_Source\PSoC5/USBUART.c ****                         USBUART_CyDmaValidateDescriptor(channelNum, USBUART_DMA_DESCR1);
2029:Generated_Source\PSoC5/USBUART.c ****                     }
2030:Generated_Source\PSoC5/USBUART.c **** 
2031:Generated_Source\PSoC5/USBUART.c ****                     /* Adjust burst counter taking to account: 2 valid descriptors and interrupt tr
2032:Generated_Source\PSoC5/USBUART.c ****                     USBUART_DmaEpBurstCnt[epNumber] = USBUART_DMA_GET_BURST_CNT(USBUART_DmaEpBurstC
2033:Generated_Source\PSoC5/USBUART.c **** 
ARM GAS  C:\Users\ingan\AppData\Local\Temp\ccMtFi7x.s 			page 60


2034:Generated_Source\PSoC5/USBUART.c ****                     /* Enable DMA channel: configuration complete. */
2035:Generated_Source\PSoC5/USBUART.c ****                     USBUART_CyDmaChEnable(channelNum);
2036:Generated_Source\PSoC5/USBUART.c **** 
2037:Generated_Source\PSoC5/USBUART.c ****                 #if !defined (USBUART_MANUAL_IN_EP_ARM)
2038:Generated_Source\PSoC5/USBUART.c ****                     /* Set IN data ready to generate DMA request to load data into endpoint buffer.
2039:Generated_Source\PSoC5/USBUART.c ****                     USBUART_ARB_EP_BASE.arbEp[epNumber].epCfg |= USBUART_ARB_EPX_CFG_IN_DATA_RDY;
2040:Generated_Source\PSoC5/USBUART.c ****                 #endif  /* (USBUART_MANUAL_IN_EP_ARM) */
2041:Generated_Source\PSoC5/USBUART.c **** 
2042:Generated_Source\PSoC5/USBUART.c ****                     /* IN endpoint will be armed in ARB_ISR(source: IN_BUF_FULL) after first DMA tr
2043:Generated_Source\PSoC5/USBUART.c ****                 }
2044:Generated_Source\PSoC5/USBUART.c ****                 else
2045:Generated_Source\PSoC5/USBUART.c ****                 {
2046:Generated_Source\PSoC5/USBUART.c ****                     /* When zero-length packet: arm IN endpoint directly. */
2047:Generated_Source\PSoC5/USBUART.c ****                     USBUART_SIE_EP_BASE.sieEp[epNumber].epCr0 = USBUART_EP[epNumber].epMode;
2048:Generated_Source\PSoC5/USBUART.c ****                 }
2049:Generated_Source\PSoC5/USBUART.c ****             }
2050:Generated_Source\PSoC5/USBUART.c ****         #endif /* (USBUART_EP_MANAGEMENT_DMA_AUTO) */
2051:Generated_Source\PSoC5/USBUART.c ****     #endif /* (USBUART_EP_MANAGEMENT_MANUAL) */
2052:Generated_Source\PSoC5/USBUART.c ****     }
2053:Generated_Source\PSoC5/USBUART.c **** }
2054:Generated_Source\PSoC5/USBUART.c **** 
2055:Generated_Source\PSoC5/USBUART.c **** 
2056:Generated_Source\PSoC5/USBUART.c **** /*******************************************************************************
2057:Generated_Source\PSoC5/USBUART.c **** * Function Name: USBUART_ReadOutEP16
2058:Generated_Source\PSoC5/USBUART.c **** ****************************************************************************//**
2059:Generated_Source\PSoC5/USBUART.c **** *
2060:Generated_Source\PSoC5/USBUART.c **** *   This function performs different functionality depending on the Component’s
2061:Generated_Source\PSoC5/USBUART.c **** *   configured Endpoint Buffer Management. This parameter is defined in the
2062:Generated_Source\PSoC5/USBUART.c **** *   Descriptor Root in Component Configure window.
2063:Generated_Source\PSoC5/USBUART.c **** *
2064:Generated_Source\PSoC5/USBUART.c **** *   *Manual (Static/Dynamic Allocation):*
2065:Generated_Source\PSoC5/USBUART.c **** *   This function moves the specified number of bytes from endpoint buffer to
2066:Generated_Source\PSoC5/USBUART.c **** *   system RAM. The number of bytes actually transferred from endpoint buffer to
2067:Generated_Source\PSoC5/USBUART.c **** *   system RAM is the lesser of the actual number of bytes sent by the host or
2068:Generated_Source\PSoC5/USBUART.c **** *   the number of bytes requested by the length parameter.
2069:Generated_Source\PSoC5/USBUART.c **** *
2070:Generated_Source\PSoC5/USBUART.c **** *   *DMA with Manual Buffer Management:*
2071:Generated_Source\PSoC5/USBUART.c **** *   Configure DMA to transfer data from endpoint buffer to system RAM. Generate
2072:Generated_Source\PSoC5/USBUART.c **** *   a DMA request. The firmware must wait until the DMA completes the data
2073:Generated_Source\PSoC5/USBUART.c **** *   transfer after calling the USBUART_ReadOutEP() API. For example,
2074:Generated_Source\PSoC5/USBUART.c **** *   by checking EPstate:
2075:Generated_Source\PSoC5/USBUART.c **** *
2076:Generated_Source\PSoC5/USBUART.c **** *   \snippet /USBFS_sut_02.cydsn/main.c checking EPstatey
2077:Generated_Source\PSoC5/USBUART.c **** *
2078:Generated_Source\PSoC5/USBUART.c **** *   The USBFS_EnableOutEP() has to be called to allow host to write data into
2079:Generated_Source\PSoC5/USBUART.c **** *   the endpoint buffer after DMA has completed transfer data from OUT endpoint
2080:Generated_Source\PSoC5/USBUART.c **** *   buffer to SRAM.
2081:Generated_Source\PSoC5/USBUART.c **** *
2082:Generated_Source\PSoC5/USBUART.c **** *   *DMA with Automatic Buffer Management:*
2083:Generated_Source\PSoC5/USBUART.c **** *   Configure DMA. This is required only once and automatically generates DMA
2084:Generated_Source\PSoC5/USBUART.c **** *   requests as data arrives
2085:Generated_Source\PSoC5/USBUART.c **** *
2086:Generated_Source\PSoC5/USBUART.c **** *  \param epNumber: Contains the data endpoint number.
2087:Generated_Source\PSoC5/USBUART.c **** *         Valid values are between 1 and 8.
2088:Generated_Source\PSoC5/USBUART.c **** *  \param pData: A pointer to a data array into which the data for the endpoint
2089:Generated_Source\PSoC5/USBUART.c **** *         space is copied. It shall be ensured that this pointer address is
2090:Generated_Source\PSoC5/USBUART.c **** *         even to ensure the 16-bit transfer is aligned to even address. Else,
ARM GAS  C:\Users\ingan\AppData\Local\Temp\ccMtFi7x.s 			page 61


2091:Generated_Source\PSoC5/USBUART.c **** *         a hard fault condition can occur.
2092:Generated_Source\PSoC5/USBUART.c **** *  \param length: The number of bytes to transfer from the USB Out endpoint and
2093:Generated_Source\PSoC5/USBUART.c **** *         loads it into data array. Valid values are between 0 and 1023. The
2094:Generated_Source\PSoC5/USBUART.c **** *         function moves fewer than the requested number of bytes if the host
2095:Generated_Source\PSoC5/USBUART.c **** *         sends fewer bytes than requested.
2096:Generated_Source\PSoC5/USBUART.c **** *
2097:Generated_Source\PSoC5/USBUART.c **** * \return
2098:Generated_Source\PSoC5/USBUART.c **** *  Number of bytes received, 0 for an invalid endpoint.
2099:Generated_Source\PSoC5/USBUART.c **** *
2100:Generated_Source\PSoC5/USBUART.c **** * \reentrant
2101:Generated_Source\PSoC5/USBUART.c **** *  No.
2102:Generated_Source\PSoC5/USBUART.c **** *
2103:Generated_Source\PSoC5/USBUART.c **** *******************************************************************************/
2104:Generated_Source\PSoC5/USBUART.c **** uint16 USBUART_ReadOutEP16(uint8 epNumber, uint8 pData[], uint16 length)
2105:Generated_Source\PSoC5/USBUART.c **** {
2106:Generated_Source\PSoC5/USBUART.c ****     uint32 adjLength;
2107:Generated_Source\PSoC5/USBUART.c **** 
2108:Generated_Source\PSoC5/USBUART.c ****     /* Check array alignment on half-word boundary */
2109:Generated_Source\PSoC5/USBUART.c ****     CYASSERT(0u == (((uint32) pData) & 0x01u));
2110:Generated_Source\PSoC5/USBUART.c **** 
2111:Generated_Source\PSoC5/USBUART.c ****     if ((pData != NULL) && (epNumber > USBUART_EP0) && (epNumber < USBUART_MAX_EP))
2112:Generated_Source\PSoC5/USBUART.c ****     {
2113:Generated_Source\PSoC5/USBUART.c ****     #if (!USBUART_EP_MANAGEMENT_DMA_AUTO)
2114:Generated_Source\PSoC5/USBUART.c ****         /* Adjust requested length to available data. */
2115:Generated_Source\PSoC5/USBUART.c ****         length = (length > USBUART_GetEPCount(epNumber)) ? USBUART_GetEPCount(epNumber) : length;
2116:Generated_Source\PSoC5/USBUART.c ****     #endif /* (!USBUART_EP_MANAGEMENT_DMA_AUTO) */
2117:Generated_Source\PSoC5/USBUART.c **** 
2118:Generated_Source\PSoC5/USBUART.c ****     /* Adjust requested length: 2 bytes are handled at one data register access. */
2119:Generated_Source\PSoC5/USBUART.c ****     adjLength =  length + ((uint32)length & 1u);
2120:Generated_Source\PSoC5/USBUART.c **** 
2121:Generated_Source\PSoC5/USBUART.c ****     #if (USBUART_EP_MANAGEMENT_MANUAL)
2122:Generated_Source\PSoC5/USBUART.c ****         {
2123:Generated_Source\PSoC5/USBUART.c ****             /* Convert uint8 array to uint16. */
2124:Generated_Source\PSoC5/USBUART.c ****             uint16 *dataBuf = (uint16 *) pData;
2125:Generated_Source\PSoC5/USBUART.c **** 
2126:Generated_Source\PSoC5/USBUART.c ****             /* Copy data using 16-bits arbiter data register. */
2127:Generated_Source\PSoC5/USBUART.c ****             uint16 i;
2128:Generated_Source\PSoC5/USBUART.c ****             for (i = 0u; i < (adjLength >> 1u); ++i)
2129:Generated_Source\PSoC5/USBUART.c ****             {
2130:Generated_Source\PSoC5/USBUART.c ****                 dataBuf[i] = (uint16) USBUART_ARB_EP16_BASE.arbEp[epNumber].rwDr16;
2131:Generated_Source\PSoC5/USBUART.c ****             }
2132:Generated_Source\PSoC5/USBUART.c ****         }
2133:Generated_Source\PSoC5/USBUART.c **** 
2134:Generated_Source\PSoC5/USBUART.c ****         /* Arm OUT endpoint after data has been read from endpoint buffer. */
2135:Generated_Source\PSoC5/USBUART.c ****         USBUART_EnableOutEP(epNumber);
2136:Generated_Source\PSoC5/USBUART.c ****     #else
2137:Generated_Source\PSoC5/USBUART.c **** 
2138:Generated_Source\PSoC5/USBUART.c ****         #if (USBUART_EP_MANAGEMENT_DMA_MANUAL)
2139:Generated_Source\PSoC5/USBUART.c ****         {
2140:Generated_Source\PSoC5/USBUART.c ****             uint32 channelNum = (uint32) USBUART_DmaChan[epNumber];
2141:Generated_Source\PSoC5/USBUART.c **** 
2142:Generated_Source\PSoC5/USBUART.c ****             /* Disable DMA channel: start configuration. */
2143:Generated_Source\PSoC5/USBUART.c ****             USBUART_CyDmaChDisable(channelNum);
2144:Generated_Source\PSoC5/USBUART.c **** 
2145:Generated_Source\PSoC5/USBUART.c ****             /* Configure source and destination. */
2146:Generated_Source\PSoC5/USBUART.c ****             USBUART_CyDmaSetSrcAddress(channelNum, USBUART_DMA_DESCR0, (void*) &USBUART_ARB_EP16_BA
2147:Generated_Source\PSoC5/USBUART.c ****             USBUART_CyDmaSetDstAddress(channelNum, USBUART_DMA_DESCR0, (void*) pData);
ARM GAS  C:\Users\ingan\AppData\Local\Temp\ccMtFi7x.s 			page 62


2148:Generated_Source\PSoC5/USBUART.c **** 
2149:Generated_Source\PSoC5/USBUART.c ****             /* Configure DMA descriptor. */
2150:Generated_Source\PSoC5/USBUART.c ****             USBUART_CyDmaSetConfiguration(channelNum, USBUART_DMA_DESCR0, USBUART_DMA_COMMON_CFG | 
2151:Generated_Source\PSoC5/USBUART.c ****                                                     CYDMA_HALFWORD | CYDMA_WORD_ELEMENT | CYDMA_INC
2152:Generated_Source\PSoC5/USBUART.c **** 
2153:Generated_Source\PSoC5/USBUART.c ****             /* Validate descriptor to execute on following DMA request. */
2154:Generated_Source\PSoC5/USBUART.c ****             USBUART_CyDmaValidateDescriptor(channelNum, USBUART_DMA_DESCR0);
2155:Generated_Source\PSoC5/USBUART.c **** 
2156:Generated_Source\PSoC5/USBUART.c ****             /* Enable DMA channel: configuration complete. */
2157:Generated_Source\PSoC5/USBUART.c ****             USBUART_CyDmaChEnable(channelNum);
2158:Generated_Source\PSoC5/USBUART.c **** 
2159:Generated_Source\PSoC5/USBUART.c ****             /* Generate DMA request. */
2160:Generated_Source\PSoC5/USBUART.c ****             USBUART_ARB_EP_BASE.arbEp[epNumber].epCfg |=  (uint32)  USBUART_ARB_EPX_CFG_DMA_REQ;
2161:Generated_Source\PSoC5/USBUART.c ****             USBUART_ARB_EP_BASE.arbEp[epNumber].epCfg &=  (uint32) ~USBUART_ARB_EPX_CFG_DMA_REQ;
2162:Generated_Source\PSoC5/USBUART.c **** 
2163:Generated_Source\PSoC5/USBUART.c ****             /* OUT endpoint has to be armed again by user when DMA transfers have been completed.
2164:Generated_Source\PSoC5/USBUART.c ****             * NO_EVENT_PENDING: notifies that data has been copied from endpoint buffer.
2165:Generated_Source\PSoC5/USBUART.c ****             */
2166:Generated_Source\PSoC5/USBUART.c ****         }
2167:Generated_Source\PSoC5/USBUART.c ****         #endif /* (USBUART_EP_MANAGEMENT_DMA_MANUAL) */
2168:Generated_Source\PSoC5/USBUART.c **** 
2169:Generated_Source\PSoC5/USBUART.c ****         #if (USBUART_EP_MANAGEMENT_DMA_AUTO)
2170:Generated_Source\PSoC5/USBUART.c ****         {
2171:Generated_Source\PSoC5/USBUART.c ****             uint32 lengthDescr0, lengthDescr1;
2172:Generated_Source\PSoC5/USBUART.c ****             uint32 channelNum = (uint32) USBUART_DmaChan[epNumber];
2173:Generated_Source\PSoC5/USBUART.c **** 
2174:Generated_Source\PSoC5/USBUART.c ****             /* Get number of full bursts. */
2175:Generated_Source\PSoC5/USBUART.c ****             USBUART_DmaEpBurstCnt[epNumber] = (uint8) (adjLength / USBUART_DMA_BYTES_PER_BURST);
2176:Generated_Source\PSoC5/USBUART.c **** 
2177:Generated_Source\PSoC5/USBUART.c ****             /* Get number of elements in last burst. */
2178:Generated_Source\PSoC5/USBUART.c ****             USBUART_DmaEpLastBurstEl[epNumber] = (uint8) (adjLength % USBUART_DMA_BYTES_PER_BURST);
2179:Generated_Source\PSoC5/USBUART.c **** 
2180:Generated_Source\PSoC5/USBUART.c ****             /* Get total number of bursts. */
2181:Generated_Source\PSoC5/USBUART.c ****             USBUART_DmaEpBurstCnt[epNumber] += (0u != USBUART_DmaEpLastBurstEl[epNumber]) ? 1u : 0u
2182:Generated_Source\PSoC5/USBUART.c **** 
2183:Generated_Source\PSoC5/USBUART.c ****             /* Adjust number of data elements transferred in last burst. */
2184:Generated_Source\PSoC5/USBUART.c ****             USBUART_DmaEpLastBurstEl[epNumber] = (0u != USBUART_DmaEpLastBurstEl[epNumber]) ?
2185:Generated_Source\PSoC5/USBUART.c ****                                                                   ((USBUART_DmaEpLastBurstEl[epNumb
2186:Generated_Source\PSoC5/USBUART.c ****                                                                    (USBUART_DMA_HALFWORDS_PER_BURST
2187:Generated_Source\PSoC5/USBUART.c **** 
2188:Generated_Source\PSoC5/USBUART.c ****             /* Get number of data elements to transfer for descriptor 0 and 1. */
2189:Generated_Source\PSoC5/USBUART.c ****             lengthDescr0 = (1u == USBUART_DmaEpBurstCnt[epNumber]) ? USBUART_DmaEpLastBurstEl[epNum
2190:Generated_Source\PSoC5/USBUART.c ****             lengthDescr1 = (2u == USBUART_DmaEpBurstCnt[epNumber]) ? USBUART_DmaEpLastBurstEl[epNum
2191:Generated_Source\PSoC5/USBUART.c **** 
2192:Generated_Source\PSoC5/USBUART.c ****             /* Mark last descriptor to be executed. */
2193:Generated_Source\PSoC5/USBUART.c ****             USBUART_DmaEpLastBurstEl[epNumber] |= (0u != (USBUART_DmaEpBurstCnt[epNumber] & 0x1u)) 
2194:Generated_Source\PSoC5/USBUART.c ****                                                                     USBUART_DMA_DESCR0_MASK : USBUA
2195:Generated_Source\PSoC5/USBUART.c **** 
2196:Generated_Source\PSoC5/USBUART.c ****             /* Mark if revert number of data elements in descriptor after transfer completion. */
2197:Generated_Source\PSoC5/USBUART.c ****             USBUART_DmaEpLastBurstEl[epNumber] |= (USBUART_DmaEpBurstCnt[epNumber] > 2u) ? USBUART_
2198:Generated_Source\PSoC5/USBUART.c **** 
2199:Generated_Source\PSoC5/USBUART.c ****             /* Mark that 16-bits access to data register is performed. */
2200:Generated_Source\PSoC5/USBUART.c ****             USBUART_DmaEpLastBurstEl[epNumber] |= USBUART_DMA_DESCR_16BITS;
2201:Generated_Source\PSoC5/USBUART.c **** 
2202:Generated_Source\PSoC5/USBUART.c ****             /* Store address of buffer and burst counter for endpoint. */
2203:Generated_Source\PSoC5/USBUART.c ****             USBUART_DmaEpBufferAddrBackup[epNumber] = (uint32) pData;
2204:Generated_Source\PSoC5/USBUART.c ****             USBUART_DmaEpBurstCntBackup[epNumber]   = USBUART_DmaEpBurstCnt[epNumber];
ARM GAS  C:\Users\ingan\AppData\Local\Temp\ccMtFi7x.s 			page 63


2205:Generated_Source\PSoC5/USBUART.c **** 
2206:Generated_Source\PSoC5/USBUART.c ****             /* Adjust burst counter taking to account: 2 valid descriptors and interrupt trigger af
2207:Generated_Source\PSoC5/USBUART.c ****             USBUART_DmaEpBurstCnt[epNumber] = USBUART_DMA_GET_BURST_CNT(USBUART_DmaEpBurstCnt[epNum
2208:Generated_Source\PSoC5/USBUART.c **** 
2209:Generated_Source\PSoC5/USBUART.c ****             /* Disable DMA channel: start configuration. */
2210:Generated_Source\PSoC5/USBUART.c ****             USBUART_CyDmaChDisable(channelNum);
2211:Generated_Source\PSoC5/USBUART.c **** 
2212:Generated_Source\PSoC5/USBUART.c ****             /* Set destination address. */
2213:Generated_Source\PSoC5/USBUART.c ****             USBUART_CyDmaSetSrcAddress(channelNum, USBUART_DMA_DESCR0, (void*) &USBUART_ARB_EP16_BA
2214:Generated_Source\PSoC5/USBUART.c ****             USBUART_CyDmaSetSrcAddress(channelNum, USBUART_DMA_DESCR1, (void*) &USBUART_ARB_EP16_BA
2215:Generated_Source\PSoC5/USBUART.c **** 
2216:Generated_Source\PSoC5/USBUART.c ****             USBUART_CyDmaSetDstAddress(channelNum, USBUART_DMA_DESCR0, (void*) ((uint32) pData));
2217:Generated_Source\PSoC5/USBUART.c ****             USBUART_CyDmaSetDstAddress(channelNum, USBUART_DMA_DESCR1, (void*) ((uint32) pData + US
2218:Generated_Source\PSoC5/USBUART.c **** 
2219:Generated_Source\PSoC5/USBUART.c ****             /* Configure DMA descriptor 0. */
2220:Generated_Source\PSoC5/USBUART.c ****             USBUART_CyDmaSetConfiguration(channelNum, USBUART_DMA_DESCR0, USBUART_DMA_COMMON_CFG  |
2221:Generated_Source\PSoC5/USBUART.c ****                                                     CYDMA_HALFWORD | CYDMA_WORD_ELEMENT | CYDMA_INC
2222:Generated_Source\PSoC5/USBUART.c **** 
2223:Generated_Source\PSoC5/USBUART.c ****             /* Configure DMA descriptor 1. */
2224:Generated_Source\PSoC5/USBUART.c ****             USBUART_CyDmaSetConfiguration(channelNum, USBUART_DMA_DESCR1, USBUART_DMA_COMMON_CFG  |
2225:Generated_Source\PSoC5/USBUART.c ****                                                     CYDMA_HALFWORD | CYDMA_WORD_ELEMENT | CYDMA_INC
2226:Generated_Source\PSoC5/USBUART.c **** 
2227:Generated_Source\PSoC5/USBUART.c ****             /* Enable interrupt from DMA channel. */
2228:Generated_Source\PSoC5/USBUART.c ****             USBUART_CyDmaSetInterruptMask(channelNum);
2229:Generated_Source\PSoC5/USBUART.c **** 
2230:Generated_Source\PSoC5/USBUART.c ****             /* Validate DMA descriptor 0 and 1. */
2231:Generated_Source\PSoC5/USBUART.c ****             USBUART_CyDmaValidateDescriptor(channelNum, USBUART_DMA_DESCR0);
2232:Generated_Source\PSoC5/USBUART.c ****             
2233:Generated_Source\PSoC5/USBUART.c ****             if (USBUART_DmaEpBurstCntBackup[epNumber] > 1u)
2234:Generated_Source\PSoC5/USBUART.c ****             {
2235:Generated_Source\PSoC5/USBUART.c ****                 USBUART_CyDmaValidateDescriptor(channelNum, USBUART_DMA_DESCR1);
2236:Generated_Source\PSoC5/USBUART.c ****             }
2237:Generated_Source\PSoC5/USBUART.c **** 
2238:Generated_Source\PSoC5/USBUART.c ****             /* Enable DMA channel: configuration complete. */
2239:Generated_Source\PSoC5/USBUART.c ****             USBUART_CyDmaChEnable(channelNum);
2240:Generated_Source\PSoC5/USBUART.c **** 
2241:Generated_Source\PSoC5/USBUART.c ****             /* OUT endpoint has to be armed again by user when DMA transfers have been completed.
2242:Generated_Source\PSoC5/USBUART.c ****             * NO_EVENT_PENDING: notifies that data has been copied from endpoint buffer.
2243:Generated_Source\PSoC5/USBUART.c ****             */
2244:Generated_Source\PSoC5/USBUART.c ****         }
2245:Generated_Source\PSoC5/USBUART.c ****         #endif /* (USBUART_EP_MANAGEMENT_DMA_AUTO) */
2246:Generated_Source\PSoC5/USBUART.c ****     #endif /* (USBUART_EP_MANAGEMENT_MANUAL) */
2247:Generated_Source\PSoC5/USBUART.c ****     }
2248:Generated_Source\PSoC5/USBUART.c ****     else
2249:Generated_Source\PSoC5/USBUART.c ****     {
2250:Generated_Source\PSoC5/USBUART.c ****         length = 0u;
2251:Generated_Source\PSoC5/USBUART.c ****     }
2252:Generated_Source\PSoC5/USBUART.c **** 
2253:Generated_Source\PSoC5/USBUART.c ****     return (length);
2254:Generated_Source\PSoC5/USBUART.c **** }
2255:Generated_Source\PSoC5/USBUART.c **** #endif /* (USBUART_16BITS_EP_ACCESS_ENABLE) */
2256:Generated_Source\PSoC5/USBUART.c **** 
2257:Generated_Source\PSoC5/USBUART.c **** 
2258:Generated_Source\PSoC5/USBUART.c **** /*******************************************************************************
2259:Generated_Source\PSoC5/USBUART.c **** * Function Name: USBUART_EnableOutEP
2260:Generated_Source\PSoC5/USBUART.c **** ****************************************************************************//**
2261:Generated_Source\PSoC5/USBUART.c **** *
ARM GAS  C:\Users\ingan\AppData\Local\Temp\ccMtFi7x.s 			page 64


2262:Generated_Source\PSoC5/USBUART.c **** *  This function enables the specified endpoint for OUT transfers. Do not call
2263:Generated_Source\PSoC5/USBUART.c **** *  this function for IN endpoints.
2264:Generated_Source\PSoC5/USBUART.c **** *
2265:Generated_Source\PSoC5/USBUART.c **** *  \param epNumber: Contains the data endpoint number. Valid values are between
2266:Generated_Source\PSoC5/USBUART.c **** *  1 and 8.
2267:Generated_Source\PSoC5/USBUART.c **** *
2268:Generated_Source\PSoC5/USBUART.c **** * \globalvars
2269:Generated_Source\PSoC5/USBUART.c **** *
2270:Generated_Source\PSoC5/USBUART.c **** *  \ref USBUART_EP[epNumber].apiEpState - set to NO_EVENT_PENDING
2271:Generated_Source\PSoC5/USBUART.c **** *
2272:Generated_Source\PSoC5/USBUART.c **** * \reentrant
2273:Generated_Source\PSoC5/USBUART.c **** *  No.
2274:Generated_Source\PSoC5/USBUART.c **** *
2275:Generated_Source\PSoC5/USBUART.c **** *******************************************************************************/
2276:Generated_Source\PSoC5/USBUART.c **** void USBUART_EnableOutEP(uint8 epNumber) 
2277:Generated_Source\PSoC5/USBUART.c **** {
 1296              		.loc 1 2277 0
 1297              		.cfi_startproc
 1298              		@ args = 0, pretend = 0, frame = 0
 1299              		@ frame_needed = 0, uses_anonymous_args = 0
 1300              		@ link register save eliminated.
 1301              	.LVL105:
2278:Generated_Source\PSoC5/USBUART.c ****     if ((epNumber > USBUART_EP0) && (epNumber < USBUART_MAX_EP))
 1302              		.loc 1 2278 0
 1303 0000 431E     		subs	r3, r0, #1
 1304 0002 DBB2     		uxtb	r3, r3
 1305 0004 072B     		cmp	r3, #7
 1306 0006 0BD8     		bhi	.L90
2279:Generated_Source\PSoC5/USBUART.c ****     {
2280:Generated_Source\PSoC5/USBUART.c ****         USBUART_EP[epNumber].apiEpState = USBUART_NO_EVENT_PENDING;
 1307              		.loc 1 2280 0
 1308 0008 4200     		lsls	r2, r0, #1
 1309 000a 0244     		add	r2, r2, r0
 1310 000c 9300     		lsls	r3, r2, #2
 1311 000e 054A     		ldr	r2, .L92
 1312 0010 1344     		add	r3, r3, r2
 1313 0012 0022     		movs	r2, #0
 1314 0014 5A70     		strb	r2, [r3, #1]
2281:Generated_Source\PSoC5/USBUART.c **** 
2282:Generated_Source\PSoC5/USBUART.c ****         /* Enable OUT endpoint to be written by Host. */
2283:Generated_Source\PSoC5/USBUART.c ****         USBUART_SIE_EP_BASE.sieEp[epNumber].epCr0 = USBUART_EP[epNumber].epMode;
 1315              		.loc 1 2283 0
 1316 0016 5A79     		ldrb	r2, [r3, #5]	@ zero_extendqisi2
 1317 0018 D2B2     		uxtb	r2, r2
 1318 001a 0001     		lsls	r0, r0, #4
 1319              	.LVL106:
 1320 001c 024B     		ldr	r3, .L92+4
 1321 001e 1A54     		strb	r2, [r3, r0]
 1322              	.L90:
 1323 0020 7047     		bx	lr
 1324              	.L93:
 1325 0022 00BF     		.align	2
 1326              	.L92:
 1327 0024 00000000 		.word	USBUART_EP
 1328 0028 FE5F0040 		.word	1073766398
 1329              		.cfi_endproc
 1330              	.LFE15:
ARM GAS  C:\Users\ingan\AppData\Local\Temp\ccMtFi7x.s 			page 65


 1331              		.size	USBUART_EnableOutEP, .-USBUART_EnableOutEP
 1332              		.section	.text.USBUART_DisableOutEP,"ax",%progbits
 1333              		.align	2
 1334              		.global	USBUART_DisableOutEP
 1335              		.thumb
 1336              		.thumb_func
 1337              		.type	USBUART_DisableOutEP, %function
 1338              	USBUART_DisableOutEP:
 1339              	.LFB16:
2284:Generated_Source\PSoC5/USBUART.c ****         
2285:Generated_Source\PSoC5/USBUART.c ****     }
2286:Generated_Source\PSoC5/USBUART.c **** }
2287:Generated_Source\PSoC5/USBUART.c **** 
2288:Generated_Source\PSoC5/USBUART.c **** 
2289:Generated_Source\PSoC5/USBUART.c **** /*******************************************************************************
2290:Generated_Source\PSoC5/USBUART.c **** * Function Name: USBUART_DisableOutEP
2291:Generated_Source\PSoC5/USBUART.c **** ****************************************************************************//**
2292:Generated_Source\PSoC5/USBUART.c **** *
2293:Generated_Source\PSoC5/USBUART.c **** *  This function disables the specified USBFS OUT endpoint. Do not call this
2294:Generated_Source\PSoC5/USBUART.c **** *  function for IN endpoints.
2295:Generated_Source\PSoC5/USBUART.c **** *
2296:Generated_Source\PSoC5/USBUART.c **** *  \param epNumber: Contains the data endpoint number.
2297:Generated_Source\PSoC5/USBUART.c **** *            Valid values are between 1 and 8.
2298:Generated_Source\PSoC5/USBUART.c **** *
2299:Generated_Source\PSoC5/USBUART.c **** *******************************************************************************/
2300:Generated_Source\PSoC5/USBUART.c **** void USBUART_DisableOutEP(uint8 epNumber) 
2301:Generated_Source\PSoC5/USBUART.c **** {
 1340              		.loc 1 2301 0
 1341              		.cfi_startproc
 1342              		@ args = 0, pretend = 0, frame = 0
 1343              		@ frame_needed = 0, uses_anonymous_args = 0
 1344              		@ link register save eliminated.
 1345              	.LVL107:
2302:Generated_Source\PSoC5/USBUART.c ****     if ((epNumber > USBUART_EP0) && (epNumber < USBUART_MAX_EP))
 1346              		.loc 1 2302 0
 1347 0000 431E     		subs	r3, r0, #1
 1348 0002 DBB2     		uxtb	r3, r3
 1349 0004 072B     		cmp	r3, #7
 1350 0006 03D8     		bhi	.L94
2303:Generated_Source\PSoC5/USBUART.c ****     {
2304:Generated_Source\PSoC5/USBUART.c ****         /* Set NAK response for OUT endpoint. */
2305:Generated_Source\PSoC5/USBUART.c ****         USBUART_SIE_EP_BASE.sieEp[epNumber].epCr0 = USBUART_MODE_NAK_OUT;
 1351              		.loc 1 2305 0
 1352 0008 0001     		lsls	r0, r0, #4
 1353              	.LVL108:
 1354 000a 024B     		ldr	r3, .L96
 1355 000c 0822     		movs	r2, #8
 1356 000e 1A54     		strb	r2, [r3, r0]
 1357              	.L94:
 1358 0010 7047     		bx	lr
 1359              	.L97:
 1360 0012 00BF     		.align	2
 1361              	.L96:
 1362 0014 FE5F0040 		.word	1073766398
 1363              		.cfi_endproc
 1364              	.LFE16:
 1365              		.size	USBUART_DisableOutEP, .-USBUART_DisableOutEP
ARM GAS  C:\Users\ingan\AppData\Local\Temp\ccMtFi7x.s 			page 66


 1366              		.section	.text.USBUART_Force,"ax",%progbits
 1367              		.align	2
 1368              		.global	USBUART_Force
 1369              		.thumb
 1370              		.thumb_func
 1371              		.type	USBUART_Force, %function
 1372              	USBUART_Force:
 1373              	.LFB17:
2306:Generated_Source\PSoC5/USBUART.c ****     }
2307:Generated_Source\PSoC5/USBUART.c **** }
2308:Generated_Source\PSoC5/USBUART.c **** 
2309:Generated_Source\PSoC5/USBUART.c **** 
2310:Generated_Source\PSoC5/USBUART.c **** /*******************************************************************************
2311:Generated_Source\PSoC5/USBUART.c **** * Function Name: USBUART_Force
2312:Generated_Source\PSoC5/USBUART.c **** ****************************************************************************//**
2313:Generated_Source\PSoC5/USBUART.c **** *
2314:Generated_Source\PSoC5/USBUART.c **** *  This function forces a USB J, K, or SE0 state on the D+/D– lines. It provides
2315:Generated_Source\PSoC5/USBUART.c **** *  the necessary mechanism for a USB device application to perform a USB Remote
2316:Generated_Source\PSoC5/USBUART.c **** *  Wakeup. For more information, see the USB 2.0 Specification for details on
2317:Generated_Source\PSoC5/USBUART.c **** *  Suspend and Resume.
2318:Generated_Source\PSoC5/USBUART.c **** *
2319:Generated_Source\PSoC5/USBUART.c **** *  \param state A byte indicating which of the four bus states to enable.
2320:Generated_Source\PSoC5/USBUART.c **** *        Symbolic names  and their associated values are listed here:
2321:Generated_Source\PSoC5/USBUART.c **** *    State                      |Description
2322:Generated_Source\PSoC5/USBUART.c **** *    ---------------------------|----------------------------------------------
2323:Generated_Source\PSoC5/USBUART.c **** *    USBUART_FORCE_J   | Force a J State onto the D+/D– lines
2324:Generated_Source\PSoC5/USBUART.c **** *    USBUART_FORCE_K   | Force a K State onto the D+/D– lines
2325:Generated_Source\PSoC5/USBUART.c **** *    USBUART_FORCE_SE0 | Force a Single Ended 0 onto the D+/D– lines
2326:Generated_Source\PSoC5/USBUART.c **** *    USBUART_FORCE_NONE| Return bus to SIE control
2327:Generated_Source\PSoC5/USBUART.c **** *
2328:Generated_Source\PSoC5/USBUART.c **** *
2329:Generated_Source\PSoC5/USBUART.c **** *******************************************************************************/
2330:Generated_Source\PSoC5/USBUART.c **** void USBUART_Force(uint8 bState) 
2331:Generated_Source\PSoC5/USBUART.c **** {
 1374              		.loc 1 2331 0
 1375              		.cfi_startproc
 1376              		@ args = 0, pretend = 0, frame = 0
 1377              		@ frame_needed = 0, uses_anonymous_args = 0
 1378              		@ link register save eliminated.
 1379              	.LVL109:
2332:Generated_Source\PSoC5/USBUART.c ****     /* This registers is used only for manual control of SIE (no masking is
2333:Generated_Source\PSoC5/USBUART.c ****     * needed before write into it).
2334:Generated_Source\PSoC5/USBUART.c ****     */
2335:Generated_Source\PSoC5/USBUART.c ****     USBUART_USBIO_CR0_REG = bState;
 1380              		.loc 1 2335 0
 1381 0000 014B     		ldr	r3, .L99
 1382 0002 1870     		strb	r0, [r3]
 1383 0004 7047     		bx	lr
 1384              	.L100:
 1385 0006 00BF     		.align	2
 1386              	.L99:
 1387 0008 10600040 		.word	1073766416
 1388              		.cfi_endproc
 1389              	.LFE17:
 1390              		.size	USBUART_Force, .-USBUART_Force
 1391              		.section	.text.USBUART_GetEPAckState,"ax",%progbits
 1392              		.align	2
ARM GAS  C:\Users\ingan\AppData\Local\Temp\ccMtFi7x.s 			page 67


 1393              		.global	USBUART_GetEPAckState
 1394              		.thumb
 1395              		.thumb_func
 1396              		.type	USBUART_GetEPAckState, %function
 1397              	USBUART_GetEPAckState:
 1398              	.LFB18:
2336:Generated_Source\PSoC5/USBUART.c **** }
2337:Generated_Source\PSoC5/USBUART.c **** 
2338:Generated_Source\PSoC5/USBUART.c **** 
2339:Generated_Source\PSoC5/USBUART.c **** /*******************************************************************************
2340:Generated_Source\PSoC5/USBUART.c **** * Function Name: USBUART_GetEPAckState
2341:Generated_Source\PSoC5/USBUART.c **** ****************************************************************************//**
2342:Generated_Source\PSoC5/USBUART.c **** *
2343:Generated_Source\PSoC5/USBUART.c **** *  This function determines whether an ACK transaction occurred on this endpoint
2344:Generated_Source\PSoC5/USBUART.c **** *  by reading the ACK bit in the control register of the endpoint. It does not
2345:Generated_Source\PSoC5/USBUART.c **** *  clear the ACK bit.
2346:Generated_Source\PSoC5/USBUART.c **** *
2347:Generated_Source\PSoC5/USBUART.c **** *  \param epNumber Contains the data endpoint number.
2348:Generated_Source\PSoC5/USBUART.c **** *            Valid values are between 1 and 8.
2349:Generated_Source\PSoC5/USBUART.c **** *
2350:Generated_Source\PSoC5/USBUART.c **** *  \return
2351:Generated_Source\PSoC5/USBUART.c **** *  If an ACKed transaction occurred, this function returns a non-zero value.
2352:Generated_Source\PSoC5/USBUART.c **** *  Otherwise, it returns zero.
2353:Generated_Source\PSoC5/USBUART.c **** *
2354:Generated_Source\PSoC5/USBUART.c **** *******************************************************************************/
2355:Generated_Source\PSoC5/USBUART.c **** uint8 USBUART_GetEPAckState(uint8 epNumber) 
2356:Generated_Source\PSoC5/USBUART.c **** {
 1399              		.loc 1 2356 0
 1400              		.cfi_startproc
 1401              		@ args = 0, pretend = 0, frame = 0
 1402              		@ frame_needed = 0, uses_anonymous_args = 0
 1403              		@ link register save eliminated.
 1404              	.LVL110:
2357:Generated_Source\PSoC5/USBUART.c ****     uint8 cr = 0u;
2358:Generated_Source\PSoC5/USBUART.c **** 
2359:Generated_Source\PSoC5/USBUART.c ****     if ((epNumber > USBUART_EP0) && (epNumber < USBUART_MAX_EP))
 1405              		.loc 1 2359 0
 1406 0000 431E     		subs	r3, r0, #1
 1407 0002 DBB2     		uxtb	r3, r3
 1408 0004 072B     		cmp	r3, #7
 1409 0006 06D8     		bhi	.L103
2360:Generated_Source\PSoC5/USBUART.c ****     {
2361:Generated_Source\PSoC5/USBUART.c ****         cr = USBUART_SIE_EP_BASE.sieEp[epNumber].epCr0 & USBUART_MODE_ACKD;
 1410              		.loc 1 2361 0
 1411 0008 0001     		lsls	r0, r0, #4
 1412              	.LVL111:
 1413 000a 044B     		ldr	r3, .L104
 1414 000c 185C     		ldrb	r0, [r3, r0]	@ zero_extendqisi2
 1415 000e 00F01000 		and	r0, r0, #16
 1416 0012 C0B2     		uxtb	r0, r0
 1417              	.LVL112:
 1418 0014 7047     		bx	lr
 1419              	.LVL113:
 1420              	.L103:
2357:Generated_Source\PSoC5/USBUART.c ****     uint8 cr = 0u;
 1421              		.loc 1 2357 0
 1422 0016 0020     		movs	r0, #0
ARM GAS  C:\Users\ingan\AppData\Local\Temp\ccMtFi7x.s 			page 68


 1423              	.LVL114:
2362:Generated_Source\PSoC5/USBUART.c ****     }
2363:Generated_Source\PSoC5/USBUART.c **** 
2364:Generated_Source\PSoC5/USBUART.c ****     return ((uint8) cr);
2365:Generated_Source\PSoC5/USBUART.c **** }
 1424              		.loc 1 2365 0
 1425 0018 7047     		bx	lr
 1426              	.L105:
 1427 001a 00BF     		.align	2
 1428              	.L104:
 1429 001c FE5F0040 		.word	1073766398
 1430              		.cfi_endproc
 1431              	.LFE18:
 1432              		.size	USBUART_GetEPAckState, .-USBUART_GetEPAckState
 1433              		.section	.text.USBUART_SetPowerStatus,"ax",%progbits
 1434              		.align	2
 1435              		.global	USBUART_SetPowerStatus
 1436              		.thumb
 1437              		.thumb_func
 1438              		.type	USBUART_SetPowerStatus, %function
 1439              	USBUART_SetPowerStatus:
 1440              	.LFB19:
2366:Generated_Source\PSoC5/USBUART.c **** 
2367:Generated_Source\PSoC5/USBUART.c **** 
2368:Generated_Source\PSoC5/USBUART.c **** /*******************************************************************************
2369:Generated_Source\PSoC5/USBUART.c **** * Function Name: USBUART_SetPowerStatus
2370:Generated_Source\PSoC5/USBUART.c **** ****************************************************************************//**
2371:Generated_Source\PSoC5/USBUART.c **** *
2372:Generated_Source\PSoC5/USBUART.c **** *  This function sets the current power status. The device replies to USB
2373:Generated_Source\PSoC5/USBUART.c **** *  GET_STATUS requests based on this value. This allows the device to properly
2374:Generated_Source\PSoC5/USBUART.c **** *  report its status for USB Chapter 9 compliance. Devices can change their
2375:Generated_Source\PSoC5/USBUART.c **** *  power source from self powered to bus powered at any time and report their
2376:Generated_Source\PSoC5/USBUART.c **** *  current power source as part of the device status. You should call this
2377:Generated_Source\PSoC5/USBUART.c **** *  function any time your device changes from self powered to bus powered or
2378:Generated_Source\PSoC5/USBUART.c **** *  vice versa, and set the status appropriately.
2379:Generated_Source\PSoC5/USBUART.c **** *
2380:Generated_Source\PSoC5/USBUART.c **** *  \param powerStatus: Contains the desired power status, one for self powered
2381:Generated_Source\PSoC5/USBUART.c **** *        or zero for bus powered. Symbolic names and their associated values are
2382:Generated_Source\PSoC5/USBUART.c **** *        given here:
2383:Generated_Source\PSoC5/USBUART.c **** *  Power Status                                |Description
2384:Generated_Source\PSoC5/USBUART.c **** *  --------------------------------------------|---------------------------
2385:Generated_Source\PSoC5/USBUART.c **** *  USBUART_DEVICE_STATUS_BUS_POWERED  | Set the device to bus powered
2386:Generated_Source\PSoC5/USBUART.c **** *  USBUART_DEVICE_STATUS_SELF_POWERED | Set the device to self powered
2387:Generated_Source\PSoC5/USBUART.c **** *
2388:Generated_Source\PSoC5/USBUART.c **** * \globalvars
2389:Generated_Source\PSoC5/USBUART.c **** *
2390:Generated_Source\PSoC5/USBUART.c **** *  \ref USBUART_deviceStatus - set power status
2391:Generated_Source\PSoC5/USBUART.c **** *
2392:Generated_Source\PSoC5/USBUART.c **** * \reentrant
2393:Generated_Source\PSoC5/USBUART.c **** *  No.
2394:Generated_Source\PSoC5/USBUART.c **** *
2395:Generated_Source\PSoC5/USBUART.c **** *******************************************************************************/
2396:Generated_Source\PSoC5/USBUART.c **** void USBUART_SetPowerStatus(uint8 powerStatus) 
2397:Generated_Source\PSoC5/USBUART.c **** {
 1441              		.loc 1 2397 0
 1442              		.cfi_startproc
 1443              		@ args = 0, pretend = 0, frame = 0
ARM GAS  C:\Users\ingan\AppData\Local\Temp\ccMtFi7x.s 			page 69


 1444              		@ frame_needed = 0, uses_anonymous_args = 0
 1445              		@ link register save eliminated.
 1446              	.LVL115:
2398:Generated_Source\PSoC5/USBUART.c ****     if (powerStatus != USBUART_DEVICE_STATUS_BUS_POWERED)
 1447              		.loc 1 2398 0
 1448 0000 28B1     		cbz	r0, .L107
2399:Generated_Source\PSoC5/USBUART.c ****     {
2400:Generated_Source\PSoC5/USBUART.c ****         USBUART_deviceStatus |= (uint8)  USBUART_DEVICE_STATUS_SELF_POWERED;
 1449              		.loc 1 2400 0
 1450 0002 064A     		ldr	r2, .L109
 1451 0004 1378     		ldrb	r3, [r2]	@ zero_extendqisi2
 1452 0006 43F00103 		orr	r3, r3, #1
 1453 000a 1370     		strb	r3, [r2]
 1454 000c 7047     		bx	lr
 1455              	.L107:
2401:Generated_Source\PSoC5/USBUART.c ****     }
2402:Generated_Source\PSoC5/USBUART.c ****     else
2403:Generated_Source\PSoC5/USBUART.c ****     {
2404:Generated_Source\PSoC5/USBUART.c ****         USBUART_deviceStatus &= (uint8) ~USBUART_DEVICE_STATUS_SELF_POWERED;
 1456              		.loc 1 2404 0
 1457 000e 034A     		ldr	r2, .L109
 1458 0010 1378     		ldrb	r3, [r2]	@ zero_extendqisi2
 1459 0012 03F0FE03 		and	r3, r3, #254
 1460 0016 1370     		strb	r3, [r2]
 1461 0018 7047     		bx	lr
 1462              	.L110:
 1463 001a 00BF     		.align	2
 1464              	.L109:
 1465 001c 00000000 		.word	USBUART_deviceStatus
 1466              		.cfi_endproc
 1467              	.LFE19:
 1468              		.size	USBUART_SetPowerStatus, .-USBUART_SetPowerStatus
 1469              		.section	.text.USBUART_RWUEnabled,"ax",%progbits
 1470              		.align	2
 1471              		.global	USBUART_RWUEnabled
 1472              		.thumb
 1473              		.thumb_func
 1474              		.type	USBUART_RWUEnabled, %function
 1475              	USBUART_RWUEnabled:
 1476              	.LFB20:
2405:Generated_Source\PSoC5/USBUART.c ****     }
2406:Generated_Source\PSoC5/USBUART.c **** }
2407:Generated_Source\PSoC5/USBUART.c **** 
2408:Generated_Source\PSoC5/USBUART.c **** 
2409:Generated_Source\PSoC5/USBUART.c **** #if (USBUART_VBUS_MONITORING_ENABLE)
2410:Generated_Source\PSoC5/USBUART.c ****     /***************************************************************************
2411:Generated_Source\PSoC5/USBUART.c ****     * Function Name: USBUART_VBusPresent
2412:Generated_Source\PSoC5/USBUART.c ****     ************************************************************************//**
2413:Generated_Source\PSoC5/USBUART.c ****     *
2414:Generated_Source\PSoC5/USBUART.c ****     *  Determines VBUS presence for self-powered devices. This function is
2415:Generated_Source\PSoC5/USBUART.c ****     *  available when the VBUS Monitoring option is enabled in the Advanced tab.
2416:Generated_Source\PSoC5/USBUART.c ****     *
2417:Generated_Source\PSoC5/USBUART.c ****     * \return
2418:Generated_Source\PSoC5/USBUART.c ****     *  The return value can be the following:
2419:Generated_Source\PSoC5/USBUART.c ****     *  Return Value | Description
2420:Generated_Source\PSoC5/USBUART.c ****     *  -------------|-----------------
2421:Generated_Source\PSoC5/USBUART.c ****     *  1            | VBUS is present
ARM GAS  C:\Users\ingan\AppData\Local\Temp\ccMtFi7x.s 			page 70


2422:Generated_Source\PSoC5/USBUART.c ****     *  0            | VBUS is absent
2423:Generated_Source\PSoC5/USBUART.c ****     *
2424:Generated_Source\PSoC5/USBUART.c ****     *
2425:Generated_Source\PSoC5/USBUART.c ****     ***************************************************************************/
2426:Generated_Source\PSoC5/USBUART.c ****     uint8 USBUART_VBusPresent(void) 
2427:Generated_Source\PSoC5/USBUART.c ****     {
2428:Generated_Source\PSoC5/USBUART.c ****         return ((0u != (USBUART_VBUS_STATUS_REG & USBUART_VBUS_VALID)) ? (uint8) 1u : (uint8) 0u);
2429:Generated_Source\PSoC5/USBUART.c ****     }
2430:Generated_Source\PSoC5/USBUART.c **** #endif /* (USBUART_VBUS_MONITORING_ENABLE) */
2431:Generated_Source\PSoC5/USBUART.c **** 
2432:Generated_Source\PSoC5/USBUART.c **** 
2433:Generated_Source\PSoC5/USBUART.c **** /*******************************************************************************
2434:Generated_Source\PSoC5/USBUART.c **** * Function Name: USBUART_RWUEnabled
2435:Generated_Source\PSoC5/USBUART.c **** ****************************************************************************//**
2436:Generated_Source\PSoC5/USBUART.c **** *
2437:Generated_Source\PSoC5/USBUART.c **** *  This function returns the current remote wakeup status.
2438:Generated_Source\PSoC5/USBUART.c **** *  If the device supports remote wakeup, the application should use this
2439:Generated_Source\PSoC5/USBUART.c **** *  function to determine if remote wakeup was enabled by the host. When the
2440:Generated_Source\PSoC5/USBUART.c **** *  device is suspended and it determines the conditions to initiate a remote
2441:Generated_Source\PSoC5/USBUART.c **** *  wakeup are met, the application should use the USBFS_Force() function to
2442:Generated_Source\PSoC5/USBUART.c **** *  force the appropriate J and K states onto the USB bus, signaling a remote
2443:Generated_Source\PSoC5/USBUART.c **** *  wakeup.
2444:Generated_Source\PSoC5/USBUART.c **** *
2445:Generated_Source\PSoC5/USBUART.c **** *
2446:Generated_Source\PSoC5/USBUART.c **** * \return
2447:Generated_Source\PSoC5/USBUART.c **** *  Returns non-zero value if remote wakeup is enabled and zero otherwise.
2448:Generated_Source\PSoC5/USBUART.c **** *
2449:Generated_Source\PSoC5/USBUART.c **** * \globalvars
2450:Generated_Source\PSoC5/USBUART.c **** *  USBUART_deviceStatus - checked to determine remote status
2451:Generated_Source\PSoC5/USBUART.c **** *
2452:Generated_Source\PSoC5/USBUART.c **** *******************************************************************************/
2453:Generated_Source\PSoC5/USBUART.c **** uint8 USBUART_RWUEnabled(void) 
2454:Generated_Source\PSoC5/USBUART.c **** {
 1477              		.loc 1 2454 0
 1478              		.cfi_startproc
 1479              		@ args = 0, pretend = 0, frame = 0
 1480              		@ frame_needed = 0, uses_anonymous_args = 0
 1481              		@ link register save eliminated.
 1482              	.LVL116:
2455:Generated_Source\PSoC5/USBUART.c ****     uint8 result = USBUART_FALSE;
2456:Generated_Source\PSoC5/USBUART.c **** 
2457:Generated_Source\PSoC5/USBUART.c ****     if (0u != (USBUART_deviceStatus & USBUART_DEVICE_STATUS_REMOTE_WAKEUP))
 1483              		.loc 1 2457 0
 1484 0000 044B     		ldr	r3, .L114
 1485 0002 1B78     		ldrb	r3, [r3]	@ zero_extendqisi2
 1486 0004 13F0020F 		tst	r3, #2
 1487 0008 01D1     		bne	.L113
2455:Generated_Source\PSoC5/USBUART.c ****     uint8 result = USBUART_FALSE;
 1488              		.loc 1 2455 0
 1489 000a 0020     		movs	r0, #0
 1490 000c 7047     		bx	lr
 1491              	.L113:
2458:Generated_Source\PSoC5/USBUART.c ****     {
2459:Generated_Source\PSoC5/USBUART.c ****         result = USBUART_TRUE;
 1492              		.loc 1 2459 0
 1493 000e 0120     		movs	r0, #1
 1494              	.LVL117:
ARM GAS  C:\Users\ingan\AppData\Local\Temp\ccMtFi7x.s 			page 71


2460:Generated_Source\PSoC5/USBUART.c ****     }
2461:Generated_Source\PSoC5/USBUART.c **** 
2462:Generated_Source\PSoC5/USBUART.c ****     return (result);
2463:Generated_Source\PSoC5/USBUART.c **** }
 1495              		.loc 1 2463 0
 1496 0010 7047     		bx	lr
 1497              	.L115:
 1498 0012 00BF     		.align	2
 1499              	.L114:
 1500 0014 00000000 		.word	USBUART_deviceStatus
 1501              		.cfi_endproc
 1502              	.LFE20:
 1503              		.size	USBUART_RWUEnabled, .-USBUART_RWUEnabled
 1504              		.section	.text.USBUART_GetDeviceAddress,"ax",%progbits
 1505              		.align	2
 1506              		.global	USBUART_GetDeviceAddress
 1507              		.thumb
 1508              		.thumb_func
 1509              		.type	USBUART_GetDeviceAddress, %function
 1510              	USBUART_GetDeviceAddress:
 1511              	.LFB21:
2464:Generated_Source\PSoC5/USBUART.c **** 
2465:Generated_Source\PSoC5/USBUART.c **** 
2466:Generated_Source\PSoC5/USBUART.c **** /*******************************************************************************
2467:Generated_Source\PSoC5/USBUART.c **** * Function Name: USBUART_GetDeviceAddress
2468:Generated_Source\PSoC5/USBUART.c **** ****************************************************************************//**
2469:Generated_Source\PSoC5/USBUART.c **** *
2470:Generated_Source\PSoC5/USBUART.c **** *  This function returns the currently assigned address for the USB device.
2471:Generated_Source\PSoC5/USBUART.c **** *
2472:Generated_Source\PSoC5/USBUART.c **** * \return
2473:Generated_Source\PSoC5/USBUART.c **** *  Returns the currently assigned address.
2474:Generated_Source\PSoC5/USBUART.c **** *  Returns 0 if the device has not yet been assigned an address.
2475:Generated_Source\PSoC5/USBUART.c **** *
2476:Generated_Source\PSoC5/USBUART.c **** *******************************************************************************/
2477:Generated_Source\PSoC5/USBUART.c **** uint8 USBUART_GetDeviceAddress(void) 
2478:Generated_Source\PSoC5/USBUART.c **** {
 1512              		.loc 1 2478 0
 1513              		.cfi_startproc
 1514              		@ args = 0, pretend = 0, frame = 0
 1515              		@ frame_needed = 0, uses_anonymous_args = 0
 1516              		@ link register save eliminated.
2479:Generated_Source\PSoC5/USBUART.c ****     return (uint8)(USBUART_CR0_REG & USBUART_CR0_DEVICE_ADDRESS_MASK);
 1517              		.loc 1 2479 0
 1518 0000 024B     		ldr	r3, .L117
 1519 0002 1878     		ldrb	r0, [r3]	@ zero_extendqisi2
2480:Generated_Source\PSoC5/USBUART.c **** }
 1520              		.loc 1 2480 0
 1521 0004 00F07F00 		and	r0, r0, #127
 1522 0008 7047     		bx	lr
 1523              	.L118:
 1524 000a 00BF     		.align	2
 1525              	.L117:
 1526 000c 08600040 		.word	1073766408
 1527              		.cfi_endproc
 1528              	.LFE21:
 1529              		.size	USBUART_GetDeviceAddress, .-USBUART_GetDeviceAddress
 1530              		.section	.text.USBUART_EnableSofInt,"ax",%progbits
ARM GAS  C:\Users\ingan\AppData\Local\Temp\ccMtFi7x.s 			page 72


 1531              		.align	2
 1532              		.global	USBUART_EnableSofInt
 1533              		.thumb
 1534              		.thumb_func
 1535              		.type	USBUART_EnableSofInt, %function
 1536              	USBUART_EnableSofInt:
 1537              	.LFB22:
2481:Generated_Source\PSoC5/USBUART.c **** 
2482:Generated_Source\PSoC5/USBUART.c **** 
2483:Generated_Source\PSoC5/USBUART.c **** /*******************************************************************************
2484:Generated_Source\PSoC5/USBUART.c **** * Function Name: USBUART_EnableSofInt
2485:Generated_Source\PSoC5/USBUART.c **** ****************************************************************************//**
2486:Generated_Source\PSoC5/USBUART.c **** *
2487:Generated_Source\PSoC5/USBUART.c **** *  This function enables interrupt generation when a Start-of-Frame (SOF)
2488:Generated_Source\PSoC5/USBUART.c **** *  packet is received from the host.
2489:Generated_Source\PSoC5/USBUART.c **** *
2490:Generated_Source\PSoC5/USBUART.c **** *******************************************************************************/
2491:Generated_Source\PSoC5/USBUART.c **** void USBUART_EnableSofInt(void) 
2492:Generated_Source\PSoC5/USBUART.c **** {
 1538              		.loc 1 2492 0
 1539              		.cfi_startproc
 1540              		@ args = 0, pretend = 0, frame = 0
 1541              		@ frame_needed = 0, uses_anonymous_args = 0
 1542              		@ link register save eliminated.
2493:Generated_Source\PSoC5/USBUART.c **** #if (CY_PSOC4)
2494:Generated_Source\PSoC5/USBUART.c ****     /* Enable SOF interrupt interrupt source. */
2495:Generated_Source\PSoC5/USBUART.c ****     USBUART_INTR_SIE_MASK_REG |= (uint32) USBUART_INTR_SIE_SOF_INTR;
2496:Generated_Source\PSoC5/USBUART.c **** #else
2497:Generated_Source\PSoC5/USBUART.c ****     /* Enable SOF interrupt if it is present. */
2498:Generated_Source\PSoC5/USBUART.c ****     #if (USBUART_SOF_ISR_ACTIVE)
2499:Generated_Source\PSoC5/USBUART.c ****         CyIntEnable(USBUART_SOF_VECT_NUM);
 1543              		.loc 1 2499 0
 1544 0000 4FF40012 		mov	r2, #2097152
 1545 0004 014B     		ldr	r3, .L120
 1546 0006 1A60     		str	r2, [r3]
 1547 0008 7047     		bx	lr
 1548              	.L121:
 1549 000a 00BF     		.align	2
 1550              	.L120:
 1551 000c 00E100E0 		.word	-536813312
 1552              		.cfi_endproc
 1553              	.LFE22:
 1554              		.size	USBUART_EnableSofInt, .-USBUART_EnableSofInt
 1555              		.section	.text.USBUART_DisableSofInt,"ax",%progbits
 1556              		.align	2
 1557              		.global	USBUART_DisableSofInt
 1558              		.thumb
 1559              		.thumb_func
 1560              		.type	USBUART_DisableSofInt, %function
 1561              	USBUART_DisableSofInt:
 1562              	.LFB23:
2500:Generated_Source\PSoC5/USBUART.c ****     #endif /* (USBUART_SOF_ISR_ACTIVE) */
2501:Generated_Source\PSoC5/USBUART.c **** #endif /* (CY_PSOC4) */
2502:Generated_Source\PSoC5/USBUART.c **** }
2503:Generated_Source\PSoC5/USBUART.c **** 
2504:Generated_Source\PSoC5/USBUART.c **** 
2505:Generated_Source\PSoC5/USBUART.c **** /*******************************************************************************
ARM GAS  C:\Users\ingan\AppData\Local\Temp\ccMtFi7x.s 			page 73


2506:Generated_Source\PSoC5/USBUART.c **** * Function Name: USBUART_DisableSofInt
2507:Generated_Source\PSoC5/USBUART.c **** ****************************************************************************//**
2508:Generated_Source\PSoC5/USBUART.c **** *
2509:Generated_Source\PSoC5/USBUART.c **** *  This function disables interrupt generation when a Start-of-Frame (SOF)
2510:Generated_Source\PSoC5/USBUART.c **** *  packet is received from the host.
2511:Generated_Source\PSoC5/USBUART.c **** *
2512:Generated_Source\PSoC5/USBUART.c **** *******************************************************************************/
2513:Generated_Source\PSoC5/USBUART.c **** void USBUART_DisableSofInt(void) 
2514:Generated_Source\PSoC5/USBUART.c **** {
 1563              		.loc 1 2514 0
 1564              		.cfi_startproc
 1565              		@ args = 0, pretend = 0, frame = 0
 1566              		@ frame_needed = 0, uses_anonymous_args = 0
 1567              		@ link register save eliminated.
2515:Generated_Source\PSoC5/USBUART.c **** #if (CY_PSOC4)
2516:Generated_Source\PSoC5/USBUART.c ****     /* Disable SOF interrupt interrupt source. */
2517:Generated_Source\PSoC5/USBUART.c ****     USBUART_INTR_SIE_MASK_REG &= (uint32) ~USBUART_INTR_SIE_SOF_INTR;
2518:Generated_Source\PSoC5/USBUART.c **** #else
2519:Generated_Source\PSoC5/USBUART.c ****     /* Disable SOF interrupt if it is present. */
2520:Generated_Source\PSoC5/USBUART.c ****     #if (USBUART_SOF_ISR_ACTIVE)
2521:Generated_Source\PSoC5/USBUART.c ****         CyIntDisable(USBUART_SOF_VECT_NUM);
 1568              		.loc 1 2521 0
 1569 0000 4FF40012 		mov	r2, #2097152
 1570 0004 014B     		ldr	r3, .L123
 1571 0006 1A60     		str	r2, [r3]
 1572 0008 7047     		bx	lr
 1573              	.L124:
 1574 000a 00BF     		.align	2
 1575              	.L123:
 1576 000c 80E100E0 		.word	-536813184
 1577              		.cfi_endproc
 1578              	.LFE23:
 1579              		.size	USBUART_DisableSofInt, .-USBUART_DisableSofInt
 1580              		.comm	USBUART_DmaTd,9,4
 1581              		.comm	USBUART_DmaChan,9,4
 1582              		.global	USBUART_initVar
 1583              		.bss
 1584              		.set	.LANCHOR0,. + 0
 1585              		.type	USBUART_initVar, %object
 1586              		.size	USBUART_initVar, 1
 1587              	USBUART_initVar:
 1588 0000 00       		.space	1
 1589              		.text
 1590              	.Letext0:
 1591              		.file 2 "Generated_Source\\PSoC5\\cytypes.h"
 1592              		.file 3 "Generated_Source\\PSoC5\\USBUART.h"
 1593              		.file 4 "Generated_Source\\PSoC5\\USBUART_pvt.h"
 1594              		.file 5 "Generated_Source\\PSoC5\\CyLib.h"
 1595              		.file 6 "Generated_Source\\PSoC5\\USBUART_ep1_dma.h"
 1596              		.file 7 "Generated_Source\\PSoC5\\USBUART_ep2_dma.h"
 1597              		.file 8 "Generated_Source\\PSoC5\\USBUART_ep3_dma.h"
 1598              		.file 9 "Generated_Source\\PSoC5/CyDmac.h"
 1599              		.file 10 "Generated_Source\\PSoC5\\USBUART_Dp.h"
 1600              		.section	.debug_info,"",%progbits
 1601              	.Ldebug_info0:
 1602 0000 210C0000 		.4byte	0xc21
 1603 0004 0400     		.2byte	0x4
ARM GAS  C:\Users\ingan\AppData\Local\Temp\ccMtFi7x.s 			page 74


 1604 0006 00000000 		.4byte	.Ldebug_abbrev0
 1605 000a 04       		.byte	0x4
 1606 000b 01       		.uleb128 0x1
 1607 000c 87060000 		.4byte	.LASF113
 1608 0010 0C       		.byte	0xc
 1609 0011 E6020000 		.4byte	.LASF114
 1610 0015 E7040000 		.4byte	.LASF115
 1611 0019 00000000 		.4byte	.Ldebug_ranges0+0
 1612 001d 00000000 		.4byte	0
 1613 0021 00000000 		.4byte	.Ldebug_line0
 1614 0025 02       		.uleb128 0x2
 1615 0026 01       		.byte	0x1
 1616 0027 06       		.byte	0x6
 1617 0028 39020000 		.4byte	.LASF0
 1618 002c 02       		.uleb128 0x2
 1619 002d 01       		.byte	0x1
 1620 002e 08       		.byte	0x8
 1621 002f 28030000 		.4byte	.LASF1
 1622 0033 02       		.uleb128 0x2
 1623 0034 02       		.byte	0x2
 1624 0035 05       		.byte	0x5
 1625 0036 C5000000 		.4byte	.LASF2
 1626 003a 02       		.uleb128 0x2
 1627 003b 02       		.byte	0x2
 1628 003c 07       		.byte	0x7
 1629 003d 31040000 		.4byte	.LASF3
 1630 0041 02       		.uleb128 0x2
 1631 0042 04       		.byte	0x4
 1632 0043 05       		.byte	0x5
 1633 0044 6E040000 		.4byte	.LASF4
 1634 0048 02       		.uleb128 0x2
 1635 0049 04       		.byte	0x4
 1636 004a 07       		.byte	0x7
 1637 004b 3F050000 		.4byte	.LASF5
 1638 004f 02       		.uleb128 0x2
 1639 0050 08       		.byte	0x8
 1640 0051 05       		.byte	0x5
 1641 0052 9C020000 		.4byte	.LASF6
 1642 0056 02       		.uleb128 0x2
 1643 0057 08       		.byte	0x8
 1644 0058 07       		.byte	0x7
 1645 0059 C1030000 		.4byte	.LASF7
 1646 005d 03       		.uleb128 0x3
 1647 005e 04       		.byte	0x4
 1648 005f 05       		.byte	0x5
 1649 0060 696E7400 		.ascii	"int\000"
 1650 0064 02       		.uleb128 0x2
 1651 0065 04       		.byte	0x4
 1652 0066 07       		.byte	0x7
 1653 0067 EE030000 		.4byte	.LASF8
 1654 006b 04       		.uleb128 0x4
 1655 006c C9040000 		.4byte	.LASF9
 1656 0070 02       		.byte	0x2
 1657 0071 E401     		.2byte	0x1e4
 1658 0073 2C000000 		.4byte	0x2c
 1659 0077 04       		.uleb128 0x4
 1660 0078 D3010000 		.4byte	.LASF10
ARM GAS  C:\Users\ingan\AppData\Local\Temp\ccMtFi7x.s 			page 75


 1661 007c 02       		.byte	0x2
 1662 007d E501     		.2byte	0x1e5
 1663 007f 3A000000 		.4byte	0x3a
 1664 0083 04       		.uleb128 0x4
 1665 0084 33050000 		.4byte	.LASF11
 1666 0088 02       		.byte	0x2
 1667 0089 E601     		.2byte	0x1e6
 1668 008b 48000000 		.4byte	0x48
 1669 008f 02       		.uleb128 0x2
 1670 0090 04       		.byte	0x4
 1671 0091 04       		.byte	0x4
 1672 0092 53020000 		.4byte	.LASF12
 1673 0096 02       		.uleb128 0x2
 1674 0097 08       		.byte	0x8
 1675 0098 04       		.byte	0x4
 1676 0099 51050000 		.4byte	.LASF13
 1677 009d 02       		.uleb128 0x2
 1678 009e 01       		.byte	0x1
 1679 009f 08       		.byte	0x8
 1680 00a0 69040000 		.4byte	.LASF14
 1681 00a4 04       		.uleb128 0x4
 1682 00a5 3A050000 		.4byte	.LASF15
 1683 00a9 02       		.byte	0x2
 1684 00aa 8E02     		.2byte	0x28e
 1685 00ac B0000000 		.4byte	0xb0
 1686 00b0 05       		.uleb128 0x5
 1687 00b1 6B000000 		.4byte	0x6b
 1688 00b5 04       		.uleb128 0x4
 1689 00b6 14040000 		.4byte	.LASF16
 1690 00ba 02       		.byte	0x2
 1691 00bb 9002     		.2byte	0x290
 1692 00bd C1000000 		.4byte	0xc1
 1693 00c1 05       		.uleb128 0x5
 1694 00c2 83000000 		.4byte	0x83
 1695 00c6 02       		.uleb128 0x2
 1696 00c7 08       		.byte	0x8
 1697 00c8 04       		.byte	0x4
 1698 00c9 2E010000 		.4byte	.LASF17
 1699 00cd 02       		.uleb128 0x2
 1700 00ce 04       		.byte	0x4
 1701 00cf 07       		.byte	0x7
 1702 00d0 E7000000 		.4byte	.LASF18
 1703 00d4 06       		.uleb128 0x6
 1704 00d5 0C       		.byte	0xc
 1705 00d6 03       		.byte	0x3
 1706 00d7 8D       		.byte	0x8d
 1707 00d8 49010000 		.4byte	0x149
 1708 00dc 07       		.uleb128 0x7
 1709 00dd 6D030000 		.4byte	.LASF19
 1710 00e1 03       		.byte	0x3
 1711 00e2 8F       		.byte	0x8f
 1712 00e3 6B000000 		.4byte	0x6b
 1713 00e7 00       		.byte	0
 1714 00e8 07       		.uleb128 0x7
 1715 00e9 8D050000 		.4byte	.LASF20
 1716 00ed 03       		.byte	0x3
 1717 00ee 90       		.byte	0x90
ARM GAS  C:\Users\ingan\AppData\Local\Temp\ccMtFi7x.s 			page 76


 1718 00ef 6B000000 		.4byte	0x6b
 1719 00f3 01       		.byte	0x1
 1720 00f4 07       		.uleb128 0x7
 1721 00f5 DD040000 		.4byte	.LASF21
 1722 00f9 03       		.byte	0x3
 1723 00fa 91       		.byte	0x91
 1724 00fb 6B000000 		.4byte	0x6b
 1725 00ff 02       		.byte	0x2
 1726 0100 07       		.uleb128 0x7
 1727 0101 10000000 		.4byte	.LASF22
 1728 0105 03       		.byte	0x3
 1729 0106 92       		.byte	0x92
 1730 0107 6B000000 		.4byte	0x6b
 1731 010b 03       		.byte	0x3
 1732 010c 07       		.uleb128 0x7
 1733 010d BD040000 		.4byte	.LASF23
 1734 0111 03       		.byte	0x3
 1735 0112 93       		.byte	0x93
 1736 0113 6B000000 		.4byte	0x6b
 1737 0117 04       		.byte	0x4
 1738 0118 07       		.uleb128 0x7
 1739 0119 07010000 		.4byte	.LASF24
 1740 011d 03       		.byte	0x3
 1741 011e 94       		.byte	0x94
 1742 011f 6B000000 		.4byte	0x6b
 1743 0123 05       		.byte	0x5
 1744 0124 07       		.uleb128 0x7
 1745 0125 62030000 		.4byte	.LASF25
 1746 0129 03       		.byte	0x3
 1747 012a 95       		.byte	0x95
 1748 012b 77000000 		.4byte	0x77
 1749 012f 06       		.byte	0x6
 1750 0130 07       		.uleb128 0x7
 1751 0131 B2050000 		.4byte	.LASF26
 1752 0135 03       		.byte	0x3
 1753 0136 96       		.byte	0x96
 1754 0137 77000000 		.4byte	0x77
 1755 013b 08       		.byte	0x8
 1756 013c 07       		.uleb128 0x7
 1757 013d 1E070000 		.4byte	.LASF27
 1758 0141 03       		.byte	0x3
 1759 0142 97       		.byte	0x97
 1760 0143 6B000000 		.4byte	0x6b
 1761 0147 0A       		.byte	0xa
 1762 0148 00       		.byte	0
 1763 0149 08       		.uleb128 0x8
 1764 014a E1050000 		.4byte	.LASF28
 1765 014e 03       		.byte	0x3
 1766 014f 98       		.byte	0x98
 1767 0150 D4000000 		.4byte	0xd4
 1768 0154 06       		.uleb128 0x6
 1769 0155 10       		.byte	0x10
 1770 0156 03       		.byte	0x3
 1771 0157 D4       		.byte	0xd4
 1772 0158 8D010000 		.4byte	0x18d
 1773 015c 07       		.uleb128 0x7
 1774 015d C2040000 		.4byte	.LASF29
ARM GAS  C:\Users\ingan\AppData\Local\Temp\ccMtFi7x.s 			page 77


 1775 0161 03       		.byte	0x3
 1776 0162 D6       		.byte	0xd6
 1777 0163 6B000000 		.4byte	0x6b
 1778 0167 00       		.byte	0
 1779 0168 07       		.uleb128 0x7
 1780 0169 D6040000 		.4byte	.LASF30
 1781 016d 03       		.byte	0x3
 1782 016e D7       		.byte	0xd7
 1783 016f 6B000000 		.4byte	0x6b
 1784 0173 01       		.byte	0x1
 1785 0174 07       		.uleb128 0x7
 1786 0175 C7020000 		.4byte	.LASF31
 1787 0179 03       		.byte	0x3
 1788 017a D8       		.byte	0xd8
 1789 017b 6B000000 		.4byte	0x6b
 1790 017f 02       		.byte	0x2
 1791 0180 09       		.uleb128 0x9
 1792 0181 67617000 		.ascii	"gap\000"
 1793 0185 03       		.byte	0x3
 1794 0186 D9       		.byte	0xd9
 1795 0187 8D010000 		.4byte	0x18d
 1796 018b 03       		.byte	0x3
 1797 018c 00       		.byte	0
 1798 018d 0A       		.uleb128 0xa
 1799 018e 6B000000 		.4byte	0x6b
 1800 0192 9D010000 		.4byte	0x19d
 1801 0196 0B       		.uleb128 0xb
 1802 0197 CD000000 		.4byte	0xcd
 1803 019b 0C       		.byte	0xc
 1804 019c 00       		.byte	0
 1805 019d 08       		.uleb128 0x8
 1806 019e F6010000 		.4byte	.LASF32
 1807 01a2 03       		.byte	0x3
 1808 01a3 DA       		.byte	0xda
 1809 01a4 54010000 		.4byte	0x154
 1810 01a8 06       		.uleb128 0x6
 1811 01a9 10       		.byte	0x10
 1812 01aa 03       		.byte	0x3
 1813 01ab E6       		.byte	0xe6
 1814 01ac 29020000 		.4byte	0x229
 1815 01b0 07       		.uleb128 0x7
 1816 01b1 E0020000 		.4byte	.LASF33
 1817 01b5 03       		.byte	0x3
 1818 01b6 E8       		.byte	0xe8
 1819 01b7 6B000000 		.4byte	0x6b
 1820 01bb 00       		.byte	0
 1821 01bc 07       		.uleb128 0x7
 1822 01bd BD000000 		.4byte	.LASF34
 1823 01c1 03       		.byte	0x3
 1824 01c2 E9       		.byte	0xe9
 1825 01c3 6B000000 		.4byte	0x6b
 1826 01c7 01       		.byte	0x1
 1827 01c8 07       		.uleb128 0x7
 1828 01c9 97030000 		.4byte	.LASF35
 1829 01cd 03       		.byte	0x3
 1830 01ce EA       		.byte	0xea
 1831 01cf 6B000000 		.4byte	0x6b
ARM GAS  C:\Users\ingan\AppData\Local\Temp\ccMtFi7x.s 			page 78


 1832 01d3 02       		.byte	0x2
 1833 01d4 07       		.uleb128 0x7
 1834 01d5 15070000 		.4byte	.LASF36
 1835 01d9 03       		.byte	0x3
 1836 01da EB       		.byte	0xeb
 1837 01db 6B000000 		.4byte	0x6b
 1838 01df 03       		.byte	0x3
 1839 01e0 07       		.uleb128 0x7
 1840 01e1 00040000 		.4byte	.LASF37
 1841 01e5 03       		.byte	0x3
 1842 01e6 EC       		.byte	0xec
 1843 01e7 6B000000 		.4byte	0x6b
 1844 01eb 04       		.byte	0x4
 1845 01ec 07       		.uleb128 0x7
 1846 01ed 8F030000 		.4byte	.LASF38
 1847 01f1 03       		.byte	0x3
 1848 01f2 ED       		.byte	0xed
 1849 01f3 6B000000 		.4byte	0x6b
 1850 01f7 05       		.byte	0x5
 1851 01f8 07       		.uleb128 0x7
 1852 01f9 DA010000 		.4byte	.LASF39
 1853 01fd 03       		.byte	0x3
 1854 01fe EE       		.byte	0xee
 1855 01ff 6B000000 		.4byte	0x6b
 1856 0203 06       		.byte	0x6
 1857 0204 07       		.uleb128 0x7
 1858 0205 44040000 		.4byte	.LASF40
 1859 0209 03       		.byte	0x3
 1860 020a EF       		.byte	0xef
 1861 020b 6B000000 		.4byte	0x6b
 1862 020f 07       		.byte	0x7
 1863 0210 07       		.uleb128 0x7
 1864 0211 FB030000 		.4byte	.LASF41
 1865 0215 03       		.byte	0x3
 1866 0216 F0       		.byte	0xf0
 1867 0217 6B000000 		.4byte	0x6b
 1868 021b 08       		.byte	0x8
 1869 021c 09       		.uleb128 0x9
 1870 021d 67617000 		.ascii	"gap\000"
 1871 0221 03       		.byte	0x3
 1872 0222 F1       		.byte	0xf1
 1873 0223 29020000 		.4byte	0x229
 1874 0227 09       		.byte	0x9
 1875 0228 00       		.byte	0
 1876 0229 0A       		.uleb128 0xa
 1877 022a 6B000000 		.4byte	0x6b
 1878 022e 39020000 		.4byte	0x239
 1879 0232 0B       		.uleb128 0xb
 1880 0233 CD000000 		.4byte	0xcd
 1881 0237 06       		.byte	0x6
 1882 0238 00       		.byte	0
 1883 0239 08       		.uleb128 0x8
 1884 023a D8030000 		.4byte	.LASF42
 1885 023e 03       		.byte	0x3
 1886 023f F2       		.byte	0xf2
 1887 0240 A8010000 		.4byte	0x1a8
 1888 0244 0C       		.uleb128 0xc
ARM GAS  C:\Users\ingan\AppData\Local\Temp\ccMtFi7x.s 			page 79


 1889 0245 90       		.byte	0x90
 1890 0246 03       		.byte	0x3
 1891 0247 0E01     		.2byte	0x10e
 1892 0249 5B020000 		.4byte	0x25b
 1893 024d 0D       		.uleb128 0xd
 1894 024e 1D020000 		.4byte	.LASF43
 1895 0252 03       		.byte	0x3
 1896 0253 1001     		.2byte	0x110
 1897 0255 5B020000 		.4byte	0x25b
 1898 0259 00       		.byte	0
 1899 025a 00       		.byte	0
 1900 025b 0A       		.uleb128 0xa
 1901 025c 9D010000 		.4byte	0x19d
 1902 0260 6B020000 		.4byte	0x26b
 1903 0264 0B       		.uleb128 0xb
 1904 0265 CD000000 		.4byte	0xcd
 1905 0269 08       		.byte	0x8
 1906 026a 00       		.byte	0
 1907 026b 04       		.uleb128 0x4
 1908 026c 6C010000 		.4byte	.LASF44
 1909 0270 03       		.byte	0x3
 1910 0271 1101     		.2byte	0x111
 1911 0273 44020000 		.4byte	0x244
 1912 0277 0C       		.uleb128 0xc
 1913 0278 90       		.byte	0x90
 1914 0279 03       		.byte	0x3
 1915 027a 1401     		.2byte	0x114
 1916 027c 8E020000 		.4byte	0x28e
 1917 0280 0D       		.uleb128 0xd
 1918 0281 0E010000 		.4byte	.LASF45
 1919 0285 03       		.byte	0x3
 1920 0286 1601     		.2byte	0x116
 1921 0288 8E020000 		.4byte	0x28e
 1922 028c 00       		.byte	0
 1923 028d 00       		.byte	0
 1924 028e 0A       		.uleb128 0xa
 1925 028f 39020000 		.4byte	0x239
 1926 0293 9E020000 		.4byte	0x29e
 1927 0297 0B       		.uleb128 0xb
 1928 0298 CD000000 		.4byte	0xcd
 1929 029c 08       		.byte	0x8
 1930 029d 00       		.byte	0
 1931 029e 04       		.uleb128 0x4
 1932 029f F0000000 		.4byte	.LASF46
 1933 02a3 03       		.byte	0x3
 1934 02a4 1701     		.2byte	0x117
 1935 02a6 77020000 		.4byte	0x277
 1936 02aa 0E       		.uleb128 0xe
 1937 02ab 9C030000 		.4byte	.LASF48
 1938 02af 01       		.byte	0x1
 1939 02b0 D3       		.byte	0xd3
 1940 02b1 00000000 		.4byte	.LFB1
 1941 02b5 68010000 		.4byte	.LFE1-.LFB1
 1942 02b9 01       		.uleb128 0x1
 1943 02ba 9C       		.byte	0x9c
 1944 02bb A0040000 		.4byte	0x4a0
 1945 02bf 0F       		.uleb128 0xf
ARM GAS  C:\Users\ingan\AppData\Local\Temp\ccMtFi7x.s 			page 80


 1946 02c0 2F070000 		.4byte	.LASF47
 1947 02c4 01       		.byte	0x1
 1948 02c5 FA       		.byte	0xfa
 1949 02c6 6B000000 		.4byte	0x6b
 1950 02ca 00000000 		.4byte	.LLST0
 1951 02ce 10       		.uleb128 0x10
 1952 02cf 6900     		.ascii	"i\000"
 1953 02d1 01       		.byte	0x1
 1954 02d2 FD       		.byte	0xfd
 1955 02d3 77000000 		.4byte	0x77
 1956 02d7 13000000 		.4byte	.LLST1
 1957 02db 11       		.uleb128 0x11
 1958 02dc 06000000 		.4byte	.LVL0
 1959 02e0 690B0000 		.4byte	0xb69
 1960 02e4 12       		.uleb128 0x12
 1961 02e5 3C000000 		.4byte	.LVL2
 1962 02e9 740B0000 		.4byte	0xb74
 1963 02ed F7020000 		.4byte	0x2f7
 1964 02f1 13       		.uleb128 0x13
 1965 02f2 01       		.uleb128 0x1
 1966 02f3 50       		.byte	0x50
 1967 02f4 01       		.uleb128 0x1
 1968 02f5 30       		.byte	0x30
 1969 02f6 00       		.byte	0
 1970 02f7 12       		.uleb128 0x12
 1971 02f8 5C000000 		.4byte	.LVL3
 1972 02fc 740B0000 		.4byte	0xb74
 1973 0300 0B030000 		.4byte	0x30b
 1974 0304 13       		.uleb128 0x13
 1975 0305 01       		.uleb128 0x1
 1976 0306 50       		.byte	0x50
 1977 0307 02       		.uleb128 0x2
 1978 0308 77       		.byte	0x77
 1979 0309 00       		.sleb128 0
 1980 030a 00       		.byte	0
 1981 030b 12       		.uleb128 0x12
 1982 030c 62000000 		.4byte	.LVL4
 1983 0310 740B0000 		.4byte	0xb74
 1984 0314 1F030000 		.4byte	0x31f
 1985 0318 13       		.uleb128 0x13
 1986 0319 01       		.uleb128 0x1
 1987 031a 50       		.byte	0x50
 1988 031b 02       		.uleb128 0x2
 1989 031c 08       		.byte	0x8
 1990 031d 28       		.byte	0x28
 1991 031e 00       		.byte	0
 1992 031f 12       		.uleb128 0x12
 1993 0320 80000000 		.4byte	.LVL5
 1994 0324 740B0000 		.4byte	0xb74
 1995 0328 33030000 		.4byte	0x333
 1996 032c 13       		.uleb128 0x13
 1997 032d 01       		.uleb128 0x1
 1998 032e 50       		.byte	0x50
 1999 032f 02       		.uleb128 0x2
 2000 0330 76       		.byte	0x76
 2001 0331 00       		.sleb128 0
 2002 0332 00       		.byte	0
ARM GAS  C:\Users\ingan\AppData\Local\Temp\ccMtFi7x.s 			page 81


 2003 0333 12       		.uleb128 0x12
 2004 0334 A8000000 		.4byte	.LVL10
 2005 0338 7F0B0000 		.4byte	0xb7f
 2006 033c 47030000 		.4byte	0x347
 2007 0340 13       		.uleb128 0x13
 2008 0341 01       		.uleb128 0x1
 2009 0342 50       		.byte	0x50
 2010 0343 02       		.uleb128 0x2
 2011 0344 75       		.byte	0x75
 2012 0345 00       		.sleb128 0
 2013 0346 00       		.byte	0
 2014 0347 12       		.uleb128 0x12
 2015 0348 B0000000 		.4byte	.LVL11
 2016 034c 8A0B0000 		.4byte	0xb8a
 2017 0350 5F030000 		.4byte	0x35f
 2018 0354 13       		.uleb128 0x13
 2019 0355 01       		.uleb128 0x1
 2020 0356 50       		.byte	0x50
 2021 0357 01       		.uleb128 0x1
 2022 0358 47       		.byte	0x47
 2023 0359 13       		.uleb128 0x13
 2024 035a 01       		.uleb128 0x1
 2025 035b 51       		.byte	0x51
 2026 035c 01       		.uleb128 0x1
 2027 035d 37       		.byte	0x37
 2028 035e 00       		.byte	0
 2029 035f 12       		.uleb128 0x12
 2030 0360 B8000000 		.4byte	.LVL12
 2031 0364 950B0000 		.4byte	0xb95
 2032 0368 72030000 		.4byte	0x372
 2033 036c 13       		.uleb128 0x13
 2034 036d 01       		.uleb128 0x1
 2035 036e 50       		.byte	0x50
 2036 036f 01       		.uleb128 0x1
 2037 0370 47       		.byte	0x47
 2038 0371 00       		.byte	0
 2039 0372 12       		.uleb128 0x12
 2040 0373 C0000000 		.4byte	.LVL13
 2041 0377 8A0B0000 		.4byte	0xb8a
 2042 037b 8A030000 		.4byte	0x38a
 2043 037f 13       		.uleb128 0x13
 2044 0380 01       		.uleb128 0x1
 2045 0381 50       		.byte	0x50
 2046 0382 01       		.uleb128 0x1
 2047 0383 48       		.byte	0x48
 2048 0384 13       		.uleb128 0x13
 2049 0385 01       		.uleb128 0x1
 2050 0386 51       		.byte	0x51
 2051 0387 01       		.uleb128 0x1
 2052 0388 37       		.byte	0x37
 2053 0389 00       		.byte	0
 2054 038a 12       		.uleb128 0x12
 2055 038b C8000000 		.4byte	.LVL14
 2056 038f 950B0000 		.4byte	0xb95
 2057 0393 9D030000 		.4byte	0x39d
 2058 0397 13       		.uleb128 0x13
 2059 0398 01       		.uleb128 0x1
ARM GAS  C:\Users\ingan\AppData\Local\Temp\ccMtFi7x.s 			page 82


 2060 0399 50       		.byte	0x50
 2061 039a 01       		.uleb128 0x1
 2062 039b 48       		.byte	0x48
 2063 039c 00       		.byte	0
 2064 039d 12       		.uleb128 0x12
 2065 039e D0000000 		.4byte	.LVL15
 2066 03a2 8A0B0000 		.4byte	0xb8a
 2067 03a6 B5030000 		.4byte	0x3b5
 2068 03aa 13       		.uleb128 0x13
 2069 03ab 01       		.uleb128 0x1
 2070 03ac 50       		.byte	0x50
 2071 03ad 01       		.uleb128 0x1
 2072 03ae 45       		.byte	0x45
 2073 03af 13       		.uleb128 0x13
 2074 03b0 01       		.uleb128 0x1
 2075 03b1 51       		.byte	0x51
 2076 03b2 01       		.uleb128 0x1
 2077 03b3 37       		.byte	0x37
 2078 03b4 00       		.byte	0
 2079 03b5 12       		.uleb128 0x12
 2080 03b6 D8000000 		.4byte	.LVL16
 2081 03ba 950B0000 		.4byte	0xb95
 2082 03be C8030000 		.4byte	0x3c8
 2083 03c2 13       		.uleb128 0x13
 2084 03c3 01       		.uleb128 0x1
 2085 03c4 50       		.byte	0x50
 2086 03c5 01       		.uleb128 0x1
 2087 03c6 45       		.byte	0x45
 2088 03c7 00       		.byte	0
 2089 03c8 12       		.uleb128 0x12
 2090 03c9 E0000000 		.4byte	.LVL17
 2091 03cd 8A0B0000 		.4byte	0xb8a
 2092 03d1 E0030000 		.4byte	0x3e0
 2093 03d5 13       		.uleb128 0x13
 2094 03d6 01       		.uleb128 0x1
 2095 03d7 50       		.byte	0x50
 2096 03d8 01       		.uleb128 0x1
 2097 03d9 30       		.byte	0x30
 2098 03da 13       		.uleb128 0x13
 2099 03db 01       		.uleb128 0x1
 2100 03dc 51       		.byte	0x51
 2101 03dd 01       		.uleb128 0x1
 2102 03de 37       		.byte	0x37
 2103 03df 00       		.byte	0
 2104 03e0 12       		.uleb128 0x12
 2105 03e1 E8000000 		.4byte	.LVL18
 2106 03e5 950B0000 		.4byte	0xb95
 2107 03e9 F3030000 		.4byte	0x3f3
 2108 03ed 13       		.uleb128 0x13
 2109 03ee 01       		.uleb128 0x1
 2110 03ef 50       		.byte	0x50
 2111 03f0 01       		.uleb128 0x1
 2112 03f1 30       		.byte	0x30
 2113 03f2 00       		.byte	0
 2114 03f3 12       		.uleb128 0x12
 2115 03f4 F0000000 		.4byte	.LVL19
 2116 03f8 8A0B0000 		.4byte	0xb8a
ARM GAS  C:\Users\ingan\AppData\Local\Temp\ccMtFi7x.s 			page 83


 2117 03fc 0C040000 		.4byte	0x40c
 2118 0400 13       		.uleb128 0x13
 2119 0401 01       		.uleb128 0x1
 2120 0402 50       		.byte	0x50
 2121 0403 02       		.uleb128 0x2
 2122 0404 77       		.byte	0x77
 2123 0405 00       		.sleb128 0
 2124 0406 13       		.uleb128 0x13
 2125 0407 01       		.uleb128 0x1
 2126 0408 51       		.byte	0x51
 2127 0409 01       		.uleb128 0x1
 2128 040a 37       		.byte	0x37
 2129 040b 00       		.byte	0
 2130 040c 12       		.uleb128 0x12
 2131 040d F8000000 		.4byte	.LVL20
 2132 0411 950B0000 		.4byte	0xb95
 2133 0415 20040000 		.4byte	0x420
 2134 0419 13       		.uleb128 0x13
 2135 041a 01       		.uleb128 0x1
 2136 041b 50       		.byte	0x50
 2137 041c 02       		.uleb128 0x2
 2138 041d 77       		.byte	0x77
 2139 041e 00       		.sleb128 0
 2140 041f 00       		.byte	0
 2141 0420 12       		.uleb128 0x12
 2142 0421 00010000 		.4byte	.LVL21
 2143 0425 8A0B0000 		.4byte	0xb8a
 2144 0429 39040000 		.4byte	0x439
 2145 042d 13       		.uleb128 0x13
 2146 042e 01       		.uleb128 0x1
 2147 042f 50       		.byte	0x50
 2148 0430 02       		.uleb128 0x2
 2149 0431 76       		.byte	0x76
 2150 0432 00       		.sleb128 0
 2151 0433 13       		.uleb128 0x13
 2152 0434 01       		.uleb128 0x1
 2153 0435 51       		.byte	0x51
 2154 0436 01       		.uleb128 0x1
 2155 0437 37       		.byte	0x37
 2156 0438 00       		.byte	0
 2157 0439 12       		.uleb128 0x12
 2158 043a 08010000 		.4byte	.LVL22
 2159 043e 950B0000 		.4byte	0xb95
 2160 0442 4D040000 		.4byte	0x44d
 2161 0446 13       		.uleb128 0x13
 2162 0447 01       		.uleb128 0x1
 2163 0448 50       		.byte	0x50
 2164 0449 02       		.uleb128 0x2
 2165 044a 76       		.byte	0x76
 2166 044b 00       		.sleb128 0
 2167 044c 00       		.byte	0
 2168 044d 12       		.uleb128 0x12
 2169 044e 10010000 		.4byte	.LVL23
 2170 0452 8A0B0000 		.4byte	0xb8a
 2171 0456 65040000 		.4byte	0x465
 2172 045a 13       		.uleb128 0x13
 2173 045b 01       		.uleb128 0x1
ARM GAS  C:\Users\ingan\AppData\Local\Temp\ccMtFi7x.s 			page 84


 2174 045c 50       		.byte	0x50
 2175 045d 01       		.uleb128 0x1
 2176 045e 46       		.byte	0x46
 2177 045f 13       		.uleb128 0x13
 2178 0460 01       		.uleb128 0x1
 2179 0461 51       		.byte	0x51
 2180 0462 01       		.uleb128 0x1
 2181 0463 30       		.byte	0x30
 2182 0464 00       		.byte	0
 2183 0465 12       		.uleb128 0x12
 2184 0466 18010000 		.4byte	.LVL24
 2185 046a 950B0000 		.4byte	0xb95
 2186 046e 78040000 		.4byte	0x478
 2187 0472 13       		.uleb128 0x13
 2188 0473 01       		.uleb128 0x1
 2189 0474 50       		.byte	0x50
 2190 0475 01       		.uleb128 0x1
 2191 0476 46       		.byte	0x46
 2192 0477 00       		.byte	0
 2193 0478 12       		.uleb128 0x12
 2194 0479 20010000 		.4byte	.LVL25
 2195 047d 8A0B0000 		.4byte	0xb8a
 2196 0481 90040000 		.4byte	0x490
 2197 0485 13       		.uleb128 0x13
 2198 0486 01       		.uleb128 0x1
 2199 0487 50       		.byte	0x50
 2200 0488 01       		.uleb128 0x1
 2201 0489 3C       		.byte	0x3c
 2202 048a 13       		.uleb128 0x13
 2203 048b 01       		.uleb128 0x1
 2204 048c 51       		.byte	0x51
 2205 048d 01       		.uleb128 0x1
 2206 048e 37       		.byte	0x37
 2207 048f 00       		.byte	0
 2208 0490 14       		.uleb128 0x14
 2209 0491 28010000 		.4byte	.LVL26
 2210 0495 950B0000 		.4byte	0xb95
 2211 0499 13       		.uleb128 0x13
 2212 049a 01       		.uleb128 0x1
 2213 049b 50       		.byte	0x50
 2214 049c 01       		.uleb128 0x1
 2215 049d 3C       		.byte	0x3c
 2216 049e 00       		.byte	0
 2217 049f 00       		.byte	0
 2218 04a0 15       		.uleb128 0x15
 2219 04a1 CB050000 		.4byte	.LASF49
 2220 04a5 01       		.byte	0x1
 2221 04a6 CC01     		.2byte	0x1cc
 2222 04a8 00000000 		.4byte	.LFB2
 2223 04ac D4000000 		.4byte	.LFE2-.LFB2
 2224 04b0 01       		.uleb128 0x1
 2225 04b1 9C       		.byte	0x9c
 2226 04b2 E6040000 		.4byte	0x4e6
 2227 04b6 16       		.uleb128 0x16
 2228 04b7 4C020000 		.4byte	.LASF50
 2229 04bb 01       		.byte	0x1
 2230 04bc CC01     		.2byte	0x1cc
ARM GAS  C:\Users\ingan\AppData\Local\Temp\ccMtFi7x.s 			page 85


 2231 04be 6B000000 		.4byte	0x6b
 2232 04c2 3D000000 		.4byte	.LLST2
 2233 04c6 16       		.uleb128 0x16
 2234 04c7 4D010000 		.4byte	.LASF51
 2235 04cb 01       		.byte	0x1
 2236 04cc CC01     		.2byte	0x1cc
 2237 04ce 6B000000 		.4byte	0x6b
 2238 04d2 5E000000 		.4byte	.LLST3
 2239 04d6 14       		.uleb128 0x14
 2240 04d7 92000000 		.4byte	.LVL30
 2241 04db A00B0000 		.4byte	0xba0
 2242 04df 13       		.uleb128 0x13
 2243 04e0 01       		.uleb128 0x1
 2244 04e1 50       		.byte	0x50
 2245 04e2 01       		.uleb128 0x1
 2246 04e3 31       		.byte	0x31
 2247 04e4 00       		.byte	0
 2248 04e5 00       		.byte	0
 2249 04e6 0E       		.uleb128 0xe
 2250 04e7 98010000 		.4byte	.LASF52
 2251 04eb 01       		.byte	0x1
 2252 04ec BA       		.byte	0xba
 2253 04ed 00000000 		.4byte	.LFB0
 2254 04f1 24000000 		.4byte	.LFE0-.LFB0
 2255 04f5 01       		.uleb128 0x1
 2256 04f6 9C       		.byte	0x9c
 2257 04f7 39050000 		.4byte	0x539
 2258 04fb 17       		.uleb128 0x17
 2259 04fc 4C020000 		.4byte	.LASF50
 2260 0500 01       		.byte	0x1
 2261 0501 BA       		.byte	0xba
 2262 0502 6B000000 		.4byte	0x6b
 2263 0506 7F000000 		.4byte	.LLST4
 2264 050a 17       		.uleb128 0x17
 2265 050b 4D010000 		.4byte	.LASF51
 2266 050f 01       		.byte	0x1
 2267 0510 BA       		.byte	0xba
 2268 0511 6B000000 		.4byte	0x6b
 2269 0515 A0000000 		.4byte	.LLST5
 2270 0519 11       		.uleb128 0x11
 2271 051a 10000000 		.4byte	.LVL32
 2272 051e AA020000 		.4byte	0x2aa
 2273 0522 14       		.uleb128 0x14
 2274 0523 1E000000 		.4byte	.LVL33
 2275 0527 A0040000 		.4byte	0x4a0
 2276 052b 13       		.uleb128 0x13
 2277 052c 01       		.uleb128 0x1
 2278 052d 50       		.byte	0x50
 2279 052e 02       		.uleb128 0x2
 2280 052f 74       		.byte	0x74
 2281 0530 00       		.sleb128 0
 2282 0531 13       		.uleb128 0x13
 2283 0532 01       		.uleb128 0x1
 2284 0533 51       		.byte	0x51
 2285 0534 02       		.uleb128 0x2
 2286 0535 75       		.byte	0x75
 2287 0536 00       		.sleb128 0
ARM GAS  C:\Users\ingan\AppData\Local\Temp\ccMtFi7x.s 			page 86


 2288 0537 00       		.byte	0
 2289 0538 00       		.byte	0
 2290 0539 18       		.uleb128 0x18
 2291 053a A9030000 		.4byte	.LASF80
 2292 053e 01       		.byte	0x1
 2293 053f 9F02     		.2byte	0x29f
 2294 0541 00000000 		.4byte	.LFB3
 2295 0545 4C000000 		.4byte	.LFE3-.LFB3
 2296 0549 01       		.uleb128 0x1
 2297 054a 9C       		.byte	0x9c
 2298 054b 19       		.uleb128 0x19
 2299 054c 07060000 		.4byte	.LASF54
 2300 0550 01       		.byte	0x1
 2301 0551 5103     		.2byte	0x351
 2302 0553 6B000000 		.4byte	0x6b
 2303 0557 00000000 		.4byte	.LFB5
 2304 055b 20000000 		.4byte	.LFE5-.LFB5
 2305 055f 01       		.uleb128 0x1
 2306 0560 9C       		.byte	0x9c
 2307 0561 76050000 		.4byte	0x576
 2308 0565 1A       		.uleb128 0x1a
 2309 0566 CF040000 		.4byte	.LASF53
 2310 056a 01       		.byte	0x1
 2311 056b 5303     		.2byte	0x353
 2312 056d 6B000000 		.4byte	0x6b
 2313 0571 C1000000 		.4byte	.LLST6
 2314 0575 00       		.byte	0
 2315 0576 1B       		.uleb128 0x1b
 2316 0577 59020000 		.4byte	.LASF78
 2317 057b 01       		.byte	0x1
 2318 057c 6803     		.2byte	0x368
 2319 057e 6B000000 		.4byte	0x6b
 2320 0582 00000000 		.4byte	.LFB6
 2321 0586 0C000000 		.4byte	.LFE6-.LFB6
 2322 058a 01       		.uleb128 0x1
 2323 058b 9C       		.byte	0x9c
 2324 058c 19       		.uleb128 0x19
 2325 058d 35000000 		.4byte	.LASF55
 2326 0591 01       		.byte	0x1
 2327 0592 8203     		.2byte	0x382
 2328 0594 6B000000 		.4byte	0x6b
 2329 0598 00000000 		.4byte	.LFB7
 2330 059c 20000000 		.4byte	.LFE7-.LFB7
 2331 05a0 01       		.uleb128 0x1
 2332 05a1 9C       		.byte	0x9c
 2333 05a2 B7050000 		.4byte	0x5b7
 2334 05a6 1C       		.uleb128 0x1c
 2335 05a7 72657300 		.ascii	"res\000"
 2336 05ab 01       		.byte	0x1
 2337 05ac 8403     		.2byte	0x384
 2338 05ae 6B000000 		.4byte	0x6b
 2339 05b2 D4000000 		.4byte	.LLST7
 2340 05b6 00       		.byte	0
 2341 05b7 19       		.uleb128 0x19
 2342 05b8 71050000 		.4byte	.LASF56
 2343 05bc 01       		.byte	0x1
 2344 05bd 9F03     		.2byte	0x39f
ARM GAS  C:\Users\ingan\AppData\Local\Temp\ccMtFi7x.s 			page 87


 2345 05bf 6B000000 		.4byte	0x6b
 2346 05c3 00000000 		.4byte	.LFB8
 2347 05c7 0C000000 		.4byte	.LFE8-.LFB8
 2348 05cb 01       		.uleb128 0x1
 2349 05cc 9C       		.byte	0x9c
 2350 05cd E2050000 		.4byte	0x5e2
 2351 05d1 16       		.uleb128 0x16
 2352 05d2 19000000 		.4byte	.LASF57
 2353 05d6 01       		.byte	0x1
 2354 05d7 9F03     		.2byte	0x39f
 2355 05d9 6B000000 		.4byte	0x6b
 2356 05dd 0A010000 		.4byte	.LLST8
 2357 05e1 00       		.byte	0
 2358 05e2 19       		.uleb128 0x19
 2359 05e3 77040000 		.4byte	.LASF58
 2360 05e7 01       		.byte	0x1
 2361 05e8 BF03     		.2byte	0x3bf
 2362 05ea 6B000000 		.4byte	0x6b
 2363 05ee 00000000 		.4byte	.LFB9
 2364 05f2 14000000 		.4byte	.LFE9-.LFB9
 2365 05f6 01       		.uleb128 0x1
 2366 05f7 9C       		.byte	0x9c
 2367 05f8 0D060000 		.4byte	0x60d
 2368 05fc 16       		.uleb128 0x16
 2369 05fd 8A040000 		.4byte	.LASF59
 2370 0601 01       		.byte	0x1
 2371 0602 BF03     		.2byte	0x3bf
 2372 0604 6B000000 		.4byte	0x6b
 2373 0608 2B010000 		.4byte	.LLST9
 2374 060c 00       		.byte	0
 2375 060d 19       		.uleb128 0x19
 2376 060e 1D060000 		.4byte	.LASF60
 2377 0612 01       		.byte	0x1
 2378 0613 D603     		.2byte	0x3d6
 2379 0615 77000000 		.4byte	0x77
 2380 0619 00000000 		.4byte	.LFB10
 2381 061d 28000000 		.4byte	.LFE10-.LFB10
 2382 0621 01       		.uleb128 0x1
 2383 0622 9C       		.byte	0x9c
 2384 0623 48060000 		.4byte	0x648
 2385 0627 16       		.uleb128 0x16
 2386 0628 8A040000 		.4byte	.LASF59
 2387 062c 01       		.byte	0x1
 2388 062d D603     		.2byte	0x3d6
 2389 062f 6B000000 		.4byte	0x6b
 2390 0633 4C010000 		.4byte	.LLST10
 2391 0637 1A       		.uleb128 0x1a
 2392 0638 30000000 		.4byte	.LASF61
 2393 063c 01       		.byte	0x1
 2394 063d D803     		.2byte	0x3d8
 2395 063f 77000000 		.4byte	0x77
 2396 0643 86010000 		.4byte	.LLST11
 2397 0647 00       		.byte	0
 2398 0648 15       		.uleb128 0x15
 2399 0649 CD020000 		.4byte	.LASF62
 2400 064d 01       		.byte	0x1
 2401 064e 4A04     		.2byte	0x44a
ARM GAS  C:\Users\ingan\AppData\Local\Temp\ccMtFi7x.s 			page 88


 2402 0650 00000000 		.4byte	.LFB11
 2403 0654 78000000 		.4byte	.LFE11-.LFB11
 2404 0658 01       		.uleb128 0x1
 2405 0659 9C       		.byte	0x9c
 2406 065a F0060000 		.4byte	0x6f0
 2407 065e 16       		.uleb128 0x16
 2408 065f 8A040000 		.4byte	.LASF59
 2409 0663 01       		.byte	0x1
 2410 0664 4A04     		.2byte	0x44a
 2411 0666 6B000000 		.4byte	0x6b
 2412 066a D4010000 		.4byte	.LLST12
 2413 066e 16       		.uleb128 0x16
 2414 066f B7000000 		.4byte	.LASF63
 2415 0673 01       		.byte	0x1
 2416 0674 4A04     		.2byte	0x44a
 2417 0676 F0060000 		.4byte	0x6f0
 2418 067a F5010000 		.4byte	.LLST13
 2419 067e 1C       		.uleb128 0x1c
 2420 067f 73726300 		.ascii	"src\000"
 2421 0683 01       		.byte	0x1
 2422 0684 4D04     		.2byte	0x44d
 2423 0686 77000000 		.4byte	0x77
 2424 068a 48020000 		.4byte	.LLST14
 2425 068e 1C       		.uleb128 0x1c
 2426 068f 64737400 		.ascii	"dst\000"
 2427 0693 01       		.byte	0x1
 2428 0694 4E04     		.2byte	0x44e
 2429 0696 77000000 		.4byte	0x77
 2430 069a 8A020000 		.4byte	.LLST15
 2431 069e 12       		.uleb128 0x12
 2432 069f 38000000 		.4byte	.LVL59
 2433 06a3 AB0B0000 		.4byte	0xbab
 2434 06a7 B6060000 		.4byte	0x6b6
 2435 06ab 13       		.uleb128 0x13
 2436 06ac 01       		.uleb128 0x1
 2437 06ad 50       		.byte	0x50
 2438 06ae 01       		.uleb128 0x1
 2439 06af 30       		.byte	0x30
 2440 06b0 13       		.uleb128 0x13
 2441 06b1 01       		.uleb128 0x1
 2442 06b2 51       		.byte	0x51
 2443 06b3 01       		.uleb128 0x1
 2444 06b4 30       		.byte	0x30
 2445 06b5 00       		.byte	0
 2446 06b6 12       		.uleb128 0x12
 2447 06b7 46000000 		.4byte	.LVL62
 2448 06bb B60B0000 		.4byte	0xbb6
 2449 06bf CE060000 		.4byte	0x6ce
 2450 06c3 13       		.uleb128 0x13
 2451 06c4 01       		.uleb128 0x1
 2452 06c5 50       		.byte	0x50
 2453 06c6 01       		.uleb128 0x1
 2454 06c7 30       		.byte	0x30
 2455 06c8 13       		.uleb128 0x13
 2456 06c9 01       		.uleb128 0x1
 2457 06ca 51       		.byte	0x51
 2458 06cb 01       		.uleb128 0x1
ARM GAS  C:\Users\ingan\AppData\Local\Temp\ccMtFi7x.s 			page 89


 2459 06cc 30       		.byte	0x30
 2460 06cd 00       		.byte	0
 2461 06ce 12       		.uleb128 0x12
 2462 06cf 54000000 		.4byte	.LVL65
 2463 06d3 C10B0000 		.4byte	0xbc1
 2464 06d7 E6060000 		.4byte	0x6e6
 2465 06db 13       		.uleb128 0x13
 2466 06dc 01       		.uleb128 0x1
 2467 06dd 50       		.byte	0x50
 2468 06de 01       		.uleb128 0x1
 2469 06df 30       		.byte	0x30
 2470 06e0 13       		.uleb128 0x13
 2471 06e1 01       		.uleb128 0x1
 2472 06e2 51       		.byte	0x51
 2473 06e3 01       		.uleb128 0x1
 2474 06e4 30       		.byte	0x30
 2475 06e5 00       		.byte	0
 2476 06e6 11       		.uleb128 0x11
 2477 06e7 64000000 		.4byte	.LVL66
 2478 06eb CC0B0000 		.4byte	0xbcc
 2479 06ef 00       		.byte	0
 2480 06f0 1D       		.uleb128 0x1d
 2481 06f1 04       		.byte	0x4
 2482 06f2 F6060000 		.4byte	0x6f6
 2483 06f6 1E       		.uleb128 0x1e
 2484 06f7 6B000000 		.4byte	0x6b
 2485 06fb 15       		.uleb128 0x15
 2486 06fc 7E030000 		.4byte	.LASF64
 2487 0700 01       		.byte	0x1
 2488 0701 C004     		.2byte	0x4c0
 2489 0703 00000000 		.4byte	.LFB12
 2490 0707 40000000 		.4byte	.LFE12-.LFB12
 2491 070b 01       		.uleb128 0x1
 2492 070c 9C       		.byte	0x9c
 2493 070d 42070000 		.4byte	0x742
 2494 0711 16       		.uleb128 0x16
 2495 0712 8A040000 		.4byte	.LASF59
 2496 0716 01       		.byte	0x1
 2497 0717 C004     		.2byte	0x4c0
 2498 0719 6B000000 		.4byte	0x6b
 2499 071d C1020000 		.4byte	.LLST16
 2500 0721 1C       		.uleb128 0x1c
 2501 0722 6900     		.ascii	"i\000"
 2502 0724 01       		.byte	0x1
 2503 0725 C204     		.2byte	0x4c2
 2504 0727 6B000000 		.4byte	0x6b
 2505 072b E2020000 		.4byte	.LLST17
 2506 072f 11       		.uleb128 0x11
 2507 0730 1E000000 		.4byte	.LVL69
 2508 0734 D70B0000 		.4byte	0xbd7
 2509 0738 11       		.uleb128 0x11
 2510 0739 26000000 		.4byte	.LVL70
 2511 073d E20B0000 		.4byte	0xbe2
 2512 0741 00       		.byte	0
 2513 0742 15       		.uleb128 0x15
 2514 0743 60070000 		.4byte	.LASF65
 2515 0747 01       		.byte	0x1
ARM GAS  C:\Users\ingan\AppData\Local\Temp\ccMtFi7x.s 			page 90


 2516 0748 D902     		.2byte	0x2d9
 2517 074a 00000000 		.4byte	.LFB4
 2518 074e C0000000 		.4byte	.LFE4-.LFB4
 2519 0752 01       		.uleb128 0x1
 2520 0753 9C       		.byte	0x9c
 2521 0754 97070000 		.4byte	0x797
 2522 0758 1A       		.uleb128 0x1a
 2523 0759 2F070000 		.4byte	.LASF47
 2524 075d 01       		.byte	0x1
 2525 075e DB02     		.2byte	0x2db
 2526 0760 6B000000 		.4byte	0x6b
 2527 0764 00030000 		.4byte	.LLST18
 2528 0768 12       		.uleb128 0x12
 2529 0769 08000000 		.4byte	.LVL74
 2530 076d FB060000 		.4byte	0x6fb
 2531 0771 7B070000 		.4byte	0x77b
 2532 0775 13       		.uleb128 0x13
 2533 0776 01       		.uleb128 0x1
 2534 0777 50       		.byte	0x50
 2535 0778 01       		.uleb128 0x1
 2536 0779 39       		.byte	0x39
 2537 077a 00       		.byte	0
 2538 077b 11       		.uleb128 0x11
 2539 077c 0C000000 		.4byte	.LVL75
 2540 0780 690B0000 		.4byte	0xb69
 2541 0784 11       		.uleb128 0x11
 2542 0785 4E000000 		.4byte	.LVL76
 2543 0789 7F0B0000 		.4byte	0xb7f
 2544 078d 11       		.uleb128 0x11
 2545 078e 72000000 		.4byte	.LVL77
 2546 0792 ED0B0000 		.4byte	0xbed
 2547 0796 00       		.byte	0
 2548 0797 15       		.uleb128 0x15
 2549 0798 58040000 		.4byte	.LASF66
 2550 079c 01       		.byte	0x1
 2551 079d 3E05     		.2byte	0x53e
 2552 079f 00000000 		.4byte	.LFB13
 2553 07a3 04010000 		.4byte	.LFE13-.LFB13
 2554 07a7 01       		.uleb128 0x1
 2555 07a8 9C       		.byte	0x9c
 2556 07a9 59080000 		.4byte	0x859
 2557 07ad 16       		.uleb128 0x16
 2558 07ae 8A040000 		.4byte	.LASF59
 2559 07b2 01       		.byte	0x1
 2560 07b3 3E05     		.2byte	0x53e
 2561 07b5 6B000000 		.4byte	0x6b
 2562 07b9 13030000 		.4byte	.LLST19
 2563 07bd 16       		.uleb128 0x16
 2564 07be B7000000 		.4byte	.LASF63
 2565 07c2 01       		.byte	0x1
 2566 07c3 3E05     		.2byte	0x53e
 2567 07c5 F0060000 		.4byte	0x6f0
 2568 07c9 3F030000 		.4byte	.LLST20
 2569 07cd 16       		.uleb128 0x16
 2570 07ce 45020000 		.4byte	.LASF67
 2571 07d2 01       		.byte	0x1
 2572 07d3 3E05     		.2byte	0x53e
ARM GAS  C:\Users\ingan\AppData\Local\Temp\ccMtFi7x.s 			page 91


 2573 07d5 77000000 		.4byte	0x77
 2574 07d9 68030000 		.4byte	.LLST21
 2575 07dd 12       		.uleb128 0x12
 2576 07de 68000000 		.4byte	.LVL83
 2577 07e2 48060000 		.4byte	0x648
 2578 07e6 F7070000 		.4byte	0x7f7
 2579 07ea 13       		.uleb128 0x13
 2580 07eb 01       		.uleb128 0x1
 2581 07ec 50       		.byte	0x50
 2582 07ed 02       		.uleb128 0x2
 2583 07ee 74       		.byte	0x74
 2584 07ef 00       		.sleb128 0
 2585 07f0 13       		.uleb128 0x13
 2586 07f1 01       		.uleb128 0x1
 2587 07f2 51       		.byte	0x51
 2588 07f3 02       		.uleb128 0x2
 2589 07f4 76       		.byte	0x76
 2590 07f5 00       		.sleb128 0
 2591 07f6 00       		.byte	0
 2592 07f7 11       		.uleb128 0x11
 2593 07f8 82000000 		.4byte	.LVL84
 2594 07fc D70B0000 		.4byte	0xbd7
 2595 0800 12       		.uleb128 0x12
 2596 0801 94000000 		.4byte	.LVL85
 2597 0805 F80B0000 		.4byte	0xbf8
 2598 0809 1F080000 		.4byte	0x81f
 2599 080d 13       		.uleb128 0x13
 2600 080e 01       		.uleb128 0x1
 2601 080f 51       		.byte	0x51
 2602 0810 02       		.uleb128 0x2
 2603 0811 75       		.byte	0x75
 2604 0812 00       		.sleb128 0
 2605 0813 13       		.uleb128 0x13
 2606 0814 01       		.uleb128 0x1
 2607 0815 52       		.byte	0x52
 2608 0816 02       		.uleb128 0x2
 2609 0817 09       		.byte	0x9
 2610 0818 FE       		.byte	0xfe
 2611 0819 13       		.uleb128 0x13
 2612 081a 01       		.uleb128 0x1
 2613 081b 53       		.byte	0x53
 2614 081c 01       		.uleb128 0x1
 2615 081d 41       		.byte	0x41
 2616 081e 00       		.byte	0
 2617 081f 12       		.uleb128 0x12
 2618 0820 A8000000 		.4byte	.LVL87
 2619 0824 030C0000 		.4byte	0xc03
 2620 0828 40080000 		.4byte	0x840
 2621 082c 13       		.uleb128 0x13
 2622 082d 01       		.uleb128 0x1
 2623 082e 51       		.byte	0x51
 2624 082f 02       		.uleb128 0x2
 2625 0830 76       		.byte	0x76
 2626 0831 00       		.sleb128 0
 2627 0832 13       		.uleb128 0x13
 2628 0833 01       		.uleb128 0x1
 2629 0834 52       		.byte	0x52
ARM GAS  C:\Users\ingan\AppData\Local\Temp\ccMtFi7x.s 			page 92


 2630 0835 09       		.uleb128 0x9
 2631 0836 74       		.byte	0x74
 2632 0837 00       		.sleb128 0
 2633 0838 34       		.byte	0x34
 2634 0839 24       		.byte	0x24
 2635 083a 75       		.byte	0x75
 2636 083b 00       		.sleb128 0
 2637 083c 22       		.byte	0x22
 2638 083d 23       		.byte	0x23
 2639 083e 08       		.uleb128 0x8
 2640 083f 00       		.byte	0
 2641 0840 11       		.uleb128 0x11
 2642 0841 B2000000 		.4byte	.LVL88
 2643 0845 0E0C0000 		.4byte	0xc0e
 2644 0849 14       		.uleb128 0x14
 2645 084a BA000000 		.4byte	.LVL89
 2646 084e 190C0000 		.4byte	0xc19
 2647 0852 13       		.uleb128 0x13
 2648 0853 01       		.uleb128 0x1
 2649 0854 51       		.byte	0x51
 2650 0855 01       		.uleb128 0x1
 2651 0856 31       		.byte	0x31
 2652 0857 00       		.byte	0
 2653 0858 00       		.byte	0
 2654 0859 19       		.uleb128 0x19
 2655 085a 16030000 		.4byte	.LASF68
 2656 085e 01       		.byte	0x1
 2657 085f 7506     		.2byte	0x675
 2658 0861 77000000 		.4byte	0x77
 2659 0865 00000000 		.4byte	.LFB14
 2660 0869 B0000000 		.4byte	.LFE14-.LFB14
 2661 086d 01       		.uleb128 0x1
 2662 086e 9C       		.byte	0x9c
 2663 086f 47090000 		.4byte	0x947
 2664 0873 16       		.uleb128 0x16
 2665 0874 8A040000 		.4byte	.LASF59
 2666 0878 01       		.byte	0x1
 2667 0879 7506     		.2byte	0x675
 2668 087b 6B000000 		.4byte	0x6b
 2669 087f AA030000 		.4byte	.LLST22
 2670 0883 16       		.uleb128 0x16
 2671 0884 B7000000 		.4byte	.LASF63
 2672 0888 01       		.byte	0x1
 2673 0889 7506     		.2byte	0x675
 2674 088b 47090000 		.4byte	0x947
 2675 088f E4030000 		.4byte	.LLST23
 2676 0893 16       		.uleb128 0x16
 2677 0894 45020000 		.4byte	.LASF67
 2678 0898 01       		.byte	0x1
 2679 0899 7506     		.2byte	0x675
 2680 089b 77000000 		.4byte	0x77
 2681 089f 1B040000 		.4byte	.LLST24
 2682 08a3 12       		.uleb128 0x12
 2683 08a4 1A000000 		.4byte	.LVL93
 2684 08a8 0D060000 		.4byte	0x60d
 2685 08ac B7080000 		.4byte	0x8b7
 2686 08b0 13       		.uleb128 0x13
ARM GAS  C:\Users\ingan\AppData\Local\Temp\ccMtFi7x.s 			page 93


 2687 08b1 01       		.uleb128 0x1
 2688 08b2 50       		.byte	0x50
 2689 08b3 02       		.uleb128 0x2
 2690 08b4 74       		.byte	0x74
 2691 08b5 00       		.sleb128 0
 2692 08b6 00       		.byte	0
 2693 08b7 12       		.uleb128 0x12
 2694 08b8 24000000 		.4byte	.LVL94
 2695 08bc 0D060000 		.4byte	0x60d
 2696 08c0 CB080000 		.4byte	0x8cb
 2697 08c4 13       		.uleb128 0x13
 2698 08c5 01       		.uleb128 0x1
 2699 08c6 50       		.byte	0x50
 2700 08c7 02       		.uleb128 0x2
 2701 08c8 74       		.byte	0x74
 2702 08c9 00       		.sleb128 0
 2703 08ca 00       		.byte	0
 2704 08cb 12       		.uleb128 0x12
 2705 08cc 36000000 		.4byte	.LVL96
 2706 08d0 48060000 		.4byte	0x648
 2707 08d4 E5080000 		.4byte	0x8e5
 2708 08d8 13       		.uleb128 0x13
 2709 08d9 01       		.uleb128 0x1
 2710 08da 50       		.byte	0x50
 2711 08db 02       		.uleb128 0x2
 2712 08dc 74       		.byte	0x74
 2713 08dd 00       		.sleb128 0
 2714 08de 13       		.uleb128 0x13
 2715 08df 01       		.uleb128 0x1
 2716 08e0 51       		.byte	0x51
 2717 08e1 02       		.uleb128 0x2
 2718 08e2 77       		.byte	0x77
 2719 08e3 00       		.sleb128 0
 2720 08e4 00       		.byte	0
 2721 08e5 11       		.uleb128 0x11
 2722 08e6 42000000 		.4byte	.LVL97
 2723 08ea D70B0000 		.4byte	0xbd7
 2724 08ee 12       		.uleb128 0x12
 2725 08ef 54000000 		.4byte	.LVL98
 2726 08f3 F80B0000 		.4byte	0xbf8
 2727 08f7 0D090000 		.4byte	0x90d
 2728 08fb 13       		.uleb128 0x13
 2729 08fc 01       		.uleb128 0x1
 2730 08fd 51       		.byte	0x51
 2731 08fe 02       		.uleb128 0x2
 2732 08ff 75       		.byte	0x75
 2733 0900 00       		.sleb128 0
 2734 0901 13       		.uleb128 0x13
 2735 0902 01       		.uleb128 0x1
 2736 0903 52       		.byte	0x52
 2737 0904 02       		.uleb128 0x2
 2738 0905 09       		.byte	0x9
 2739 0906 FE       		.byte	0xfe
 2740 0907 13       		.uleb128 0x13
 2741 0908 01       		.uleb128 0x1
 2742 0909 53       		.byte	0x53
 2743 090a 01       		.uleb128 0x1
ARM GAS  C:\Users\ingan\AppData\Local\Temp\ccMtFi7x.s 			page 94


 2744 090b 42       		.byte	0x42
 2745 090c 00       		.byte	0
 2746 090d 12       		.uleb128 0x12
 2747 090e 68000000 		.4byte	.LVL99
 2748 0912 030C0000 		.4byte	0xc03
 2749 0916 2E090000 		.4byte	0x92e
 2750 091a 13       		.uleb128 0x13
 2751 091b 01       		.uleb128 0x1
 2752 091c 51       		.byte	0x51
 2753 091d 09       		.uleb128 0x9
 2754 091e 74       		.byte	0x74
 2755 091f 00       		.sleb128 0
 2756 0920 34       		.byte	0x34
 2757 0921 24       		.byte	0x24
 2758 0922 76       		.byte	0x76
 2759 0923 00       		.sleb128 0
 2760 0924 22       		.byte	0x22
 2761 0925 23       		.byte	0x23
 2762 0926 08       		.uleb128 0x8
 2763 0927 13       		.uleb128 0x13
 2764 0928 01       		.uleb128 0x1
 2765 0929 52       		.byte	0x52
 2766 092a 02       		.uleb128 0x2
 2767 092b 77       		.byte	0x77
 2768 092c 00       		.sleb128 0
 2769 092d 00       		.byte	0
 2770 092e 11       		.uleb128 0x11
 2771 092f 74000000 		.4byte	.LVL100
 2772 0933 0E0C0000 		.4byte	0xc0e
 2773 0937 14       		.uleb128 0x14
 2774 0938 7E000000 		.4byte	.LVL101
 2775 093c 190C0000 		.4byte	0xc19
 2776 0940 13       		.uleb128 0x13
 2777 0941 01       		.uleb128 0x1
 2778 0942 51       		.byte	0x51
 2779 0943 01       		.uleb128 0x1
 2780 0944 31       		.byte	0x31
 2781 0945 00       		.byte	0
 2782 0946 00       		.byte	0
 2783 0947 1D       		.uleb128 0x1d
 2784 0948 04       		.byte	0x4
 2785 0949 6B000000 		.4byte	0x6b
 2786 094d 15       		.uleb128 0x15
 2787 094e 72020000 		.4byte	.LASF69
 2788 0952 01       		.byte	0x1
 2789 0953 E408     		.2byte	0x8e4
 2790 0955 00000000 		.4byte	.LFB15
 2791 0959 2C000000 		.4byte	.LFE15-.LFB15
 2792 095d 01       		.uleb128 0x1
 2793 095e 9C       		.byte	0x9c
 2794 095f 74090000 		.4byte	0x974
 2795 0963 16       		.uleb128 0x16
 2796 0964 8A040000 		.4byte	.LASF59
 2797 0968 01       		.byte	0x1
 2798 0969 E408     		.2byte	0x8e4
 2799 096b 6B000000 		.4byte	0x6b
 2800 096f 5D040000 		.4byte	.LLST25
ARM GAS  C:\Users\ingan\AppData\Local\Temp\ccMtFi7x.s 			page 95


 2801 0973 00       		.byte	0
 2802 0974 15       		.uleb128 0x15
 2803 0975 40070000 		.4byte	.LASF70
 2804 0979 01       		.byte	0x1
 2805 097a FC08     		.2byte	0x8fc
 2806 097c 00000000 		.4byte	.LFB16
 2807 0980 18000000 		.4byte	.LFE16-.LFB16
 2808 0984 01       		.uleb128 0x1
 2809 0985 9C       		.byte	0x9c
 2810 0986 9B090000 		.4byte	0x99b
 2811 098a 16       		.uleb128 0x16
 2812 098b 8A040000 		.4byte	.LASF59
 2813 098f 01       		.byte	0x1
 2814 0990 FC08     		.2byte	0x8fc
 2815 0992 6B000000 		.4byte	0x6b
 2816 0996 7E040000 		.4byte	.LLST26
 2817 099a 00       		.byte	0
 2818 099b 15       		.uleb128 0x15
 2819 099c 14010000 		.4byte	.LASF71
 2820 09a0 01       		.byte	0x1
 2821 09a1 1A09     		.2byte	0x91a
 2822 09a3 00000000 		.4byte	.LFB17
 2823 09a7 0C000000 		.4byte	.LFE17-.LFB17
 2824 09ab 01       		.uleb128 0x1
 2825 09ac 9C       		.byte	0x9c
 2826 09ad C0090000 		.4byte	0x9c0
 2827 09b1 1F       		.uleb128 0x1f
 2828 09b2 28070000 		.4byte	.LASF72
 2829 09b6 01       		.byte	0x1
 2830 09b7 1A09     		.2byte	0x91a
 2831 09b9 6B000000 		.4byte	0x6b
 2832 09bd 01       		.uleb128 0x1
 2833 09be 50       		.byte	0x50
 2834 09bf 00       		.byte	0
 2835 09c0 19       		.uleb128 0x19
 2836 09c1 36030000 		.4byte	.LASF73
 2837 09c5 01       		.byte	0x1
 2838 09c6 3309     		.2byte	0x933
 2839 09c8 6B000000 		.4byte	0x6b
 2840 09cc 00000000 		.4byte	.LFB18
 2841 09d0 20000000 		.4byte	.LFE18-.LFB18
 2842 09d4 01       		.uleb128 0x1
 2843 09d5 9C       		.byte	0x9c
 2844 09d6 FA090000 		.4byte	0x9fa
 2845 09da 16       		.uleb128 0x16
 2846 09db 8A040000 		.4byte	.LASF59
 2847 09df 01       		.byte	0x1
 2848 09e0 3309     		.2byte	0x933
 2849 09e2 6B000000 		.4byte	0x6b
 2850 09e6 9F040000 		.4byte	.LLST27
 2851 09ea 1C       		.uleb128 0x1c
 2852 09eb 637200   		.ascii	"cr\000"
 2853 09ee 01       		.byte	0x1
 2854 09ef 3509     		.2byte	0x935
 2855 09f1 6B000000 		.4byte	0x6b
 2856 09f5 D9040000 		.4byte	.LLST28
 2857 09f9 00       		.byte	0
ARM GAS  C:\Users\ingan\AppData\Local\Temp\ccMtFi7x.s 			page 96


 2858 09fa 15       		.uleb128 0x15
 2859 09fb DF010000 		.4byte	.LASF74
 2860 09ff 01       		.byte	0x1
 2861 0a00 5C09     		.2byte	0x95c
 2862 0a02 00000000 		.4byte	.LFB19
 2863 0a06 20000000 		.4byte	.LFE19-.LFB19
 2864 0a0a 01       		.uleb128 0x1
 2865 0a0b 9C       		.byte	0x9c
 2866 0a0c 1F0A0000 		.4byte	0xa1f
 2867 0a10 1F       		.uleb128 0x1f
 2868 0a11 22010000 		.4byte	.LASF75
 2869 0a15 01       		.byte	0x1
 2870 0a16 5C09     		.2byte	0x95c
 2871 0a18 6B000000 		.4byte	0x6b
 2872 0a1c 01       		.uleb128 0x1
 2873 0a1d 50       		.byte	0x50
 2874 0a1e 00       		.byte	0
 2875 0a1f 19       		.uleb128 0x19
 2876 0a20 3A010000 		.4byte	.LASF76
 2877 0a24 01       		.byte	0x1
 2878 0a25 9509     		.2byte	0x995
 2879 0a27 6B000000 		.4byte	0x6b
 2880 0a2b 00000000 		.4byte	.LFB20
 2881 0a2f 18000000 		.4byte	.LFE20-.LFB20
 2882 0a33 01       		.uleb128 0x1
 2883 0a34 9C       		.byte	0x9c
 2884 0a35 4A0A0000 		.4byte	0xa4a
 2885 0a39 1A       		.uleb128 0x1a
 2886 0a3a 29000000 		.4byte	.LASF77
 2887 0a3e 01       		.byte	0x1
 2888 0a3f 9709     		.2byte	0x997
 2889 0a41 6B000000 		.4byte	0x6b
 2890 0a45 0F050000 		.4byte	.LLST29
 2891 0a49 00       		.byte	0
 2892 0a4a 1B       		.uleb128 0x1b
 2893 0a4b 58050000 		.4byte	.LASF79
 2894 0a4f 01       		.byte	0x1
 2895 0a50 AD09     		.2byte	0x9ad
 2896 0a52 6B000000 		.4byte	0x6b
 2897 0a56 00000000 		.4byte	.LFB21
 2898 0a5a 10000000 		.4byte	.LFE21-.LFB21
 2899 0a5e 01       		.uleb128 0x1
 2900 0a5f 9C       		.byte	0x9c
 2901 0a60 18       		.uleb128 0x18
 2902 0a61 83010000 		.4byte	.LASF81
 2903 0a65 01       		.byte	0x1
 2904 0a66 BB09     		.2byte	0x9bb
 2905 0a68 00000000 		.4byte	.LFB22
 2906 0a6c 10000000 		.4byte	.LFE22-.LFB22
 2907 0a70 01       		.uleb128 0x1
 2908 0a71 9C       		.byte	0x9c
 2909 0a72 18       		.uleb128 0x18
 2910 0a73 86020000 		.4byte	.LASF82
 2911 0a77 01       		.byte	0x1
 2912 0a78 D109     		.2byte	0x9d1
 2913 0a7a 00000000 		.4byte	.LFB23
 2914 0a7e 10000000 		.4byte	.LFE23-.LFB23
ARM GAS  C:\Users\ingan\AppData\Local\Temp\ccMtFi7x.s 			page 97


 2915 0a82 01       		.uleb128 0x1
 2916 0a83 9C       		.byte	0x9c
 2917 0a84 20       		.uleb128 0x20
 2918 0a85 93040000 		.4byte	.LASF83
 2919 0a89 01       		.byte	0x1
 2920 0a8a 28       		.byte	0x28
 2921 0a8b 6B000000 		.4byte	0x6b
 2922 0a8f 05       		.uleb128 0x5
 2923 0a90 03       		.byte	0x3
 2924 0a91 00000000 		.4byte	USBUART_initVar
 2925 0a95 21       		.uleb128 0x21
 2926 0a96 07030000 		.4byte	.LASF84
 2927 0a9a 03       		.byte	0x3
 2928 0a9b D202     		.2byte	0x2d2
 2929 0a9d B0000000 		.4byte	0xb0
 2930 0aa1 21       		.uleb128 0x21
 2931 0aa2 23020000 		.4byte	.LASF85
 2932 0aa6 03       		.byte	0x3
 2933 0aa7 D302     		.2byte	0x2d3
 2934 0aa9 B0000000 		.4byte	0xb0
 2935 0aad 21       		.uleb128 0x21
 2936 0aae 66000000 		.4byte	.LASF86
 2937 0ab2 03       		.byte	0x3
 2938 0ab3 D402     		.2byte	0x2d4
 2939 0ab5 B0000000 		.4byte	0xb0
 2940 0ab9 21       		.uleb128 0x21
 2941 0aba AA020000 		.4byte	.LASF87
 2942 0abe 03       		.byte	0x3
 2943 0abf D502     		.2byte	0x2d5
 2944 0ac1 B0000000 		.4byte	0xb0
 2945 0ac5 21       		.uleb128 0x21
 2946 0ac6 8C000000 		.4byte	.LASF88
 2947 0aca 03       		.byte	0x3
 2948 0acb D602     		.2byte	0x2d6
 2949 0acd B0000000 		.4byte	0xb0
 2950 0ad1 22       		.uleb128 0x22
 2951 0ad2 47060000 		.4byte	.LASF89
 2952 0ad6 04       		.byte	0x4
 2953 0ad7 72       		.byte	0x72
 2954 0ad8 B0000000 		.4byte	0xb0
 2955 0adc 0A       		.uleb128 0xa
 2956 0add B0000000 		.4byte	0xb0
 2957 0ae1 EC0A0000 		.4byte	0xaec
 2958 0ae5 0B       		.uleb128 0xb
 2959 0ae6 CD000000 		.4byte	0xcd
 2960 0aea 01       		.byte	0x1
 2961 0aeb 00       		.byte	0
 2962 0aec 22       		.uleb128 0x22
 2963 0aed A6010000 		.4byte	.LASF90
 2964 0af1 04       		.byte	0x4
 2965 0af2 73       		.byte	0x73
 2966 0af3 F70A0000 		.4byte	0xaf7
 2967 0af7 05       		.uleb128 0x5
 2968 0af8 DC0A0000 		.4byte	0xadc
 2969 0afc 22       		.uleb128 0x22
 2970 0afd 4C030000 		.4byte	.LASF91
 2971 0b01 04       		.byte	0x4
ARM GAS  C:\Users\ingan\AppData\Local\Temp\ccMtFi7x.s 			page 98


 2972 0b02 75       		.byte	0x75
 2973 0b03 B0000000 		.4byte	0xb0
 2974 0b07 0A       		.uleb128 0xa
 2975 0b08 170B0000 		.4byte	0xb17
 2976 0b0c 170B0000 		.4byte	0xb17
 2977 0b10 0B       		.uleb128 0xb
 2978 0b11 CD000000 		.4byte	0xcd
 2979 0b15 08       		.byte	0x8
 2980 0b16 00       		.byte	0
 2981 0b17 05       		.uleb128 0x5
 2982 0b18 49010000 		.4byte	0x149
 2983 0b1c 22       		.uleb128 0x22
 2984 0b1d 55070000 		.4byte	.LASF92
 2985 0b21 04       		.byte	0x4
 2986 0b22 79       		.byte	0x79
 2987 0b23 270B0000 		.4byte	0xb27
 2988 0b27 05       		.uleb128 0x5
 2989 0b28 070B0000 		.4byte	0xb07
 2990 0b2c 0A       		.uleb128 0xa
 2991 0b2d 6B000000 		.4byte	0x6b
 2992 0b31 3C0B0000 		.4byte	0xb3c
 2993 0b35 0B       		.uleb128 0xb
 2994 0b36 CD000000 		.4byte	0xcd
 2995 0b3a 08       		.byte	0x8
 2996 0b3b 00       		.byte	0
 2997 0b3c 20       		.uleb128 0x20
 2998 0b3d 7C000000 		.4byte	.LASF93
 2999 0b41 01       		.byte	0x1
 3000 0b42 3D       		.byte	0x3d
 3001 0b43 2C0B0000 		.4byte	0xb2c
 3002 0b47 05       		.uleb128 0x5
 3003 0b48 03       		.byte	0x3
 3004 0b49 00000000 		.4byte	USBUART_DmaChan
 3005 0b4d 20       		.uleb128 0x20
 3006 0b4e 6D070000 		.4byte	.LASF94
 3007 0b52 01       		.byte	0x1
 3008 0b53 40       		.byte	0x40
 3009 0b54 2C0B0000 		.4byte	0xb2c
 3010 0b58 05       		.uleb128 0x5
 3011 0b59 03       		.byte	0x3
 3012 0b5a 00000000 		.4byte	USBUART_DmaTd
 3013 0b5e 22       		.uleb128 0x22
 3014 0b5f 1A040000 		.4byte	.LASF95
 3015 0b63 04       		.byte	0x4
 3016 0b64 9B       		.byte	0x9b
 3017 0b65 B0000000 		.4byte	0xb0
 3018 0b69 23       		.uleb128 0x23
 3019 0b6a 30060000 		.4byte	.LASF96
 3020 0b6e 30060000 		.4byte	.LASF96
 3021 0b72 05       		.byte	0x5
 3022 0b73 7D       		.byte	0x7d
 3023 0b74 23       		.uleb128 0x23
 3024 0b75 74030000 		.4byte	.LASF97
 3025 0b79 74030000 		.4byte	.LASF97
 3026 0b7d 05       		.byte	0x5
 3027 0b7e 77       		.byte	0x77
 3028 0b7f 23       		.uleb128 0x23
ARM GAS  C:\Users\ingan\AppData\Local\Temp\ccMtFi7x.s 			page 99


 3029 0b80 A1000000 		.4byte	.LASF98
 3030 0b84 A1000000 		.4byte	.LASF98
 3031 0b88 05       		.byte	0x5
 3032 0b89 7E       		.byte	0x7e
 3033 0b8a 23       		.uleb128 0x23
 3034 0b8b 0C020000 		.4byte	.LASF99
 3035 0b8f 0C020000 		.4byte	.LASF99
 3036 0b93 05       		.byte	0x5
 3037 0b94 8B       		.byte	0x8b
 3038 0b95 23       		.uleb128 0x23
 3039 0b96 F8050000 		.4byte	.LASF100
 3040 0b9a F8050000 		.4byte	.LASF100
 3041 0b9e 05       		.byte	0x5
 3042 0b9f 88       		.byte	0x88
 3043 0ba0 23       		.uleb128 0x23
 3044 0ba1 BD050000 		.4byte	.LASF101
 3045 0ba5 BD050000 		.4byte	.LASF101
 3046 0ba9 05       		.byte	0x5
 3047 0baa 79       		.byte	0x79
 3048 0bab 23       		.uleb128 0x23
 3049 0bac A3040000 		.4byte	.LASF102
 3050 0bb0 A3040000 		.4byte	.LASF102
 3051 0bb4 06       		.byte	0x6
 3052 0bb5 1E       		.byte	0x1e
 3053 0bb6 23       		.uleb128 0x23
 3054 0bb7 5F060000 		.4byte	.LASF103
 3055 0bbb 5F060000 		.4byte	.LASF103
 3056 0bbf 07       		.byte	0x7
 3057 0bc0 1E       		.byte	0x1e
 3058 0bc1 23       		.uleb128 0x23
 3059 0bc2 52010000 		.4byte	.LASF104
 3060 0bc6 52010000 		.4byte	.LASF104
 3061 0bca 08       		.byte	0x8
 3062 0bcb 1E       		.byte	0x1e
 3063 0bcc 23       		.uleb128 0x23
 3064 0bcd 00000000 		.4byte	.LASF105
 3065 0bd1 00000000 		.4byte	.LASF105
 3066 0bd5 09       		.byte	0x9
 3067 0bd6 38       		.byte	0x38
 3068 0bd7 23       		.uleb128 0x23
 3069 0bd8 05040000 		.4byte	.LASF106
 3070 0bdc 05040000 		.4byte	.LASF106
 3071 0be0 09       		.byte	0x9
 3072 0be1 2A       		.byte	0x2a
 3073 0be2 23       		.uleb128 0x23
 3074 0be3 4C040000 		.4byte	.LASF107
 3075 0be7 4C040000 		.4byte	.LASF107
 3076 0beb 09       		.byte	0x9
 3077 0bec 39       		.byte	0x39
 3078 0bed 23       		.uleb128 0x23
 3079 0bee 98050000 		.4byte	.LASF108
 3080 0bf2 98050000 		.4byte	.LASF108
 3081 0bf6 0A       		.byte	0xa
 3082 0bf7 2B       		.byte	0x2b
 3083 0bf8 23       		.uleb128 0x23
 3084 0bf9 CF000000 		.4byte	.LASF109
 3085 0bfd CF000000 		.4byte	.LASF109
ARM GAS  C:\Users\ingan\AppData\Local\Temp\ccMtFi7x.s 			page 100


 3086 0c01 09       		.byte	0x9
 3087 0c02 3B       		.byte	0x3b
 3088 0c03 23       		.uleb128 0x23
 3089 0c04 54000000 		.4byte	.LASF110
 3090 0c08 54000000 		.4byte	.LASF110
 3091 0c0c 09       		.byte	0x9
 3092 0c0d 3F       		.byte	0x3f
 3093 0c0e 23       		.uleb128 0x23
 3094 0c0f BF010000 		.4byte	.LASF111
 3095 0c13 BF010000 		.4byte	.LASF111
 3096 0c17 09       		.byte	0x9
 3097 0c18 2F       		.byte	0x2f
 3098 0c19 23       		.uleb128 0x23
 3099 0c1a 79060000 		.4byte	.LASF112
 3100 0c1e 79060000 		.4byte	.LASF112
 3101 0c22 09       		.byte	0x9
 3102 0c23 29       		.byte	0x29
 3103 0c24 00       		.byte	0
 3104              		.section	.debug_abbrev,"",%progbits
 3105              	.Ldebug_abbrev0:
 3106 0000 01       		.uleb128 0x1
 3107 0001 11       		.uleb128 0x11
 3108 0002 01       		.byte	0x1
 3109 0003 25       		.uleb128 0x25
 3110 0004 0E       		.uleb128 0xe
 3111 0005 13       		.uleb128 0x13
 3112 0006 0B       		.uleb128 0xb
 3113 0007 03       		.uleb128 0x3
 3114 0008 0E       		.uleb128 0xe
 3115 0009 1B       		.uleb128 0x1b
 3116 000a 0E       		.uleb128 0xe
 3117 000b 55       		.uleb128 0x55
 3118 000c 17       		.uleb128 0x17
 3119 000d 11       		.uleb128 0x11
 3120 000e 01       		.uleb128 0x1
 3121 000f 10       		.uleb128 0x10
 3122 0010 17       		.uleb128 0x17
 3123 0011 00       		.byte	0
 3124 0012 00       		.byte	0
 3125 0013 02       		.uleb128 0x2
 3126 0014 24       		.uleb128 0x24
 3127 0015 00       		.byte	0
 3128 0016 0B       		.uleb128 0xb
 3129 0017 0B       		.uleb128 0xb
 3130 0018 3E       		.uleb128 0x3e
 3131 0019 0B       		.uleb128 0xb
 3132 001a 03       		.uleb128 0x3
 3133 001b 0E       		.uleb128 0xe
 3134 001c 00       		.byte	0
 3135 001d 00       		.byte	0
 3136 001e 03       		.uleb128 0x3
 3137 001f 24       		.uleb128 0x24
 3138 0020 00       		.byte	0
 3139 0021 0B       		.uleb128 0xb
 3140 0022 0B       		.uleb128 0xb
 3141 0023 3E       		.uleb128 0x3e
 3142 0024 0B       		.uleb128 0xb
ARM GAS  C:\Users\ingan\AppData\Local\Temp\ccMtFi7x.s 			page 101


 3143 0025 03       		.uleb128 0x3
 3144 0026 08       		.uleb128 0x8
 3145 0027 00       		.byte	0
 3146 0028 00       		.byte	0
 3147 0029 04       		.uleb128 0x4
 3148 002a 16       		.uleb128 0x16
 3149 002b 00       		.byte	0
 3150 002c 03       		.uleb128 0x3
 3151 002d 0E       		.uleb128 0xe
 3152 002e 3A       		.uleb128 0x3a
 3153 002f 0B       		.uleb128 0xb
 3154 0030 3B       		.uleb128 0x3b
 3155 0031 05       		.uleb128 0x5
 3156 0032 49       		.uleb128 0x49
 3157 0033 13       		.uleb128 0x13
 3158 0034 00       		.byte	0
 3159 0035 00       		.byte	0
 3160 0036 05       		.uleb128 0x5
 3161 0037 35       		.uleb128 0x35
 3162 0038 00       		.byte	0
 3163 0039 49       		.uleb128 0x49
 3164 003a 13       		.uleb128 0x13
 3165 003b 00       		.byte	0
 3166 003c 00       		.byte	0
 3167 003d 06       		.uleb128 0x6
 3168 003e 13       		.uleb128 0x13
 3169 003f 01       		.byte	0x1
 3170 0040 0B       		.uleb128 0xb
 3171 0041 0B       		.uleb128 0xb
 3172 0042 3A       		.uleb128 0x3a
 3173 0043 0B       		.uleb128 0xb
 3174 0044 3B       		.uleb128 0x3b
 3175 0045 0B       		.uleb128 0xb
 3176 0046 01       		.uleb128 0x1
 3177 0047 13       		.uleb128 0x13
 3178 0048 00       		.byte	0
 3179 0049 00       		.byte	0
 3180 004a 07       		.uleb128 0x7
 3181 004b 0D       		.uleb128 0xd
 3182 004c 00       		.byte	0
 3183 004d 03       		.uleb128 0x3
 3184 004e 0E       		.uleb128 0xe
 3185 004f 3A       		.uleb128 0x3a
 3186 0050 0B       		.uleb128 0xb
 3187 0051 3B       		.uleb128 0x3b
 3188 0052 0B       		.uleb128 0xb
 3189 0053 49       		.uleb128 0x49
 3190 0054 13       		.uleb128 0x13
 3191 0055 38       		.uleb128 0x38
 3192 0056 0B       		.uleb128 0xb
 3193 0057 00       		.byte	0
 3194 0058 00       		.byte	0
 3195 0059 08       		.uleb128 0x8
 3196 005a 16       		.uleb128 0x16
 3197 005b 00       		.byte	0
 3198 005c 03       		.uleb128 0x3
 3199 005d 0E       		.uleb128 0xe
ARM GAS  C:\Users\ingan\AppData\Local\Temp\ccMtFi7x.s 			page 102


 3200 005e 3A       		.uleb128 0x3a
 3201 005f 0B       		.uleb128 0xb
 3202 0060 3B       		.uleb128 0x3b
 3203 0061 0B       		.uleb128 0xb
 3204 0062 49       		.uleb128 0x49
 3205 0063 13       		.uleb128 0x13
 3206 0064 00       		.byte	0
 3207 0065 00       		.byte	0
 3208 0066 09       		.uleb128 0x9
 3209 0067 0D       		.uleb128 0xd
 3210 0068 00       		.byte	0
 3211 0069 03       		.uleb128 0x3
 3212 006a 08       		.uleb128 0x8
 3213 006b 3A       		.uleb128 0x3a
 3214 006c 0B       		.uleb128 0xb
 3215 006d 3B       		.uleb128 0x3b
 3216 006e 0B       		.uleb128 0xb
 3217 006f 49       		.uleb128 0x49
 3218 0070 13       		.uleb128 0x13
 3219 0071 38       		.uleb128 0x38
 3220 0072 0B       		.uleb128 0xb
 3221 0073 00       		.byte	0
 3222 0074 00       		.byte	0
 3223 0075 0A       		.uleb128 0xa
 3224 0076 01       		.uleb128 0x1
 3225 0077 01       		.byte	0x1
 3226 0078 49       		.uleb128 0x49
 3227 0079 13       		.uleb128 0x13
 3228 007a 01       		.uleb128 0x1
 3229 007b 13       		.uleb128 0x13
 3230 007c 00       		.byte	0
 3231 007d 00       		.byte	0
 3232 007e 0B       		.uleb128 0xb
 3233 007f 21       		.uleb128 0x21
 3234 0080 00       		.byte	0
 3235 0081 49       		.uleb128 0x49
 3236 0082 13       		.uleb128 0x13
 3237 0083 2F       		.uleb128 0x2f
 3238 0084 0B       		.uleb128 0xb
 3239 0085 00       		.byte	0
 3240 0086 00       		.byte	0
 3241 0087 0C       		.uleb128 0xc
 3242 0088 13       		.uleb128 0x13
 3243 0089 01       		.byte	0x1
 3244 008a 0B       		.uleb128 0xb
 3245 008b 0B       		.uleb128 0xb
 3246 008c 3A       		.uleb128 0x3a
 3247 008d 0B       		.uleb128 0xb
 3248 008e 3B       		.uleb128 0x3b
 3249 008f 05       		.uleb128 0x5
 3250 0090 01       		.uleb128 0x1
 3251 0091 13       		.uleb128 0x13
 3252 0092 00       		.byte	0
 3253 0093 00       		.byte	0
 3254 0094 0D       		.uleb128 0xd
 3255 0095 0D       		.uleb128 0xd
 3256 0096 00       		.byte	0
ARM GAS  C:\Users\ingan\AppData\Local\Temp\ccMtFi7x.s 			page 103


 3257 0097 03       		.uleb128 0x3
 3258 0098 0E       		.uleb128 0xe
 3259 0099 3A       		.uleb128 0x3a
 3260 009a 0B       		.uleb128 0xb
 3261 009b 3B       		.uleb128 0x3b
 3262 009c 05       		.uleb128 0x5
 3263 009d 49       		.uleb128 0x49
 3264 009e 13       		.uleb128 0x13
 3265 009f 38       		.uleb128 0x38
 3266 00a0 0B       		.uleb128 0xb
 3267 00a1 00       		.byte	0
 3268 00a2 00       		.byte	0
 3269 00a3 0E       		.uleb128 0xe
 3270 00a4 2E       		.uleb128 0x2e
 3271 00a5 01       		.byte	0x1
 3272 00a6 3F       		.uleb128 0x3f
 3273 00a7 19       		.uleb128 0x19
 3274 00a8 03       		.uleb128 0x3
 3275 00a9 0E       		.uleb128 0xe
 3276 00aa 3A       		.uleb128 0x3a
 3277 00ab 0B       		.uleb128 0xb
 3278 00ac 3B       		.uleb128 0x3b
 3279 00ad 0B       		.uleb128 0xb
 3280 00ae 27       		.uleb128 0x27
 3281 00af 19       		.uleb128 0x19
 3282 00b0 11       		.uleb128 0x11
 3283 00b1 01       		.uleb128 0x1
 3284 00b2 12       		.uleb128 0x12
 3285 00b3 06       		.uleb128 0x6
 3286 00b4 40       		.uleb128 0x40
 3287 00b5 18       		.uleb128 0x18
 3288 00b6 9742     		.uleb128 0x2117
 3289 00b8 19       		.uleb128 0x19
 3290 00b9 01       		.uleb128 0x1
 3291 00ba 13       		.uleb128 0x13
 3292 00bb 00       		.byte	0
 3293 00bc 00       		.byte	0
 3294 00bd 0F       		.uleb128 0xf
 3295 00be 34       		.uleb128 0x34
 3296 00bf 00       		.byte	0
 3297 00c0 03       		.uleb128 0x3
 3298 00c1 0E       		.uleb128 0xe
 3299 00c2 3A       		.uleb128 0x3a
 3300 00c3 0B       		.uleb128 0xb
 3301 00c4 3B       		.uleb128 0x3b
 3302 00c5 0B       		.uleb128 0xb
 3303 00c6 49       		.uleb128 0x49
 3304 00c7 13       		.uleb128 0x13
 3305 00c8 02       		.uleb128 0x2
 3306 00c9 17       		.uleb128 0x17
 3307 00ca 00       		.byte	0
 3308 00cb 00       		.byte	0
 3309 00cc 10       		.uleb128 0x10
 3310 00cd 34       		.uleb128 0x34
 3311 00ce 00       		.byte	0
 3312 00cf 03       		.uleb128 0x3
 3313 00d0 08       		.uleb128 0x8
ARM GAS  C:\Users\ingan\AppData\Local\Temp\ccMtFi7x.s 			page 104


 3314 00d1 3A       		.uleb128 0x3a
 3315 00d2 0B       		.uleb128 0xb
 3316 00d3 3B       		.uleb128 0x3b
 3317 00d4 0B       		.uleb128 0xb
 3318 00d5 49       		.uleb128 0x49
 3319 00d6 13       		.uleb128 0x13
 3320 00d7 02       		.uleb128 0x2
 3321 00d8 17       		.uleb128 0x17
 3322 00d9 00       		.byte	0
 3323 00da 00       		.byte	0
 3324 00db 11       		.uleb128 0x11
 3325 00dc 898201   		.uleb128 0x4109
 3326 00df 00       		.byte	0
 3327 00e0 11       		.uleb128 0x11
 3328 00e1 01       		.uleb128 0x1
 3329 00e2 31       		.uleb128 0x31
 3330 00e3 13       		.uleb128 0x13
 3331 00e4 00       		.byte	0
 3332 00e5 00       		.byte	0
 3333 00e6 12       		.uleb128 0x12
 3334 00e7 898201   		.uleb128 0x4109
 3335 00ea 01       		.byte	0x1
 3336 00eb 11       		.uleb128 0x11
 3337 00ec 01       		.uleb128 0x1
 3338 00ed 31       		.uleb128 0x31
 3339 00ee 13       		.uleb128 0x13
 3340 00ef 01       		.uleb128 0x1
 3341 00f0 13       		.uleb128 0x13
 3342 00f1 00       		.byte	0
 3343 00f2 00       		.byte	0
 3344 00f3 13       		.uleb128 0x13
 3345 00f4 8A8201   		.uleb128 0x410a
 3346 00f7 00       		.byte	0
 3347 00f8 02       		.uleb128 0x2
 3348 00f9 18       		.uleb128 0x18
 3349 00fa 9142     		.uleb128 0x2111
 3350 00fc 18       		.uleb128 0x18
 3351 00fd 00       		.byte	0
 3352 00fe 00       		.byte	0
 3353 00ff 14       		.uleb128 0x14
 3354 0100 898201   		.uleb128 0x4109
 3355 0103 01       		.byte	0x1
 3356 0104 11       		.uleb128 0x11
 3357 0105 01       		.uleb128 0x1
 3358 0106 31       		.uleb128 0x31
 3359 0107 13       		.uleb128 0x13
 3360 0108 00       		.byte	0
 3361 0109 00       		.byte	0
 3362 010a 15       		.uleb128 0x15
 3363 010b 2E       		.uleb128 0x2e
 3364 010c 01       		.byte	0x1
 3365 010d 3F       		.uleb128 0x3f
 3366 010e 19       		.uleb128 0x19
 3367 010f 03       		.uleb128 0x3
 3368 0110 0E       		.uleb128 0xe
 3369 0111 3A       		.uleb128 0x3a
 3370 0112 0B       		.uleb128 0xb
ARM GAS  C:\Users\ingan\AppData\Local\Temp\ccMtFi7x.s 			page 105


 3371 0113 3B       		.uleb128 0x3b
 3372 0114 05       		.uleb128 0x5
 3373 0115 27       		.uleb128 0x27
 3374 0116 19       		.uleb128 0x19
 3375 0117 11       		.uleb128 0x11
 3376 0118 01       		.uleb128 0x1
 3377 0119 12       		.uleb128 0x12
 3378 011a 06       		.uleb128 0x6
 3379 011b 40       		.uleb128 0x40
 3380 011c 18       		.uleb128 0x18
 3381 011d 9742     		.uleb128 0x2117
 3382 011f 19       		.uleb128 0x19
 3383 0120 01       		.uleb128 0x1
 3384 0121 13       		.uleb128 0x13
 3385 0122 00       		.byte	0
 3386 0123 00       		.byte	0
 3387 0124 16       		.uleb128 0x16
 3388 0125 05       		.uleb128 0x5
 3389 0126 00       		.byte	0
 3390 0127 03       		.uleb128 0x3
 3391 0128 0E       		.uleb128 0xe
 3392 0129 3A       		.uleb128 0x3a
 3393 012a 0B       		.uleb128 0xb
 3394 012b 3B       		.uleb128 0x3b
 3395 012c 05       		.uleb128 0x5
 3396 012d 49       		.uleb128 0x49
 3397 012e 13       		.uleb128 0x13
 3398 012f 02       		.uleb128 0x2
 3399 0130 17       		.uleb128 0x17
 3400 0131 00       		.byte	0
 3401 0132 00       		.byte	0
 3402 0133 17       		.uleb128 0x17
 3403 0134 05       		.uleb128 0x5
 3404 0135 00       		.byte	0
 3405 0136 03       		.uleb128 0x3
 3406 0137 0E       		.uleb128 0xe
 3407 0138 3A       		.uleb128 0x3a
 3408 0139 0B       		.uleb128 0xb
 3409 013a 3B       		.uleb128 0x3b
 3410 013b 0B       		.uleb128 0xb
 3411 013c 49       		.uleb128 0x49
 3412 013d 13       		.uleb128 0x13
 3413 013e 02       		.uleb128 0x2
 3414 013f 17       		.uleb128 0x17
 3415 0140 00       		.byte	0
 3416 0141 00       		.byte	0
 3417 0142 18       		.uleb128 0x18
 3418 0143 2E       		.uleb128 0x2e
 3419 0144 00       		.byte	0
 3420 0145 3F       		.uleb128 0x3f
 3421 0146 19       		.uleb128 0x19
 3422 0147 03       		.uleb128 0x3
 3423 0148 0E       		.uleb128 0xe
 3424 0149 3A       		.uleb128 0x3a
 3425 014a 0B       		.uleb128 0xb
 3426 014b 3B       		.uleb128 0x3b
 3427 014c 05       		.uleb128 0x5
ARM GAS  C:\Users\ingan\AppData\Local\Temp\ccMtFi7x.s 			page 106


 3428 014d 27       		.uleb128 0x27
 3429 014e 19       		.uleb128 0x19
 3430 014f 11       		.uleb128 0x11
 3431 0150 01       		.uleb128 0x1
 3432 0151 12       		.uleb128 0x12
 3433 0152 06       		.uleb128 0x6
 3434 0153 40       		.uleb128 0x40
 3435 0154 18       		.uleb128 0x18
 3436 0155 9742     		.uleb128 0x2117
 3437 0157 19       		.uleb128 0x19
 3438 0158 00       		.byte	0
 3439 0159 00       		.byte	0
 3440 015a 19       		.uleb128 0x19
 3441 015b 2E       		.uleb128 0x2e
 3442 015c 01       		.byte	0x1
 3443 015d 3F       		.uleb128 0x3f
 3444 015e 19       		.uleb128 0x19
 3445 015f 03       		.uleb128 0x3
 3446 0160 0E       		.uleb128 0xe
 3447 0161 3A       		.uleb128 0x3a
 3448 0162 0B       		.uleb128 0xb
 3449 0163 3B       		.uleb128 0x3b
 3450 0164 05       		.uleb128 0x5
 3451 0165 27       		.uleb128 0x27
 3452 0166 19       		.uleb128 0x19
 3453 0167 49       		.uleb128 0x49
 3454 0168 13       		.uleb128 0x13
 3455 0169 11       		.uleb128 0x11
 3456 016a 01       		.uleb128 0x1
 3457 016b 12       		.uleb128 0x12
 3458 016c 06       		.uleb128 0x6
 3459 016d 40       		.uleb128 0x40
 3460 016e 18       		.uleb128 0x18
 3461 016f 9742     		.uleb128 0x2117
 3462 0171 19       		.uleb128 0x19
 3463 0172 01       		.uleb128 0x1
 3464 0173 13       		.uleb128 0x13
 3465 0174 00       		.byte	0
 3466 0175 00       		.byte	0
 3467 0176 1A       		.uleb128 0x1a
 3468 0177 34       		.uleb128 0x34
 3469 0178 00       		.byte	0
 3470 0179 03       		.uleb128 0x3
 3471 017a 0E       		.uleb128 0xe
 3472 017b 3A       		.uleb128 0x3a
 3473 017c 0B       		.uleb128 0xb
 3474 017d 3B       		.uleb128 0x3b
 3475 017e 05       		.uleb128 0x5
 3476 017f 49       		.uleb128 0x49
 3477 0180 13       		.uleb128 0x13
 3478 0181 02       		.uleb128 0x2
 3479 0182 17       		.uleb128 0x17
 3480 0183 00       		.byte	0
 3481 0184 00       		.byte	0
 3482 0185 1B       		.uleb128 0x1b
 3483 0186 2E       		.uleb128 0x2e
 3484 0187 00       		.byte	0
ARM GAS  C:\Users\ingan\AppData\Local\Temp\ccMtFi7x.s 			page 107


 3485 0188 3F       		.uleb128 0x3f
 3486 0189 19       		.uleb128 0x19
 3487 018a 03       		.uleb128 0x3
 3488 018b 0E       		.uleb128 0xe
 3489 018c 3A       		.uleb128 0x3a
 3490 018d 0B       		.uleb128 0xb
 3491 018e 3B       		.uleb128 0x3b
 3492 018f 05       		.uleb128 0x5
 3493 0190 27       		.uleb128 0x27
 3494 0191 19       		.uleb128 0x19
 3495 0192 49       		.uleb128 0x49
 3496 0193 13       		.uleb128 0x13
 3497 0194 11       		.uleb128 0x11
 3498 0195 01       		.uleb128 0x1
 3499 0196 12       		.uleb128 0x12
 3500 0197 06       		.uleb128 0x6
 3501 0198 40       		.uleb128 0x40
 3502 0199 18       		.uleb128 0x18
 3503 019a 9742     		.uleb128 0x2117
 3504 019c 19       		.uleb128 0x19
 3505 019d 00       		.byte	0
 3506 019e 00       		.byte	0
 3507 019f 1C       		.uleb128 0x1c
 3508 01a0 34       		.uleb128 0x34
 3509 01a1 00       		.byte	0
 3510 01a2 03       		.uleb128 0x3
 3511 01a3 08       		.uleb128 0x8
 3512 01a4 3A       		.uleb128 0x3a
 3513 01a5 0B       		.uleb128 0xb
 3514 01a6 3B       		.uleb128 0x3b
 3515 01a7 05       		.uleb128 0x5
 3516 01a8 49       		.uleb128 0x49
 3517 01a9 13       		.uleb128 0x13
 3518 01aa 02       		.uleb128 0x2
 3519 01ab 17       		.uleb128 0x17
 3520 01ac 00       		.byte	0
 3521 01ad 00       		.byte	0
 3522 01ae 1D       		.uleb128 0x1d
 3523 01af 0F       		.uleb128 0xf
 3524 01b0 00       		.byte	0
 3525 01b1 0B       		.uleb128 0xb
 3526 01b2 0B       		.uleb128 0xb
 3527 01b3 49       		.uleb128 0x49
 3528 01b4 13       		.uleb128 0x13
 3529 01b5 00       		.byte	0
 3530 01b6 00       		.byte	0
 3531 01b7 1E       		.uleb128 0x1e
 3532 01b8 26       		.uleb128 0x26
 3533 01b9 00       		.byte	0
 3534 01ba 49       		.uleb128 0x49
 3535 01bb 13       		.uleb128 0x13
 3536 01bc 00       		.byte	0
 3537 01bd 00       		.byte	0
 3538 01be 1F       		.uleb128 0x1f
 3539 01bf 05       		.uleb128 0x5
 3540 01c0 00       		.byte	0
 3541 01c1 03       		.uleb128 0x3
ARM GAS  C:\Users\ingan\AppData\Local\Temp\ccMtFi7x.s 			page 108


 3542 01c2 0E       		.uleb128 0xe
 3543 01c3 3A       		.uleb128 0x3a
 3544 01c4 0B       		.uleb128 0xb
 3545 01c5 3B       		.uleb128 0x3b
 3546 01c6 05       		.uleb128 0x5
 3547 01c7 49       		.uleb128 0x49
 3548 01c8 13       		.uleb128 0x13
 3549 01c9 02       		.uleb128 0x2
 3550 01ca 18       		.uleb128 0x18
 3551 01cb 00       		.byte	0
 3552 01cc 00       		.byte	0
 3553 01cd 20       		.uleb128 0x20
 3554 01ce 34       		.uleb128 0x34
 3555 01cf 00       		.byte	0
 3556 01d0 03       		.uleb128 0x3
 3557 01d1 0E       		.uleb128 0xe
 3558 01d2 3A       		.uleb128 0x3a
 3559 01d3 0B       		.uleb128 0xb
 3560 01d4 3B       		.uleb128 0x3b
 3561 01d5 0B       		.uleb128 0xb
 3562 01d6 49       		.uleb128 0x49
 3563 01d7 13       		.uleb128 0x13
 3564 01d8 3F       		.uleb128 0x3f
 3565 01d9 19       		.uleb128 0x19
 3566 01da 02       		.uleb128 0x2
 3567 01db 18       		.uleb128 0x18
 3568 01dc 00       		.byte	0
 3569 01dd 00       		.byte	0
 3570 01de 21       		.uleb128 0x21
 3571 01df 34       		.uleb128 0x34
 3572 01e0 00       		.byte	0
 3573 01e1 03       		.uleb128 0x3
 3574 01e2 0E       		.uleb128 0xe
 3575 01e3 3A       		.uleb128 0x3a
 3576 01e4 0B       		.uleb128 0xb
 3577 01e5 3B       		.uleb128 0x3b
 3578 01e6 05       		.uleb128 0x5
 3579 01e7 49       		.uleb128 0x49
 3580 01e8 13       		.uleb128 0x13
 3581 01e9 3F       		.uleb128 0x3f
 3582 01ea 19       		.uleb128 0x19
 3583 01eb 3C       		.uleb128 0x3c
 3584 01ec 19       		.uleb128 0x19
 3585 01ed 00       		.byte	0
 3586 01ee 00       		.byte	0
 3587 01ef 22       		.uleb128 0x22
 3588 01f0 34       		.uleb128 0x34
 3589 01f1 00       		.byte	0
 3590 01f2 03       		.uleb128 0x3
 3591 01f3 0E       		.uleb128 0xe
 3592 01f4 3A       		.uleb128 0x3a
 3593 01f5 0B       		.uleb128 0xb
 3594 01f6 3B       		.uleb128 0x3b
 3595 01f7 0B       		.uleb128 0xb
 3596 01f8 49       		.uleb128 0x49
 3597 01f9 13       		.uleb128 0x13
 3598 01fa 3F       		.uleb128 0x3f
ARM GAS  C:\Users\ingan\AppData\Local\Temp\ccMtFi7x.s 			page 109


 3599 01fb 19       		.uleb128 0x19
 3600 01fc 3C       		.uleb128 0x3c
 3601 01fd 19       		.uleb128 0x19
 3602 01fe 00       		.byte	0
 3603 01ff 00       		.byte	0
 3604 0200 23       		.uleb128 0x23
 3605 0201 2E       		.uleb128 0x2e
 3606 0202 00       		.byte	0
 3607 0203 3F       		.uleb128 0x3f
 3608 0204 19       		.uleb128 0x19
 3609 0205 3C       		.uleb128 0x3c
 3610 0206 19       		.uleb128 0x19
 3611 0207 6E       		.uleb128 0x6e
 3612 0208 0E       		.uleb128 0xe
 3613 0209 03       		.uleb128 0x3
 3614 020a 0E       		.uleb128 0xe
 3615 020b 3A       		.uleb128 0x3a
 3616 020c 0B       		.uleb128 0xb
 3617 020d 3B       		.uleb128 0x3b
 3618 020e 0B       		.uleb128 0xb
 3619 020f 00       		.byte	0
 3620 0210 00       		.byte	0
 3621 0211 00       		.byte	0
 3622              		.section	.debug_loc,"",%progbits
 3623              	.Ldebug_loc0:
 3624              	.LLST0:
 3625 0000 08000000 		.4byte	.LVL1
 3626 0004 2A010000 		.4byte	.LVL27
 3627 0008 0100     		.2byte	0x1
 3628 000a 55       		.byte	0x55
 3629 000b 00000000 		.4byte	0
 3630 000f 00000000 		.4byte	0
 3631              	.LLST1:
 3632 0013 92000000 		.4byte	.LVL6
 3633 0017 94000000 		.4byte	.LVL7
 3634 001b 0200     		.2byte	0x2
 3635 001d 30       		.byte	0x30
 3636 001e 9F       		.byte	0x9f
 3637 001f 94000000 		.4byte	.LVL7
 3638 0023 9C000000 		.4byte	.LVL8
 3639 0027 0100     		.2byte	0x1
 3640 0029 53       		.byte	0x53
 3641 002a 9E000000 		.4byte	.LVL9
 3642 002e A7000000 		.4byte	.LVL10-1
 3643 0032 0100     		.2byte	0x1
 3644 0034 53       		.byte	0x53
 3645 0035 00000000 		.4byte	0
 3646 0039 00000000 		.4byte	0
 3647              	.LLST2:
 3648 003d 00000000 		.4byte	.LVL28
 3649 0041 46000000 		.4byte	.LVL29
 3650 0045 0100     		.2byte	0x1
 3651 0047 50       		.byte	0x50
 3652 0048 46000000 		.4byte	.LVL29
 3653 004c D4000000 		.4byte	.LFE2
 3654 0050 0400     		.2byte	0x4
 3655 0052 F3       		.byte	0xf3
ARM GAS  C:\Users\ingan\AppData\Local\Temp\ccMtFi7x.s 			page 110


 3656 0053 01       		.uleb128 0x1
 3657 0054 50       		.byte	0x50
 3658 0055 9F       		.byte	0x9f
 3659 0056 00000000 		.4byte	0
 3660 005a 00000000 		.4byte	0
 3661              	.LLST3:
 3662 005e 00000000 		.4byte	.LVL28
 3663 0062 91000000 		.4byte	.LVL30-1
 3664 0066 0100     		.2byte	0x1
 3665 0068 51       		.byte	0x51
 3666 0069 91000000 		.4byte	.LVL30-1
 3667 006d D4000000 		.4byte	.LFE2
 3668 0071 0400     		.2byte	0x4
 3669 0073 F3       		.byte	0xf3
 3670 0074 01       		.uleb128 0x1
 3671 0075 51       		.byte	0x51
 3672 0076 9F       		.byte	0x9f
 3673 0077 00000000 		.4byte	0
 3674 007b 00000000 		.4byte	0
 3675              	.LLST4:
 3676 007f 00000000 		.4byte	.LVL31
 3677 0083 0F000000 		.4byte	.LVL32-1
 3678 0087 0100     		.2byte	0x1
 3679 0089 50       		.byte	0x50
 3680 008a 0F000000 		.4byte	.LVL32-1
 3681 008e 24000000 		.4byte	.LFE0
 3682 0092 0400     		.2byte	0x4
 3683 0094 F3       		.byte	0xf3
 3684 0095 01       		.uleb128 0x1
 3685 0096 50       		.byte	0x50
 3686 0097 9F       		.byte	0x9f
 3687 0098 00000000 		.4byte	0
 3688 009c 00000000 		.4byte	0
 3689              	.LLST5:
 3690 00a0 00000000 		.4byte	.LVL31
 3691 00a4 0F000000 		.4byte	.LVL32-1
 3692 00a8 0100     		.2byte	0x1
 3693 00aa 51       		.byte	0x51
 3694 00ab 0F000000 		.4byte	.LVL32-1
 3695 00af 24000000 		.4byte	.LFE0
 3696 00b3 0400     		.2byte	0x4
 3697 00b5 F3       		.byte	0xf3
 3698 00b6 01       		.uleb128 0x1
 3699 00b7 51       		.byte	0x51
 3700 00b8 9F       		.byte	0x9f
 3701 00b9 00000000 		.4byte	0
 3702 00bd 00000000 		.4byte	0
 3703              	.LLST6:
 3704 00c1 06000000 		.4byte	.LVL34
 3705 00c5 10000000 		.4byte	.LVL35
 3706 00c9 0100     		.2byte	0x1
 3707 00cb 53       		.byte	0x53
 3708 00cc 00000000 		.4byte	0
 3709 00d0 00000000 		.4byte	0
 3710              	.LLST7:
 3711 00d4 00000000 		.4byte	.LVL36
 3712 00d8 10000000 		.4byte	.LVL37
ARM GAS  C:\Users\ingan\AppData\Local\Temp\ccMtFi7x.s 			page 111


 3713 00dc 0200     		.2byte	0x2
 3714 00de 30       		.byte	0x30
 3715 00df 9F       		.byte	0x9f
 3716 00e0 10000000 		.4byte	.LVL37
 3717 00e4 16000000 		.4byte	.LVL38
 3718 00e8 0100     		.2byte	0x1
 3719 00ea 50       		.byte	0x50
 3720 00eb 16000000 		.4byte	.LVL38
 3721 00ef 18000000 		.4byte	.LVL39
 3722 00f3 0200     		.2byte	0x2
 3723 00f5 30       		.byte	0x30
 3724 00f6 9F       		.byte	0x9f
 3725 00f7 18000000 		.4byte	.LVL39
 3726 00fb 20000000 		.4byte	.LFE7
 3727 00ff 0100     		.2byte	0x1
 3728 0101 50       		.byte	0x50
 3729 0102 00000000 		.4byte	0
 3730 0106 00000000 		.4byte	0
 3731              	.LLST8:
 3732 010a 00000000 		.4byte	.LVL40
 3733 010e 04000000 		.4byte	.LVL41
 3734 0112 0100     		.2byte	0x1
 3735 0114 50       		.byte	0x50
 3736 0115 04000000 		.4byte	.LVL41
 3737 0119 0C000000 		.4byte	.LFE8
 3738 011d 0400     		.2byte	0x4
 3739 011f F3       		.byte	0xf3
 3740 0120 01       		.uleb128 0x1
 3741 0121 50       		.byte	0x50
 3742 0122 9F       		.byte	0x9f
 3743 0123 00000000 		.4byte	0
 3744 0127 00000000 		.4byte	0
 3745              	.LLST9:
 3746 012b 00000000 		.4byte	.LVL42
 3747 012f 04000000 		.4byte	.LVL43
 3748 0133 0100     		.2byte	0x1
 3749 0135 50       		.byte	0x50
 3750 0136 04000000 		.4byte	.LVL43
 3751 013a 14000000 		.4byte	.LFE9
 3752 013e 0400     		.2byte	0x4
 3753 0140 F3       		.byte	0xf3
 3754 0141 01       		.uleb128 0x1
 3755 0142 50       		.byte	0x50
 3756 0143 9F       		.byte	0x9f
 3757 0144 00000000 		.4byte	0
 3758 0148 00000000 		.4byte	0
 3759              	.LLST10:
 3760 014c 00000000 		.4byte	.LVL44
 3761 0150 0C000000 		.4byte	.LVL45
 3762 0154 0100     		.2byte	0x1
 3763 0156 50       		.byte	0x50
 3764 0157 0C000000 		.4byte	.LVL45
 3765 015b 20000000 		.4byte	.LVL50
 3766 015f 0400     		.2byte	0x4
 3767 0161 F3       		.byte	0xf3
 3768 0162 01       		.uleb128 0x1
 3769 0163 50       		.byte	0x50
ARM GAS  C:\Users\ingan\AppData\Local\Temp\ccMtFi7x.s 			page 112


 3770 0164 9F       		.byte	0x9f
 3771 0165 20000000 		.4byte	.LVL50
 3772 0169 22000000 		.4byte	.LVL51
 3773 016d 0100     		.2byte	0x1
 3774 016f 50       		.byte	0x50
 3775 0170 22000000 		.4byte	.LVL51
 3776 0174 28000000 		.4byte	.LFE10
 3777 0178 0400     		.2byte	0x4
 3778 017a F3       		.byte	0xf3
 3779 017b 01       		.uleb128 0x1
 3780 017c 50       		.byte	0x50
 3781 017d 9F       		.byte	0x9f
 3782 017e 00000000 		.4byte	0
 3783 0182 00000000 		.4byte	0
 3784              	.LLST11:
 3785 0186 00000000 		.4byte	.LVL44
 3786 018a 14000000 		.4byte	.LVL46
 3787 018e 0200     		.2byte	0x2
 3788 0190 30       		.byte	0x30
 3789 0191 9F       		.byte	0x9f
 3790 0192 14000000 		.4byte	.LVL46
 3791 0196 1C000000 		.4byte	.LVL48
 3792 019a 0100     		.2byte	0x1
 3793 019c 50       		.byte	0x50
 3794 019d 1C000000 		.4byte	.LVL48
 3795 01a1 1E000000 		.4byte	.LVL49
 3796 01a5 0300     		.2byte	0x3
 3797 01a7 70       		.byte	0x70
 3798 01a8 02       		.sleb128 2
 3799 01a9 9F       		.byte	0x9f
 3800 01aa 1E000000 		.4byte	.LVL49
 3801 01ae 20000000 		.4byte	.LVL50
 3802 01b2 0100     		.2byte	0x1
 3803 01b4 50       		.byte	0x50
 3804 01b5 20000000 		.4byte	.LVL50
 3805 01b9 22000000 		.4byte	.LVL51
 3806 01bd 0200     		.2byte	0x2
 3807 01bf 30       		.byte	0x30
 3808 01c0 9F       		.byte	0x9f
 3809 01c1 22000000 		.4byte	.LVL51
 3810 01c5 28000000 		.4byte	.LFE10
 3811 01c9 0100     		.2byte	0x1
 3812 01cb 50       		.byte	0x50
 3813 01cc 00000000 		.4byte	0
 3814 01d0 00000000 		.4byte	0
 3815              	.LLST12:
 3816 01d4 00000000 		.4byte	.LVL52
 3817 01d8 0A000000 		.4byte	.LVL53
 3818 01dc 0100     		.2byte	0x1
 3819 01de 50       		.byte	0x50
 3820 01df 0A000000 		.4byte	.LVL53
 3821 01e3 78000000 		.4byte	.LFE11
 3822 01e7 0400     		.2byte	0x4
 3823 01e9 F3       		.byte	0xf3
 3824 01ea 01       		.uleb128 0x1
 3825 01eb 50       		.byte	0x50
 3826 01ec 9F       		.byte	0x9f
ARM GAS  C:\Users\ingan\AppData\Local\Temp\ccMtFi7x.s 			page 113


 3827 01ed 00000000 		.4byte	0
 3828 01f1 00000000 		.4byte	0
 3829              	.LLST13:
 3830 01f5 00000000 		.4byte	.LVL52
 3831 01f9 32000000 		.4byte	.LVL58
 3832 01fd 0100     		.2byte	0x1
 3833 01ff 51       		.byte	0x51
 3834 0200 32000000 		.4byte	.LVL58
 3835 0204 3E000000 		.4byte	.LVL60
 3836 0208 0400     		.2byte	0x4
 3837 020a F3       		.byte	0xf3
 3838 020b 01       		.uleb128 0x1
 3839 020c 51       		.byte	0x51
 3840 020d 9F       		.byte	0x9f
 3841 020e 3E000000 		.4byte	.LVL60
 3842 0212 40000000 		.4byte	.LVL61
 3843 0216 0100     		.2byte	0x1
 3844 0218 51       		.byte	0x51
 3845 0219 40000000 		.4byte	.LVL61
 3846 021d 4C000000 		.4byte	.LVL63
 3847 0221 0400     		.2byte	0x4
 3848 0223 F3       		.byte	0xf3
 3849 0224 01       		.uleb128 0x1
 3850 0225 51       		.byte	0x51
 3851 0226 9F       		.byte	0x9f
 3852 0227 4C000000 		.4byte	.LVL63
 3853 022b 4E000000 		.4byte	.LVL64
 3854 022f 0100     		.2byte	0x1
 3855 0231 51       		.byte	0x51
 3856 0232 4E000000 		.4byte	.LVL64
 3857 0236 78000000 		.4byte	.LFE11
 3858 023a 0400     		.2byte	0x4
 3859 023c F3       		.byte	0xf3
 3860 023d 01       		.uleb128 0x1
 3861 023e 51       		.byte	0x51
 3862 023f 9F       		.byte	0x9f
 3863 0240 00000000 		.4byte	0
 3864 0244 00000000 		.4byte	0
 3865              	.LLST14:
 3866 0248 18000000 		.4byte	.LVL54
 3867 024c 1E000000 		.4byte	.LVL55
 3868 0250 0100     		.2byte	0x1
 3869 0252 52       		.byte	0x52
 3870 0253 1E000000 		.4byte	.LVL55
 3871 0257 24000000 		.4byte	.LVL57
 3872 025b 0400     		.2byte	0x4
 3873 025d 0A       		.byte	0xa
 3874 025e 0040     		.2byte	0x4000
 3875 0260 9F       		.byte	0x9f
 3876 0261 24000000 		.4byte	.LVL57
 3877 0265 37000000 		.4byte	.LVL59-1
 3878 0269 0100     		.2byte	0x1
 3879 026b 52       		.byte	0x52
 3880 026c 3E000000 		.4byte	.LVL60
 3881 0270 45000000 		.4byte	.LVL62-1
 3882 0274 0100     		.2byte	0x1
 3883 0276 52       		.byte	0x52
ARM GAS  C:\Users\ingan\AppData\Local\Temp\ccMtFi7x.s 			page 114


 3884 0277 4C000000 		.4byte	.LVL63
 3885 027b 53000000 		.4byte	.LVL65-1
 3886 027f 0100     		.2byte	0x1
 3887 0281 52       		.byte	0x52
 3888 0282 00000000 		.4byte	0
 3889 0286 00000000 		.4byte	0
 3890              	.LLST15:
 3891 028a 18000000 		.4byte	.LVL54
 3892 028e 1E000000 		.4byte	.LVL55
 3893 0292 0400     		.2byte	0x4
 3894 0294 0A       		.byte	0xa
 3895 0295 0040     		.2byte	0x4000
 3896 0297 9F       		.byte	0x9f
 3897 0298 20000000 		.4byte	.LVL56
 3898 029c 37000000 		.4byte	.LVL59-1
 3899 02a0 0100     		.2byte	0x1
 3900 02a2 53       		.byte	0x53
 3901 02a3 3E000000 		.4byte	.LVL60
 3902 02a7 45000000 		.4byte	.LVL62-1
 3903 02ab 0100     		.2byte	0x1
 3904 02ad 53       		.byte	0x53
 3905 02ae 4C000000 		.4byte	.LVL63
 3906 02b2 53000000 		.4byte	.LVL65-1
 3907 02b6 0100     		.2byte	0x1
 3908 02b8 53       		.byte	0x53
 3909 02b9 00000000 		.4byte	0
 3910 02bd 00000000 		.4byte	0
 3911              	.LLST16:
 3912 02c1 00000000 		.4byte	.LVL67
 3913 02c5 0E000000 		.4byte	.LVL68
 3914 02c9 0100     		.2byte	0x1
 3915 02cb 50       		.byte	0x50
 3916 02cc 0E000000 		.4byte	.LVL68
 3917 02d0 40000000 		.4byte	.LFE12
 3918 02d4 0400     		.2byte	0x4
 3919 02d6 F3       		.byte	0xf3
 3920 02d7 01       		.uleb128 0x1
 3921 02d8 50       		.byte	0x50
 3922 02d9 9F       		.byte	0x9f
 3923 02da 00000000 		.4byte	0
 3924 02de 00000000 		.4byte	0
 3925              	.LLST17:
 3926 02e2 0E000000 		.4byte	.LVL68
 3927 02e6 2C000000 		.4byte	.LVL71
 3928 02ea 0100     		.2byte	0x1
 3929 02ec 54       		.byte	0x54
 3930 02ed 2E000000 		.4byte	.LVL72
 3931 02f1 38000000 		.4byte	.LVL73
 3932 02f5 0100     		.2byte	0x1
 3933 02f7 54       		.byte	0x54
 3934 02f8 00000000 		.4byte	0
 3935 02fc 00000000 		.4byte	0
 3936              	.LLST18:
 3937 0300 0C000000 		.4byte	.LVL75
 3938 0304 4D000000 		.4byte	.LVL76-1
 3939 0308 0100     		.2byte	0x1
 3940 030a 50       		.byte	0x50
ARM GAS  C:\Users\ingan\AppData\Local\Temp\ccMtFi7x.s 			page 115


 3941 030b 00000000 		.4byte	0
 3942 030f 00000000 		.4byte	0
 3943              	.LLST19:
 3944 0313 00000000 		.4byte	.LVL78
 3945 0317 52000000 		.4byte	.LVL82
 3946 031b 0100     		.2byte	0x1
 3947 031d 50       		.byte	0x50
 3948 031e 52000000 		.4byte	.LVL82
 3949 0322 E8000000 		.4byte	.LVL91
 3950 0326 0400     		.2byte	0x4
 3951 0328 F3       		.byte	0xf3
 3952 0329 01       		.uleb128 0x1
 3953 032a 50       		.byte	0x50
 3954 032b 9F       		.byte	0x9f
 3955 032c E8000000 		.4byte	.LVL91
 3956 0330 04010000 		.4byte	.LFE13
 3957 0334 0100     		.2byte	0x1
 3958 0336 50       		.byte	0x50
 3959 0337 00000000 		.4byte	0
 3960 033b 00000000 		.4byte	0
 3961              	.LLST20:
 3962 033f 00000000 		.4byte	.LVL78
 3963 0343 4E000000 		.4byte	.LVL81
 3964 0347 0100     		.2byte	0x1
 3965 0349 51       		.byte	0x51
 3966 034a 4E000000 		.4byte	.LVL81
 3967 034e E8000000 		.4byte	.LVL91
 3968 0352 0100     		.2byte	0x1
 3969 0354 56       		.byte	0x56
 3970 0355 E8000000 		.4byte	.LVL91
 3971 0359 04010000 		.4byte	.LFE13
 3972 035d 0100     		.2byte	0x1
 3973 035f 51       		.byte	0x51
 3974 0360 00000000 		.4byte	0
 3975 0364 00000000 		.4byte	0
 3976              	.LLST21:
 3977 0368 00000000 		.4byte	.LVL78
 3978 036c 16000000 		.4byte	.LVL79
 3979 0370 0100     		.2byte	0x1
 3980 0372 52       		.byte	0x52
 3981 0373 16000000 		.4byte	.LVL79
 3982 0377 3C000000 		.4byte	.LVL80
 3983 037b 0400     		.2byte	0x4
 3984 037d F3       		.byte	0xf3
 3985 037e 01       		.uleb128 0x1
 3986 037f 52       		.byte	0x52
 3987 0380 9F       		.byte	0x9f
 3988 0381 3C000000 		.4byte	.LVL80
 3989 0385 9A000000 		.4byte	.LVL86
 3990 0389 0100     		.2byte	0x1
 3991 038b 55       		.byte	0x55
 3992 038c D0000000 		.4byte	.LVL90
 3993 0390 E8000000 		.4byte	.LVL91
 3994 0394 0100     		.2byte	0x1
 3995 0396 55       		.byte	0x55
 3996 0397 E8000000 		.4byte	.LVL91
 3997 039b 04010000 		.4byte	.LFE13
ARM GAS  C:\Users\ingan\AppData\Local\Temp\ccMtFi7x.s 			page 116


 3998 039f 0100     		.2byte	0x1
 3999 03a1 52       		.byte	0x52
 4000 03a2 00000000 		.4byte	0
 4001 03a6 00000000 		.4byte	0
 4002              	.LLST22:
 4003 03aa 00000000 		.4byte	.LVL92
 4004 03ae 19000000 		.4byte	.LVL93-1
 4005 03b2 0100     		.2byte	0x1
 4006 03b4 50       		.byte	0x50
 4007 03b5 19000000 		.4byte	.LVL93-1
 4008 03b9 92000000 		.4byte	.LVL102
 4009 03bd 0400     		.2byte	0x4
 4010 03bf F3       		.byte	0xf3
 4011 03c0 01       		.uleb128 0x1
 4012 03c1 50       		.byte	0x50
 4013 03c2 9F       		.byte	0x9f
 4014 03c3 92000000 		.4byte	.LVL102
 4015 03c7 9C000000 		.4byte	.LVL103
 4016 03cb 0100     		.2byte	0x1
 4017 03cd 50       		.byte	0x50
 4018 03ce 9C000000 		.4byte	.LVL103
 4019 03d2 B0000000 		.4byte	.LFE14
 4020 03d6 0400     		.2byte	0x4
 4021 03d8 F3       		.byte	0xf3
 4022 03d9 01       		.uleb128 0x1
 4023 03da 50       		.byte	0x50
 4024 03db 9F       		.byte	0x9f
 4025 03dc 00000000 		.4byte	0
 4026 03e0 00000000 		.4byte	0
 4027              	.LLST23:
 4028 03e4 00000000 		.4byte	.LVL92
 4029 03e8 19000000 		.4byte	.LVL93-1
 4030 03ec 0100     		.2byte	0x1
 4031 03ee 51       		.byte	0x51
 4032 03ef 19000000 		.4byte	.LVL93-1
 4033 03f3 92000000 		.4byte	.LVL102
 4034 03f7 0100     		.2byte	0x1
 4035 03f9 57       		.byte	0x57
 4036 03fa 92000000 		.4byte	.LVL102
 4037 03fe 9C000000 		.4byte	.LVL103
 4038 0402 0100     		.2byte	0x1
 4039 0404 51       		.byte	0x51
 4040 0405 9C000000 		.4byte	.LVL103
 4041 0409 B0000000 		.4byte	.LFE14
 4042 040d 0400     		.2byte	0x4
 4043 040f F3       		.byte	0xf3
 4044 0410 01       		.uleb128 0x1
 4045 0411 51       		.byte	0x51
 4046 0412 9F       		.byte	0x9f
 4047 0413 00000000 		.4byte	0
 4048 0417 00000000 		.4byte	0
 4049              	.LLST24:
 4050 041b 00000000 		.4byte	.LVL92
 4051 041f 19000000 		.4byte	.LVL93-1
 4052 0423 0100     		.2byte	0x1
 4053 0425 52       		.byte	0x52
 4054 0426 19000000 		.4byte	.LVL93-1
ARM GAS  C:\Users\ingan\AppData\Local\Temp\ccMtFi7x.s 			page 117


 4055 042a 26000000 		.4byte	.LVL95
 4056 042e 0400     		.2byte	0x4
 4057 0430 F3       		.byte	0xf3
 4058 0431 01       		.uleb128 0x1
 4059 0432 52       		.byte	0x52
 4060 0433 9F       		.byte	0x9f
 4061 0434 26000000 		.4byte	.LVL95
 4062 0438 92000000 		.4byte	.LVL102
 4063 043c 0100     		.2byte	0x1
 4064 043e 55       		.byte	0x55
 4065 043f 92000000 		.4byte	.LVL102
 4066 0443 9C000000 		.4byte	.LVL103
 4067 0447 0100     		.2byte	0x1
 4068 0449 52       		.byte	0x52
 4069 044a 9C000000 		.4byte	.LVL103
 4070 044e A2000000 		.4byte	.LVL104
 4071 0452 0100     		.2byte	0x1
 4072 0454 55       		.byte	0x55
 4073 0455 00000000 		.4byte	0
 4074 0459 00000000 		.4byte	0
 4075              	.LLST25:
 4076 045d 00000000 		.4byte	.LVL105
 4077 0461 1C000000 		.4byte	.LVL106
 4078 0465 0100     		.2byte	0x1
 4079 0467 50       		.byte	0x50
 4080 0468 1C000000 		.4byte	.LVL106
 4081 046c 2C000000 		.4byte	.LFE15
 4082 0470 0400     		.2byte	0x4
 4083 0472 F3       		.byte	0xf3
 4084 0473 01       		.uleb128 0x1
 4085 0474 50       		.byte	0x50
 4086 0475 9F       		.byte	0x9f
 4087 0476 00000000 		.4byte	0
 4088 047a 00000000 		.4byte	0
 4089              	.LLST26:
 4090 047e 00000000 		.4byte	.LVL107
 4091 0482 0A000000 		.4byte	.LVL108
 4092 0486 0100     		.2byte	0x1
 4093 0488 50       		.byte	0x50
 4094 0489 0A000000 		.4byte	.LVL108
 4095 048d 18000000 		.4byte	.LFE16
 4096 0491 0400     		.2byte	0x4
 4097 0493 F3       		.byte	0xf3
 4098 0494 01       		.uleb128 0x1
 4099 0495 50       		.byte	0x50
 4100 0496 9F       		.byte	0x9f
 4101 0497 00000000 		.4byte	0
 4102 049b 00000000 		.4byte	0
 4103              	.LLST27:
 4104 049f 00000000 		.4byte	.LVL110
 4105 04a3 0A000000 		.4byte	.LVL111
 4106 04a7 0100     		.2byte	0x1
 4107 04a9 50       		.byte	0x50
 4108 04aa 0A000000 		.4byte	.LVL111
 4109 04ae 16000000 		.4byte	.LVL113
 4110 04b2 0400     		.2byte	0x4
 4111 04b4 F3       		.byte	0xf3
ARM GAS  C:\Users\ingan\AppData\Local\Temp\ccMtFi7x.s 			page 118


 4112 04b5 01       		.uleb128 0x1
 4113 04b6 50       		.byte	0x50
 4114 04b7 9F       		.byte	0x9f
 4115 04b8 16000000 		.4byte	.LVL113
 4116 04bc 18000000 		.4byte	.LVL114
 4117 04c0 0100     		.2byte	0x1
 4118 04c2 50       		.byte	0x50
 4119 04c3 18000000 		.4byte	.LVL114
 4120 04c7 20000000 		.4byte	.LFE18
 4121 04cb 0400     		.2byte	0x4
 4122 04cd F3       		.byte	0xf3
 4123 04ce 01       		.uleb128 0x1
 4124 04cf 50       		.byte	0x50
 4125 04d0 9F       		.byte	0x9f
 4126 04d1 00000000 		.4byte	0
 4127 04d5 00000000 		.4byte	0
 4128              	.LLST28:
 4129 04d9 00000000 		.4byte	.LVL110
 4130 04dd 14000000 		.4byte	.LVL112
 4131 04e1 0200     		.2byte	0x2
 4132 04e3 30       		.byte	0x30
 4133 04e4 9F       		.byte	0x9f
 4134 04e5 14000000 		.4byte	.LVL112
 4135 04e9 16000000 		.4byte	.LVL113
 4136 04ed 0100     		.2byte	0x1
 4137 04ef 50       		.byte	0x50
 4138 04f0 16000000 		.4byte	.LVL113
 4139 04f4 18000000 		.4byte	.LVL114
 4140 04f8 0200     		.2byte	0x2
 4141 04fa 30       		.byte	0x30
 4142 04fb 9F       		.byte	0x9f
 4143 04fc 18000000 		.4byte	.LVL114
 4144 0500 20000000 		.4byte	.LFE18
 4145 0504 0100     		.2byte	0x1
 4146 0506 50       		.byte	0x50
 4147 0507 00000000 		.4byte	0
 4148 050b 00000000 		.4byte	0
 4149              	.LLST29:
 4150 050f 00000000 		.4byte	.LVL116
 4151 0513 10000000 		.4byte	.LVL117
 4152 0517 0200     		.2byte	0x2
 4153 0519 30       		.byte	0x30
 4154 051a 9F       		.byte	0x9f
 4155 051b 10000000 		.4byte	.LVL117
 4156 051f 18000000 		.4byte	.LFE20
 4157 0523 0100     		.2byte	0x1
 4158 0525 50       		.byte	0x50
 4159 0526 00000000 		.4byte	0
 4160 052a 00000000 		.4byte	0
 4161              		.section	.debug_aranges,"",%progbits
 4162 0000 D4000000 		.4byte	0xd4
 4163 0004 0200     		.2byte	0x2
 4164 0006 00000000 		.4byte	.Ldebug_info0
 4165 000a 04       		.byte	0x4
 4166 000b 00       		.byte	0
 4167 000c 0000     		.2byte	0
 4168 000e 0000     		.2byte	0
ARM GAS  C:\Users\ingan\AppData\Local\Temp\ccMtFi7x.s 			page 119


 4169 0010 00000000 		.4byte	.LFB1
 4170 0014 68010000 		.4byte	.LFE1-.LFB1
 4171 0018 00000000 		.4byte	.LFB2
 4172 001c D4000000 		.4byte	.LFE2-.LFB2
 4173 0020 00000000 		.4byte	.LFB0
 4174 0024 24000000 		.4byte	.LFE0-.LFB0
 4175 0028 00000000 		.4byte	.LFB3
 4176 002c 4C000000 		.4byte	.LFE3-.LFB3
 4177 0030 00000000 		.4byte	.LFB5
 4178 0034 20000000 		.4byte	.LFE5-.LFB5
 4179 0038 00000000 		.4byte	.LFB6
 4180 003c 0C000000 		.4byte	.LFE6-.LFB6
 4181 0040 00000000 		.4byte	.LFB7
 4182 0044 20000000 		.4byte	.LFE7-.LFB7
 4183 0048 00000000 		.4byte	.LFB8
 4184 004c 0C000000 		.4byte	.LFE8-.LFB8
 4185 0050 00000000 		.4byte	.LFB9
 4186 0054 14000000 		.4byte	.LFE9-.LFB9
 4187 0058 00000000 		.4byte	.LFB10
 4188 005c 28000000 		.4byte	.LFE10-.LFB10
 4189 0060 00000000 		.4byte	.LFB11
 4190 0064 78000000 		.4byte	.LFE11-.LFB11
 4191 0068 00000000 		.4byte	.LFB12
 4192 006c 40000000 		.4byte	.LFE12-.LFB12
 4193 0070 00000000 		.4byte	.LFB4
 4194 0074 C0000000 		.4byte	.LFE4-.LFB4
 4195 0078 00000000 		.4byte	.LFB13
 4196 007c 04010000 		.4byte	.LFE13-.LFB13
 4197 0080 00000000 		.4byte	.LFB14
 4198 0084 B0000000 		.4byte	.LFE14-.LFB14
 4199 0088 00000000 		.4byte	.LFB15
 4200 008c 2C000000 		.4byte	.LFE15-.LFB15
 4201 0090 00000000 		.4byte	.LFB16
 4202 0094 18000000 		.4byte	.LFE16-.LFB16
 4203 0098 00000000 		.4byte	.LFB17
 4204 009c 0C000000 		.4byte	.LFE17-.LFB17
 4205 00a0 00000000 		.4byte	.LFB18
 4206 00a4 20000000 		.4byte	.LFE18-.LFB18
 4207 00a8 00000000 		.4byte	.LFB19
 4208 00ac 20000000 		.4byte	.LFE19-.LFB19
 4209 00b0 00000000 		.4byte	.LFB20
 4210 00b4 18000000 		.4byte	.LFE20-.LFB20
 4211 00b8 00000000 		.4byte	.LFB21
 4212 00bc 10000000 		.4byte	.LFE21-.LFB21
 4213 00c0 00000000 		.4byte	.LFB22
 4214 00c4 10000000 		.4byte	.LFE22-.LFB22
 4215 00c8 00000000 		.4byte	.LFB23
 4216 00cc 10000000 		.4byte	.LFE23-.LFB23
 4217 00d0 00000000 		.4byte	0
 4218 00d4 00000000 		.4byte	0
 4219              		.section	.debug_ranges,"",%progbits
 4220              	.Ldebug_ranges0:
 4221 0000 00000000 		.4byte	.LFB1
 4222 0004 68010000 		.4byte	.LFE1
 4223 0008 00000000 		.4byte	.LFB2
 4224 000c D4000000 		.4byte	.LFE2
 4225 0010 00000000 		.4byte	.LFB0
ARM GAS  C:\Users\ingan\AppData\Local\Temp\ccMtFi7x.s 			page 120


 4226 0014 24000000 		.4byte	.LFE0
 4227 0018 00000000 		.4byte	.LFB3
 4228 001c 4C000000 		.4byte	.LFE3
 4229 0020 00000000 		.4byte	.LFB5
 4230 0024 20000000 		.4byte	.LFE5
 4231 0028 00000000 		.4byte	.LFB6
 4232 002c 0C000000 		.4byte	.LFE6
 4233 0030 00000000 		.4byte	.LFB7
 4234 0034 20000000 		.4byte	.LFE7
 4235 0038 00000000 		.4byte	.LFB8
 4236 003c 0C000000 		.4byte	.LFE8
 4237 0040 00000000 		.4byte	.LFB9
 4238 0044 14000000 		.4byte	.LFE9
 4239 0048 00000000 		.4byte	.LFB10
 4240 004c 28000000 		.4byte	.LFE10
 4241 0050 00000000 		.4byte	.LFB11
 4242 0054 78000000 		.4byte	.LFE11
 4243 0058 00000000 		.4byte	.LFB12
 4244 005c 40000000 		.4byte	.LFE12
 4245 0060 00000000 		.4byte	.LFB4
 4246 0064 C0000000 		.4byte	.LFE4
 4247 0068 00000000 		.4byte	.LFB13
 4248 006c 04010000 		.4byte	.LFE13
 4249 0070 00000000 		.4byte	.LFB14
 4250 0074 B0000000 		.4byte	.LFE14
 4251 0078 00000000 		.4byte	.LFB15
 4252 007c 2C000000 		.4byte	.LFE15
 4253 0080 00000000 		.4byte	.LFB16
 4254 0084 18000000 		.4byte	.LFE16
 4255 0088 00000000 		.4byte	.LFB17
 4256 008c 0C000000 		.4byte	.LFE17
 4257 0090 00000000 		.4byte	.LFB18
 4258 0094 20000000 		.4byte	.LFE18
 4259 0098 00000000 		.4byte	.LFB19
 4260 009c 20000000 		.4byte	.LFE19
 4261 00a0 00000000 		.4byte	.LFB20
 4262 00a4 18000000 		.4byte	.LFE20
 4263 00a8 00000000 		.4byte	.LFB21
 4264 00ac 10000000 		.4byte	.LFE21
 4265 00b0 00000000 		.4byte	.LFB22
 4266 00b4 10000000 		.4byte	.LFE22
 4267 00b8 00000000 		.4byte	.LFB23
 4268 00bc 10000000 		.4byte	.LFE23
 4269 00c0 00000000 		.4byte	0
 4270 00c4 00000000 		.4byte	0
 4271              		.section	.debug_line,"",%progbits
 4272              	.Ldebug_line0:
 4273 0000 77030000 		.section	.debug_str,"MS",%progbits,1
 4273      0200C800 
 4273      00000201 
 4273      FB0E0D00 
 4273      01010101 
 4274              	.LASF105:
 4275 0000 4379446D 		.ascii	"CyDmaTdAllocate\000"
 4275      61546441 
 4275      6C6C6F63 
 4275      61746500 
ARM GAS  C:\Users\ingan\AppData\Local\Temp\ccMtFi7x.s 			page 121


 4276              	.LASF22:
 4277 0010 6570546F 		.ascii	"epToggle\000"
 4277      67676C65 
 4277      00
 4278              	.LASF57:
 4279 0019 696E7465 		.ascii	"interfaceNumber\000"
 4279      72666163 
 4279      654E756D 
 4279      62657200 
 4280              	.LASF77:
 4281 0029 72657375 		.ascii	"result\000"
 4281      6C7400
 4282              	.LASF61:
 4283 0030 636E7472 		.ascii	"cntr\000"
 4283      00
 4284              	.LASF55:
 4285 0035 55534255 		.ascii	"USBUART_IsConfigurationChanged\000"
 4285      4152545F 
 4285      4973436F 
 4285      6E666967 
 4285      75726174 
 4286              	.LASF110:
 4287 0054 4379446D 		.ascii	"CyDmaTdSetAddress\000"
 4287      61546453 
 4287      65744164 
 4287      64726573 
 4287      7300
 4288              	.LASF86:
 4289 0066 55534255 		.ascii	"USBUART_configuration\000"
 4289      4152545F 
 4289      636F6E66 
 4289      69677572 
 4289      6174696F 
 4290              	.LASF93:
 4291 007c 55534255 		.ascii	"USBUART_DmaChan\000"
 4291      4152545F 
 4291      446D6143 
 4291      68616E00 
 4292              	.LASF88:
 4293 008c 55534255 		.ascii	"USBUART_deviceStatus\000"
 4293      4152545F 
 4293      64657669 
 4293      63655374 
 4293      61747573 
 4294              	.LASF98:
 4295 00a1 43794578 		.ascii	"CyExitCriticalSection\000"
 4295      69744372 
 4295      69746963 
 4295      616C5365 
 4295      6374696F 
 4296              	.LASF63:
 4297 00b7 70446174 		.ascii	"pData\000"
 4297      6100
 4298              	.LASF34:
 4299 00bd 6570496E 		.ascii	"epIntEn\000"
 4299      74456E00 
 4300              	.LASF2:
ARM GAS  C:\Users\ingan\AppData\Local\Temp\ccMtFi7x.s 			page 122


 4301 00c5 73686F72 		.ascii	"short int\000"
 4301      7420696E 
 4301      7400
 4302              	.LASF109:
 4303 00cf 4379446D 		.ascii	"CyDmaTdSetConfiguration\000"
 4303      61546453 
 4303      6574436F 
 4303      6E666967 
 4303      75726174 
 4304              	.LASF18:
 4305 00e7 73697A65 		.ascii	"sizetype\000"
 4305      74797065 
 4305      00
 4306              	.LASF46:
 4307 00f0 55534255 		.ascii	"USBUART_arb_eps_struct\000"
 4307      4152545F 
 4307      6172625F 
 4307      6570735F 
 4307      73747275 
 4308              	.LASF24:
 4309 0107 65704D6F 		.ascii	"epMode\000"
 4309      646500
 4310              	.LASF45:
 4311 010e 61726245 		.ascii	"arbEp\000"
 4311      7000
 4312              	.LASF71:
 4313 0114 55534255 		.ascii	"USBUART_Force\000"
 4313      4152545F 
 4313      466F7263 
 4313      6500
 4314              	.LASF75:
 4315 0122 706F7765 		.ascii	"powerStatus\000"
 4315      72537461 
 4315      74757300 
 4316              	.LASF17:
 4317 012e 6C6F6E67 		.ascii	"long double\000"
 4317      20646F75 
 4317      626C6500 
 4318              	.LASF76:
 4319 013a 55534255 		.ascii	"USBUART_RWUEnabled\000"
 4319      4152545F 
 4319      52575545 
 4319      6E61626C 
 4319      656400
 4320              	.LASF51:
 4321 014d 6D6F6465 		.ascii	"mode\000"
 4321      00
 4322              	.LASF104:
 4323 0152 55534255 		.ascii	"USBUART_ep3_DmaInitialize\000"
 4323      4152545F 
 4323      6570335F 
 4323      446D6149 
 4323      6E697469 
 4324              	.LASF44:
 4325 016c 55534255 		.ascii	"USBUART_sie_eps_struct\000"
 4325      4152545F 
 4325      7369655F 
ARM GAS  C:\Users\ingan\AppData\Local\Temp\ccMtFi7x.s 			page 123


 4325      6570735F 
 4325      73747275 
 4326              	.LASF81:
 4327 0183 55534255 		.ascii	"USBUART_EnableSofInt\000"
 4327      4152545F 
 4327      456E6162 
 4327      6C65536F 
 4327      66496E74 
 4328              	.LASF52:
 4329 0198 55534255 		.ascii	"USBUART_Start\000"
 4329      4152545F 
 4329      53746172 
 4329      7400
 4330              	.LASF90:
 4331 01a6 55534255 		.ascii	"USBUART_interfaceSetting\000"
 4331      4152545F 
 4331      696E7465 
 4331      72666163 
 4331      65536574 
 4332              	.LASF111:
 4333 01bf 4379446D 		.ascii	"CyDmaChSetInitialTd\000"
 4333      61436853 
 4333      6574496E 
 4333      69746961 
 4333      6C546400 
 4334              	.LASF10:
 4335 01d3 75696E74 		.ascii	"uint16\000"
 4335      313600
 4336              	.LASF39:
 4337 01da 72775261 		.ascii	"rwRa\000"
 4337      00
 4338              	.LASF74:
 4339 01df 55534255 		.ascii	"USBUART_SetPowerStatus\000"
 4339      4152545F 
 4339      53657450 
 4339      6F776572 
 4339      53746174 
 4340              	.LASF32:
 4341 01f6 55534255 		.ascii	"USBUART_sie_ep_struct\000"
 4341      4152545F 
 4341      7369655F 
 4341      65705F73 
 4341      74727563 
 4342              	.LASF99:
 4343 020c 4379496E 		.ascii	"CyIntSetPriority\000"
 4343      74536574 
 4343      5072696F 
 4343      72697479 
 4343      00
 4344              	.LASF43:
 4345 021d 73696545 		.ascii	"sieEp\000"
 4345      7000
 4346              	.LASF85:
 4347 0223 55534255 		.ascii	"USBUART_transferState\000"
 4347      4152545F 
 4347      7472616E 
 4347      73666572 
ARM GAS  C:\Users\ingan\AppData\Local\Temp\ccMtFi7x.s 			page 124


 4347      53746174 
 4348              	.LASF0:
 4349 0239 7369676E 		.ascii	"signed char\000"
 4349      65642063 
 4349      68617200 
 4350              	.LASF67:
 4351 0245 6C656E67 		.ascii	"length\000"
 4351      746800
 4352              	.LASF50:
 4353 024c 64657669 		.ascii	"device\000"
 4353      636500
 4354              	.LASF12:
 4355 0253 666C6F61 		.ascii	"float\000"
 4355      7400
 4356              	.LASF78:
 4357 0259 55534255 		.ascii	"USBUART_GetConfiguration\000"
 4357      4152545F 
 4357      47657443 
 4357      6F6E6669 
 4357      67757261 
 4358              	.LASF69:
 4359 0272 55534255 		.ascii	"USBUART_EnableOutEP\000"
 4359      4152545F 
 4359      456E6162 
 4359      6C654F75 
 4359      74455000 
 4360              	.LASF82:
 4361 0286 55534255 		.ascii	"USBUART_DisableSofInt\000"
 4361      4152545F 
 4361      44697361 
 4361      626C6553 
 4361      6F66496E 
 4362              	.LASF6:
 4363 029c 6C6F6E67 		.ascii	"long long int\000"
 4363      206C6F6E 
 4363      6720696E 
 4363      7400
 4364              	.LASF87:
 4365 02aa 55534255 		.ascii	"USBUART_configurationChanged\000"
 4365      4152545F 
 4365      636F6E66 
 4365      69677572 
 4365      6174696F 
 4366              	.LASF31:
 4367 02c7 65704372 		.ascii	"epCr0\000"
 4367      3000
 4368              	.LASF62:
 4369 02cd 55534255 		.ascii	"USBUART_InitEP_DMA\000"
 4369      4152545F 
 4369      496E6974 
 4369      45505F44 
 4369      4D4100
 4370              	.LASF33:
 4371 02e0 65704366 		.ascii	"epCfg\000"
 4371      6700
 4372              	.LASF114:
 4373 02e6 47656E65 		.ascii	"Generated_Source\\PSoC5\\USBUART.c\000"
ARM GAS  C:\Users\ingan\AppData\Local\Temp\ccMtFi7x.s 			page 125


 4373      72617465 
 4373      645F536F 
 4373      75726365 
 4373      5C50536F 
 4374              	.LASF84:
 4375 0307 55534255 		.ascii	"USBUART_device\000"
 4375      4152545F 
 4375      64657669 
 4375      636500
 4376              	.LASF68:
 4377 0316 55534255 		.ascii	"USBUART_ReadOutEP\000"
 4377      4152545F 
 4377      52656164 
 4377      4F757445 
 4377      5000
 4378              	.LASF1:
 4379 0328 756E7369 		.ascii	"unsigned char\000"
 4379      676E6564 
 4379      20636861 
 4379      7200
 4380              	.LASF73:
 4381 0336 55534255 		.ascii	"USBUART_GetEPAckState\000"
 4381      4152545F 
 4381      47657445 
 4381      5041636B 
 4381      53746174 
 4382              	.LASF91:
 4383 034c 55534255 		.ascii	"USBUART_deviceAddress\000"
 4383      4152545F 
 4383      64657669 
 4383      63654164 
 4383      64726573 
 4384              	.LASF25:
 4385 0362 62756666 		.ascii	"buffOffset\000"
 4385      4F666673 
 4385      657400
 4386              	.LASF19:
 4387 036d 61747472 		.ascii	"attrib\000"
 4387      696200
 4388              	.LASF97:
 4389 0374 43794465 		.ascii	"CyDelayUs\000"
 4389      6C617955 
 4389      7300
 4390              	.LASF64:
 4391 037e 55534255 		.ascii	"USBUART_Stop_DMA\000"
 4391      4152545F 
 4391      53746F70 
 4391      5F444D41 
 4391      00
 4392              	.LASF38:
 4393 038f 72775761 		.ascii	"rwWaMsb\000"
 4393      4D736200 
 4394              	.LASF35:
 4395 0397 65705372 		.ascii	"epSr\000"
 4395      00
 4396              	.LASF48:
 4397 039c 55534255 		.ascii	"USBUART_Init\000"
ARM GAS  C:\Users\ingan\AppData\Local\Temp\ccMtFi7x.s 			page 126


 4397      4152545F 
 4397      496E6974 
 4397      00
 4398              	.LASF80:
 4399 03a9 55534255 		.ascii	"USBUART_ReInitComponent\000"
 4399      4152545F 
 4399      5265496E 
 4399      6974436F 
 4399      6D706F6E 
 4400              	.LASF7:
 4401 03c1 6C6F6E67 		.ascii	"long long unsigned int\000"
 4401      206C6F6E 
 4401      6720756E 
 4401      7369676E 
 4401      65642069 
 4402              	.LASF42:
 4403 03d8 55534255 		.ascii	"USBUART_arb_ep_struct\000"
 4403      4152545F 
 4403      6172625F 
 4403      65705F73 
 4403      74727563 
 4404              	.LASF8:
 4405 03ee 756E7369 		.ascii	"unsigned int\000"
 4405      676E6564 
 4405      20696E74 
 4405      00
 4406              	.LASF41:
 4407 03fb 72774472 		.ascii	"rwDr\000"
 4407      00
 4408              	.LASF37:
 4409 0400 72775761 		.ascii	"rwWa\000"
 4409      00
 4410              	.LASF106:
 4411 0405 4379446D 		.ascii	"CyDmaChDisable\000"
 4411      61436844 
 4411      69736162 
 4411      6C6500
 4412              	.LASF16:
 4413 0414 72656733 		.ascii	"reg32\000"
 4413      3200
 4414              	.LASF95:
 4415 041a 55534255 		.ascii	"USBUART_lastPacketSize\000"
 4415      4152545F 
 4415      6C617374 
 4415      5061636B 
 4415      65745369 
 4416              	.LASF3:
 4417 0431 73686F72 		.ascii	"short unsigned int\000"
 4417      7420756E 
 4417      7369676E 
 4417      65642069 
 4417      6E7400
 4418              	.LASF40:
 4419 0444 72775261 		.ascii	"rwRaMsb\000"
 4419      4D736200 
 4420              	.LASF107:
 4421 044c 4379446D 		.ascii	"CyDmaTdFree\000"
ARM GAS  C:\Users\ingan\AppData\Local\Temp\ccMtFi7x.s 			page 127


 4421      61546446 
 4421      72656500 
 4422              	.LASF66:
 4423 0458 55534255 		.ascii	"USBUART_LoadInEP\000"
 4423      4152545F 
 4423      4C6F6164 
 4423      496E4550 
 4423      00
 4424              	.LASF14:
 4425 0469 63686172 		.ascii	"char\000"
 4425      00
 4426              	.LASF4:
 4427 046e 6C6F6E67 		.ascii	"long int\000"
 4427      20696E74 
 4427      00
 4428              	.LASF58:
 4429 0477 55534255 		.ascii	"USBUART_GetEPState\000"
 4429      4152545F 
 4429      47657445 
 4429      50537461 
 4429      746500
 4430              	.LASF59:
 4431 048a 65704E75 		.ascii	"epNumber\000"
 4431      6D626572 
 4431      00
 4432              	.LASF83:
 4433 0493 55534255 		.ascii	"USBUART_initVar\000"
 4433      4152545F 
 4433      696E6974 
 4433      56617200 
 4434              	.LASF102:
 4435 04a3 55534255 		.ascii	"USBUART_ep1_DmaInitialize\000"
 4435      4152545F 
 4435      6570315F 
 4435      446D6149 
 4435      6E697469 
 4436              	.LASF23:
 4437 04bd 61646472 		.ascii	"addr\000"
 4437      00
 4438              	.LASF29:
 4439 04c2 6570436E 		.ascii	"epCnt0\000"
 4439      743000
 4440              	.LASF9:
 4441 04c9 75696E74 		.ascii	"uint8\000"
 4441      3800
 4442              	.LASF53:
 4443 04cf 63723152 		.ascii	"cr1Reg\000"
 4443      656700
 4444              	.LASF30:
 4445 04d6 6570436E 		.ascii	"epCnt1\000"
 4445      743100
 4446              	.LASF21:
 4447 04dd 68774570 		.ascii	"hwEpState\000"
 4447      53746174 
 4447      6500
 4448              	.LASF115:
 4449 04e7 433A5C55 		.ascii	"C:\\Users\\ingan\\Documents\\PSoC Creator\\MegaDriv"
ARM GAS  C:\Users\ingan\AppData\Local\Temp\ccMtFi7x.s 			page 128


 4449      73657273 
 4449      5C696E67 
 4449      616E5C44 
 4449      6F63756D 
 4450 0515 655F706C 		.ascii	"e_player\\VGMPlayer_v0.3.cydsn\000"
 4450      61796572 
 4450      5C56474D 
 4450      506C6179 
 4450      65725F76 
 4451              	.LASF11:
 4452 0533 75696E74 		.ascii	"uint32\000"
 4452      333200
 4453              	.LASF15:
 4454 053a 72656738 		.ascii	"reg8\000"
 4454      00
 4455              	.LASF5:
 4456 053f 6C6F6E67 		.ascii	"long unsigned int\000"
 4456      20756E73 
 4456      69676E65 
 4456      6420696E 
 4456      7400
 4457              	.LASF13:
 4458 0551 646F7562 		.ascii	"double\000"
 4458      6C6500
 4459              	.LASF79:
 4460 0558 55534255 		.ascii	"USBUART_GetDeviceAddress\000"
 4460      4152545F 
 4460      47657444 
 4460      65766963 
 4460      65416464 
 4461              	.LASF56:
 4462 0571 55534255 		.ascii	"USBUART_GetInterfaceSetting\000"
 4462      4152545F 
 4462      47657449 
 4462      6E746572 
 4462      66616365 
 4463              	.LASF20:
 4464 058d 61706945 		.ascii	"apiEpState\000"
 4464      70537461 
 4464      746500
 4465              	.LASF108:
 4466 0598 55534255 		.ascii	"USBUART_Dp_ClearInterrupt\000"
 4466      4152545F 
 4466      44705F43 
 4466      6C656172 
 4466      496E7465 
 4467              	.LASF26:
 4468 05b2 62756666 		.ascii	"bufferSize\000"
 4468      65725369 
 4468      7A6500
 4469              	.LASF101:
 4470 05bd 43794465 		.ascii	"CyDelayCycles\000"
 4470      6C617943 
 4470      79636C65 
 4470      7300
 4471              	.LASF49:
 4472 05cb 55534255 		.ascii	"USBUART_InitComponent\000"
ARM GAS  C:\Users\ingan\AppData\Local\Temp\ccMtFi7x.s 			page 129


 4472      4152545F 
 4472      496E6974 
 4472      436F6D70 
 4472      6F6E656E 
 4473              	.LASF28:
 4474 05e1 545F5553 		.ascii	"T_USBUART_EP_CTL_BLOCK\000"
 4474      42554152 
 4474      545F4550 
 4474      5F43544C 
 4474      5F424C4F 
 4475              	.LASF100:
 4476 05f8 4379496E 		.ascii	"CyIntSetVector\000"
 4476      74536574 
 4476      56656374 
 4476      6F7200
 4477              	.LASF54:
 4478 0607 55534255 		.ascii	"USBUART_CheckActivity\000"
 4478      4152545F 
 4478      43686563 
 4478      6B416374 
 4478      69766974 
 4479              	.LASF60:
 4480 061d 55534255 		.ascii	"USBUART_GetEPCount\000"
 4480      4152545F 
 4480      47657445 
 4480      50436F75 
 4480      6E7400
 4481              	.LASF96:
 4482 0630 4379456E 		.ascii	"CyEnterCriticalSection\000"
 4482      74657243 
 4482      72697469 
 4482      63616C53 
 4482      65637469 
 4483              	.LASF89:
 4484 0647 55534255 		.ascii	"USBUART_interfaceNumber\000"
 4484      4152545F 
 4484      696E7465 
 4484      72666163 
 4484      654E756D 
 4485              	.LASF103:
 4486 065f 55534255 		.ascii	"USBUART_ep2_DmaInitialize\000"
 4486      4152545F 
 4486      6570325F 
 4486      446D6149 
 4486      6E697469 
 4487              	.LASF112:
 4488 0679 4379446D 		.ascii	"CyDmaChEnable\000"
 4488      61436845 
 4488      6E61626C 
 4488      6500
 4489              	.LASF113:
 4490 0687 474E5520 		.ascii	"GNU C11 5.4.1 20160609 (release) [ARM/embedded-5-br"
 4490      43313120 
 4490      352E342E 
 4490      31203230 
 4490      31363036 
 4491 06ba 616E6368 		.ascii	"anch revision 237715] -mcpu=cortex-m3 -mthumb -g -O"
ARM GAS  C:\Users\ingan\AppData\Local\Temp\ccMtFi7x.s 			page 130


 4491      20726576 
 4491      6973696F 
 4491      6E203233 
 4491      37373135 
 4492 06ed 67202D66 		.ascii	"g -ffunction-sections -ffat-lto-objects\000"
 4492      66756E63 
 4492      74696F6E 
 4492      2D736563 
 4492      74696F6E 
 4493              	.LASF36:
 4494 0715 72657365 		.ascii	"reserved\000"
 4494      72766564 
 4494      00
 4495              	.LASF27:
 4496 071e 696E7465 		.ascii	"interface\000"
 4496      72666163 
 4496      6500
 4497              	.LASF72:
 4498 0728 62537461 		.ascii	"bState\000"
 4498      746500
 4499              	.LASF47:
 4500 072f 656E6162 		.ascii	"enableInterrupts\000"
 4500      6C65496E 
 4500      74657272 
 4500      75707473 
 4500      00
 4501              	.LASF70:
 4502 0740 55534255 		.ascii	"USBUART_DisableOutEP\000"
 4502      4152545F 
 4502      44697361 
 4502      626C654F 
 4502      75744550 
 4503              	.LASF92:
 4504 0755 55534255 		.ascii	"USBUART_EP\000"
 4504      4152545F 
 4504      455000
 4505              	.LASF65:
 4506 0760 55534255 		.ascii	"USBUART_Stop\000"
 4506      4152545F 
 4506      53746F70 
 4506      00
 4507              	.LASF94:
 4508 076d 55534255 		.ascii	"USBUART_DmaTd\000"
 4508      4152545F 
 4508      446D6154 
 4508      6400
 4509              		.ident	"GCC: (GNU Tools for ARM Embedded Processors) 5.4.1 20160609 (release) [ARM/embedded-5-bran
