ARM GAS  C:\Users\ingan\AppData\Local\Temp\ccFcxzYO.s 			page 1


   1              		.syntax unified
   2              		.cpu cortex-m3
   3              		.fpu softvfp
   4              		.eabi_attribute 20, 1
   5              		.eabi_attribute 21, 1
   6              		.eabi_attribute 23, 3
   7              		.eabi_attribute 24, 1
   8              		.eabi_attribute 25, 1
   9              		.eabi_attribute 26, 1
  10              		.eabi_attribute 30, 6
  11              		.eabi_attribute 34, 1
  12              		.eabi_attribute 18, 4
  13              		.thumb
  14              		.syntax unified
  15              		.file	"tty_utils.c"
  16              		.text
  17              	.Ltext0:
  18              		.cfi_sections	.debug_frame
  19              		.comm	rx_buf,128,4
  20              		.global	rx_write_index
  21              		.bss
  22              		.align	2
  23              		.type	rx_write_index, %object
  24              		.size	rx_write_index, 4
  25              	rx_write_index:
  26 0000 00000000 		.space	4
  27              		.global	rx_read_index
  28              		.align	2
  29              		.type	rx_read_index, %object
  30              		.size	rx_read_index, 4
  31              	rx_read_index:
  32 0004 00000000 		.space	4
  33              		.global	str_buf_index
  34              		.align	2
  35              		.type	str_buf_index, %object
  36              		.size	str_buf_index, 4
  37              	str_buf_index:
  38 0008 00000000 		.space	4
  39              		.comm	str,65,4
  40              		.section	.text.is_delimiter,"ax",%progbits
  41              		.align	2
  42              		.thumb
  43              		.thumb_func
  44              		.type	is_delimiter, %function
  45              	is_delimiter:
  46              	.LFB64:
  47              		.file 1 "tty_utils.c"
   1:tty_utils.c   **** /*  tty_utils has had traditional UART implimentation with
   2:tty_utils.c   **** *   tty_rx_isr connected to the UART interrupt output port
   3:tty_utils.c   **** *   Now all commented out. 
   4:tty_utils.c   **** *
   5:tty_utils.c   **** *   Do NOT remove the UART code commented out.
   6:tty_utils.c   **** */
   7:tty_utils.c   **** #include "project.h"
   8:tty_utils.c   **** #include "stdio.h"
   9:tty_utils.c   **** #include "tty_utils.h"
  10:tty_utils.c   **** #include "usb_uart.h"
ARM GAS  C:\Users\ingan\AppData\Local\Temp\ccFcxzYO.s 			page 2


  11:tty_utils.c   **** 
  12:tty_utils.c   **** #define TAB   '\t'
  13:tty_utils.c   **** #define SPACE ' ' 
  14:tty_utils.c   **** #define CR    '\r'
  15:tty_utils.c   **** #define LF    '\n'
  16:tty_utils.c   **** #define BS    '\b'
  17:tty_utils.c   **** 
  18:tty_utils.c   **** #define RX_BUF_LEN  128
  19:tty_utils.c   **** 
  20:tty_utils.c   **** volatile char rx_buf[RX_BUF_LEN] ;
  21:tty_utils.c   **** volatile int  rx_write_index = 0 ;
  22:tty_utils.c   **** int           rx_read_index  = 0 ;
  23:tty_utils.c   **** int           str_buf_index  = 0 ;
  24:tty_utils.c   **** char          str[STR_BUF_LEN + 1] ;
  25:tty_utils.c   **** 
  26:tty_utils.c   **** static inline int is_delimiter(char c)
  27:tty_utils.c   **** {
  48              		.loc 1 27 0
  49              		.cfi_startproc
  50              		@ args = 0, pretend = 0, frame = 8
  51              		@ frame_needed = 1, uses_anonymous_args = 0
  52              		@ link register save eliminated.
  53 0000 80B4     		push	{r7}
  54              		.cfi_def_cfa_offset 4
  55              		.cfi_offset 7, -4
  56 0002 83B0     		sub	sp, sp, #12
  57              		.cfi_def_cfa_offset 16
  58 0004 00AF     		add	r7, sp, #0
  59              		.cfi_def_cfa_register 7
  60 0006 0346     		mov	r3, r0
  61 0008 FB71     		strb	r3, [r7, #7]
  28:tty_utils.c   ****     return((c == TAB)||(c == SPACE)||(c == CR)||(c == LF)) ;
  62              		.loc 1 28 0
  63 000a FB79     		ldrb	r3, [r7, #7]	@ zero_extendqisi2
  64 000c 092B     		cmp	r3, #9
  65 000e 08D0     		beq	.L2
  66              		.loc 1 28 0 is_stmt 0 discriminator 2
  67 0010 FB79     		ldrb	r3, [r7, #7]	@ zero_extendqisi2
  68 0012 202B     		cmp	r3, #32
  69 0014 05D0     		beq	.L2
  70              		.loc 1 28 0 discriminator 4
  71 0016 FB79     		ldrb	r3, [r7, #7]	@ zero_extendqisi2
  72 0018 0D2B     		cmp	r3, #13
  73 001a 02D0     		beq	.L2
  74              		.loc 1 28 0 discriminator 6
  75 001c FB79     		ldrb	r3, [r7, #7]	@ zero_extendqisi2
  76 001e 0A2B     		cmp	r3, #10
  77 0020 01D1     		bne	.L3
  78              	.L2:
  79              		.loc 1 28 0 discriminator 7
  80 0022 0123     		movs	r3, #1
  81 0024 00E0     		b	.L4
  82              	.L3:
  83              		.loc 1 28 0 discriminator 8
  84 0026 0023     		movs	r3, #0
  85              	.L4:
  29:tty_utils.c   **** }
ARM GAS  C:\Users\ingan\AppData\Local\Temp\ccFcxzYO.s 			page 3


  86              		.loc 1 29 0 is_stmt 1 discriminator 10
  87 0028 1846     		mov	r0, r3
  88 002a 0C37     		adds	r7, r7, #12
  89              		.cfi_def_cfa_offset 4
  90 002c BD46     		mov	sp, r7
  91              		.cfi_def_cfa_register 13
  92              		@ sp needed
  93 002e 80BC     		pop	{r7}
  94              		.cfi_restore 7
  95              		.cfi_def_cfa_offset 0
  96 0030 7047     		bx	lr
  97              		.cfi_endproc
  98              	.LFE64:
  99              		.size	is_delimiter, .-is_delimiter
 100 0032 00BF     		.section	.text.is_eol,"ax",%progbits
 101              		.align	2
 102              		.thumb
 103              		.thumb_func
 104              		.type	is_eol, %function
 105              	is_eol:
 106              	.LFB65:
  30:tty_utils.c   **** 
  31:tty_utils.c   **** static inline int is_eol(char c)
  32:tty_utils.c   **** {
 107              		.loc 1 32 0
 108              		.cfi_startproc
 109              		@ args = 0, pretend = 0, frame = 8
 110              		@ frame_needed = 1, uses_anonymous_args = 0
 111              		@ link register save eliminated.
 112 0000 80B4     		push	{r7}
 113              		.cfi_def_cfa_offset 4
 114              		.cfi_offset 7, -4
 115 0002 83B0     		sub	sp, sp, #12
 116              		.cfi_def_cfa_offset 16
 117 0004 00AF     		add	r7, sp, #0
 118              		.cfi_def_cfa_register 7
 119 0006 0346     		mov	r3, r0
 120 0008 FB71     		strb	r3, [r7, #7]
  33:tty_utils.c   ****     return((c == CR) || (c == LF)) ;
 121              		.loc 1 33 0
 122 000a FB79     		ldrb	r3, [r7, #7]	@ zero_extendqisi2
 123 000c 0D2B     		cmp	r3, #13
 124 000e 02D0     		beq	.L7
 125              		.loc 1 33 0 is_stmt 0 discriminator 2
 126 0010 FB79     		ldrb	r3, [r7, #7]	@ zero_extendqisi2
 127 0012 0A2B     		cmp	r3, #10
 128 0014 01D1     		bne	.L8
 129              	.L7:
 130              		.loc 1 33 0 discriminator 3
 131 0016 0123     		movs	r3, #1
 132 0018 00E0     		b	.L9
 133              	.L8:
 134              		.loc 1 33 0 discriminator 4
 135 001a 0023     		movs	r3, #0
 136              	.L9:
  34:tty_utils.c   **** }
 137              		.loc 1 34 0 is_stmt 1 discriminator 6
ARM GAS  C:\Users\ingan\AppData\Local\Temp\ccFcxzYO.s 			page 4


 138 001c 1846     		mov	r0, r3
 139 001e 0C37     		adds	r7, r7, #12
 140              		.cfi_def_cfa_offset 4
 141 0020 BD46     		mov	sp, r7
 142              		.cfi_def_cfa_register 13
 143              		@ sp needed
 144 0022 80BC     		pop	{r7}
 145              		.cfi_restore 7
 146              		.cfi_def_cfa_offset 0
 147 0024 7047     		bx	lr
 148              		.cfi_endproc
 149              	.LFE65:
 150              		.size	is_eol, .-is_eol
 151 0026 00BF     		.section	.text.is_backspace,"ax",%progbits
 152              		.align	2
 153              		.thumb
 154              		.thumb_func
 155              		.type	is_backspace, %function
 156              	is_backspace:
 157              	.LFB66:
  35:tty_utils.c   **** 
  36:tty_utils.c   **** static inline int is_backspace(char c)
  37:tty_utils.c   **** {
 158              		.loc 1 37 0
 159              		.cfi_startproc
 160              		@ args = 0, pretend = 0, frame = 8
 161              		@ frame_needed = 1, uses_anonymous_args = 0
 162              		@ link register save eliminated.
 163 0000 80B4     		push	{r7}
 164              		.cfi_def_cfa_offset 4
 165              		.cfi_offset 7, -4
 166 0002 83B0     		sub	sp, sp, #12
 167              		.cfi_def_cfa_offset 16
 168 0004 00AF     		add	r7, sp, #0
 169              		.cfi_def_cfa_register 7
 170 0006 0346     		mov	r3, r0
 171 0008 FB71     		strb	r3, [r7, #7]
  38:tty_utils.c   ****     return(c == BS) ;
 172              		.loc 1 38 0
 173 000a FB79     		ldrb	r3, [r7, #7]	@ zero_extendqisi2
 174 000c 082B     		cmp	r3, #8
 175 000e 0CBF     		ite	eq
 176 0010 0123     		moveq	r3, #1
 177 0012 0023     		movne	r3, #0
 178 0014 DBB2     		uxtb	r3, r3
  39:tty_utils.c   **** }
 179              		.loc 1 39 0
 180 0016 1846     		mov	r0, r3
 181 0018 0C37     		adds	r7, r7, #12
 182              		.cfi_def_cfa_offset 4
 183 001a BD46     		mov	sp, r7
 184              		.cfi_def_cfa_register 13
 185              		@ sp needed
 186 001c 80BC     		pop	{r7}
 187              		.cfi_restore 7
 188              		.cfi_def_cfa_offset 0
 189 001e 7047     		bx	lr
ARM GAS  C:\Users\ingan\AppData\Local\Temp\ccFcxzYO.s 			page 5


 190              		.cfi_endproc
 191              	.LFE66:
 192              		.size	is_backspace, .-is_backspace
 193              		.section	.text.print,"ax",%progbits
 194              		.align	2
 195              		.global	print
 196              		.thumb
 197              		.thumb_func
 198              		.type	print, %function
 199              	print:
 200              	.LFB67:
  40:tty_utils.c   **** 
  41:tty_utils.c   **** void print(char *str)
  42:tty_utils.c   **** {
 201              		.loc 1 42 0
 202              		.cfi_startproc
 203              		@ args = 0, pretend = 0, frame = 8
 204              		@ frame_needed = 1, uses_anonymous_args = 0
 205 0000 80B5     		push	{r7, lr}
 206              		.cfi_def_cfa_offset 8
 207              		.cfi_offset 7, -8
 208              		.cfi_offset 14, -4
 209 0002 82B0     		sub	sp, sp, #8
 210              		.cfi_def_cfa_offset 16
 211 0004 00AF     		add	r7, sp, #0
 212              		.cfi_def_cfa_register 7
 213 0006 7860     		str	r0, [r7, #4]
  43:tty_utils.c   **** //    UART_PutString(str) ; /* for PSoC 5LP */
  44:tty_utils.c   ****     usbuart_putstring(str);
 214              		.loc 1 44 0
 215 0008 7868     		ldr	r0, [r7, #4]
 216 000a FFF7FEFF 		bl	usbuart_putstring
  45:tty_utils.c   **** }
 217              		.loc 1 45 0
 218 000e 00BF     		nop
 219 0010 0837     		adds	r7, r7, #8
 220              		.cfi_def_cfa_offset 8
 221 0012 BD46     		mov	sp, r7
 222              		.cfi_def_cfa_register 13
 223              		@ sp needed
 224 0014 80BD     		pop	{r7, pc}
 225              		.cfi_endproc
 226              	.LFE67:
 227              		.size	print, .-print
 228 0016 00BF     		.section	.text.printc,"ax",%progbits
 229              		.align	2
 230              		.global	printc
 231              		.thumb
 232              		.thumb_func
 233              		.type	printc, %function
 234              	printc:
 235              	.LFB68:
  46:tty_utils.c   **** 
  47:tty_utils.c   **** void printc(char c)
  48:tty_utils.c   **** {
 236              		.loc 1 48 0
 237              		.cfi_startproc
ARM GAS  C:\Users\ingan\AppData\Local\Temp\ccFcxzYO.s 			page 6


 238              		@ args = 0, pretend = 0, frame = 8
 239              		@ frame_needed = 1, uses_anonymous_args = 0
 240 0000 80B5     		push	{r7, lr}
 241              		.cfi_def_cfa_offset 8
 242              		.cfi_offset 7, -8
 243              		.cfi_offset 14, -4
 244 0002 82B0     		sub	sp, sp, #8
 245              		.cfi_def_cfa_offset 16
 246 0004 00AF     		add	r7, sp, #0
 247              		.cfi_def_cfa_register 7
 248 0006 0346     		mov	r3, r0
 249 0008 FB71     		strb	r3, [r7, #7]
  49:tty_utils.c   **** //    UART_PutChar(c) ;
  50:tty_utils.c   ****     usbuart_putchar(c);
 250              		.loc 1 50 0
 251 000a FB79     		ldrb	r3, [r7, #7]	@ zero_extendqisi2
 252 000c 1846     		mov	r0, r3
 253 000e FFF7FEFF 		bl	usbuart_putchar
  51:tty_utils.c   **** }
 254              		.loc 1 51 0
 255 0012 00BF     		nop
 256 0014 0837     		adds	r7, r7, #8
 257              		.cfi_def_cfa_offset 8
 258 0016 BD46     		mov	sp, r7
 259              		.cfi_def_cfa_register 13
 260              		@ sp needed
 261 0018 80BD     		pop	{r7, pc}
 262              		.cfi_endproc
 263              	.LFE68:
 264              		.size	printc, .-printc
 265 001a 00BF     		.section	.text.print_eol,"ax",%progbits
 266              		.align	2
 267              		.global	print_eol
 268              		.thumb
 269              		.thumb_func
 270              		.type	print_eol, %function
 271              	print_eol:
 272              	.LFB69:
  52:tty_utils.c   **** 
  53:tty_utils.c   **** void print_eol(void) 
  54:tty_utils.c   **** {
 273              		.loc 1 54 0
 274              		.cfi_startproc
 275              		@ args = 0, pretend = 0, frame = 0
 276              		@ frame_needed = 1, uses_anonymous_args = 0
 277 0000 80B5     		push	{r7, lr}
 278              		.cfi_def_cfa_offset 8
 279              		.cfi_offset 7, -8
 280              		.cfi_offset 14, -4
 281 0002 00AF     		add	r7, sp, #0
 282              		.cfi_def_cfa_register 7
  55:tty_utils.c   **** //    UART_PutChar(CR) ;
  56:tty_utils.c   **** //    UART_PutChar(LF) ;
  57:tty_utils.c   ****     usbuart_puteol();
 283              		.loc 1 57 0
 284 0004 FFF7FEFF 		bl	usbuart_puteol
  58:tty_utils.c   **** }
ARM GAS  C:\Users\ingan\AppData\Local\Temp\ccFcxzYO.s 			page 7


 285              		.loc 1 58 0
 286 0008 00BF     		nop
 287 000a 80BD     		pop	{r7, pc}
 288              		.cfi_endproc
 289              	.LFE69:
 290              		.size	print_eol, .-print_eol
 291              		.section	.text.tty_rx_isr,"ax",%progbits
 292              		.align	2
 293              		.global	tty_rx_isr
 294              		.thumb
 295              		.thumb_func
 296              		.type	tty_rx_isr, %function
 297              	tty_rx_isr:
 298              	.LFB70:
  59:tty_utils.c   **** 
  60:tty_utils.c   **** CY_ISR(tty_rx_isr)
  61:tty_utils.c   **** {
 299              		.loc 1 61 0
 300              		.cfi_startproc
 301              		@ args = 0, pretend = 0, frame = 0
 302              		@ frame_needed = 1, uses_anonymous_args = 0
 303              		@ link register save eliminated.
 304 0000 80B4     		push	{r7}
 305              		.cfi_def_cfa_offset 4
 306              		.cfi_offset 7, -4
 307 0002 00AF     		add	r7, sp, #0
 308              		.cfi_def_cfa_register 7
  62:tty_utils.c   **** //    if (UART_GetRxBufferSize()) {
  63:tty_utils.c   **** //        rx_buf[rx_write_index] = UART_GetByte() ;
  64:tty_utils.c   **** //        rx_write_index = (rx_write_index + 1) % RX_BUF_LEN ;
  65:tty_utils.c   **** //    }
  66:tty_utils.c   **** //    tty_rx_int_ClearPending() ;
  67:tty_utils.c   **** }
 309              		.loc 1 67 0
 310 0004 00BF     		nop
 311 0006 BD46     		mov	sp, r7
 312              		.cfi_def_cfa_register 13
 313              		@ sp needed
 314 0008 80BC     		pop	{r7}
 315              		.cfi_restore 7
 316              		.cfi_def_cfa_offset 0
 317 000a 7047     		bx	lr
 318              		.cfi_endproc
 319              	.LFE70:
 320              		.size	tty_rx_isr, .-tty_rx_isr
 321              		.section	.text.println,"ax",%progbits
 322              		.align	2
 323              		.global	println
 324              		.thumb
 325              		.thumb_func
 326              		.type	println, %function
 327              	println:
 328              	.LFB71:
  68:tty_utils.c   **** 
  69:tty_utils.c   **** void println(char *str) 
  70:tty_utils.c   **** {
 329              		.loc 1 70 0
ARM GAS  C:\Users\ingan\AppData\Local\Temp\ccFcxzYO.s 			page 8


 330              		.cfi_startproc
 331              		@ args = 0, pretend = 0, frame = 8
 332              		@ frame_needed = 1, uses_anonymous_args = 0
 333 0000 80B5     		push	{r7, lr}
 334              		.cfi_def_cfa_offset 8
 335              		.cfi_offset 7, -8
 336              		.cfi_offset 14, -4
 337 0002 82B0     		sub	sp, sp, #8
 338              		.cfi_def_cfa_offset 16
 339 0004 00AF     		add	r7, sp, #0
 340              		.cfi_def_cfa_register 7
 341 0006 7860     		str	r0, [r7, #4]
  71:tty_utils.c   **** //    UART_PutString(str) ;
  72:tty_utils.c   ****     usbuart_putstring(str);
 342              		.loc 1 72 0
 343 0008 7868     		ldr	r0, [r7, #4]
 344 000a FFF7FEFF 		bl	usbuart_putstring
  73:tty_utils.c   ****     print_eol() ;
 345              		.loc 1 73 0
 346 000e FFF7FEFF 		bl	print_eol
  74:tty_utils.c   **** }
 347              		.loc 1 74 0
 348 0012 00BF     		nop
 349 0014 0837     		adds	r7, r7, #8
 350              		.cfi_def_cfa_offset 8
 351 0016 BD46     		mov	sp, r7
 352              		.cfi_def_cfa_register 13
 353              		@ sp needed
 354 0018 80BD     		pop	{r7, pc}
 355              		.cfi_endproc
 356              	.LFE71:
 357              		.size	println, .-println
 358 001a 00BF     		.section	.rodata
 359              		.align	2
 360              	.LC0:
 361 0000 1B6300   		.ascii	"\033c\000"
 362 0003 00       		.align	2
 363              	.LC1:
 364 0004 1B5B324A 		.ascii	"\033[2J\000"
 364      00
 365              		.section	.text.cls,"ax",%progbits
 366              		.align	2
 367              		.global	cls
 368              		.thumb
 369              		.thumb_func
 370              		.type	cls, %function
 371              	cls:
 372              	.LFB72:
  75:tty_utils.c   **** 
  76:tty_utils.c   **** void cls(void)
  77:tty_utils.c   **** {
 373              		.loc 1 77 0
 374              		.cfi_startproc
 375              		@ args = 0, pretend = 0, frame = 0
 376              		@ frame_needed = 1, uses_anonymous_args = 0
 377 0000 80B5     		push	{r7, lr}
 378              		.cfi_def_cfa_offset 8
ARM GAS  C:\Users\ingan\AppData\Local\Temp\ccFcxzYO.s 			page 9


 379              		.cfi_offset 7, -8
 380              		.cfi_offset 14, -4
 381 0002 00AF     		add	r7, sp, #0
 382              		.cfi_def_cfa_register 7
  78:tty_utils.c   ****     print("\033c") ; /* reset */
 383              		.loc 1 78 0
 384 0004 0648     		ldr	r0, .L19
 385 0006 FFF7FEFF 		bl	print
  79:tty_utils.c   ****     CyDelay(20) ;
 386              		.loc 1 79 0
 387 000a 1420     		movs	r0, #20
 388 000c FFF7FEFF 		bl	CyDelay
  80:tty_utils.c   ****     print("\033[2J") ; /* clear screen */
 389              		.loc 1 80 0
 390 0010 0448     		ldr	r0, .L19+4
 391 0012 FFF7FEFF 		bl	print
  81:tty_utils.c   ****     CyDelay(20) ;
 392              		.loc 1 81 0
 393 0016 1420     		movs	r0, #20
 394 0018 FFF7FEFF 		bl	CyDelay
  82:tty_utils.c   **** }
 395              		.loc 1 82 0
 396 001c 00BF     		nop
 397 001e 80BD     		pop	{r7, pc}
 398              	.L20:
 399              		.align	2
 400              	.L19:
 401 0020 00000000 		.word	.LC0
 402 0024 04000000 		.word	.LC1
 403              		.cfi_endproc
 404              	.LFE72:
 405              		.size	cls, .-cls
 406              		.section	.rodata
 407 0009 000000   		.align	2
 408              	.LC2:
 409 000c 202800   		.ascii	" (\000"
 410 000f 00       		.align	2
 411              	.LC3:
 412 0010 4A616E20 		.ascii	"Jan  2 2024\000"
 412      20322032 
 412      30323400 
 413              		.align	2
 414              	.LC4:
 415 001c 2000     		.ascii	" \000"
 416 001e 0000     		.align	2
 417              	.LC5:
 418 0020 31313A35 		.ascii	"11:52:55\000"
 418      323A3535 
 418      00
 419 0029 000000   		.align	2
 420              	.LC6:
 421 002c 290A00   		.ascii	")\012\000"
 422              		.section	.text.splash,"ax",%progbits
 423              		.align	2
 424              		.global	splash
 425              		.thumb
 426              		.thumb_func
ARM GAS  C:\Users\ingan\AppData\Local\Temp\ccFcxzYO.s 			page 10


 427              		.type	splash, %function
 428              	splash:
 429              	.LFB73:
  83:tty_utils.c   **** 
  84:tty_utils.c   **** void splash(char *prog_name) 
  85:tty_utils.c   **** {
 430              		.loc 1 85 0
 431              		.cfi_startproc
 432              		@ args = 0, pretend = 0, frame = 8
 433              		@ frame_needed = 1, uses_anonymous_args = 0
 434 0000 80B5     		push	{r7, lr}
 435              		.cfi_def_cfa_offset 8
 436              		.cfi_offset 7, -8
 437              		.cfi_offset 14, -4
 438 0002 82B0     		sub	sp, sp, #8
 439              		.cfi_def_cfa_offset 16
 440 0004 00AF     		add	r7, sp, #0
 441              		.cfi_def_cfa_register 7
 442 0006 7860     		str	r0, [r7, #4]
  86:tty_utils.c   ****     cls() ;
 443              		.loc 1 86 0
 444 0008 FFF7FEFF 		bl	cls
  87:tty_utils.c   ****     if (prog_name && *prog_name) {
 445              		.loc 1 87 0
 446 000c 7B68     		ldr	r3, [r7, #4]
 447 000e 002B     		cmp	r3, #0
 448 0010 06D0     		beq	.L22
 449              		.loc 1 87 0 is_stmt 0 discriminator 1
 450 0012 7B68     		ldr	r3, [r7, #4]
 451 0014 1B78     		ldrb	r3, [r3]	@ zero_extendqisi2
 452 0016 002B     		cmp	r3, #0
 453 0018 02D0     		beq	.L22
  88:tty_utils.c   ****         print(prog_name) ;
 454              		.loc 1 88 0 is_stmt 1
 455 001a 7868     		ldr	r0, [r7, #4]
 456 001c FFF7FEFF 		bl	print
 457              	.L22:
  89:tty_utils.c   ****     } 
  90:tty_utils.c   ****     print(" (") ;
 458              		.loc 1 90 0
 459 0020 0A48     		ldr	r0, .L23
 460 0022 FFF7FEFF 		bl	print
  91:tty_utils.c   ****     print(__DATE__) ;
 461              		.loc 1 91 0
 462 0026 0A48     		ldr	r0, .L23+4
 463 0028 FFF7FEFF 		bl	print
  92:tty_utils.c   ****     print(" ") ;
 464              		.loc 1 92 0
 465 002c 0948     		ldr	r0, .L23+8
 466 002e FFF7FEFF 		bl	print
  93:tty_utils.c   ****     print(__TIME__) ;
 467              		.loc 1 93 0
 468 0032 0948     		ldr	r0, .L23+12
 469 0034 FFF7FEFF 		bl	print
  94:tty_utils.c   ****     print(")\n") ;
 470              		.loc 1 94 0
 471 0038 0848     		ldr	r0, .L23+16
ARM GAS  C:\Users\ingan\AppData\Local\Temp\ccFcxzYO.s 			page 11


 472 003a FFF7FEFF 		bl	print
  95:tty_utils.c   ****     print_eol();
 473              		.loc 1 95 0
 474 003e FFF7FEFF 		bl	print_eol
  96:tty_utils.c   **** }
 475              		.loc 1 96 0
 476 0042 00BF     		nop
 477 0044 0837     		adds	r7, r7, #8
 478              		.cfi_def_cfa_offset 8
 479 0046 BD46     		mov	sp, r7
 480              		.cfi_def_cfa_register 13
 481              		@ sp needed
 482 0048 80BD     		pop	{r7, pc}
 483              	.L24:
 484 004a 00BF     		.align	2
 485              	.L23:
 486 004c 0C000000 		.word	.LC2
 487 0050 10000000 		.word	.LC3
 488 0054 1C000000 		.word	.LC4
 489 0058 20000000 		.word	.LC5
 490 005c 2C000000 		.word	.LC6
 491              		.cfi_endproc
 492              	.LFE73:
 493              		.size	splash, .-splash
 494              		.section	.rodata
 495 002f 00       		.align	2
 496              	.LC7:
 497 0030 3E2000   		.ascii	"> \000"
 498              		.section	.text.prompt,"ax",%progbits
 499              		.align	2
 500              		.global	prompt
 501              		.thumb
 502              		.thumb_func
 503              		.type	prompt, %function
 504              	prompt:
 505              	.LFB74:
  97:tty_utils.c   **** 
  98:tty_utils.c   **** void prompt(char *str)
  99:tty_utils.c   **** {
 506              		.loc 1 99 0
 507              		.cfi_startproc
 508              		@ args = 0, pretend = 0, frame = 8
 509              		@ frame_needed = 1, uses_anonymous_args = 0
 510 0000 80B5     		push	{r7, lr}
 511              		.cfi_def_cfa_offset 8
 512              		.cfi_offset 7, -8
 513              		.cfi_offset 14, -4
 514 0002 82B0     		sub	sp, sp, #8
 515              		.cfi_def_cfa_offset 16
 516 0004 00AF     		add	r7, sp, #0
 517              		.cfi_def_cfa_register 7
 518 0006 7860     		str	r0, [r7, #4]
 100:tty_utils.c   ****     if (str && *str) {
 519              		.loc 1 100 0
 520 0008 7B68     		ldr	r3, [r7, #4]
 521 000a 002B     		cmp	r3, #0
 522 000c 07D0     		beq	.L26
ARM GAS  C:\Users\ingan\AppData\Local\Temp\ccFcxzYO.s 			page 12


 523              		.loc 1 100 0 is_stmt 0 discriminator 1
 524 000e 7B68     		ldr	r3, [r7, #4]
 525 0010 1B78     		ldrb	r3, [r3]	@ zero_extendqisi2
 526 0012 002B     		cmp	r3, #0
 527 0014 03D0     		beq	.L26
 101:tty_utils.c   ****         print(str) ;
 528              		.loc 1 101 0 is_stmt 1
 529 0016 7868     		ldr	r0, [r7, #4]
 530 0018 FFF7FEFF 		bl	print
 531 001c 02E0     		b	.L27
 532              	.L26:
 102:tty_utils.c   ****     } else {
 103:tty_utils.c   ****         print("> ") ;
 533              		.loc 1 103 0
 534 001e 0348     		ldr	r0, .L28
 535 0020 FFF7FEFF 		bl	print
 536              	.L27:
 104:tty_utils.c   ****     }
 105:tty_utils.c   **** }
 537              		.loc 1 105 0
 538 0024 00BF     		nop
 539 0026 0837     		adds	r7, r7, #8
 540              		.cfi_def_cfa_offset 8
 541 0028 BD46     		mov	sp, r7
 542              		.cfi_def_cfa_register 13
 543              		@ sp needed
 544 002a 80BD     		pop	{r7, pc}
 545              	.L29:
 546              		.align	2
 547              	.L28:
 548 002c 30000000 		.word	.LC7
 549              		.cfi_endproc
 550              	.LFE74:
 551              		.size	prompt, .-prompt
 552              		.section	.text.tty_init,"ax",%progbits
 553              		.align	2
 554              		.global	tty_init
 555              		.thumb
 556              		.thumb_func
 557              		.type	tty_init, %function
 558              	tty_init:
 559              	.LFB75:
 106:tty_utils.c   **** 
 107:tty_utils.c   **** void tty_init(void)
 108:tty_utils.c   **** {
 560              		.loc 1 108 0
 561              		.cfi_startproc
 562              		@ args = 0, pretend = 0, frame = 0
 563              		@ frame_needed = 1, uses_anonymous_args = 0
 564 0000 80B5     		push	{r7, lr}
 565              		.cfi_def_cfa_offset 8
 566              		.cfi_offset 7, -8
 567              		.cfi_offset 14, -4
 568 0002 00AF     		add	r7, sp, #0
 569              		.cfi_def_cfa_register 7
 109:tty_utils.c   **** //    tty_rx_int_ClearPending() ;
 110:tty_utils.c   **** //    tty_rx_int_StartEx(tty_rx_isr) ;
ARM GAS  C:\Users\ingan\AppData\Local\Temp\ccFcxzYO.s 			page 13


 111:tty_utils.c   **** //    UART_Start() ;
 112:tty_utils.c   ****     usbuart_init();
 570              		.loc 1 112 0
 571 0004 FFF7FEFF 		bl	usbuart_init
 113:tty_utils.c   **** }
 572              		.loc 1 113 0
 573 0008 00BF     		nop
 574 000a 80BD     		pop	{r7, pc}
 575              		.cfi_endproc
 576              	.LFE75:
 577              		.size	tty_init, .-tty_init
 578              		.section	.rodata
 579 0033 00       		.align	2
 580              	.LC8:
 581 0034 08200800 		.ascii	"\010 \010\000"
 582              		.section	.text.get_string,"ax",%progbits
 583              		.align	2
 584              		.global	get_string
 585              		.thumb
 586              		.thumb_func
 587              		.type	get_string, %function
 588              	get_string:
 589              	.LFB76:
 114:tty_utils.c   **** 
 115:tty_utils.c   **** int get_string(void)
 116:tty_utils.c   **** {
 590              		.loc 1 116 0
 591              		.cfi_startproc
 592              		@ args = 0, pretend = 0, frame = 8
 593              		@ frame_needed = 1, uses_anonymous_args = 0
 594 0000 80B5     		push	{r7, lr}
 595              		.cfi_def_cfa_offset 8
 596              		.cfi_offset 7, -8
 597              		.cfi_offset 14, -4
 598 0002 82B0     		sub	sp, sp, #8
 599              		.cfi_def_cfa_offset 16
 600 0004 00AF     		add	r7, sp, #0
 601              		.cfi_def_cfa_register 7
 117:tty_utils.c   ****     int result = 0 ;
 602              		.loc 1 117 0
 603 0006 0023     		movs	r3, #0
 604 0008 7B60     		str	r3, [r7, #4]
 118:tty_utils.c   ****     uint8_t c ;
 119:tty_utils.c   ****     
 120:tty_utils.c   ****     if (rx_read_index != rx_write_index) {
 605              		.loc 1 120 0
 606 000a 344B     		ldr	r3, .L39
 607 000c 1A68     		ldr	r2, [r3]
 608 000e 344B     		ldr	r3, .L39+4
 609 0010 1B68     		ldr	r3, [r3]
 610 0012 9A42     		cmp	r2, r3
 611 0014 5CD0     		beq	.L32
 121:tty_utils.c   ****         c = rx_buf[rx_read_index] ;
 612              		.loc 1 121 0
 613 0016 314B     		ldr	r3, .L39
 614 0018 1B68     		ldr	r3, [r3]
 615 001a 324A     		ldr	r2, .L39+8
ARM GAS  C:\Users\ingan\AppData\Local\Temp\ccFcxzYO.s 			page 14


 616 001c D35C     		ldrb	r3, [r2, r3]
 617 001e FB70     		strb	r3, [r7, #3]
 122:tty_utils.c   ****         if (is_delimiter(c)) {
 618              		.loc 1 122 0
 619 0020 FB78     		ldrb	r3, [r7, #3]	@ zero_extendqisi2
 620 0022 1846     		mov	r0, r3
 621 0024 FFF7FEFF 		bl	is_delimiter
 622 0028 0346     		mov	r3, r0
 623 002a 002B     		cmp	r3, #0
 624 002c 0FD0     		beq	.L33
 123:tty_utils.c   ****             printc(c) ;
 625              		.loc 1 123 0
 626 002e FB78     		ldrb	r3, [r7, #3]	@ zero_extendqisi2
 627 0030 1846     		mov	r0, r3
 628 0032 FFF7FEFF 		bl	printc
 124:tty_utils.c   ****             str[str_buf_index] = (char)NULL ;
 629              		.loc 1 124 0
 630 0036 2C4B     		ldr	r3, .L39+12
 631 0038 1B68     		ldr	r3, [r3]
 632 003a 2C4A     		ldr	r2, .L39+16
 633 003c 0021     		movs	r1, #0
 634 003e D154     		strb	r1, [r2, r3]
 125:tty_utils.c   ****             result = str_buf_index ;
 635              		.loc 1 125 0
 636 0040 294B     		ldr	r3, .L39+12
 637 0042 1B68     		ldr	r3, [r3]
 638 0044 7B60     		str	r3, [r7, #4]
 126:tty_utils.c   ****             str_buf_index = 0 ;
 639              		.loc 1 126 0
 640 0046 284B     		ldr	r3, .L39+12
 641 0048 0022     		movs	r2, #0
 642 004a 1A60     		str	r2, [r3]
 643 004c 32E0     		b	.L34
 644              	.L33:
 127:tty_utils.c   ****         } else if (is_backspace(c)) {
 645              		.loc 1 127 0
 646 004e FB78     		ldrb	r3, [r7, #3]	@ zero_extendqisi2
 647 0050 1846     		mov	r0, r3
 648 0052 FFF7FEFF 		bl	is_backspace
 649 0056 0346     		mov	r3, r0
 650 0058 002B     		cmp	r3, #0
 651 005a 11D0     		beq	.L35
 128:tty_utils.c   ****             if (str_buf_index > 0) {
 652              		.loc 1 128 0
 653 005c 224B     		ldr	r3, .L39+12
 654 005e 1B68     		ldr	r3, [r3]
 655 0060 002B     		cmp	r3, #0
 656 0062 27DD     		ble	.L34
 129:tty_utils.c   ****                 str_buf_index-- ;
 657              		.loc 1 129 0
 658 0064 204B     		ldr	r3, .L39+12
 659 0066 1B68     		ldr	r3, [r3]
 660 0068 013B     		subs	r3, r3, #1
 661 006a 1F4A     		ldr	r2, .L39+12
 662 006c 1360     		str	r3, [r2]
 130:tty_utils.c   ****                 str[str_buf_index] = 0 ;
 663              		.loc 1 130 0
ARM GAS  C:\Users\ingan\AppData\Local\Temp\ccFcxzYO.s 			page 15


 664 006e 1E4B     		ldr	r3, .L39+12
 665 0070 1B68     		ldr	r3, [r3]
 666 0072 1E4A     		ldr	r2, .L39+16
 667 0074 0021     		movs	r1, #0
 668 0076 D154     		strb	r1, [r2, r3]
 131:tty_utils.c   ****                 print("\b \b") ; // BS, SPACE, BS               
 669              		.loc 1 131 0
 670 0078 1D48     		ldr	r0, .L39+20
 671 007a FFF7FEFF 		bl	print
 672 007e 19E0     		b	.L34
 673              	.L35:
 132:tty_utils.c   ****             }
 133:tty_utils.c   ****         } else {
 134:tty_utils.c   ****             printc(c) ;
 674              		.loc 1 134 0
 675 0080 FB78     		ldrb	r3, [r7, #3]	@ zero_extendqisi2
 676 0082 1846     		mov	r0, r3
 677 0084 FFF7FEFF 		bl	printc
 135:tty_utils.c   ****             str[str_buf_index++] = c ;
 678              		.loc 1 135 0
 679 0088 174B     		ldr	r3, .L39+12
 680 008a 1B68     		ldr	r3, [r3]
 681 008c 5A1C     		adds	r2, r3, #1
 682 008e 1649     		ldr	r1, .L39+12
 683 0090 0A60     		str	r2, [r1]
 684 0092 1649     		ldr	r1, .L39+16
 685 0094 FA78     		ldrb	r2, [r7, #3]
 686 0096 CA54     		strb	r2, [r1, r3]
 136:tty_utils.c   ****             if (str_buf_index >= STR_BUF_LEN) {
 687              		.loc 1 136 0
 688 0098 134B     		ldr	r3, .L39+12
 689 009a 1B68     		ldr	r3, [r3]
 690 009c 3F2B     		cmp	r3, #63
 691 009e 09DD     		ble	.L34
 137:tty_utils.c   ****                 str[STR_BUF_LEN] = (char)NULL ;
 692              		.loc 1 137 0
 693 00a0 124B     		ldr	r3, .L39+16
 694 00a2 0022     		movs	r2, #0
 695 00a4 83F84020 		strb	r2, [r3, #64]
 138:tty_utils.c   ****                 str_buf_index = 0 ;
 696              		.loc 1 138 0
 697 00a8 0F4B     		ldr	r3, .L39+12
 698 00aa 0022     		movs	r2, #0
 699 00ac 1A60     		str	r2, [r3]
 139:tty_utils.c   ****                 result = -1 ; /* str buf overflow */
 700              		.loc 1 139 0
 701 00ae 4FF0FF33 		mov	r3, #-1
 702 00b2 7B60     		str	r3, [r7, #4]
 703              	.L34:
 140:tty_utils.c   ****             }
 141:tty_utils.c   ****         }
 142:tty_utils.c   ****         rx_read_index = (rx_read_index + 1) % RX_BUF_LEN ;
 704              		.loc 1 142 0
 705 00b4 094B     		ldr	r3, .L39
 706 00b6 1B68     		ldr	r3, [r3]
 707 00b8 5A1C     		adds	r2, r3, #1
 708 00ba 0E4B     		ldr	r3, .L39+24
ARM GAS  C:\Users\ingan\AppData\Local\Temp\ccFcxzYO.s 			page 16


 709 00bc 1340     		ands	r3, r3, r2
 710 00be 002B     		cmp	r3, #0
 711 00c0 03DA     		bge	.L37
 712 00c2 013B     		subs	r3, r3, #1
 713 00c4 63F07F03 		orn	r3, r3, #127
 714 00c8 0133     		adds	r3, r3, #1
 715              	.L37:
 716 00ca 1A46     		mov	r2, r3
 717 00cc 034B     		ldr	r3, .L39
 718 00ce 1A60     		str	r2, [r3]
 719              	.L32:
 143:tty_utils.c   ****     }
 144:tty_utils.c   ****     return( result ) ;
 720              		.loc 1 144 0
 721 00d0 7B68     		ldr	r3, [r7, #4]
 145:tty_utils.c   **** }
 722              		.loc 1 145 0
 723 00d2 1846     		mov	r0, r3
 724 00d4 0837     		adds	r7, r7, #8
 725              		.cfi_def_cfa_offset 8
 726 00d6 BD46     		mov	sp, r7
 727              		.cfi_def_cfa_register 13
 728              		@ sp needed
 729 00d8 80BD     		pop	{r7, pc}
 730              	.L40:
 731 00da 00BF     		.align	2
 732              	.L39:
 733 00dc 00000000 		.word	rx_read_index
 734 00e0 00000000 		.word	rx_write_index
 735 00e4 00000000 		.word	rx_buf
 736 00e8 00000000 		.word	str_buf_index
 737 00ec 00000000 		.word	str
 738 00f0 34000000 		.word	.LC8
 739 00f4 7F000080 		.word	-2147483521
 740              		.cfi_endproc
 741              	.LFE76:
 742              		.size	get_string, .-get_string
 743              		.section	.text.get_line,"ax",%progbits
 744              		.align	2
 745              		.global	get_line
 746              		.thumb
 747              		.thumb_func
 748              		.type	get_line, %function
 749              	get_line:
 750              	.LFB77:
 146:tty_utils.c   **** 
 147:tty_utils.c   **** int get_line(void)
 148:tty_utils.c   **** {
 751              		.loc 1 148 0
 752              		.cfi_startproc
 753              		@ args = 0, pretend = 0, frame = 8
 754              		@ frame_needed = 1, uses_anonymous_args = 0
 755 0000 80B5     		push	{r7, lr}
 756              		.cfi_def_cfa_offset 8
 757              		.cfi_offset 7, -8
 758              		.cfi_offset 14, -4
 759 0002 82B0     		sub	sp, sp, #8
ARM GAS  C:\Users\ingan\AppData\Local\Temp\ccFcxzYO.s 			page 17


 760              		.cfi_def_cfa_offset 16
 761 0004 00AF     		add	r7, sp, #0
 762              		.cfi_def_cfa_register 7
 149:tty_utils.c   ****     int result = 0 ;
 763              		.loc 1 149 0
 764 0006 0023     		movs	r3, #0
 765 0008 7B60     		str	r3, [r7, #4]
 150:tty_utils.c   ****     uint8_t c ;
 151:tty_utils.c   ****     
 152:tty_utils.c   ****     if (rx_read_index != rx_write_index) {
 766              		.loc 1 152 0
 767 000a 344B     		ldr	r3, .L49
 768 000c 1A68     		ldr	r2, [r3]
 769 000e 344B     		ldr	r3, .L49+4
 770 0010 1B68     		ldr	r3, [r3]
 771 0012 9A42     		cmp	r2, r3
 772 0014 5CD0     		beq	.L42
 153:tty_utils.c   ****         c = rx_buf[rx_read_index] ;
 773              		.loc 1 153 0
 774 0016 314B     		ldr	r3, .L49
 775 0018 1B68     		ldr	r3, [r3]
 776 001a 324A     		ldr	r2, .L49+8
 777 001c D35C     		ldrb	r3, [r2, r3]
 778 001e FB70     		strb	r3, [r7, #3]
 154:tty_utils.c   ****         if (is_eol(c)) {
 779              		.loc 1 154 0
 780 0020 FB78     		ldrb	r3, [r7, #3]	@ zero_extendqisi2
 781 0022 1846     		mov	r0, r3
 782 0024 FFF7FEFF 		bl	is_eol
 783 0028 0346     		mov	r3, r0
 784 002a 002B     		cmp	r3, #0
 785 002c 0FD0     		beq	.L43
 155:tty_utils.c   ****             printc(c) ;
 786              		.loc 1 155 0
 787 002e FB78     		ldrb	r3, [r7, #3]	@ zero_extendqisi2
 788 0030 1846     		mov	r0, r3
 789 0032 FFF7FEFF 		bl	printc
 156:tty_utils.c   ****             str[str_buf_index] = (char)NULL ;
 790              		.loc 1 156 0
 791 0036 2C4B     		ldr	r3, .L49+12
 792 0038 1B68     		ldr	r3, [r3]
 793 003a 2C4A     		ldr	r2, .L49+16
 794 003c 0021     		movs	r1, #0
 795 003e D154     		strb	r1, [r2, r3]
 157:tty_utils.c   ****             result = str_buf_index ;
 796              		.loc 1 157 0
 797 0040 294B     		ldr	r3, .L49+12
 798 0042 1B68     		ldr	r3, [r3]
 799 0044 7B60     		str	r3, [r7, #4]
 158:tty_utils.c   ****             str_buf_index = 0 ;
 800              		.loc 1 158 0
 801 0046 284B     		ldr	r3, .L49+12
 802 0048 0022     		movs	r2, #0
 803 004a 1A60     		str	r2, [r3]
 804 004c 32E0     		b	.L44
 805              	.L43:
 159:tty_utils.c   ****         } else if (is_backspace(c)) {
ARM GAS  C:\Users\ingan\AppData\Local\Temp\ccFcxzYO.s 			page 18


 806              		.loc 1 159 0
 807 004e FB78     		ldrb	r3, [r7, #3]	@ zero_extendqisi2
 808 0050 1846     		mov	r0, r3
 809 0052 FFF7FEFF 		bl	is_backspace
 810 0056 0346     		mov	r3, r0
 811 0058 002B     		cmp	r3, #0
 812 005a 11D0     		beq	.L45
 160:tty_utils.c   ****             if (str_buf_index > 0) {
 813              		.loc 1 160 0
 814 005c 224B     		ldr	r3, .L49+12
 815 005e 1B68     		ldr	r3, [r3]
 816 0060 002B     		cmp	r3, #0
 817 0062 27DD     		ble	.L44
 161:tty_utils.c   ****                 str_buf_index-- ;
 818              		.loc 1 161 0
 819 0064 204B     		ldr	r3, .L49+12
 820 0066 1B68     		ldr	r3, [r3]
 821 0068 013B     		subs	r3, r3, #1
 822 006a 1F4A     		ldr	r2, .L49+12
 823 006c 1360     		str	r3, [r2]
 162:tty_utils.c   ****                 str[str_buf_index] = 0 ;
 824              		.loc 1 162 0
 825 006e 1E4B     		ldr	r3, .L49+12
 826 0070 1B68     		ldr	r3, [r3]
 827 0072 1E4A     		ldr	r2, .L49+16
 828 0074 0021     		movs	r1, #0
 829 0076 D154     		strb	r1, [r2, r3]
 163:tty_utils.c   ****                 print("\b \b") ;
 830              		.loc 1 163 0
 831 0078 1D48     		ldr	r0, .L49+20
 832 007a FFF7FEFF 		bl	print
 833 007e 19E0     		b	.L44
 834              	.L45:
 164:tty_utils.c   ****             }
 165:tty_utils.c   ****         } else {
 166:tty_utils.c   ****             printc(c) ;
 835              		.loc 1 166 0
 836 0080 FB78     		ldrb	r3, [r7, #3]	@ zero_extendqisi2
 837 0082 1846     		mov	r0, r3
 838 0084 FFF7FEFF 		bl	printc
 167:tty_utils.c   ****             str[str_buf_index++] = c ;
 839              		.loc 1 167 0
 840 0088 174B     		ldr	r3, .L49+12
 841 008a 1B68     		ldr	r3, [r3]
 842 008c 5A1C     		adds	r2, r3, #1
 843 008e 1649     		ldr	r1, .L49+12
 844 0090 0A60     		str	r2, [r1]
 845 0092 1649     		ldr	r1, .L49+16
 846 0094 FA78     		ldrb	r2, [r7, #3]
 847 0096 CA54     		strb	r2, [r1, r3]
 168:tty_utils.c   ****             if (str_buf_index >= STR_BUF_LEN) {
 848              		.loc 1 168 0
 849 0098 134B     		ldr	r3, .L49+12
 850 009a 1B68     		ldr	r3, [r3]
 851 009c 3F2B     		cmp	r3, #63
 852 009e 09DD     		ble	.L44
 169:tty_utils.c   ****                 str[STR_BUF_LEN] = (char)NULL ;
ARM GAS  C:\Users\ingan\AppData\Local\Temp\ccFcxzYO.s 			page 19


 853              		.loc 1 169 0
 854 00a0 124B     		ldr	r3, .L49+16
 855 00a2 0022     		movs	r2, #0
 856 00a4 83F84020 		strb	r2, [r3, #64]
 170:tty_utils.c   ****                 str_buf_index = 0 ;
 857              		.loc 1 170 0
 858 00a8 0F4B     		ldr	r3, .L49+12
 859 00aa 0022     		movs	r2, #0
 860 00ac 1A60     		str	r2, [r3]
 171:tty_utils.c   ****                 result = -1 ; /* str buf overflow */
 861              		.loc 1 171 0
 862 00ae 4FF0FF33 		mov	r3, #-1
 863 00b2 7B60     		str	r3, [r7, #4]
 864              	.L44:
 172:tty_utils.c   ****             }
 173:tty_utils.c   ****         }
 174:tty_utils.c   ****         rx_read_index = (rx_read_index + 1) % RX_BUF_LEN ;
 865              		.loc 1 174 0
 866 00b4 094B     		ldr	r3, .L49
 867 00b6 1B68     		ldr	r3, [r3]
 868 00b8 5A1C     		adds	r2, r3, #1
 869 00ba 0E4B     		ldr	r3, .L49+24
 870 00bc 1340     		ands	r3, r3, r2
 871 00be 002B     		cmp	r3, #0
 872 00c0 03DA     		bge	.L47
 873 00c2 013B     		subs	r3, r3, #1
 874 00c4 63F07F03 		orn	r3, r3, #127
 875 00c8 0133     		adds	r3, r3, #1
 876              	.L47:
 877 00ca 1A46     		mov	r2, r3
 878 00cc 034B     		ldr	r3, .L49
 879 00ce 1A60     		str	r2, [r3]
 880              	.L42:
 175:tty_utils.c   ****     }
 176:tty_utils.c   ****     return( result ) ;
 881              		.loc 1 176 0
 882 00d0 7B68     		ldr	r3, [r7, #4]
 177:tty_utils.c   **** }
 883              		.loc 1 177 0
 884 00d2 1846     		mov	r0, r3
 885 00d4 0837     		adds	r7, r7, #8
 886              		.cfi_def_cfa_offset 8
 887 00d6 BD46     		mov	sp, r7
 888              		.cfi_def_cfa_register 13
 889              		@ sp needed
 890 00d8 80BD     		pop	{r7, pc}
 891              	.L50:
 892 00da 00BF     		.align	2
 893              	.L49:
 894 00dc 00000000 		.word	rx_read_index
 895 00e0 00000000 		.word	rx_write_index
 896 00e4 00000000 		.word	rx_buf
 897 00e8 00000000 		.word	str_buf_index
 898 00ec 00000000 		.word	str
 899 00f0 34000000 		.word	.LC8
 900 00f4 7F000080 		.word	-2147483521
 901              		.cfi_endproc
ARM GAS  C:\Users\ingan\AppData\Local\Temp\ccFcxzYO.s 			page 20


 902              	.LFE77:
 903              		.size	get_line, .-get_line
 904              		.section	.text.write_to_rx_buffer,"ax",%progbits
 905              		.align	2
 906              		.global	write_to_rx_buffer
 907              		.thumb
 908              		.thumb_func
 909              		.type	write_to_rx_buffer, %function
 910              	write_to_rx_buffer:
 911              	.LFB78:
 178:tty_utils.c   **** 
 179:tty_utils.c   **** // Write to rx buffer call back function for usbuart
 180:tty_utils.c   **** void write_to_rx_buffer(uint8_t *buffer)
 181:tty_utils.c   **** {
 912              		.loc 1 181 0
 913              		.cfi_startproc
 914              		@ args = 0, pretend = 0, frame = 8
 915              		@ frame_needed = 1, uses_anonymous_args = 0
 916              		@ link register save eliminated.
 917 0000 80B4     		push	{r7}
 918              		.cfi_def_cfa_offset 4
 919              		.cfi_offset 7, -4
 920 0002 83B0     		sub	sp, sp, #12
 921              		.cfi_def_cfa_offset 16
 922 0004 00AF     		add	r7, sp, #0
 923              		.cfi_def_cfa_register 7
 924 0006 7860     		str	r0, [r7, #4]
 182:tty_utils.c   ****     rx_buf[rx_write_index] = *buffer;
 925              		.loc 1 182 0
 926 0008 0C4B     		ldr	r3, .L53
 927 000a 1B68     		ldr	r3, [r3]
 928 000c 7A68     		ldr	r2, [r7, #4]
 929 000e 1178     		ldrb	r1, [r2]	@ zero_extendqisi2
 930 0010 0B4A     		ldr	r2, .L53+4
 931 0012 D154     		strb	r1, [r2, r3]
 183:tty_utils.c   ****     rx_write_index = (rx_write_index + 1) % RX_BUF_LEN ;
 932              		.loc 1 183 0
 933 0014 094B     		ldr	r3, .L53
 934 0016 1B68     		ldr	r3, [r3]
 935 0018 5A1C     		adds	r2, r3, #1
 936 001a 0A4B     		ldr	r3, .L53+8
 937 001c 1340     		ands	r3, r3, r2
 938 001e 002B     		cmp	r3, #0
 939 0020 03DA     		bge	.L52
 940 0022 013B     		subs	r3, r3, #1
 941 0024 63F07F03 		orn	r3, r3, #127
 942 0028 0133     		adds	r3, r3, #1
 943              	.L52:
 944 002a 1A46     		mov	r2, r3
 945 002c 034B     		ldr	r3, .L53
 946 002e 1A60     		str	r2, [r3]
 184:tty_utils.c   **** }
 947              		.loc 1 184 0
 948 0030 00BF     		nop
 949 0032 0C37     		adds	r7, r7, #12
 950              		.cfi_def_cfa_offset 4
 951 0034 BD46     		mov	sp, r7
ARM GAS  C:\Users\ingan\AppData\Local\Temp\ccFcxzYO.s 			page 21


 952              		.cfi_def_cfa_register 13
 953              		@ sp needed
 954 0036 80BC     		pop	{r7}
 955              		.cfi_restore 7
 956              		.cfi_def_cfa_offset 0
 957 0038 7047     		bx	lr
 958              	.L54:
 959 003a 00BF     		.align	2
 960              	.L53:
 961 003c 00000000 		.word	rx_write_index
 962 0040 00000000 		.word	rx_buf
 963 0044 7F000080 		.word	-2147483521
 964              		.cfi_endproc
 965              	.LFE78:
 966              		.size	write_to_rx_buffer, .-write_to_rx_buffer
 967              		.text
 968              	.Letext0:
 969              		.file 2 "c:\\program files (x86)\\cypress\\psoc creator\\4.2\\psoc creator\\import\\gnu\\arm\\5.4.
 970              		.file 3 "c:\\program files (x86)\\cypress\\psoc creator\\4.2\\psoc creator\\import\\gnu\\arm\\5.4.
 971              		.file 4 "Generated_Source\\PSoC5/core_cm3.h"