ARM GAS  C:\Users\ingan\AppData\Local\Temp\ccL06Ou5.s 			page 1


   1              		.syntax unified
   2              		.cpu cortex-m3
   3              		.fpu softvfp
   4              		.eabi_attribute 20, 1
   5              		.eabi_attribute 21, 1
   6              		.eabi_attribute 23, 3
   7              		.eabi_attribute 24, 1
   8              		.eabi_attribute 25, 1
   9              		.eabi_attribute 26, 1
  10              		.eabi_attribute 30, 6
  11              		.eabi_attribute 34, 1
  12              		.eabi_attribute 18, 4
  13              		.thumb
  14              		.syntax unified
  15              		.file	"USBUART_std.c"
  16              		.text
  17              	.Ltext0:
  18              		.cfi_sections	.debug_frame
  19              		.section	.text.USBUART_HandleStandardRqst,"ax",%progbits
  20              		.align	2
  21              		.global	USBUART_HandleStandardRqst
  22              		.thumb
  23              		.thumb_func
  24              		.type	USBUART_HandleStandardRqst, %function
  25              	USBUART_HandleStandardRqst:
  26              	.LFB0:
  27              		.file 1 "Generated_Source\\PSoC5\\USBUART_std.c"
   1:Generated_Source\PSoC5/USBUART_std.c **** /***************************************************************************//**
   2:Generated_Source\PSoC5/USBUART_std.c **** * \file USBUART_std.c
   3:Generated_Source\PSoC5/USBUART_std.c **** * \version 3.20
   4:Generated_Source\PSoC5/USBUART_std.c **** *
   5:Generated_Source\PSoC5/USBUART_std.c **** * \brief
   6:Generated_Source\PSoC5/USBUART_std.c **** *  This file contains the USB Standard request handler.
   7:Generated_Source\PSoC5/USBUART_std.c **** *
   8:Generated_Source\PSoC5/USBUART_std.c **** ********************************************************************************
   9:Generated_Source\PSoC5/USBUART_std.c **** * \copyright
  10:Generated_Source\PSoC5/USBUART_std.c **** * Copyright 2008-2016, Cypress Semiconductor Corporation.  All rights reserved.
  11:Generated_Source\PSoC5/USBUART_std.c **** * You may use this file only in accordance with the license, terms, conditions,
  12:Generated_Source\PSoC5/USBUART_std.c **** * disclaimers, and limitations in the end user license agreement accompanying
  13:Generated_Source\PSoC5/USBUART_std.c **** * the software package with which this file was provided.
  14:Generated_Source\PSoC5/USBUART_std.c **** *******************************************************************************/
  15:Generated_Source\PSoC5/USBUART_std.c **** 
  16:Generated_Source\PSoC5/USBUART_std.c **** #include "USBUART_pvt.h"
  17:Generated_Source\PSoC5/USBUART_std.c **** 
  18:Generated_Source\PSoC5/USBUART_std.c **** /***************************************
  19:Generated_Source\PSoC5/USBUART_std.c **** *   Static data allocation
  20:Generated_Source\PSoC5/USBUART_std.c **** ***************************************/
  21:Generated_Source\PSoC5/USBUART_std.c **** 
  22:Generated_Source\PSoC5/USBUART_std.c **** #if defined(USBUART_ENABLE_FWSN_STRING)
  23:Generated_Source\PSoC5/USBUART_std.c ****     static volatile uint8* USBUART_fwSerialNumberStringDescriptor;
  24:Generated_Source\PSoC5/USBUART_std.c ****     static volatile uint8  USBUART_snStringConfirm = USBUART_FALSE;
  25:Generated_Source\PSoC5/USBUART_std.c **** #endif  /* (USBUART_ENABLE_FWSN_STRING) */
  26:Generated_Source\PSoC5/USBUART_std.c **** 
  27:Generated_Source\PSoC5/USBUART_std.c **** #if defined(USBUART_ENABLE_FWSN_STRING)
  28:Generated_Source\PSoC5/USBUART_std.c ****     /***************************************************************************
  29:Generated_Source\PSoC5/USBUART_std.c ****     * Function Name: USBUART_SerialNumString
  30:Generated_Source\PSoC5/USBUART_std.c ****     ************************************************************************//**
ARM GAS  C:\Users\ingan\AppData\Local\Temp\ccL06Ou5.s 			page 2


  31:Generated_Source\PSoC5/USBUART_std.c ****     *
  32:Generated_Source\PSoC5/USBUART_std.c ****     *  This function is available only when the User Call Back option in the 
  33:Generated_Source\PSoC5/USBUART_std.c ****     *  Serial Number String descriptor properties is selected. Application 
  34:Generated_Source\PSoC5/USBUART_std.c ****     *  firmware can provide the source of the USB device serial number string 
  35:Generated_Source\PSoC5/USBUART_std.c ****     *  descriptor during run time. The default string is used if the application 
  36:Generated_Source\PSoC5/USBUART_std.c ****     *  firmware does not use this function or sets the wrong string descriptor.
  37:Generated_Source\PSoC5/USBUART_std.c ****     *
  38:Generated_Source\PSoC5/USBUART_std.c ****     *  \param snString:  Pointer to the user-defined string descriptor. The 
  39:Generated_Source\PSoC5/USBUART_std.c ****     *  string descriptor should meet the Universal Serial Bus Specification 
  40:Generated_Source\PSoC5/USBUART_std.c ****     *  revision 2.0 chapter 9.6.7
  41:Generated_Source\PSoC5/USBUART_std.c ****     *  Offset|Size|Value|Description
  42:Generated_Source\PSoC5/USBUART_std.c ****     *  ------|----|------|---------------------------------
  43:Generated_Source\PSoC5/USBUART_std.c ****     *  0     |1   |N     |Size of this descriptor in bytes
  44:Generated_Source\PSoC5/USBUART_std.c ****     *  1     |1   |0x03  |STRING Descriptor Type
  45:Generated_Source\PSoC5/USBUART_std.c ****     *  2     |N-2 |Number|UNICODE encoded string
  46:Generated_Source\PSoC5/USBUART_std.c ****     *  
  47:Generated_Source\PSoC5/USBUART_std.c ****     * *For example:* uint8 snString[16]={0x0E,0x03,'F',0,'W',0,'S',0,'N',0,'0',0,'1',0};
  48:Generated_Source\PSoC5/USBUART_std.c ****     *
  49:Generated_Source\PSoC5/USBUART_std.c ****     * \reentrant
  50:Generated_Source\PSoC5/USBUART_std.c ****     *  No.
  51:Generated_Source\PSoC5/USBUART_std.c ****     *
  52:Generated_Source\PSoC5/USBUART_std.c ****     ***************************************************************************/
  53:Generated_Source\PSoC5/USBUART_std.c ****     void  USBUART_SerialNumString(uint8 snString[]) 
  54:Generated_Source\PSoC5/USBUART_std.c ****     {
  55:Generated_Source\PSoC5/USBUART_std.c ****         USBUART_snStringConfirm = USBUART_FALSE;
  56:Generated_Source\PSoC5/USBUART_std.c ****         
  57:Generated_Source\PSoC5/USBUART_std.c ****         if (snString != NULL)
  58:Generated_Source\PSoC5/USBUART_std.c ****         {
  59:Generated_Source\PSoC5/USBUART_std.c ****             /* Check descriptor validation */
  60:Generated_Source\PSoC5/USBUART_std.c ****             if ((snString[0u] > 1u) && (snString[1u] == USBUART_DESCR_STRING))
  61:Generated_Source\PSoC5/USBUART_std.c ****             {
  62:Generated_Source\PSoC5/USBUART_std.c ****                 USBUART_fwSerialNumberStringDescriptor = snString;
  63:Generated_Source\PSoC5/USBUART_std.c ****                 USBUART_snStringConfirm = USBUART_TRUE;
  64:Generated_Source\PSoC5/USBUART_std.c ****             }
  65:Generated_Source\PSoC5/USBUART_std.c ****         }
  66:Generated_Source\PSoC5/USBUART_std.c ****     }
  67:Generated_Source\PSoC5/USBUART_std.c **** #endif  /* USBUART_ENABLE_FWSN_STRING */
  68:Generated_Source\PSoC5/USBUART_std.c **** 
  69:Generated_Source\PSoC5/USBUART_std.c **** 
  70:Generated_Source\PSoC5/USBUART_std.c **** /*******************************************************************************
  71:Generated_Source\PSoC5/USBUART_std.c **** * Function Name: USBUART_HandleStandardRqst
  72:Generated_Source\PSoC5/USBUART_std.c **** ****************************************************************************//**
  73:Generated_Source\PSoC5/USBUART_std.c **** *
  74:Generated_Source\PSoC5/USBUART_std.c **** *  This Routine dispatches standard requests
  75:Generated_Source\PSoC5/USBUART_std.c **** *
  76:Generated_Source\PSoC5/USBUART_std.c **** *
  77:Generated_Source\PSoC5/USBUART_std.c **** * \return
  78:Generated_Source\PSoC5/USBUART_std.c **** *  TRUE if request handled.
  79:Generated_Source\PSoC5/USBUART_std.c **** *
  80:Generated_Source\PSoC5/USBUART_std.c **** * \reentrant
  81:Generated_Source\PSoC5/USBUART_std.c **** *  No.
  82:Generated_Source\PSoC5/USBUART_std.c **** *
  83:Generated_Source\PSoC5/USBUART_std.c **** *******************************************************************************/
  84:Generated_Source\PSoC5/USBUART_std.c **** uint8 USBUART_HandleStandardRqst(void) 
  85:Generated_Source\PSoC5/USBUART_std.c **** {
  28              		.loc 1 85 0
  29              		.cfi_startproc
ARM GAS  C:\Users\ingan\AppData\Local\Temp\ccL06Ou5.s 			page 3


  30              		@ args = 0, pretend = 0, frame = 24
  31              		@ frame_needed = 1, uses_anonymous_args = 0
  32 0000 80B5     		push	{r7, lr}
  33              		.cfi_def_cfa_offset 8
  34              		.cfi_offset 7, -8
  35              		.cfi_offset 14, -4
  36 0002 86B0     		sub	sp, sp, #24
  37              		.cfi_def_cfa_offset 32
  38 0004 00AF     		add	r7, sp, #0
  39              		.cfi_def_cfa_register 7
  86:Generated_Source\PSoC5/USBUART_std.c ****     uint8 requestHandled = USBUART_FALSE;
  40              		.loc 1 86 0
  41 0006 0023     		movs	r3, #0
  42 0008 FB75     		strb	r3, [r7, #23]
  87:Generated_Source\PSoC5/USBUART_std.c ****     uint8 interfaceNumber;
  88:Generated_Source\PSoC5/USBUART_std.c ****     uint8 configurationN;
  89:Generated_Source\PSoC5/USBUART_std.c ****     uint8 bmRequestType = USBUART_bmRequestTypeReg;
  43              		.loc 1 89 0
  44 000a B04B     		ldr	r3, .L67
  45 000c 1B78     		ldrb	r3, [r3]
  46 000e FB71     		strb	r3, [r7, #7]
  90:Generated_Source\PSoC5/USBUART_std.c **** 
  91:Generated_Source\PSoC5/USBUART_std.c **** #if defined(USBUART_ENABLE_STRINGS)
  92:Generated_Source\PSoC5/USBUART_std.c ****     volatile uint8 *pStr = 0u;
  47              		.loc 1 92 0
  48 0010 0023     		movs	r3, #0
  49 0012 3B61     		str	r3, [r7, #16]
  93:Generated_Source\PSoC5/USBUART_std.c ****     #if defined(USBUART_ENABLE_DESCRIPTOR_STRINGS)
  94:Generated_Source\PSoC5/USBUART_std.c ****         uint8 nStr;
  95:Generated_Source\PSoC5/USBUART_std.c ****         uint8 descrLength;
  96:Generated_Source\PSoC5/USBUART_std.c ****     #endif /* (USBUART_ENABLE_DESCRIPTOR_STRINGS) */
  97:Generated_Source\PSoC5/USBUART_std.c **** #endif /* (USBUART_ENABLE_STRINGS) */
  98:Generated_Source\PSoC5/USBUART_std.c ****     
  99:Generated_Source\PSoC5/USBUART_std.c ****     static volatile uint8 USBUART_tBuffer[USBUART_STATUS_LENGTH_MAX];
 100:Generated_Source\PSoC5/USBUART_std.c ****     const T_USBUART_LUT CYCODE *pTmp;
 101:Generated_Source\PSoC5/USBUART_std.c **** 
 102:Generated_Source\PSoC5/USBUART_std.c ****     USBUART_currentTD.count = 0u;
  50              		.loc 1 102 0
  51 0014 AE4B     		ldr	r3, .L67+4
  52 0016 0022     		movs	r2, #0
  53 0018 1A80     		strh	r2, [r3]	@ movhi
 103:Generated_Source\PSoC5/USBUART_std.c **** 
 104:Generated_Source\PSoC5/USBUART_std.c ****     if (USBUART_RQST_DIR_D2H == (bmRequestType & USBUART_RQST_DIR_MASK))
  54              		.loc 1 104 0
  55 001a 97F90730 		ldrsb	r3, [r7, #7]
  56 001e 002B     		cmp	r3, #0
  57 0020 80F2FD80 		bge	.L2
 105:Generated_Source\PSoC5/USBUART_std.c ****     {
 106:Generated_Source\PSoC5/USBUART_std.c ****         /* Control Read */
 107:Generated_Source\PSoC5/USBUART_std.c ****         switch (USBUART_bRequestReg)
  58              		.loc 1 107 0
  59 0024 A94B     		ldr	r3, .L67
  60 0026 5B78     		ldrb	r3, [r3, #1]
  61 0028 DBB2     		uxtb	r3, r3
  62 002a 0A2B     		cmp	r3, #10
  63 002c 00F21682 		bhi	.L56
  64 0030 01A2     		adr	r2, .L5
ARM GAS  C:\Users\ingan\AppData\Local\Temp\ccL06Ou5.s 			page 4


  65 0032 52F823F0 		ldr	pc, [r2, r3, lsl #2]
  66 0036 00BF     		.p2align 2
  67              	.L5:
  68 0038 75010000 		.word	.L4+1
  69 003c 5D040000 		.word	.L56+1
  70 0040 5D040000 		.word	.L56+1
  71 0044 5D040000 		.word	.L56+1
  72 0048 5D040000 		.word	.L56+1
  73 004c 5D040000 		.word	.L56+1
  74 0050 65000000 		.word	.L6+1
  75 0054 5D040000 		.word	.L56+1
  76 0058 E9010000 		.word	.L7+1
  77 005c 5D040000 		.word	.L56+1
  78 0060 FF010000 		.word	.L8+1
  79              		.p2align 1
  80              	.L6:
 108:Generated_Source\PSoC5/USBUART_std.c ****         {
 109:Generated_Source\PSoC5/USBUART_std.c ****             case USBUART_GET_DESCRIPTOR:
 110:Generated_Source\PSoC5/USBUART_std.c ****                 if (USBUART_DESCR_DEVICE ==USBUART_wValueHiReg)
  81              		.loc 1 110 0
  82 0064 994B     		ldr	r3, .L67
  83 0066 DB78     		ldrb	r3, [r3, #3]
  84 0068 DBB2     		uxtb	r3, r3
  85 006a 012B     		cmp	r3, #1
  86 006c 0ED1     		bne	.L9
 111:Generated_Source\PSoC5/USBUART_std.c ****                 {
 112:Generated_Source\PSoC5/USBUART_std.c ****                     pTmp = USBUART_GetDeviceTablePtr();
  87              		.loc 1 112 0
  88 006e FFF7FEFF 		bl	USBUART_GetDeviceTablePtr
  89 0072 B860     		str	r0, [r7, #8]
 113:Generated_Source\PSoC5/USBUART_std.c ****                     USBUART_currentTD.pData = (volatile uint8 *)pTmp->p_list;
  90              		.loc 1 113 0
  91 0074 BB68     		ldr	r3, [r7, #8]
  92 0076 5B68     		ldr	r3, [r3, #4]
  93 0078 954A     		ldr	r2, .L67+4
  94 007a 5360     		str	r3, [r2, #4]
 114:Generated_Source\PSoC5/USBUART_std.c ****                     USBUART_currentTD.count = USBUART_DEVICE_DESCR_LENGTH;
  95              		.loc 1 114 0
  96 007c 944B     		ldr	r3, .L67+4
  97 007e 1222     		movs	r2, #18
  98 0080 1A80     		strh	r2, [r3]	@ movhi
 115:Generated_Source\PSoC5/USBUART_std.c ****                     
 116:Generated_Source\PSoC5/USBUART_std.c ****                     requestHandled  = USBUART_InitControlRead();
  99              		.loc 1 116 0
 100 0082 FFF7FEFF 		bl	USBUART_InitControlRead
 101 0086 0346     		mov	r3, r0
 102 0088 FB75     		strb	r3, [r7, #23]
 117:Generated_Source\PSoC5/USBUART_std.c ****                 }
 118:Generated_Source\PSoC5/USBUART_std.c ****                 else if (USBUART_DESCR_CONFIG == USBUART_wValueHiReg)
 119:Generated_Source\PSoC5/USBUART_std.c ****                 {
 120:Generated_Source\PSoC5/USBUART_std.c ****                     pTmp = USBUART_GetConfigTablePtr((uint8) USBUART_wValueLoReg);
 121:Generated_Source\PSoC5/USBUART_std.c ****                     
 122:Generated_Source\PSoC5/USBUART_std.c ****                     /* Verify that requested descriptor exists */
 123:Generated_Source\PSoC5/USBUART_std.c ****                     if (pTmp != NULL)
 124:Generated_Source\PSoC5/USBUART_std.c ****                     {
 125:Generated_Source\PSoC5/USBUART_std.c ****                         USBUART_currentTD.pData = (volatile uint8 *)pTmp->p_list;
 126:Generated_Source\PSoC5/USBUART_std.c ****                         USBUART_currentTD.count = (uint16)((uint16)(USBUART_currentTD.pData)[USBUAR
ARM GAS  C:\Users\ingan\AppData\Local\Temp\ccL06Ou5.s 			page 5


 127:Generated_Source\PSoC5/USBUART_std.c ****                                                                             (USBUART_currentTD.pDat
 128:Generated_Source\PSoC5/USBUART_std.c ****                         requestHandled  = USBUART_InitControlRead();
 129:Generated_Source\PSoC5/USBUART_std.c ****                     }
 130:Generated_Source\PSoC5/USBUART_std.c ****                 }
 131:Generated_Source\PSoC5/USBUART_std.c ****                 
 132:Generated_Source\PSoC5/USBUART_std.c ****             #if(USBUART_BOS_ENABLE)
 133:Generated_Source\PSoC5/USBUART_std.c ****                 else if (USBUART_DESCR_BOS == USBUART_wValueHiReg)
 134:Generated_Source\PSoC5/USBUART_std.c ****                 {
 135:Generated_Source\PSoC5/USBUART_std.c ****                     pTmp = USBUART_GetBOSPtr();
 136:Generated_Source\PSoC5/USBUART_std.c ****                     
 137:Generated_Source\PSoC5/USBUART_std.c ****                     /* Verify that requested descriptor exists */
 138:Generated_Source\PSoC5/USBUART_std.c ****                     if (pTmp != NULL)
 139:Generated_Source\PSoC5/USBUART_std.c ****                     {
 140:Generated_Source\PSoC5/USBUART_std.c ****                         USBUART_currentTD.pData = (volatile uint8 *)pTmp;
 141:Generated_Source\PSoC5/USBUART_std.c ****                         USBUART_currentTD.count = ((uint16)((uint16)(USBUART_currentTD.pData)[USBUA
 142:Generated_Source\PSoC5/USBUART_std.c ****                                                                              (USBUART_currentTD.pDa
 143:Generated_Source\PSoC5/USBUART_std.c ****                         requestHandled  = USBUART_InitControlRead();
 144:Generated_Source\PSoC5/USBUART_std.c ****                     }
 145:Generated_Source\PSoC5/USBUART_std.c ****                 }
 146:Generated_Source\PSoC5/USBUART_std.c ****             #endif /*(USBUART_BOS_ENABLE)*/
 147:Generated_Source\PSoC5/USBUART_std.c ****             
 148:Generated_Source\PSoC5/USBUART_std.c ****             #if defined(USBUART_ENABLE_STRINGS)
 149:Generated_Source\PSoC5/USBUART_std.c ****                 else if (USBUART_DESCR_STRING == USBUART_wValueHiReg)
 150:Generated_Source\PSoC5/USBUART_std.c ****                 {
 151:Generated_Source\PSoC5/USBUART_std.c ****                 /* Descriptor Strings */
 152:Generated_Source\PSoC5/USBUART_std.c ****                 #if defined(USBUART_ENABLE_DESCRIPTOR_STRINGS)
 153:Generated_Source\PSoC5/USBUART_std.c ****                     nStr = 0u;
 154:Generated_Source\PSoC5/USBUART_std.c ****                     pStr = (volatile uint8 *) &USBUART_STRING_DESCRIPTORS[0u];
 155:Generated_Source\PSoC5/USBUART_std.c ****                     
 156:Generated_Source\PSoC5/USBUART_std.c ****                     while ((USBUART_wValueLoReg > nStr) && (*pStr != 0u))
 157:Generated_Source\PSoC5/USBUART_std.c ****                     {
 158:Generated_Source\PSoC5/USBUART_std.c ****                         /* Read descriptor length from 1st byte */
 159:Generated_Source\PSoC5/USBUART_std.c ****                         descrLength = *pStr;
 160:Generated_Source\PSoC5/USBUART_std.c ****                         /* Move to next string descriptor */
 161:Generated_Source\PSoC5/USBUART_std.c ****                         pStr = &pStr[descrLength];
 162:Generated_Source\PSoC5/USBUART_std.c ****                         nStr++;
 163:Generated_Source\PSoC5/USBUART_std.c ****                     }
 164:Generated_Source\PSoC5/USBUART_std.c ****                 #endif /* (USBUART_ENABLE_DESCRIPTOR_STRINGS) */
 165:Generated_Source\PSoC5/USBUART_std.c ****                 
 166:Generated_Source\PSoC5/USBUART_std.c ****                 /* Microsoft OS String */
 167:Generated_Source\PSoC5/USBUART_std.c ****                 #if defined(USBUART_ENABLE_MSOS_STRING)
 168:Generated_Source\PSoC5/USBUART_std.c ****                     if (USBUART_STRING_MSOS == USBUART_wValueLoReg)
 169:Generated_Source\PSoC5/USBUART_std.c ****                     {
 170:Generated_Source\PSoC5/USBUART_std.c ****                         pStr = (volatile uint8 *)& USBUART_MSOS_DESCRIPTOR[0u];
 171:Generated_Source\PSoC5/USBUART_std.c ****                     }
 172:Generated_Source\PSoC5/USBUART_std.c ****                 #endif /* (USBUART_ENABLE_MSOS_STRING) */
 173:Generated_Source\PSoC5/USBUART_std.c ****                 
 174:Generated_Source\PSoC5/USBUART_std.c ****                 /* SN string */
 175:Generated_Source\PSoC5/USBUART_std.c ****                 #if defined(USBUART_ENABLE_SN_STRING)
 176:Generated_Source\PSoC5/USBUART_std.c ****                     if ((USBUART_wValueLoReg != 0u) && 
 177:Generated_Source\PSoC5/USBUART_std.c ****                         (USBUART_wValueLoReg == USBUART_DEVICE0_DESCR[USBUART_DEVICE_DESCR_SN_SHIFT
 178:Generated_Source\PSoC5/USBUART_std.c ****                     {
 179:Generated_Source\PSoC5/USBUART_std.c ****                     #if defined(USBUART_ENABLE_IDSN_STRING)
 180:Generated_Source\PSoC5/USBUART_std.c ****                         /* Read DIE ID and generate string descriptor in RAM */
 181:Generated_Source\PSoC5/USBUART_std.c ****                         USBUART_ReadDieID(USBUART_idSerialNumberStringDescriptor);
 182:Generated_Source\PSoC5/USBUART_std.c ****                         pStr = USBUART_idSerialNumberStringDescriptor;
 183:Generated_Source\PSoC5/USBUART_std.c ****                     #elif defined(USBUART_ENABLE_FWSN_STRING)
ARM GAS  C:\Users\ingan\AppData\Local\Temp\ccL06Ou5.s 			page 6


 184:Generated_Source\PSoC5/USBUART_std.c ****                         
 185:Generated_Source\PSoC5/USBUART_std.c ****                         if(USBUART_snStringConfirm != USBUART_FALSE)
 186:Generated_Source\PSoC5/USBUART_std.c ****                         {
 187:Generated_Source\PSoC5/USBUART_std.c ****                             pStr = USBUART_fwSerialNumberStringDescriptor;
 188:Generated_Source\PSoC5/USBUART_std.c ****                         }
 189:Generated_Source\PSoC5/USBUART_std.c ****                         else
 190:Generated_Source\PSoC5/USBUART_std.c ****                         {
 191:Generated_Source\PSoC5/USBUART_std.c ****                             pStr = (volatile uint8 *)&USBUART_SN_STRING_DESCRIPTOR[0u];
 192:Generated_Source\PSoC5/USBUART_std.c ****                         }
 193:Generated_Source\PSoC5/USBUART_std.c ****                     #else
 194:Generated_Source\PSoC5/USBUART_std.c ****                         pStr = (volatile uint8 *)&USBUART_SN_STRING_DESCRIPTOR[0u];
 195:Generated_Source\PSoC5/USBUART_std.c ****                     #endif  /* (USBUART_ENABLE_IDSN_STRING) */
 196:Generated_Source\PSoC5/USBUART_std.c ****                     }
 197:Generated_Source\PSoC5/USBUART_std.c ****                 #endif /* (USBUART_ENABLE_SN_STRING) */
 198:Generated_Source\PSoC5/USBUART_std.c ****                 
 199:Generated_Source\PSoC5/USBUART_std.c ****                     if (*pStr != 0u)
 200:Generated_Source\PSoC5/USBUART_std.c ****                     {
 201:Generated_Source\PSoC5/USBUART_std.c ****                         USBUART_currentTD.count = *pStr;
 202:Generated_Source\PSoC5/USBUART_std.c ****                         USBUART_currentTD.pData = pStr;
 203:Generated_Source\PSoC5/USBUART_std.c ****                         requestHandled  = USBUART_InitControlRead();
 204:Generated_Source\PSoC5/USBUART_std.c ****                     }
 205:Generated_Source\PSoC5/USBUART_std.c ****                 }
 206:Generated_Source\PSoC5/USBUART_std.c ****             #endif /*  USBUART_ENABLE_STRINGS */
 207:Generated_Source\PSoC5/USBUART_std.c ****                 else
 208:Generated_Source\PSoC5/USBUART_std.c ****                 {
 209:Generated_Source\PSoC5/USBUART_std.c ****                     requestHandled = USBUART_DispatchClassRqst();
 210:Generated_Source\PSoC5/USBUART_std.c ****                 }
 211:Generated_Source\PSoC5/USBUART_std.c ****                 break;
 103              		.loc 1 211 0
 104 008a E9E1     		b	.L57
 105              	.L9:
 118:Generated_Source\PSoC5/USBUART_std.c ****                 {
 106              		.loc 1 118 0
 107 008c 8F4B     		ldr	r3, .L67
 108 008e DB78     		ldrb	r3, [r3, #3]
 109 0090 DBB2     		uxtb	r3, r3
 110 0092 022B     		cmp	r3, #2
 111 0094 25D1     		bne	.L11
 120:Generated_Source\PSoC5/USBUART_std.c ****                     
 112              		.loc 1 120 0
 113 0096 8D4B     		ldr	r3, .L67
 114 0098 9B78     		ldrb	r3, [r3, #2]
 115 009a DBB2     		uxtb	r3, r3
 116 009c 1846     		mov	r0, r3
 117 009e FFF7FEFF 		bl	USBUART_GetConfigTablePtr
 118 00a2 B860     		str	r0, [r7, #8]
 123:Generated_Source\PSoC5/USBUART_std.c ****                     {
 119              		.loc 1 123 0
 120 00a4 BB68     		ldr	r3, [r7, #8]
 121 00a6 002B     		cmp	r3, #0
 122 00a8 00F0DA81 		beq	.L57
 125:Generated_Source\PSoC5/USBUART_std.c ****                         USBUART_currentTD.count = (uint16)((uint16)(USBUART_currentTD.pData)[USBUAR
 123              		.loc 1 125 0
 124 00ac BB68     		ldr	r3, [r7, #8]
 125 00ae 5B68     		ldr	r3, [r3, #4]
 126 00b0 874A     		ldr	r2, .L67+4
 127 00b2 5360     		str	r3, [r2, #4]
ARM GAS  C:\Users\ingan\AppData\Local\Temp\ccL06Ou5.s 			page 7


 126:Generated_Source\PSoC5/USBUART_std.c ****                                                                             (USBUART_currentTD.pDat
 128              		.loc 1 126 0
 129 00b4 864B     		ldr	r3, .L67+4
 130 00b6 5B68     		ldr	r3, [r3, #4]
 131 00b8 0333     		adds	r3, r3, #3
 132 00ba 1B78     		ldrb	r3, [r3]
 133 00bc DBB2     		uxtb	r3, r3
 134 00be 9BB2     		uxth	r3, r3
 135 00c0 1B02     		lsls	r3, r3, #8
 136 00c2 9AB2     		uxth	r2, r3
 127:Generated_Source\PSoC5/USBUART_std.c ****                         requestHandled  = USBUART_InitControlRead();
 137              		.loc 1 127 0
 138 00c4 824B     		ldr	r3, .L67+4
 139 00c6 5B68     		ldr	r3, [r3, #4]
 140 00c8 0233     		adds	r3, r3, #2
 141 00ca 1B78     		ldrb	r3, [r3]
 142 00cc DBB2     		uxtb	r3, r3
 126:Generated_Source\PSoC5/USBUART_std.c ****                                                                             (USBUART_currentTD.pDat
 143              		.loc 1 126 0
 144 00ce 9BB2     		uxth	r3, r3
 145 00d0 1343     		orrs	r3, r3, r2
 146 00d2 9AB2     		uxth	r2, r3
 147 00d4 7E4B     		ldr	r3, .L67+4
 148 00d6 1A80     		strh	r2, [r3]	@ movhi
 128:Generated_Source\PSoC5/USBUART_std.c ****                     }
 149              		.loc 1 128 0
 150 00d8 FFF7FEFF 		bl	USBUART_InitControlRead
 151 00dc 0346     		mov	r3, r0
 152 00de FB75     		strb	r3, [r7, #23]
 153              		.loc 1 211 0
 154 00e0 BEE1     		b	.L57
 155              	.L11:
 149:Generated_Source\PSoC5/USBUART_std.c ****                 {
 156              		.loc 1 149 0
 157 00e2 7A4B     		ldr	r3, .L67
 158 00e4 DB78     		ldrb	r3, [r3, #3]
 159 00e6 DBB2     		uxtb	r3, r3
 160 00e8 032B     		cmp	r3, #3
 161 00ea 3ED1     		bne	.L13
 153:Generated_Source\PSoC5/USBUART_std.c ****                     pStr = (volatile uint8 *) &USBUART_STRING_DESCRIPTORS[0u];
 162              		.loc 1 153 0
 163 00ec 0023     		movs	r3, #0
 164 00ee FB73     		strb	r3, [r7, #15]
 154:Generated_Source\PSoC5/USBUART_std.c ****                     
 165              		.loc 1 154 0
 166 00f0 784B     		ldr	r3, .L67+8
 167 00f2 3B61     		str	r3, [r7, #16]
 156:Generated_Source\PSoC5/USBUART_std.c ****                     {
 168              		.loc 1 156 0
 169 00f4 09E0     		b	.L14
 170              	.L16:
 159:Generated_Source\PSoC5/USBUART_std.c ****                         /* Move to next string descriptor */
 171              		.loc 1 159 0
 172 00f6 3B69     		ldr	r3, [r7, #16]
 173 00f8 1B78     		ldrb	r3, [r3]
 174 00fa BB71     		strb	r3, [r7, #6]
 161:Generated_Source\PSoC5/USBUART_std.c ****                         nStr++;
ARM GAS  C:\Users\ingan\AppData\Local\Temp\ccL06Ou5.s 			page 8


 175              		.loc 1 161 0
 176 00fc BB79     		ldrb	r3, [r7, #6]	@ zero_extendqisi2
 177 00fe 3A69     		ldr	r2, [r7, #16]
 178 0100 1344     		add	r3, r3, r2
 179 0102 3B61     		str	r3, [r7, #16]
 162:Generated_Source\PSoC5/USBUART_std.c ****                     }
 180              		.loc 1 162 0
 181 0104 FB7B     		ldrb	r3, [r7, #15]	@ zero_extendqisi2
 182 0106 0133     		adds	r3, r3, #1
 183 0108 FB73     		strb	r3, [r7, #15]
 184              	.L14:
 156:Generated_Source\PSoC5/USBUART_std.c ****                     {
 185              		.loc 1 156 0
 186 010a 704B     		ldr	r3, .L67
 187 010c 9B78     		ldrb	r3, [r3, #2]
 188 010e DBB2     		uxtb	r3, r3
 189 0110 FA7B     		ldrb	r2, [r7, #15]	@ zero_extendqisi2
 190 0112 9A42     		cmp	r2, r3
 191 0114 04D2     		bcs	.L15
 156:Generated_Source\PSoC5/USBUART_std.c ****                     {
 192              		.loc 1 156 0 is_stmt 0 discriminator 1
 193 0116 3B69     		ldr	r3, [r7, #16]
 194 0118 1B78     		ldrb	r3, [r3]
 195 011a DBB2     		uxtb	r3, r3
 196 011c 002B     		cmp	r3, #0
 197 011e EAD1     		bne	.L16
 198              	.L15:
 176:Generated_Source\PSoC5/USBUART_std.c ****                         (USBUART_wValueLoReg == USBUART_DEVICE0_DESCR[USBUART_DEVICE_DESCR_SN_SHIFT
 199              		.loc 1 176 0 is_stmt 1
 200 0120 6A4B     		ldr	r3, .L67
 201 0122 9B78     		ldrb	r3, [r3, #2]
 202 0124 DBB2     		uxtb	r3, r3
 203 0126 002B     		cmp	r3, #0
 204 0128 0BD0     		beq	.L17
 177:Generated_Source\PSoC5/USBUART_std.c ****                     {
 205              		.loc 1 177 0 discriminator 1
 206 012a 684B     		ldr	r3, .L67
 207 012c 9B78     		ldrb	r3, [r3, #2]
 208 012e DAB2     		uxtb	r2, r3
 209 0130 694B     		ldr	r3, .L67+12
 210 0132 1B7C     		ldrb	r3, [r3, #16]	@ zero_extendqisi2
 176:Generated_Source\PSoC5/USBUART_std.c ****                         (USBUART_wValueLoReg == USBUART_DEVICE0_DESCR[USBUART_DEVICE_DESCR_SN_SHIFT
 211              		.loc 1 176 0 discriminator 1
 212 0134 9A42     		cmp	r2, r3
 213 0136 04D1     		bne	.L17
 181:Generated_Source\PSoC5/USBUART_std.c ****                         pStr = USBUART_idSerialNumberStringDescriptor;
 214              		.loc 1 181 0
 215 0138 6848     		ldr	r0, .L67+16
 216 013a FFF7FEFF 		bl	USBUART_ReadDieID
 182:Generated_Source\PSoC5/USBUART_std.c ****                     #elif defined(USBUART_ENABLE_FWSN_STRING)
 217              		.loc 1 182 0
 218 013e 674B     		ldr	r3, .L67+16
 219 0140 3B61     		str	r3, [r7, #16]
 220              	.L17:
 199:Generated_Source\PSoC5/USBUART_std.c ****                     {
 221              		.loc 1 199 0
 222 0142 3B69     		ldr	r3, [r7, #16]
ARM GAS  C:\Users\ingan\AppData\Local\Temp\ccL06Ou5.s 			page 9


 223 0144 1B78     		ldrb	r3, [r3]
 224 0146 DBB2     		uxtb	r3, r3
 225 0148 002B     		cmp	r3, #0
 226 014a 00F08981 		beq	.L57
 201:Generated_Source\PSoC5/USBUART_std.c ****                         USBUART_currentTD.pData = pStr;
 227              		.loc 1 201 0
 228 014e 3B69     		ldr	r3, [r7, #16]
 229 0150 1B78     		ldrb	r3, [r3]
 230 0152 DBB2     		uxtb	r3, r3
 231 0154 9AB2     		uxth	r2, r3
 232 0156 5E4B     		ldr	r3, .L67+4
 233 0158 1A80     		strh	r2, [r3]	@ movhi
 202:Generated_Source\PSoC5/USBUART_std.c ****                         requestHandled  = USBUART_InitControlRead();
 234              		.loc 1 202 0
 235 015a 5D4A     		ldr	r2, .L67+4
 236 015c 3B69     		ldr	r3, [r7, #16]
 237 015e 5360     		str	r3, [r2, #4]
 203:Generated_Source\PSoC5/USBUART_std.c ****                     }
 238              		.loc 1 203 0
 239 0160 FFF7FEFF 		bl	USBUART_InitControlRead
 240 0164 0346     		mov	r3, r0
 241 0166 FB75     		strb	r3, [r7, #23]
 242              		.loc 1 211 0
 243 0168 7AE1     		b	.L57
 244              	.L13:
 209:Generated_Source\PSoC5/USBUART_std.c ****                 }
 245              		.loc 1 209 0
 246 016a FFF7FEFF 		bl	USBUART_DispatchClassRqst
 247 016e 0346     		mov	r3, r0
 248 0170 FB75     		strb	r3, [r7, #23]
 249              		.loc 1 211 0
 250 0172 75E1     		b	.L57
 251              	.L4:
 212:Generated_Source\PSoC5/USBUART_std.c ****                 
 213:Generated_Source\PSoC5/USBUART_std.c ****             case USBUART_GET_STATUS:
 214:Generated_Source\PSoC5/USBUART_std.c ****                 switch (bmRequestType & USBUART_RQST_RCPT_MASK)
 252              		.loc 1 214 0
 253 0174 FB79     		ldrb	r3, [r7, #7]	@ zero_extendqisi2
 254 0176 03F00303 		and	r3, r3, #3
 255 017a 002B     		cmp	r3, #0
 256 017c 20D0     		beq	.L21
 257 017e 022B     		cmp	r3, #2
 258 0180 00D0     		beq	.L22
 215:Generated_Source\PSoC5/USBUART_std.c ****                 {
 216:Generated_Source\PSoC5/USBUART_std.c ****                     case USBUART_RQST_RCPT_EP:
 217:Generated_Source\PSoC5/USBUART_std.c ****                         USBUART_currentTD.count = USBUART_EP_STATUS_LENGTH;
 218:Generated_Source\PSoC5/USBUART_std.c ****                         USBUART_tBuffer[0u]     = USBUART_EP[USBUART_wIndexLoReg & USBUART_DIR_UNUS
 219:Generated_Source\PSoC5/USBUART_std.c ****                         USBUART_tBuffer[1u]     = 0u;
 220:Generated_Source\PSoC5/USBUART_std.c ****                         USBUART_currentTD.pData = &USBUART_tBuffer[0u];
 221:Generated_Source\PSoC5/USBUART_std.c ****                         
 222:Generated_Source\PSoC5/USBUART_std.c ****                         requestHandled  = USBUART_InitControlRead();
 223:Generated_Source\PSoC5/USBUART_std.c ****                         break;
 224:Generated_Source\PSoC5/USBUART_std.c ****                     case USBUART_RQST_RCPT_DEV:
 225:Generated_Source\PSoC5/USBUART_std.c ****                         USBUART_currentTD.count = USBUART_DEVICE_STATUS_LENGTH;
 226:Generated_Source\PSoC5/USBUART_std.c ****                         USBUART_tBuffer[0u]     = USBUART_deviceStatus;
 227:Generated_Source\PSoC5/USBUART_std.c ****                         USBUART_tBuffer[1u]     = 0u;
 228:Generated_Source\PSoC5/USBUART_std.c ****                         USBUART_currentTD.pData = &USBUART_tBuffer[0u];
ARM GAS  C:\Users\ingan\AppData\Local\Temp\ccL06Ou5.s 			page 10


 229:Generated_Source\PSoC5/USBUART_std.c ****                         
 230:Generated_Source\PSoC5/USBUART_std.c ****                         requestHandled  = USBUART_InitControlRead();
 231:Generated_Source\PSoC5/USBUART_std.c ****                         break;
 232:Generated_Source\PSoC5/USBUART_std.c ****                     default:    /* requestHandled is initialized as FALSE by default */
 233:Generated_Source\PSoC5/USBUART_std.c ****                         break;
 259              		.loc 1 233 0
 260 0182 30E0     		b	.L23
 261              	.L22:
 217:Generated_Source\PSoC5/USBUART_std.c ****                         USBUART_tBuffer[0u]     = USBUART_EP[USBUART_wIndexLoReg & USBUART_DIR_UNUS
 262              		.loc 1 217 0
 263 0184 524B     		ldr	r3, .L67+4
 264 0186 0222     		movs	r2, #2
 265 0188 1A80     		strh	r2, [r3]	@ movhi
 218:Generated_Source\PSoC5/USBUART_std.c ****                         USBUART_tBuffer[1u]     = 0u;
 266              		.loc 1 218 0
 267 018a 504B     		ldr	r3, .L67
 268 018c 1B79     		ldrb	r3, [r3, #4]
 269 018e DBB2     		uxtb	r3, r3
 270 0190 03F07F02 		and	r2, r3, #127
 271 0194 5249     		ldr	r1, .L67+20
 272 0196 1346     		mov	r3, r2
 273 0198 5B00     		lsls	r3, r3, #1
 274 019a 1344     		add	r3, r3, r2
 275 019c 9B00     		lsls	r3, r3, #2
 276 019e 0B44     		add	r3, r3, r1
 277 01a0 0233     		adds	r3, r3, #2
 278 01a2 1B78     		ldrb	r3, [r3]
 279 01a4 DAB2     		uxtb	r2, r3
 280 01a6 4F4B     		ldr	r3, .L67+24
 281 01a8 1A70     		strb	r2, [r3]
 219:Generated_Source\PSoC5/USBUART_std.c ****                         USBUART_currentTD.pData = &USBUART_tBuffer[0u];
 282              		.loc 1 219 0
 283 01aa 4E4B     		ldr	r3, .L67+24
 284 01ac 0022     		movs	r2, #0
 285 01ae 5A70     		strb	r2, [r3, #1]
 220:Generated_Source\PSoC5/USBUART_std.c ****                         
 286              		.loc 1 220 0
 287 01b0 474B     		ldr	r3, .L67+4
 288 01b2 4C4A     		ldr	r2, .L67+24
 289 01b4 5A60     		str	r2, [r3, #4]
 222:Generated_Source\PSoC5/USBUART_std.c ****                         break;
 290              		.loc 1 222 0
 291 01b6 FFF7FEFF 		bl	USBUART_InitControlRead
 292 01ba 0346     		mov	r3, r0
 293 01bc FB75     		strb	r3, [r7, #23]
 223:Generated_Source\PSoC5/USBUART_std.c ****                     case USBUART_RQST_RCPT_DEV:
 294              		.loc 1 223 0
 295 01be 12E0     		b	.L23
 296              	.L21:
 225:Generated_Source\PSoC5/USBUART_std.c ****                         USBUART_tBuffer[0u]     = USBUART_deviceStatus;
 297              		.loc 1 225 0
 298 01c0 434B     		ldr	r3, .L67+4
 299 01c2 0222     		movs	r2, #2
 300 01c4 1A80     		strh	r2, [r3]	@ movhi
 226:Generated_Source\PSoC5/USBUART_std.c ****                         USBUART_tBuffer[1u]     = 0u;
 301              		.loc 1 226 0
 302 01c6 484B     		ldr	r3, .L67+28
ARM GAS  C:\Users\ingan\AppData\Local\Temp\ccL06Ou5.s 			page 11


 303 01c8 1B78     		ldrb	r3, [r3]
 304 01ca DAB2     		uxtb	r2, r3
 305 01cc 454B     		ldr	r3, .L67+24
 306 01ce 1A70     		strb	r2, [r3]
 227:Generated_Source\PSoC5/USBUART_std.c ****                         USBUART_currentTD.pData = &USBUART_tBuffer[0u];
 307              		.loc 1 227 0
 308 01d0 444B     		ldr	r3, .L67+24
 309 01d2 0022     		movs	r2, #0
 310 01d4 5A70     		strb	r2, [r3, #1]
 228:Generated_Source\PSoC5/USBUART_std.c ****                         
 311              		.loc 1 228 0
 312 01d6 3E4B     		ldr	r3, .L67+4
 313 01d8 424A     		ldr	r2, .L67+24
 314 01da 5A60     		str	r2, [r3, #4]
 230:Generated_Source\PSoC5/USBUART_std.c ****                         break;
 315              		.loc 1 230 0
 316 01dc FFF7FEFF 		bl	USBUART_InitControlRead
 317 01e0 0346     		mov	r3, r0
 318 01e2 FB75     		strb	r3, [r7, #23]
 231:Generated_Source\PSoC5/USBUART_std.c ****                     default:    /* requestHandled is initialized as FALSE by default */
 319              		.loc 1 231 0
 320 01e4 00BF     		nop
 321              	.L23:
 234:Generated_Source\PSoC5/USBUART_std.c ****                 }
 235:Generated_Source\PSoC5/USBUART_std.c ****                 break;
 322              		.loc 1 235 0 discriminator 4
 323 01e6 42E1     		b	.L24
 324              	.L7:
 236:Generated_Source\PSoC5/USBUART_std.c ****                 
 237:Generated_Source\PSoC5/USBUART_std.c ****             case USBUART_GET_CONFIGURATION:
 238:Generated_Source\PSoC5/USBUART_std.c ****                 USBUART_currentTD.count = 1u;
 325              		.loc 1 238 0
 326 01e8 394B     		ldr	r3, .L67+4
 327 01ea 0122     		movs	r2, #1
 328 01ec 1A80     		strh	r2, [r3]	@ movhi
 239:Generated_Source\PSoC5/USBUART_std.c ****                 USBUART_currentTD.pData = (volatile uint8 *) &USBUART_configuration;
 329              		.loc 1 239 0
 330 01ee 384B     		ldr	r3, .L67+4
 331 01f0 3E4A     		ldr	r2, .L67+32
 332 01f2 5A60     		str	r2, [r3, #4]
 240:Generated_Source\PSoC5/USBUART_std.c ****                 requestHandled  = USBUART_InitControlRead();
 333              		.loc 1 240 0
 334 01f4 FFF7FEFF 		bl	USBUART_InitControlRead
 335 01f8 0346     		mov	r3, r0
 336 01fa FB75     		strb	r3, [r7, #23]
 241:Generated_Source\PSoC5/USBUART_std.c ****                 break;
 337              		.loc 1 241 0
 338 01fc 37E1     		b	.L24
 339              	.L8:
 242:Generated_Source\PSoC5/USBUART_std.c ****                 
 243:Generated_Source\PSoC5/USBUART_std.c ****             case USBUART_GET_INTERFACE:
 244:Generated_Source\PSoC5/USBUART_std.c ****                 USBUART_currentTD.count = 1u;
 340              		.loc 1 244 0
 341 01fe 344B     		ldr	r3, .L67+4
 342 0200 0122     		movs	r2, #1
 343 0202 1A80     		strh	r2, [r3]	@ movhi
 245:Generated_Source\PSoC5/USBUART_std.c ****                 USBUART_currentTD.pData = (volatile uint8 *) &USBUART_interfaceSetting[USBUART_wInd
ARM GAS  C:\Users\ingan\AppData\Local\Temp\ccL06Ou5.s 			page 12


 344              		.loc 1 245 0
 345 0204 314B     		ldr	r3, .L67
 346 0206 1B79     		ldrb	r3, [r3, #4]
 347 0208 DBB2     		uxtb	r3, r3
 348 020a 1A46     		mov	r2, r3
 349 020c 384B     		ldr	r3, .L67+36
 350 020e 1344     		add	r3, r3, r2
 351 0210 2F4A     		ldr	r2, .L67+4
 352 0212 5360     		str	r3, [r2, #4]
 246:Generated_Source\PSoC5/USBUART_std.c ****                 requestHandled  = USBUART_InitControlRead();
 353              		.loc 1 246 0
 354 0214 FFF7FEFF 		bl	USBUART_InitControlRead
 355 0218 0346     		mov	r3, r0
 356 021a FB75     		strb	r3, [r7, #23]
 247:Generated_Source\PSoC5/USBUART_std.c ****                 break;
 357              		.loc 1 247 0
 358 021c 27E1     		b	.L24
 359              	.L2:
 248:Generated_Source\PSoC5/USBUART_std.c ****                 
 249:Generated_Source\PSoC5/USBUART_std.c ****             default: /* requestHandled is initialized as FALSE by default */
 250:Generated_Source\PSoC5/USBUART_std.c ****                 break;
 251:Generated_Source\PSoC5/USBUART_std.c ****         }
 252:Generated_Source\PSoC5/USBUART_std.c ****     }
 253:Generated_Source\PSoC5/USBUART_std.c ****     else
 254:Generated_Source\PSoC5/USBUART_std.c ****     {
 255:Generated_Source\PSoC5/USBUART_std.c ****         /* Control Write */
 256:Generated_Source\PSoC5/USBUART_std.c ****         switch (USBUART_bRequestReg)
 360              		.loc 1 256 0
 361 021e 2B4B     		ldr	r3, .L67
 362 0220 5B78     		ldrb	r3, [r3, #1]
 363 0222 DBB2     		uxtb	r3, r3
 364 0224 013B     		subs	r3, r3, #1
 365 0226 0A2B     		cmp	r3, #10
 366 0228 00F21C81 		bhi	.L58
 367 022c 01A2     		adr	r2, .L27
 368 022e 52F823F0 		ldr	pc, [r2, r3, lsl #2]
 369 0232 00BF     		.p2align 2
 370              	.L27:
 371 0234 41030000 		.word	.L26+1
 372 0238 65040000 		.word	.L58+1
 373 023c CF030000 		.word	.L28+1
 374 0240 65040000 		.word	.L58+1
 375 0244 61020000 		.word	.L29+1
 376 0248 65040000 		.word	.L58+1
 377 024c 65040000 		.word	.L58+1
 378 0250 65040000 		.word	.L58+1
 379 0254 75020000 		.word	.L30+1
 380 0258 65040000 		.word	.L58+1
 381 025c FD020000 		.word	.L31+1
 382              		.p2align 1
 383              	.L29:
 257:Generated_Source\PSoC5/USBUART_std.c ****         {
 258:Generated_Source\PSoC5/USBUART_std.c ****             case USBUART_SET_ADDRESS:
 259:Generated_Source\PSoC5/USBUART_std.c ****                 /* Store address to be set in USBUART_NoDataControlStatusStage(). */
 260:Generated_Source\PSoC5/USBUART_std.c ****                 USBUART_deviceAddress = (uint8) USBUART_wValueLoReg;
 384              		.loc 1 260 0
 385 0260 1A4B     		ldr	r3, .L67
ARM GAS  C:\Users\ingan\AppData\Local\Temp\ccL06Ou5.s 			page 13


 386 0262 9B78     		ldrb	r3, [r3, #2]
 387 0264 DAB2     		uxtb	r2, r3
 388 0266 234B     		ldr	r3, .L67+40
 389 0268 1A70     		strb	r2, [r3]
 261:Generated_Source\PSoC5/USBUART_std.c ****                 requestHandled = USBUART_InitNoDataControlTransfer();
 390              		.loc 1 261 0
 391 026a FFF7FEFF 		bl	USBUART_InitNoDataControlTransfer
 392 026e 0346     		mov	r3, r0
 393 0270 FB75     		strb	r3, [r7, #23]
 262:Generated_Source\PSoC5/USBUART_std.c ****                 break;
 394              		.loc 1 262 0
 395 0272 FCE0     		b	.L24
 396              	.L30:
 263:Generated_Source\PSoC5/USBUART_std.c ****                 
 264:Generated_Source\PSoC5/USBUART_std.c ****             case USBUART_SET_CONFIGURATION:
 265:Generated_Source\PSoC5/USBUART_std.c ****                 configurationN = USBUART_wValueLoReg;
 397              		.loc 1 265 0
 398 0274 154B     		ldr	r3, .L67
 399 0276 9B78     		ldrb	r3, [r3, #2]
 400 0278 7B71     		strb	r3, [r7, #5]
 266:Generated_Source\PSoC5/USBUART_std.c ****                 
 267:Generated_Source\PSoC5/USBUART_std.c ****                 /* Verify that configuration descriptor exists */
 268:Generated_Source\PSoC5/USBUART_std.c ****                 if(configurationN > 0u)
 401              		.loc 1 268 0
 402 027a 7B79     		ldrb	r3, [r7, #5]	@ zero_extendqisi2
 403 027c 002B     		cmp	r3, #0
 404 027e 06D0     		beq	.L32
 269:Generated_Source\PSoC5/USBUART_std.c ****                 {
 270:Generated_Source\PSoC5/USBUART_std.c ****                     pTmp = USBUART_GetConfigTablePtr((uint8) configurationN - 1u);
 405              		.loc 1 270 0
 406 0280 7B79     		ldrb	r3, [r7, #5]
 407 0282 013B     		subs	r3, r3, #1
 408 0284 DBB2     		uxtb	r3, r3
 409 0286 1846     		mov	r0, r3
 410 0288 FFF7FEFF 		bl	USBUART_GetConfigTablePtr
 411 028c B860     		str	r0, [r7, #8]
 412              	.L32:
 271:Generated_Source\PSoC5/USBUART_std.c ****                 }
 272:Generated_Source\PSoC5/USBUART_std.c ****                 
 273:Generated_Source\PSoC5/USBUART_std.c ****                 /* Responds with a Request Error when configuration number is invalid */
 274:Generated_Source\PSoC5/USBUART_std.c ****                 if (((configurationN > 0u) && (pTmp != NULL)) || (configurationN == 0u))
 413              		.loc 1 274 0
 414 028e 7B79     		ldrb	r3, [r7, #5]	@ zero_extendqisi2
 415 0290 002B     		cmp	r3, #0
 416 0292 02D0     		beq	.L33
 417              		.loc 1 274 0 is_stmt 0 discriminator 1
 418 0294 BB68     		ldr	r3, [r7, #8]
 419 0296 002B     		cmp	r3, #0
 420 0298 03D1     		bne	.L34
 421              	.L33:
 422              		.loc 1 274 0 discriminator 3
 423 029a 7B79     		ldrb	r3, [r7, #5]	@ zero_extendqisi2
 424 029c 002B     		cmp	r3, #0
 425 029e 40F0E380 		bne	.L59
 426              	.L34:
 275:Generated_Source\PSoC5/USBUART_std.c ****                 {
 276:Generated_Source\PSoC5/USBUART_std.c ****                     /* Set new configuration if it has been changed */
ARM GAS  C:\Users\ingan\AppData\Local\Temp\ccL06Ou5.s 			page 14


 277:Generated_Source\PSoC5/USBUART_std.c ****                     if(configurationN != USBUART_configuration)
 427              		.loc 1 277 0 is_stmt 1
 428 02a2 124B     		ldr	r3, .L67+32
 429 02a4 1B78     		ldrb	r3, [r3]
 430 02a6 DBB2     		uxtb	r3, r3
 431 02a8 7A79     		ldrb	r2, [r7, #5]	@ zero_extendqisi2
 432 02aa 9A42     		cmp	r2, r3
 433 02ac 08D0     		beq	.L36
 278:Generated_Source\PSoC5/USBUART_std.c ****                     {
 279:Generated_Source\PSoC5/USBUART_std.c ****                         USBUART_configuration = (uint8) configurationN;
 434              		.loc 1 279 0
 435 02ae 0F4A     		ldr	r2, .L67+32
 436 02b0 7B79     		ldrb	r3, [r7, #5]
 437 02b2 1370     		strb	r3, [r2]
 280:Generated_Source\PSoC5/USBUART_std.c ****                         USBUART_configurationChanged = USBUART_TRUE;
 438              		.loc 1 280 0
 439 02b4 104B     		ldr	r3, .L67+44
 440 02b6 0122     		movs	r2, #1
 441 02b8 1A70     		strb	r2, [r3]
 281:Generated_Source\PSoC5/USBUART_std.c ****                         USBUART_Config(USBUART_TRUE);
 442              		.loc 1 281 0
 443 02ba 0120     		movs	r0, #1
 444 02bc FFF7FEFF 		bl	USBUART_Config
 445              	.L36:
 282:Generated_Source\PSoC5/USBUART_std.c ****                     }
 283:Generated_Source\PSoC5/USBUART_std.c ****                     requestHandled = USBUART_InitNoDataControlTransfer();
 446              		.loc 1 283 0
 447 02c0 FFF7FEFF 		bl	USBUART_InitNoDataControlTransfer
 448 02c4 0346     		mov	r3, r0
 449 02c6 FB75     		strb	r3, [r7, #23]
 284:Generated_Source\PSoC5/USBUART_std.c ****                 }
 285:Generated_Source\PSoC5/USBUART_std.c ****                 break;
 450              		.loc 1 285 0
 451 02c8 CEE0     		b	.L59
 452              	.L68:
 453 02ca 00BF     		.align	2
 454              	.L67:
 455 02cc 00600040 		.word	1073766400
 456 02d0 00000000 		.word	USBUART_currentTD
 457 02d4 00000000 		.word	USBUART_STRING_DESCRIPTORS
 458 02d8 00000000 		.word	USBUART_DEVICE0_DESCR
 459 02dc 00000000 		.word	USBUART_idSerialNumberStringDescriptor
 460 02e0 00000000 		.word	USBUART_EP
 461 02e4 00000000 		.word	USBUART_tBuffer.5380
 462 02e8 00000000 		.word	USBUART_deviceStatus
 463 02ec 00000000 		.word	USBUART_configuration
 464 02f0 00000000 		.word	USBUART_interfaceSetting
 465 02f4 00000000 		.word	USBUART_deviceAddress
 466 02f8 00000000 		.word	USBUART_configurationChanged
 467              	.L31:
 286:Generated_Source\PSoC5/USBUART_std.c ****                 
 287:Generated_Source\PSoC5/USBUART_std.c ****             case USBUART_SET_INTERFACE:
 288:Generated_Source\PSoC5/USBUART_std.c ****                 if (0u != USBUART_ValidateAlternateSetting())
 468              		.loc 1 288 0
 469 02fc FFF7FEFF 		bl	USBUART_ValidateAlternateSetting
 470 0300 0346     		mov	r3, r0
 471 0302 002B     		cmp	r3, #0
ARM GAS  C:\Users\ingan\AppData\Local\Temp\ccL06Ou5.s 			page 15


 472 0304 00F0B280 		beq	.L60
 289:Generated_Source\PSoC5/USBUART_std.c ****                 {
 290:Generated_Source\PSoC5/USBUART_std.c ****                     /* Get interface number from the request. */
 291:Generated_Source\PSoC5/USBUART_std.c ****                     interfaceNumber = USBUART_wIndexLoReg;
 473              		.loc 1 291 0
 474 0308 5B4B     		ldr	r3, .L69
 475 030a 1B79     		ldrb	r3, [r3, #4]
 476 030c 3B71     		strb	r3, [r7, #4]
 292:Generated_Source\PSoC5/USBUART_std.c ****                     USBUART_interfaceNumber = (uint8) USBUART_wIndexLoReg;
 477              		.loc 1 292 0
 478 030e 5A4B     		ldr	r3, .L69
 479 0310 1B79     		ldrb	r3, [r3, #4]
 480 0312 DAB2     		uxtb	r2, r3
 481 0314 594B     		ldr	r3, .L69+4
 482 0316 1A70     		strb	r2, [r3]
 293:Generated_Source\PSoC5/USBUART_std.c ****                      
 294:Generated_Source\PSoC5/USBUART_std.c ****                     /* Check if alternate settings is changed for interface. */
 295:Generated_Source\PSoC5/USBUART_std.c ****                     if (USBUART_interfaceSettingLast[interfaceNumber] != USBUART_interfaceSetting[i
 483              		.loc 1 295 0
 484 0318 3B79     		ldrb	r3, [r7, #4]	@ zero_extendqisi2
 485 031a 594A     		ldr	r2, .L69+8
 486 031c D35C     		ldrb	r3, [r2, r3]
 487 031e DAB2     		uxtb	r2, r3
 488 0320 3B79     		ldrb	r3, [r7, #4]	@ zero_extendqisi2
 489 0322 5849     		ldr	r1, .L69+12
 490 0324 CB5C     		ldrb	r3, [r1, r3]
 491 0326 DBB2     		uxtb	r3, r3
 492 0328 9A42     		cmp	r2, r3
 493 032a 04D0     		beq	.L38
 296:Generated_Source\PSoC5/USBUART_std.c ****                     {
 297:Generated_Source\PSoC5/USBUART_std.c ****                         USBUART_configurationChanged = USBUART_TRUE;
 494              		.loc 1 297 0
 495 032c 564B     		ldr	r3, .L69+16
 496 032e 0122     		movs	r2, #1
 497 0330 1A70     		strb	r2, [r3]
 298:Generated_Source\PSoC5/USBUART_std.c ****                     
 299:Generated_Source\PSoC5/USBUART_std.c ****                         /* Change alternate setting for the endpoints. */
 300:Generated_Source\PSoC5/USBUART_std.c ****                     #if (USBUART_EP_MANAGEMENT_MANUAL && USBUART_EP_ALLOC_DYNAMIC)
 301:Generated_Source\PSoC5/USBUART_std.c ****                         USBUART_Config(USBUART_FALSE);
 302:Generated_Source\PSoC5/USBUART_std.c ****                     #else
 303:Generated_Source\PSoC5/USBUART_std.c ****                         USBUART_ConfigAltChanged();
 498              		.loc 1 303 0
 499 0332 FFF7FEFF 		bl	USBUART_ConfigAltChanged
 500              	.L38:
 304:Generated_Source\PSoC5/USBUART_std.c ****                     #endif /* (USBUART_EP_MANAGEMENT_MANUAL && USBUART_EP_ALLOC_DYNAMIC) */
 305:Generated_Source\PSoC5/USBUART_std.c ****                     }
 306:Generated_Source\PSoC5/USBUART_std.c ****                     
 307:Generated_Source\PSoC5/USBUART_std.c ****                     requestHandled = USBUART_InitNoDataControlTransfer();
 501              		.loc 1 307 0
 502 0336 FFF7FEFF 		bl	USBUART_InitNoDataControlTransfer
 503 033a 0346     		mov	r3, r0
 504 033c FB75     		strb	r3, [r7, #23]
 308:Generated_Source\PSoC5/USBUART_std.c ****                 }
 309:Generated_Source\PSoC5/USBUART_std.c ****                 break;
 505              		.loc 1 309 0
 506 033e 95E0     		b	.L60
 507              	.L26:
ARM GAS  C:\Users\ingan\AppData\Local\Temp\ccL06Ou5.s 			page 16


 310:Generated_Source\PSoC5/USBUART_std.c ****                 
 311:Generated_Source\PSoC5/USBUART_std.c ****             case USBUART_CLEAR_FEATURE:
 312:Generated_Source\PSoC5/USBUART_std.c ****                 switch (bmRequestType & USBUART_RQST_RCPT_MASK)
 508              		.loc 1 312 0
 509 0340 FB79     		ldrb	r3, [r7, #7]	@ zero_extendqisi2
 510 0342 03F00303 		and	r3, r3, #3
 511 0346 012B     		cmp	r3, #1
 512 0348 20D0     		beq	.L40
 513 034a 012B     		cmp	r3, #1
 514 034c 0CD3     		bcc	.L41
 515 034e 022B     		cmp	r3, #2
 516 0350 00D0     		beq	.L42
 313:Generated_Source\PSoC5/USBUART_std.c ****                 {
 314:Generated_Source\PSoC5/USBUART_std.c ****                     case USBUART_RQST_RCPT_EP:
 315:Generated_Source\PSoC5/USBUART_std.c ****                         if (USBUART_wValueLoReg == USBUART_ENDPOINT_HALT)
 316:Generated_Source\PSoC5/USBUART_std.c ****                         {
 317:Generated_Source\PSoC5/USBUART_std.c ****                             requestHandled = USBUART_ClearEndpointHalt();
 318:Generated_Source\PSoC5/USBUART_std.c ****                         }
 319:Generated_Source\PSoC5/USBUART_std.c ****                         break;
 320:Generated_Source\PSoC5/USBUART_std.c ****                     case USBUART_RQST_RCPT_DEV:
 321:Generated_Source\PSoC5/USBUART_std.c ****                         /* Clear device REMOTE_WAKEUP */
 322:Generated_Source\PSoC5/USBUART_std.c ****                         if (USBUART_wValueLoReg == USBUART_DEVICE_REMOTE_WAKEUP)
 323:Generated_Source\PSoC5/USBUART_std.c ****                         {
 324:Generated_Source\PSoC5/USBUART_std.c ****                             USBUART_deviceStatus &= (uint8)~USBUART_DEVICE_STATUS_REMOTE_WAKEUP;
 325:Generated_Source\PSoC5/USBUART_std.c ****                             requestHandled = USBUART_InitNoDataControlTransfer();
 326:Generated_Source\PSoC5/USBUART_std.c ****                         }
 327:Generated_Source\PSoC5/USBUART_std.c ****                         break;
 328:Generated_Source\PSoC5/USBUART_std.c ****                     case USBUART_RQST_RCPT_IFC:
 329:Generated_Source\PSoC5/USBUART_std.c ****                         /* Validate interfaceNumber */
 330:Generated_Source\PSoC5/USBUART_std.c ****                         if (USBUART_wIndexLoReg < USBUART_MAX_INTERFACES_NUMBER)
 331:Generated_Source\PSoC5/USBUART_std.c ****                         {
 332:Generated_Source\PSoC5/USBUART_std.c ****                             USBUART_interfaceStatus[USBUART_wIndexLoReg] &= (uint8) ~USBUART_wValue
 333:Generated_Source\PSoC5/USBUART_std.c ****                             requestHandled = USBUART_InitNoDataControlTransfer();
 334:Generated_Source\PSoC5/USBUART_std.c ****                         }
 335:Generated_Source\PSoC5/USBUART_std.c ****                         break;
 336:Generated_Source\PSoC5/USBUART_std.c ****                     default:    /* requestHandled is initialized as FALSE by default */
 337:Generated_Source\PSoC5/USBUART_std.c ****                         break;
 517              		.loc 1 337 0
 518 0352 3BE0     		b	.L44
 519              	.L42:
 315:Generated_Source\PSoC5/USBUART_std.c ****                         {
 520              		.loc 1 315 0
 521 0354 484B     		ldr	r3, .L69
 522 0356 9B78     		ldrb	r3, [r3, #2]
 523 0358 DBB2     		uxtb	r3, r3
 524 035a 002B     		cmp	r3, #0
 525 035c 31D1     		bne	.L61
 317:Generated_Source\PSoC5/USBUART_std.c ****                         }
 526              		.loc 1 317 0
 527 035e FFF7FEFF 		bl	USBUART_ClearEndpointHalt
 528 0362 0346     		mov	r3, r0
 529 0364 FB75     		strb	r3, [r7, #23]
 319:Generated_Source\PSoC5/USBUART_std.c ****                     case USBUART_RQST_RCPT_DEV:
 530              		.loc 1 319 0
 531 0366 2CE0     		b	.L61
 532              	.L41:
 322:Generated_Source\PSoC5/USBUART_std.c ****                         {
ARM GAS  C:\Users\ingan\AppData\Local\Temp\ccL06Ou5.s 			page 17


 533              		.loc 1 322 0
 534 0368 434B     		ldr	r3, .L69
 535 036a 9B78     		ldrb	r3, [r3, #2]
 536 036c DBB2     		uxtb	r3, r3
 537 036e 012B     		cmp	r3, #1
 538 0370 29D1     		bne	.L62
 324:Generated_Source\PSoC5/USBUART_std.c ****                             requestHandled = USBUART_InitNoDataControlTransfer();
 539              		.loc 1 324 0
 540 0372 464B     		ldr	r3, .L69+20
 541 0374 1B78     		ldrb	r3, [r3]
 542 0376 DBB2     		uxtb	r3, r3
 543 0378 23F00203 		bic	r3, r3, #2
 544 037c DAB2     		uxtb	r2, r3
 545 037e 434B     		ldr	r3, .L69+20
 546 0380 1A70     		strb	r2, [r3]
 325:Generated_Source\PSoC5/USBUART_std.c ****                         }
 547              		.loc 1 325 0
 548 0382 FFF7FEFF 		bl	USBUART_InitNoDataControlTransfer
 549 0386 0346     		mov	r3, r0
 550 0388 FB75     		strb	r3, [r7, #23]
 327:Generated_Source\PSoC5/USBUART_std.c ****                     case USBUART_RQST_RCPT_IFC:
 551              		.loc 1 327 0
 552 038a 1CE0     		b	.L62
 553              	.L40:
 330:Generated_Source\PSoC5/USBUART_std.c ****                         {
 554              		.loc 1 330 0
 555 038c 3A4B     		ldr	r3, .L69
 556 038e 1B79     		ldrb	r3, [r3, #4]
 557 0390 DBB2     		uxtb	r3, r3
 558 0392 012B     		cmp	r3, #1
 559 0394 19D8     		bhi	.L63
 332:Generated_Source\PSoC5/USBUART_std.c ****                             requestHandled = USBUART_InitNoDataControlTransfer();
 560              		.loc 1 332 0
 561 0396 384B     		ldr	r3, .L69
 562 0398 9B78     		ldrb	r3, [r3, #2]
 563 039a DBB2     		uxtb	r3, r3
 564 039c DB43     		mvns	r3, r3
 565 039e DBB2     		uxtb	r3, r3
 566 03a0 354A     		ldr	r2, .L69
 567 03a2 1279     		ldrb	r2, [r2, #4]
 568 03a4 D2B2     		uxtb	r2, r2
 569 03a6 1146     		mov	r1, r2
 570 03a8 1046     		mov	r0, r2
 571 03aa 394A     		ldr	r2, .L69+24
 572 03ac 125C     		ldrb	r2, [r2, r0]
 573 03ae D2B2     		uxtb	r2, r2
 574 03b0 1340     		ands	r3, r3, r2
 575 03b2 DAB2     		uxtb	r2, r3
 576 03b4 364B     		ldr	r3, .L69+24
 577 03b6 5A54     		strb	r2, [r3, r1]
 333:Generated_Source\PSoC5/USBUART_std.c ****                         }
 578              		.loc 1 333 0
 579 03b8 FFF7FEFF 		bl	USBUART_InitNoDataControlTransfer
 580 03bc 0346     		mov	r3, r0
 581 03be FB75     		strb	r3, [r7, #23]
 335:Generated_Source\PSoC5/USBUART_std.c ****                     default:    /* requestHandled is initialized as FALSE by default */
 582              		.loc 1 335 0
ARM GAS  C:\Users\ingan\AppData\Local\Temp\ccL06Ou5.s 			page 18


 583 03c0 03E0     		b	.L63
 584              	.L61:
 319:Generated_Source\PSoC5/USBUART_std.c ****                     case USBUART_RQST_RCPT_DEV:
 585              		.loc 1 319 0
 586 03c2 00BF     		nop
 587 03c4 53E0     		b	.L24
 588              	.L62:
 327:Generated_Source\PSoC5/USBUART_std.c ****                     case USBUART_RQST_RCPT_IFC:
 589              		.loc 1 327 0
 590 03c6 00BF     		nop
 591 03c8 51E0     		b	.L24
 592              	.L63:
 335:Generated_Source\PSoC5/USBUART_std.c ****                     default:    /* requestHandled is initialized as FALSE by default */
 593              		.loc 1 335 0
 594 03ca 00BF     		nop
 595              	.L44:
 338:Generated_Source\PSoC5/USBUART_std.c ****                 }
 339:Generated_Source\PSoC5/USBUART_std.c ****                 break;
 596              		.loc 1 339 0 discriminator 7
 597 03cc 4FE0     		b	.L24
 598              	.L28:
 340:Generated_Source\PSoC5/USBUART_std.c ****                 
 341:Generated_Source\PSoC5/USBUART_std.c ****             case USBUART_SET_FEATURE:
 342:Generated_Source\PSoC5/USBUART_std.c ****                 switch (bmRequestType & USBUART_RQST_RCPT_MASK)
 599              		.loc 1 342 0
 600 03ce FB79     		ldrb	r3, [r7, #7]	@ zero_extendqisi2
 601 03d0 03F00303 		and	r3, r3, #3
 602 03d4 012B     		cmp	r3, #1
 603 03d6 20D0     		beq	.L48
 604 03d8 012B     		cmp	r3, #1
 605 03da 0CD3     		bcc	.L49
 606 03dc 022B     		cmp	r3, #2
 607 03de 00D0     		beq	.L50
 343:Generated_Source\PSoC5/USBUART_std.c ****                 {
 344:Generated_Source\PSoC5/USBUART_std.c ****                     case USBUART_RQST_RCPT_EP:
 345:Generated_Source\PSoC5/USBUART_std.c ****                         if (USBUART_wValueLoReg == USBUART_ENDPOINT_HALT)
 346:Generated_Source\PSoC5/USBUART_std.c ****                         {
 347:Generated_Source\PSoC5/USBUART_std.c ****                             requestHandled = USBUART_SetEndpointHalt();
 348:Generated_Source\PSoC5/USBUART_std.c ****                         }
 349:Generated_Source\PSoC5/USBUART_std.c ****                         break;
 350:Generated_Source\PSoC5/USBUART_std.c ****                         
 351:Generated_Source\PSoC5/USBUART_std.c ****                     case USBUART_RQST_RCPT_DEV:
 352:Generated_Source\PSoC5/USBUART_std.c ****                         /* Set device REMOTE_WAKEUP */
 353:Generated_Source\PSoC5/USBUART_std.c ****                         if (USBUART_wValueLoReg == USBUART_DEVICE_REMOTE_WAKEUP)
 354:Generated_Source\PSoC5/USBUART_std.c ****                         {
 355:Generated_Source\PSoC5/USBUART_std.c ****                             USBUART_deviceStatus |= USBUART_DEVICE_STATUS_REMOTE_WAKEUP;
 356:Generated_Source\PSoC5/USBUART_std.c ****                             requestHandled = USBUART_InitNoDataControlTransfer();
 357:Generated_Source\PSoC5/USBUART_std.c ****                         }
 358:Generated_Source\PSoC5/USBUART_std.c ****                         break;
 359:Generated_Source\PSoC5/USBUART_std.c ****                         
 360:Generated_Source\PSoC5/USBUART_std.c ****                     case USBUART_RQST_RCPT_IFC:
 361:Generated_Source\PSoC5/USBUART_std.c ****                         /* Validate interfaceNumber */
 362:Generated_Source\PSoC5/USBUART_std.c ****                         if (USBUART_wIndexLoReg < USBUART_MAX_INTERFACES_NUMBER)
 363:Generated_Source\PSoC5/USBUART_std.c ****                         {
 364:Generated_Source\PSoC5/USBUART_std.c ****                             USBUART_interfaceStatus[USBUART_wIndexLoReg] &= (uint8) ~USBUART_wValue
 365:Generated_Source\PSoC5/USBUART_std.c ****                             requestHandled = USBUART_InitNoDataControlTransfer();
 366:Generated_Source\PSoC5/USBUART_std.c ****                         }
ARM GAS  C:\Users\ingan\AppData\Local\Temp\ccL06Ou5.s 			page 19


 367:Generated_Source\PSoC5/USBUART_std.c ****                         break;
 368:Generated_Source\PSoC5/USBUART_std.c ****                     
 369:Generated_Source\PSoC5/USBUART_std.c ****                     default:    /* requestHandled is initialized as FALSE by default */
 370:Generated_Source\PSoC5/USBUART_std.c ****                         break;
 608              		.loc 1 370 0
 609 03e0 3BE0     		b	.L52
 610              	.L50:
 345:Generated_Source\PSoC5/USBUART_std.c ****                         {
 611              		.loc 1 345 0
 612 03e2 254B     		ldr	r3, .L69
 613 03e4 9B78     		ldrb	r3, [r3, #2]
 614 03e6 DBB2     		uxtb	r3, r3
 615 03e8 002B     		cmp	r3, #0
 616 03ea 31D1     		bne	.L64
 347:Generated_Source\PSoC5/USBUART_std.c ****                         }
 617              		.loc 1 347 0
 618 03ec FFF7FEFF 		bl	USBUART_SetEndpointHalt
 619 03f0 0346     		mov	r3, r0
 620 03f2 FB75     		strb	r3, [r7, #23]
 349:Generated_Source\PSoC5/USBUART_std.c ****                         
 621              		.loc 1 349 0
 622 03f4 2CE0     		b	.L64
 623              	.L49:
 353:Generated_Source\PSoC5/USBUART_std.c ****                         {
 624              		.loc 1 353 0
 625 03f6 204B     		ldr	r3, .L69
 626 03f8 9B78     		ldrb	r3, [r3, #2]
 627 03fa DBB2     		uxtb	r3, r3
 628 03fc 012B     		cmp	r3, #1
 629 03fe 29D1     		bne	.L65
 355:Generated_Source\PSoC5/USBUART_std.c ****                             requestHandled = USBUART_InitNoDataControlTransfer();
 630              		.loc 1 355 0
 631 0400 224B     		ldr	r3, .L69+20
 632 0402 1B78     		ldrb	r3, [r3]
 633 0404 DBB2     		uxtb	r3, r3
 634 0406 43F00203 		orr	r3, r3, #2
 635 040a DAB2     		uxtb	r2, r3
 636 040c 1F4B     		ldr	r3, .L69+20
 637 040e 1A70     		strb	r2, [r3]
 356:Generated_Source\PSoC5/USBUART_std.c ****                         }
 638              		.loc 1 356 0
 639 0410 FFF7FEFF 		bl	USBUART_InitNoDataControlTransfer
 640 0414 0346     		mov	r3, r0
 641 0416 FB75     		strb	r3, [r7, #23]
 358:Generated_Source\PSoC5/USBUART_std.c ****                         
 642              		.loc 1 358 0
 643 0418 1CE0     		b	.L65
 644              	.L48:
 362:Generated_Source\PSoC5/USBUART_std.c ****                         {
 645              		.loc 1 362 0
 646 041a 174B     		ldr	r3, .L69
 647 041c 1B79     		ldrb	r3, [r3, #4]
 648 041e DBB2     		uxtb	r3, r3
 649 0420 012B     		cmp	r3, #1
 650 0422 19D8     		bhi	.L66
 364:Generated_Source\PSoC5/USBUART_std.c ****                             requestHandled = USBUART_InitNoDataControlTransfer();
 651              		.loc 1 364 0
ARM GAS  C:\Users\ingan\AppData\Local\Temp\ccL06Ou5.s 			page 20


 652 0424 144B     		ldr	r3, .L69
 653 0426 9B78     		ldrb	r3, [r3, #2]
 654 0428 DBB2     		uxtb	r3, r3
 655 042a DB43     		mvns	r3, r3
 656 042c DBB2     		uxtb	r3, r3
 657 042e 124A     		ldr	r2, .L69
 658 0430 1279     		ldrb	r2, [r2, #4]
 659 0432 D2B2     		uxtb	r2, r2
 660 0434 1146     		mov	r1, r2
 661 0436 1046     		mov	r0, r2
 662 0438 154A     		ldr	r2, .L69+24
 663 043a 125C     		ldrb	r2, [r2, r0]
 664 043c D2B2     		uxtb	r2, r2
 665 043e 1340     		ands	r3, r3, r2
 666 0440 DAB2     		uxtb	r2, r3
 667 0442 134B     		ldr	r3, .L69+24
 668 0444 5A54     		strb	r2, [r3, r1]
 365:Generated_Source\PSoC5/USBUART_std.c ****                         }
 669              		.loc 1 365 0
 670 0446 FFF7FEFF 		bl	USBUART_InitNoDataControlTransfer
 671 044a 0346     		mov	r3, r0
 672 044c FB75     		strb	r3, [r7, #23]
 367:Generated_Source\PSoC5/USBUART_std.c ****                     
 673              		.loc 1 367 0
 674 044e 03E0     		b	.L66
 675              	.L64:
 349:Generated_Source\PSoC5/USBUART_std.c ****                         
 676              		.loc 1 349 0
 677 0450 00BF     		nop
 678 0452 0CE0     		b	.L24
 679              	.L65:
 358:Generated_Source\PSoC5/USBUART_std.c ****                         
 680              		.loc 1 358 0
 681 0454 00BF     		nop
 682 0456 0AE0     		b	.L24
 683              	.L66:
 367:Generated_Source\PSoC5/USBUART_std.c ****                     
 684              		.loc 1 367 0
 685 0458 00BF     		nop
 686              	.L52:
 371:Generated_Source\PSoC5/USBUART_std.c ****                 }
 372:Generated_Source\PSoC5/USBUART_std.c ****                 break;
 687              		.loc 1 372 0 discriminator 11
 688 045a 08E0     		b	.L24
 689              	.L56:
 250:Generated_Source\PSoC5/USBUART_std.c ****         }
 690              		.loc 1 250 0
 691 045c 00BF     		nop
 692 045e 06E0     		b	.L24
 693              	.L57:
 211:Generated_Source\PSoC5/USBUART_std.c ****                 
 694              		.loc 1 211 0
 695 0460 00BF     		nop
 696 0462 04E0     		b	.L24
 697              	.L58:
 373:Generated_Source\PSoC5/USBUART_std.c ****                 
 374:Generated_Source\PSoC5/USBUART_std.c ****             default:    /* requestHandled is initialized as FALSE by default */
ARM GAS  C:\Users\ingan\AppData\Local\Temp\ccL06Ou5.s 			page 21


 375:Generated_Source\PSoC5/USBUART_std.c ****                 break;
 698              		.loc 1 375 0
 699 0464 00BF     		nop
 700 0466 02E0     		b	.L24
 701              	.L59:
 285:Generated_Source\PSoC5/USBUART_std.c ****                 
 702              		.loc 1 285 0
 703 0468 00BF     		nop
 704 046a 00E0     		b	.L24
 705              	.L60:
 309:Generated_Source\PSoC5/USBUART_std.c ****                 
 706              		.loc 1 309 0
 707 046c 00BF     		nop
 708              	.L24:
 376:Generated_Source\PSoC5/USBUART_std.c ****         }
 377:Generated_Source\PSoC5/USBUART_std.c ****     }
 378:Generated_Source\PSoC5/USBUART_std.c ****     
 379:Generated_Source\PSoC5/USBUART_std.c ****     return (requestHandled);
 709              		.loc 1 379 0
 710 046e FB7D     		ldrb	r3, [r7, #23]	@ zero_extendqisi2
 380:Generated_Source\PSoC5/USBUART_std.c **** }
 711              		.loc 1 380 0
 712 0470 1846     		mov	r0, r3
 713 0472 1837     		adds	r7, r7, #24
 714              		.cfi_def_cfa_offset 8
 715 0474 BD46     		mov	sp, r7
 716              		.cfi_def_cfa_register 13
 717              		@ sp needed
 718 0476 80BD     		pop	{r7, pc}
 719              	.L70:
 720              		.align	2
 721              	.L69:
 722 0478 00600040 		.word	1073766400
 723 047c 00000000 		.word	USBUART_interfaceNumber
 724 0480 00000000 		.word	USBUART_interfaceSettingLast
 725 0484 00000000 		.word	USBUART_interfaceSetting
 726 0488 00000000 		.word	USBUART_configurationChanged
 727 048c 00000000 		.word	USBUART_deviceStatus
 728 0490 00000000 		.word	USBUART_interfaceStatus
 729              		.cfi_endproc
 730              	.LFE0:
 731              		.size	USBUART_HandleStandardRqst, .-USBUART_HandleStandardRqst
 732              		.section	.rodata
 733              		.align	2
 734              	.LC0:
 735 0000 30313233 		.ascii	"0123456789ABCDEF\000"
 735      34353637 
 735      38394142 
 735      43444546 
 735      00
 736              		.section	.text.USBUART_ReadDieID,"ax",%progbits
 737              		.align	2
 738              		.global	USBUART_ReadDieID
 739              		.thumb
 740              		.thumb_func
 741              		.type	USBUART_ReadDieID, %function
 742              	USBUART_ReadDieID:
ARM GAS  C:\Users\ingan\AppData\Local\Temp\ccL06Ou5.s 			page 22


 743              	.LFB1:
 381:Generated_Source\PSoC5/USBUART_std.c **** 
 382:Generated_Source\PSoC5/USBUART_std.c **** 
 383:Generated_Source\PSoC5/USBUART_std.c **** #if defined(USBUART_ENABLE_IDSN_STRING)
 384:Generated_Source\PSoC5/USBUART_std.c ****     /***************************************************************************
 385:Generated_Source\PSoC5/USBUART_std.c ****     * Function Name: USBUART_ReadDieID
 386:Generated_Source\PSoC5/USBUART_std.c ****     ************************************************************************//**
 387:Generated_Source\PSoC5/USBUART_std.c ****     *
 388:Generated_Source\PSoC5/USBUART_std.c ****     *  This routine read Die ID and generate Serial Number string descriptor.
 389:Generated_Source\PSoC5/USBUART_std.c ****     *
 390:Generated_Source\PSoC5/USBUART_std.c ****     *  \param descr:  pointer on string descriptor. This string size has to be equal or
 391:Generated_Source\PSoC5/USBUART_std.c ****     *          greater than USBUART_IDSN_DESCR_LENGTH.
 392:Generated_Source\PSoC5/USBUART_std.c ****     *
 393:Generated_Source\PSoC5/USBUART_std.c ****     *
 394:Generated_Source\PSoC5/USBUART_std.c ****     * \reentrant
 395:Generated_Source\PSoC5/USBUART_std.c ****     *  No.
 396:Generated_Source\PSoC5/USBUART_std.c ****     *
 397:Generated_Source\PSoC5/USBUART_std.c ****     ***************************************************************************/
 398:Generated_Source\PSoC5/USBUART_std.c ****     void USBUART_ReadDieID(uint8 descr[]) 
 399:Generated_Source\PSoC5/USBUART_std.c ****     {
 744              		.loc 1 399 0
 745              		.cfi_startproc
 746              		@ args = 0, pretend = 0, frame = 40
 747              		@ frame_needed = 1, uses_anonymous_args = 0
 748 0000 B0B5     		push	{r4, r5, r7, lr}
 749              		.cfi_def_cfa_offset 16
 750              		.cfi_offset 4, -16
 751              		.cfi_offset 5, -12
 752              		.cfi_offset 7, -8
 753              		.cfi_offset 14, -4
 754 0002 8AB0     		sub	sp, sp, #40
 755              		.cfi_def_cfa_offset 56
 756 0004 00AF     		add	r7, sp, #0
 757              		.cfi_def_cfa_register 7
 758 0006 7860     		str	r0, [r7, #4]
 400:Generated_Source\PSoC5/USBUART_std.c ****         const char8 CYCODE hex[] = "0123456789ABCDEF";
 759              		.loc 1 400 0
 760 0008 324B     		ldr	r3, .L76
 761 000a 07F11404 		add	r4, r7, #20
 762 000e 1D46     		mov	r5, r3
 763 0010 0FCD     		ldmia	r5!, {r0, r1, r2, r3}
 764 0012 0FC4     		stmia	r4!, {r0, r1, r2, r3}
 765 0014 2B68     		ldr	r3, [r5]
 766 0016 2370     		strb	r3, [r4]
 401:Generated_Source\PSoC5/USBUART_std.c ****         uint8 i;
 402:Generated_Source\PSoC5/USBUART_std.c ****         uint8 j = 0u;
 767              		.loc 1 402 0
 768 0018 0023     		movs	r3, #0
 769 001a 87F82630 		strb	r3, [r7, #38]
 403:Generated_Source\PSoC5/USBUART_std.c ****         uint8 uniqueId[8u];
 404:Generated_Source\PSoC5/USBUART_std.c **** 
 405:Generated_Source\PSoC5/USBUART_std.c ****         if (NULL != descr)
 770              		.loc 1 405 0
 771 001e 7B68     		ldr	r3, [r7, #4]
 772 0020 002B     		cmp	r3, #0
 773 0022 52D0     		beq	.L75
 406:Generated_Source\PSoC5/USBUART_std.c ****         {
ARM GAS  C:\Users\ingan\AppData\Local\Temp\ccL06Ou5.s 			page 23


 407:Generated_Source\PSoC5/USBUART_std.c ****             /* Initialize descriptor header. */
 408:Generated_Source\PSoC5/USBUART_std.c ****             descr[0u] = USBUART_IDSN_DESCR_LENGTH;
 774              		.loc 1 408 0
 775 0024 7B68     		ldr	r3, [r7, #4]
 776 0026 2222     		movs	r2, #34
 777 0028 1A70     		strb	r2, [r3]
 409:Generated_Source\PSoC5/USBUART_std.c ****             descr[1u] = USBUART_DESCR_STRING;
 778              		.loc 1 409 0
 779 002a 7B68     		ldr	r3, [r7, #4]
 780 002c 0133     		adds	r3, r3, #1
 781 002e 0322     		movs	r2, #3
 782 0030 1A70     		strb	r2, [r3]
 410:Generated_Source\PSoC5/USBUART_std.c ****             
 411:Generated_Source\PSoC5/USBUART_std.c ****             /* Unique ID size is 8 bytes. */
 412:Generated_Source\PSoC5/USBUART_std.c ****             CyGetUniqueId((uint32 *) uniqueId);
 783              		.loc 1 412 0
 784 0032 07F10C03 		add	r3, r7, #12
 785 0036 1846     		mov	r0, r3
 786 0038 FFF7FEFF 		bl	CyGetUniqueId
 413:Generated_Source\PSoC5/USBUART_std.c **** 
 414:Generated_Source\PSoC5/USBUART_std.c ****             /* Fill descriptor with unique device ID. */
 415:Generated_Source\PSoC5/USBUART_std.c ****             for (i = 2u; i < USBUART_IDSN_DESCR_LENGTH; i += 4u)
 787              		.loc 1 415 0
 788 003c 0223     		movs	r3, #2
 789 003e 87F82730 		strb	r3, [r7, #39]
 790 0042 3EE0     		b	.L73
 791              	.L74:
 416:Generated_Source\PSoC5/USBUART_std.c ****             {
 417:Generated_Source\PSoC5/USBUART_std.c ****                 descr[i]      = (uint8) hex[(uniqueId[j] >> 4u)];
 792              		.loc 1 417 0 discriminator 3
 793 0044 97F82730 		ldrb	r3, [r7, #39]	@ zero_extendqisi2
 794 0048 7A68     		ldr	r2, [r7, #4]
 795 004a 1344     		add	r3, r3, r2
 796 004c 97F82620 		ldrb	r2, [r7, #38]	@ zero_extendqisi2
 797 0050 07F12801 		add	r1, r7, #40
 798 0054 0A44     		add	r2, r2, r1
 799 0056 12F81C2C 		ldrb	r2, [r2, #-28]	@ zero_extendqisi2
 800 005a 1209     		lsrs	r2, r2, #4
 801 005c D2B2     		uxtb	r2, r2
 802 005e 07F12801 		add	r1, r7, #40
 803 0062 0A44     		add	r2, r2, r1
 804 0064 12F8142C 		ldrb	r2, [r2, #-20]	@ zero_extendqisi2
 805 0068 1A70     		strb	r2, [r3]
 418:Generated_Source\PSoC5/USBUART_std.c ****                 descr[i + 1u] = 0u;
 806              		.loc 1 418 0 discriminator 3
 807 006a 97F82730 		ldrb	r3, [r7, #39]	@ zero_extendqisi2
 808 006e 0133     		adds	r3, r3, #1
 809 0070 7A68     		ldr	r2, [r7, #4]
 810 0072 1344     		add	r3, r3, r2
 811 0074 0022     		movs	r2, #0
 812 0076 1A70     		strb	r2, [r3]
 419:Generated_Source\PSoC5/USBUART_std.c ****                 descr[i + 2u] = (uint8) hex[(uniqueId[j] & 0x0Fu)];
 813              		.loc 1 419 0 discriminator 3
 814 0078 97F82730 		ldrb	r3, [r7, #39]	@ zero_extendqisi2
 815 007c 0233     		adds	r3, r3, #2
 816 007e 7A68     		ldr	r2, [r7, #4]
 817 0080 1344     		add	r3, r3, r2
ARM GAS  C:\Users\ingan\AppData\Local\Temp\ccL06Ou5.s 			page 24


 818 0082 97F82620 		ldrb	r2, [r7, #38]	@ zero_extendqisi2
 819 0086 07F12801 		add	r1, r7, #40
 820 008a 0A44     		add	r2, r2, r1
 821 008c 12F81C2C 		ldrb	r2, [r2, #-28]	@ zero_extendqisi2
 822 0090 02F00F02 		and	r2, r2, #15
 823 0094 07F12801 		add	r1, r7, #40
 824 0098 0A44     		add	r2, r2, r1
 825 009a 12F8142C 		ldrb	r2, [r2, #-20]	@ zero_extendqisi2
 826 009e 1A70     		strb	r2, [r3]
 420:Generated_Source\PSoC5/USBUART_std.c ****                 descr[i + 3u] = 0u;
 827              		.loc 1 420 0 discriminator 3
 828 00a0 97F82730 		ldrb	r3, [r7, #39]	@ zero_extendqisi2
 829 00a4 0333     		adds	r3, r3, #3
 830 00a6 7A68     		ldr	r2, [r7, #4]
 831 00a8 1344     		add	r3, r3, r2
 832 00aa 0022     		movs	r2, #0
 833 00ac 1A70     		strb	r2, [r3]
 421:Generated_Source\PSoC5/USBUART_std.c ****                 ++j;
 834              		.loc 1 421 0 discriminator 3
 835 00ae 97F82630 		ldrb	r3, [r7, #38]
 836 00b2 0133     		adds	r3, r3, #1
 837 00b4 87F82630 		strb	r3, [r7, #38]
 415:Generated_Source\PSoC5/USBUART_std.c ****             {
 838              		.loc 1 415 0 discriminator 3
 839 00b8 97F82730 		ldrb	r3, [r7, #39]
 840 00bc 0433     		adds	r3, r3, #4
 841 00be 87F82730 		strb	r3, [r7, #39]
 842              	.L73:
 415:Generated_Source\PSoC5/USBUART_std.c ****             {
 843              		.loc 1 415 0 is_stmt 0 discriminator 1
 844 00c2 97F82730 		ldrb	r3, [r7, #39]	@ zero_extendqisi2
 845 00c6 212B     		cmp	r3, #33
 846 00c8 BCD9     		bls	.L74
 847              	.L75:
 422:Generated_Source\PSoC5/USBUART_std.c ****             }
 423:Generated_Source\PSoC5/USBUART_std.c ****         }
 424:Generated_Source\PSoC5/USBUART_std.c ****     }
 848              		.loc 1 424 0 is_stmt 1
 849 00ca 00BF     		nop
 850 00cc 2837     		adds	r7, r7, #40
 851              		.cfi_def_cfa_offset 16
 852 00ce BD46     		mov	sp, r7
 853              		.cfi_def_cfa_register 13
 854              		@ sp needed
 855 00d0 B0BD     		pop	{r4, r5, r7, pc}
 856              	.L77:
 857 00d2 00BF     		.align	2
 858              	.L76:
 859 00d4 00000000 		.word	.LC0
 860              		.cfi_endproc
 861              	.LFE1:
 862              		.size	USBUART_ReadDieID, .-USBUART_ReadDieID
 863              		.section	.text.USBUART_ConfigReg,"ax",%progbits
 864              		.align	2
 865              		.global	USBUART_ConfigReg
 866              		.thumb
 867              		.thumb_func
ARM GAS  C:\Users\ingan\AppData\Local\Temp\ccL06Ou5.s 			page 25


 868              		.type	USBUART_ConfigReg, %function
 869              	USBUART_ConfigReg:
 870              	.LFB2:
 425:Generated_Source\PSoC5/USBUART_std.c **** #endif /* (USBUART_ENABLE_IDSN_STRING) */
 426:Generated_Source\PSoC5/USBUART_std.c **** 
 427:Generated_Source\PSoC5/USBUART_std.c **** 
 428:Generated_Source\PSoC5/USBUART_std.c **** /*******************************************************************************
 429:Generated_Source\PSoC5/USBUART_std.c **** * Function Name: USBUART_ConfigReg
 430:Generated_Source\PSoC5/USBUART_std.c **** ****************************************************************************//**
 431:Generated_Source\PSoC5/USBUART_std.c **** *
 432:Generated_Source\PSoC5/USBUART_std.c **** *  This routine configures hardware registers from the variables.
 433:Generated_Source\PSoC5/USBUART_std.c **** *  It is called from USBUART_Config() function and from RestoreConfig
 434:Generated_Source\PSoC5/USBUART_std.c **** *  after Wakeup.
 435:Generated_Source\PSoC5/USBUART_std.c **** *
 436:Generated_Source\PSoC5/USBUART_std.c **** *******************************************************************************/
 437:Generated_Source\PSoC5/USBUART_std.c **** void USBUART_ConfigReg(void) 
 438:Generated_Source\PSoC5/USBUART_std.c **** {
 871              		.loc 1 438 0
 872              		.cfi_startproc
 873              		@ args = 0, pretend = 0, frame = 8
 874              		@ frame_needed = 1, uses_anonymous_args = 0
 875              		@ link register save eliminated.
 876 0000 90B4     		push	{r4, r7}
 877              		.cfi_def_cfa_offset 8
 878              		.cfi_offset 4, -8
 879              		.cfi_offset 7, -4
 880 0002 82B0     		sub	sp, sp, #8
 881              		.cfi_def_cfa_offset 16
 882 0004 00AF     		add	r7, sp, #0
 883              		.cfi_def_cfa_register 7
 439:Generated_Source\PSoC5/USBUART_std.c ****     uint8 ep;
 440:Generated_Source\PSoC5/USBUART_std.c **** 
 441:Generated_Source\PSoC5/USBUART_std.c **** #if (USBUART_EP_MANAGEMENT_DMA_AUTO)
 442:Generated_Source\PSoC5/USBUART_std.c ****     uint8 epType = 0u;
 443:Generated_Source\PSoC5/USBUART_std.c **** #endif /* (USBUART_EP_MANAGEMENT_DMA_AUTO) */
 444:Generated_Source\PSoC5/USBUART_std.c **** 
 445:Generated_Source\PSoC5/USBUART_std.c ****     /* Go thought all endpoints and set hardware configuration */
 446:Generated_Source\PSoC5/USBUART_std.c ****     for (ep = USBUART_EP1; ep < USBUART_MAX_EP; ++ep)
 884              		.loc 1 446 0
 885 0006 0123     		movs	r3, #1
 886 0008 FB71     		strb	r3, [r7, #7]
 887 000a 87E0     		b	.L79
 888              	.L84:
 447:Generated_Source\PSoC5/USBUART_std.c ****     {
 448:Generated_Source\PSoC5/USBUART_std.c ****         USBUART_ARB_EP_BASE.arbEp[ep].epCfg = USBUART_ARB_EPX_CFG_DEFAULT;
 889              		.loc 1 448 0
 890 000c 494A     		ldr	r2, .L85
 891 000e FB79     		ldrb	r3, [r7, #7]	@ zero_extendqisi2
 892 0010 1B01     		lsls	r3, r3, #4
 893 0012 1344     		add	r3, r3, r2
 894 0014 0C22     		movs	r2, #12
 895 0016 1A70     		strb	r2, [r3]
 449:Generated_Source\PSoC5/USBUART_std.c ****         
 450:Generated_Source\PSoC5/USBUART_std.c ****     #if (USBUART_EP_MANAGEMENT_DMA)
 451:Generated_Source\PSoC5/USBUART_std.c ****         /* Enable arbiter endpoint interrupt sources */
 452:Generated_Source\PSoC5/USBUART_std.c ****         USBUART_ARB_EP_BASE.arbEp[ep].epIntEn = USBUART_ARB_EPX_INT_MASK;
 896              		.loc 1 452 0
ARM GAS  C:\Users\ingan\AppData\Local\Temp\ccL06Ou5.s 			page 26


 897 0018 464A     		ldr	r2, .L85
 898 001a FB79     		ldrb	r3, [r7, #7]	@ zero_extendqisi2
 899 001c 1B01     		lsls	r3, r3, #4
 900 001e 1344     		add	r3, r3, r2
 901 0020 0133     		adds	r3, r3, #1
 902 0022 1F22     		movs	r2, #31
 903 0024 1A70     		strb	r2, [r3]
 453:Generated_Source\PSoC5/USBUART_std.c ****     #endif /* (USBUART_EP_MANAGEMENT_DMA) */
 454:Generated_Source\PSoC5/USBUART_std.c ****     
 455:Generated_Source\PSoC5/USBUART_std.c ****         if (USBUART_EP[ep].epMode != USBUART_MODE_DISABLE)
 904              		.loc 1 455 0
 905 0026 FA79     		ldrb	r2, [r7, #7]	@ zero_extendqisi2
 906 0028 4349     		ldr	r1, .L85+4
 907 002a 1346     		mov	r3, r2
 908 002c 5B00     		lsls	r3, r3, #1
 909 002e 1344     		add	r3, r3, r2
 910 0030 9B00     		lsls	r3, r3, #2
 911 0032 0B44     		add	r3, r3, r1
 912 0034 0533     		adds	r3, r3, #5
 913 0036 1B78     		ldrb	r3, [r3]
 914 0038 DBB2     		uxtb	r3, r3
 915 003a 002B     		cmp	r3, #0
 916 003c 1CD0     		beq	.L80
 456:Generated_Source\PSoC5/USBUART_std.c ****         {
 457:Generated_Source\PSoC5/USBUART_std.c ****             if (0u != (USBUART_EP[ep].addr & USBUART_DIR_IN))
 917              		.loc 1 457 0
 918 003e FA79     		ldrb	r2, [r7, #7]	@ zero_extendqisi2
 919 0040 3D49     		ldr	r1, .L85+4
 920 0042 1346     		mov	r3, r2
 921 0044 5B00     		lsls	r3, r3, #1
 922 0046 1344     		add	r3, r3, r2
 923 0048 9B00     		lsls	r3, r3, #2
 924 004a 0B44     		add	r3, r3, r1
 925 004c 0433     		adds	r3, r3, #4
 926 004e 1B78     		ldrb	r3, [r3]
 927 0050 DBB2     		uxtb	r3, r3
 928 0052 5BB2     		sxtb	r3, r3
 929 0054 002B     		cmp	r3, #0
 930 0056 07DA     		bge	.L81
 458:Generated_Source\PSoC5/USBUART_std.c ****             {
 459:Generated_Source\PSoC5/USBUART_std.c ****                 USBUART_SIE_EP_BASE.sieEp[ep].epCr0 = USBUART_MODE_NAK_IN;
 931              		.loc 1 459 0
 932 0058 384A     		ldr	r2, .L85+8
 933 005a FB79     		ldrb	r3, [r7, #7]	@ zero_extendqisi2
 934 005c 1B01     		lsls	r3, r3, #4
 935 005e 1344     		add	r3, r3, r2
 936 0060 0233     		adds	r3, r3, #2
 937 0062 0C22     		movs	r2, #12
 938 0064 1A70     		strb	r2, [r3]
 939 0066 0EE0     		b	.L83
 940              	.L81:
 460:Generated_Source\PSoC5/USBUART_std.c ****                 
 461:Generated_Source\PSoC5/USBUART_std.c ****             #if (USBUART_EP_MANAGEMENT_DMA_AUTO && CY_PSOC4)
 462:Generated_Source\PSoC5/USBUART_std.c ****                 /* Clear DMA_TERMIN for IN endpoint. */
 463:Generated_Source\PSoC5/USBUART_std.c ****                 USBUART_ARB_EP_BASE.arbEp[ep].epIntEn &= (uint32) ~USBUART_ARB_EPX_INT_DMA_TERMIN;
 464:Generated_Source\PSoC5/USBUART_std.c ****             #endif /* (USBUART_EP_MANAGEMENT_DMA_AUTO && CY_PSOC4) */
 465:Generated_Source\PSoC5/USBUART_std.c ****             }
ARM GAS  C:\Users\ingan\AppData\Local\Temp\ccL06Ou5.s 			page 27


 466:Generated_Source\PSoC5/USBUART_std.c ****             else
 467:Generated_Source\PSoC5/USBUART_std.c ****             {
 468:Generated_Source\PSoC5/USBUART_std.c ****                 USBUART_SIE_EP_BASE.sieEp[ep].epCr0 = USBUART_MODE_NAK_OUT;
 941              		.loc 1 468 0
 942 0068 344A     		ldr	r2, .L85+8
 943 006a FB79     		ldrb	r3, [r7, #7]	@ zero_extendqisi2
 944 006c 1B01     		lsls	r3, r3, #4
 945 006e 1344     		add	r3, r3, r2
 946 0070 0233     		adds	r3, r3, #2
 947 0072 0822     		movs	r2, #8
 948 0074 1A70     		strb	r2, [r3]
 949 0076 06E0     		b	.L83
 950              	.L80:
 469:Generated_Source\PSoC5/USBUART_std.c **** 
 470:Generated_Source\PSoC5/USBUART_std.c ****             #if (USBUART_EP_MANAGEMENT_DMA_AUTO)
 471:Generated_Source\PSoC5/USBUART_std.c ****                 /* (CY_PSOC4): DMA_TERMIN for OUT endpoint is set above. */
 472:Generated_Source\PSoC5/USBUART_std.c ****                 
 473:Generated_Source\PSoC5/USBUART_std.c ****                 /* Prepare endpoint type mask. */
 474:Generated_Source\PSoC5/USBUART_std.c ****                 epType |= (uint8) (0x01u << (ep - USBUART_EP1));
 475:Generated_Source\PSoC5/USBUART_std.c ****             #endif /* (USBUART_EP_MANAGEMENT_DMA_AUTO) */
 476:Generated_Source\PSoC5/USBUART_std.c ****             }
 477:Generated_Source\PSoC5/USBUART_std.c ****         }
 478:Generated_Source\PSoC5/USBUART_std.c ****         else
 479:Generated_Source\PSoC5/USBUART_std.c ****         {
 480:Generated_Source\PSoC5/USBUART_std.c ****             USBUART_SIE_EP_BASE.sieEp[ep].epCr0 = USBUART_MODE_STALL_DATA_EP;
 951              		.loc 1 480 0
 952 0078 304A     		ldr	r2, .L85+8
 953 007a FB79     		ldrb	r3, [r7, #7]	@ zero_extendqisi2
 954 007c 1B01     		lsls	r3, r3, #4
 955 007e 1344     		add	r3, r3, r2
 956 0080 0233     		adds	r3, r3, #2
 957 0082 8022     		movs	r2, #128
 958 0084 1A70     		strb	r2, [r3]
 959              	.L83:
 481:Generated_Source\PSoC5/USBUART_std.c ****         }
 482:Generated_Source\PSoC5/USBUART_std.c ****         
 483:Generated_Source\PSoC5/USBUART_std.c ****     #if (!USBUART_EP_MANAGEMENT_DMA_AUTO)
 484:Generated_Source\PSoC5/USBUART_std.c ****         #if (CY_PSOC4)
 485:Generated_Source\PSoC5/USBUART_std.c ****             USBUART_ARB_EP16_BASE.arbEp[ep].rwRa16  = (uint32) USBUART_EP[ep].buffOffset;
 486:Generated_Source\PSoC5/USBUART_std.c ****             USBUART_ARB_EP16_BASE.arbEp[ep].rwWa16  = (uint32) USBUART_EP[ep].buffOffset;
 487:Generated_Source\PSoC5/USBUART_std.c ****         #else
 488:Generated_Source\PSoC5/USBUART_std.c ****             USBUART_ARB_EP_BASE.arbEp[ep].rwRa    = LO8(USBUART_EP[ep].buffOffset);
 960              		.loc 1 488 0 discriminator 2
 961 0086 2B48     		ldr	r0, .L85
 962 0088 F979     		ldrb	r1, [r7, #7]	@ zero_extendqisi2
 963 008a FA79     		ldrb	r2, [r7, #7]	@ zero_extendqisi2
 964 008c 2A4C     		ldr	r4, .L85+4
 965 008e 1346     		mov	r3, r2
 966 0090 5B00     		lsls	r3, r3, #1
 967 0092 1344     		add	r3, r3, r2
 968 0094 9B00     		lsls	r3, r3, #2
 969 0096 2344     		add	r3, r3, r4
 970 0098 0633     		adds	r3, r3, #6
 971 009a 1B88     		ldrh	r3, [r3]	@ movhi
 972 009c 9BB2     		uxth	r3, r3
 973 009e DAB2     		uxtb	r2, r3
 974 00a0 0B01     		lsls	r3, r1, #4
ARM GAS  C:\Users\ingan\AppData\Local\Temp\ccL06Ou5.s 			page 28


 975 00a2 0344     		add	r3, r3, r0
 976 00a4 0633     		adds	r3, r3, #6
 977 00a6 1A70     		strb	r2, [r3]
 489:Generated_Source\PSoC5/USBUART_std.c ****             USBUART_ARB_EP_BASE.arbEp[ep].rwRaMsb = HI8(USBUART_EP[ep].buffOffset);
 978              		.loc 1 489 0 discriminator 2
 979 00a8 2248     		ldr	r0, .L85
 980 00aa F979     		ldrb	r1, [r7, #7]	@ zero_extendqisi2
 981 00ac FA79     		ldrb	r2, [r7, #7]	@ zero_extendqisi2
 982 00ae 224C     		ldr	r4, .L85+4
 983 00b0 1346     		mov	r3, r2
 984 00b2 5B00     		lsls	r3, r3, #1
 985 00b4 1344     		add	r3, r3, r2
 986 00b6 9B00     		lsls	r3, r3, #2
 987 00b8 2344     		add	r3, r3, r4
 988 00ba 0633     		adds	r3, r3, #6
 989 00bc 1B88     		ldrh	r3, [r3]	@ movhi
 990 00be 9BB2     		uxth	r3, r3
 991 00c0 1B0A     		lsrs	r3, r3, #8
 992 00c2 9BB2     		uxth	r3, r3
 993 00c4 DAB2     		uxtb	r2, r3
 994 00c6 0B01     		lsls	r3, r1, #4
 995 00c8 0344     		add	r3, r3, r0
 996 00ca 0733     		adds	r3, r3, #7
 997 00cc 1A70     		strb	r2, [r3]
 490:Generated_Source\PSoC5/USBUART_std.c ****             USBUART_ARB_EP_BASE.arbEp[ep].rwWa    = LO8(USBUART_EP[ep].buffOffset);
 998              		.loc 1 490 0 discriminator 2
 999 00ce 1948     		ldr	r0, .L85
 1000 00d0 F979     		ldrb	r1, [r7, #7]	@ zero_extendqisi2
 1001 00d2 FA79     		ldrb	r2, [r7, #7]	@ zero_extendqisi2
 1002 00d4 184C     		ldr	r4, .L85+4
 1003 00d6 1346     		mov	r3, r2
 1004 00d8 5B00     		lsls	r3, r3, #1
 1005 00da 1344     		add	r3, r3, r2
 1006 00dc 9B00     		lsls	r3, r3, #2
 1007 00de 2344     		add	r3, r3, r4
 1008 00e0 0633     		adds	r3, r3, #6
 1009 00e2 1B88     		ldrh	r3, [r3]	@ movhi
 1010 00e4 9BB2     		uxth	r3, r3
 1011 00e6 DAB2     		uxtb	r2, r3
 1012 00e8 0B01     		lsls	r3, r1, #4
 1013 00ea 0344     		add	r3, r3, r0
 1014 00ec 0433     		adds	r3, r3, #4
 1015 00ee 1A70     		strb	r2, [r3]
 491:Generated_Source\PSoC5/USBUART_std.c ****             USBUART_ARB_EP_BASE.arbEp[ep].rwWaMsb = HI8(USBUART_EP[ep].buffOffset);
 1016              		.loc 1 491 0 discriminator 2
 1017 00f0 1048     		ldr	r0, .L85
 1018 00f2 F979     		ldrb	r1, [r7, #7]	@ zero_extendqisi2
 1019 00f4 FA79     		ldrb	r2, [r7, #7]	@ zero_extendqisi2
 1020 00f6 104C     		ldr	r4, .L85+4
 1021 00f8 1346     		mov	r3, r2
 1022 00fa 5B00     		lsls	r3, r3, #1
 1023 00fc 1344     		add	r3, r3, r2
 1024 00fe 9B00     		lsls	r3, r3, #2
 1025 0100 2344     		add	r3, r3, r4
 1026 0102 0633     		adds	r3, r3, #6
 1027 0104 1B88     		ldrh	r3, [r3]	@ movhi
 1028 0106 9BB2     		uxth	r3, r3
ARM GAS  C:\Users\ingan\AppData\Local\Temp\ccL06Ou5.s 			page 29


 1029 0108 1B0A     		lsrs	r3, r3, #8
 1030 010a 9BB2     		uxth	r3, r3
 1031 010c DAB2     		uxtb	r2, r3
 1032 010e 0B01     		lsls	r3, r1, #4
 1033 0110 0344     		add	r3, r3, r0
 1034 0112 0533     		adds	r3, r3, #5
 1035 0114 1A70     		strb	r2, [r3]
 446:Generated_Source\PSoC5/USBUART_std.c ****     {
 1036              		.loc 1 446 0 discriminator 2
 1037 0116 FB79     		ldrb	r3, [r7, #7]
 1038 0118 0133     		adds	r3, r3, #1
 1039 011a FB71     		strb	r3, [r7, #7]
 1040              	.L79:
 446:Generated_Source\PSoC5/USBUART_std.c ****     {
 1041              		.loc 1 446 0 is_stmt 0 discriminator 1
 1042 011c FB79     		ldrb	r3, [r7, #7]	@ zero_extendqisi2
 1043 011e 082B     		cmp	r3, #8
 1044 0120 7FF674AF 		bls	.L84
 492:Generated_Source\PSoC5/USBUART_std.c ****         #endif /* (CY_PSOC4) */
 493:Generated_Source\PSoC5/USBUART_std.c ****     #endif /* (!USBUART_EP_MANAGEMENT_DMA_AUTO) */
 494:Generated_Source\PSoC5/USBUART_std.c ****     }
 495:Generated_Source\PSoC5/USBUART_std.c **** 
 496:Generated_Source\PSoC5/USBUART_std.c **** #if (USBUART_EP_MANAGEMENT_DMA_AUTO)
 497:Generated_Source\PSoC5/USBUART_std.c ****      /* BUF_SIZE depend on DMA_THRESS value:0x55-32 bytes  0x44-16 bytes 0x33-8 bytes 0x22-4 bytes 
 498:Generated_Source\PSoC5/USBUART_std.c ****     USBUART_BUF_SIZE_REG = USBUART_DMA_BUF_SIZE;
 499:Generated_Source\PSoC5/USBUART_std.c **** 
 500:Generated_Source\PSoC5/USBUART_std.c ****     /* Configure DMA burst threshold */
 501:Generated_Source\PSoC5/USBUART_std.c **** #if (CY_PSOC4)
 502:Generated_Source\PSoC5/USBUART_std.c ****     USBUART_DMA_THRES16_REG   = USBUART_DMA_BYTES_PER_BURST;
 503:Generated_Source\PSoC5/USBUART_std.c **** #else
 504:Generated_Source\PSoC5/USBUART_std.c ****     USBUART_DMA_THRES_REG     = USBUART_DMA_BYTES_PER_BURST;
 505:Generated_Source\PSoC5/USBUART_std.c ****     USBUART_DMA_THRES_MSB_REG = 0u;
 506:Generated_Source\PSoC5/USBUART_std.c **** #endif /* (CY_PSOC4) */
 507:Generated_Source\PSoC5/USBUART_std.c ****     USBUART_EP_ACTIVE_REG = USBUART_DEFAULT_ARB_INT_EN;
 508:Generated_Source\PSoC5/USBUART_std.c ****     USBUART_EP_TYPE_REG   = epType;
 509:Generated_Source\PSoC5/USBUART_std.c ****     
 510:Generated_Source\PSoC5/USBUART_std.c ****     /* Cfg_cmp bit set to 1 once configuration is complete. */
 511:Generated_Source\PSoC5/USBUART_std.c ****     /* Lock arbiter configtuation */
 512:Generated_Source\PSoC5/USBUART_std.c ****     USBUART_ARB_CFG_REG |= (uint8)  USBUART_ARB_CFG_CFG_CMP;
 513:Generated_Source\PSoC5/USBUART_std.c ****     /* Cfg_cmp bit set to 0 during configuration of PFSUSB Registers. */
 514:Generated_Source\PSoC5/USBUART_std.c ****     USBUART_ARB_CFG_REG &= (uint8) ~USBUART_ARB_CFG_CFG_CMP;
 515:Generated_Source\PSoC5/USBUART_std.c **** 
 516:Generated_Source\PSoC5/USBUART_std.c **** #endif /* (USBUART_EP_MANAGEMENT_DMA_AUTO) */
 517:Generated_Source\PSoC5/USBUART_std.c **** 
 518:Generated_Source\PSoC5/USBUART_std.c ****     /* Enable interrupt SIE interurpt source from EP0-EP1 */
 519:Generated_Source\PSoC5/USBUART_std.c ****     USBUART_SIE_EP_INT_EN_REG = (uint8) USBUART_DEFAULT_SIE_EP_INT_EN;
 1045              		.loc 1 519 0 is_stmt 1
 1046 0124 064B     		ldr	r3, .L85+12
 1047 0126 FF22     		movs	r2, #255
 1048 0128 1A70     		strb	r2, [r3]
 520:Generated_Source\PSoC5/USBUART_std.c **** }
 1049              		.loc 1 520 0
 1050 012a 00BF     		nop
 1051 012c 0837     		adds	r7, r7, #8
 1052              		.cfi_def_cfa_offset 8
 1053 012e BD46     		mov	sp, r7
 1054              		.cfi_def_cfa_register 13
ARM GAS  C:\Users\ingan\AppData\Local\Temp\ccL06Ou5.s 			page 30


 1055              		@ sp needed
 1056 0130 90BC     		pop	{r4, r7}
 1057              		.cfi_restore 7
 1058              		.cfi_restore 4
 1059              		.cfi_def_cfa_offset 0
 1060 0132 7047     		bx	lr
 1061              	.L86:
 1062              		.align	2
 1063              	.L85:
 1064 0134 70600040 		.word	1073766512
 1065 0138 00000000 		.word	USBUART_EP
 1066 013c FC5F0040 		.word	1073766396
 1067 0140 0A600040 		.word	1073766410
 1068              		.cfi_endproc
 1069              	.LFE2:
 1070              		.size	USBUART_ConfigReg, .-USBUART_ConfigReg
 1071              		.section	.text.USBUART_EpStateInit,"ax",%progbits
 1072              		.align	2
 1073              		.global	USBUART_EpStateInit
 1074              		.thumb
 1075              		.thumb_func
 1076              		.type	USBUART_EpStateInit, %function
 1077              	USBUART_EpStateInit:
 1078              	.LFB3:
 521:Generated_Source\PSoC5/USBUART_std.c **** 
 522:Generated_Source\PSoC5/USBUART_std.c **** 
 523:Generated_Source\PSoC5/USBUART_std.c **** /*******************************************************************************
 524:Generated_Source\PSoC5/USBUART_std.c **** * Function Name: USBUART_EpStateInit
 525:Generated_Source\PSoC5/USBUART_std.c **** ****************************************************************************//**
 526:Generated_Source\PSoC5/USBUART_std.c **** *
 527:Generated_Source\PSoC5/USBUART_std.c **** *  This routine initialize state of Data end points based of its type: 
 528:Generated_Source\PSoC5/USBUART_std.c **** *   IN  - USBUART_IN_BUFFER_EMPTY (USBUART_EVENT_PENDING)
 529:Generated_Source\PSoC5/USBUART_std.c **** *   OUT - USBUART_OUT_BUFFER_EMPTY (USBUART_NO_EVENT_PENDING)
 530:Generated_Source\PSoC5/USBUART_std.c **** *
 531:Generated_Source\PSoC5/USBUART_std.c **** *******************************************************************************/
 532:Generated_Source\PSoC5/USBUART_std.c **** void USBUART_EpStateInit(void) 
 533:Generated_Source\PSoC5/USBUART_std.c **** {
 1079              		.loc 1 533 0
 1080              		.cfi_startproc
 1081              		@ args = 0, pretend = 0, frame = 8
 1082              		@ frame_needed = 1, uses_anonymous_args = 0
 1083              		@ link register save eliminated.
 1084 0000 80B4     		push	{r7}
 1085              		.cfi_def_cfa_offset 4
 1086              		.cfi_offset 7, -4
 1087 0002 83B0     		sub	sp, sp, #12
 1088              		.cfi_def_cfa_offset 16
 1089 0004 00AF     		add	r7, sp, #0
 1090              		.cfi_def_cfa_register 7
 534:Generated_Source\PSoC5/USBUART_std.c ****     uint8 i;
 535:Generated_Source\PSoC5/USBUART_std.c **** 
 536:Generated_Source\PSoC5/USBUART_std.c ****     for (i = USBUART_EP1; i < USBUART_MAX_EP; i++)
 1091              		.loc 1 536 0
 1092 0006 0123     		movs	r3, #1
 1093 0008 FB71     		strb	r3, [r7, #7]
 1094 000a 24E0     		b	.L88
 1095              	.L91:
ARM GAS  C:\Users\ingan\AppData\Local\Temp\ccL06Ou5.s 			page 31


 537:Generated_Source\PSoC5/USBUART_std.c ****     { 
 538:Generated_Source\PSoC5/USBUART_std.c ****         if (0u != (USBUART_EP[i].addr & USBUART_DIR_IN))
 1096              		.loc 1 538 0
 1097 000c FA79     		ldrb	r2, [r7, #7]	@ zero_extendqisi2
 1098 000e 1649     		ldr	r1, .L92
 1099 0010 1346     		mov	r3, r2
 1100 0012 5B00     		lsls	r3, r3, #1
 1101 0014 1344     		add	r3, r3, r2
 1102 0016 9B00     		lsls	r3, r3, #2
 1103 0018 0B44     		add	r3, r3, r1
 1104 001a 0433     		adds	r3, r3, #4
 1105 001c 1B78     		ldrb	r3, [r3]
 1106 001e DBB2     		uxtb	r3, r3
 1107 0020 5BB2     		sxtb	r3, r3
 1108 0022 002B     		cmp	r3, #0
 1109 0024 0ADA     		bge	.L89
 539:Generated_Source\PSoC5/USBUART_std.c ****         {
 540:Generated_Source\PSoC5/USBUART_std.c ****             /* IN Endpoint */
 541:Generated_Source\PSoC5/USBUART_std.c ****             USBUART_EP[i].apiEpState = USBUART_EVENT_PENDING;
 1110              		.loc 1 541 0
 1111 0026 FA79     		ldrb	r2, [r7, #7]	@ zero_extendqisi2
 1112 0028 0F49     		ldr	r1, .L92
 1113 002a 1346     		mov	r3, r2
 1114 002c 5B00     		lsls	r3, r3, #1
 1115 002e 1344     		add	r3, r3, r2
 1116 0030 9B00     		lsls	r3, r3, #2
 1117 0032 0B44     		add	r3, r3, r1
 1118 0034 0133     		adds	r3, r3, #1
 1119 0036 0122     		movs	r2, #1
 1120 0038 1A70     		strb	r2, [r3]
 1121 003a 09E0     		b	.L90
 1122              	.L89:
 542:Generated_Source\PSoC5/USBUART_std.c ****         }
 543:Generated_Source\PSoC5/USBUART_std.c ****         else
 544:Generated_Source\PSoC5/USBUART_std.c ****         {
 545:Generated_Source\PSoC5/USBUART_std.c ****             /* OUT Endpoint */
 546:Generated_Source\PSoC5/USBUART_std.c ****             USBUART_EP[i].apiEpState = USBUART_NO_EVENT_PENDING;
 1123              		.loc 1 546 0
 1124 003c FA79     		ldrb	r2, [r7, #7]	@ zero_extendqisi2
 1125 003e 0A49     		ldr	r1, .L92
 1126 0040 1346     		mov	r3, r2
 1127 0042 5B00     		lsls	r3, r3, #1
 1128 0044 1344     		add	r3, r3, r2
 1129 0046 9B00     		lsls	r3, r3, #2
 1130 0048 0B44     		add	r3, r3, r1
 1131 004a 0133     		adds	r3, r3, #1
 1132 004c 0022     		movs	r2, #0
 1133 004e 1A70     		strb	r2, [r3]
 1134              	.L90:
 536:Generated_Source\PSoC5/USBUART_std.c ****     { 
 1135              		.loc 1 536 0 discriminator 2
 1136 0050 FB79     		ldrb	r3, [r7, #7]	@ zero_extendqisi2
 1137 0052 0133     		adds	r3, r3, #1
 1138 0054 FB71     		strb	r3, [r7, #7]
 1139              	.L88:
 536:Generated_Source\PSoC5/USBUART_std.c ****     { 
 1140              		.loc 1 536 0 is_stmt 0 discriminator 1
ARM GAS  C:\Users\ingan\AppData\Local\Temp\ccL06Ou5.s 			page 32


 1141 0056 FB79     		ldrb	r3, [r7, #7]	@ zero_extendqisi2
 1142 0058 082B     		cmp	r3, #8
 1143 005a D7D9     		bls	.L91
 547:Generated_Source\PSoC5/USBUART_std.c ****         }
 548:Generated_Source\PSoC5/USBUART_std.c ****     }
 549:Generated_Source\PSoC5/USBUART_std.c ****                     
 550:Generated_Source\PSoC5/USBUART_std.c **** }
 1144              		.loc 1 550 0 is_stmt 1
 1145 005c 00BF     		nop
 1146 005e 0C37     		adds	r7, r7, #12
 1147              		.cfi_def_cfa_offset 4
 1148 0060 BD46     		mov	sp, r7
 1149              		.cfi_def_cfa_register 13
 1150              		@ sp needed
 1151 0062 80BC     		pop	{r7}
 1152              		.cfi_restore 7
 1153              		.cfi_def_cfa_offset 0
 1154 0064 7047     		bx	lr
 1155              	.L93:
 1156 0066 00BF     		.align	2
 1157              	.L92:
 1158 0068 00000000 		.word	USBUART_EP
 1159              		.cfi_endproc
 1160              	.LFE3:
 1161              		.size	USBUART_EpStateInit, .-USBUART_EpStateInit
 1162              		.section	.text.USBUART_Config,"ax",%progbits
 1163              		.align	2
 1164              		.global	USBUART_Config
 1165              		.thumb
 1166              		.thumb_func
 1167              		.type	USBUART_Config, %function
 1168              	USBUART_Config:
 1169              	.LFB4:
 551:Generated_Source\PSoC5/USBUART_std.c **** 
 552:Generated_Source\PSoC5/USBUART_std.c **** 
 553:Generated_Source\PSoC5/USBUART_std.c **** /*******************************************************************************
 554:Generated_Source\PSoC5/USBUART_std.c **** * Function Name: USBUART_Config
 555:Generated_Source\PSoC5/USBUART_std.c **** ****************************************************************************//**
 556:Generated_Source\PSoC5/USBUART_std.c **** *
 557:Generated_Source\PSoC5/USBUART_std.c **** *  This routine configures endpoints for the entire configuration by scanning
 558:Generated_Source\PSoC5/USBUART_std.c **** *  the configuration descriptor.
 559:Generated_Source\PSoC5/USBUART_std.c **** *
 560:Generated_Source\PSoC5/USBUART_std.c **** *  \param clearAltSetting: It configures the bAlternateSetting 0 for each interface.
 561:Generated_Source\PSoC5/USBUART_std.c **** *
 562:Generated_Source\PSoC5/USBUART_std.c **** * USBUART_interfaceClass - Initialized class array for each interface.
 563:Generated_Source\PSoC5/USBUART_std.c **** *   It is used for handling Class specific requests depend on interface class.
 564:Generated_Source\PSoC5/USBUART_std.c **** *   Different classes in multiple Alternate settings does not supported.
 565:Generated_Source\PSoC5/USBUART_std.c **** *
 566:Generated_Source\PSoC5/USBUART_std.c **** * \reentrant
 567:Generated_Source\PSoC5/USBUART_std.c **** *  No.
 568:Generated_Source\PSoC5/USBUART_std.c **** *
 569:Generated_Source\PSoC5/USBUART_std.c **** *******************************************************************************/
 570:Generated_Source\PSoC5/USBUART_std.c **** void USBUART_Config(uint8 clearAltSetting) 
 571:Generated_Source\PSoC5/USBUART_std.c **** {
 1170              		.loc 1 571 0
 1171              		.cfi_startproc
 1172              		@ args = 0, pretend = 0, frame = 40
ARM GAS  C:\Users\ingan\AppData\Local\Temp\ccL06Ou5.s 			page 33


 1173              		@ frame_needed = 1, uses_anonymous_args = 0
 1174 0000 80B5     		push	{r7, lr}
 1175              		.cfi_def_cfa_offset 8
 1176              		.cfi_offset 7, -8
 1177              		.cfi_offset 14, -4
 1178 0002 8AB0     		sub	sp, sp, #40
 1179              		.cfi_def_cfa_offset 48
 1180 0004 00AF     		add	r7, sp, #0
 1181              		.cfi_def_cfa_register 7
 1182 0006 0346     		mov	r3, r0
 1183 0008 FB71     		strb	r3, [r7, #7]
 572:Generated_Source\PSoC5/USBUART_std.c ****     uint8 ep;
 573:Generated_Source\PSoC5/USBUART_std.c ****     uint8 curEp;
 574:Generated_Source\PSoC5/USBUART_std.c ****     uint8 i;
 575:Generated_Source\PSoC5/USBUART_std.c ****     uint8 epType;
 576:Generated_Source\PSoC5/USBUART_std.c ****     const uint8 *pDescr;
 577:Generated_Source\PSoC5/USBUART_std.c ****     
 578:Generated_Source\PSoC5/USBUART_std.c ****     #if (!USBUART_EP_MANAGEMENT_DMA_AUTO)
 579:Generated_Source\PSoC5/USBUART_std.c ****         uint16 buffCount = 0u;
 1184              		.loc 1 579 0
 1185 000a 0023     		movs	r3, #0
 1186 000c 7B84     		strh	r3, [r7, #34]	@ movhi
 580:Generated_Source\PSoC5/USBUART_std.c ****     #endif /* (!USBUART_EP_MANAGEMENT_DMA_AUTO) */
 581:Generated_Source\PSoC5/USBUART_std.c **** 
 582:Generated_Source\PSoC5/USBUART_std.c ****     const T_USBUART_LUT CYCODE *pTmp;
 583:Generated_Source\PSoC5/USBUART_std.c ****     const T_USBUART_EP_SETTINGS_BLOCK CYCODE *pEP;
 584:Generated_Source\PSoC5/USBUART_std.c **** 
 585:Generated_Source\PSoC5/USBUART_std.c ****     /* Clear endpoints settings */
 586:Generated_Source\PSoC5/USBUART_std.c ****     for (ep = 0u; ep < USBUART_MAX_EP; ++ep)
 1187              		.loc 1 586 0
 1188 000e 0023     		movs	r3, #0
 1189 0010 87F82730 		strb	r3, [r7, #39]
 1190 0014 50E0     		b	.L95
 1191              	.L96:
 587:Generated_Source\PSoC5/USBUART_std.c ****     {
 588:Generated_Source\PSoC5/USBUART_std.c ****         USBUART_EP[ep].attrib     = 0u;
 1192              		.loc 1 588 0 discriminator 3
 1193 0016 97F82720 		ldrb	r2, [r7, #39]	@ zero_extendqisi2
 1194 001a B349     		ldr	r1, .L121
 1195 001c 1346     		mov	r3, r2
 1196 001e 5B00     		lsls	r3, r3, #1
 1197 0020 1344     		add	r3, r3, r2
 1198 0022 9B00     		lsls	r3, r3, #2
 1199 0024 0B44     		add	r3, r3, r1
 1200 0026 0022     		movs	r2, #0
 1201 0028 1A70     		strb	r2, [r3]
 589:Generated_Source\PSoC5/USBUART_std.c ****         USBUART_EP[ep].hwEpState  = 0u;
 1202              		.loc 1 589 0 discriminator 3
 1203 002a 97F82720 		ldrb	r2, [r7, #39]	@ zero_extendqisi2
 1204 002e AE49     		ldr	r1, .L121
 1205 0030 1346     		mov	r3, r2
 1206 0032 5B00     		lsls	r3, r3, #1
 1207 0034 1344     		add	r3, r3, r2
 1208 0036 9B00     		lsls	r3, r3, #2
 1209 0038 0B44     		add	r3, r3, r1
 1210 003a 0233     		adds	r3, r3, #2
 1211 003c 0022     		movs	r2, #0
ARM GAS  C:\Users\ingan\AppData\Local\Temp\ccL06Ou5.s 			page 34


 1212 003e 1A70     		strb	r2, [r3]
 590:Generated_Source\PSoC5/USBUART_std.c ****         USBUART_EP[ep].epToggle   = 0u;
 1213              		.loc 1 590 0 discriminator 3
 1214 0040 97F82720 		ldrb	r2, [r7, #39]	@ zero_extendqisi2
 1215 0044 A849     		ldr	r1, .L121
 1216 0046 1346     		mov	r3, r2
 1217 0048 5B00     		lsls	r3, r3, #1
 1218 004a 1344     		add	r3, r3, r2
 1219 004c 9B00     		lsls	r3, r3, #2
 1220 004e 0B44     		add	r3, r3, r1
 1221 0050 0333     		adds	r3, r3, #3
 1222 0052 0022     		movs	r2, #0
 1223 0054 1A70     		strb	r2, [r3]
 591:Generated_Source\PSoC5/USBUART_std.c ****         USBUART_EP[ep].bufferSize = 0u;
 1224              		.loc 1 591 0 discriminator 3
 1225 0056 97F82720 		ldrb	r2, [r7, #39]	@ zero_extendqisi2
 1226 005a A349     		ldr	r1, .L121
 1227 005c 1346     		mov	r3, r2
 1228 005e 5B00     		lsls	r3, r3, #1
 1229 0060 1344     		add	r3, r3, r2
 1230 0062 9B00     		lsls	r3, r3, #2
 1231 0064 0B44     		add	r3, r3, r1
 1232 0066 0833     		adds	r3, r3, #8
 1233 0068 0022     		movs	r2, #0
 1234 006a 1A80     		strh	r2, [r3]	@ movhi
 592:Generated_Source\PSoC5/USBUART_std.c ****         USBUART_EP[ep].interface  = 0u;
 1235              		.loc 1 592 0 discriminator 3
 1236 006c 97F82720 		ldrb	r2, [r7, #39]	@ zero_extendqisi2
 1237 0070 9D49     		ldr	r1, .L121
 1238 0072 1346     		mov	r3, r2
 1239 0074 5B00     		lsls	r3, r3, #1
 1240 0076 1344     		add	r3, r3, r2
 1241 0078 9B00     		lsls	r3, r3, #2
 1242 007a 0B44     		add	r3, r3, r1
 1243 007c 0A33     		adds	r3, r3, #10
 1244 007e 0022     		movs	r2, #0
 1245 0080 1A70     		strb	r2, [r3]
 593:Generated_Source\PSoC5/USBUART_std.c ****         USBUART_EP[ep].apiEpState = USBUART_NO_EVENT_PENDING;
 1246              		.loc 1 593 0 discriminator 3
 1247 0082 97F82720 		ldrb	r2, [r7, #39]	@ zero_extendqisi2
 1248 0086 9849     		ldr	r1, .L121
 1249 0088 1346     		mov	r3, r2
 1250 008a 5B00     		lsls	r3, r3, #1
 1251 008c 1344     		add	r3, r3, r2
 1252 008e 9B00     		lsls	r3, r3, #2
 1253 0090 0B44     		add	r3, r3, r1
 1254 0092 0133     		adds	r3, r3, #1
 1255 0094 0022     		movs	r2, #0
 1256 0096 1A70     		strb	r2, [r3]
 594:Generated_Source\PSoC5/USBUART_std.c ****         USBUART_EP[ep].epMode     = USBUART_MODE_DISABLE;   
 1257              		.loc 1 594 0 discriminator 3
 1258 0098 97F82720 		ldrb	r2, [r7, #39]	@ zero_extendqisi2
 1259 009c 9249     		ldr	r1, .L121
 1260 009e 1346     		mov	r3, r2
 1261 00a0 5B00     		lsls	r3, r3, #1
 1262 00a2 1344     		add	r3, r3, r2
 1263 00a4 9B00     		lsls	r3, r3, #2
ARM GAS  C:\Users\ingan\AppData\Local\Temp\ccL06Ou5.s 			page 35


 1264 00a6 0B44     		add	r3, r3, r1
 1265 00a8 0533     		adds	r3, r3, #5
 1266 00aa 0022     		movs	r2, #0
 1267 00ac 1A70     		strb	r2, [r3]
 586:Generated_Source\PSoC5/USBUART_std.c ****     {
 1268              		.loc 1 586 0 discriminator 3
 1269 00ae 97F82730 		ldrb	r3, [r7, #39]
 1270 00b2 0133     		adds	r3, r3, #1
 1271 00b4 87F82730 		strb	r3, [r7, #39]
 1272              	.L95:
 586:Generated_Source\PSoC5/USBUART_std.c ****     {
 1273              		.loc 1 586 0 is_stmt 0 discriminator 1
 1274 00b8 97F82730 		ldrb	r3, [r7, #39]	@ zero_extendqisi2
 1275 00bc 082B     		cmp	r3, #8
 1276 00be AAD9     		bls	.L96
 595:Generated_Source\PSoC5/USBUART_std.c ****     }
 596:Generated_Source\PSoC5/USBUART_std.c **** 
 597:Generated_Source\PSoC5/USBUART_std.c ****     /* Clear Alternate settings for all interfaces. */
 598:Generated_Source\PSoC5/USBUART_std.c ****     if (0u != clearAltSetting)
 1277              		.loc 1 598 0 is_stmt 1
 1278 00c0 FB79     		ldrb	r3, [r7, #7]	@ zero_extendqisi2
 1279 00c2 002B     		cmp	r3, #0
 1280 00c4 16D0     		beq	.L97
 599:Generated_Source\PSoC5/USBUART_std.c ****     {
 600:Generated_Source\PSoC5/USBUART_std.c ****         for (i = 0u; i < USBUART_MAX_INTERFACES_NUMBER; ++i)
 1281              		.loc 1 600 0
 1282 00c6 0023     		movs	r3, #0
 1283 00c8 87F82530 		strb	r3, [r7, #37]
 1284 00cc 0EE0     		b	.L98
 1285              	.L99:
 601:Generated_Source\PSoC5/USBUART_std.c ****         {
 602:Generated_Source\PSoC5/USBUART_std.c ****             USBUART_interfaceSetting[i]     = 0u;
 1286              		.loc 1 602 0 discriminator 3
 1287 00ce 97F82530 		ldrb	r3, [r7, #37]	@ zero_extendqisi2
 1288 00d2 864A     		ldr	r2, .L121+4
 1289 00d4 0021     		movs	r1, #0
 1290 00d6 D154     		strb	r1, [r2, r3]
 603:Generated_Source\PSoC5/USBUART_std.c ****             USBUART_interfaceSettingLast[i] = 0u;
 1291              		.loc 1 603 0 discriminator 3
 1292 00d8 97F82530 		ldrb	r3, [r7, #37]	@ zero_extendqisi2
 1293 00dc 844A     		ldr	r2, .L121+8
 1294 00de 0021     		movs	r1, #0
 1295 00e0 D154     		strb	r1, [r2, r3]
 600:Generated_Source\PSoC5/USBUART_std.c ****         {
 1296              		.loc 1 600 0 discriminator 3
 1297 00e2 97F82530 		ldrb	r3, [r7, #37]
 1298 00e6 0133     		adds	r3, r3, #1
 1299 00e8 87F82530 		strb	r3, [r7, #37]
 1300              	.L98:
 600:Generated_Source\PSoC5/USBUART_std.c ****         {
 1301              		.loc 1 600 0 is_stmt 0 discriminator 1
 1302 00ec 97F82530 		ldrb	r3, [r7, #37]	@ zero_extendqisi2
 1303 00f0 012B     		cmp	r3, #1
 1304 00f2 ECD9     		bls	.L99
 1305              	.L97:
 604:Generated_Source\PSoC5/USBUART_std.c ****         }
 605:Generated_Source\PSoC5/USBUART_std.c ****     }
ARM GAS  C:\Users\ingan\AppData\Local\Temp\ccL06Ou5.s 			page 36


 606:Generated_Source\PSoC5/USBUART_std.c **** 
 607:Generated_Source\PSoC5/USBUART_std.c ****     /* Init Endpoints and Device Status if configured */
 608:Generated_Source\PSoC5/USBUART_std.c ****     if (USBUART_configuration > 0u)
 1306              		.loc 1 608 0 is_stmt 1
 1307 00f4 7F4B     		ldr	r3, .L121+12
 1308 00f6 1B78     		ldrb	r3, [r3]
 1309 00f8 DBB2     		uxtb	r3, r3
 1310 00fa 002B     		cmp	r3, #0
 1311 00fc 00F05181 		beq	.L120
 1312              	.LBB2:
 609:Generated_Source\PSoC5/USBUART_std.c ****     {
 610:Generated_Source\PSoC5/USBUART_std.c ****         #if defined(USBUART_ENABLE_CDC_CLASS)
 611:Generated_Source\PSoC5/USBUART_std.c ****             uint8 cdcComNums = 0u;
 1313              		.loc 1 611 0
 1314 0100 0023     		movs	r3, #0
 1315 0102 FB76     		strb	r3, [r7, #27]
 612:Generated_Source\PSoC5/USBUART_std.c ****         #endif  /* (USBUART_ENABLE_CDC_CLASS) */  
 613:Generated_Source\PSoC5/USBUART_std.c **** 
 614:Generated_Source\PSoC5/USBUART_std.c ****         pTmp = USBUART_GetConfigTablePtr(USBUART_configuration - 1u);
 1316              		.loc 1 614 0
 1317 0104 7B4B     		ldr	r3, .L121+12
 1318 0106 1B78     		ldrb	r3, [r3]
 1319 0108 DBB2     		uxtb	r3, r3
 1320 010a 013B     		subs	r3, r3, #1
 1321 010c DBB2     		uxtb	r3, r3
 1322 010e 1846     		mov	r0, r3
 1323 0110 FFF7FEFF 		bl	USBUART_GetConfigTablePtr
 1324 0114 7861     		str	r0, [r7, #20]
 615:Generated_Source\PSoC5/USBUART_std.c ****         
 616:Generated_Source\PSoC5/USBUART_std.c ****         /* Set Power status for current configuration */
 617:Generated_Source\PSoC5/USBUART_std.c ****         pDescr = (const uint8 *)pTmp->p_list;
 1325              		.loc 1 617 0
 1326 0116 7B69     		ldr	r3, [r7, #20]
 1327 0118 5B68     		ldr	r3, [r3, #4]
 1328 011a 3B61     		str	r3, [r7, #16]
 618:Generated_Source\PSoC5/USBUART_std.c ****         if ((pDescr[USBUART_CONFIG_DESCR_ATTRIB] & USBUART_CONFIG_DESCR_ATTRIB_SELF_POWERED) != 0u)
 1329              		.loc 1 618 0
 1330 011c 3B69     		ldr	r3, [r7, #16]
 1331 011e 0733     		adds	r3, r3, #7
 1332 0120 1B78     		ldrb	r3, [r3]	@ zero_extendqisi2
 1333 0122 03F04003 		and	r3, r3, #64
 1334 0126 002B     		cmp	r3, #0
 1335 0128 08D0     		beq	.L101
 619:Generated_Source\PSoC5/USBUART_std.c ****         {
 620:Generated_Source\PSoC5/USBUART_std.c ****             USBUART_deviceStatus |= (uint8)  USBUART_DEVICE_STATUS_SELF_POWERED;
 1336              		.loc 1 620 0
 1337 012a 734B     		ldr	r3, .L121+16
 1338 012c 1B78     		ldrb	r3, [r3]
 1339 012e DBB2     		uxtb	r3, r3
 1340 0130 43F00103 		orr	r3, r3, #1
 1341 0134 DAB2     		uxtb	r2, r3
 1342 0136 704B     		ldr	r3, .L121+16
 1343 0138 1A70     		strb	r2, [r3]
 1344 013a 07E0     		b	.L102
 1345              	.L101:
 621:Generated_Source\PSoC5/USBUART_std.c ****         }
 622:Generated_Source\PSoC5/USBUART_std.c ****         else
ARM GAS  C:\Users\ingan\AppData\Local\Temp\ccL06Ou5.s 			page 37


 623:Generated_Source\PSoC5/USBUART_std.c ****         {
 624:Generated_Source\PSoC5/USBUART_std.c ****             USBUART_deviceStatus &= (uint8) ~USBUART_DEVICE_STATUS_SELF_POWERED;
 1346              		.loc 1 624 0
 1347 013c 6E4B     		ldr	r3, .L121+16
 1348 013e 1B78     		ldrb	r3, [r3]
 1349 0140 DBB2     		uxtb	r3, r3
 1350 0142 23F00103 		bic	r3, r3, #1
 1351 0146 DAB2     		uxtb	r2, r3
 1352 0148 6B4B     		ldr	r3, .L121+16
 1353 014a 1A70     		strb	r2, [r3]
 1354              	.L102:
 625:Generated_Source\PSoC5/USBUART_std.c ****         }
 626:Generated_Source\PSoC5/USBUART_std.c ****         
 627:Generated_Source\PSoC5/USBUART_std.c ****         /* Move to next element */
 628:Generated_Source\PSoC5/USBUART_std.c ****         pTmp = &pTmp[1u];
 1355              		.loc 1 628 0
 1356 014c 7B69     		ldr	r3, [r7, #20]
 1357 014e 0833     		adds	r3, r3, #8
 1358 0150 7B61     		str	r3, [r7, #20]
 629:Generated_Source\PSoC5/USBUART_std.c ****         ep = pTmp->c;  /* For this table, c is the number of endpoints configurations  */
 1359              		.loc 1 629 0
 1360 0152 7B69     		ldr	r3, [r7, #20]
 1361 0154 1B78     		ldrb	r3, [r3]
 1362 0156 87F82730 		strb	r3, [r7, #39]
 630:Generated_Source\PSoC5/USBUART_std.c **** 
 631:Generated_Source\PSoC5/USBUART_std.c ****         #if (USBUART_EP_MANAGEMENT_MANUAL && USBUART_EP_ALLOC_DYNAMIC)
 632:Generated_Source\PSoC5/USBUART_std.c ****             /* Configure for dynamic EP memory allocation */
 633:Generated_Source\PSoC5/USBUART_std.c ****             /* p_list points the endpoint setting table. */
 634:Generated_Source\PSoC5/USBUART_std.c ****             pEP = (T_USBUART_EP_SETTINGS_BLOCK *) pTmp->p_list;
 635:Generated_Source\PSoC5/USBUART_std.c ****             
 636:Generated_Source\PSoC5/USBUART_std.c ****             for (i = 0u; i < ep; i++)
 637:Generated_Source\PSoC5/USBUART_std.c ****             {     
 638:Generated_Source\PSoC5/USBUART_std.c ****                 /* Compare current Alternate setting with EP Alt */
 639:Generated_Source\PSoC5/USBUART_std.c ****                 if (USBUART_interfaceSetting[pEP->interface] == pEP->altSetting)
 640:Generated_Source\PSoC5/USBUART_std.c ****                 {                                                          
 641:Generated_Source\PSoC5/USBUART_std.c ****                     curEp  = pEP->addr & USBUART_DIR_UNUSED;
 642:Generated_Source\PSoC5/USBUART_std.c ****                     epType = pEP->attributes & USBUART_EP_TYPE_MASK;
 643:Generated_Source\PSoC5/USBUART_std.c ****                     
 644:Generated_Source\PSoC5/USBUART_std.c ****                     USBUART_EP[curEp].addr       = pEP->addr;
 645:Generated_Source\PSoC5/USBUART_std.c ****                     USBUART_EP[curEp].attrib     = pEP->attributes;
 646:Generated_Source\PSoC5/USBUART_std.c ****                     USBUART_EP[curEp].bufferSize = pEP->bufferSize;
 647:Generated_Source\PSoC5/USBUART_std.c **** 
 648:Generated_Source\PSoC5/USBUART_std.c ****                     if (0u != (pEP->addr & USBUART_DIR_IN))
 649:Generated_Source\PSoC5/USBUART_std.c ****                     {
 650:Generated_Source\PSoC5/USBUART_std.c ****                         /* IN Endpoint */
 651:Generated_Source\PSoC5/USBUART_std.c ****                         USBUART_EP[curEp].epMode     = USBUART_GET_ACTIVE_IN_EP_CR0_MODE(epType);
 652:Generated_Source\PSoC5/USBUART_std.c ****                         USBUART_EP[curEp].apiEpState = USBUART_EVENT_PENDING;
 653:Generated_Source\PSoC5/USBUART_std.c ****                     
 654:Generated_Source\PSoC5/USBUART_std.c ****                     #if (defined(USBUART_ENABLE_MIDI_STREAMING) && (USBUART_MIDI_IN_BUFF_SIZE > 0))
 655:Generated_Source\PSoC5/USBUART_std.c ****                         if ((pEP->bMisc == USBUART_CLASS_AUDIO) && (epType == USBUART_EP_TYPE_BULK)
 656:Generated_Source\PSoC5/USBUART_std.c ****                         {
 657:Generated_Source\PSoC5/USBUART_std.c ****                             USBUART_midi_in_ep = curEp;
 658:Generated_Source\PSoC5/USBUART_std.c ****                         }
 659:Generated_Source\PSoC5/USBUART_std.c ****                     #endif  /* (USBUART_ENABLE_MIDI_STREAMING) */
 660:Generated_Source\PSoC5/USBUART_std.c ****                     }
 661:Generated_Source\PSoC5/USBUART_std.c ****                     else
 662:Generated_Source\PSoC5/USBUART_std.c ****                     {
ARM GAS  C:\Users\ingan\AppData\Local\Temp\ccL06Ou5.s 			page 38


 663:Generated_Source\PSoC5/USBUART_std.c ****                         /* OUT Endpoint */
 664:Generated_Source\PSoC5/USBUART_std.c ****                         USBUART_EP[curEp].epMode     = USBUART_GET_ACTIVE_OUT_EP_CR0_MODE(epType);
 665:Generated_Source\PSoC5/USBUART_std.c ****                         USBUART_EP[curEp].apiEpState = USBUART_NO_EVENT_PENDING;
 666:Generated_Source\PSoC5/USBUART_std.c ****                         
 667:Generated_Source\PSoC5/USBUART_std.c ****                     #if (defined(USBUART_ENABLE_MIDI_STREAMING) && (USBUART_MIDI_OUT_BUFF_SIZE > 0)
 668:Generated_Source\PSoC5/USBUART_std.c ****                         if ((pEP->bMisc == USBUART_CLASS_AUDIO) && (epType == USBUART_EP_TYPE_BULK)
 669:Generated_Source\PSoC5/USBUART_std.c ****                         {
 670:Generated_Source\PSoC5/USBUART_std.c ****                             USBUART_midi_out_ep = curEp;
 671:Generated_Source\PSoC5/USBUART_std.c ****                         }
 672:Generated_Source\PSoC5/USBUART_std.c ****                     #endif  /* (USBUART_ENABLE_MIDI_STREAMING) */
 673:Generated_Source\PSoC5/USBUART_std.c ****                     }
 674:Generated_Source\PSoC5/USBUART_std.c **** 
 675:Generated_Source\PSoC5/USBUART_std.c ****                 #if(defined (USBUART_ENABLE_CDC_CLASS))
 676:Generated_Source\PSoC5/USBUART_std.c ****                     if((pEP->bMisc == USBUART_CLASS_CDC_DATA) ||(pEP->bMisc == USBUART_CLASS_CDC))
 677:Generated_Source\PSoC5/USBUART_std.c ****                     {
 678:Generated_Source\PSoC5/USBUART_std.c ****                         cdcComNums = USBUART_Cdc_EpInit(pEP, curEp, cdcComNums);
 679:Generated_Source\PSoC5/USBUART_std.c ****                     }
 680:Generated_Source\PSoC5/USBUART_std.c ****                 #endif  /* (USBUART_ENABLE_CDC_CLASS) */
 681:Generated_Source\PSoC5/USBUART_std.c ****                 }
 682:Generated_Source\PSoC5/USBUART_std.c ****                 
 683:Generated_Source\PSoC5/USBUART_std.c ****                 pEP = &pEP[1u];
 684:Generated_Source\PSoC5/USBUART_std.c ****             }
 685:Generated_Source\PSoC5/USBUART_std.c ****             
 686:Generated_Source\PSoC5/USBUART_std.c ****         #else
 687:Generated_Source\PSoC5/USBUART_std.c ****             for (i = USBUART_EP1; i < USBUART_MAX_EP; ++i)
 1363              		.loc 1 687 0
 1364 015a 0123     		movs	r3, #1
 1365 015c 87F82530 		strb	r3, [r7, #37]
 1366 0160 B6E0     		b	.L103
 1367              	.L115:
 688:Generated_Source\PSoC5/USBUART_std.c ****             {
 689:Generated_Source\PSoC5/USBUART_std.c ****                 /* p_list points the endpoint setting table. */
 690:Generated_Source\PSoC5/USBUART_std.c ****                 pEP = (const T_USBUART_EP_SETTINGS_BLOCK CYCODE *) pTmp->p_list;
 1368              		.loc 1 690 0
 1369 0162 7B69     		ldr	r3, [r7, #20]
 1370 0164 5B68     		ldr	r3, [r3, #4]
 1371 0166 FB61     		str	r3, [r7, #28]
 691:Generated_Source\PSoC5/USBUART_std.c ****                 /* Find max length for each EP and select it (length could be different in differen
 692:Generated_Source\PSoC5/USBUART_std.c ****                 /* but other settings should be correct with regards to Interface alt Setting */
 693:Generated_Source\PSoC5/USBUART_std.c ****                 
 694:Generated_Source\PSoC5/USBUART_std.c ****                 for (curEp = 0u; curEp < ep; ++curEp)
 1372              		.loc 1 694 0
 1373 0168 0023     		movs	r3, #0
 1374 016a 87F82630 		strb	r3, [r7, #38]
 1375 016e A3E0     		b	.L104
 1376              	.L114:
 695:Generated_Source\PSoC5/USBUART_std.c ****                 {
 696:Generated_Source\PSoC5/USBUART_std.c ****                     if (i == (pEP->addr & USBUART_DIR_UNUSED))
 1377              		.loc 1 696 0
 1378 0170 97F82520 		ldrb	r2, [r7, #37]	@ zero_extendqisi2
 1379 0174 FB69     		ldr	r3, [r7, #28]
 1380 0176 9B78     		ldrb	r3, [r3, #2]	@ zero_extendqisi2
 1381 0178 03F07F03 		and	r3, r3, #127
 1382 017c 9A42     		cmp	r2, r3
 1383 017e 40F09380 		bne	.L105
 697:Generated_Source\PSoC5/USBUART_std.c ****                     {
 698:Generated_Source\PSoC5/USBUART_std.c ****                         /* Compare endpoint buffers size with current size to find greater. */
ARM GAS  C:\Users\ingan\AppData\Local\Temp\ccL06Ou5.s 			page 39


 699:Generated_Source\PSoC5/USBUART_std.c ****                         if (USBUART_EP[i].bufferSize < pEP->bufferSize)
 1384              		.loc 1 699 0
 1385 0182 97F82520 		ldrb	r2, [r7, #37]	@ zero_extendqisi2
 1386 0186 5849     		ldr	r1, .L121
 1387 0188 1346     		mov	r3, r2
 1388 018a 5B00     		lsls	r3, r3, #1
 1389 018c 1344     		add	r3, r3, r2
 1390 018e 9B00     		lsls	r3, r3, #2
 1391 0190 0B44     		add	r3, r3, r1
 1392 0192 0833     		adds	r3, r3, #8
 1393 0194 1B88     		ldrh	r3, [r3]	@ movhi
 1394 0196 9AB2     		uxth	r2, r3
 1395 0198 FB69     		ldr	r3, [r7, #28]
 1396 019a 9B88     		ldrh	r3, [r3, #4]
 1397 019c 9A42     		cmp	r2, r3
 1398 019e 0CD2     		bcs	.L106
 700:Generated_Source\PSoC5/USBUART_std.c ****                         {
 701:Generated_Source\PSoC5/USBUART_std.c ****                             USBUART_EP[i].bufferSize = pEP->bufferSize;
 1399              		.loc 1 701 0
 1400 01a0 97F82520 		ldrb	r2, [r7, #37]	@ zero_extendqisi2
 1401 01a4 FB69     		ldr	r3, [r7, #28]
 1402 01a6 9888     		ldrh	r0, [r3, #4]
 1403 01a8 4F49     		ldr	r1, .L121
 1404 01aa 1346     		mov	r3, r2
 1405 01ac 5B00     		lsls	r3, r3, #1
 1406 01ae 1344     		add	r3, r3, r2
 1407 01b0 9B00     		lsls	r3, r3, #2
 1408 01b2 0B44     		add	r3, r3, r1
 1409 01b4 0833     		adds	r3, r3, #8
 1410 01b6 0246     		mov	r2, r0	@ movhi
 1411 01b8 1A80     		strh	r2, [r3]	@ movhi
 1412              	.L106:
 702:Generated_Source\PSoC5/USBUART_std.c ****                         }
 703:Generated_Source\PSoC5/USBUART_std.c ****                         
 704:Generated_Source\PSoC5/USBUART_std.c ****                         /* Compare current Alternate setting with EP Alt */
 705:Generated_Source\PSoC5/USBUART_std.c ****                         if (USBUART_interfaceSetting[pEP->interface] == pEP->altSetting)
 1413              		.loc 1 705 0
 1414 01ba FB69     		ldr	r3, [r7, #28]
 1415 01bc 1B78     		ldrb	r3, [r3]	@ zero_extendqisi2
 1416 01be 1A46     		mov	r2, r3
 1417 01c0 4A4B     		ldr	r3, .L121+4
 1418 01c2 9B5C     		ldrb	r3, [r3, r2]
 1419 01c4 DAB2     		uxtb	r2, r3
 1420 01c6 FB69     		ldr	r3, [r7, #28]
 1421 01c8 5B78     		ldrb	r3, [r3, #1]	@ zero_extendqisi2
 1422 01ca 9A42     		cmp	r2, r3
 1423 01cc 6CD1     		bne	.L105
 706:Generated_Source\PSoC5/USBUART_std.c ****                         {                            
 707:Generated_Source\PSoC5/USBUART_std.c ****                             USBUART_EP[i].addr = pEP->addr;
 1424              		.loc 1 707 0
 1425 01ce 97F82520 		ldrb	r2, [r7, #37]	@ zero_extendqisi2
 1426 01d2 FB69     		ldr	r3, [r7, #28]
 1427 01d4 9878     		ldrb	r0, [r3, #2]	@ zero_extendqisi2
 1428 01d6 4449     		ldr	r1, .L121
 1429 01d8 1346     		mov	r3, r2
 1430 01da 5B00     		lsls	r3, r3, #1
 1431 01dc 1344     		add	r3, r3, r2
ARM GAS  C:\Users\ingan\AppData\Local\Temp\ccL06Ou5.s 			page 40


 1432 01de 9B00     		lsls	r3, r3, #2
 1433 01e0 0B44     		add	r3, r3, r1
 1434 01e2 0433     		adds	r3, r3, #4
 1435 01e4 0246     		mov	r2, r0
 1436 01e6 1A70     		strb	r2, [r3]
 708:Generated_Source\PSoC5/USBUART_std.c ****                             USBUART_EP[i].attrib = pEP->attributes;
 1437              		.loc 1 708 0
 1438 01e8 97F82520 		ldrb	r2, [r7, #37]	@ zero_extendqisi2
 1439 01ec FB69     		ldr	r3, [r7, #28]
 1440 01ee D878     		ldrb	r0, [r3, #3]	@ zero_extendqisi2
 1441 01f0 3D49     		ldr	r1, .L121
 1442 01f2 1346     		mov	r3, r2
 1443 01f4 5B00     		lsls	r3, r3, #1
 1444 01f6 1344     		add	r3, r3, r2
 1445 01f8 9B00     		lsls	r3, r3, #2
 1446 01fa 0B44     		add	r3, r3, r1
 1447 01fc 0246     		mov	r2, r0
 1448 01fe 1A70     		strb	r2, [r3]
 709:Generated_Source\PSoC5/USBUART_std.c ****                             
 710:Generated_Source\PSoC5/USBUART_std.c ****                             epType = pEP->attributes & USBUART_EP_TYPE_MASK;
 1449              		.loc 1 710 0
 1450 0200 FB69     		ldr	r3, [r7, #28]
 1451 0202 DB78     		ldrb	r3, [r3, #3]	@ zero_extendqisi2
 1452 0204 03F00303 		and	r3, r3, #3
 1453 0208 FB73     		strb	r3, [r7, #15]
 711:Generated_Source\PSoC5/USBUART_std.c ****                             
 712:Generated_Source\PSoC5/USBUART_std.c ****                             if (0u != (pEP->addr & USBUART_DIR_IN))
 1454              		.loc 1 712 0
 1455 020a FB69     		ldr	r3, [r7, #28]
 1456 020c 9B78     		ldrb	r3, [r3, #2]	@ zero_extendqisi2
 1457 020e 5BB2     		sxtb	r3, r3
 1458 0210 002B     		cmp	r3, #0
 1459 0212 1CDA     		bge	.L107
 713:Generated_Source\PSoC5/USBUART_std.c ****                             {
 714:Generated_Source\PSoC5/USBUART_std.c ****                                 /* IN Endpoint */
 715:Generated_Source\PSoC5/USBUART_std.c ****                                 USBUART_EP[i].epMode     = USBUART_GET_ACTIVE_IN_EP_CR0_MODE(epType
 1460              		.loc 1 715 0
 1461 0214 97F82520 		ldrb	r2, [r7, #37]	@ zero_extendqisi2
 1462 0218 FB7B     		ldrb	r3, [r7, #15]	@ zero_extendqisi2
 1463 021a 012B     		cmp	r3, #1
 1464 021c 01D1     		bne	.L108
 1465              		.loc 1 715 0 is_stmt 0 discriminator 1
 1466 021e 0720     		movs	r0, #7
 1467 0220 00E0     		b	.L109
 1468              	.L108:
 1469              		.loc 1 715 0 discriminator 2
 1470 0222 0D20     		movs	r0, #13
 1471              	.L109:
 1472              		.loc 1 715 0 discriminator 4
 1473 0224 3049     		ldr	r1, .L121
 1474 0226 1346     		mov	r3, r2
 1475 0228 5B00     		lsls	r3, r3, #1
 1476 022a 1344     		add	r3, r3, r2
 1477 022c 9B00     		lsls	r3, r3, #2
 1478 022e 0B44     		add	r3, r3, r1
 1479 0230 0533     		adds	r3, r3, #5
 1480 0232 0246     		mov	r2, r0
ARM GAS  C:\Users\ingan\AppData\Local\Temp\ccL06Ou5.s 			page 41


 1481 0234 1A70     		strb	r2, [r3]
 716:Generated_Source\PSoC5/USBUART_std.c ****                                 USBUART_EP[i].apiEpState = USBUART_EVENT_PENDING;
 1482              		.loc 1 716 0 is_stmt 1 discriminator 4
 1483 0236 97F82520 		ldrb	r2, [r7, #37]	@ zero_extendqisi2
 1484 023a 2B49     		ldr	r1, .L121
 1485 023c 1346     		mov	r3, r2
 1486 023e 5B00     		lsls	r3, r3, #1
 1487 0240 1344     		add	r3, r3, r2
 1488 0242 9B00     		lsls	r3, r3, #2
 1489 0244 0B44     		add	r3, r3, r1
 1490 0246 0133     		adds	r3, r3, #1
 1491 0248 0122     		movs	r2, #1
 1492 024a 1A70     		strb	r2, [r3]
 1493 024c 1BE0     		b	.L110
 1494              	.L107:
 717:Generated_Source\PSoC5/USBUART_std.c ****                                 
 718:Generated_Source\PSoC5/USBUART_std.c ****                             #if (defined(USBUART_ENABLE_MIDI_STREAMING) && (USBUART_MIDI_IN_BUFF_SI
 719:Generated_Source\PSoC5/USBUART_std.c ****                                 if ((pEP->bMisc == USBUART_CLASS_AUDIO) && (epType == USBUART_EP_TY
 720:Generated_Source\PSoC5/USBUART_std.c ****                                 {
 721:Generated_Source\PSoC5/USBUART_std.c ****                                     USBUART_midi_in_ep = i;
 722:Generated_Source\PSoC5/USBUART_std.c ****                                 }
 723:Generated_Source\PSoC5/USBUART_std.c ****                             #endif  /* (USBUART_ENABLE_MIDI_STREAMING) */
 724:Generated_Source\PSoC5/USBUART_std.c ****                             }
 725:Generated_Source\PSoC5/USBUART_std.c ****                             else
 726:Generated_Source\PSoC5/USBUART_std.c ****                             {
 727:Generated_Source\PSoC5/USBUART_std.c ****                                 /* OUT Endpoint */
 728:Generated_Source\PSoC5/USBUART_std.c ****                                 USBUART_EP[i].epMode     = USBUART_GET_ACTIVE_OUT_EP_CR0_MODE(epTyp
 1495              		.loc 1 728 0
 1496 024e 97F82520 		ldrb	r2, [r7, #37]	@ zero_extendqisi2
 1497 0252 FB7B     		ldrb	r3, [r7, #15]	@ zero_extendqisi2
 1498 0254 012B     		cmp	r3, #1
 1499 0256 01D1     		bne	.L111
 1500              		.loc 1 728 0 is_stmt 0 discriminator 1
 1501 0258 0520     		movs	r0, #5
 1502 025a 00E0     		b	.L112
 1503              	.L111:
 1504              		.loc 1 728 0 discriminator 2
 1505 025c 0920     		movs	r0, #9
 1506              	.L112:
 1507              		.loc 1 728 0 discriminator 4
 1508 025e 2249     		ldr	r1, .L121
 1509 0260 1346     		mov	r3, r2
 1510 0262 5B00     		lsls	r3, r3, #1
 1511 0264 1344     		add	r3, r3, r2
 1512 0266 9B00     		lsls	r3, r3, #2
 1513 0268 0B44     		add	r3, r3, r1
 1514 026a 0533     		adds	r3, r3, #5
 1515 026c 0246     		mov	r2, r0
 1516 026e 1A70     		strb	r2, [r3]
 729:Generated_Source\PSoC5/USBUART_std.c ****                                 USBUART_EP[i].apiEpState = USBUART_NO_EVENT_PENDING;
 1517              		.loc 1 729 0 is_stmt 1 discriminator 4
 1518 0270 97F82520 		ldrb	r2, [r7, #37]	@ zero_extendqisi2
 1519 0274 1C49     		ldr	r1, .L121
 1520 0276 1346     		mov	r3, r2
 1521 0278 5B00     		lsls	r3, r3, #1
 1522 027a 1344     		add	r3, r3, r2
 1523 027c 9B00     		lsls	r3, r3, #2
ARM GAS  C:\Users\ingan\AppData\Local\Temp\ccL06Ou5.s 			page 42


 1524 027e 0B44     		add	r3, r3, r1
 1525 0280 0133     		adds	r3, r3, #1
 1526 0282 0022     		movs	r2, #0
 1527 0284 1A70     		strb	r2, [r3]
 1528              	.L110:
 730:Generated_Source\PSoC5/USBUART_std.c ****                                 
 731:Generated_Source\PSoC5/USBUART_std.c ****                             #if (defined(USBUART_ENABLE_MIDI_STREAMING) && (USBUART_MIDI_OUT_BUFF_S
 732:Generated_Source\PSoC5/USBUART_std.c ****                                 if ((pEP->bMisc == USBUART_CLASS_AUDIO) && (epType == USBUART_EP_TY
 733:Generated_Source\PSoC5/USBUART_std.c ****                                 {
 734:Generated_Source\PSoC5/USBUART_std.c ****                                     USBUART_midi_out_ep = i;
 735:Generated_Source\PSoC5/USBUART_std.c ****                                 }
 736:Generated_Source\PSoC5/USBUART_std.c ****                             #endif  /* (USBUART_ENABLE_MIDI_STREAMING) */
 737:Generated_Source\PSoC5/USBUART_std.c ****                             }
 738:Generated_Source\PSoC5/USBUART_std.c **** 
 739:Generated_Source\PSoC5/USBUART_std.c ****                         #if (defined(USBUART_ENABLE_CDC_CLASS))
 740:Generated_Source\PSoC5/USBUART_std.c ****                             if((pEP->bMisc == USBUART_CLASS_CDC_DATA) ||(pEP->bMisc == USBUART_CLAS
 1529              		.loc 1 740 0
 1530 0286 FB69     		ldr	r3, [r7, #28]
 1531 0288 9B79     		ldrb	r3, [r3, #6]	@ zero_extendqisi2
 1532 028a 0A2B     		cmp	r3, #10
 1533 028c 03D0     		beq	.L113
 1534              		.loc 1 740 0 is_stmt 0 discriminator 1
 1535 028e FB69     		ldr	r3, [r7, #28]
 1536 0290 9B79     		ldrb	r3, [r3, #6]	@ zero_extendqisi2
 1537 0292 022B     		cmp	r3, #2
 1538 0294 08D1     		bne	.L105
 1539              	.L113:
 741:Generated_Source\PSoC5/USBUART_std.c ****                             {
 742:Generated_Source\PSoC5/USBUART_std.c ****                                 cdcComNums = USBUART_Cdc_EpInit(pEP, i, cdcComNums);
 1540              		.loc 1 742 0 is_stmt 1
 1541 0296 FA7E     		ldrb	r2, [r7, #27]	@ zero_extendqisi2
 1542 0298 97F82530 		ldrb	r3, [r7, #37]	@ zero_extendqisi2
 1543 029c 1946     		mov	r1, r3
 1544 029e F869     		ldr	r0, [r7, #28]
 1545 02a0 FFF7FEFF 		bl	USBUART_Cdc_EpInit
 1546 02a4 0346     		mov	r3, r0
 1547 02a6 FB76     		strb	r3, [r7, #27]
 1548              	.L105:
 743:Generated_Source\PSoC5/USBUART_std.c ****                             }
 744:Generated_Source\PSoC5/USBUART_std.c ****                         #endif  /* (USBUART_ENABLE_CDC_CLASS) */
 745:Generated_Source\PSoC5/USBUART_std.c **** 
 746:Generated_Source\PSoC5/USBUART_std.c ****                             #if (USBUART_EP_MANAGEMENT_DMA_AUTO)
 747:Generated_Source\PSoC5/USBUART_std.c ****                                 break;  /* Use first EP setting in Auto memory management */
 748:Generated_Source\PSoC5/USBUART_std.c ****                             #endif /* (USBUART_EP_MANAGEMENT_DMA_AUTO) */
 749:Generated_Source\PSoC5/USBUART_std.c ****                         }
 750:Generated_Source\PSoC5/USBUART_std.c ****                     }
 751:Generated_Source\PSoC5/USBUART_std.c ****                     
 752:Generated_Source\PSoC5/USBUART_std.c ****                     pEP = &pEP[1u];
 1549              		.loc 1 752 0 discriminator 2
 1550 02a8 FB69     		ldr	r3, [r7, #28]
 1551 02aa 0833     		adds	r3, r3, #8
 1552 02ac FB61     		str	r3, [r7, #28]
 694:Generated_Source\PSoC5/USBUART_std.c ****                 {
 1553              		.loc 1 694 0 discriminator 2
 1554 02ae 97F82630 		ldrb	r3, [r7, #38]
 1555 02b2 0133     		adds	r3, r3, #1
 1556 02b4 87F82630 		strb	r3, [r7, #38]
ARM GAS  C:\Users\ingan\AppData\Local\Temp\ccL06Ou5.s 			page 43


 1557              	.L104:
 694:Generated_Source\PSoC5/USBUART_std.c ****                 {
 1558              		.loc 1 694 0 is_stmt 0 discriminator 1
 1559 02b8 97F82620 		ldrb	r2, [r7, #38]	@ zero_extendqisi2
 1560 02bc 97F82730 		ldrb	r3, [r7, #39]	@ zero_extendqisi2
 1561 02c0 9A42     		cmp	r2, r3
 1562 02c2 FFF455AF 		bcc	.L114
 687:Generated_Source\PSoC5/USBUART_std.c ****             {
 1563              		.loc 1 687 0 is_stmt 1 discriminator 2
 1564 02c6 97F82530 		ldrb	r3, [r7, #37]
 1565 02ca 0133     		adds	r3, r3, #1
 1566 02cc 87F82530 		strb	r3, [r7, #37]
 1567              	.L103:
 687:Generated_Source\PSoC5/USBUART_std.c ****             {
 1568              		.loc 1 687 0 is_stmt 0 discriminator 1
 1569 02d0 97F82530 		ldrb	r3, [r7, #37]	@ zero_extendqisi2
 1570 02d4 082B     		cmp	r3, #8
 1571 02d6 7FF644AF 		bls	.L115
 753:Generated_Source\PSoC5/USBUART_std.c ****                 }
 754:Generated_Source\PSoC5/USBUART_std.c ****             }
 755:Generated_Source\PSoC5/USBUART_std.c ****         #endif /*  (USBUART_EP_MANAGEMENT_MANUAL && USBUART_EP_ALLOC_DYNAMIC) */
 756:Generated_Source\PSoC5/USBUART_std.c **** 
 757:Generated_Source\PSoC5/USBUART_std.c ****         /* Init class array for each interface and interface number for each EP.
 758:Generated_Source\PSoC5/USBUART_std.c ****         *  It is used for handling Class specific requests directed to either an
 759:Generated_Source\PSoC5/USBUART_std.c ****         *  interface or the endpoint.
 760:Generated_Source\PSoC5/USBUART_std.c ****         */
 761:Generated_Source\PSoC5/USBUART_std.c ****         /* p_list points the endpoint setting table. */
 762:Generated_Source\PSoC5/USBUART_std.c ****         pEP = (const T_USBUART_EP_SETTINGS_BLOCK CYCODE *) pTmp->p_list;
 1572              		.loc 1 762 0 is_stmt 1
 1573 02da 7B69     		ldr	r3, [r7, #20]
 1574 02dc 5B68     		ldr	r3, [r3, #4]
 1575 02de FB61     		str	r3, [r7, #28]
 763:Generated_Source\PSoC5/USBUART_std.c ****         for (i = 0u; i < ep; i++)
 1576              		.loc 1 763 0
 1577 02e0 0023     		movs	r3, #0
 1578 02e2 87F82530 		strb	r3, [r7, #37]
 1579 02e6 20E0     		b	.L116
 1580              	.L122:
 1581              		.align	2
 1582              	.L121:
 1583 02e8 00000000 		.word	USBUART_EP
 1584 02ec 00000000 		.word	USBUART_interfaceSetting
 1585 02f0 00000000 		.word	USBUART_interfaceSettingLast
 1586 02f4 00000000 		.word	USBUART_configuration
 1587 02f8 00000000 		.word	USBUART_deviceStatus
 1588              	.L117:
 764:Generated_Source\PSoC5/USBUART_std.c ****         {
 765:Generated_Source\PSoC5/USBUART_std.c ****             /* Configure interface number for each EP */
 766:Generated_Source\PSoC5/USBUART_std.c ****             USBUART_EP[pEP->addr & USBUART_DIR_UNUSED].interface = pEP->interface;
 1589              		.loc 1 766 0 discriminator 3
 1590 02fc FB69     		ldr	r3, [r7, #28]
 1591 02fe 9B78     		ldrb	r3, [r3, #2]	@ zero_extendqisi2
 1592 0300 03F07F02 		and	r2, r3, #127
 1593 0304 FB69     		ldr	r3, [r7, #28]
 1594 0306 1878     		ldrb	r0, [r3]	@ zero_extendqisi2
 1595 0308 2849     		ldr	r1, .L123
 1596 030a 1346     		mov	r3, r2
ARM GAS  C:\Users\ingan\AppData\Local\Temp\ccL06Ou5.s 			page 44


 1597 030c 5B00     		lsls	r3, r3, #1
 1598 030e 1344     		add	r3, r3, r2
 1599 0310 9B00     		lsls	r3, r3, #2
 1600 0312 0B44     		add	r3, r3, r1
 1601 0314 0A33     		adds	r3, r3, #10
 1602 0316 0246     		mov	r2, r0
 1603 0318 1A70     		strb	r2, [r3]
 767:Generated_Source\PSoC5/USBUART_std.c ****             pEP = &pEP[1u];
 1604              		.loc 1 767 0 discriminator 3
 1605 031a FB69     		ldr	r3, [r7, #28]
 1606 031c 0833     		adds	r3, r3, #8
 1607 031e FB61     		str	r3, [r7, #28]
 763:Generated_Source\PSoC5/USBUART_std.c ****         for (i = 0u; i < ep; i++)
 1608              		.loc 1 763 0 discriminator 3
 1609 0320 97F82530 		ldrb	r3, [r7, #37]	@ zero_extendqisi2
 1610 0324 0133     		adds	r3, r3, #1
 1611 0326 87F82530 		strb	r3, [r7, #37]
 1612              	.L116:
 763:Generated_Source\PSoC5/USBUART_std.c ****         for (i = 0u; i < ep; i++)
 1613              		.loc 1 763 0 is_stmt 0 discriminator 1
 1614 032a 97F82520 		ldrb	r2, [r7, #37]	@ zero_extendqisi2
 1615 032e 97F82730 		ldrb	r3, [r7, #39]	@ zero_extendqisi2
 1616 0332 9A42     		cmp	r2, r3
 1617 0334 E2D3     		bcc	.L117
 768:Generated_Source\PSoC5/USBUART_std.c ****         }
 769:Generated_Source\PSoC5/USBUART_std.c ****         
 770:Generated_Source\PSoC5/USBUART_std.c ****         /* Init pointer on interface class table */
 771:Generated_Source\PSoC5/USBUART_std.c ****         USBUART_interfaceClass = USBUART_GetInterfaceClassTablePtr();
 1618              		.loc 1 771 0 is_stmt 1
 1619 0336 FFF7FEFF 		bl	USBUART_GetInterfaceClassTablePtr
 1620 033a 0246     		mov	r2, r0
 1621 033c 1C4B     		ldr	r3, .L123+4
 1622 033e 1A60     		str	r2, [r3]
 772:Generated_Source\PSoC5/USBUART_std.c ****         
 773:Generated_Source\PSoC5/USBUART_std.c ****     /* Set the endpoint buffer addresses */
 774:Generated_Source\PSoC5/USBUART_std.c ****     #if (!USBUART_EP_MANAGEMENT_DMA_AUTO)
 775:Generated_Source\PSoC5/USBUART_std.c ****         buffCount = 0u;
 1623              		.loc 1 775 0
 1624 0340 0023     		movs	r3, #0
 1625 0342 7B84     		strh	r3, [r7, #34]	@ movhi
 776:Generated_Source\PSoC5/USBUART_std.c ****         for (ep = USBUART_EP1; ep < USBUART_MAX_EP; ++ep)
 1626              		.loc 1 776 0
 1627 0344 0123     		movs	r3, #1
 1628 0346 87F82730 		strb	r3, [r7, #39]
 1629 034a 24E0     		b	.L118
 1630              	.L119:
 777:Generated_Source\PSoC5/USBUART_std.c ****         {
 778:Generated_Source\PSoC5/USBUART_std.c ****             USBUART_EP[ep].buffOffset = buffCount;        
 1631              		.loc 1 778 0 discriminator 3
 1632 034c 97F82720 		ldrb	r2, [r7, #39]	@ zero_extendqisi2
 1633 0350 1649     		ldr	r1, .L123
 1634 0352 1346     		mov	r3, r2
 1635 0354 5B00     		lsls	r3, r3, #1
 1636 0356 1344     		add	r3, r3, r2
 1637 0358 9B00     		lsls	r3, r3, #2
 1638 035a 0B44     		add	r3, r3, r1
 1639 035c 0633     		adds	r3, r3, #6
ARM GAS  C:\Users\ingan\AppData\Local\Temp\ccL06Ou5.s 			page 45


 1640 035e 7A8C     		ldrh	r2, [r7, #34]	@ movhi
 1641 0360 1A80     		strh	r2, [r3]	@ movhi
 779:Generated_Source\PSoC5/USBUART_std.c ****             buffCount += USBUART_EP[ep].bufferSize;
 1642              		.loc 1 779 0 discriminator 3
 1643 0362 97F82720 		ldrb	r2, [r7, #39]	@ zero_extendqisi2
 1644 0366 1149     		ldr	r1, .L123
 1645 0368 1346     		mov	r3, r2
 1646 036a 5B00     		lsls	r3, r3, #1
 1647 036c 1344     		add	r3, r3, r2
 1648 036e 9B00     		lsls	r3, r3, #2
 1649 0370 0B44     		add	r3, r3, r1
 1650 0372 0833     		adds	r3, r3, #8
 1651 0374 1B88     		ldrh	r3, [r3]	@ movhi
 1652 0376 9AB2     		uxth	r2, r3
 1653 0378 7B8C     		ldrh	r3, [r7, #34]	@ movhi
 1654 037a 1344     		add	r3, r3, r2
 1655 037c 7B84     		strh	r3, [r7, #34]	@ movhi
 780:Generated_Source\PSoC5/USBUART_std.c ****             
 781:Generated_Source\PSoC5/USBUART_std.c ****         #if (USBUART_GEN_16BITS_EP_ACCESS)
 782:Generated_Source\PSoC5/USBUART_std.c ****             /* Align EP buffers to be event size to access 16-bits DR register. */
 783:Generated_Source\PSoC5/USBUART_std.c ****             buffCount += (0u != (buffCount & 0x01u)) ? 1u : 0u;
 1656              		.loc 1 783 0 discriminator 3
 1657 037e 7B8C     		ldrh	r3, [r7, #34]	@ movhi
 1658 0380 03F00103 		and	r3, r3, #1
 1659 0384 9AB2     		uxth	r2, r3
 1660 0386 7B8C     		ldrh	r3, [r7, #34]	@ movhi
 1661 0388 1344     		add	r3, r3, r2
 1662 038a 7B84     		strh	r3, [r7, #34]	@ movhi
 776:Generated_Source\PSoC5/USBUART_std.c ****         {
 1663              		.loc 1 776 0 discriminator 3
 1664 038c 97F82730 		ldrb	r3, [r7, #39]
 1665 0390 0133     		adds	r3, r3, #1
 1666 0392 87F82730 		strb	r3, [r7, #39]
 1667              	.L118:
 776:Generated_Source\PSoC5/USBUART_std.c ****         {
 1668              		.loc 1 776 0 is_stmt 0 discriminator 1
 1669 0396 97F82730 		ldrb	r3, [r7, #39]	@ zero_extendqisi2
 1670 039a 082B     		cmp	r3, #8
 1671 039c D6D9     		bls	.L119
 784:Generated_Source\PSoC5/USBUART_std.c ****         #endif /* (USBUART_GEN_16BITS_EP_ACCESS) */            
 785:Generated_Source\PSoC5/USBUART_std.c ****         }
 786:Generated_Source\PSoC5/USBUART_std.c ****     #endif /* (!USBUART_EP_MANAGEMENT_DMA_AUTO) */
 787:Generated_Source\PSoC5/USBUART_std.c **** 
 788:Generated_Source\PSoC5/USBUART_std.c ****         /* Configure hardware registers */
 789:Generated_Source\PSoC5/USBUART_std.c ****         USBUART_ConfigReg();
 1672              		.loc 1 789 0 is_stmt 1
 1673 039e FFF7FEFF 		bl	USBUART_ConfigReg
 1674              	.L120:
 1675              	.LBE2:
 790:Generated_Source\PSoC5/USBUART_std.c ****     }
 791:Generated_Source\PSoC5/USBUART_std.c **** }
 1676              		.loc 1 791 0
 1677 03a2 00BF     		nop
 1678 03a4 2837     		adds	r7, r7, #40
 1679              		.cfi_def_cfa_offset 8
 1680 03a6 BD46     		mov	sp, r7
 1681              		.cfi_def_cfa_register 13
ARM GAS  C:\Users\ingan\AppData\Local\Temp\ccL06Ou5.s 			page 46


 1682              		@ sp needed
 1683 03a8 80BD     		pop	{r7, pc}
 1684              	.L124:
 1685 03aa 00BF     		.align	2
 1686              	.L123:
 1687 03ac 00000000 		.word	USBUART_EP
 1688 03b0 00000000 		.word	USBUART_interfaceClass
 1689              		.cfi_endproc
 1690              	.LFE4:
 1691              		.size	USBUART_Config, .-USBUART_Config
 1692              		.section	.text.USBUART_ConfigAltChanged,"ax",%progbits
 1693              		.align	2
 1694              		.global	USBUART_ConfigAltChanged
 1695              		.thumb
 1696              		.thumb_func
 1697              		.type	USBUART_ConfigAltChanged, %function
 1698              	USBUART_ConfigAltChanged:
 1699              	.LFB5:
 792:Generated_Source\PSoC5/USBUART_std.c **** 
 793:Generated_Source\PSoC5/USBUART_std.c **** 
 794:Generated_Source\PSoC5/USBUART_std.c **** /*******************************************************************************
 795:Generated_Source\PSoC5/USBUART_std.c **** * Function Name: USBUART_ConfigAltChanged
 796:Generated_Source\PSoC5/USBUART_std.c **** ****************************************************************************//**
 797:Generated_Source\PSoC5/USBUART_std.c **** *
 798:Generated_Source\PSoC5/USBUART_std.c **** *  This routine update configuration for the required endpoints only.
 799:Generated_Source\PSoC5/USBUART_std.c **** *  It is called after SET_INTERFACE request when Static memory allocation used.
 800:Generated_Source\PSoC5/USBUART_std.c **** *
 801:Generated_Source\PSoC5/USBUART_std.c **** * \reentrant
 802:Generated_Source\PSoC5/USBUART_std.c **** *  No.
 803:Generated_Source\PSoC5/USBUART_std.c **** *
 804:Generated_Source\PSoC5/USBUART_std.c **** *******************************************************************************/
 805:Generated_Source\PSoC5/USBUART_std.c **** void USBUART_ConfigAltChanged(void) 
 806:Generated_Source\PSoC5/USBUART_std.c **** {
 1700              		.loc 1 806 0
 1701              		.cfi_startproc
 1702              		@ args = 0, pretend = 0, frame = 16
 1703              		@ frame_needed = 1, uses_anonymous_args = 0
 1704 0000 90B5     		push	{r4, r7, lr}
 1705              		.cfi_def_cfa_offset 12
 1706              		.cfi_offset 4, -12
 1707              		.cfi_offset 7, -8
 1708              		.cfi_offset 14, -4
 1709 0002 85B0     		sub	sp, sp, #20
 1710              		.cfi_def_cfa_offset 32
 1711 0004 00AF     		add	r7, sp, #0
 1712              		.cfi_def_cfa_register 7
 807:Generated_Source\PSoC5/USBUART_std.c ****     uint8 ep;
 808:Generated_Source\PSoC5/USBUART_std.c ****     uint8 curEp;
 809:Generated_Source\PSoC5/USBUART_std.c ****     uint8 epType;
 810:Generated_Source\PSoC5/USBUART_std.c ****     uint8 i;
 811:Generated_Source\PSoC5/USBUART_std.c ****     uint8 interfaceNum;
 812:Generated_Source\PSoC5/USBUART_std.c **** 
 813:Generated_Source\PSoC5/USBUART_std.c ****     const T_USBUART_LUT CYCODE *pTmp;
 814:Generated_Source\PSoC5/USBUART_std.c ****     const T_USBUART_EP_SETTINGS_BLOCK CYCODE *pEP;
 815:Generated_Source\PSoC5/USBUART_std.c **** 
 816:Generated_Source\PSoC5/USBUART_std.c ****     /* Init Endpoints and Device Status if configured */
 817:Generated_Source\PSoC5/USBUART_std.c ****     if (USBUART_configuration > 0u)
ARM GAS  C:\Users\ingan\AppData\Local\Temp\ccL06Ou5.s 			page 47


 1713              		.loc 1 817 0
 1714 0006 8F4B     		ldr	r3, .L137
 1715 0008 1B78     		ldrb	r3, [r3]
 1716 000a DBB2     		uxtb	r3, r3
 1717 000c 002B     		cmp	r3, #0
 1718 000e 00F01581 		beq	.L136
 818:Generated_Source\PSoC5/USBUART_std.c ****     {
 819:Generated_Source\PSoC5/USBUART_std.c ****         /* Get number of endpoints configurations (ep). */
 820:Generated_Source\PSoC5/USBUART_std.c ****         pTmp = USBUART_GetConfigTablePtr(USBUART_configuration - 1u);
 1719              		.loc 1 820 0
 1720 0012 8C4B     		ldr	r3, .L137
 1721 0014 1B78     		ldrb	r3, [r3]
 1722 0016 DBB2     		uxtb	r3, r3
 1723 0018 013B     		subs	r3, r3, #1
 1724 001a DBB2     		uxtb	r3, r3
 1725 001c 1846     		mov	r0, r3
 1726 001e FFF7FEFF 		bl	USBUART_GetConfigTablePtr
 1727 0022 7860     		str	r0, [r7, #4]
 821:Generated_Source\PSoC5/USBUART_std.c ****         pTmp = &pTmp[1u];
 1728              		.loc 1 821 0
 1729 0024 7B68     		ldr	r3, [r7, #4]
 1730 0026 0833     		adds	r3, r3, #8
 1731 0028 7B60     		str	r3, [r7, #4]
 822:Generated_Source\PSoC5/USBUART_std.c ****         ep = pTmp->c;
 1732              		.loc 1 822 0
 1733 002a 7B68     		ldr	r3, [r7, #4]
 1734 002c 1B78     		ldrb	r3, [r3]
 1735 002e FB70     		strb	r3, [r7, #3]
 823:Generated_Source\PSoC5/USBUART_std.c **** 
 824:Generated_Source\PSoC5/USBUART_std.c ****         /* Get pointer to endpoints setting table (pEP). */
 825:Generated_Source\PSoC5/USBUART_std.c ****         pEP = (const T_USBUART_EP_SETTINGS_BLOCK CYCODE *) pTmp->p_list;
 1736              		.loc 1 825 0
 1737 0030 7B68     		ldr	r3, [r7, #4]
 1738 0032 5B68     		ldr	r3, [r3, #4]
 1739 0034 BB60     		str	r3, [r7, #8]
 826:Generated_Source\PSoC5/USBUART_std.c ****         
 827:Generated_Source\PSoC5/USBUART_std.c ****         /* Look through all possible endpoint configurations. Find endpoints 
 828:Generated_Source\PSoC5/USBUART_std.c ****         * which belong to current interface and alternate settings for 
 829:Generated_Source\PSoC5/USBUART_std.c ****         * re-configuration.
 830:Generated_Source\PSoC5/USBUART_std.c ****         */
 831:Generated_Source\PSoC5/USBUART_std.c ****         interfaceNum = USBUART_interfaceNumber;
 1740              		.loc 1 831 0
 1741 0036 844B     		ldr	r3, .L137+4
 1742 0038 1B78     		ldrb	r3, [r3]
 1743 003a BB70     		strb	r3, [r7, #2]
 832:Generated_Source\PSoC5/USBUART_std.c ****         for (i = 0u; i < ep; i++)
 1744              		.loc 1 832 0
 1745 003c 0023     		movs	r3, #0
 1746 003e FB73     		strb	r3, [r7, #15]
 1747 0040 F7E0     		b	.L127
 1748              	.L135:
 833:Generated_Source\PSoC5/USBUART_std.c ****         {
 834:Generated_Source\PSoC5/USBUART_std.c ****             /* Find endpoints which belong to current interface and alternate settings. */
 835:Generated_Source\PSoC5/USBUART_std.c ****             if ((interfaceNum == pEP->interface) && 
 1749              		.loc 1 835 0
 1750 0042 BB68     		ldr	r3, [r7, #8]
 1751 0044 1B78     		ldrb	r3, [r3]	@ zero_extendqisi2
ARM GAS  C:\Users\ingan\AppData\Local\Temp\ccL06Ou5.s 			page 48


 1752 0046 BA78     		ldrb	r2, [r7, #2]	@ zero_extendqisi2
 1753 0048 9A42     		cmp	r2, r3
 1754 004a 40F0EC80 		bne	.L128
 836:Generated_Source\PSoC5/USBUART_std.c ****                 (USBUART_interfaceSetting[interfaceNum] == pEP->altSetting))
 1755              		.loc 1 836 0 discriminator 1
 1756 004e BB78     		ldrb	r3, [r7, #2]	@ zero_extendqisi2
 1757 0050 7E4A     		ldr	r2, .L137+8
 1758 0052 D35C     		ldrb	r3, [r2, r3]
 1759 0054 DAB2     		uxtb	r2, r3
 1760 0056 BB68     		ldr	r3, [r7, #8]
 1761 0058 5B78     		ldrb	r3, [r3, #1]	@ zero_extendqisi2
 835:Generated_Source\PSoC5/USBUART_std.c ****                 (USBUART_interfaceSetting[interfaceNum] == pEP->altSetting))
 1762              		.loc 1 835 0 discriminator 1
 1763 005a 9A42     		cmp	r2, r3
 1764 005c 40F0E380 		bne	.L128
 837:Generated_Source\PSoC5/USBUART_std.c ****             {
 838:Generated_Source\PSoC5/USBUART_std.c ****                 curEp  = ((uint8) pEP->addr & USBUART_DIR_UNUSED);
 1765              		.loc 1 838 0
 1766 0060 BB68     		ldr	r3, [r7, #8]
 1767 0062 9B78     		ldrb	r3, [r3, #2]	@ zero_extendqisi2
 1768 0064 03F07F03 		and	r3, r3, #127
 1769 0068 7B70     		strb	r3, [r7, #1]
 839:Generated_Source\PSoC5/USBUART_std.c ****                 epType = ((uint8) pEP->attributes & USBUART_EP_TYPE_MASK);
 1770              		.loc 1 839 0
 1771 006a BB68     		ldr	r3, [r7, #8]
 1772 006c DB78     		ldrb	r3, [r3, #3]	@ zero_extendqisi2
 1773 006e 03F00303 		and	r3, r3, #3
 1774 0072 3B70     		strb	r3, [r7]
 840:Generated_Source\PSoC5/USBUART_std.c ****                 
 841:Generated_Source\PSoC5/USBUART_std.c ****                 /* Change the SIE mode for the selected EP to NAK ALL */
 842:Generated_Source\PSoC5/USBUART_std.c ****                 USBUART_EP[curEp].epToggle   = 0u;
 1775              		.loc 1 842 0
 1776 0074 7A78     		ldrb	r2, [r7, #1]	@ zero_extendqisi2
 1777 0076 7649     		ldr	r1, .L137+12
 1778 0078 1346     		mov	r3, r2
 1779 007a 5B00     		lsls	r3, r3, #1
 1780 007c 1344     		add	r3, r3, r2
 1781 007e 9B00     		lsls	r3, r3, #2
 1782 0080 0B44     		add	r3, r3, r1
 1783 0082 0333     		adds	r3, r3, #3
 1784 0084 0022     		movs	r2, #0
 1785 0086 1A70     		strb	r2, [r3]
 843:Generated_Source\PSoC5/USBUART_std.c ****                 USBUART_EP[curEp].addr       = pEP->addr;
 1786              		.loc 1 843 0
 1787 0088 7A78     		ldrb	r2, [r7, #1]	@ zero_extendqisi2
 1788 008a BB68     		ldr	r3, [r7, #8]
 1789 008c 9878     		ldrb	r0, [r3, #2]	@ zero_extendqisi2
 1790 008e 7049     		ldr	r1, .L137+12
 1791 0090 1346     		mov	r3, r2
 1792 0092 5B00     		lsls	r3, r3, #1
 1793 0094 1344     		add	r3, r3, r2
 1794 0096 9B00     		lsls	r3, r3, #2
 1795 0098 0B44     		add	r3, r3, r1
 1796 009a 0433     		adds	r3, r3, #4
 1797 009c 0246     		mov	r2, r0
 1798 009e 1A70     		strb	r2, [r3]
 844:Generated_Source\PSoC5/USBUART_std.c ****                 USBUART_EP[curEp].attrib     = pEP->attributes;
ARM GAS  C:\Users\ingan\AppData\Local\Temp\ccL06Ou5.s 			page 49


 1799              		.loc 1 844 0
 1800 00a0 7A78     		ldrb	r2, [r7, #1]	@ zero_extendqisi2
 1801 00a2 BB68     		ldr	r3, [r7, #8]
 1802 00a4 D878     		ldrb	r0, [r3, #3]	@ zero_extendqisi2
 1803 00a6 6A49     		ldr	r1, .L137+12
 1804 00a8 1346     		mov	r3, r2
 1805 00aa 5B00     		lsls	r3, r3, #1
 1806 00ac 1344     		add	r3, r3, r2
 1807 00ae 9B00     		lsls	r3, r3, #2
 1808 00b0 0B44     		add	r3, r3, r1
 1809 00b2 0246     		mov	r2, r0
 1810 00b4 1A70     		strb	r2, [r3]
 845:Generated_Source\PSoC5/USBUART_std.c ****                 USBUART_EP[curEp].bufferSize = pEP->bufferSize;
 1811              		.loc 1 845 0
 1812 00b6 7A78     		ldrb	r2, [r7, #1]	@ zero_extendqisi2
 1813 00b8 BB68     		ldr	r3, [r7, #8]
 1814 00ba 9888     		ldrh	r0, [r3, #4]
 1815 00bc 6449     		ldr	r1, .L137+12
 1816 00be 1346     		mov	r3, r2
 1817 00c0 5B00     		lsls	r3, r3, #1
 1818 00c2 1344     		add	r3, r3, r2
 1819 00c4 9B00     		lsls	r3, r3, #2
 1820 00c6 0B44     		add	r3, r3, r1
 1821 00c8 0833     		adds	r3, r3, #8
 1822 00ca 0246     		mov	r2, r0	@ movhi
 1823 00cc 1A80     		strh	r2, [r3]	@ movhi
 846:Generated_Source\PSoC5/USBUART_std.c **** 
 847:Generated_Source\PSoC5/USBUART_std.c ****                 if (0u != (pEP->addr & USBUART_DIR_IN))
 1824              		.loc 1 847 0
 1825 00ce BB68     		ldr	r3, [r7, #8]
 1826 00d0 9B78     		ldrb	r3, [r3, #2]	@ zero_extendqisi2
 1827 00d2 5BB2     		sxtb	r3, r3
 1828 00d4 002B     		cmp	r3, #0
 1829 00d6 1ADA     		bge	.L129
 848:Generated_Source\PSoC5/USBUART_std.c ****                 {
 849:Generated_Source\PSoC5/USBUART_std.c ****                     /* IN Endpoint */
 850:Generated_Source\PSoC5/USBUART_std.c ****                     USBUART_EP[curEp].epMode     = USBUART_GET_ACTIVE_IN_EP_CR0_MODE(epType);
 1830              		.loc 1 850 0
 1831 00d8 7A78     		ldrb	r2, [r7, #1]	@ zero_extendqisi2
 1832 00da 3B78     		ldrb	r3, [r7]	@ zero_extendqisi2
 1833 00dc 012B     		cmp	r3, #1
 1834 00de 01D1     		bne	.L130
 1835              		.loc 1 850 0 is_stmt 0 discriminator 1
 1836 00e0 0720     		movs	r0, #7
 1837 00e2 00E0     		b	.L131
 1838              	.L130:
 1839              		.loc 1 850 0 discriminator 2
 1840 00e4 0D20     		movs	r0, #13
 1841              	.L131:
 1842              		.loc 1 850 0 discriminator 4
 1843 00e6 5A49     		ldr	r1, .L137+12
 1844 00e8 1346     		mov	r3, r2
 1845 00ea 5B00     		lsls	r3, r3, #1
 1846 00ec 1344     		add	r3, r3, r2
 1847 00ee 9B00     		lsls	r3, r3, #2
 1848 00f0 0B44     		add	r3, r3, r1
 1849 00f2 0533     		adds	r3, r3, #5
ARM GAS  C:\Users\ingan\AppData\Local\Temp\ccL06Ou5.s 			page 50


 1850 00f4 0246     		mov	r2, r0
 1851 00f6 1A70     		strb	r2, [r3]
 851:Generated_Source\PSoC5/USBUART_std.c ****                     USBUART_EP[curEp].apiEpState = USBUART_EVENT_PENDING;
 1852              		.loc 1 851 0 is_stmt 1 discriminator 4
 1853 00f8 7A78     		ldrb	r2, [r7, #1]	@ zero_extendqisi2
 1854 00fa 5549     		ldr	r1, .L137+12
 1855 00fc 1346     		mov	r3, r2
 1856 00fe 5B00     		lsls	r3, r3, #1
 1857 0100 1344     		add	r3, r3, r2
 1858 0102 9B00     		lsls	r3, r3, #2
 1859 0104 0B44     		add	r3, r3, r1
 1860 0106 0133     		adds	r3, r3, #1
 1861 0108 0122     		movs	r2, #1
 1862 010a 1A70     		strb	r2, [r3]
 1863 010c 19E0     		b	.L132
 1864              	.L129:
 852:Generated_Source\PSoC5/USBUART_std.c ****                 }
 853:Generated_Source\PSoC5/USBUART_std.c ****                 else
 854:Generated_Source\PSoC5/USBUART_std.c ****                 {
 855:Generated_Source\PSoC5/USBUART_std.c ****                     /* OUT Endpoint */
 856:Generated_Source\PSoC5/USBUART_std.c ****                     USBUART_EP[curEp].epMode     = USBUART_GET_ACTIVE_OUT_EP_CR0_MODE(epType);
 1865              		.loc 1 856 0
 1866 010e 7A78     		ldrb	r2, [r7, #1]	@ zero_extendqisi2
 1867 0110 3B78     		ldrb	r3, [r7]	@ zero_extendqisi2
 1868 0112 012B     		cmp	r3, #1
 1869 0114 01D1     		bne	.L133
 1870              		.loc 1 856 0 is_stmt 0 discriminator 1
 1871 0116 0520     		movs	r0, #5
 1872 0118 00E0     		b	.L134
 1873              	.L133:
 1874              		.loc 1 856 0 discriminator 2
 1875 011a 0920     		movs	r0, #9
 1876              	.L134:
 1877              		.loc 1 856 0 discriminator 4
 1878 011c 4C49     		ldr	r1, .L137+12
 1879 011e 1346     		mov	r3, r2
 1880 0120 5B00     		lsls	r3, r3, #1
 1881 0122 1344     		add	r3, r3, r2
 1882 0124 9B00     		lsls	r3, r3, #2
 1883 0126 0B44     		add	r3, r3, r1
 1884 0128 0533     		adds	r3, r3, #5
 1885 012a 0246     		mov	r2, r0
 1886 012c 1A70     		strb	r2, [r3]
 857:Generated_Source\PSoC5/USBUART_std.c ****                     USBUART_EP[curEp].apiEpState = USBUART_NO_EVENT_PENDING;
 1887              		.loc 1 857 0 is_stmt 1 discriminator 4
 1888 012e 7A78     		ldrb	r2, [r7, #1]	@ zero_extendqisi2
 1889 0130 4749     		ldr	r1, .L137+12
 1890 0132 1346     		mov	r3, r2
 1891 0134 5B00     		lsls	r3, r3, #1
 1892 0136 1344     		add	r3, r3, r2
 1893 0138 9B00     		lsls	r3, r3, #2
 1894 013a 0B44     		add	r3, r3, r1
 1895 013c 0133     		adds	r3, r3, #1
 1896 013e 0022     		movs	r2, #0
 1897 0140 1A70     		strb	r2, [r3]
 1898              	.L132:
 858:Generated_Source\PSoC5/USBUART_std.c ****                 }
ARM GAS  C:\Users\ingan\AppData\Local\Temp\ccL06Ou5.s 			page 51


 859:Generated_Source\PSoC5/USBUART_std.c ****                 
 860:Generated_Source\PSoC5/USBUART_std.c ****                 /* Make SIE to NAK any endpoint requests */
 861:Generated_Source\PSoC5/USBUART_std.c ****                 USBUART_SIE_EP_BASE.sieEp[curEp].epCr0 = USBUART_MODE_NAK_IN_OUT;
 1899              		.loc 1 861 0
 1900 0142 444A     		ldr	r2, .L137+16
 1901 0144 7B78     		ldrb	r3, [r7, #1]	@ zero_extendqisi2
 1902 0146 1B01     		lsls	r3, r3, #4
 1903 0148 1344     		add	r3, r3, r2
 1904 014a 0233     		adds	r3, r3, #2
 1905 014c 0122     		movs	r2, #1
 1906 014e 1A70     		strb	r2, [r3]
 862:Generated_Source\PSoC5/USBUART_std.c **** 
 863:Generated_Source\PSoC5/USBUART_std.c ****             #if (USBUART_EP_MANAGEMENT_DMA_AUTO)
 864:Generated_Source\PSoC5/USBUART_std.c ****                 /* Clear IN data ready. */
 865:Generated_Source\PSoC5/USBUART_std.c ****                 USBUART_ARB_EP_BASE.arbEp[curEp].epCfg &= (uint8) ~USBUART_ARB_EPX_CFG_IN_DATA_RDY;
 866:Generated_Source\PSoC5/USBUART_std.c **** 
 867:Generated_Source\PSoC5/USBUART_std.c ****                 /* Select endpoint number of reconfiguration */
 868:Generated_Source\PSoC5/USBUART_std.c ****                 USBUART_DYN_RECONFIG_REG = (uint8) ((curEp - 1u) << USBUART_DYN_RECONFIG_EP_SHIFT);
 869:Generated_Source\PSoC5/USBUART_std.c ****                 
 870:Generated_Source\PSoC5/USBUART_std.c ****                 /* Request for dynamic re-configuration of endpoint. */
 871:Generated_Source\PSoC5/USBUART_std.c ****                 USBUART_DYN_RECONFIG_REG |= USBUART_DYN_RECONFIG_ENABLE;
 872:Generated_Source\PSoC5/USBUART_std.c ****                 
 873:Generated_Source\PSoC5/USBUART_std.c ****                 /* Wait until block is ready for re-configuration */
 874:Generated_Source\PSoC5/USBUART_std.c ****                 while (0u == (USBUART_DYN_RECONFIG_REG & USBUART_DYN_RECONFIG_RDY_STS))
 875:Generated_Source\PSoC5/USBUART_std.c ****                 {
 876:Generated_Source\PSoC5/USBUART_std.c ****                 }
 877:Generated_Source\PSoC5/USBUART_std.c ****                 
 878:Generated_Source\PSoC5/USBUART_std.c ****                 /* Once DYN_RECONFIG_RDY_STS bit is set, FW can change the EP configuration. */
 879:Generated_Source\PSoC5/USBUART_std.c ****                 /* Change EP Type with new direction */
 880:Generated_Source\PSoC5/USBUART_std.c ****                 if (0u != (pEP->addr & USBUART_DIR_IN))
 881:Generated_Source\PSoC5/USBUART_std.c ****                 {
 882:Generated_Source\PSoC5/USBUART_std.c ****                     /* Set endpoint type: 0 - IN and 1 - OUT. */
 883:Generated_Source\PSoC5/USBUART_std.c ****                     USBUART_EP_TYPE_REG &= (uint8) ~(uint8)((uint8) 0x01u << (curEp - 1u));
 884:Generated_Source\PSoC5/USBUART_std.c ****                     
 885:Generated_Source\PSoC5/USBUART_std.c ****                 #if (CY_PSOC4)
 886:Generated_Source\PSoC5/USBUART_std.c ****                     /* Clear DMA_TERMIN for IN endpoint */
 887:Generated_Source\PSoC5/USBUART_std.c ****                     USBUART_ARB_EP_BASE.arbEp[curEp].epIntEn &= (uint32) ~USBUART_ARB_EPX_INT_DMA_T
 888:Generated_Source\PSoC5/USBUART_std.c ****                 #endif /* (CY_PSOC4) */
 889:Generated_Source\PSoC5/USBUART_std.c ****                 }
 890:Generated_Source\PSoC5/USBUART_std.c ****                 else
 891:Generated_Source\PSoC5/USBUART_std.c ****                 {
 892:Generated_Source\PSoC5/USBUART_std.c ****                     /* Set endpoint type: 0 - IN and 1- OUT. */
 893:Generated_Source\PSoC5/USBUART_std.c ****                     USBUART_EP_TYPE_REG |= (uint8) ((uint8) 0x01u << (curEp - 1u));
 894:Generated_Source\PSoC5/USBUART_std.c ****                     
 895:Generated_Source\PSoC5/USBUART_std.c ****                 #if (CY_PSOC4)
 896:Generated_Source\PSoC5/USBUART_std.c ****                     /* Set DMA_TERMIN for OUT endpoint */
 897:Generated_Source\PSoC5/USBUART_std.c ****                     USBUART_ARB_EP_BASE.arbEp[curEp].epIntEn |= (uint32) USBUART_ARB_EPX_INT_DMA_TE
 898:Generated_Source\PSoC5/USBUART_std.c ****                 #endif /* (CY_PSOC4) */
 899:Generated_Source\PSoC5/USBUART_std.c ****                 }
 900:Generated_Source\PSoC5/USBUART_std.c ****                 
 901:Generated_Source\PSoC5/USBUART_std.c ****                 /* Complete dynamic re-configuration: all endpoint related status and signals 
 902:Generated_Source\PSoC5/USBUART_std.c ****                 * are set into the default state.
 903:Generated_Source\PSoC5/USBUART_std.c ****                 */
 904:Generated_Source\PSoC5/USBUART_std.c ****                 USBUART_DYN_RECONFIG_REG &= (uint8) ~USBUART_DYN_RECONFIG_ENABLE;
 905:Generated_Source\PSoC5/USBUART_std.c **** 
 906:Generated_Source\PSoC5/USBUART_std.c ****             #else
 907:Generated_Source\PSoC5/USBUART_std.c ****                 USBUART_SIE_EP_BASE.sieEp[curEp].epCnt0 = HI8(USBUART_EP[curEp].bufferSize);
ARM GAS  C:\Users\ingan\AppData\Local\Temp\ccL06Ou5.s 			page 52


 1907              		.loc 1 907 0
 1908 0150 4048     		ldr	r0, .L137+16
 1909 0152 7978     		ldrb	r1, [r7, #1]	@ zero_extendqisi2
 1910 0154 7A78     		ldrb	r2, [r7, #1]	@ zero_extendqisi2
 1911 0156 3E4C     		ldr	r4, .L137+12
 1912 0158 1346     		mov	r3, r2
 1913 015a 5B00     		lsls	r3, r3, #1
 1914 015c 1344     		add	r3, r3, r2
 1915 015e 9B00     		lsls	r3, r3, #2
 1916 0160 2344     		add	r3, r3, r4
 1917 0162 0833     		adds	r3, r3, #8
 1918 0164 1B88     		ldrh	r3, [r3]	@ movhi
 1919 0166 9BB2     		uxth	r3, r3
 1920 0168 1B0A     		lsrs	r3, r3, #8
 1921 016a 9BB2     		uxth	r3, r3
 1922 016c DAB2     		uxtb	r2, r3
 1923 016e 0B01     		lsls	r3, r1, #4
 1924 0170 0344     		add	r3, r3, r0
 1925 0172 1A70     		strb	r2, [r3]
 908:Generated_Source\PSoC5/USBUART_std.c ****                 USBUART_SIE_EP_BASE.sieEp[curEp].epCnt1 = LO8(USBUART_EP[curEp].bufferSize);
 1926              		.loc 1 908 0
 1927 0174 3748     		ldr	r0, .L137+16
 1928 0176 7978     		ldrb	r1, [r7, #1]	@ zero_extendqisi2
 1929 0178 7A78     		ldrb	r2, [r7, #1]	@ zero_extendqisi2
 1930 017a 354C     		ldr	r4, .L137+12
 1931 017c 1346     		mov	r3, r2
 1932 017e 5B00     		lsls	r3, r3, #1
 1933 0180 1344     		add	r3, r3, r2
 1934 0182 9B00     		lsls	r3, r3, #2
 1935 0184 2344     		add	r3, r3, r4
 1936 0186 0833     		adds	r3, r3, #8
 1937 0188 1B88     		ldrh	r3, [r3]	@ movhi
 1938 018a 9BB2     		uxth	r3, r3
 1939 018c DAB2     		uxtb	r2, r3
 1940 018e 0B01     		lsls	r3, r1, #4
 1941 0190 0344     		add	r3, r3, r0
 1942 0192 0133     		adds	r3, r3, #1
 1943 0194 1A70     		strb	r2, [r3]
 909:Generated_Source\PSoC5/USBUART_std.c ****                 
 910:Generated_Source\PSoC5/USBUART_std.c ****                 #if (CY_PSOC4)
 911:Generated_Source\PSoC5/USBUART_std.c ****                     USBUART_ARB_EP16_BASE.arbEp[curEp].rwRa16  = (uint32) USBUART_EP[curEp].buffOff
 912:Generated_Source\PSoC5/USBUART_std.c ****                     USBUART_ARB_EP16_BASE.arbEp[curEp].rwWa16  = (uint32) USBUART_EP[curEp].buffOff
 913:Generated_Source\PSoC5/USBUART_std.c ****                 #else
 914:Generated_Source\PSoC5/USBUART_std.c ****                     USBUART_ARB_EP_BASE.arbEp[curEp].rwRa    = LO8(USBUART_EP[curEp].buffOffset);
 1944              		.loc 1 914 0
 1945 0196 3048     		ldr	r0, .L137+20
 1946 0198 7978     		ldrb	r1, [r7, #1]	@ zero_extendqisi2
 1947 019a 7A78     		ldrb	r2, [r7, #1]	@ zero_extendqisi2
 1948 019c 2C4C     		ldr	r4, .L137+12
 1949 019e 1346     		mov	r3, r2
 1950 01a0 5B00     		lsls	r3, r3, #1
 1951 01a2 1344     		add	r3, r3, r2
 1952 01a4 9B00     		lsls	r3, r3, #2
 1953 01a6 2344     		add	r3, r3, r4
 1954 01a8 0633     		adds	r3, r3, #6
 1955 01aa 1B88     		ldrh	r3, [r3]	@ movhi
 1956 01ac 9BB2     		uxth	r3, r3
ARM GAS  C:\Users\ingan\AppData\Local\Temp\ccL06Ou5.s 			page 53


 1957 01ae DAB2     		uxtb	r2, r3
 1958 01b0 0B01     		lsls	r3, r1, #4
 1959 01b2 0344     		add	r3, r3, r0
 1960 01b4 0633     		adds	r3, r3, #6
 1961 01b6 1A70     		strb	r2, [r3]
 915:Generated_Source\PSoC5/USBUART_std.c ****                     USBUART_ARB_EP_BASE.arbEp[curEp].rwRaMsb = HI8(USBUART_EP[curEp].buffOffset);
 1962              		.loc 1 915 0
 1963 01b8 2748     		ldr	r0, .L137+20
 1964 01ba 7978     		ldrb	r1, [r7, #1]	@ zero_extendqisi2
 1965 01bc 7A78     		ldrb	r2, [r7, #1]	@ zero_extendqisi2
 1966 01be 244C     		ldr	r4, .L137+12
 1967 01c0 1346     		mov	r3, r2
 1968 01c2 5B00     		lsls	r3, r3, #1
 1969 01c4 1344     		add	r3, r3, r2
 1970 01c6 9B00     		lsls	r3, r3, #2
 1971 01c8 2344     		add	r3, r3, r4
 1972 01ca 0633     		adds	r3, r3, #6
 1973 01cc 1B88     		ldrh	r3, [r3]	@ movhi
 1974 01ce 9BB2     		uxth	r3, r3
 1975 01d0 1B0A     		lsrs	r3, r3, #8
 1976 01d2 9BB2     		uxth	r3, r3
 1977 01d4 DAB2     		uxtb	r2, r3
 1978 01d6 0B01     		lsls	r3, r1, #4
 1979 01d8 0344     		add	r3, r3, r0
 1980 01da 0733     		adds	r3, r3, #7
 1981 01dc 1A70     		strb	r2, [r3]
 916:Generated_Source\PSoC5/USBUART_std.c ****                     USBUART_ARB_EP_BASE.arbEp[curEp].rwWa    = LO8(USBUART_EP[curEp].buffOffset);
 1982              		.loc 1 916 0
 1983 01de 1E48     		ldr	r0, .L137+20
 1984 01e0 7978     		ldrb	r1, [r7, #1]	@ zero_extendqisi2
 1985 01e2 7A78     		ldrb	r2, [r7, #1]	@ zero_extendqisi2
 1986 01e4 1A4C     		ldr	r4, .L137+12
 1987 01e6 1346     		mov	r3, r2
 1988 01e8 5B00     		lsls	r3, r3, #1
 1989 01ea 1344     		add	r3, r3, r2
 1990 01ec 9B00     		lsls	r3, r3, #2
 1991 01ee 2344     		add	r3, r3, r4
 1992 01f0 0633     		adds	r3, r3, #6
 1993 01f2 1B88     		ldrh	r3, [r3]	@ movhi
 1994 01f4 9BB2     		uxth	r3, r3
 1995 01f6 DAB2     		uxtb	r2, r3
 1996 01f8 0B01     		lsls	r3, r1, #4
 1997 01fa 0344     		add	r3, r3, r0
 1998 01fc 0433     		adds	r3, r3, #4
 1999 01fe 1A70     		strb	r2, [r3]
 917:Generated_Source\PSoC5/USBUART_std.c ****                     USBUART_ARB_EP_BASE.arbEp[curEp].rwWaMsb = HI8(USBUART_EP[curEp].buffOffset);
 2000              		.loc 1 917 0
 2001 0200 1548     		ldr	r0, .L137+20
 2002 0202 7978     		ldrb	r1, [r7, #1]	@ zero_extendqisi2
 2003 0204 7A78     		ldrb	r2, [r7, #1]	@ zero_extendqisi2
 2004 0206 124C     		ldr	r4, .L137+12
 2005 0208 1346     		mov	r3, r2
 2006 020a 5B00     		lsls	r3, r3, #1
 2007 020c 1344     		add	r3, r3, r2
 2008 020e 9B00     		lsls	r3, r3, #2
 2009 0210 2344     		add	r3, r3, r4
 2010 0212 0633     		adds	r3, r3, #6
ARM GAS  C:\Users\ingan\AppData\Local\Temp\ccL06Ou5.s 			page 54


 2011 0214 1B88     		ldrh	r3, [r3]	@ movhi
 2012 0216 9BB2     		uxth	r3, r3
 2013 0218 1B0A     		lsrs	r3, r3, #8
 2014 021a 9BB2     		uxth	r3, r3
 2015 021c DAB2     		uxtb	r2, r3
 2016 021e 0B01     		lsls	r3, r1, #4
 2017 0220 0344     		add	r3, r3, r0
 2018 0222 0533     		adds	r3, r3, #5
 2019 0224 1A70     		strb	r2, [r3]
 2020              	.L128:
 918:Generated_Source\PSoC5/USBUART_std.c ****                 #endif /* (CY_PSOC4) */                
 919:Generated_Source\PSoC5/USBUART_std.c ****             #endif /* (USBUART_EP_MANAGEMENT_DMA_AUTO) */
 920:Generated_Source\PSoC5/USBUART_std.c ****             }
 921:Generated_Source\PSoC5/USBUART_std.c ****             
 922:Generated_Source\PSoC5/USBUART_std.c ****             pEP = &pEP[1u]; /* Get next EP element */
 2021              		.loc 1 922 0 discriminator 2
 2022 0226 BB68     		ldr	r3, [r7, #8]
 2023 0228 0833     		adds	r3, r3, #8
 2024 022a BB60     		str	r3, [r7, #8]
 832:Generated_Source\PSoC5/USBUART_std.c ****         {
 2025              		.loc 1 832 0 discriminator 2
 2026 022c FB7B     		ldrb	r3, [r7, #15]	@ zero_extendqisi2
 2027 022e 0133     		adds	r3, r3, #1
 2028 0230 FB73     		strb	r3, [r7, #15]
 2029              	.L127:
 832:Generated_Source\PSoC5/USBUART_std.c ****         {
 2030              		.loc 1 832 0 is_stmt 0 discriminator 1
 2031 0232 FA7B     		ldrb	r2, [r7, #15]	@ zero_extendqisi2
 2032 0234 FB78     		ldrb	r3, [r7, #3]	@ zero_extendqisi2
 2033 0236 9A42     		cmp	r2, r3
 2034 0238 FFF403AF 		bcc	.L135
 2035              	.L136:
 923:Generated_Source\PSoC5/USBUART_std.c ****         }
 924:Generated_Source\PSoC5/USBUART_std.c ****         
 925:Generated_Source\PSoC5/USBUART_std.c ****         /* The main loop has to re-enable DMA and OUT endpoint */
 926:Generated_Source\PSoC5/USBUART_std.c ****     }
 927:Generated_Source\PSoC5/USBUART_std.c **** }
 2036              		.loc 1 927 0 is_stmt 1
 2037 023c 00BF     		nop
 2038 023e 1437     		adds	r7, r7, #20
 2039              		.cfi_def_cfa_offset 12
 2040 0240 BD46     		mov	sp, r7
 2041              		.cfi_def_cfa_register 13
 2042              		@ sp needed
 2043 0242 90BD     		pop	{r4, r7, pc}
 2044              	.L138:
 2045              		.align	2
 2046              	.L137:
 2047 0244 00000000 		.word	USBUART_configuration
 2048 0248 00000000 		.word	USBUART_interfaceNumber
 2049 024c 00000000 		.word	USBUART_interfaceSetting
 2050 0250 00000000 		.word	USBUART_EP
 2051 0254 FC5F0040 		.word	1073766396
 2052 0258 70600040 		.word	1073766512
 2053              		.cfi_endproc
 2054              	.LFE5:
 2055              		.size	USBUART_ConfigAltChanged, .-USBUART_ConfigAltChanged
ARM GAS  C:\Users\ingan\AppData\Local\Temp\ccL06Ou5.s 			page 55


 2056              		.section	.text.USBUART_GetConfigTablePtr,"ax",%progbits
 2057              		.align	2
 2058              		.global	USBUART_GetConfigTablePtr
 2059              		.thumb
 2060              		.thumb_func
 2061              		.type	USBUART_GetConfigTablePtr, %function
 2062              	USBUART_GetConfigTablePtr:
 2063              	.LFB6:
 928:Generated_Source\PSoC5/USBUART_std.c **** 
 929:Generated_Source\PSoC5/USBUART_std.c **** 
 930:Generated_Source\PSoC5/USBUART_std.c **** /*******************************************************************************
 931:Generated_Source\PSoC5/USBUART_std.c **** * Function Name: USBUART_GetConfigTablePtr
 932:Generated_Source\PSoC5/USBUART_std.c **** ****************************************************************************//**
 933:Generated_Source\PSoC5/USBUART_std.c **** *
 934:Generated_Source\PSoC5/USBUART_std.c **** *  This routine returns a pointer a configuration table entry
 935:Generated_Source\PSoC5/USBUART_std.c **** *
 936:Generated_Source\PSoC5/USBUART_std.c **** *  \param confIndex:  Configuration Index
 937:Generated_Source\PSoC5/USBUART_std.c **** *
 938:Generated_Source\PSoC5/USBUART_std.c **** * \return
 939:Generated_Source\PSoC5/USBUART_std.c **** *  Device Descriptor pointer or NULL when descriptor does not exist.
 940:Generated_Source\PSoC5/USBUART_std.c **** *
 941:Generated_Source\PSoC5/USBUART_std.c **** *******************************************************************************/
 942:Generated_Source\PSoC5/USBUART_std.c **** const T_USBUART_LUT CYCODE *USBUART_GetConfigTablePtr(uint8 confIndex)
 943:Generated_Source\PSoC5/USBUART_std.c ****                                                         
 944:Generated_Source\PSoC5/USBUART_std.c **** {
 2064              		.loc 1 944 0
 2065              		.cfi_startproc
 2066              		@ args = 0, pretend = 0, frame = 16
 2067              		@ frame_needed = 1, uses_anonymous_args = 0
 2068              		@ link register save eliminated.
 2069 0000 80B4     		push	{r7}
 2070              		.cfi_def_cfa_offset 4
 2071              		.cfi_offset 7, -4
 2072 0002 85B0     		sub	sp, sp, #20
 2073              		.cfi_def_cfa_offset 24
 2074 0004 00AF     		add	r7, sp, #0
 2075              		.cfi_def_cfa_register 7
 2076 0006 0346     		mov	r3, r0
 2077 0008 FB71     		strb	r3, [r7, #7]
 945:Generated_Source\PSoC5/USBUART_std.c ****     /* Device Table */
 946:Generated_Source\PSoC5/USBUART_std.c ****     const T_USBUART_LUT CYCODE *pTmp;
 947:Generated_Source\PSoC5/USBUART_std.c **** 
 948:Generated_Source\PSoC5/USBUART_std.c ****     pTmp = (const T_USBUART_LUT CYCODE *) USBUART_TABLE[USBUART_device].p_list;
 2078              		.loc 1 948 0
 2079 000a 0F4B     		ldr	r3, .L143
 2080 000c 1B78     		ldrb	r3, [r3]
 2081 000e DBB2     		uxtb	r3, r3
 2082 0010 0E4A     		ldr	r2, .L143+4
 2083 0012 DB00     		lsls	r3, r3, #3
 2084 0014 1344     		add	r3, r3, r2
 2085 0016 5B68     		ldr	r3, [r3, #4]
 2086 0018 FB60     		str	r3, [r7, #12]
 949:Generated_Source\PSoC5/USBUART_std.c **** 
 950:Generated_Source\PSoC5/USBUART_std.c ****     /* The first entry points to the Device Descriptor,
 951:Generated_Source\PSoC5/USBUART_std.c ****     *  the second entry point to the BOS Descriptor
 952:Generated_Source\PSoC5/USBUART_std.c ****     *  the rest configuration entries.
 953:Generated_Source\PSoC5/USBUART_std.c ****     *  Set pointer to the first Configuration Descriptor
ARM GAS  C:\Users\ingan\AppData\Local\Temp\ccL06Ou5.s 			page 56


 954:Generated_Source\PSoC5/USBUART_std.c ****     */
 955:Generated_Source\PSoC5/USBUART_std.c ****     pTmp = &pTmp[2u];
 2087              		.loc 1 955 0
 2088 001a FB68     		ldr	r3, [r7, #12]
 2089 001c 1033     		adds	r3, r3, #16
 2090 001e FB60     		str	r3, [r7, #12]
 956:Generated_Source\PSoC5/USBUART_std.c ****     /* For this table, c is the number of configuration descriptors  */
 957:Generated_Source\PSoC5/USBUART_std.c ****     if(confIndex >= pTmp->c)   /* Verify that required configuration descriptor exists */
 2091              		.loc 1 957 0
 2092 0020 FB68     		ldr	r3, [r7, #12]
 2093 0022 1B78     		ldrb	r3, [r3]	@ zero_extendqisi2
 2094 0024 FA79     		ldrb	r2, [r7, #7]	@ zero_extendqisi2
 2095 0026 9A42     		cmp	r2, r3
 2096 0028 02D3     		bcc	.L140
 958:Generated_Source\PSoC5/USBUART_std.c ****     {
 959:Generated_Source\PSoC5/USBUART_std.c ****         pTmp = (const T_USBUART_LUT CYCODE *) NULL;
 2097              		.loc 1 959 0
 2098 002a 0023     		movs	r3, #0
 2099 002c FB60     		str	r3, [r7, #12]
 2100 002e 05E0     		b	.L141
 2101              	.L140:
 960:Generated_Source\PSoC5/USBUART_std.c ****     }
 961:Generated_Source\PSoC5/USBUART_std.c ****     else
 962:Generated_Source\PSoC5/USBUART_std.c ****     {
 963:Generated_Source\PSoC5/USBUART_std.c ****         pTmp = (const T_USBUART_LUT CYCODE *) pTmp[confIndex].p_list;
 2102              		.loc 1 963 0
 2103 0030 FB79     		ldrb	r3, [r7, #7]	@ zero_extendqisi2
 2104 0032 DB00     		lsls	r3, r3, #3
 2105 0034 FA68     		ldr	r2, [r7, #12]
 2106 0036 1344     		add	r3, r3, r2
 2107 0038 5B68     		ldr	r3, [r3, #4]
 2108 003a FB60     		str	r3, [r7, #12]
 2109              	.L141:
 964:Generated_Source\PSoC5/USBUART_std.c ****     }
 965:Generated_Source\PSoC5/USBUART_std.c **** 
 966:Generated_Source\PSoC5/USBUART_std.c ****     return (pTmp);
 2110              		.loc 1 966 0
 2111 003c FB68     		ldr	r3, [r7, #12]
 967:Generated_Source\PSoC5/USBUART_std.c **** }
 2112              		.loc 1 967 0
 2113 003e 1846     		mov	r0, r3
 2114 0040 1437     		adds	r7, r7, #20
 2115              		.cfi_def_cfa_offset 4
 2116 0042 BD46     		mov	sp, r7
 2117              		.cfi_def_cfa_register 13
 2118              		@ sp needed
 2119 0044 80BC     		pop	{r7}
 2120              		.cfi_restore 7
 2121              		.cfi_def_cfa_offset 0
 2122 0046 7047     		bx	lr
 2123              	.L144:
 2124              		.align	2
 2125              	.L143:
 2126 0048 00000000 		.word	USBUART_device
 2127 004c 00000000 		.word	USBUART_TABLE
 2128              		.cfi_endproc
 2129              	.LFE6:
ARM GAS  C:\Users\ingan\AppData\Local\Temp\ccL06Ou5.s 			page 57


 2130              		.size	USBUART_GetConfigTablePtr, .-USBUART_GetConfigTablePtr
 2131              		.section	.text.USBUART_GetDeviceTablePtr,"ax",%progbits
 2132              		.align	2
 2133              		.global	USBUART_GetDeviceTablePtr
 2134              		.thumb
 2135              		.thumb_func
 2136              		.type	USBUART_GetDeviceTablePtr, %function
 2137              	USBUART_GetDeviceTablePtr:
 2138              	.LFB7:
 968:Generated_Source\PSoC5/USBUART_std.c **** 
 969:Generated_Source\PSoC5/USBUART_std.c **** 
 970:Generated_Source\PSoC5/USBUART_std.c **** #if (USBUART_BOS_ENABLE)
 971:Generated_Source\PSoC5/USBUART_std.c ****     /*******************************************************************************
 972:Generated_Source\PSoC5/USBUART_std.c ****     * Function Name: USBUART_GetBOSPtr
 973:Generated_Source\PSoC5/USBUART_std.c ****     ****************************************************************************//**
 974:Generated_Source\PSoC5/USBUART_std.c ****     *
 975:Generated_Source\PSoC5/USBUART_std.c ****     *  This routine returns a pointer a BOS table entry
 976:Generated_Source\PSoC5/USBUART_std.c ****     *
 977:Generated_Source\PSoC5/USBUART_std.c ****     *  
 978:Generated_Source\PSoC5/USBUART_std.c ****     *
 979:Generated_Source\PSoC5/USBUART_std.c ****     * \return
 980:Generated_Source\PSoC5/USBUART_std.c ****     *  BOS Descriptor pointer or NULL when descriptor does not exist.
 981:Generated_Source\PSoC5/USBUART_std.c ****     *
 982:Generated_Source\PSoC5/USBUART_std.c ****     *******************************************************************************/
 983:Generated_Source\PSoC5/USBUART_std.c ****     const T_USBUART_LUT CYCODE *USBUART_GetBOSPtr(void)
 984:Generated_Source\PSoC5/USBUART_std.c ****                                                             
 985:Generated_Source\PSoC5/USBUART_std.c ****     {
 986:Generated_Source\PSoC5/USBUART_std.c ****         /* Device Table */
 987:Generated_Source\PSoC5/USBUART_std.c ****         const T_USBUART_LUT CYCODE *pTmp;
 988:Generated_Source\PSoC5/USBUART_std.c **** 
 989:Generated_Source\PSoC5/USBUART_std.c ****         pTmp = (const T_USBUART_LUT CYCODE *) USBUART_TABLE[USBUART_device].p_list;
 990:Generated_Source\PSoC5/USBUART_std.c **** 
 991:Generated_Source\PSoC5/USBUART_std.c ****         /* The first entry points to the Device Descriptor,
 992:Generated_Source\PSoC5/USBUART_std.c ****         *  the second entry points to the BOS Descriptor
 993:Generated_Source\PSoC5/USBUART_std.c ****         */
 994:Generated_Source\PSoC5/USBUART_std.c ****         pTmp = &pTmp[1u];
 995:Generated_Source\PSoC5/USBUART_std.c ****         pTmp = (const T_USBUART_LUT CYCODE *) pTmp->p_list;
 996:Generated_Source\PSoC5/USBUART_std.c ****         return (pTmp);
 997:Generated_Source\PSoC5/USBUART_std.c ****     }
 998:Generated_Source\PSoC5/USBUART_std.c **** #endif /* (USBUART_BOS_ENABLE) */
 999:Generated_Source\PSoC5/USBUART_std.c **** 
1000:Generated_Source\PSoC5/USBUART_std.c **** 
1001:Generated_Source\PSoC5/USBUART_std.c **** /*******************************************************************************
1002:Generated_Source\PSoC5/USBUART_std.c **** * Function Name: USBUART_GetDeviceTablePtr
1003:Generated_Source\PSoC5/USBUART_std.c **** ****************************************************************************//**
1004:Generated_Source\PSoC5/USBUART_std.c **** *
1005:Generated_Source\PSoC5/USBUART_std.c **** *  This routine returns a pointer to the Device table
1006:Generated_Source\PSoC5/USBUART_std.c **** *
1007:Generated_Source\PSoC5/USBUART_std.c **** * \return
1008:Generated_Source\PSoC5/USBUART_std.c **** *  Device Table pointer
1009:Generated_Source\PSoC5/USBUART_std.c **** *
1010:Generated_Source\PSoC5/USBUART_std.c **** *******************************************************************************/
1011:Generated_Source\PSoC5/USBUART_std.c **** const T_USBUART_LUT CYCODE *USBUART_GetDeviceTablePtr(void)
1012:Generated_Source\PSoC5/USBUART_std.c ****                                                             
1013:Generated_Source\PSoC5/USBUART_std.c **** {
 2139              		.loc 1 1013 0
 2140              		.cfi_startproc
ARM GAS  C:\Users\ingan\AppData\Local\Temp\ccL06Ou5.s 			page 58


 2141              		@ args = 0, pretend = 0, frame = 0
 2142              		@ frame_needed = 1, uses_anonymous_args = 0
 2143              		@ link register save eliminated.
 2144 0000 80B4     		push	{r7}
 2145              		.cfi_def_cfa_offset 4
 2146              		.cfi_offset 7, -4
 2147 0002 00AF     		add	r7, sp, #0
 2148              		.cfi_def_cfa_register 7
1014:Generated_Source\PSoC5/USBUART_std.c ****     /* Device Table */
1015:Generated_Source\PSoC5/USBUART_std.c ****     return( (const T_USBUART_LUT CYCODE *) USBUART_TABLE[USBUART_device].p_list );
 2149              		.loc 1 1015 0
 2150 0004 054B     		ldr	r3, .L147
 2151 0006 1B78     		ldrb	r3, [r3]
 2152 0008 DBB2     		uxtb	r3, r3
 2153 000a 054A     		ldr	r2, .L147+4
 2154 000c DB00     		lsls	r3, r3, #3
 2155 000e 1344     		add	r3, r3, r2
 2156 0010 5B68     		ldr	r3, [r3, #4]
1016:Generated_Source\PSoC5/USBUART_std.c **** }
 2157              		.loc 1 1016 0
 2158 0012 1846     		mov	r0, r3
 2159 0014 BD46     		mov	sp, r7
 2160              		.cfi_def_cfa_register 13
 2161              		@ sp needed
 2162 0016 80BC     		pop	{r7}
 2163              		.cfi_restore 7
 2164              		.cfi_def_cfa_offset 0
 2165 0018 7047     		bx	lr
 2166              	.L148:
 2167 001a 00BF     		.align	2
 2168              	.L147:
 2169 001c 00000000 		.word	USBUART_device
 2170 0020 00000000 		.word	USBUART_TABLE
 2171              		.cfi_endproc
 2172              	.LFE7:
 2173              		.size	USBUART_GetDeviceTablePtr, .-USBUART_GetDeviceTablePtr
 2174              		.section	.text.USBUART_GetInterfaceClassTablePtr,"ax",%progbits
 2175              		.align	2
 2176              		.global	USBUART_GetInterfaceClassTablePtr
 2177              		.thumb
 2178              		.thumb_func
 2179              		.type	USBUART_GetInterfaceClassTablePtr, %function
 2180              	USBUART_GetInterfaceClassTablePtr:
 2181              	.LFB8:
1017:Generated_Source\PSoC5/USBUART_std.c **** 
1018:Generated_Source\PSoC5/USBUART_std.c **** 
1019:Generated_Source\PSoC5/USBUART_std.c **** /*******************************************************************************
1020:Generated_Source\PSoC5/USBUART_std.c **** * Function Name: USB_GetInterfaceClassTablePtr
1021:Generated_Source\PSoC5/USBUART_std.c **** ****************************************************************************//**
1022:Generated_Source\PSoC5/USBUART_std.c **** *
1023:Generated_Source\PSoC5/USBUART_std.c **** *  This routine returns Interface Class table pointer, which contains
1024:Generated_Source\PSoC5/USBUART_std.c **** *  the relation between interface number and interface class.
1025:Generated_Source\PSoC5/USBUART_std.c **** *
1026:Generated_Source\PSoC5/USBUART_std.c **** * \return
1027:Generated_Source\PSoC5/USBUART_std.c **** *  Interface Class table pointer.
1028:Generated_Source\PSoC5/USBUART_std.c **** *
1029:Generated_Source\PSoC5/USBUART_std.c **** *******************************************************************************/
ARM GAS  C:\Users\ingan\AppData\Local\Temp\ccL06Ou5.s 			page 59


1030:Generated_Source\PSoC5/USBUART_std.c **** const uint8 CYCODE *USBUART_GetInterfaceClassTablePtr(void)
1031:Generated_Source\PSoC5/USBUART_std.c ****                                                         
1032:Generated_Source\PSoC5/USBUART_std.c **** {
 2182              		.loc 1 1032 0
 2183              		.cfi_startproc
 2184              		@ args = 0, pretend = 0, frame = 16
 2185              		@ frame_needed = 1, uses_anonymous_args = 0
 2186 0000 80B5     		push	{r7, lr}
 2187              		.cfi_def_cfa_offset 8
 2188              		.cfi_offset 7, -8
 2189              		.cfi_offset 14, -4
 2190 0002 84B0     		sub	sp, sp, #16
 2191              		.cfi_def_cfa_offset 24
 2192 0004 00AF     		add	r7, sp, #0
 2193              		.cfi_def_cfa_register 7
1033:Generated_Source\PSoC5/USBUART_std.c ****     const T_USBUART_LUT CYCODE *pTmp;
1034:Generated_Source\PSoC5/USBUART_std.c ****     const uint8 CYCODE *pInterfaceClass;
1035:Generated_Source\PSoC5/USBUART_std.c ****     uint8 currentInterfacesNum;
1036:Generated_Source\PSoC5/USBUART_std.c **** 
1037:Generated_Source\PSoC5/USBUART_std.c ****     pTmp = USBUART_GetConfigTablePtr(USBUART_configuration - 1u);
 2194              		.loc 1 1037 0
 2195 0006 104B     		ldr	r3, .L153
 2196 0008 1B78     		ldrb	r3, [r3]
 2197 000a DBB2     		uxtb	r3, r3
 2198 000c 013B     		subs	r3, r3, #1
 2199 000e DBB2     		uxtb	r3, r3
 2200 0010 1846     		mov	r0, r3
 2201 0012 FFF7FEFF 		bl	USBUART_GetConfigTablePtr
 2202 0016 B860     		str	r0, [r7, #8]
1038:Generated_Source\PSoC5/USBUART_std.c ****     if (pTmp != NULL)
 2203              		.loc 1 1038 0
 2204 0018 BB68     		ldr	r3, [r7, #8]
 2205 001a 002B     		cmp	r3, #0
 2206 001c 0DD0     		beq	.L150
1039:Generated_Source\PSoC5/USBUART_std.c ****     {
1040:Generated_Source\PSoC5/USBUART_std.c ****         currentInterfacesNum  = ((const uint8 *) pTmp->p_list)[USBUART_CONFIG_DESCR_NUM_INTERFACES]
 2207              		.loc 1 1040 0
 2208 001e BB68     		ldr	r3, [r7, #8]
 2209 0020 5B68     		ldr	r3, [r3, #4]
 2210 0022 1B79     		ldrb	r3, [r3, #4]
 2211 0024 FB71     		strb	r3, [r7, #7]
1041:Generated_Source\PSoC5/USBUART_std.c ****         /* Third entry in the LUT starts the Interface Table pointers */
1042:Generated_Source\PSoC5/USBUART_std.c ****         /* The INTERFACE_CLASS table is located after all interfaces */
1043:Generated_Source\PSoC5/USBUART_std.c ****         pTmp = &pTmp[currentInterfacesNum + 2u];
 2212              		.loc 1 1043 0
 2213 0026 FB79     		ldrb	r3, [r7, #7]	@ zero_extendqisi2
 2214 0028 0233     		adds	r3, r3, #2
 2215 002a DB00     		lsls	r3, r3, #3
 2216 002c BA68     		ldr	r2, [r7, #8]
 2217 002e 1344     		add	r3, r3, r2
 2218 0030 BB60     		str	r3, [r7, #8]
1044:Generated_Source\PSoC5/USBUART_std.c ****         pInterfaceClass = (const uint8 CYCODE *) pTmp->p_list;
 2219              		.loc 1 1044 0
 2220 0032 BB68     		ldr	r3, [r7, #8]
 2221 0034 5B68     		ldr	r3, [r3, #4]
 2222 0036 FB60     		str	r3, [r7, #12]
 2223 0038 01E0     		b	.L151
ARM GAS  C:\Users\ingan\AppData\Local\Temp\ccL06Ou5.s 			page 60


 2224              	.L150:
1045:Generated_Source\PSoC5/USBUART_std.c ****     }
1046:Generated_Source\PSoC5/USBUART_std.c ****     else
1047:Generated_Source\PSoC5/USBUART_std.c ****     {
1048:Generated_Source\PSoC5/USBUART_std.c ****         pInterfaceClass = (const uint8 CYCODE *) NULL;
 2225              		.loc 1 1048 0
 2226 003a 0023     		movs	r3, #0
 2227 003c FB60     		str	r3, [r7, #12]
 2228              	.L151:
1049:Generated_Source\PSoC5/USBUART_std.c ****     }
1050:Generated_Source\PSoC5/USBUART_std.c **** 
1051:Generated_Source\PSoC5/USBUART_std.c ****     return (pInterfaceClass);
 2229              		.loc 1 1051 0
 2230 003e FB68     		ldr	r3, [r7, #12]
1052:Generated_Source\PSoC5/USBUART_std.c **** }
 2231              		.loc 1 1052 0
 2232 0040 1846     		mov	r0, r3
 2233 0042 1037     		adds	r7, r7, #16
 2234              		.cfi_def_cfa_offset 8
 2235 0044 BD46     		mov	sp, r7
 2236              		.cfi_def_cfa_register 13
 2237              		@ sp needed
 2238 0046 80BD     		pop	{r7, pc}
 2239              	.L154:
 2240              		.align	2
 2241              	.L153:
 2242 0048 00000000 		.word	USBUART_configuration
 2243              		.cfi_endproc
 2244              	.LFE8:
 2245              		.size	USBUART_GetInterfaceClassTablePtr, .-USBUART_GetInterfaceClassTablePtr
 2246              		.section	.text.USBUART_TerminateEP,"ax",%progbits
 2247              		.align	2
 2248              		.global	USBUART_TerminateEP
 2249              		.thumb
 2250              		.thumb_func
 2251              		.type	USBUART_TerminateEP, %function
 2252              	USBUART_TerminateEP:
 2253              	.LFB9:
1053:Generated_Source\PSoC5/USBUART_std.c **** 
1054:Generated_Source\PSoC5/USBUART_std.c **** 
1055:Generated_Source\PSoC5/USBUART_std.c **** /*******************************************************************************
1056:Generated_Source\PSoC5/USBUART_std.c **** * Function Name: USBUART_TerminateEP
1057:Generated_Source\PSoC5/USBUART_std.c **** ****************************************************************************//**
1058:Generated_Source\PSoC5/USBUART_std.c **** *
1059:Generated_Source\PSoC5/USBUART_std.c **** *  This function terminates the specified USBFS endpoint.
1060:Generated_Source\PSoC5/USBUART_std.c **** *  This function should be used before endpoint reconfiguration.
1061:Generated_Source\PSoC5/USBUART_std.c **** *
1062:Generated_Source\PSoC5/USBUART_std.c **** *  \param ep Contains the data endpoint number.
1063:Generated_Source\PSoC5/USBUART_std.c **** *
1064:Generated_Source\PSoC5/USBUART_std.c **** *  \reentrant
1065:Generated_Source\PSoC5/USBUART_std.c **** *  No.
1066:Generated_Source\PSoC5/USBUART_std.c **** *
1067:Generated_Source\PSoC5/USBUART_std.c **** * \sideeffect
1068:Generated_Source\PSoC5/USBUART_std.c **** * 
1069:Generated_Source\PSoC5/USBUART_std.c **** * The device responds with a NAK for any transactions on the selected endpoint.
1070:Generated_Source\PSoC5/USBUART_std.c **** *   
1071:Generated_Source\PSoC5/USBUART_std.c **** *******************************************************************************/
ARM GAS  C:\Users\ingan\AppData\Local\Temp\ccL06Ou5.s 			page 61


1072:Generated_Source\PSoC5/USBUART_std.c **** void USBUART_TerminateEP(uint8 epNumber) 
1073:Generated_Source\PSoC5/USBUART_std.c **** {
 2254              		.loc 1 1073 0
 2255              		.cfi_startproc
 2256              		@ args = 0, pretend = 0, frame = 8
 2257              		@ frame_needed = 1, uses_anonymous_args = 0
 2258              		@ link register save eliminated.
 2259 0000 80B4     		push	{r7}
 2260              		.cfi_def_cfa_offset 4
 2261              		.cfi_offset 7, -4
 2262 0002 83B0     		sub	sp, sp, #12
 2263              		.cfi_def_cfa_offset 16
 2264 0004 00AF     		add	r7, sp, #0
 2265              		.cfi_def_cfa_register 7
 2266 0006 0346     		mov	r3, r0
 2267 0008 FB71     		strb	r3, [r7, #7]
1074:Generated_Source\PSoC5/USBUART_std.c ****     /* Get endpoint number */
1075:Generated_Source\PSoC5/USBUART_std.c ****     epNumber &= USBUART_DIR_UNUSED;
 2268              		.loc 1 1075 0
 2269 000a FB79     		ldrb	r3, [r7, #7]
 2270 000c 03F07F03 		and	r3, r3, #127
 2271 0010 FB71     		strb	r3, [r7, #7]
1076:Generated_Source\PSoC5/USBUART_std.c **** 
1077:Generated_Source\PSoC5/USBUART_std.c ****     if ((epNumber > USBUART_EP0) && (epNumber < USBUART_MAX_EP))
 2272              		.loc 1 1077 0
 2273 0012 FB79     		ldrb	r3, [r7, #7]	@ zero_extendqisi2
 2274 0014 002B     		cmp	r3, #0
 2275 0016 49D0     		beq	.L158
 2276              		.loc 1 1077 0 is_stmt 0 discriminator 1
 2277 0018 FB79     		ldrb	r3, [r7, #7]	@ zero_extendqisi2
 2278 001a 082B     		cmp	r3, #8
 2279 001c 46D8     		bhi	.L158
1078:Generated_Source\PSoC5/USBUART_std.c ****     {
1079:Generated_Source\PSoC5/USBUART_std.c ****         /* Set the endpoint Halt */
1080:Generated_Source\PSoC5/USBUART_std.c ****         USBUART_EP[epNumber].hwEpState |= USBUART_ENDPOINT_STATUS_HALT;
 2280              		.loc 1 1080 0 is_stmt 1
 2281 001e FA79     		ldrb	r2, [r7, #7]	@ zero_extendqisi2
 2282 0020 F979     		ldrb	r1, [r7, #7]	@ zero_extendqisi2
 2283 0022 2548     		ldr	r0, .L159
 2284 0024 0B46     		mov	r3, r1
 2285 0026 5B00     		lsls	r3, r3, #1
 2286 0028 0B44     		add	r3, r3, r1
 2287 002a 9B00     		lsls	r3, r3, #2
 2288 002c 0344     		add	r3, r3, r0
 2289 002e 0233     		adds	r3, r3, #2
 2290 0030 1B78     		ldrb	r3, [r3]
 2291 0032 DBB2     		uxtb	r3, r3
 2292 0034 43F00103 		orr	r3, r3, #1
 2293 0038 D8B2     		uxtb	r0, r3
 2294 003a 1F49     		ldr	r1, .L159
 2295 003c 1346     		mov	r3, r2
 2296 003e 5B00     		lsls	r3, r3, #1
 2297 0040 1344     		add	r3, r3, r2
 2298 0042 9B00     		lsls	r3, r3, #2
 2299 0044 0B44     		add	r3, r3, r1
 2300 0046 0233     		adds	r3, r3, #2
 2301 0048 0246     		mov	r2, r0
ARM GAS  C:\Users\ingan\AppData\Local\Temp\ccL06Ou5.s 			page 62


 2302 004a 1A70     		strb	r2, [r3]
1081:Generated_Source\PSoC5/USBUART_std.c **** 
1082:Generated_Source\PSoC5/USBUART_std.c ****         /* Clear the data toggle */
1083:Generated_Source\PSoC5/USBUART_std.c ****         USBUART_EP[epNumber].epToggle = 0u;
 2303              		.loc 1 1083 0
 2304 004c FA79     		ldrb	r2, [r7, #7]	@ zero_extendqisi2
 2305 004e 1A49     		ldr	r1, .L159
 2306 0050 1346     		mov	r3, r2
 2307 0052 5B00     		lsls	r3, r3, #1
 2308 0054 1344     		add	r3, r3, r2
 2309 0056 9B00     		lsls	r3, r3, #2
 2310 0058 0B44     		add	r3, r3, r1
 2311 005a 0333     		adds	r3, r3, #3
 2312 005c 0022     		movs	r2, #0
 2313 005e 1A70     		strb	r2, [r3]
1084:Generated_Source\PSoC5/USBUART_std.c ****         USBUART_EP[epNumber].apiEpState = USBUART_NO_EVENT_ALLOWED;
 2314              		.loc 1 1084 0
 2315 0060 FA79     		ldrb	r2, [r7, #7]	@ zero_extendqisi2
 2316 0062 1549     		ldr	r1, .L159
 2317 0064 1346     		mov	r3, r2
 2318 0066 5B00     		lsls	r3, r3, #1
 2319 0068 1344     		add	r3, r3, r2
 2320 006a 9B00     		lsls	r3, r3, #2
 2321 006c 0B44     		add	r3, r3, r1
 2322 006e 0133     		adds	r3, r3, #1
 2323 0070 0222     		movs	r2, #2
 2324 0072 1A70     		strb	r2, [r3]
1085:Generated_Source\PSoC5/USBUART_std.c **** 
1086:Generated_Source\PSoC5/USBUART_std.c ****         if ((USBUART_EP[epNumber].addr & USBUART_DIR_IN) != 0u)
 2325              		.loc 1 1086 0
 2326 0074 FA79     		ldrb	r2, [r7, #7]	@ zero_extendqisi2
 2327 0076 1049     		ldr	r1, .L159
 2328 0078 1346     		mov	r3, r2
 2329 007a 5B00     		lsls	r3, r3, #1
 2330 007c 1344     		add	r3, r3, r2
 2331 007e 9B00     		lsls	r3, r3, #2
 2332 0080 0B44     		add	r3, r3, r1
 2333 0082 0433     		adds	r3, r3, #4
 2334 0084 1B78     		ldrb	r3, [r3]
 2335 0086 DBB2     		uxtb	r3, r3
 2336 0088 5BB2     		sxtb	r3, r3
 2337 008a 002B     		cmp	r3, #0
 2338 008c 07DA     		bge	.L157
1087:Generated_Source\PSoC5/USBUART_std.c ****         {   
1088:Generated_Source\PSoC5/USBUART_std.c ****             /* IN Endpoint */
1089:Generated_Source\PSoC5/USBUART_std.c ****             USBUART_SIE_EP_BASE.sieEp[epNumber].epCr0 = USBUART_MODE_NAK_IN;
 2339              		.loc 1 1089 0
 2340 008e 0B4A     		ldr	r2, .L159+4
 2341 0090 FB79     		ldrb	r3, [r7, #7]	@ zero_extendqisi2
 2342 0092 1B01     		lsls	r3, r3, #4
 2343 0094 1344     		add	r3, r3, r2
 2344 0096 0233     		adds	r3, r3, #2
 2345 0098 0C22     		movs	r2, #12
 2346 009a 1A70     		strb	r2, [r3]
1090:Generated_Source\PSoC5/USBUART_std.c ****         }
1091:Generated_Source\PSoC5/USBUART_std.c ****         else
1092:Generated_Source\PSoC5/USBUART_std.c ****         {
ARM GAS  C:\Users\ingan\AppData\Local\Temp\ccL06Ou5.s 			page 63


1093:Generated_Source\PSoC5/USBUART_std.c ****             /* OUT Endpoint */
1094:Generated_Source\PSoC5/USBUART_std.c ****             USBUART_SIE_EP_BASE.sieEp[epNumber].epCr0 = USBUART_MODE_NAK_OUT;
1095:Generated_Source\PSoC5/USBUART_std.c ****         }
1096:Generated_Source\PSoC5/USBUART_std.c ****     }
1097:Generated_Source\PSoC5/USBUART_std.c **** }
 2347              		.loc 1 1097 0
 2348 009c 06E0     		b	.L158
 2349              	.L157:
1094:Generated_Source\PSoC5/USBUART_std.c ****         }
 2350              		.loc 1 1094 0
 2351 009e 074A     		ldr	r2, .L159+4
 2352 00a0 FB79     		ldrb	r3, [r7, #7]	@ zero_extendqisi2
 2353 00a2 1B01     		lsls	r3, r3, #4
 2354 00a4 1344     		add	r3, r3, r2
 2355 00a6 0233     		adds	r3, r3, #2
 2356 00a8 0822     		movs	r2, #8
 2357 00aa 1A70     		strb	r2, [r3]
 2358              	.L158:
 2359              		.loc 1 1097 0
 2360 00ac 00BF     		nop
 2361 00ae 0C37     		adds	r7, r7, #12
 2362              		.cfi_def_cfa_offset 4
 2363 00b0 BD46     		mov	sp, r7
 2364              		.cfi_def_cfa_register 13
 2365              		@ sp needed
 2366 00b2 80BC     		pop	{r7}
 2367              		.cfi_restore 7
 2368              		.cfi_def_cfa_offset 0
 2369 00b4 7047     		bx	lr
 2370              	.L160:
 2371 00b6 00BF     		.align	2
 2372              	.L159:
 2373 00b8 00000000 		.word	USBUART_EP
 2374 00bc FC5F0040 		.word	1073766396
 2375              		.cfi_endproc
 2376              	.LFE9:
 2377              		.size	USBUART_TerminateEP, .-USBUART_TerminateEP
 2378              		.section	.text.USBUART_SetEndpointHalt,"ax",%progbits
 2379              		.align	2
 2380              		.global	USBUART_SetEndpointHalt
 2381              		.thumb
 2382              		.thumb_func
 2383              		.type	USBUART_SetEndpointHalt, %function
 2384              	USBUART_SetEndpointHalt:
 2385              	.LFB10:
1098:Generated_Source\PSoC5/USBUART_std.c **** 
1099:Generated_Source\PSoC5/USBUART_std.c **** 
1100:Generated_Source\PSoC5/USBUART_std.c **** /*******************************************************************************
1101:Generated_Source\PSoC5/USBUART_std.c **** * Function Name: USBUART_SetEndpointHalt
1102:Generated_Source\PSoC5/USBUART_std.c **** ****************************************************************************//**
1103:Generated_Source\PSoC5/USBUART_std.c **** *
1104:Generated_Source\PSoC5/USBUART_std.c **** *  This routine handles set endpoint halt.
1105:Generated_Source\PSoC5/USBUART_std.c **** *
1106:Generated_Source\PSoC5/USBUART_std.c **** * \return
1107:Generated_Source\PSoC5/USBUART_std.c **** *  requestHandled.
1108:Generated_Source\PSoC5/USBUART_std.c **** *
1109:Generated_Source\PSoC5/USBUART_std.c **** * \reentrant
ARM GAS  C:\Users\ingan\AppData\Local\Temp\ccL06Ou5.s 			page 64


1110:Generated_Source\PSoC5/USBUART_std.c **** *  No.
1111:Generated_Source\PSoC5/USBUART_std.c **** *
1112:Generated_Source\PSoC5/USBUART_std.c **** *******************************************************************************/
1113:Generated_Source\PSoC5/USBUART_std.c **** uint8 USBUART_SetEndpointHalt(void) 
1114:Generated_Source\PSoC5/USBUART_std.c **** {
 2386              		.loc 1 1114 0
 2387              		.cfi_startproc
 2388              		@ args = 0, pretend = 0, frame = 8
 2389              		@ frame_needed = 1, uses_anonymous_args = 0
 2390 0000 80B5     		push	{r7, lr}
 2391              		.cfi_def_cfa_offset 8
 2392              		.cfi_offset 7, -8
 2393              		.cfi_offset 14, -4
 2394 0002 82B0     		sub	sp, sp, #8
 2395              		.cfi_def_cfa_offset 16
 2396 0004 00AF     		add	r7, sp, #0
 2397              		.cfi_def_cfa_register 7
1115:Generated_Source\PSoC5/USBUART_std.c ****     uint8 requestHandled = USBUART_FALSE;
 2398              		.loc 1 1115 0
 2399 0006 0023     		movs	r3, #0
 2400 0008 FB71     		strb	r3, [r7, #7]
1116:Generated_Source\PSoC5/USBUART_std.c ****     uint8 ep;
1117:Generated_Source\PSoC5/USBUART_std.c ****     
1118:Generated_Source\PSoC5/USBUART_std.c ****     /* Set endpoint halt */
1119:Generated_Source\PSoC5/USBUART_std.c ****     ep = USBUART_wIndexLoReg & USBUART_DIR_UNUSED;
 2401              		.loc 1 1119 0
 2402 000a 344B     		ldr	r3, .L166
 2403 000c 1B79     		ldrb	r3, [r3, #4]
 2404 000e DBB2     		uxtb	r3, r3
 2405 0010 03F07F03 		and	r3, r3, #127
 2406 0014 BB71     		strb	r3, [r7, #6]
1120:Generated_Source\PSoC5/USBUART_std.c **** 
1121:Generated_Source\PSoC5/USBUART_std.c ****     if ((ep > USBUART_EP0) && (ep < USBUART_MAX_EP))
 2407              		.loc 1 1121 0
 2408 0016 BB79     		ldrb	r3, [r7, #6]	@ zero_extendqisi2
 2409 0018 002B     		cmp	r3, #0
 2410 001a 5AD0     		beq	.L162
 2411              		.loc 1 1121 0 is_stmt 0 discriminator 1
 2412 001c BB79     		ldrb	r3, [r7, #6]	@ zero_extendqisi2
 2413 001e 082B     		cmp	r3, #8
 2414 0020 57D8     		bhi	.L162
1122:Generated_Source\PSoC5/USBUART_std.c ****     {
1123:Generated_Source\PSoC5/USBUART_std.c ****         /* Set the endpoint Halt */
1124:Generated_Source\PSoC5/USBUART_std.c ****         USBUART_EP[ep].hwEpState |= (USBUART_ENDPOINT_STATUS_HALT);
 2415              		.loc 1 1124 0 is_stmt 1
 2416 0022 BA79     		ldrb	r2, [r7, #6]	@ zero_extendqisi2
 2417 0024 B979     		ldrb	r1, [r7, #6]	@ zero_extendqisi2
 2418 0026 2E48     		ldr	r0, .L166+4
 2419 0028 0B46     		mov	r3, r1
 2420 002a 5B00     		lsls	r3, r3, #1
 2421 002c 0B44     		add	r3, r3, r1
 2422 002e 9B00     		lsls	r3, r3, #2
 2423 0030 0344     		add	r3, r3, r0
 2424 0032 0233     		adds	r3, r3, #2
 2425 0034 1B78     		ldrb	r3, [r3]
 2426 0036 DBB2     		uxtb	r3, r3
 2427 0038 43F00103 		orr	r3, r3, #1
ARM GAS  C:\Users\ingan\AppData\Local\Temp\ccL06Ou5.s 			page 65


 2428 003c D8B2     		uxtb	r0, r3
 2429 003e 2849     		ldr	r1, .L166+4
 2430 0040 1346     		mov	r3, r2
 2431 0042 5B00     		lsls	r3, r3, #1
 2432 0044 1344     		add	r3, r3, r2
 2433 0046 9B00     		lsls	r3, r3, #2
 2434 0048 0B44     		add	r3, r3, r1
 2435 004a 0233     		adds	r3, r3, #2
 2436 004c 0246     		mov	r2, r0
 2437 004e 1A70     		strb	r2, [r3]
1125:Generated_Source\PSoC5/USBUART_std.c **** 
1126:Generated_Source\PSoC5/USBUART_std.c ****         /* Clear the data toggle */
1127:Generated_Source\PSoC5/USBUART_std.c ****         USBUART_EP[ep].epToggle = 0u;
 2438              		.loc 1 1127 0
 2439 0050 BA79     		ldrb	r2, [r7, #6]	@ zero_extendqisi2
 2440 0052 2349     		ldr	r1, .L166+4
 2441 0054 1346     		mov	r3, r2
 2442 0056 5B00     		lsls	r3, r3, #1
 2443 0058 1344     		add	r3, r3, r2
 2444 005a 9B00     		lsls	r3, r3, #2
 2445 005c 0B44     		add	r3, r3, r1
 2446 005e 0333     		adds	r3, r3, #3
 2447 0060 0022     		movs	r2, #0
 2448 0062 1A70     		strb	r2, [r3]
1128:Generated_Source\PSoC5/USBUART_std.c ****         USBUART_EP[ep].apiEpState |= USBUART_NO_EVENT_ALLOWED;
 2449              		.loc 1 1128 0
 2450 0064 BA79     		ldrb	r2, [r7, #6]	@ zero_extendqisi2
 2451 0066 B979     		ldrb	r1, [r7, #6]	@ zero_extendqisi2
 2452 0068 1D48     		ldr	r0, .L166+4
 2453 006a 0B46     		mov	r3, r1
 2454 006c 5B00     		lsls	r3, r3, #1
 2455 006e 0B44     		add	r3, r3, r1
 2456 0070 9B00     		lsls	r3, r3, #2
 2457 0072 0344     		add	r3, r3, r0
 2458 0074 0133     		adds	r3, r3, #1
 2459 0076 1B78     		ldrb	r3, [r3]
 2460 0078 DBB2     		uxtb	r3, r3
 2461 007a 43F00203 		orr	r3, r3, #2
 2462 007e D8B2     		uxtb	r0, r3
 2463 0080 1749     		ldr	r1, .L166+4
 2464 0082 1346     		mov	r3, r2
 2465 0084 5B00     		lsls	r3, r3, #1
 2466 0086 1344     		add	r3, r3, r2
 2467 0088 9B00     		lsls	r3, r3, #2
 2468 008a 0B44     		add	r3, r3, r1
 2469 008c 0133     		adds	r3, r3, #1
 2470 008e 0246     		mov	r2, r0
 2471 0090 1A70     		strb	r2, [r3]
1129:Generated_Source\PSoC5/USBUART_std.c **** 
1130:Generated_Source\PSoC5/USBUART_std.c ****         if ((USBUART_EP[ep].addr & USBUART_DIR_IN) != 0u)
 2472              		.loc 1 1130 0
 2473 0092 BA79     		ldrb	r2, [r7, #6]	@ zero_extendqisi2
 2474 0094 1249     		ldr	r1, .L166+4
 2475 0096 1346     		mov	r3, r2
 2476 0098 5B00     		lsls	r3, r3, #1
 2477 009a 1344     		add	r3, r3, r2
 2478 009c 9B00     		lsls	r3, r3, #2
ARM GAS  C:\Users\ingan\AppData\Local\Temp\ccL06Ou5.s 			page 66


 2479 009e 0B44     		add	r3, r3, r1
 2480 00a0 0433     		adds	r3, r3, #4
 2481 00a2 1B78     		ldrb	r3, [r3]
 2482 00a4 DBB2     		uxtb	r3, r3
 2483 00a6 5BB2     		sxtb	r3, r3
 2484 00a8 002B     		cmp	r3, #0
 2485 00aa 07DA     		bge	.L163
1131:Generated_Source\PSoC5/USBUART_std.c ****         {
1132:Generated_Source\PSoC5/USBUART_std.c ****             /* IN Endpoint */
1133:Generated_Source\PSoC5/USBUART_std.c ****             USBUART_SIE_EP_BASE.sieEp[ep].epCr0 = (USBUART_MODE_STALL_DATA_EP | 
 2486              		.loc 1 1133 0
 2487 00ac 0D4A     		ldr	r2, .L166+8
 2488 00ae BB79     		ldrb	r3, [r7, #6]	@ zero_extendqisi2
 2489 00b0 1B01     		lsls	r3, r3, #4
 2490 00b2 1344     		add	r3, r3, r2
 2491 00b4 0233     		adds	r3, r3, #2
 2492 00b6 8D22     		movs	r2, #141
 2493 00b8 1A70     		strb	r2, [r3]
 2494 00ba 06E0     		b	.L164
 2495              	.L163:
1134:Generated_Source\PSoC5/USBUART_std.c ****                                                             USBUART_MODE_ACK_IN);
1135:Generated_Source\PSoC5/USBUART_std.c ****         }
1136:Generated_Source\PSoC5/USBUART_std.c ****         else
1137:Generated_Source\PSoC5/USBUART_std.c ****         {
1138:Generated_Source\PSoC5/USBUART_std.c ****             /* OUT Endpoint */
1139:Generated_Source\PSoC5/USBUART_std.c ****             USBUART_SIE_EP_BASE.sieEp[ep].epCr0 = (USBUART_MODE_STALL_DATA_EP | 
 2496              		.loc 1 1139 0
 2497 00bc 094A     		ldr	r2, .L166+8
 2498 00be BB79     		ldrb	r3, [r7, #6]	@ zero_extendqisi2
 2499 00c0 1B01     		lsls	r3, r3, #4
 2500 00c2 1344     		add	r3, r3, r2
 2501 00c4 0233     		adds	r3, r3, #2
 2502 00c6 8922     		movs	r2, #137
 2503 00c8 1A70     		strb	r2, [r3]
 2504              	.L164:
1140:Generated_Source\PSoC5/USBUART_std.c ****                                                             USBUART_MODE_ACK_OUT);
1141:Generated_Source\PSoC5/USBUART_std.c ****         }
1142:Generated_Source\PSoC5/USBUART_std.c ****         requestHandled = USBUART_InitNoDataControlTransfer();
 2505              		.loc 1 1142 0
 2506 00ca FFF7FEFF 		bl	USBUART_InitNoDataControlTransfer
 2507 00ce 0346     		mov	r3, r0
 2508 00d0 FB71     		strb	r3, [r7, #7]
 2509              	.L162:
1143:Generated_Source\PSoC5/USBUART_std.c ****     }
1144:Generated_Source\PSoC5/USBUART_std.c **** 
1145:Generated_Source\PSoC5/USBUART_std.c ****     return (requestHandled);
 2510              		.loc 1 1145 0
 2511 00d2 FB79     		ldrb	r3, [r7, #7]	@ zero_extendqisi2
1146:Generated_Source\PSoC5/USBUART_std.c **** }
 2512              		.loc 1 1146 0
 2513 00d4 1846     		mov	r0, r3
 2514 00d6 0837     		adds	r7, r7, #8
 2515              		.cfi_def_cfa_offset 8
 2516 00d8 BD46     		mov	sp, r7
 2517              		.cfi_def_cfa_register 13
 2518              		@ sp needed
 2519 00da 80BD     		pop	{r7, pc}
ARM GAS  C:\Users\ingan\AppData\Local\Temp\ccL06Ou5.s 			page 67


 2520              	.L167:
 2521              		.align	2
 2522              	.L166:
 2523 00dc 00600040 		.word	1073766400
 2524 00e0 00000000 		.word	USBUART_EP
 2525 00e4 FC5F0040 		.word	1073766396
 2526              		.cfi_endproc
 2527              	.LFE10:
 2528              		.size	USBUART_SetEndpointHalt, .-USBUART_SetEndpointHalt
 2529              		.section	.text.USBUART_ClearEndpointHalt,"ax",%progbits
 2530              		.align	2
 2531              		.global	USBUART_ClearEndpointHalt
 2532              		.thumb
 2533              		.thumb_func
 2534              		.type	USBUART_ClearEndpointHalt, %function
 2535              	USBUART_ClearEndpointHalt:
 2536              	.LFB11:
1147:Generated_Source\PSoC5/USBUART_std.c **** 
1148:Generated_Source\PSoC5/USBUART_std.c **** 
1149:Generated_Source\PSoC5/USBUART_std.c **** /*******************************************************************************
1150:Generated_Source\PSoC5/USBUART_std.c **** * Function Name: USBUART_ClearEndpointHalt
1151:Generated_Source\PSoC5/USBUART_std.c **** ****************************************************************************//**
1152:Generated_Source\PSoC5/USBUART_std.c **** *
1153:Generated_Source\PSoC5/USBUART_std.c **** *  This routine handles clear endpoint halt.
1154:Generated_Source\PSoC5/USBUART_std.c **** *
1155:Generated_Source\PSoC5/USBUART_std.c **** * \return
1156:Generated_Source\PSoC5/USBUART_std.c **** *  requestHandled.
1157:Generated_Source\PSoC5/USBUART_std.c **** *
1158:Generated_Source\PSoC5/USBUART_std.c **** * \reentrant
1159:Generated_Source\PSoC5/USBUART_std.c **** *  No.
1160:Generated_Source\PSoC5/USBUART_std.c **** *
1161:Generated_Source\PSoC5/USBUART_std.c **** *******************************************************************************/
1162:Generated_Source\PSoC5/USBUART_std.c **** uint8 USBUART_ClearEndpointHalt(void) 
1163:Generated_Source\PSoC5/USBUART_std.c **** {
 2537              		.loc 1 1163 0
 2538              		.cfi_startproc
 2539              		@ args = 0, pretend = 0, frame = 8
 2540              		@ frame_needed = 1, uses_anonymous_args = 0
 2541 0000 80B5     		push	{r7, lr}
 2542              		.cfi_def_cfa_offset 8
 2543              		.cfi_offset 7, -8
 2544              		.cfi_offset 14, -4
 2545 0002 82B0     		sub	sp, sp, #8
 2546              		.cfi_def_cfa_offset 16
 2547 0004 00AF     		add	r7, sp, #0
 2548              		.cfi_def_cfa_register 7
1164:Generated_Source\PSoC5/USBUART_std.c ****     uint8 requestHandled = USBUART_FALSE;
 2549              		.loc 1 1164 0
 2550 0006 0023     		movs	r3, #0
 2551 0008 FB71     		strb	r3, [r7, #7]
1165:Generated_Source\PSoC5/USBUART_std.c ****     uint8 ep;
1166:Generated_Source\PSoC5/USBUART_std.c **** 
1167:Generated_Source\PSoC5/USBUART_std.c ****     /* Clear endpoint halt */
1168:Generated_Source\PSoC5/USBUART_std.c ****     ep = USBUART_wIndexLoReg & USBUART_DIR_UNUSED;
 2552              		.loc 1 1168 0
 2553 000a 504B     		ldr	r3, .L176
 2554 000c 1B79     		ldrb	r3, [r3, #4]
ARM GAS  C:\Users\ingan\AppData\Local\Temp\ccL06Ou5.s 			page 68


 2555 000e DBB2     		uxtb	r3, r3
 2556 0010 03F07F03 		and	r3, r3, #127
 2557 0014 BB71     		strb	r3, [r7, #6]
1169:Generated_Source\PSoC5/USBUART_std.c **** 
1170:Generated_Source\PSoC5/USBUART_std.c ****     if ((ep > USBUART_EP0) && (ep < USBUART_MAX_EP))
 2558              		.loc 1 1170 0
 2559 0016 BB79     		ldrb	r3, [r7, #6]	@ zero_extendqisi2
 2560 0018 002B     		cmp	r3, #0
 2561 001a 00F09280 		beq	.L169
 2562              		.loc 1 1170 0 is_stmt 0 discriminator 1
 2563 001e BB79     		ldrb	r3, [r7, #6]	@ zero_extendqisi2
 2564 0020 082B     		cmp	r3, #8
 2565 0022 00F28E80 		bhi	.L169
1171:Generated_Source\PSoC5/USBUART_std.c ****     {
1172:Generated_Source\PSoC5/USBUART_std.c ****         /* Clear the endpoint Halt */
1173:Generated_Source\PSoC5/USBUART_std.c ****         USBUART_EP[ep].hwEpState &= (uint8) ~USBUART_ENDPOINT_STATUS_HALT;
 2566              		.loc 1 1173 0 is_stmt 1
 2567 0026 BA79     		ldrb	r2, [r7, #6]	@ zero_extendqisi2
 2568 0028 B979     		ldrb	r1, [r7, #6]	@ zero_extendqisi2
 2569 002a 4948     		ldr	r0, .L176+4
 2570 002c 0B46     		mov	r3, r1
 2571 002e 5B00     		lsls	r3, r3, #1
 2572 0030 0B44     		add	r3, r3, r1
 2573 0032 9B00     		lsls	r3, r3, #2
 2574 0034 0344     		add	r3, r3, r0
 2575 0036 0233     		adds	r3, r3, #2
 2576 0038 1B78     		ldrb	r3, [r3]
 2577 003a DBB2     		uxtb	r3, r3
 2578 003c 23F00103 		bic	r3, r3, #1
 2579 0040 D8B2     		uxtb	r0, r3
 2580 0042 4349     		ldr	r1, .L176+4
 2581 0044 1346     		mov	r3, r2
 2582 0046 5B00     		lsls	r3, r3, #1
 2583 0048 1344     		add	r3, r3, r2
 2584 004a 9B00     		lsls	r3, r3, #2
 2585 004c 0B44     		add	r3, r3, r1
 2586 004e 0233     		adds	r3, r3, #2
 2587 0050 0246     		mov	r2, r0
 2588 0052 1A70     		strb	r2, [r3]
1174:Generated_Source\PSoC5/USBUART_std.c **** 
1175:Generated_Source\PSoC5/USBUART_std.c ****         /* Clear the data toggle */
1176:Generated_Source\PSoC5/USBUART_std.c ****         USBUART_EP[ep].epToggle = 0u;
 2589              		.loc 1 1176 0
 2590 0054 BA79     		ldrb	r2, [r7, #6]	@ zero_extendqisi2
 2591 0056 3E49     		ldr	r1, .L176+4
 2592 0058 1346     		mov	r3, r2
 2593 005a 5B00     		lsls	r3, r3, #1
 2594 005c 1344     		add	r3, r3, r2
 2595 005e 9B00     		lsls	r3, r3, #2
 2596 0060 0B44     		add	r3, r3, r1
 2597 0062 0333     		adds	r3, r3, #3
 2598 0064 0022     		movs	r2, #0
 2599 0066 1A70     		strb	r2, [r3]
1177:Generated_Source\PSoC5/USBUART_std.c ****         
1178:Generated_Source\PSoC5/USBUART_std.c ****         /* Clear toggle bit for already armed packet */
1179:Generated_Source\PSoC5/USBUART_std.c ****         USBUART_SIE_EP_BASE.sieEp[ep].epCnt0 &= (uint8) ~(uint8)USBUART_EPX_CNT_DATA_TOGGLE;
 2600              		.loc 1 1179 0
ARM GAS  C:\Users\ingan\AppData\Local\Temp\ccL06Ou5.s 			page 69


 2601 0068 3A49     		ldr	r1, .L176+8
 2602 006a BB79     		ldrb	r3, [r7, #6]	@ zero_extendqisi2
 2603 006c 3948     		ldr	r0, .L176+8
 2604 006e BA79     		ldrb	r2, [r7, #6]	@ zero_extendqisi2
 2605 0070 1201     		lsls	r2, r2, #4
 2606 0072 0244     		add	r2, r2, r0
 2607 0074 1278     		ldrb	r2, [r2]
 2608 0076 D2B2     		uxtb	r2, r2
 2609 0078 02F07F02 		and	r2, r2, #127
 2610 007c D2B2     		uxtb	r2, r2
 2611 007e 1B01     		lsls	r3, r3, #4
 2612 0080 0B44     		add	r3, r3, r1
 2613 0082 1A70     		strb	r2, [r3]
1180:Generated_Source\PSoC5/USBUART_std.c ****         
1181:Generated_Source\PSoC5/USBUART_std.c ****         /* Return API State as it was defined before */
1182:Generated_Source\PSoC5/USBUART_std.c ****         USBUART_EP[ep].apiEpState &= (uint8) ~USBUART_NO_EVENT_ALLOWED;
 2614              		.loc 1 1182 0
 2615 0084 BA79     		ldrb	r2, [r7, #6]	@ zero_extendqisi2
 2616 0086 B979     		ldrb	r1, [r7, #6]	@ zero_extendqisi2
 2617 0088 3148     		ldr	r0, .L176+4
 2618 008a 0B46     		mov	r3, r1
 2619 008c 5B00     		lsls	r3, r3, #1
 2620 008e 0B44     		add	r3, r3, r1
 2621 0090 9B00     		lsls	r3, r3, #2
 2622 0092 0344     		add	r3, r3, r0
 2623 0094 0133     		adds	r3, r3, #1
 2624 0096 1B78     		ldrb	r3, [r3]
 2625 0098 DBB2     		uxtb	r3, r3
 2626 009a 23F00203 		bic	r3, r3, #2
 2627 009e D8B2     		uxtb	r0, r3
 2628 00a0 2B49     		ldr	r1, .L176+4
 2629 00a2 1346     		mov	r3, r2
 2630 00a4 5B00     		lsls	r3, r3, #1
 2631 00a6 1344     		add	r3, r3, r2
 2632 00a8 9B00     		lsls	r3, r3, #2
 2633 00aa 0B44     		add	r3, r3, r1
 2634 00ac 0133     		adds	r3, r3, #1
 2635 00ae 0246     		mov	r2, r0
 2636 00b0 1A70     		strb	r2, [r3]
1183:Generated_Source\PSoC5/USBUART_std.c **** 
1184:Generated_Source\PSoC5/USBUART_std.c ****         if ((USBUART_EP[ep].addr & USBUART_DIR_IN) != 0u)
 2637              		.loc 1 1184 0
 2638 00b2 BA79     		ldrb	r2, [r7, #6]	@ zero_extendqisi2
 2639 00b4 2649     		ldr	r1, .L176+4
 2640 00b6 1346     		mov	r3, r2
 2641 00b8 5B00     		lsls	r3, r3, #1
 2642 00ba 1344     		add	r3, r3, r2
 2643 00bc 9B00     		lsls	r3, r3, #2
 2644 00be 0B44     		add	r3, r3, r1
 2645 00c0 0433     		adds	r3, r3, #4
 2646 00c2 1B78     		ldrb	r3, [r3]
 2647 00c4 DBB2     		uxtb	r3, r3
 2648 00c6 5BB2     		sxtb	r3, r3
 2649 00c8 002B     		cmp	r3, #0
 2650 00ca 1BDA     		bge	.L170
1185:Generated_Source\PSoC5/USBUART_std.c ****         {
1186:Generated_Source\PSoC5/USBUART_std.c ****             /* IN Endpoint */
ARM GAS  C:\Users\ingan\AppData\Local\Temp\ccL06Ou5.s 			page 70


1187:Generated_Source\PSoC5/USBUART_std.c ****             if(USBUART_EP[ep].apiEpState == USBUART_IN_BUFFER_EMPTY)
 2651              		.loc 1 1187 0
 2652 00cc BA79     		ldrb	r2, [r7, #6]	@ zero_extendqisi2
 2653 00ce 2049     		ldr	r1, .L176+4
 2654 00d0 1346     		mov	r3, r2
 2655 00d2 5B00     		lsls	r3, r3, #1
 2656 00d4 1344     		add	r3, r3, r2
 2657 00d6 9B00     		lsls	r3, r3, #2
 2658 00d8 0B44     		add	r3, r3, r1
 2659 00da 0133     		adds	r3, r3, #1
 2660 00dc 1B78     		ldrb	r3, [r3]
 2661 00de DBB2     		uxtb	r3, r3
 2662 00e0 012B     		cmp	r3, #1
 2663 00e2 07D1     		bne	.L171
1188:Generated_Source\PSoC5/USBUART_std.c ****             {       
1189:Generated_Source\PSoC5/USBUART_std.c ****                 /* Wait for next packet from application */
1190:Generated_Source\PSoC5/USBUART_std.c ****                 USBUART_SIE_EP_BASE.sieEp[ep].epCr0 = USBUART_MODE_NAK_IN;
 2664              		.loc 1 1190 0
 2665 00e4 1B4A     		ldr	r2, .L176+8
 2666 00e6 BB79     		ldrb	r3, [r7, #6]	@ zero_extendqisi2
 2667 00e8 1B01     		lsls	r3, r3, #4
 2668 00ea 1344     		add	r3, r3, r2
 2669 00ec 0233     		adds	r3, r3, #2
 2670 00ee 0C22     		movs	r2, #12
 2671 00f0 1A70     		strb	r2, [r3]
 2672 00f2 22E0     		b	.L173
 2673              	.L171:
1191:Generated_Source\PSoC5/USBUART_std.c ****             }
1192:Generated_Source\PSoC5/USBUART_std.c ****             else    /* Continue armed transfer */
1193:Generated_Source\PSoC5/USBUART_std.c ****             {
1194:Generated_Source\PSoC5/USBUART_std.c ****                 USBUART_SIE_EP_BASE.sieEp[ep].epCr0 = USBUART_MODE_ACK_IN;
 2674              		.loc 1 1194 0
 2675 00f4 174A     		ldr	r2, .L176+8
 2676 00f6 BB79     		ldrb	r3, [r7, #6]	@ zero_extendqisi2
 2677 00f8 1B01     		lsls	r3, r3, #4
 2678 00fa 1344     		add	r3, r3, r2
 2679 00fc 0233     		adds	r3, r3, #2
 2680 00fe 0D22     		movs	r2, #13
 2681 0100 1A70     		strb	r2, [r3]
 2682 0102 1AE0     		b	.L173
 2683              	.L170:
1195:Generated_Source\PSoC5/USBUART_std.c ****             }
1196:Generated_Source\PSoC5/USBUART_std.c ****         }
1197:Generated_Source\PSoC5/USBUART_std.c ****         else
1198:Generated_Source\PSoC5/USBUART_std.c ****         {
1199:Generated_Source\PSoC5/USBUART_std.c ****             /* OUT Endpoint */
1200:Generated_Source\PSoC5/USBUART_std.c ****             if (USBUART_EP[ep].apiEpState == USBUART_OUT_BUFFER_FULL)
 2684              		.loc 1 1200 0
 2685 0104 BA79     		ldrb	r2, [r7, #6]	@ zero_extendqisi2
 2686 0106 1249     		ldr	r1, .L176+4
 2687 0108 1346     		mov	r3, r2
 2688 010a 5B00     		lsls	r3, r3, #1
 2689 010c 1344     		add	r3, r3, r2
 2690 010e 9B00     		lsls	r3, r3, #2
 2691 0110 0B44     		add	r3, r3, r1
 2692 0112 0133     		adds	r3, r3, #1
 2693 0114 1B78     		ldrb	r3, [r3]
ARM GAS  C:\Users\ingan\AppData\Local\Temp\ccL06Ou5.s 			page 71


 2694 0116 DBB2     		uxtb	r3, r3
 2695 0118 012B     		cmp	r3, #1
 2696 011a 07D1     		bne	.L174
1201:Generated_Source\PSoC5/USBUART_std.c ****             {       
1202:Generated_Source\PSoC5/USBUART_std.c ****                 /* Allow application to read full buffer */
1203:Generated_Source\PSoC5/USBUART_std.c ****                 USBUART_SIE_EP_BASE.sieEp[ep].epCr0 = USBUART_MODE_NAK_OUT;
 2697              		.loc 1 1203 0
 2698 011c 0D4A     		ldr	r2, .L176+8
 2699 011e BB79     		ldrb	r3, [r7, #6]	@ zero_extendqisi2
 2700 0120 1B01     		lsls	r3, r3, #4
 2701 0122 1344     		add	r3, r3, r2
 2702 0124 0233     		adds	r3, r3, #2
 2703 0126 0822     		movs	r2, #8
 2704 0128 1A70     		strb	r2, [r3]
 2705 012a 06E0     		b	.L173
 2706              	.L174:
1204:Generated_Source\PSoC5/USBUART_std.c ****             }
1205:Generated_Source\PSoC5/USBUART_std.c ****             else    /* Mark endpoint as empty, so it will be reloaded */
1206:Generated_Source\PSoC5/USBUART_std.c ****             {
1207:Generated_Source\PSoC5/USBUART_std.c ****                 USBUART_SIE_EP_BASE.sieEp[ep].epCr0 = USBUART_MODE_ACK_OUT;
 2707              		.loc 1 1207 0
 2708 012c 094A     		ldr	r2, .L176+8
 2709 012e BB79     		ldrb	r3, [r7, #6]	@ zero_extendqisi2
 2710 0130 1B01     		lsls	r3, r3, #4
 2711 0132 1344     		add	r3, r3, r2
 2712 0134 0233     		adds	r3, r3, #2
 2713 0136 0922     		movs	r2, #9
 2714 0138 1A70     		strb	r2, [r3]
 2715              	.L173:
1208:Generated_Source\PSoC5/USBUART_std.c ****             }
1209:Generated_Source\PSoC5/USBUART_std.c ****         }
1210:Generated_Source\PSoC5/USBUART_std.c ****         
1211:Generated_Source\PSoC5/USBUART_std.c ****         requestHandled = USBUART_InitNoDataControlTransfer();
 2716              		.loc 1 1211 0
 2717 013a FFF7FEFF 		bl	USBUART_InitNoDataControlTransfer
 2718 013e 0346     		mov	r3, r0
 2719 0140 FB71     		strb	r3, [r7, #7]
 2720              	.L169:
1212:Generated_Source\PSoC5/USBUART_std.c ****     }
1213:Generated_Source\PSoC5/USBUART_std.c **** 
1214:Generated_Source\PSoC5/USBUART_std.c ****     return(requestHandled);
 2721              		.loc 1 1214 0
 2722 0142 FB79     		ldrb	r3, [r7, #7]	@ zero_extendqisi2
1215:Generated_Source\PSoC5/USBUART_std.c **** }
 2723              		.loc 1 1215 0
 2724 0144 1846     		mov	r0, r3
 2725 0146 0837     		adds	r7, r7, #8
 2726              		.cfi_def_cfa_offset 8
 2727 0148 BD46     		mov	sp, r7
 2728              		.cfi_def_cfa_register 13
 2729              		@ sp needed
 2730 014a 80BD     		pop	{r7, pc}
 2731              	.L177:
 2732              		.align	2
 2733              	.L176:
 2734 014c 00600040 		.word	1073766400
 2735 0150 00000000 		.word	USBUART_EP
ARM GAS  C:\Users\ingan\AppData\Local\Temp\ccL06Ou5.s 			page 72


 2736 0154 FC5F0040 		.word	1073766396
 2737              		.cfi_endproc
 2738              	.LFE11:
 2739              		.size	USBUART_ClearEndpointHalt, .-USBUART_ClearEndpointHalt
 2740              		.section	.text.USBUART_ValidateAlternateSetting,"ax",%progbits
 2741              		.align	2
 2742              		.global	USBUART_ValidateAlternateSetting
 2743              		.thumb
 2744              		.thumb_func
 2745              		.type	USBUART_ValidateAlternateSetting, %function
 2746              	USBUART_ValidateAlternateSetting:
 2747              	.LFB12:
1216:Generated_Source\PSoC5/USBUART_std.c **** 
1217:Generated_Source\PSoC5/USBUART_std.c **** 
1218:Generated_Source\PSoC5/USBUART_std.c **** /*******************************************************************************
1219:Generated_Source\PSoC5/USBUART_std.c **** * Function Name: USBUART_ValidateAlternateSetting
1220:Generated_Source\PSoC5/USBUART_std.c **** ****************************************************************************//**
1221:Generated_Source\PSoC5/USBUART_std.c **** *
1222:Generated_Source\PSoC5/USBUART_std.c **** *  Validates (and records) a SET INTERFACE request.
1223:Generated_Source\PSoC5/USBUART_std.c **** *
1224:Generated_Source\PSoC5/USBUART_std.c **** * \return
1225:Generated_Source\PSoC5/USBUART_std.c **** *  requestHandled.
1226:Generated_Source\PSoC5/USBUART_std.c **** *
1227:Generated_Source\PSoC5/USBUART_std.c **** * \reentrant
1228:Generated_Source\PSoC5/USBUART_std.c **** *  No.
1229:Generated_Source\PSoC5/USBUART_std.c **** *
1230:Generated_Source\PSoC5/USBUART_std.c **** *******************************************************************************/
1231:Generated_Source\PSoC5/USBUART_std.c **** uint8 USBUART_ValidateAlternateSetting(void) 
1232:Generated_Source\PSoC5/USBUART_std.c **** {
 2748              		.loc 1 1232 0
 2749              		.cfi_startproc
 2750              		@ args = 0, pretend = 0, frame = 16
 2751              		@ frame_needed = 1, uses_anonymous_args = 0
 2752 0000 80B5     		push	{r7, lr}
 2753              		.cfi_def_cfa_offset 8
 2754              		.cfi_offset 7, -8
 2755              		.cfi_offset 14, -4
 2756 0002 84B0     		sub	sp, sp, #16
 2757              		.cfi_def_cfa_offset 24
 2758 0004 00AF     		add	r7, sp, #0
 2759              		.cfi_def_cfa_register 7
1233:Generated_Source\PSoC5/USBUART_std.c ****     uint8 requestHandled = USBUART_FALSE;
 2760              		.loc 1 1233 0
 2761 0006 0023     		movs	r3, #0
 2762 0008 FB73     		strb	r3, [r7, #15]
1234:Generated_Source\PSoC5/USBUART_std.c ****     
1235:Generated_Source\PSoC5/USBUART_std.c ****     uint8 interfaceNum;
1236:Generated_Source\PSoC5/USBUART_std.c ****     uint8 curInterfacesNum;
1237:Generated_Source\PSoC5/USBUART_std.c ****     const T_USBUART_LUT CYCODE *pTmp;
1238:Generated_Source\PSoC5/USBUART_std.c ****     
1239:Generated_Source\PSoC5/USBUART_std.c ****     /* Get interface number from the request. */
1240:Generated_Source\PSoC5/USBUART_std.c ****     interfaceNum = (uint8) USBUART_wIndexLoReg;
 2763              		.loc 1 1240 0
 2764 000a 154B     		ldr	r3, .L182
 2765 000c 1B79     		ldrb	r3, [r3, #4]
 2766 000e BB73     		strb	r3, [r7, #14]
1241:Generated_Source\PSoC5/USBUART_std.c ****     
ARM GAS  C:\Users\ingan\AppData\Local\Temp\ccL06Ou5.s 			page 73


1242:Generated_Source\PSoC5/USBUART_std.c ****     /* Get number of interfaces for current configuration. */
1243:Generated_Source\PSoC5/USBUART_std.c ****     pTmp = USBUART_GetConfigTablePtr(USBUART_configuration - 1u);
 2767              		.loc 1 1243 0
 2768 0010 144B     		ldr	r3, .L182+4
 2769 0012 1B78     		ldrb	r3, [r3]
 2770 0014 DBB2     		uxtb	r3, r3
 2771 0016 013B     		subs	r3, r3, #1
 2772 0018 DBB2     		uxtb	r3, r3
 2773 001a 1846     		mov	r0, r3
 2774 001c FFF7FEFF 		bl	USBUART_GetConfigTablePtr
 2775 0020 B860     		str	r0, [r7, #8]
1244:Generated_Source\PSoC5/USBUART_std.c ****     curInterfacesNum  = ((const uint8 *) pTmp->p_list)[USBUART_CONFIG_DESCR_NUM_INTERFACES];
 2776              		.loc 1 1244 0
 2777 0022 BB68     		ldr	r3, [r7, #8]
 2778 0024 5B68     		ldr	r3, [r3, #4]
 2779 0026 1B79     		ldrb	r3, [r3, #4]
 2780 0028 FB71     		strb	r3, [r7, #7]
1245:Generated_Source\PSoC5/USBUART_std.c **** 
1246:Generated_Source\PSoC5/USBUART_std.c ****     /* Validate that interface number is within range. */
1247:Generated_Source\PSoC5/USBUART_std.c ****     if ((interfaceNum <= curInterfacesNum) || (interfaceNum <= USBUART_MAX_INTERFACES_NUMBER))
 2781              		.loc 1 1247 0
 2782 002a BA7B     		ldrb	r2, [r7, #14]	@ zero_extendqisi2
 2783 002c FB79     		ldrb	r3, [r7, #7]	@ zero_extendqisi2
 2784 002e 9A42     		cmp	r2, r3
 2785 0030 02D9     		bls	.L179
 2786              		.loc 1 1247 0 is_stmt 0 discriminator 1
 2787 0032 BB7B     		ldrb	r3, [r7, #14]	@ zero_extendqisi2
 2788 0034 022B     		cmp	r3, #2
 2789 0036 0ED8     		bhi	.L180
 2790              	.L179:
1248:Generated_Source\PSoC5/USBUART_std.c ****     {
1249:Generated_Source\PSoC5/USBUART_std.c ****         /* Save current and new alternate settings (come with request) to make 
1250:Generated_Source\PSoC5/USBUART_std.c ****         * desicion about following endpoint re-configuration.
1251:Generated_Source\PSoC5/USBUART_std.c ****         */
1252:Generated_Source\PSoC5/USBUART_std.c ****         USBUART_interfaceSettingLast[interfaceNum] = USBUART_interfaceSetting[interfaceNum];
 2791              		.loc 1 1252 0 is_stmt 1
 2792 0038 BB7B     		ldrb	r3, [r7, #14]	@ zero_extendqisi2
 2793 003a BA7B     		ldrb	r2, [r7, #14]	@ zero_extendqisi2
 2794 003c 0A49     		ldr	r1, .L182+8
 2795 003e 8A5C     		ldrb	r2, [r1, r2]
 2796 0040 D1B2     		uxtb	r1, r2
 2797 0042 0A4A     		ldr	r2, .L182+12
 2798 0044 D154     		strb	r1, [r2, r3]
1253:Generated_Source\PSoC5/USBUART_std.c ****         USBUART_interfaceSetting[interfaceNum]     = (uint8) USBUART_wValueLoReg;
 2799              		.loc 1 1253 0
 2800 0046 BB7B     		ldrb	r3, [r7, #14]	@ zero_extendqisi2
 2801 0048 054A     		ldr	r2, .L182
 2802 004a 9278     		ldrb	r2, [r2, #2]
 2803 004c D1B2     		uxtb	r1, r2
 2804 004e 064A     		ldr	r2, .L182+8
 2805 0050 D154     		strb	r1, [r2, r3]
1254:Generated_Source\PSoC5/USBUART_std.c ****         
1255:Generated_Source\PSoC5/USBUART_std.c ****         requestHandled = USBUART_TRUE;
 2806              		.loc 1 1255 0
 2807 0052 0123     		movs	r3, #1
 2808 0054 FB73     		strb	r3, [r7, #15]
 2809              	.L180:
ARM GAS  C:\Users\ingan\AppData\Local\Temp\ccL06Ou5.s 			page 74


1256:Generated_Source\PSoC5/USBUART_std.c ****     }
1257:Generated_Source\PSoC5/USBUART_std.c **** 
1258:Generated_Source\PSoC5/USBUART_std.c ****     return (requestHandled);
 2810              		.loc 1 1258 0
 2811 0056 FB7B     		ldrb	r3, [r7, #15]	@ zero_extendqisi2
1259:Generated_Source\PSoC5/USBUART_std.c **** }
 2812              		.loc 1 1259 0
 2813 0058 1846     		mov	r0, r3
 2814 005a 1037     		adds	r7, r7, #16
 2815              		.cfi_def_cfa_offset 8
 2816 005c BD46     		mov	sp, r7
 2817              		.cfi_def_cfa_register 13
 2818              		@ sp needed
 2819 005e 80BD     		pop	{r7, pc}
 2820              	.L183:
 2821              		.align	2
 2822              	.L182:
 2823 0060 00600040 		.word	1073766400
 2824 0064 00000000 		.word	USBUART_configuration
 2825 0068 00000000 		.word	USBUART_interfaceSetting
 2826 006c 00000000 		.word	USBUART_interfaceSettingLast
 2827              		.cfi_endproc
 2828              	.LFE12:
 2829              		.size	USBUART_ValidateAlternateSetting, .-USBUART_ValidateAlternateSetting
 2830              		.bss
 2831              		.align	2
 2832              	USBUART_tBuffer.5380:
 2833 0000 0000     		.space	2
 2834              		.text
 2835              	.Letext0:
 2836              		.file 2 "Generated_Source\\PSoC5\\cytypes.h"
 2837              		.file 3 "Generated_Source\\PSoC5\\USBUART.h"
 2838              		.file 4 "Generated_Source\\PSoC5\\USBUART_pvt.h"
 2839              		.section	.debug_info,"",%progbits
 2840              	.Ldebug_info0:
 2841 0000 4D090000 		.4byte	0x94d
 2842 0004 0400     		.2byte	0x4
 2843 0006 00000000 		.4byte	.Ldebug_abbrev0
 2844 000a 04       		.byte	0x4
 2845 000b 01       		.uleb128 0x1
 2846 000c D6010000 		.4byte	.LASF113
 2847 0010 0C       		.byte	0xc
 2848 0011 07060000 		.4byte	.LASF114
 2849 0015 0E030000 		.4byte	.LASF115
 2850 0019 00000000 		.4byte	.Ldebug_ranges0+0
 2851 001d 00000000 		.4byte	0
 2852 0021 00000000 		.4byte	.Ldebug_line0
 2853 0025 02       		.uleb128 0x2
 2854 0026 01       		.byte	0x1
 2855 0027 06       		.byte	0x6
 2856 0028 0F040000 		.4byte	.LASF0
 2857 002c 02       		.uleb128 0x2
 2858 002d 01       		.byte	0x1
 2859 002e 08       		.byte	0x8
 2860 002f D0030000 		.4byte	.LASF1
 2861 0033 02       		.uleb128 0x2
 2862 0034 02       		.byte	0x2
ARM GAS  C:\Users\ingan\AppData\Local\Temp\ccL06Ou5.s 			page 75


 2863 0035 05       		.byte	0x5
 2864 0036 8B000000 		.4byte	.LASF2
 2865 003a 02       		.uleb128 0x2
 2866 003b 02       		.byte	0x2
 2867 003c 07       		.byte	0x7
 2868 003d B4040000 		.4byte	.LASF3
 2869 0041 02       		.uleb128 0x2
 2870 0042 04       		.byte	0x4
 2871 0043 05       		.byte	0x5
 2872 0044 5A030000 		.4byte	.LASF4
 2873 0048 02       		.uleb128 0x2
 2874 0049 04       		.byte	0x4
 2875 004a 07       		.byte	0x7
 2876 004b 9D050000 		.4byte	.LASF5
 2877 004f 02       		.uleb128 0x2
 2878 0050 08       		.byte	0x8
 2879 0051 05       		.byte	0x5
 2880 0052 CA020000 		.4byte	.LASF6
 2881 0056 02       		.uleb128 0x2
 2882 0057 08       		.byte	0x8
 2883 0058 07       		.byte	0x7
 2884 0059 31040000 		.4byte	.LASF7
 2885 005d 03       		.uleb128 0x3
 2886 005e 04       		.byte	0x4
 2887 005f 05       		.byte	0x5
 2888 0060 696E7400 		.ascii	"int\000"
 2889 0064 02       		.uleb128 0x2
 2890 0065 04       		.byte	0x4
 2891 0066 07       		.byte	0x7
 2892 0067 68040000 		.4byte	.LASF8
 2893 006b 04       		.uleb128 0x4
 2894 006c 49050000 		.4byte	.LASF9
 2895 0070 02       		.byte	0x2
 2896 0071 E401     		.2byte	0x1e4
 2897 0073 2C000000 		.4byte	0x2c
 2898 0077 04       		.uleb128 0x4
 2899 0078 9C010000 		.4byte	.LASF10
 2900 007c 02       		.byte	0x2
 2901 007d E501     		.2byte	0x1e5
 2902 007f 3A000000 		.4byte	0x3a
 2903 0083 04       		.uleb128 0x4
 2904 0084 C6050000 		.4byte	.LASF11
 2905 0088 02       		.byte	0x2
 2906 0089 E601     		.2byte	0x1e6
 2907 008b 48000000 		.4byte	0x48
 2908 008f 02       		.uleb128 0x2
 2909 0090 04       		.byte	0x4
 2910 0091 04       		.byte	0x4
 2911 0092 9D020000 		.4byte	.LASF12
 2912 0096 02       		.uleb128 0x2
 2913 0097 08       		.byte	0x8
 2914 0098 04       		.byte	0x4
 2915 0099 8A060000 		.4byte	.LASF13
 2916 009d 04       		.uleb128 0x4
 2917 009e DD000000 		.4byte	.LASF14
 2918 00a2 02       		.byte	0x2
 2919 00a3 F501     		.2byte	0x1f5
ARM GAS  C:\Users\ingan\AppData\Local\Temp\ccL06Ou5.s 			page 76


 2920 00a5 A9000000 		.4byte	0xa9
 2921 00a9 02       		.uleb128 0x2
 2922 00aa 01       		.byte	0x1
 2923 00ab 08       		.byte	0x8
 2924 00ac F2040000 		.4byte	.LASF15
 2925 00b0 04       		.uleb128 0x4
 2926 00b1 98050000 		.4byte	.LASF16
 2927 00b5 02       		.byte	0x2
 2928 00b6 8E02     		.2byte	0x28e
 2929 00b8 BC000000 		.4byte	0xbc
 2930 00bc 05       		.uleb128 0x5
 2931 00bd 6B000000 		.4byte	0x6b
 2932 00c1 02       		.uleb128 0x2
 2933 00c2 08       		.byte	0x8
 2934 00c3 04       		.byte	0x4
 2935 00c4 F5000000 		.4byte	.LASF17
 2936 00c8 02       		.uleb128 0x2
 2937 00c9 04       		.byte	0x4
 2938 00ca 07       		.byte	0x7
 2939 00cb 95000000 		.4byte	.LASF18
 2940 00cf 06       		.uleb128 0x6
 2941 00d0 0C       		.byte	0xc
 2942 00d1 03       		.byte	0x3
 2943 00d2 8D       		.byte	0x8d
 2944 00d3 44010000 		.4byte	0x144
 2945 00d7 07       		.uleb128 0x7
 2946 00d8 7F040000 		.4byte	.LASF19
 2947 00dc 03       		.byte	0x3
 2948 00dd 8F       		.byte	0x8f
 2949 00de 6B000000 		.4byte	0x6b
 2950 00e2 00       		.byte	0
 2951 00e3 07       		.uleb128 0x7
 2952 00e4 63030000 		.4byte	.LASF20
 2953 00e8 03       		.byte	0x3
 2954 00e9 90       		.byte	0x90
 2955 00ea 6B000000 		.4byte	0x6b
 2956 00ee 01       		.byte	0x1
 2957 00ef 07       		.uleb128 0x7
 2958 00f0 7A050000 		.4byte	.LASF21
 2959 00f4 03       		.byte	0x3
 2960 00f5 91       		.byte	0x91
 2961 00f6 6B000000 		.4byte	0x6b
 2962 00fa 02       		.byte	0x2
 2963 00fb 07       		.uleb128 0x7
 2964 00fc 14000000 		.4byte	.LASF22
 2965 0100 03       		.byte	0x3
 2966 0101 92       		.byte	0x92
 2967 0102 6B000000 		.4byte	0x6b
 2968 0106 03       		.byte	0x3
 2969 0107 07       		.uleb128 0x7
 2970 0108 3F000000 		.4byte	.LASF23
 2971 010c 03       		.byte	0x3
 2972 010d 93       		.byte	0x93
 2973 010e 6B000000 		.4byte	0x6b
 2974 0112 04       		.byte	0x4
 2975 0113 07       		.uleb128 0x7
 2976 0114 C0000000 		.4byte	.LASF24
ARM GAS  C:\Users\ingan\AppData\Local\Temp\ccL06Ou5.s 			page 77


 2977 0118 03       		.byte	0x3
 2978 0119 94       		.byte	0x94
 2979 011a 6B000000 		.4byte	0x6b
 2980 011e 05       		.byte	0x5
 2981 011f 07       		.uleb128 0x7
 2982 0120 B5030000 		.4byte	.LASF25
 2983 0124 03       		.byte	0x3
 2984 0125 95       		.byte	0x95
 2985 0126 77000000 		.4byte	0x77
 2986 012a 06       		.byte	0x6
 2987 012b 07       		.uleb128 0x7
 2988 012c E0050000 		.4byte	.LASF26
 2989 0130 03       		.byte	0x3
 2990 0131 96       		.byte	0x96
 2991 0132 77000000 		.4byte	0x77
 2992 0136 08       		.byte	0x8
 2993 0137 07       		.uleb128 0x7
 2994 0138 FA060000 		.4byte	.LASF27
 2995 013c 03       		.byte	0x3
 2996 013d 97       		.byte	0x97
 2997 013e 6B000000 		.4byte	0x6b
 2998 0142 0A       		.byte	0xa
 2999 0143 00       		.byte	0
 3000 0144 08       		.uleb128 0x8
 3001 0145 F7040000 		.4byte	.LASF28
 3002 0149 03       		.byte	0x3
 3003 014a 98       		.byte	0x98
 3004 014b CF000000 		.4byte	0xcf
 3005 014f 06       		.uleb128 0x6
 3006 0150 08       		.byte	0x8
 3007 0151 03       		.byte	0x3
 3008 0152 9A       		.byte	0x9a
 3009 0153 A0010000 		.4byte	0x1a0
 3010 0157 07       		.uleb128 0x7
 3011 0158 FA060000 		.4byte	.LASF27
 3012 015c 03       		.byte	0x3
 3013 015d 9C       		.byte	0x9c
 3014 015e 6B000000 		.4byte	0x6b
 3015 0162 00       		.byte	0
 3016 0163 07       		.uleb128 0x7
 3017 0164 E3000000 		.4byte	.LASF29
 3018 0168 03       		.byte	0x3
 3019 0169 9D       		.byte	0x9d
 3020 016a 6B000000 		.4byte	0x6b
 3021 016e 01       		.byte	0x1
 3022 016f 07       		.uleb128 0x7
 3023 0170 3F000000 		.4byte	.LASF23
 3024 0174 03       		.byte	0x3
 3025 0175 9E       		.byte	0x9e
 3026 0176 6B000000 		.4byte	0x6b
 3027 017a 02       		.byte	0x2
 3028 017b 07       		.uleb128 0x7
 3029 017c 9B030000 		.4byte	.LASF30
 3030 0180 03       		.byte	0x3
 3031 0181 9F       		.byte	0x9f
 3032 0182 6B000000 		.4byte	0x6b
 3033 0186 03       		.byte	0x3
ARM GAS  C:\Users\ingan\AppData\Local\Temp\ccL06Ou5.s 			page 78


 3034 0187 07       		.uleb128 0x7
 3035 0188 E0050000 		.4byte	.LASF26
 3036 018c 03       		.byte	0x3
 3037 018d A0       		.byte	0xa0
 3038 018e 77000000 		.4byte	0x77
 3039 0192 04       		.byte	0x4
 3040 0193 07       		.uleb128 0x7
 3041 0194 A6030000 		.4byte	.LASF31
 3042 0198 03       		.byte	0x3
 3043 0199 A1       		.byte	0xa1
 3044 019a 6B000000 		.4byte	0x6b
 3045 019e 06       		.byte	0x6
 3046 019f 00       		.byte	0
 3047 01a0 08       		.uleb128 0x8
 3048 01a1 14070000 		.4byte	.LASF32
 3049 01a5 03       		.byte	0x3
 3050 01a6 A2       		.byte	0xa2
 3051 01a7 4F010000 		.4byte	0x14f
 3052 01ab 06       		.uleb128 0x6
 3053 01ac 04       		.byte	0x4
 3054 01ad 03       		.byte	0x3
 3055 01ae A4       		.byte	0xa4
 3056 01af CC010000 		.4byte	0x1cc
 3057 01b3 07       		.uleb128 0x7
 3058 01b4 CF040000 		.4byte	.LASF33
 3059 01b8 03       		.byte	0x3
 3060 01b9 A6       		.byte	0xa6
 3061 01ba 6B000000 		.4byte	0x6b
 3062 01be 00       		.byte	0
 3063 01bf 07       		.uleb128 0x7
 3064 01c0 7D020000 		.4byte	.LASF34
 3065 01c4 03       		.byte	0x3
 3066 01c5 A7       		.byte	0xa7
 3067 01c6 77000000 		.4byte	0x77
 3068 01ca 02       		.byte	0x2
 3069 01cb 00       		.byte	0
 3070 01cc 08       		.uleb128 0x8
 3071 01cd D6040000 		.4byte	.LASF35
 3072 01d1 03       		.byte	0x3
 3073 01d2 A8       		.byte	0xa8
 3074 01d3 AB010000 		.4byte	0x1ab
 3075 01d7 06       		.uleb128 0x6
 3076 01d8 0C       		.byte	0xc
 3077 01d9 03       		.byte	0x3
 3078 01da AA       		.byte	0xaa
 3079 01db 04020000 		.4byte	0x204
 3080 01df 07       		.uleb128 0x7
 3081 01e0 EB050000 		.4byte	.LASF36
 3082 01e4 03       		.byte	0x3
 3083 01e5 AC       		.byte	0xac
 3084 01e6 77000000 		.4byte	0x77
 3085 01ea 00       		.byte	0
 3086 01eb 07       		.uleb128 0x7
 3087 01ec 7D000000 		.4byte	.LASF37
 3088 01f0 03       		.byte	0x3
 3089 01f1 AD       		.byte	0xad
 3090 01f2 04020000 		.4byte	0x204
ARM GAS  C:\Users\ingan\AppData\Local\Temp\ccL06Ou5.s 			page 79


 3091 01f6 04       		.byte	0x4
 3092 01f7 07       		.uleb128 0x7
 3093 01f8 39060000 		.4byte	.LASF38
 3094 01fc 03       		.byte	0x3
 3095 01fd AE       		.byte	0xae
 3096 01fe 0A020000 		.4byte	0x20a
 3097 0202 08       		.byte	0x8
 3098 0203 00       		.byte	0
 3099 0204 09       		.uleb128 0x9
 3100 0205 04       		.byte	0x4
 3101 0206 BC000000 		.4byte	0xbc
 3102 020a 09       		.uleb128 0x9
 3103 020b 04       		.byte	0x4
 3104 020c CC010000 		.4byte	0x1cc
 3105 0210 08       		.uleb128 0x8
 3106 0211 5C010000 		.4byte	.LASF39
 3107 0215 03       		.byte	0x3
 3108 0216 AF       		.byte	0xaf
 3109 0217 D7010000 		.4byte	0x1d7
 3110 021b 06       		.uleb128 0x6
 3111 021c 08       		.byte	0x8
 3112 021d 03       		.byte	0x3
 3113 021e B1       		.byte	0xb1
 3114 021f 3A020000 		.4byte	0x23a
 3115 0223 0A       		.uleb128 0xa
 3116 0224 6300     		.ascii	"c\000"
 3117 0226 03       		.byte	0x3
 3118 0227 B3       		.byte	0xb3
 3119 0228 6B000000 		.4byte	0x6b
 3120 022c 00       		.byte	0
 3121 022d 07       		.uleb128 0x7
 3122 022e 32060000 		.4byte	.LASF40
 3123 0232 03       		.byte	0x3
 3124 0233 B4       		.byte	0xb4
 3125 0234 3A020000 		.4byte	0x23a
 3126 0238 04       		.byte	0x4
 3127 0239 00       		.byte	0
 3128 023a 09       		.uleb128 0x9
 3129 023b 04       		.byte	0x4
 3130 023c 40020000 		.4byte	0x240
 3131 0240 0B       		.uleb128 0xb
 3132 0241 08       		.uleb128 0x8
 3133 0242 44000000 		.4byte	.LASF41
 3134 0246 03       		.byte	0x3
 3135 0247 B5       		.byte	0xb5
 3136 0248 1B020000 		.4byte	0x21b
 3137 024c 06       		.uleb128 0x6
 3138 024d 08       		.byte	0x8
 3139 024e 03       		.byte	0x3
 3140 024f C5       		.byte	0xc5
 3141 0250 61020000 		.4byte	0x261
 3142 0254 07       		.uleb128 0x7
 3143 0255 2B050000 		.4byte	.LASF42
 3144 0259 03       		.byte	0x3
 3145 025a C7       		.byte	0xc7
 3146 025b 61020000 		.4byte	0x261
 3147 025f 00       		.byte	0
ARM GAS  C:\Users\ingan\AppData\Local\Temp\ccL06Ou5.s 			page 80


 3148 0260 00       		.byte	0
 3149 0261 0C       		.uleb128 0xc
 3150 0262 6B000000 		.4byte	0x6b
 3151 0266 71020000 		.4byte	0x271
 3152 026a 0D       		.uleb128 0xd
 3153 026b C8000000 		.4byte	0xc8
 3154 026f 07       		.byte	0x7
 3155 0270 00       		.byte	0
 3156 0271 08       		.uleb128 0x8
 3157 0272 A8010000 		.4byte	.LASF43
 3158 0276 03       		.byte	0x3
 3159 0277 C8       		.byte	0xc8
 3160 0278 4C020000 		.4byte	0x24c
 3161 027c 06       		.uleb128 0x6
 3162 027d 10       		.byte	0x10
 3163 027e 03       		.byte	0x3
 3164 027f D4       		.byte	0xd4
 3165 0280 B5020000 		.4byte	0x2b5
 3166 0284 07       		.uleb128 0x7
 3167 0285 6C050000 		.4byte	.LASF44
 3168 0289 03       		.byte	0x3
 3169 028a D6       		.byte	0xd6
 3170 028b 6B000000 		.4byte	0x6b
 3171 028f 00       		.byte	0
 3172 0290 07       		.uleb128 0x7
 3173 0291 73050000 		.4byte	.LASF45
 3174 0295 03       		.byte	0x3
 3175 0296 D7       		.byte	0xd7
 3176 0297 6B000000 		.4byte	0x6b
 3177 029b 01       		.byte	0x1
 3178 029c 07       		.uleb128 0x7
 3179 029d F5020000 		.4byte	.LASF46
 3180 02a1 03       		.byte	0x3
 3181 02a2 D8       		.byte	0xd8
 3182 02a3 6B000000 		.4byte	0x6b
 3183 02a7 02       		.byte	0x2
 3184 02a8 0A       		.uleb128 0xa
 3185 02a9 67617000 		.ascii	"gap\000"
 3186 02ad 03       		.byte	0x3
 3187 02ae D9       		.byte	0xd9
 3188 02af B5020000 		.4byte	0x2b5
 3189 02b3 03       		.byte	0x3
 3190 02b4 00       		.byte	0
 3191 02b5 0C       		.uleb128 0xc
 3192 02b6 6B000000 		.4byte	0x6b
 3193 02ba C5020000 		.4byte	0x2c5
 3194 02be 0D       		.uleb128 0xd
 3195 02bf C8000000 		.4byte	0xc8
 3196 02c3 0C       		.byte	0xc
 3197 02c4 00       		.byte	0
 3198 02c5 08       		.uleb128 0x8
 3199 02c6 C0010000 		.4byte	.LASF47
 3200 02ca 03       		.byte	0x3
 3201 02cb DA       		.byte	0xda
 3202 02cc 7C020000 		.4byte	0x27c
 3203 02d0 06       		.uleb128 0x6
 3204 02d1 10       		.byte	0x10
ARM GAS  C:\Users\ingan\AppData\Local\Temp\ccL06Ou5.s 			page 81


 3205 02d2 03       		.byte	0x3
 3206 02d3 E6       		.byte	0xe6
 3207 02d4 51030000 		.4byte	0x351
 3208 02d8 07       		.uleb128 0x7
 3209 02d9 86040000 		.4byte	.LASF48
 3210 02dd 03       		.byte	0x3
 3211 02de E8       		.byte	0xe8
 3212 02df 6B000000 		.4byte	0x6b
 3213 02e3 00       		.byte	0
 3214 02e4 07       		.uleb128 0x7
 3215 02e5 83000000 		.4byte	.LASF49
 3216 02e9 03       		.byte	0x3
 3217 02ea E9       		.byte	0xe9
 3218 02eb 6B000000 		.4byte	0x6b
 3219 02ef 01       		.byte	0x1
 3220 02f0 07       		.uleb128 0x7
 3221 02f1 E6030000 		.4byte	.LASF50
 3222 02f5 03       		.byte	0x3
 3223 02f6 EA       		.byte	0xea
 3224 02f7 6B000000 		.4byte	0x6b
 3225 02fb 02       		.byte	0x2
 3226 02fc 07       		.uleb128 0x7
 3227 02fd D7050000 		.4byte	.LASF51
 3228 0301 03       		.byte	0x3
 3229 0302 EB       		.byte	0xeb
 3230 0303 6B000000 		.4byte	0x6b
 3231 0307 03       		.byte	0x3
 3232 0308 07       		.uleb128 0x7
 3233 0309 7A040000 		.4byte	.LASF52
 3234 030d 03       		.byte	0x3
 3235 030e EC       		.byte	0xec
 3236 030f 6B000000 		.4byte	0x6b
 3237 0313 04       		.byte	0x4
 3238 0314 07       		.uleb128 0x7
 3239 0315 DE030000 		.4byte	.LASF53
 3240 0319 03       		.byte	0x3
 3241 031a ED       		.byte	0xed
 3242 031b 6B000000 		.4byte	0x6b
 3243 031f 05       		.byte	0x5
 3244 0320 07       		.uleb128 0x7
 3245 0321 A3010000 		.4byte	.LASF54
 3246 0325 03       		.byte	0x3
 3247 0326 EE       		.byte	0xee
 3248 0327 6B000000 		.4byte	0x6b
 3249 032b 06       		.byte	0x6
 3250 032c 07       		.uleb128 0x7
 3251 032d C7040000 		.4byte	.LASF55
 3252 0331 03       		.byte	0x3
 3253 0332 EF       		.byte	0xef
 3254 0333 6B000000 		.4byte	0x6b
 3255 0337 07       		.byte	0x7
 3256 0338 07       		.uleb128 0x7
 3257 0339 75040000 		.4byte	.LASF56
 3258 033d 03       		.byte	0x3
 3259 033e F0       		.byte	0xf0
 3260 033f 6B000000 		.4byte	0x6b
 3261 0343 08       		.byte	0x8
ARM GAS  C:\Users\ingan\AppData\Local\Temp\ccL06Ou5.s 			page 82


 3262 0344 0A       		.uleb128 0xa
 3263 0345 67617000 		.ascii	"gap\000"
 3264 0349 03       		.byte	0x3
 3265 034a F1       		.byte	0xf1
 3266 034b 51030000 		.4byte	0x351
 3267 034f 09       		.byte	0x9
 3268 0350 00       		.byte	0
 3269 0351 0C       		.uleb128 0xc
 3270 0352 6B000000 		.4byte	0x6b
 3271 0356 61030000 		.4byte	0x361
 3272 035a 0D       		.uleb128 0xd
 3273 035b C8000000 		.4byte	0xc8
 3274 035f 06       		.byte	0x6
 3275 0360 00       		.byte	0
 3276 0361 08       		.uleb128 0x8
 3277 0362 48040000 		.4byte	.LASF57
 3278 0366 03       		.byte	0x3
 3279 0367 F2       		.byte	0xf2
 3280 0368 D0020000 		.4byte	0x2d0
 3281 036c 0E       		.uleb128 0xe
 3282 036d 90       		.byte	0x90
 3283 036e 03       		.byte	0x3
 3284 036f 0E01     		.2byte	0x10e
 3285 0371 83030000 		.4byte	0x383
 3286 0375 0F       		.uleb128 0xf
 3287 0376 77020000 		.4byte	.LASF58
 3288 037a 03       		.byte	0x3
 3289 037b 1001     		.2byte	0x110
 3290 037d 83030000 		.4byte	0x383
 3291 0381 00       		.byte	0
 3292 0382 00       		.byte	0
 3293 0383 0C       		.uleb128 0xc
 3294 0384 C5020000 		.4byte	0x2c5
 3295 0388 93030000 		.4byte	0x393
 3296 038c 0D       		.uleb128 0xd
 3297 038d C8000000 		.4byte	0xc8
 3298 0391 08       		.byte	0x8
 3299 0392 00       		.byte	0
 3300 0393 04       		.uleb128 0x4
 3301 0394 AF050000 		.4byte	.LASF59
 3302 0398 03       		.byte	0x3
 3303 0399 1101     		.2byte	0x111
 3304 039b 6C030000 		.4byte	0x36c
 3305 039f 0E       		.uleb128 0xe
 3306 03a0 90       		.byte	0x90
 3307 03a1 03       		.byte	0x3
 3308 03a2 1401     		.2byte	0x114
 3309 03a4 B6030000 		.4byte	0x3b6
 3310 03a8 0F       		.uleb128 0xf
 3311 03a9 C7000000 		.4byte	.LASF60
 3312 03ad 03       		.byte	0x3
 3313 03ae 1601     		.2byte	0x116
 3314 03b0 B6030000 		.4byte	0x3b6
 3315 03b4 00       		.byte	0
 3316 03b5 00       		.byte	0
 3317 03b6 0C       		.uleb128 0xc
 3318 03b7 61030000 		.4byte	0x361
ARM GAS  C:\Users\ingan\AppData\Local\Temp\ccL06Ou5.s 			page 83


 3319 03bb C6030000 		.4byte	0x3c6
 3320 03bf 0D       		.uleb128 0xd
 3321 03c0 C8000000 		.4byte	0xc8
 3322 03c4 08       		.byte	0x8
 3323 03c5 00       		.byte	0
 3324 03c6 04       		.uleb128 0x4
 3325 03c7 32050000 		.4byte	.LASF61
 3326 03cb 03       		.byte	0x3
 3327 03cc 1701     		.2byte	0x117
 3328 03ce 9F030000 		.4byte	0x39f
 3329 03d2 10       		.uleb128 0x10
 3330 03d3 DF060000 		.4byte	.LASF85
 3331 03d7 01       		.byte	0x1
 3332 03d8 54       		.byte	0x54
 3333 03d9 6B000000 		.4byte	0x6b
 3334 03dd 00000000 		.4byte	.LFB0
 3335 03e1 94040000 		.4byte	.LFE0-.LFB0
 3336 03e5 01       		.uleb128 0x1
 3337 03e6 9C       		.byte	0x9c
 3338 03e7 6D040000 		.4byte	0x46d
 3339 03eb 11       		.uleb128 0x11
 3340 03ec BB020000 		.4byte	.LASF62
 3341 03f0 01       		.byte	0x1
 3342 03f1 56       		.byte	0x56
 3343 03f2 6B000000 		.4byte	0x6b
 3344 03f6 02       		.uleb128 0x2
 3345 03f7 91       		.byte	0x91
 3346 03f8 77       		.sleb128 -9
 3347 03f9 11       		.uleb128 0x11
 3348 03fa 1D000000 		.4byte	.LASF63
 3349 03fe 01       		.byte	0x1
 3350 03ff 57       		.byte	0x57
 3351 0400 6B000000 		.4byte	0x6b
 3352 0404 02       		.uleb128 0x2
 3353 0405 91       		.byte	0x91
 3354 0406 64       		.sleb128 -28
 3355 0407 11       		.uleb128 0x11
 3356 0408 4F050000 		.4byte	.LASF64
 3357 040c 01       		.byte	0x1
 3358 040d 58       		.byte	0x58
 3359 040e 6B000000 		.4byte	0x6b
 3360 0412 02       		.uleb128 0x2
 3361 0413 91       		.byte	0x91
 3362 0414 65       		.sleb128 -27
 3363 0415 11       		.uleb128 0x11
 3364 0416 5E050000 		.4byte	.LASF65
 3365 041a 01       		.byte	0x1
 3366 041b 59       		.byte	0x59
 3367 041c 6B000000 		.4byte	0x6b
 3368 0420 02       		.uleb128 0x2
 3369 0421 91       		.byte	0x91
 3370 0422 67       		.sleb128 -25
 3371 0423 11       		.uleb128 0x11
 3372 0424 05040000 		.4byte	.LASF66
 3373 0428 01       		.byte	0x1
 3374 0429 5C       		.byte	0x5c
 3375 042a 04020000 		.4byte	0x204
ARM GAS  C:\Users\ingan\AppData\Local\Temp\ccL06Ou5.s 			page 84


 3376 042e 02       		.uleb128 0x2
 3377 042f 91       		.byte	0x91
 3378 0430 70       		.sleb128 -16
 3379 0431 11       		.uleb128 0x11
 3380 0432 42070000 		.4byte	.LASF67
 3381 0436 01       		.byte	0x1
 3382 0437 5E       		.byte	0x5e
 3383 0438 6B000000 		.4byte	0x6b
 3384 043c 02       		.uleb128 0x2
 3385 043d 91       		.byte	0x91
 3386 043e 6F       		.sleb128 -17
 3387 043f 11       		.uleb128 0x11
 3388 0440 8F030000 		.4byte	.LASF68
 3389 0444 01       		.byte	0x1
 3390 0445 5F       		.byte	0x5f
 3391 0446 6B000000 		.4byte	0x6b
 3392 044a 02       		.uleb128 0x2
 3393 044b 91       		.byte	0x91
 3394 044c 66       		.sleb128 -26
 3395 044d 11       		.uleb128 0x11
 3396 044e 04070000 		.4byte	.LASF69
 3397 0452 01       		.byte	0x1
 3398 0453 63       		.byte	0x63
 3399 0454 7D040000 		.4byte	0x47d
 3400 0458 05       		.uleb128 0x5
 3401 0459 03       		.byte	0x3
 3402 045a 00000000 		.4byte	USBUART_tBuffer.5380
 3403 045e 11       		.uleb128 0x11
 3404 045f 0A040000 		.4byte	.LASF70
 3405 0463 01       		.byte	0x1
 3406 0464 64       		.byte	0x64
 3407 0465 82040000 		.4byte	0x482
 3408 0469 02       		.uleb128 0x2
 3409 046a 91       		.byte	0x91
 3410 046b 68       		.sleb128 -24
 3411 046c 00       		.byte	0
 3412 046d 0C       		.uleb128 0xc
 3413 046e BC000000 		.4byte	0xbc
 3414 0472 7D040000 		.4byte	0x47d
 3415 0476 0D       		.uleb128 0xd
 3416 0477 C8000000 		.4byte	0xc8
 3417 047b 01       		.byte	0x1
 3418 047c 00       		.byte	0
 3419 047d 05       		.uleb128 0x5
 3420 047e 6D040000 		.4byte	0x46d
 3421 0482 09       		.uleb128 0x9
 3422 0483 04       		.byte	0x4
 3423 0484 88040000 		.4byte	0x488
 3424 0488 12       		.uleb128 0x12
 3425 0489 41020000 		.4byte	0x241
 3426 048d 13       		.uleb128 0x13
 3427 048e 7D030000 		.4byte	.LASF72
 3428 0492 01       		.byte	0x1
 3429 0493 8E01     		.2byte	0x18e
 3430 0495 00000000 		.4byte	.LFB1
 3431 0499 D8000000 		.4byte	.LFE1-.LFB1
 3432 049d 01       		.uleb128 0x1
ARM GAS  C:\Users\ingan\AppData\Local\Temp\ccL06Ou5.s 			page 85


 3433 049e 9C       		.byte	0x9c
 3434 049f EB040000 		.4byte	0x4eb
 3435 04a3 14       		.uleb128 0x14
 3436 04a4 2C060000 		.4byte	.LASF76
 3437 04a8 01       		.byte	0x1
 3438 04a9 8E01     		.2byte	0x18e
 3439 04ab EB040000 		.4byte	0x4eb
 3440 04af 02       		.uleb128 0x2
 3441 04b0 91       		.byte	0x91
 3442 04b1 4C       		.sleb128 -52
 3443 04b2 15       		.uleb128 0x15
 3444 04b3 68657800 		.ascii	"hex\000"
 3445 04b7 01       		.byte	0x1
 3446 04b8 9001     		.2byte	0x190
 3447 04ba 06050000 		.4byte	0x506
 3448 04be 02       		.uleb128 0x2
 3449 04bf 91       		.byte	0x91
 3450 04c0 5C       		.sleb128 -36
 3451 04c1 15       		.uleb128 0x15
 3452 04c2 6900     		.ascii	"i\000"
 3453 04c4 01       		.byte	0x1
 3454 04c5 9101     		.2byte	0x191
 3455 04c7 6B000000 		.4byte	0x6b
 3456 04cb 02       		.uleb128 0x2
 3457 04cc 91       		.byte	0x91
 3458 04cd 6F       		.sleb128 -17
 3459 04ce 15       		.uleb128 0x15
 3460 04cf 6A00     		.ascii	"j\000"
 3461 04d1 01       		.byte	0x1
 3462 04d2 9201     		.2byte	0x192
 3463 04d4 6B000000 		.4byte	0x6b
 3464 04d8 02       		.uleb128 0x2
 3465 04d9 91       		.byte	0x91
 3466 04da 6E       		.sleb128 -18
 3467 04db 16       		.uleb128 0x16
 3468 04dc 47070000 		.4byte	.LASF71
 3469 04e0 01       		.byte	0x1
 3470 04e1 9301     		.2byte	0x193
 3471 04e3 61020000 		.4byte	0x261
 3472 04e7 02       		.uleb128 0x2
 3473 04e8 91       		.byte	0x91
 3474 04e9 54       		.sleb128 -44
 3475 04ea 00       		.byte	0
 3476 04eb 09       		.uleb128 0x9
 3477 04ec 04       		.byte	0x4
 3478 04ed 6B000000 		.4byte	0x6b
 3479 04f1 0C       		.uleb128 0xc
 3480 04f2 01050000 		.4byte	0x501
 3481 04f6 01050000 		.4byte	0x501
 3482 04fa 0D       		.uleb128 0xd
 3483 04fb C8000000 		.4byte	0xc8
 3484 04ff 10       		.byte	0x10
 3485 0500 00       		.byte	0
 3486 0501 12       		.uleb128 0x12
 3487 0502 9D000000 		.4byte	0x9d
 3488 0506 12       		.uleb128 0x12
 3489 0507 F1040000 		.4byte	0x4f1
ARM GAS  C:\Users\ingan\AppData\Local\Temp\ccL06Ou5.s 			page 86


 3490 050b 17       		.uleb128 0x17
 3491 050c CD060000 		.4byte	.LASF73
 3492 0510 01       		.byte	0x1
 3493 0511 B501     		.2byte	0x1b5
 3494 0513 00000000 		.4byte	.LFB2
 3495 0517 44010000 		.4byte	.LFE2-.LFB2
 3496 051b 01       		.uleb128 0x1
 3497 051c 9C       		.byte	0x9c
 3498 051d 30050000 		.4byte	0x530
 3499 0521 15       		.uleb128 0x15
 3500 0522 657000   		.ascii	"ep\000"
 3501 0525 01       		.byte	0x1
 3502 0526 B701     		.2byte	0x1b7
 3503 0528 6B000000 		.4byte	0x6b
 3504 052c 02       		.uleb128 0x2
 3505 052d 91       		.byte	0x91
 3506 052e 77       		.sleb128 -9
 3507 052f 00       		.byte	0
 3508 0530 17       		.uleb128 0x17
 3509 0531 00000000 		.4byte	.LASF74
 3510 0535 01       		.byte	0x1
 3511 0536 1402     		.2byte	0x214
 3512 0538 00000000 		.4byte	.LFB3
 3513 053c 6C000000 		.4byte	.LFE3-.LFB3
 3514 0540 01       		.uleb128 0x1
 3515 0541 9C       		.byte	0x9c
 3516 0542 54050000 		.4byte	0x554
 3517 0546 15       		.uleb128 0x15
 3518 0547 6900     		.ascii	"i\000"
 3519 0549 01       		.byte	0x1
 3520 054a 1602     		.2byte	0x216
 3521 054c 6B000000 		.4byte	0x6b
 3522 0550 02       		.uleb128 0x2
 3523 0551 91       		.byte	0x91
 3524 0552 77       		.sleb128 -9
 3525 0553 00       		.byte	0
 3526 0554 13       		.uleb128 0x13
 3527 0555 50070000 		.4byte	.LASF75
 3528 0559 01       		.byte	0x1
 3529 055a 3A02     		.2byte	0x23a
 3530 055c 00000000 		.4byte	.LFB4
 3531 0560 B4030000 		.4byte	.LFE4-.LFB4
 3532 0564 01       		.uleb128 0x1
 3533 0565 9C       		.byte	0x9c
 3534 0566 08060000 		.4byte	0x608
 3535 056a 14       		.uleb128 0x14
 3536 056b CD000000 		.4byte	.LASF77
 3537 056f 01       		.byte	0x1
 3538 0570 3A02     		.2byte	0x23a
 3539 0572 6B000000 		.4byte	0x6b
 3540 0576 02       		.uleb128 0x2
 3541 0577 91       		.byte	0x91
 3542 0578 57       		.sleb128 -41
 3543 0579 15       		.uleb128 0x15
 3544 057a 657000   		.ascii	"ep\000"
 3545 057d 01       		.byte	0x1
 3546 057e 3C02     		.2byte	0x23c
ARM GAS  C:\Users\ingan\AppData\Local\Temp\ccL06Ou5.s 			page 87


 3547 0580 6B000000 		.4byte	0x6b
 3548 0584 02       		.uleb128 0x2
 3549 0585 91       		.byte	0x91
 3550 0586 77       		.sleb128 -9
 3551 0587 16       		.uleb128 0x16
 3552 0588 08030000 		.4byte	.LASF78
 3553 058c 01       		.byte	0x1
 3554 058d 3D02     		.2byte	0x23d
 3555 058f 6B000000 		.4byte	0x6b
 3556 0593 02       		.uleb128 0x2
 3557 0594 91       		.byte	0x91
 3558 0595 76       		.sleb128 -10
 3559 0596 15       		.uleb128 0x15
 3560 0597 6900     		.ascii	"i\000"
 3561 0599 01       		.byte	0x1
 3562 059a 3E02     		.2byte	0x23e
 3563 059c 6B000000 		.4byte	0x6b
 3564 05a0 02       		.uleb128 0x2
 3565 05a1 91       		.byte	0x91
 3566 05a2 75       		.sleb128 -11
 3567 05a3 16       		.uleb128 0x16
 3568 05a4 3B070000 		.4byte	.LASF79
 3569 05a8 01       		.byte	0x1
 3570 05a9 3F02     		.2byte	0x23f
 3571 05ab 6B000000 		.4byte	0x6b
 3572 05af 02       		.uleb128 0x2
 3573 05b0 91       		.byte	0x91
 3574 05b1 5F       		.sleb128 -33
 3575 05b2 16       		.uleb128 0x16
 3576 05b3 EE000000 		.4byte	.LASF80
 3577 05b7 01       		.byte	0x1
 3578 05b8 4002     		.2byte	0x240
 3579 05ba 08060000 		.4byte	0x608
 3580 05be 02       		.uleb128 0x2
 3581 05bf 91       		.byte	0x91
 3582 05c0 60       		.sleb128 -32
 3583 05c1 16       		.uleb128 0x16
 3584 05c2 5E040000 		.4byte	.LASF81
 3585 05c6 01       		.byte	0x1
 3586 05c7 4302     		.2byte	0x243
 3587 05c9 77000000 		.4byte	0x77
 3588 05cd 02       		.uleb128 0x2
 3589 05ce 91       		.byte	0x91
 3590 05cf 72       		.sleb128 -14
 3591 05d0 16       		.uleb128 0x16
 3592 05d1 0A040000 		.4byte	.LASF70
 3593 05d5 01       		.byte	0x1
 3594 05d6 4602     		.2byte	0x246
 3595 05d8 82040000 		.4byte	0x482
 3596 05dc 02       		.uleb128 0x2
 3597 05dd 91       		.byte	0x91
 3598 05de 64       		.sleb128 -28
 3599 05df 15       		.uleb128 0x15
 3600 05e0 70455000 		.ascii	"pEP\000"
 3601 05e4 01       		.byte	0x1
 3602 05e5 4702     		.2byte	0x247
 3603 05e7 13060000 		.4byte	0x613
ARM GAS  C:\Users\ingan\AppData\Local\Temp\ccL06Ou5.s 			page 88


 3604 05eb 02       		.uleb128 0x2
 3605 05ec 91       		.byte	0x91
 3606 05ed 6C       		.sleb128 -20
 3607 05ee 18       		.uleb128 0x18
 3608 05ef 00010000 		.4byte	.LBB2
 3609 05f3 A2020000 		.4byte	.LBE2-.LBB2
 3610 05f7 16       		.uleb128 0x16
 3611 05f8 01010000 		.4byte	.LASF82
 3612 05fc 01       		.byte	0x1
 3613 05fd 6302     		.2byte	0x263
 3614 05ff 6B000000 		.4byte	0x6b
 3615 0603 02       		.uleb128 0x2
 3616 0604 91       		.byte	0x91
 3617 0605 6B       		.sleb128 -21
 3618 0606 00       		.byte	0
 3619 0607 00       		.byte	0
 3620 0608 09       		.uleb128 0x9
 3621 0609 04       		.byte	0x4
 3622 060a 0E060000 		.4byte	0x60e
 3623 060e 12       		.uleb128 0x12
 3624 060f 6B000000 		.4byte	0x6b
 3625 0613 09       		.uleb128 0x9
 3626 0614 04       		.byte	0x4
 3627 0615 19060000 		.4byte	0x619
 3628 0619 12       		.uleb128 0x12
 3629 061a A0010000 		.4byte	0x1a0
 3630 061e 13       		.uleb128 0x13
 3631 061f 84020000 		.4byte	.LASF83
 3632 0623 01       		.byte	0x1
 3633 0624 2503     		.2byte	0x325
 3634 0626 00000000 		.4byte	.LFB5
 3635 062a 5C020000 		.4byte	.LFE5-.LFB5
 3636 062e 01       		.uleb128 0x1
 3637 062f 9C       		.byte	0x9c
 3638 0630 9B060000 		.4byte	0x69b
 3639 0634 15       		.uleb128 0x15
 3640 0635 657000   		.ascii	"ep\000"
 3641 0638 01       		.byte	0x1
 3642 0639 2703     		.2byte	0x327
 3643 063b 6B000000 		.4byte	0x6b
 3644 063f 02       		.uleb128 0x2
 3645 0640 91       		.byte	0x91
 3646 0641 63       		.sleb128 -29
 3647 0642 16       		.uleb128 0x16
 3648 0643 08030000 		.4byte	.LASF78
 3649 0647 01       		.byte	0x1
 3650 0648 2803     		.2byte	0x328
 3651 064a 6B000000 		.4byte	0x6b
 3652 064e 02       		.uleb128 0x2
 3653 064f 91       		.byte	0x91
 3654 0650 61       		.sleb128 -31
 3655 0651 16       		.uleb128 0x16
 3656 0652 3B070000 		.4byte	.LASF79
 3657 0656 01       		.byte	0x1
 3658 0657 2903     		.2byte	0x329
 3659 0659 6B000000 		.4byte	0x6b
 3660 065d 02       		.uleb128 0x2
ARM GAS  C:\Users\ingan\AppData\Local\Temp\ccL06Ou5.s 			page 89


 3661 065e 91       		.byte	0x91
 3662 065f 60       		.sleb128 -32
 3663 0660 15       		.uleb128 0x15
 3664 0661 6900     		.ascii	"i\000"
 3665 0663 01       		.byte	0x1
 3666 0664 2A03     		.2byte	0x32a
 3667 0666 6B000000 		.4byte	0x6b
 3668 066a 02       		.uleb128 0x2
 3669 066b 91       		.byte	0x91
 3670 066c 6F       		.sleb128 -17
 3671 066d 16       		.uleb128 0x16
 3672 066e FB020000 		.4byte	.LASF84
 3673 0672 01       		.byte	0x1
 3674 0673 2B03     		.2byte	0x32b
 3675 0675 6B000000 		.4byte	0x6b
 3676 0679 02       		.uleb128 0x2
 3677 067a 91       		.byte	0x91
 3678 067b 62       		.sleb128 -30
 3679 067c 16       		.uleb128 0x16
 3680 067d 0A040000 		.4byte	.LASF70
 3681 0681 01       		.byte	0x1
 3682 0682 2D03     		.2byte	0x32d
 3683 0684 82040000 		.4byte	0x482
 3684 0688 02       		.uleb128 0x2
 3685 0689 91       		.byte	0x91
 3686 068a 64       		.sleb128 -28
 3687 068b 15       		.uleb128 0x15
 3688 068c 70455000 		.ascii	"pEP\000"
 3689 0690 01       		.byte	0x1
 3690 0691 2E03     		.2byte	0x32e
 3691 0693 13060000 		.4byte	0x613
 3692 0697 02       		.uleb128 0x2
 3693 0698 91       		.byte	0x91
 3694 0699 68       		.sleb128 -24
 3695 069a 00       		.byte	0
 3696 069b 19       		.uleb128 0x19
 3697 069c 8C040000 		.4byte	.LASF86
 3698 06a0 01       		.byte	0x1
 3699 06a1 AE03     		.2byte	0x3ae
 3700 06a3 82040000 		.4byte	0x482
 3701 06a7 00000000 		.4byte	.LFB6
 3702 06ab 50000000 		.4byte	.LFE6-.LFB6
 3703 06af 01       		.uleb128 0x1
 3704 06b0 9C       		.byte	0x9c
 3705 06b1 D4060000 		.4byte	0x6d4
 3706 06b5 14       		.uleb128 0x14
 3707 06b6 CD050000 		.4byte	.LASF87
 3708 06ba 01       		.byte	0x1
 3709 06bb AE03     		.2byte	0x3ae
 3710 06bd 6B000000 		.4byte	0x6b
 3711 06c1 02       		.uleb128 0x2
 3712 06c2 91       		.byte	0x91
 3713 06c3 6F       		.sleb128 -17
 3714 06c4 16       		.uleb128 0x16
 3715 06c5 0A040000 		.4byte	.LASF70
 3716 06c9 01       		.byte	0x1
 3717 06ca B203     		.2byte	0x3b2
ARM GAS  C:\Users\ingan\AppData\Local\Temp\ccL06Ou5.s 			page 90


 3718 06cc 82040000 		.4byte	0x482
 3719 06d0 02       		.uleb128 0x2
 3720 06d1 91       		.byte	0x91
 3721 06d2 74       		.sleb128 -12
 3722 06d3 00       		.byte	0
 3723 06d4 1A       		.uleb128 0x1a
 3724 06d5 82010000 		.4byte	.LASF116
 3725 06d9 01       		.byte	0x1
 3726 06da F303     		.2byte	0x3f3
 3727 06dc 82040000 		.4byte	0x482
 3728 06e0 00000000 		.4byte	.LFB7
 3729 06e4 24000000 		.4byte	.LFE7-.LFB7
 3730 06e8 01       		.uleb128 0x1
 3731 06e9 9C       		.byte	0x9c
 3732 06ea 1B       		.uleb128 0x1b
 3733 06eb 9E000000 		.4byte	.LASF88
 3734 06ef 01       		.byte	0x1
 3735 06f0 0604     		.2byte	0x406
 3736 06f2 08060000 		.4byte	0x608
 3737 06f6 00000000 		.4byte	.LFB8
 3738 06fa 4C000000 		.4byte	.LFE8-.LFB8
 3739 06fe 01       		.uleb128 0x1
 3740 06ff 9C       		.byte	0x9c
 3741 0700 32070000 		.4byte	0x732
 3742 0704 16       		.uleb128 0x16
 3743 0705 0A040000 		.4byte	.LASF70
 3744 0709 01       		.byte	0x1
 3745 070a 0904     		.2byte	0x409
 3746 070c 82040000 		.4byte	0x482
 3747 0710 02       		.uleb128 0x2
 3748 0711 91       		.byte	0x91
 3749 0712 70       		.sleb128 -16
 3750 0713 16       		.uleb128 0x16
 3751 0714 C0030000 		.4byte	.LASF89
 3752 0718 01       		.byte	0x1
 3753 0719 0A04     		.2byte	0x40a
 3754 071b 08060000 		.4byte	0x608
 3755 071f 02       		.uleb128 0x2
 3756 0720 91       		.byte	0x91
 3757 0721 74       		.sleb128 -12
 3758 0722 16       		.uleb128 0x16
 3759 0723 91060000 		.4byte	.LASF90
 3760 0727 01       		.byte	0x1
 3761 0728 0B04     		.2byte	0x40b
 3762 072a 6B000000 		.4byte	0x6b
 3763 072e 02       		.uleb128 0x2
 3764 072f 91       		.byte	0x91
 3765 0730 6F       		.sleb128 -17
 3766 0731 00       		.byte	0
 3767 0732 17       		.uleb128 0x17
 3768 0733 84050000 		.4byte	.LASF91
 3769 0737 01       		.byte	0x1
 3770 0738 3004     		.2byte	0x430
 3771 073a 00000000 		.4byte	.LFB9
 3772 073e C0000000 		.4byte	.LFE9-.LFB9
 3773 0742 01       		.uleb128 0x1
 3774 0743 9C       		.byte	0x9c
ARM GAS  C:\Users\ingan\AppData\Local\Temp\ccL06Ou5.s 			page 91


 3775 0744 58070000 		.4byte	0x758
 3776 0748 14       		.uleb128 0x14
 3777 0749 AC030000 		.4byte	.LASF92
 3778 074d 01       		.byte	0x1
 3779 074e 3004     		.2byte	0x430
 3780 0750 6B000000 		.4byte	0x6b
 3781 0754 02       		.uleb128 0x2
 3782 0755 91       		.byte	0x91
 3783 0756 77       		.sleb128 -9
 3784 0757 00       		.byte	0
 3785 0758 1B       		.uleb128 0x1b
 3786 0759 2D010000 		.4byte	.LASF93
 3787 075d 01       		.byte	0x1
 3788 075e 5904     		.2byte	0x459
 3789 0760 6B000000 		.4byte	0x6b
 3790 0764 00000000 		.4byte	.LFB10
 3791 0768 E8000000 		.4byte	.LFE10-.LFB10
 3792 076c 01       		.uleb128 0x1
 3793 076d 9C       		.byte	0x9c
 3794 076e 90070000 		.4byte	0x790
 3795 0772 16       		.uleb128 0x16
 3796 0773 BB020000 		.4byte	.LASF62
 3797 0777 01       		.byte	0x1
 3798 0778 5B04     		.2byte	0x45b
 3799 077a 6B000000 		.4byte	0x6b
 3800 077e 02       		.uleb128 0x2
 3801 077f 91       		.byte	0x91
 3802 0780 77       		.sleb128 -9
 3803 0781 15       		.uleb128 0x15
 3804 0782 657000   		.ascii	"ep\000"
 3805 0785 01       		.byte	0x1
 3806 0786 5C04     		.2byte	0x45c
 3807 0788 6B000000 		.4byte	0x6b
 3808 078c 02       		.uleb128 0x2
 3809 078d 91       		.byte	0x91
 3810 078e 76       		.sleb128 -10
 3811 078f 00       		.byte	0
 3812 0790 1B       		.uleb128 0x1b
 3813 0791 EB030000 		.4byte	.LASF94
 3814 0795 01       		.byte	0x1
 3815 0796 8A04     		.2byte	0x48a
 3816 0798 6B000000 		.4byte	0x6b
 3817 079c 00000000 		.4byte	.LFB11
 3818 07a0 58010000 		.4byte	.LFE11-.LFB11
 3819 07a4 01       		.uleb128 0x1
 3820 07a5 9C       		.byte	0x9c
 3821 07a6 C8070000 		.4byte	0x7c8
 3822 07aa 16       		.uleb128 0x16
 3823 07ab BB020000 		.4byte	.LASF62
 3824 07af 01       		.byte	0x1
 3825 07b0 8C04     		.2byte	0x48c
 3826 07b2 6B000000 		.4byte	0x6b
 3827 07b6 02       		.uleb128 0x2
 3828 07b7 91       		.byte	0x91
 3829 07b8 77       		.sleb128 -9
 3830 07b9 15       		.uleb128 0x15
 3831 07ba 657000   		.ascii	"ep\000"
ARM GAS  C:\Users\ingan\AppData\Local\Temp\ccL06Ou5.s 			page 92


 3832 07bd 01       		.byte	0x1
 3833 07be 8D04     		.2byte	0x48d
 3834 07c0 6B000000 		.4byte	0x6b
 3835 07c4 02       		.uleb128 0x2
 3836 07c5 91       		.byte	0x91
 3837 07c6 76       		.sleb128 -10
 3838 07c7 00       		.byte	0
 3839 07c8 1B       		.uleb128 0x1b
 3840 07c9 0C010000 		.4byte	.LASF95
 3841 07cd 01       		.byte	0x1
 3842 07ce CF04     		.2byte	0x4cf
 3843 07d0 6B000000 		.4byte	0x6b
 3844 07d4 00000000 		.4byte	.LFB12
 3845 07d8 70000000 		.4byte	.LFE12-.LFB12
 3846 07dc 01       		.uleb128 0x1
 3847 07dd 9C       		.byte	0x9c
 3848 07de 1F080000 		.4byte	0x81f
 3849 07e2 16       		.uleb128 0x16
 3850 07e3 BB020000 		.4byte	.LASF62
 3851 07e7 01       		.byte	0x1
 3852 07e8 D104     		.2byte	0x4d1
 3853 07ea 6B000000 		.4byte	0x6b
 3854 07ee 02       		.uleb128 0x2
 3855 07ef 91       		.byte	0x91
 3856 07f0 77       		.sleb128 -9
 3857 07f1 16       		.uleb128 0x16
 3858 07f2 FB020000 		.4byte	.LASF84
 3859 07f6 01       		.byte	0x1
 3860 07f7 D304     		.2byte	0x4d3
 3861 07f9 6B000000 		.4byte	0x6b
 3862 07fd 02       		.uleb128 0x2
 3863 07fe 91       		.byte	0x91
 3864 07ff 76       		.sleb128 -10
 3865 0800 16       		.uleb128 0x16
 3866 0801 46060000 		.4byte	.LASF96
 3867 0805 01       		.byte	0x1
 3868 0806 D404     		.2byte	0x4d4
 3869 0808 6B000000 		.4byte	0x6b
 3870 080c 02       		.uleb128 0x2
 3871 080d 91       		.byte	0x91
 3872 080e 6F       		.sleb128 -17
 3873 080f 16       		.uleb128 0x16
 3874 0810 0A040000 		.4byte	.LASF70
 3875 0814 01       		.byte	0x1
 3876 0815 D504     		.2byte	0x4d5
 3877 0817 82040000 		.4byte	0x482
 3878 081b 02       		.uleb128 0x2
 3879 081c 91       		.byte	0x91
 3880 081d 70       		.sleb128 -16
 3881 081e 00       		.byte	0
 3882 081f 1C       		.uleb128 0x1c
 3883 0820 6E030000 		.4byte	.LASF97
 3884 0824 03       		.byte	0x3
 3885 0825 D202     		.2byte	0x2d2
 3886 0827 BC000000 		.4byte	0xbc
 3887 082b 1C       		.uleb128 0x1c
 3888 082c 52000000 		.4byte	.LASF98
ARM GAS  C:\Users\ingan\AppData\Local\Temp\ccL06Ou5.s 			page 93


 3889 0830 03       		.byte	0x3
 3890 0831 D402     		.2byte	0x2d4
 3891 0833 BC000000 		.4byte	0xbc
 3892 0837 1C       		.uleb128 0x1c
 3893 0838 D8020000 		.4byte	.LASF99
 3894 083c 03       		.byte	0x3
 3895 083d D502     		.2byte	0x2d5
 3896 083f BC000000 		.4byte	0xbc
 3897 0843 1C       		.uleb128 0x1c
 3898 0844 68000000 		.4byte	.LASF100
 3899 0848 03       		.byte	0x3
 3900 0849 D602     		.2byte	0x2d6
 3901 084b BC000000 		.4byte	0xbc
 3902 084f 0C       		.uleb128 0xc
 3903 0850 0E060000 		.4byte	0x60e
 3904 0854 5F080000 		.4byte	0x85f
 3905 0858 0D       		.uleb128 0xd
 3906 0859 C8000000 		.4byte	0xc8
 3907 085d 11       		.byte	0x11
 3908 085e 00       		.byte	0
 3909 085f 1D       		.uleb128 0x1d
 3910 0860 1B040000 		.4byte	.LASF101
 3911 0864 04       		.byte	0x4
 3912 0865 61       		.byte	0x61
 3913 0866 6A080000 		.4byte	0x86a
 3914 086a 12       		.uleb128 0x12
 3915 086b 4F080000 		.4byte	0x84f
 3916 086f 0C       		.uleb128 0xc
 3917 0870 88040000 		.4byte	0x488
 3918 0874 7F080000 		.4byte	0x87f
 3919 0878 0D       		.uleb128 0xd
 3920 0879 C8000000 		.4byte	0xc8
 3921 087d 00       		.byte	0
 3922 087e 00       		.byte	0
 3923 087f 1D       		.uleb128 0x1d
 3924 0880 A6040000 		.4byte	.LASF102
 3925 0884 04       		.byte	0x4
 3926 0885 67       		.byte	0x67
 3927 0886 8A080000 		.4byte	0x88a
 3928 088a 12       		.uleb128 0x12
 3929 088b 6F080000 		.4byte	0x86f
 3930 088f 0C       		.uleb128 0xc
 3931 0890 0E060000 		.4byte	0x60e
 3932 0894 9F080000 		.4byte	0x89f
 3933 0898 0D       		.uleb128 0xd
 3934 0899 C8000000 		.4byte	0xc8
 3935 089d 9E       		.byte	0x9e
 3936 089e 00       		.byte	0
 3937 089f 1D       		.uleb128 0x1d
 3938 08a0 57060000 		.4byte	.LASF103
 3939 08a4 04       		.byte	0x4
 3940 08a5 69       		.byte	0x69
 3941 08a6 AA080000 		.4byte	0x8aa
 3942 08aa 12       		.uleb128 0x12
 3943 08ab 8F080000 		.4byte	0x88f
 3944 08af 0C       		.uleb128 0xc
 3945 08b0 6B000000 		.4byte	0x6b
ARM GAS  C:\Users\ingan\AppData\Local\Temp\ccL06Ou5.s 			page 94


 3946 08b4 BF080000 		.4byte	0x8bf
 3947 08b8 0D       		.uleb128 0xd
 3948 08b9 C8000000 		.4byte	0xc8
 3949 08bd 21       		.byte	0x21
 3950 08be 00       		.byte	0
 3951 08bf 1D       		.uleb128 0x1d
 3952 08c0 A6060000 		.4byte	.LASF104
 3953 08c4 04       		.byte	0x4
 3954 08c5 6F       		.byte	0x6f
 3955 08c6 AF080000 		.4byte	0x8af
 3956 08ca 1D       		.uleb128 0x1d
 3957 08cb A3020000 		.4byte	.LASF105
 3958 08cf 04       		.byte	0x4
 3959 08d0 72       		.byte	0x72
 3960 08d1 BC000000 		.4byte	0xbc
 3961 08d5 1D       		.uleb128 0x1d
 3962 08d6 69010000 		.4byte	.LASF106
 3963 08da 04       		.byte	0x4
 3964 08db 73       		.byte	0x73
 3965 08dc E0080000 		.4byte	0x8e0
 3966 08e0 05       		.uleb128 0x5
 3967 08e1 6D040000 		.4byte	0x46d
 3968 08e5 1D       		.uleb128 0x1d
 3969 08e6 0E050000 		.4byte	.LASF107
 3970 08ea 04       		.byte	0x4
 3971 08eb 74       		.byte	0x74
 3972 08ec F0080000 		.4byte	0x8f0
 3973 08f0 05       		.uleb128 0x5
 3974 08f1 6D040000 		.4byte	0x46d
 3975 08f5 1D       		.uleb128 0x1d
 3976 08f6 F1050000 		.4byte	.LASF108
 3977 08fa 04       		.byte	0x4
 3978 08fb 75       		.byte	0x75
 3979 08fc BC000000 		.4byte	0xbc
 3980 0900 1D       		.uleb128 0x1d
 3981 0901 72060000 		.4byte	.LASF109
 3982 0905 04       		.byte	0x4
 3983 0906 76       		.byte	0x76
 3984 0907 0B090000 		.4byte	0x90b
 3985 090b 05       		.uleb128 0x5
 3986 090c 6D040000 		.4byte	0x46d
 3987 0910 1D       		.uleb128 0x1d
 3988 0911 45010000 		.4byte	.LASF110
 3989 0915 04       		.byte	0x4
 3990 0916 77       		.byte	0x77
 3991 0917 08060000 		.4byte	0x608
 3992 091b 0C       		.uleb128 0xc
 3993 091c 2B090000 		.4byte	0x92b
 3994 0920 2B090000 		.4byte	0x92b
 3995 0924 0D       		.uleb128 0xd
 3996 0925 C8000000 		.4byte	0xc8
 3997 0929 08       		.byte	0x8
 3998 092a 00       		.byte	0
 3999 092b 05       		.uleb128 0x5
 4000 092c 44010000 		.4byte	0x144
 4001 0930 1D       		.uleb128 0x1d
 4002 0931 30070000 		.4byte	.LASF111
ARM GAS  C:\Users\ingan\AppData\Local\Temp\ccL06Ou5.s 			page 95


 4003 0935 04       		.byte	0x4
 4004 0936 79       		.byte	0x79
 4005 0937 3B090000 		.4byte	0x93b
 4006 093b 05       		.uleb128 0x5
 4007 093c 1B090000 		.4byte	0x91b
 4008 0940 1D       		.uleb128 0x1d
 4009 0941 2D000000 		.4byte	.LASF112
 4010 0945 04       		.byte	0x4
 4011 0946 7A       		.byte	0x7a
 4012 0947 4B090000 		.4byte	0x94b
 4013 094b 05       		.uleb128 0x5
 4014 094c 10020000 		.4byte	0x210
 4015 0950 00       		.byte	0
 4016              		.section	.debug_abbrev,"",%progbits
 4017              	.Ldebug_abbrev0:
 4018 0000 01       		.uleb128 0x1
 4019 0001 11       		.uleb128 0x11
 4020 0002 01       		.byte	0x1
 4021 0003 25       		.uleb128 0x25
 4022 0004 0E       		.uleb128 0xe
 4023 0005 13       		.uleb128 0x13
 4024 0006 0B       		.uleb128 0xb
 4025 0007 03       		.uleb128 0x3
 4026 0008 0E       		.uleb128 0xe
 4027 0009 1B       		.uleb128 0x1b
 4028 000a 0E       		.uleb128 0xe
 4029 000b 55       		.uleb128 0x55
 4030 000c 17       		.uleb128 0x17
 4031 000d 11       		.uleb128 0x11
 4032 000e 01       		.uleb128 0x1
 4033 000f 10       		.uleb128 0x10
 4034 0010 17       		.uleb128 0x17
 4035 0011 00       		.byte	0
 4036 0012 00       		.byte	0
 4037 0013 02       		.uleb128 0x2
 4038 0014 24       		.uleb128 0x24
 4039 0015 00       		.byte	0
 4040 0016 0B       		.uleb128 0xb
 4041 0017 0B       		.uleb128 0xb
 4042 0018 3E       		.uleb128 0x3e
 4043 0019 0B       		.uleb128 0xb
 4044 001a 03       		.uleb128 0x3
 4045 001b 0E       		.uleb128 0xe
 4046 001c 00       		.byte	0
 4047 001d 00       		.byte	0
 4048 001e 03       		.uleb128 0x3
 4049 001f 24       		.uleb128 0x24
 4050 0020 00       		.byte	0
 4051 0021 0B       		.uleb128 0xb
 4052 0022 0B       		.uleb128 0xb
 4053 0023 3E       		.uleb128 0x3e
 4054 0024 0B       		.uleb128 0xb
 4055 0025 03       		.uleb128 0x3
 4056 0026 08       		.uleb128 0x8
 4057 0027 00       		.byte	0
 4058 0028 00       		.byte	0
 4059 0029 04       		.uleb128 0x4
ARM GAS  C:\Users\ingan\AppData\Local\Temp\ccL06Ou5.s 			page 96


 4060 002a 16       		.uleb128 0x16
 4061 002b 00       		.byte	0
 4062 002c 03       		.uleb128 0x3
 4063 002d 0E       		.uleb128 0xe
 4064 002e 3A       		.uleb128 0x3a
 4065 002f 0B       		.uleb128 0xb
 4066 0030 3B       		.uleb128 0x3b
 4067 0031 05       		.uleb128 0x5
 4068 0032 49       		.uleb128 0x49
 4069 0033 13       		.uleb128 0x13
 4070 0034 00       		.byte	0
 4071 0035 00       		.byte	0
 4072 0036 05       		.uleb128 0x5
 4073 0037 35       		.uleb128 0x35
 4074 0038 00       		.byte	0
 4075 0039 49       		.uleb128 0x49
 4076 003a 13       		.uleb128 0x13
 4077 003b 00       		.byte	0
 4078 003c 00       		.byte	0
 4079 003d 06       		.uleb128 0x6
 4080 003e 13       		.uleb128 0x13
 4081 003f 01       		.byte	0x1
 4082 0040 0B       		.uleb128 0xb
 4083 0041 0B       		.uleb128 0xb
 4084 0042 3A       		.uleb128 0x3a
 4085 0043 0B       		.uleb128 0xb
 4086 0044 3B       		.uleb128 0x3b
 4087 0045 0B       		.uleb128 0xb
 4088 0046 01       		.uleb128 0x1
 4089 0047 13       		.uleb128 0x13
 4090 0048 00       		.byte	0
 4091 0049 00       		.byte	0
 4092 004a 07       		.uleb128 0x7
 4093 004b 0D       		.uleb128 0xd
 4094 004c 00       		.byte	0
 4095 004d 03       		.uleb128 0x3
 4096 004e 0E       		.uleb128 0xe
 4097 004f 3A       		.uleb128 0x3a
 4098 0050 0B       		.uleb128 0xb
 4099 0051 3B       		.uleb128 0x3b
 4100 0052 0B       		.uleb128 0xb
 4101 0053 49       		.uleb128 0x49
 4102 0054 13       		.uleb128 0x13
 4103 0055 38       		.uleb128 0x38
 4104 0056 0B       		.uleb128 0xb
 4105 0057 00       		.byte	0
 4106 0058 00       		.byte	0
 4107 0059 08       		.uleb128 0x8
 4108 005a 16       		.uleb128 0x16
 4109 005b 00       		.byte	0
 4110 005c 03       		.uleb128 0x3
 4111 005d 0E       		.uleb128 0xe
 4112 005e 3A       		.uleb128 0x3a
 4113 005f 0B       		.uleb128 0xb
 4114 0060 3B       		.uleb128 0x3b
 4115 0061 0B       		.uleb128 0xb
 4116 0062 49       		.uleb128 0x49
ARM GAS  C:\Users\ingan\AppData\Local\Temp\ccL06Ou5.s 			page 97


 4117 0063 13       		.uleb128 0x13
 4118 0064 00       		.byte	0
 4119 0065 00       		.byte	0
 4120 0066 09       		.uleb128 0x9
 4121 0067 0F       		.uleb128 0xf
 4122 0068 00       		.byte	0
 4123 0069 0B       		.uleb128 0xb
 4124 006a 0B       		.uleb128 0xb
 4125 006b 49       		.uleb128 0x49
 4126 006c 13       		.uleb128 0x13
 4127 006d 00       		.byte	0
 4128 006e 00       		.byte	0
 4129 006f 0A       		.uleb128 0xa
 4130 0070 0D       		.uleb128 0xd
 4131 0071 00       		.byte	0
 4132 0072 03       		.uleb128 0x3
 4133 0073 08       		.uleb128 0x8
 4134 0074 3A       		.uleb128 0x3a
 4135 0075 0B       		.uleb128 0xb
 4136 0076 3B       		.uleb128 0x3b
 4137 0077 0B       		.uleb128 0xb
 4138 0078 49       		.uleb128 0x49
 4139 0079 13       		.uleb128 0x13
 4140 007a 38       		.uleb128 0x38
 4141 007b 0B       		.uleb128 0xb
 4142 007c 00       		.byte	0
 4143 007d 00       		.byte	0
 4144 007e 0B       		.uleb128 0xb
 4145 007f 26       		.uleb128 0x26
 4146 0080 00       		.byte	0
 4147 0081 00       		.byte	0
 4148 0082 00       		.byte	0
 4149 0083 0C       		.uleb128 0xc
 4150 0084 01       		.uleb128 0x1
 4151 0085 01       		.byte	0x1
 4152 0086 49       		.uleb128 0x49
 4153 0087 13       		.uleb128 0x13
 4154 0088 01       		.uleb128 0x1
 4155 0089 13       		.uleb128 0x13
 4156 008a 00       		.byte	0
 4157 008b 00       		.byte	0
 4158 008c 0D       		.uleb128 0xd
 4159 008d 21       		.uleb128 0x21
 4160 008e 00       		.byte	0
 4161 008f 49       		.uleb128 0x49
 4162 0090 13       		.uleb128 0x13
 4163 0091 2F       		.uleb128 0x2f
 4164 0092 0B       		.uleb128 0xb
 4165 0093 00       		.byte	0
 4166 0094 00       		.byte	0
 4167 0095 0E       		.uleb128 0xe
 4168 0096 13       		.uleb128 0x13
 4169 0097 01       		.byte	0x1
 4170 0098 0B       		.uleb128 0xb
 4171 0099 0B       		.uleb128 0xb
 4172 009a 3A       		.uleb128 0x3a
 4173 009b 0B       		.uleb128 0xb
ARM GAS  C:\Users\ingan\AppData\Local\Temp\ccL06Ou5.s 			page 98


 4174 009c 3B       		.uleb128 0x3b
 4175 009d 05       		.uleb128 0x5
 4176 009e 01       		.uleb128 0x1
 4177 009f 13       		.uleb128 0x13
 4178 00a0 00       		.byte	0
 4179 00a1 00       		.byte	0
 4180 00a2 0F       		.uleb128 0xf
 4181 00a3 0D       		.uleb128 0xd
 4182 00a4 00       		.byte	0
 4183 00a5 03       		.uleb128 0x3
 4184 00a6 0E       		.uleb128 0xe
 4185 00a7 3A       		.uleb128 0x3a
 4186 00a8 0B       		.uleb128 0xb
 4187 00a9 3B       		.uleb128 0x3b
 4188 00aa 05       		.uleb128 0x5
 4189 00ab 49       		.uleb128 0x49
 4190 00ac 13       		.uleb128 0x13
 4191 00ad 38       		.uleb128 0x38
 4192 00ae 0B       		.uleb128 0xb
 4193 00af 00       		.byte	0
 4194 00b0 00       		.byte	0
 4195 00b1 10       		.uleb128 0x10
 4196 00b2 2E       		.uleb128 0x2e
 4197 00b3 01       		.byte	0x1
 4198 00b4 3F       		.uleb128 0x3f
 4199 00b5 19       		.uleb128 0x19
 4200 00b6 03       		.uleb128 0x3
 4201 00b7 0E       		.uleb128 0xe
 4202 00b8 3A       		.uleb128 0x3a
 4203 00b9 0B       		.uleb128 0xb
 4204 00ba 3B       		.uleb128 0x3b
 4205 00bb 0B       		.uleb128 0xb
 4206 00bc 27       		.uleb128 0x27
 4207 00bd 19       		.uleb128 0x19
 4208 00be 49       		.uleb128 0x49
 4209 00bf 13       		.uleb128 0x13
 4210 00c0 11       		.uleb128 0x11
 4211 00c1 01       		.uleb128 0x1
 4212 00c2 12       		.uleb128 0x12
 4213 00c3 06       		.uleb128 0x6
 4214 00c4 40       		.uleb128 0x40
 4215 00c5 18       		.uleb128 0x18
 4216 00c6 9642     		.uleb128 0x2116
 4217 00c8 19       		.uleb128 0x19
 4218 00c9 01       		.uleb128 0x1
 4219 00ca 13       		.uleb128 0x13
 4220 00cb 00       		.byte	0
 4221 00cc 00       		.byte	0
 4222 00cd 11       		.uleb128 0x11
 4223 00ce 34       		.uleb128 0x34
 4224 00cf 00       		.byte	0
 4225 00d0 03       		.uleb128 0x3
 4226 00d1 0E       		.uleb128 0xe
 4227 00d2 3A       		.uleb128 0x3a
 4228 00d3 0B       		.uleb128 0xb
 4229 00d4 3B       		.uleb128 0x3b
 4230 00d5 0B       		.uleb128 0xb
ARM GAS  C:\Users\ingan\AppData\Local\Temp\ccL06Ou5.s 			page 99


 4231 00d6 49       		.uleb128 0x49
 4232 00d7 13       		.uleb128 0x13
 4233 00d8 02       		.uleb128 0x2
 4234 00d9 18       		.uleb128 0x18
 4235 00da 00       		.byte	0
 4236 00db 00       		.byte	0
 4237 00dc 12       		.uleb128 0x12
 4238 00dd 26       		.uleb128 0x26
 4239 00de 00       		.byte	0
 4240 00df 49       		.uleb128 0x49
 4241 00e0 13       		.uleb128 0x13
 4242 00e1 00       		.byte	0
 4243 00e2 00       		.byte	0
 4244 00e3 13       		.uleb128 0x13
 4245 00e4 2E       		.uleb128 0x2e
 4246 00e5 01       		.byte	0x1
 4247 00e6 3F       		.uleb128 0x3f
 4248 00e7 19       		.uleb128 0x19
 4249 00e8 03       		.uleb128 0x3
 4250 00e9 0E       		.uleb128 0xe
 4251 00ea 3A       		.uleb128 0x3a
 4252 00eb 0B       		.uleb128 0xb
 4253 00ec 3B       		.uleb128 0x3b
 4254 00ed 05       		.uleb128 0x5
 4255 00ee 27       		.uleb128 0x27
 4256 00ef 19       		.uleb128 0x19
 4257 00f0 11       		.uleb128 0x11
 4258 00f1 01       		.uleb128 0x1
 4259 00f2 12       		.uleb128 0x12
 4260 00f3 06       		.uleb128 0x6
 4261 00f4 40       		.uleb128 0x40
 4262 00f5 18       		.uleb128 0x18
 4263 00f6 9642     		.uleb128 0x2116
 4264 00f8 19       		.uleb128 0x19
 4265 00f9 01       		.uleb128 0x1
 4266 00fa 13       		.uleb128 0x13
 4267 00fb 00       		.byte	0
 4268 00fc 00       		.byte	0
 4269 00fd 14       		.uleb128 0x14
 4270 00fe 05       		.uleb128 0x5
 4271 00ff 00       		.byte	0
 4272 0100 03       		.uleb128 0x3
 4273 0101 0E       		.uleb128 0xe
 4274 0102 3A       		.uleb128 0x3a
 4275 0103 0B       		.uleb128 0xb
 4276 0104 3B       		.uleb128 0x3b
 4277 0105 05       		.uleb128 0x5
 4278 0106 49       		.uleb128 0x49
 4279 0107 13       		.uleb128 0x13
 4280 0108 02       		.uleb128 0x2
 4281 0109 18       		.uleb128 0x18
 4282 010a 00       		.byte	0
 4283 010b 00       		.byte	0
 4284 010c 15       		.uleb128 0x15
 4285 010d 34       		.uleb128 0x34
 4286 010e 00       		.byte	0
 4287 010f 03       		.uleb128 0x3
ARM GAS  C:\Users\ingan\AppData\Local\Temp\ccL06Ou5.s 			page 100


 4288 0110 08       		.uleb128 0x8
 4289 0111 3A       		.uleb128 0x3a
 4290 0112 0B       		.uleb128 0xb
 4291 0113 3B       		.uleb128 0x3b
 4292 0114 05       		.uleb128 0x5
 4293 0115 49       		.uleb128 0x49
 4294 0116 13       		.uleb128 0x13
 4295 0117 02       		.uleb128 0x2
 4296 0118 18       		.uleb128 0x18
 4297 0119 00       		.byte	0
 4298 011a 00       		.byte	0
 4299 011b 16       		.uleb128 0x16
 4300 011c 34       		.uleb128 0x34
 4301 011d 00       		.byte	0
 4302 011e 03       		.uleb128 0x3
 4303 011f 0E       		.uleb128 0xe
 4304 0120 3A       		.uleb128 0x3a
 4305 0121 0B       		.uleb128 0xb
 4306 0122 3B       		.uleb128 0x3b
 4307 0123 05       		.uleb128 0x5
 4308 0124 49       		.uleb128 0x49
 4309 0125 13       		.uleb128 0x13
 4310 0126 02       		.uleb128 0x2
 4311 0127 18       		.uleb128 0x18
 4312 0128 00       		.byte	0
 4313 0129 00       		.byte	0
 4314 012a 17       		.uleb128 0x17
 4315 012b 2E       		.uleb128 0x2e
 4316 012c 01       		.byte	0x1
 4317 012d 3F       		.uleb128 0x3f
 4318 012e 19       		.uleb128 0x19
 4319 012f 03       		.uleb128 0x3
 4320 0130 0E       		.uleb128 0xe
 4321 0131 3A       		.uleb128 0x3a
 4322 0132 0B       		.uleb128 0xb
 4323 0133 3B       		.uleb128 0x3b
 4324 0134 05       		.uleb128 0x5
 4325 0135 27       		.uleb128 0x27
 4326 0136 19       		.uleb128 0x19
 4327 0137 11       		.uleb128 0x11
 4328 0138 01       		.uleb128 0x1
 4329 0139 12       		.uleb128 0x12
 4330 013a 06       		.uleb128 0x6
 4331 013b 40       		.uleb128 0x40
 4332 013c 18       		.uleb128 0x18
 4333 013d 9742     		.uleb128 0x2117
 4334 013f 19       		.uleb128 0x19
 4335 0140 01       		.uleb128 0x1
 4336 0141 13       		.uleb128 0x13
 4337 0142 00       		.byte	0
 4338 0143 00       		.byte	0
 4339 0144 18       		.uleb128 0x18
 4340 0145 0B       		.uleb128 0xb
 4341 0146 01       		.byte	0x1
 4342 0147 11       		.uleb128 0x11
 4343 0148 01       		.uleb128 0x1
 4344 0149 12       		.uleb128 0x12
ARM GAS  C:\Users\ingan\AppData\Local\Temp\ccL06Ou5.s 			page 101


 4345 014a 06       		.uleb128 0x6
 4346 014b 00       		.byte	0
 4347 014c 00       		.byte	0
 4348 014d 19       		.uleb128 0x19
 4349 014e 2E       		.uleb128 0x2e
 4350 014f 01       		.byte	0x1
 4351 0150 3F       		.uleb128 0x3f
 4352 0151 19       		.uleb128 0x19
 4353 0152 03       		.uleb128 0x3
 4354 0153 0E       		.uleb128 0xe
 4355 0154 3A       		.uleb128 0x3a
 4356 0155 0B       		.uleb128 0xb
 4357 0156 3B       		.uleb128 0x3b
 4358 0157 05       		.uleb128 0x5
 4359 0158 27       		.uleb128 0x27
 4360 0159 19       		.uleb128 0x19
 4361 015a 49       		.uleb128 0x49
 4362 015b 13       		.uleb128 0x13
 4363 015c 11       		.uleb128 0x11
 4364 015d 01       		.uleb128 0x1
 4365 015e 12       		.uleb128 0x12
 4366 015f 06       		.uleb128 0x6
 4367 0160 40       		.uleb128 0x40
 4368 0161 18       		.uleb128 0x18
 4369 0162 9742     		.uleb128 0x2117
 4370 0164 19       		.uleb128 0x19
 4371 0165 01       		.uleb128 0x1
 4372 0166 13       		.uleb128 0x13
 4373 0167 00       		.byte	0
 4374 0168 00       		.byte	0
 4375 0169 1A       		.uleb128 0x1a
 4376 016a 2E       		.uleb128 0x2e
 4377 016b 00       		.byte	0
 4378 016c 3F       		.uleb128 0x3f
 4379 016d 19       		.uleb128 0x19
 4380 016e 03       		.uleb128 0x3
 4381 016f 0E       		.uleb128 0xe
 4382 0170 3A       		.uleb128 0x3a
 4383 0171 0B       		.uleb128 0xb
 4384 0172 3B       		.uleb128 0x3b
 4385 0173 05       		.uleb128 0x5
 4386 0174 27       		.uleb128 0x27
 4387 0175 19       		.uleb128 0x19
 4388 0176 49       		.uleb128 0x49
 4389 0177 13       		.uleb128 0x13
 4390 0178 11       		.uleb128 0x11
 4391 0179 01       		.uleb128 0x1
 4392 017a 12       		.uleb128 0x12
 4393 017b 06       		.uleb128 0x6
 4394 017c 40       		.uleb128 0x40
 4395 017d 18       		.uleb128 0x18
 4396 017e 9742     		.uleb128 0x2117
 4397 0180 19       		.uleb128 0x19
 4398 0181 00       		.byte	0
 4399 0182 00       		.byte	0
 4400 0183 1B       		.uleb128 0x1b
 4401 0184 2E       		.uleb128 0x2e
ARM GAS  C:\Users\ingan\AppData\Local\Temp\ccL06Ou5.s 			page 102


 4402 0185 01       		.byte	0x1
 4403 0186 3F       		.uleb128 0x3f
 4404 0187 19       		.uleb128 0x19
 4405 0188 03       		.uleb128 0x3
 4406 0189 0E       		.uleb128 0xe
 4407 018a 3A       		.uleb128 0x3a
 4408 018b 0B       		.uleb128 0xb
 4409 018c 3B       		.uleb128 0x3b
 4410 018d 05       		.uleb128 0x5
 4411 018e 27       		.uleb128 0x27
 4412 018f 19       		.uleb128 0x19
 4413 0190 49       		.uleb128 0x49
 4414 0191 13       		.uleb128 0x13
 4415 0192 11       		.uleb128 0x11
 4416 0193 01       		.uleb128 0x1
 4417 0194 12       		.uleb128 0x12
 4418 0195 06       		.uleb128 0x6
 4419 0196 40       		.uleb128 0x40
 4420 0197 18       		.uleb128 0x18
 4421 0198 9642     		.uleb128 0x2116
 4422 019a 19       		.uleb128 0x19
 4423 019b 01       		.uleb128 0x1
 4424 019c 13       		.uleb128 0x13
 4425 019d 00       		.byte	0
 4426 019e 00       		.byte	0
 4427 019f 1C       		.uleb128 0x1c
 4428 01a0 34       		.uleb128 0x34
 4429 01a1 00       		.byte	0
 4430 01a2 03       		.uleb128 0x3
 4431 01a3 0E       		.uleb128 0xe
 4432 01a4 3A       		.uleb128 0x3a
 4433 01a5 0B       		.uleb128 0xb
 4434 01a6 3B       		.uleb128 0x3b
 4435 01a7 05       		.uleb128 0x5
 4436 01a8 49       		.uleb128 0x49
 4437 01a9 13       		.uleb128 0x13
 4438 01aa 3F       		.uleb128 0x3f
 4439 01ab 19       		.uleb128 0x19
 4440 01ac 3C       		.uleb128 0x3c
 4441 01ad 19       		.uleb128 0x19
 4442 01ae 00       		.byte	0
 4443 01af 00       		.byte	0
 4444 01b0 1D       		.uleb128 0x1d
 4445 01b1 34       		.uleb128 0x34
 4446 01b2 00       		.byte	0
 4447 01b3 03       		.uleb128 0x3
 4448 01b4 0E       		.uleb128 0xe
 4449 01b5 3A       		.uleb128 0x3a
 4450 01b6 0B       		.uleb128 0xb
 4451 01b7 3B       		.uleb128 0x3b
 4452 01b8 0B       		.uleb128 0xb
 4453 01b9 49       		.uleb128 0x49
 4454 01ba 13       		.uleb128 0x13
 4455 01bb 3F       		.uleb128 0x3f
 4456 01bc 19       		.uleb128 0x19
 4457 01bd 3C       		.uleb128 0x3c
 4458 01be 19       		.uleb128 0x19
ARM GAS  C:\Users\ingan\AppData\Local\Temp\ccL06Ou5.s 			page 103


 4459 01bf 00       		.byte	0
 4460 01c0 00       		.byte	0
 4461 01c1 00       		.byte	0
 4462              		.section	.debug_aranges,"",%progbits
 4463 0000 7C000000 		.4byte	0x7c
 4464 0004 0200     		.2byte	0x2
 4465 0006 00000000 		.4byte	.Ldebug_info0
 4466 000a 04       		.byte	0x4
 4467 000b 00       		.byte	0
 4468 000c 0000     		.2byte	0
 4469 000e 0000     		.2byte	0
 4470 0010 00000000 		.4byte	.LFB0
 4471 0014 94040000 		.4byte	.LFE0-.LFB0
 4472 0018 00000000 		.4byte	.LFB1
 4473 001c D8000000 		.4byte	.LFE1-.LFB1
 4474 0020 00000000 		.4byte	.LFB2
 4475 0024 44010000 		.4byte	.LFE2-.LFB2
 4476 0028 00000000 		.4byte	.LFB3
 4477 002c 6C000000 		.4byte	.LFE3-.LFB3
 4478 0030 00000000 		.4byte	.LFB4
 4479 0034 B4030000 		.4byte	.LFE4-.LFB4
 4480 0038 00000000 		.4byte	.LFB5
 4481 003c 5C020000 		.4byte	.LFE5-.LFB5
 4482 0040 00000000 		.4byte	.LFB6
 4483 0044 50000000 		.4byte	.LFE6-.LFB6
 4484 0048 00000000 		.4byte	.LFB7
 4485 004c 24000000 		.4byte	.LFE7-.LFB7
 4486 0050 00000000 		.4byte	.LFB8
 4487 0054 4C000000 		.4byte	.LFE8-.LFB8
 4488 0058 00000000 		.4byte	.LFB9
 4489 005c C0000000 		.4byte	.LFE9-.LFB9
 4490 0060 00000000 		.4byte	.LFB10
 4491 0064 E8000000 		.4byte	.LFE10-.LFB10
 4492 0068 00000000 		.4byte	.LFB11
 4493 006c 58010000 		.4byte	.LFE11-.LFB11
 4494 0070 00000000 		.4byte	.LFB12
 4495 0074 70000000 		.4byte	.LFE12-.LFB12
 4496 0078 00000000 		.4byte	0
 4497 007c 00000000 		.4byte	0
 4498              		.section	.debug_ranges,"",%progbits
 4499              	.Ldebug_ranges0:
 4500 0000 00000000 		.4byte	.LFB0
 4501 0004 94040000 		.4byte	.LFE0
 4502 0008 00000000 		.4byte	.LFB1
 4503 000c D8000000 		.4byte	.LFE1
 4504 0010 00000000 		.4byte	.LFB2
 4505 0014 44010000 		.4byte	.LFE2
 4506 0018 00000000 		.4byte	.LFB3
 4507 001c 6C000000 		.4byte	.LFE3
 4508 0020 00000000 		.4byte	.LFB4
 4509 0024 B4030000 		.4byte	.LFE4
 4510 0028 00000000 		.4byte	.LFB5
 4511 002c 5C020000 		.4byte	.LFE5
 4512 0030 00000000 		.4byte	.LFB6
 4513 0034 50000000 		.4byte	.LFE6
 4514 0038 00000000 		.4byte	.LFB7
 4515 003c 24000000 		.4byte	.LFE7
ARM GAS  C:\Users\ingan\AppData\Local\Temp\ccL06Ou5.s 			page 104


 4516 0040 00000000 		.4byte	.LFB8
 4517 0044 4C000000 		.4byte	.LFE8
 4518 0048 00000000 		.4byte	.LFB9
 4519 004c C0000000 		.4byte	.LFE9
 4520 0050 00000000 		.4byte	.LFB10
 4521 0054 E8000000 		.4byte	.LFE10
 4522 0058 00000000 		.4byte	.LFB11
 4523 005c 58010000 		.4byte	.LFE11
 4524 0060 00000000 		.4byte	.LFB12
 4525 0064 70000000 		.4byte	.LFE12
 4526 0068 00000000 		.4byte	0
 4527 006c 00000000 		.4byte	0
 4528              		.section	.debug_line,"",%progbits
 4529              	.Ldebug_line0:
 4530 0000 72040000 		.section	.debug_str,"MS",%progbits,1
 4530      02006600 
 4530      00000201 
 4530      FB0E0D00 
 4530      01010101 
 4531              	.LASF74:
 4532 0000 55534255 		.ascii	"USBUART_EpStateInit\000"
 4532      4152545F 
 4532      45705374 
 4532      61746549 
 4532      6E697400 
 4533              	.LASF22:
 4534 0014 6570546F 		.ascii	"epToggle\000"
 4534      67676C65 
 4534      00
 4535              	.LASF63:
 4536 001d 696E7465 		.ascii	"interfaceNumber\000"
 4536      72666163 
 4536      654E756D 
 4536      62657200 
 4537              	.LASF112:
 4538 002d 55534255 		.ascii	"USBUART_currentTD\000"
 4538      4152545F 
 4538      63757272 
 4538      656E7454 
 4538      4400
 4539              	.LASF23:
 4540 003f 61646472 		.ascii	"addr\000"
 4540      00
 4541              	.LASF41:
 4542 0044 545F5553 		.ascii	"T_USBUART_LUT\000"
 4542      42554152 
 4542      545F4C55 
 4542      5400
 4543              	.LASF98:
 4544 0052 55534255 		.ascii	"USBUART_configuration\000"
 4544      4152545F 
 4544      636F6E66 
 4544      69677572 
 4544      6174696F 
 4545              	.LASF100:
 4546 0068 55534255 		.ascii	"USBUART_deviceStatus\000"
 4546      4152545F 
ARM GAS  C:\Users\ingan\AppData\Local\Temp\ccL06Ou5.s 			page 105


 4546      64657669 
 4546      63655374 
 4546      61747573 
 4547              	.LASF37:
 4548 007d 70446174 		.ascii	"pData\000"
 4548      6100
 4549              	.LASF49:
 4550 0083 6570496E 		.ascii	"epIntEn\000"
 4550      74456E00 
 4551              	.LASF2:
 4552 008b 73686F72 		.ascii	"short int\000"
 4552      7420696E 
 4552      7400
 4553              	.LASF18:
 4554 0095 73697A65 		.ascii	"sizetype\000"
 4554      74797065 
 4554      00
 4555              	.LASF88:
 4556 009e 55534255 		.ascii	"USBUART_GetInterfaceClassTablePtr\000"
 4556      4152545F 
 4556      47657449 
 4556      6E746572 
 4556      66616365 
 4557              	.LASF24:
 4558 00c0 65704D6F 		.ascii	"epMode\000"
 4558      646500
 4559              	.LASF60:
 4560 00c7 61726245 		.ascii	"arbEp\000"
 4560      7000
 4561              	.LASF77:
 4562 00cd 636C6561 		.ascii	"clearAltSetting\000"
 4562      72416C74 
 4562      53657474 
 4562      696E6700 
 4563              	.LASF14:
 4564 00dd 63686172 		.ascii	"char8\000"
 4564      3800
 4565              	.LASF29:
 4566 00e3 616C7453 		.ascii	"altSetting\000"
 4566      65747469 
 4566      6E6700
 4567              	.LASF80:
 4568 00ee 70446573 		.ascii	"pDescr\000"
 4568      637200
 4569              	.LASF17:
 4570 00f5 6C6F6E67 		.ascii	"long double\000"
 4570      20646F75 
 4570      626C6500 
 4571              	.LASF82:
 4572 0101 63646343 		.ascii	"cdcComNums\000"
 4572      6F6D4E75 
 4572      6D7300
 4573              	.LASF95:
 4574 010c 55534255 		.ascii	"USBUART_ValidateAlternateSetting\000"
 4574      4152545F 
 4574      56616C69 
 4574      64617465 
ARM GAS  C:\Users\ingan\AppData\Local\Temp\ccL06Ou5.s 			page 106


 4574      416C7465 
 4575              	.LASF93:
 4576 012d 55534255 		.ascii	"USBUART_SetEndpointHalt\000"
 4576      4152545F 
 4576      53657445 
 4576      6E64706F 
 4576      696E7448 
 4577              	.LASF110:
 4578 0145 55534255 		.ascii	"USBUART_interfaceClass\000"
 4578      4152545F 
 4578      696E7465 
 4578      72666163 
 4578      65436C61 
 4579              	.LASF39:
 4580 015c 545F5553 		.ascii	"T_USBUART_TD\000"
 4580      42554152 
 4580      545F5444 
 4580      00
 4581              	.LASF106:
 4582 0169 55534255 		.ascii	"USBUART_interfaceSetting\000"
 4582      4152545F 
 4582      696E7465 
 4582      72666163 
 4582      65536574 
 4583              	.LASF116:
 4584 0182 55534255 		.ascii	"USBUART_GetDeviceTablePtr\000"
 4584      4152545F 
 4584      47657444 
 4584      65766963 
 4584      65546162 
 4585              	.LASF10:
 4586 019c 75696E74 		.ascii	"uint16\000"
 4586      313600
 4587              	.LASF54:
 4588 01a3 72775261 		.ascii	"rwRa\000"
 4588      00
 4589              	.LASF43:
 4590 01a8 55534255 		.ascii	"USBUART_ep0_data_struct\000"
 4590      4152545F 
 4590      6570305F 
 4590      64617461 
 4590      5F737472 
 4591              	.LASF47:
 4592 01c0 55534255 		.ascii	"USBUART_sie_ep_struct\000"
 4592      4152545F 
 4592      7369655F 
 4592      65705F73 
 4592      74727563 
 4593              	.LASF113:
 4594 01d6 474E5520 		.ascii	"GNU C11 5.4.1 20160609 (release) [ARM/embedded-5-br"
 4594      43313120 
 4594      352E342E 
 4594      31203230 
 4594      31363036 
 4595 0209 616E6368 		.ascii	"anch revision 237715] -mcpu=cortex-m3 -mthumb -g -O"
 4595      20726576 
 4595      6973696F 
ARM GAS  C:\Users\ingan\AppData\Local\Temp\ccL06Ou5.s 			page 107


 4595      6E203233 
 4595      37373135 
 4596 023c 30202D66 		.ascii	"0 -ffunction-sections -ffat-lto-objects -finline-fu"
 4596      66756E63 
 4596      74696F6E 
 4596      2D736563 
 4596      74696F6E 
 4597 026f 6E637469 		.ascii	"nctions\000"
 4597      6F6E7300 
 4598              	.LASF58:
 4599 0277 73696545 		.ascii	"sieEp\000"
 4599      7000
 4600              	.LASF34:
 4601 027d 6C656E67 		.ascii	"length\000"
 4601      746800
 4602              	.LASF83:
 4603 0284 55534255 		.ascii	"USBUART_ConfigAltChanged\000"
 4603      4152545F 
 4603      436F6E66 
 4603      6967416C 
 4603      74436861 
 4604              	.LASF12:
 4605 029d 666C6F61 		.ascii	"float\000"
 4605      7400
 4606              	.LASF105:
 4607 02a3 55534255 		.ascii	"USBUART_interfaceNumber\000"
 4607      4152545F 
 4607      696E7465 
 4607      72666163 
 4607      654E756D 
 4608              	.LASF62:
 4609 02bb 72657175 		.ascii	"requestHandled\000"
 4609      65737448 
 4609      616E646C 
 4609      656400
 4610              	.LASF6:
 4611 02ca 6C6F6E67 		.ascii	"long long int\000"
 4611      206C6F6E 
 4611      6720696E 
 4611      7400
 4612              	.LASF99:
 4613 02d8 55534255 		.ascii	"USBUART_configurationChanged\000"
 4613      4152545F 
 4613      636F6E66 
 4613      69677572 
 4613      6174696F 
 4614              	.LASF46:
 4615 02f5 65704372 		.ascii	"epCr0\000"
 4615      3000
 4616              	.LASF84:
 4617 02fb 696E7465 		.ascii	"interfaceNum\000"
 4617      72666163 
 4617      654E756D 
 4617      00
 4618              	.LASF78:
 4619 0308 63757245 		.ascii	"curEp\000"
 4619      7000
ARM GAS  C:\Users\ingan\AppData\Local\Temp\ccL06Ou5.s 			page 108


 4620              	.LASF115:
 4621 030e 433A5C55 		.ascii	"C:\\Users\\ingan\\Documents\\PSoC Creator\\MegaDriv"
 4621      73657273 
 4621      5C696E67 
 4621      616E5C44 
 4621      6F63756D 
 4622 033c 655F706C 		.ascii	"e_player\\VGMPlayer_v0.6.cydsn\000"
 4622      61796572 
 4622      5C56474D 
 4622      506C6179 
 4622      65725F76 
 4623              	.LASF4:
 4624 035a 6C6F6E67 		.ascii	"long int\000"
 4624      20696E74 
 4624      00
 4625              	.LASF20:
 4626 0363 61706945 		.ascii	"apiEpState\000"
 4626      70537461 
 4626      746500
 4627              	.LASF97:
 4628 036e 55534255 		.ascii	"USBUART_device\000"
 4628      4152545F 
 4628      64657669 
 4628      636500
 4629              	.LASF72:
 4630 037d 55534255 		.ascii	"USBUART_ReadDieID\000"
 4630      4152545F 
 4630      52656164 
 4630      44696549 
 4630      4400
 4631              	.LASF68:
 4632 038f 64657363 		.ascii	"descrLength\000"
 4632      724C656E 
 4632      67746800 
 4633              	.LASF30:
 4634 039b 61747472 		.ascii	"attributes\000"
 4634      69627574 
 4634      657300
 4635              	.LASF31:
 4636 03a6 624D6973 		.ascii	"bMisc\000"
 4636      6300
 4637              	.LASF92:
 4638 03ac 65704E75 		.ascii	"epNumber\000"
 4638      6D626572 
 4638      00
 4639              	.LASF25:
 4640 03b5 62756666 		.ascii	"buffOffset\000"
 4640      4F666673 
 4640      657400
 4641              	.LASF89:
 4642 03c0 70496E74 		.ascii	"pInterfaceClass\000"
 4642      65726661 
 4642      6365436C 
 4642      61737300 
 4643              	.LASF1:
 4644 03d0 756E7369 		.ascii	"unsigned char\000"
 4644      676E6564 
ARM GAS  C:\Users\ingan\AppData\Local\Temp\ccL06Ou5.s 			page 109


 4644      20636861 
 4644      7200
 4645              	.LASF53:
 4646 03de 72775761 		.ascii	"rwWaMsb\000"
 4646      4D736200 
 4647              	.LASF50:
 4648 03e6 65705372 		.ascii	"epSr\000"
 4648      00
 4649              	.LASF94:
 4650 03eb 55534255 		.ascii	"USBUART_ClearEndpointHalt\000"
 4650      4152545F 
 4650      436C6561 
 4650      72456E64 
 4650      706F696E 
 4651              	.LASF66:
 4652 0405 70537472 		.ascii	"pStr\000"
 4652      00
 4653              	.LASF70:
 4654 040a 70546D70 		.ascii	"pTmp\000"
 4654      00
 4655              	.LASF0:
 4656 040f 7369676E 		.ascii	"signed char\000"
 4656      65642063 
 4656      68617200 
 4657              	.LASF101:
 4658 041b 55534255 		.ascii	"USBUART_DEVICE0_DESCR\000"
 4658      4152545F 
 4658      44455649 
 4658      4345305F 
 4658      44455343 
 4659              	.LASF7:
 4660 0431 6C6F6E67 		.ascii	"long long unsigned int\000"
 4660      206C6F6E 
 4660      6720756E 
 4660      7369676E 
 4660      65642069 
 4661              	.LASF57:
 4662 0448 55534255 		.ascii	"USBUART_arb_ep_struct\000"
 4662      4152545F 
 4662      6172625F 
 4662      65705F73 
 4662      74727563 
 4663              	.LASF81:
 4664 045e 62756666 		.ascii	"buffCount\000"
 4664      436F756E 
 4664      7400
 4665              	.LASF8:
 4666 0468 756E7369 		.ascii	"unsigned int\000"
 4666      676E6564 
 4666      20696E74 
 4666      00
 4667              	.LASF56:
 4668 0475 72774472 		.ascii	"rwDr\000"
 4668      00
 4669              	.LASF52:
 4670 047a 72775761 		.ascii	"rwWa\000"
 4670      00
ARM GAS  C:\Users\ingan\AppData\Local\Temp\ccL06Ou5.s 			page 110


 4671              	.LASF19:
 4672 047f 61747472 		.ascii	"attrib\000"
 4672      696200
 4673              	.LASF48:
 4674 0486 65704366 		.ascii	"epCfg\000"
 4674      6700
 4675              	.LASF86:
 4676 048c 55534255 		.ascii	"USBUART_GetConfigTablePtr\000"
 4676      4152545F 
 4676      47657443 
 4676      6F6E6669 
 4676      67546162 
 4677              	.LASF102:
 4678 04a6 55534255 		.ascii	"USBUART_TABLE\000"
 4678      4152545F 
 4678      5441424C 
 4678      4500
 4679              	.LASF3:
 4680 04b4 73686F72 		.ascii	"short unsigned int\000"
 4680      7420756E 
 4680      7369676E 
 4680      65642069 
 4680      6E7400
 4681              	.LASF55:
 4682 04c7 72775261 		.ascii	"rwRaMsb\000"
 4682      4D736200 
 4683              	.LASF33:
 4684 04cf 73746174 		.ascii	"status\000"
 4684      757300
 4685              	.LASF35:
 4686 04d6 545F5553 		.ascii	"T_USBUART_XFER_STATUS_BLOCK\000"
 4686      42554152 
 4686      545F5846 
 4686      45525F53 
 4686      54415455 
 4687              	.LASF15:
 4688 04f2 63686172 		.ascii	"char\000"
 4688      00
 4689              	.LASF28:
 4690 04f7 545F5553 		.ascii	"T_USBUART_EP_CTL_BLOCK\000"
 4690      42554152 
 4690      545F4550 
 4690      5F43544C 
 4690      5F424C4F 
 4691              	.LASF107:
 4692 050e 55534255 		.ascii	"USBUART_interfaceSettingLast\000"
 4692      4152545F 
 4692      696E7465 
 4692      72666163 
 4692      65536574 
 4693              	.LASF42:
 4694 052b 65704461 		.ascii	"epData\000"
 4694      746100
 4695              	.LASF61:
 4696 0532 55534255 		.ascii	"USBUART_arb_eps_struct\000"
 4696      4152545F 
 4696      6172625F 
ARM GAS  C:\Users\ingan\AppData\Local\Temp\ccL06Ou5.s 			page 111


 4696      6570735F 
 4696      73747275 
 4697              	.LASF9:
 4698 0549 75696E74 		.ascii	"uint8\000"
 4698      3800
 4699              	.LASF64:
 4700 054f 636F6E66 		.ascii	"configurationN\000"
 4700      69677572 
 4700      6174696F 
 4700      6E4E00
 4701              	.LASF65:
 4702 055e 626D5265 		.ascii	"bmRequestType\000"
 4702      71756573 
 4702      74547970 
 4702      6500
 4703              	.LASF44:
 4704 056c 6570436E 		.ascii	"epCnt0\000"
 4704      743000
 4705              	.LASF45:
 4706 0573 6570436E 		.ascii	"epCnt1\000"
 4706      743100
 4707              	.LASF21:
 4708 057a 68774570 		.ascii	"hwEpState\000"
 4708      53746174 
 4708      6500
 4709              	.LASF91:
 4710 0584 55534255 		.ascii	"USBUART_TerminateEP\000"
 4710      4152545F 
 4710      5465726D 
 4710      696E6174 
 4710      65455000 
 4711              	.LASF16:
 4712 0598 72656738 		.ascii	"reg8\000"
 4712      00
 4713              	.LASF5:
 4714 059d 6C6F6E67 		.ascii	"long unsigned int\000"
 4714      20756E73 
 4714      69676E65 
 4714      6420696E 
 4714      7400
 4715              	.LASF59:
 4716 05af 55534255 		.ascii	"USBUART_sie_eps_struct\000"
 4716      4152545F 
 4716      7369655F 
 4716      6570735F 
 4716      73747275 
 4717              	.LASF11:
 4718 05c6 75696E74 		.ascii	"uint32\000"
 4718      333200
 4719              	.LASF87:
 4720 05cd 636F6E66 		.ascii	"confIndex\000"
 4720      496E6465 
 4720      7800
 4721              	.LASF51:
 4722 05d7 72657365 		.ascii	"reserved\000"
 4722      72766564 
 4722      00
ARM GAS  C:\Users\ingan\AppData\Local\Temp\ccL06Ou5.s 			page 112


 4723              	.LASF26:
 4724 05e0 62756666 		.ascii	"bufferSize\000"
 4724      65725369 
 4724      7A6500
 4725              	.LASF36:
 4726 05eb 636F756E 		.ascii	"count\000"
 4726      7400
 4727              	.LASF108:
 4728 05f1 55534255 		.ascii	"USBUART_deviceAddress\000"
 4728      4152545F 
 4728      64657669 
 4728      63654164 
 4728      64726573 
 4729              	.LASF114:
 4730 0607 47656E65 		.ascii	"Generated_Source\\PSoC5\\USBUART_std.c\000"
 4730      72617465 
 4730      645F536F 
 4730      75726365 
 4730      5C50536F 
 4731              	.LASF76:
 4732 062c 64657363 		.ascii	"descr\000"
 4732      7200
 4733              	.LASF40:
 4734 0632 705F6C69 		.ascii	"p_list\000"
 4734      737400
 4735              	.LASF38:
 4736 0639 70537461 		.ascii	"pStatusBlock\000"
 4736      74757342 
 4736      6C6F636B 
 4736      00
 4737              	.LASF96:
 4738 0646 63757249 		.ascii	"curInterfacesNum\000"
 4738      6E746572 
 4738      66616365 
 4738      734E756D 
 4738      00
 4739              	.LASF103:
 4740 0657 55534255 		.ascii	"USBUART_STRING_DESCRIPTORS\000"
 4740      4152545F 
 4740      53545249 
 4740      4E475F44 
 4740      45534352 
 4741              	.LASF109:
 4742 0672 55534255 		.ascii	"USBUART_interfaceStatus\000"
 4742      4152545F 
 4742      696E7465 
 4742      72666163 
 4742      65537461 
 4743              	.LASF13:
 4744 068a 646F7562 		.ascii	"double\000"
 4744      6C6500
 4745              	.LASF90:
 4746 0691 63757272 		.ascii	"currentInterfacesNum\000"
 4746      656E7449 
 4746      6E746572 
 4746      66616365 
 4746      734E756D 
ARM GAS  C:\Users\ingan\AppData\Local\Temp\ccL06Ou5.s 			page 113


 4747              	.LASF104:
 4748 06a6 55534255 		.ascii	"USBUART_idSerialNumberStringDescriptor\000"
 4748      4152545F 
 4748      69645365 
 4748      7269616C 
 4748      4E756D62 
 4749              	.LASF73:
 4750 06cd 55534255 		.ascii	"USBUART_ConfigReg\000"
 4750      4152545F 
 4750      436F6E66 
 4750      69675265 
 4750      6700
 4751              	.LASF85:
 4752 06df 55534255 		.ascii	"USBUART_HandleStandardRqst\000"
 4752      4152545F 
 4752      48616E64 
 4752      6C655374 
 4752      616E6461 
 4753              	.LASF27:
 4754 06fa 696E7465 		.ascii	"interface\000"
 4754      72666163 
 4754      6500
 4755              	.LASF69:
 4756 0704 55534255 		.ascii	"USBUART_tBuffer\000"
 4756      4152545F 
 4756      74427566 
 4756      66657200 
 4757              	.LASF32:
 4758 0714 545F5553 		.ascii	"T_USBUART_EP_SETTINGS_BLOCK\000"
 4758      42554152 
 4758      545F4550 
 4758      5F534554 
 4758      54494E47 
 4759              	.LASF111:
 4760 0730 55534255 		.ascii	"USBUART_EP\000"
 4760      4152545F 
 4760      455000
 4761              	.LASF79:
 4762 073b 65705479 		.ascii	"epType\000"
 4762      706500
 4763              	.LASF67:
 4764 0742 6E537472 		.ascii	"nStr\000"
 4764      00
 4765              	.LASF71:
 4766 0747 756E6971 		.ascii	"uniqueId\000"
 4766      75654964 
 4766      00
 4767              	.LASF75:
 4768 0750 55534255 		.ascii	"USBUART_Config\000"
 4768      4152545F 
 4768      436F6E66 
 4768      696700
 4769              		.ident	"GCC: (GNU Tools for ARM Embedded Processors) 5.4.1 20160609 (release) [ARM/embedded-5-bran
