ARM GAS  C:\Users\ingan\AppData\Local\Temp\cchc1OT0.s 			page 1


   1              		.syntax unified
   2              		.cpu cortex-m3
   3              		.fpu softvfp
   4              		.eabi_attribute 20, 1
   5              		.eabi_attribute 21, 1
   6              		.eabi_attribute 23, 3
   7              		.eabi_attribute 24, 1
   8              		.eabi_attribute 25, 1
   9              		.eabi_attribute 26, 1
  10              		.eabi_attribute 30, 6
  11              		.eabi_attribute 34, 1
  12              		.eabi_attribute 18, 4
  13              		.thumb
  14              		.syntax unified
  15              		.file	"utils.c"
  16              		.text
  17              	.Ltext0:
  18              		.cfi_sections	.debug_frame
  19              		.data
  20              		.align	2
  21              		.type	keep_on, %object
  22              		.size	keep_on, 4
  23              	keep_on:
  24 0000 01000000 		.word	1
  25              		.align	1
  26              		.type	loop, %object
  27              		.size	loop, 2
  28              	loop:
  29 0004 0100     		.short	1
  30              		.align	1
  31              		.type	interval, %object
  32              		.size	interval, 2
  33              	interval:
  34 0006 6400     		.short	100
  35              		.align	2
  36              		.type	sAddress, %object
  37              		.size	sAddress, 4
  38              	sAddress:
  39 0008 08000000 		.word	8
  40              		.align	2
  41              		.type	delay, %object
  42              		.size	delay, 4
  43              	delay:
  44 000c 1E000000 		.word	30
  45              		.global	timeoutms
  46              		.align	1
  47              		.type	timeoutms, %object
  48              		.size	timeoutms, 2
  49              	timeoutms:
  50 0010 F401     		.short	500
  51              		.global	i2c_func_list
  52              		.section	.rodata
  53              		.align	2
  54              	.LC0:
  55 0000 68656C70 		.ascii	"help\000"
  55      00
  56 0005 000000   		.align	2
ARM GAS  C:\Users\ingan\AppData\Local\Temp\cchc1OT0.s 			page 2


  57              	.LC1:
  58 0008 73686F77 		.ascii	"show help message\000"
  58      2068656C 
  58      70206D65 
  58      73736167 
  58      6500
  59 001a 0000     		.align	2
  60              	.LC2:
  61 001c 6C6F6F70 		.ascii	"loop\000"
  61      00
  62 0021 000000   		.align	2
  63              	.LC3:
  64 0024 73657420 		.ascii	"set loop counts\000"
  64      6C6F6F70 
  64      20636F75 
  64      6E747300 
  65              		.align	2
  66              	.LC4:
  67 0034 696E7465 		.ascii	"interval\000"
  67      7276616C 
  67      00
  68 003d 000000   		.align	2
  69              	.LC5:
  70 0040 73657420 		.ascii	"set interval time (ms)\000"
  70      696E7465 
  70      7276616C 
  70      2074696D 
  70      6520286D 
  71 0057 00       		.align	2
  72              	.LC6:
  73 0058 61646472 		.ascii	"address\000"
  73      65737300 
  74              		.align	2
  75              	.LC7:
  76 0060 73657420 		.ascii	"set address\000"
  76      61646472 
  76      65737300 
  77              		.align	2
  78              	.LC8:
  79 006c 64656C61 		.ascii	"delay\000"
  79      7900
  80 0072 0000     		.align	2
  81              	.LC9:
  82 0074 73657420 		.ascii	"set delay between address and command\000"
  82      64656C61 
  82      79206265 
  82      74776565 
  82      6E206164 
  83 009a 0000     		.align	2
  84              	.LC10:
  85 009c 73746174 		.ascii	"status\000"
  85      757300
  86 00a3 00       		.align	2
  87              	.LC11:
  88 00a4 7072696E 		.ascii	"print config status\000"
  88      7420636F 
  88      6E666967 
ARM GAS  C:\Users\ingan\AppData\Local\Temp\cchc1OT0.s 			page 3


  88      20737461 
  88      74757300 
  89              		.align	2
  90              	.LC12:
  91 00b8 72657475 		.ascii	"return\000"
  91      726E00
  92 00bf 00       		.align	2
  93              	.LC13:
  94 00c0 72657475 		.ascii	"return to the previous mode\000"
  94      726E2074 
  94      6F207468 
  94      65207072 
  94      6576696F 
  95              		.align	2
  96              	.LC14:
  97 00dc 72657365 		.ascii	"reset\000"
  97      7400
  98 00e2 0000     		.align	2
  99              	.LC15:
 100 00e4 736F6674 		.ascii	"software rest\000"
 100      77617265 
 100      20726573 
 100      7400
 101              		.data
 102 0012 0000     		.align	2
 103              		.type	i2c_func_list, %object
 104              		.size	i2c_func_list, 108
 105              	i2c_func_list:
 106 0014 00000000 		.word	.LC0
 107 0018 00000000 		.word	do_help
 108 001c 08000000 		.word	.LC1
 109 0020 1C000000 		.word	.LC2
 110 0024 00000000 		.word	do_loop
 111 0028 24000000 		.word	.LC3
 112 002c 34000000 		.word	.LC4
 113 0030 00000000 		.word	do_interval
 114 0034 40000000 		.word	.LC5
 115 0038 58000000 		.word	.LC6
 116 003c 00000000 		.word	do_address
 117 0040 60000000 		.word	.LC7
 118 0044 6C000000 		.word	.LC8
 119 0048 00000000 		.word	do_delay
 120 004c 74000000 		.word	.LC9
 121 0050 9C000000 		.word	.LC10
 122 0054 00000000 		.word	do_status
 123 0058 A4000000 		.word	.LC11
 124 005c B8000000 		.word	.LC12
 125 0060 00000000 		.word	do_return
 126 0064 C0000000 		.word	.LC13
 127 0068 DC000000 		.word	.LC14
 128 006c 00000000 		.word	do_soft_reset
 129 0070 E4000000 		.word	.LC15
 130 0074 00000000 		.word	0
 131 0078 00000000 		.word	0
 132 007c 00000000 		.word	0
 133              		.section	.rodata
 134 00f2 0000     		.align	2
ARM GAS  C:\Users\ingan\AppData\Local\Temp\cchc1OT0.s 			page 4


 135              	.LC16:
 136 00f4 44656D6F 		.ascii	"Demo> \000"
 136      3E2000
 137 00fb 00       		.align	2
 138              	.LC17:
 139 00fc 556E6B6E 		.ascii	"Unknown Command: \000"
 139      6F776E20 
 139      436F6D6D 
 139      616E643A 
 139      2000
 140 010e 0000     		.align	2
 141              	.LC18:
 142 0110 0A0D00   		.ascii	"\012\015\000"
 143              		.section	.text.do_demo,"ax",%progbits
 144              		.align	2
 145              		.global	do_demo
 146              		.thumb
 147              		.thumb_func
 148              		.type	do_demo, %function
 149              	do_demo:
 150              	.LFB64:
 151              		.file 1 "utils.c"
   1:utils.c       **** #include "project.h"
   2:utils.c       **** #include "stdio.h"
   3:utils.c       **** #include "stdlib.h"
   4:utils.c       **** #include "tty_utils.h"
   5:utils.c       **** #include "utils.h"
   6:utils.c       **** 
   7:utils.c       **** static int      keep_on  = 1 ;
   8:utils.c       **** static uint16_t loop     = 1 ;
   9:utils.c       **** static uint16_t interval = 100 ; /* 100 ms */
  10:utils.c       **** static int      sAddress = 0x08 ; 
  11:utils.c       **** static int      delay    = 30 ; /* default 30ms */
  12:utils.c       **** uint16_t        timeoutms = 500 ;
  13:utils.c       **** 
  14:utils.c       **** f_list_type i2c_func_list[] = {
  15:utils.c       ****     { "help",        do_help,       "show help message" },
  16:utils.c       ****     { "loop",        do_loop,       "set loop counts"},
  17:utils.c       ****     { "interval",    do_interval,   "set interval time (ms)"},
  18:utils.c       ****     { "address",     do_address,    "set address" },
  19:utils.c       ****     { "delay",       do_delay,      "set delay between address and command" },
  20:utils.c       ****     { "status",      do_status,     "print config status" },
  21:utils.c       ****     { "return",      do_return,     "return to the previous mode" },
  22:utils.c       ****     { "reset",       do_soft_reset,  "software rest" },
  23:utils.c       ****     { 0,             0,             0} /* list terminator */
  24:utils.c       **** } ;
  25:utils.c       **** 
  26:utils.c       **** void do_demo(void)
  27:utils.c       **** {
 152              		.loc 1 27 0
 153              		.cfi_startproc
 154              		@ args = 0, pretend = 0, frame = 8
 155              		@ frame_needed = 1, uses_anonymous_args = 0
 156 0000 80B5     		push	{r7, lr}
 157              		.cfi_def_cfa_offset 8
 158              		.cfi_offset 7, -8
 159              		.cfi_offset 14, -4
ARM GAS  C:\Users\ingan\AppData\Local\Temp\cchc1OT0.s 			page 5


 160 0002 82B0     		sub	sp, sp, #8
 161              		.cfi_def_cfa_offset 16
 162 0004 00AF     		add	r7, sp, #0
 163              		.cfi_def_cfa_register 7
  28:utils.c       ****     func_ptr func ;
  29:utils.c       ****     keep_on = 1 ;
 164              		.loc 1 29 0
 165 0006 194B     		ldr	r3, .L6
 166 0008 0122     		movs	r2, #1
 167 000a 1A60     		str	r2, [r3]
  30:utils.c       ****     
  31:utils.c       ****     
  32:utils.c       ****     do_help() ;
 168              		.loc 1 32 0
 169 000c FFF7FEFF 		bl	do_help
  33:utils.c       ****     
  34:utils.c       ****     prompt("Demo> ") ;
 170              		.loc 1 34 0
 171 0010 1748     		ldr	r0, .L6+4
 172 0012 FFF7FEFF 		bl	prompt
  35:utils.c       ****     
  36:utils.c       ****     while(keep_on) {
 173              		.loc 1 36 0
 174 0016 21E0     		b	.L2
 175              	.L5:
  37:utils.c       ****         if (get_line()) {
 176              		.loc 1 37 0
 177 0018 FFF7FEFF 		bl	get_line
 178 001c 0346     		mov	r3, r0
 179 001e 002B     		cmp	r3, #0
 180 0020 1CD0     		beq	.L2
  38:utils.c       ****             func = get_func(i2c_func_list, str) ;
 181              		.loc 1 38 0
 182 0022 1449     		ldr	r1, .L6+8
 183 0024 1448     		ldr	r0, .L6+12
 184 0026 FFF7FEFF 		bl	get_func
 185 002a 7860     		str	r0, [r7, #4]
  39:utils.c       ****             if (func) {
 186              		.loc 1 39 0
 187 002c 7B68     		ldr	r3, [r7, #4]
 188 002e 002B     		cmp	r3, #0
 189 0030 02D0     		beq	.L3
  40:utils.c       ****                 func() ;
 190              		.loc 1 40 0
 191 0032 7B68     		ldr	r3, [r7, #4]
 192 0034 9847     		blx	r3
 193 0036 0AE0     		b	.L4
 194              	.L3:
  41:utils.c       ****             } else {
  42:utils.c       ****                 print("Unknown Command: ") ;
 195              		.loc 1 42 0
 196 0038 1048     		ldr	r0, .L6+16
 197 003a FFF7FEFF 		bl	print
  43:utils.c       ****                 print(str) ;
 198              		.loc 1 43 0
 199 003e 0D48     		ldr	r0, .L6+8
 200 0040 FFF7FEFF 		bl	print
ARM GAS  C:\Users\ingan\AppData\Local\Temp\cchc1OT0.s 			page 6


  44:utils.c       ****                 print("\n\r") ;
 201              		.loc 1 44 0
 202 0044 0E48     		ldr	r0, .L6+20
 203 0046 FFF7FEFF 		bl	print
  45:utils.c       ****                 do_help() ;
 204              		.loc 1 45 0
 205 004a FFF7FEFF 		bl	do_help
 206              	.L4:
  46:utils.c       ****             }
  47:utils.c       ****             if (keep_on) {
 207              		.loc 1 47 0
 208 004e 074B     		ldr	r3, .L6
 209 0050 1B68     		ldr	r3, [r3]
 210 0052 002B     		cmp	r3, #0
 211 0054 02D0     		beq	.L2
  48:utils.c       ****                 prompt("Demo> ") ;
 212              		.loc 1 48 0
 213 0056 0648     		ldr	r0, .L6+4
 214 0058 FFF7FEFF 		bl	prompt
 215              	.L2:
  36:utils.c       ****         if (get_line()) {
 216              		.loc 1 36 0
 217 005c 034B     		ldr	r3, .L6
 218 005e 1B68     		ldr	r3, [r3]
 219 0060 002B     		cmp	r3, #0
 220 0062 D9D1     		bne	.L5
  49:utils.c       ****             }
  50:utils.c       ****         }
  51:utils.c       ****     }
  52:utils.c       **** }
 221              		.loc 1 52 0
 222 0064 00BF     		nop
 223 0066 0837     		adds	r7, r7, #8
 224              		.cfi_def_cfa_offset 8
 225 0068 BD46     		mov	sp, r7
 226              		.cfi_def_cfa_register 13
 227              		@ sp needed
 228 006a 80BD     		pop	{r7, pc}
 229              	.L7:
 230              		.align	2
 231              	.L6:
 232 006c 00000000 		.word	keep_on
 233 0070 F4000000 		.word	.LC16
 234 0074 00000000 		.word	str
 235 0078 00000000 		.word	i2c_func_list
 236 007c FC000000 		.word	.LC17
 237 0080 10010000 		.word	.LC18
 238              		.cfi_endproc
 239              	.LFE64:
 240              		.size	do_demo, .-do_demo
 241              		.section	.text.do_help,"ax",%progbits
 242              		.align	2
 243              		.global	do_help
 244              		.thumb
 245              		.thumb_func
 246              		.type	do_help, %function
 247              	do_help:
ARM GAS  C:\Users\ingan\AppData\Local\Temp\cchc1OT0.s 			page 7


 248              	.LFB65:
  53:utils.c       **** 
  54:utils.c       **** void do_help(void) 
  55:utils.c       **** {
 249              		.loc 1 55 0
 250              		.cfi_startproc
 251              		@ args = 0, pretend = 0, frame = 0
 252              		@ frame_needed = 1, uses_anonymous_args = 0
 253 0000 80B5     		push	{r7, lr}
 254              		.cfi_def_cfa_offset 8
 255              		.cfi_offset 7, -8
 256              		.cfi_offset 14, -4
 257 0002 00AF     		add	r7, sp, #0
 258              		.cfi_def_cfa_register 7
  56:utils.c       ****     show_help(i2c_func_list) ;    
 259              		.loc 1 56 0
 260 0004 0248     		ldr	r0, .L9
 261 0006 FFF7FEFF 		bl	show_help
  57:utils.c       **** }
 262              		.loc 1 57 0
 263 000a 00BF     		nop
 264 000c 80BD     		pop	{r7, pc}
 265              	.L10:
 266 000e 00BF     		.align	2
 267              	.L9:
 268 0010 00000000 		.word	i2c_func_list
 269              		.cfi_endproc
 270              	.LFE65:
 271              		.size	do_help, .-do_help
 272              		.section	.text.do_return,"ax",%progbits
 273              		.align	2
 274              		.global	do_return
 275              		.thumb
 276              		.thumb_func
 277              		.type	do_return, %function
 278              	do_return:
 279              	.LFB66:
  58:utils.c       **** 
  59:utils.c       **** void do_return(void) 
  60:utils.c       **** {
 280              		.loc 1 60 0
 281              		.cfi_startproc
 282              		@ args = 0, pretend = 0, frame = 0
 283              		@ frame_needed = 1, uses_anonymous_args = 0
 284              		@ link register save eliminated.
 285 0000 80B4     		push	{r7}
 286              		.cfi_def_cfa_offset 4
 287              		.cfi_offset 7, -4
 288 0002 00AF     		add	r7, sp, #0
 289              		.cfi_def_cfa_register 7
  61:utils.c       ****     keep_on = 0 ;
 290              		.loc 1 61 0
 291 0004 034B     		ldr	r3, .L12
 292 0006 0022     		movs	r2, #0
 293 0008 1A60     		str	r2, [r3]
  62:utils.c       **** }
 294              		.loc 1 62 0
ARM GAS  C:\Users\ingan\AppData\Local\Temp\cchc1OT0.s 			page 8


 295 000a 00BF     		nop
 296 000c BD46     		mov	sp, r7
 297              		.cfi_def_cfa_register 13
 298              		@ sp needed
 299 000e 80BC     		pop	{r7}
 300              		.cfi_restore 7
 301              		.cfi_def_cfa_offset 0
 302 0010 7047     		bx	lr
 303              	.L13:
 304 0012 00BF     		.align	2
 305              	.L12:
 306 0014 00000000 		.word	keep_on
 307              		.cfi_endproc
 308              	.LFE66:
 309              		.size	do_return, .-do_return
 310              		.section	.text.do_soft_reset,"ax",%progbits
 311              		.align	2
 312              		.global	do_soft_reset
 313              		.thumb
 314              		.thumb_func
 315              		.type	do_soft_reset, %function
 316              	do_soft_reset:
 317              	.LFB67:
  63:utils.c       **** 
  64:utils.c       **** void do_soft_reset(void)
  65:utils.c       **** {
 318              		.loc 1 65 0
 319              		.cfi_startproc
 320              		@ args = 0, pretend = 0, frame = 0
 321              		@ frame_needed = 1, uses_anonymous_args = 0
 322 0000 80B5     		push	{r7, lr}
 323              		.cfi_def_cfa_offset 8
 324              		.cfi_offset 7, -8
 325              		.cfi_offset 14, -4
 326 0002 00AF     		add	r7, sp, #0
 327              		.cfi_def_cfa_register 7
  66:utils.c       ****     CySoftwareReset();
 328              		.loc 1 66 0
 329 0004 FFF7FEFF 		bl	CySoftwareReset
  67:utils.c       **** }
 330              		.loc 1 67 0
 331 0008 00BF     		nop
 332 000a 80BD     		pop	{r7, pc}
 333              		.cfi_endproc
 334              	.LFE67:
 335              		.size	do_soft_reset, .-do_soft_reset
 336              		.section	.rodata
 337 0113 00       		.align	2
 338              	.LC19:
 339 0114 252A7320 		.ascii	"%*s %hd\000"
 339      25686400 
 340              		.section	.text.do_loop,"ax",%progbits
 341              		.align	2
 342              		.global	do_loop
 343              		.thumb
 344              		.thumb_func
 345              		.type	do_loop, %function
ARM GAS  C:\Users\ingan\AppData\Local\Temp\cchc1OT0.s 			page 9


 346              	do_loop:
 347              	.LFB68:
  68:utils.c       **** 
  69:utils.c       **** void do_loop(void) 
  70:utils.c       **** {
 348              		.loc 1 70 0
 349              		.cfi_startproc
 350              		@ args = 0, pretend = 0, frame = 0
 351              		@ frame_needed = 1, uses_anonymous_args = 0
 352 0000 80B5     		push	{r7, lr}
 353              		.cfi_def_cfa_offset 8
 354              		.cfi_offset 7, -8
 355              		.cfi_offset 14, -4
 356 0002 00AF     		add	r7, sp, #0
 357              		.cfi_def_cfa_register 7
  71:utils.c       ****     sscanf(str, "%*s %hd", &loop) ;
 358              		.loc 1 71 0
 359 0004 034A     		ldr	r2, .L16
 360 0006 0449     		ldr	r1, .L16+4
 361 0008 0448     		ldr	r0, .L16+8
 362 000a FFF7FEFF 		bl	sscanf
  72:utils.c       **** }
 363              		.loc 1 72 0
 364 000e 00BF     		nop
 365 0010 80BD     		pop	{r7, pc}
 366              	.L17:
 367 0012 00BF     		.align	2
 368              	.L16:
 369 0014 04000000 		.word	loop
 370 0018 14010000 		.word	.LC19
 371 001c 00000000 		.word	str
 372              		.cfi_endproc
 373              	.LFE68:
 374              		.size	do_loop, .-do_loop
 375              		.section	.text.do_interval,"ax",%progbits
 376              		.align	2
 377              		.global	do_interval
 378              		.thumb
 379              		.thumb_func
 380              		.type	do_interval, %function
 381              	do_interval:
 382              	.LFB69:
  73:utils.c       **** 
  74:utils.c       **** void do_interval(void) 
  75:utils.c       **** {
 383              		.loc 1 75 0
 384              		.cfi_startproc
 385              		@ args = 0, pretend = 0, frame = 0
 386              		@ frame_needed = 1, uses_anonymous_args = 0
 387 0000 80B5     		push	{r7, lr}
 388              		.cfi_def_cfa_offset 8
 389              		.cfi_offset 7, -8
 390              		.cfi_offset 14, -4
 391 0002 00AF     		add	r7, sp, #0
 392              		.cfi_def_cfa_register 7
  76:utils.c       ****     sscanf(str, "%*s %hd", &interval) ;
 393              		.loc 1 76 0
ARM GAS  C:\Users\ingan\AppData\Local\Temp\cchc1OT0.s 			page 10


 394 0004 034A     		ldr	r2, .L19
 395 0006 0449     		ldr	r1, .L19+4
 396 0008 0448     		ldr	r0, .L19+8
 397 000a FFF7FEFF 		bl	sscanf
  77:utils.c       **** }
 398              		.loc 1 77 0
 399 000e 00BF     		nop
 400 0010 80BD     		pop	{r7, pc}
 401              	.L20:
 402 0012 00BF     		.align	2
 403              	.L19:
 404 0014 06000000 		.word	interval
 405 0018 14010000 		.word	.LC19
 406 001c 00000000 		.word	str
 407              		.cfi_endproc
 408              	.LFE69:
 409              		.size	do_interval, .-do_interval
 410              		.section	.rodata
 411              		.align	2
 412              	.LC20:
 413 011c 252A7320 		.ascii	"%*s %d\000"
 413      256400
 414              		.section	.text.do_delay,"ax",%progbits
 415              		.align	2
 416              		.global	do_delay
 417              		.thumb
 418              		.thumb_func
 419              		.type	do_delay, %function
 420              	do_delay:
 421              	.LFB70:
  78:utils.c       **** 
  79:utils.c       **** void do_delay(void)
  80:utils.c       **** {
 422              		.loc 1 80 0
 423              		.cfi_startproc
 424              		@ args = 0, pretend = 0, frame = 0
 425              		@ frame_needed = 1, uses_anonymous_args = 0
 426 0000 80B5     		push	{r7, lr}
 427              		.cfi_def_cfa_offset 8
 428              		.cfi_offset 7, -8
 429              		.cfi_offset 14, -4
 430 0002 00AF     		add	r7, sp, #0
 431              		.cfi_def_cfa_register 7
  81:utils.c       ****     sscanf(str, "%*s %d", &delay) ;
 432              		.loc 1 81 0
 433 0004 034A     		ldr	r2, .L22
 434 0006 0449     		ldr	r1, .L22+4
 435 0008 0448     		ldr	r0, .L22+8
 436 000a FFF7FEFF 		bl	sscanf
  82:utils.c       **** }
 437              		.loc 1 82 0
 438 000e 00BF     		nop
 439 0010 80BD     		pop	{r7, pc}
 440              	.L23:
 441 0012 00BF     		.align	2
 442              	.L22:
 443 0014 0C000000 		.word	delay
ARM GAS  C:\Users\ingan\AppData\Local\Temp\cchc1OT0.s 			page 11


 444 0018 1C010000 		.word	.LC20
 445 001c 00000000 		.word	str
 446              		.cfi_endproc
 447              	.LFE70:
 448              		.size	do_delay, .-do_delay
 449              		.section	.rodata
 450 0123 00       		.align	2
 451              	.LC21:
 452 0124 436F6E66 		.ascii	"Config: address: 0x%02X (%d)\012\015\000"
 452      69673A20 
 452      61646472 
 452      6573733A 
 452      20307825 
 453              		.section	.text.do_status,"ax",%progbits
 454              		.align	2
 455              		.global	do_status
 456              		.thumb
 457              		.thumb_func
 458              		.type	do_status, %function
 459              	do_status:
 460              	.LFB71:
  83:utils.c       **** 
  84:utils.c       **** void do_status(void) 
  85:utils.c       **** {
 461              		.loc 1 85 0
 462              		.cfi_startproc
 463              		@ args = 0, pretend = 0, frame = 0
 464              		@ frame_needed = 1, uses_anonymous_args = 0
 465 0000 80B5     		push	{r7, lr}
 466              		.cfi_def_cfa_offset 8
 467              		.cfi_offset 7, -8
 468              		.cfi_offset 14, -4
 469 0002 82B0     		sub	sp, sp, #8
 470              		.cfi_def_cfa_offset 16
 471 0004 02AF     		add	r7, sp, #8
 472              		.cfi_def_cfa 7, 8
  86:utils.c       ****     snprintf(str, STR_BUF_LEN, "Config: address: 0x%02X (%d)\n\r",
 473              		.loc 1 86 0
 474 0006 084B     		ldr	r3, .L25
 475 0008 1A68     		ldr	r2, [r3]
 476 000a 074B     		ldr	r3, .L25
 477 000c 1B68     		ldr	r3, [r3]
 478 000e 0093     		str	r3, [sp]
 479 0010 1346     		mov	r3, r2
 480 0012 064A     		ldr	r2, .L25+4
 481 0014 4021     		movs	r1, #64
 482 0016 0648     		ldr	r0, .L25+8
 483 0018 FFF7FEFF 		bl	snprintf
  87:utils.c       ****         sAddress, sAddress) ;
  88:utils.c       ****     print(str) ;
 484              		.loc 1 88 0
 485 001c 0448     		ldr	r0, .L25+8
 486 001e FFF7FEFF 		bl	print
  89:utils.c       **** }
 487              		.loc 1 89 0
 488 0022 00BF     		nop
 489 0024 BD46     		mov	sp, r7
ARM GAS  C:\Users\ingan\AppData\Local\Temp\cchc1OT0.s 			page 12


 490              		.cfi_def_cfa_register 13
 491              		@ sp needed
 492 0026 80BD     		pop	{r7, pc}
 493              	.L26:
 494              		.align	2
 495              	.L25:
 496 0028 08000000 		.word	sAddress
 497 002c 24010000 		.word	.LC21
 498 0030 00000000 		.word	str
 499              		.cfi_endproc
 500              	.LFE71:
 501              		.size	do_status, .-do_status
 502              		.section	.text.do_address,"ax",%progbits
 503              		.align	2
 504              		.global	do_address
 505              		.thumb
 506              		.thumb_func
 507              		.type	do_address, %function
 508              	do_address:
 509              	.LFB72:
  90:utils.c       **** 
  91:utils.c       **** 
  92:utils.c       **** void do_address(void) 
  93:utils.c       **** {
 510              		.loc 1 93 0
 511              		.cfi_startproc
 512              		@ args = 0, pretend = 0, frame = 0
 513              		@ frame_needed = 1, uses_anonymous_args = 0
 514 0000 80B5     		push	{r7, lr}
 515              		.cfi_def_cfa_offset 8
 516              		.cfi_offset 7, -8
 517              		.cfi_offset 14, -4
 518 0002 00AF     		add	r7, sp, #0
 519              		.cfi_def_cfa_register 7
  94:utils.c       ****     sscanf(str, "%*s %d", &sAddress) ;
 520              		.loc 1 94 0
 521 0004 034A     		ldr	r2, .L28
 522 0006 0449     		ldr	r1, .L28+4
 523 0008 0448     		ldr	r0, .L28+8
 524 000a FFF7FEFF 		bl	sscanf
  95:utils.c       **** }
 525              		.loc 1 95 0
 526 000e 00BF     		nop
 527 0010 80BD     		pop	{r7, pc}
 528              	.L29:
 529 0012 00BF     		.align	2
 530              	.L28:
 531 0014 08000000 		.word	sAddress
 532 0018 1C010000 		.word	.LC20
 533 001c 00000000 		.word	str
 534              		.cfi_endproc
 535              	.LFE72:
 536              		.size	do_address, .-do_address
 537              		.text
 538              	.Letext0:
 539              		.file 2 "c:\\program files (x86)\\cypress\\psoc creator\\4.2\\psoc creator\\import\\gnu\\arm\\5.4.
 540              		.file 3 "c:\\program files (x86)\\cypress\\psoc creator\\4.2\\psoc creator\\import\\gnu\\arm\\5.4.
ARM GAS  C:\Users\ingan\AppData\Local\Temp\cchc1OT0.s 			page 13


 541              		.file 4 "func_list.h"
 542              		.file 5 "Generated_Source\\PSoC5/core_cm3.h"
 543              		.file 6 "tty_utils.h"