ARM GAS  C:\Users\ingan\AppData\Local\Temp\ccOlcIOe.s 			page 1


   1              		.syntax unified
   2              		.cpu cortex-m3
   3              		.fpu softvfp
   4              		.eabi_attribute 20, 1
   5              		.eabi_attribute 21, 1
   6              		.eabi_attribute 23, 3
   7              		.eabi_attribute 24, 1
   8              		.eabi_attribute 25, 1
   9              		.eabi_attribute 26, 1
  10              		.eabi_attribute 30, 2
  11              		.eabi_attribute 34, 1
  12              		.eabi_attribute 18, 4
  13              		.thumb
  14              		.syntax unified
  15              		.file	"CyFlash.c"
  16              		.text
  17              	.Ltext0:
  18              		.cfi_sections	.debug_frame
  19              		.section	.text.CyWriteRowFull.part.0,"ax",%progbits
  20              		.align	2
  21              		.thumb
  22              		.thumb_func
  23              		.type	CyWriteRowFull.part.0, %function
  24              	CyWriteRowFull.part.0:
  25              	.LFB14:
  26              		.file 1 "Generated_Source\\PSoC5\\CyFlash.c"
   1:Generated_Source\PSoC5/CyFlash.c **** /***************************************************************************//**
   2:Generated_Source\PSoC5/CyFlash.c **** * \file CyFlash.c
   3:Generated_Source\PSoC5/CyFlash.c **** * \version 5.60
   4:Generated_Source\PSoC5/CyFlash.c **** *
   5:Generated_Source\PSoC5/CyFlash.c **** * \brief Provides an API for the FLASH/EEPROM.
   6:Generated_Source\PSoC5/CyFlash.c **** *
   7:Generated_Source\PSoC5/CyFlash.c **** * \note This code is endian agnostic.
   8:Generated_Source\PSoC5/CyFlash.c **** *
   9:Generated_Source\PSoC5/CyFlash.c **** * \note Documentation of the API's in this file is located in the System
  10:Generated_Source\PSoC5/CyFlash.c **** * Reference Guide provided with PSoC Creator.
  11:Generated_Source\PSoC5/CyFlash.c **** *
  12:Generated_Source\PSoC5/CyFlash.c **** ********************************************************************************
  13:Generated_Source\PSoC5/CyFlash.c **** * \copyright
  14:Generated_Source\PSoC5/CyFlash.c **** * Copyright 2008-2017, Cypress Semiconductor Corporation. All rights reserved.
  15:Generated_Source\PSoC5/CyFlash.c **** * You may use this file only in accordance with the license, terms, conditions,
  16:Generated_Source\PSoC5/CyFlash.c **** * disclaimers, and limitations in the end user license agreement accompanying
  17:Generated_Source\PSoC5/CyFlash.c **** * the software package with which this file was provided.
  18:Generated_Source\PSoC5/CyFlash.c **** *******************************************************************************/
  19:Generated_Source\PSoC5/CyFlash.c **** 
  20:Generated_Source\PSoC5/CyFlash.c **** #include "CyFlash.h"
  21:Generated_Source\PSoC5/CyFlash.c **** 
  22:Generated_Source\PSoC5/CyFlash.c **** /*  The number of EEPROM arrays */
  23:Generated_Source\PSoC5/CyFlash.c **** #define CY_FLASH_EEPROM_NUMBER_ARRAYS                 (1u)
  24:Generated_Source\PSoC5/CyFlash.c **** 
  25:Generated_Source\PSoC5/CyFlash.c **** 
  26:Generated_Source\PSoC5/CyFlash.c **** /*******************************************************************************
  27:Generated_Source\PSoC5/CyFlash.c **** * Holds the die temperature, updated by CySetTemp(). Used for flash writing.
  28:Generated_Source\PSoC5/CyFlash.c **** * The first byte is the sign of the temperature (0 = negative, 1 = positive).
  29:Generated_Source\PSoC5/CyFlash.c **** * The second byte is the magnitude.
  30:Generated_Source\PSoC5/CyFlash.c **** *******************************************************************************/
  31:Generated_Source\PSoC5/CyFlash.c **** uint8 dieTemperature[CY_FLASH_DIE_TEMP_DATA_SIZE];
ARM GAS  C:\Users\ingan\AppData\Local\Temp\ccOlcIOe.s 			page 2


  32:Generated_Source\PSoC5/CyFlash.c **** 
  33:Generated_Source\PSoC5/CyFlash.c **** #if(CYDEV_ECC_ENABLE == 0)
  34:Generated_Source\PSoC5/CyFlash.c ****     static uint8 * rowBuffer = 0;
  35:Generated_Source\PSoC5/CyFlash.c **** #endif  /* (CYDEV_ECC_ENABLE == 0) */
  36:Generated_Source\PSoC5/CyFlash.c **** 
  37:Generated_Source\PSoC5/CyFlash.c **** 
  38:Generated_Source\PSoC5/CyFlash.c **** static cystatus CySetTempInt(void);
  39:Generated_Source\PSoC5/CyFlash.c **** static cystatus CyFlashGetSpcAlgorithm(void);
  40:Generated_Source\PSoC5/CyFlash.c **** 
  41:Generated_Source\PSoC5/CyFlash.c **** 
  42:Generated_Source\PSoC5/CyFlash.c **** /*******************************************************************************
  43:Generated_Source\PSoC5/CyFlash.c **** * Function Name: CyFlash_Start
  44:Generated_Source\PSoC5/CyFlash.c **** ****************************************************************************//**
  45:Generated_Source\PSoC5/CyFlash.c **** *
  46:Generated_Source\PSoC5/CyFlash.c **** *  Enable the Flash.
  47:Generated_Source\PSoC5/CyFlash.c **** *
  48:Generated_Source\PSoC5/CyFlash.c **** *******************************************************************************/
  49:Generated_Source\PSoC5/CyFlash.c **** void CyFlash_Start(void) 
  50:Generated_Source\PSoC5/CyFlash.c **** {
  51:Generated_Source\PSoC5/CyFlash.c ****     uint8 interruptState;
  52:Generated_Source\PSoC5/CyFlash.c **** 
  53:Generated_Source\PSoC5/CyFlash.c ****     interruptState = CyEnterCriticalSection();
  54:Generated_Source\PSoC5/CyFlash.c **** 
  55:Generated_Source\PSoC5/CyFlash.c **** 
  56:Generated_Source\PSoC5/CyFlash.c ****     /***************************************************************************
  57:Generated_Source\PSoC5/CyFlash.c ****     * Enable SPC clock. This also internally enables the 36MHz IMO, since this
  58:Generated_Source\PSoC5/CyFlash.c ****     * is required for the SPC to function.
  59:Generated_Source\PSoC5/CyFlash.c ****     ***************************************************************************/
  60:Generated_Source\PSoC5/CyFlash.c ****     CY_FLASH_PM_ACT_CFG0_REG    |= CY_FLASH_PM_ACT_CFG0_EN_CLK_SPC;
  61:Generated_Source\PSoC5/CyFlash.c ****     CY_FLASH_PM_ALTACT_CFG0_REG |= CY_FLASH_PM_ALTACT_CFG0_EN_CLK_SPC;
  62:Generated_Source\PSoC5/CyFlash.c **** 
  63:Generated_Source\PSoC5/CyFlash.c **** 
  64:Generated_Source\PSoC5/CyFlash.c ****     /***************************************************************************
  65:Generated_Source\PSoC5/CyFlash.c ****     * The wake count defines the number of Bus Clock cycles it takes for the
  66:Generated_Source\PSoC5/CyFlash.c ****     * flash or eeprom to wake up from a low power mode independent of the chip
  67:Generated_Source\PSoC5/CyFlash.c ****     * power mode. Wake up time for these blocks is 5 us.
  68:Generated_Source\PSoC5/CyFlash.c ****     * The granularity of this register is 2 Bus Clock cycles, so a value of 0x1E
  69:Generated_Source\PSoC5/CyFlash.c ****     * (30d) defines the wake up time as 60 cycles of the Bus Clock.
  70:Generated_Source\PSoC5/CyFlash.c ****     * This register needs to be written with a value dependent on the Bus Clock
  71:Generated_Source\PSoC5/CyFlash.c ****     * frequency so that the duration of the cycles is equal to or greater than
  72:Generated_Source\PSoC5/CyFlash.c ****     * the 5 us delay required.
  73:Generated_Source\PSoC5/CyFlash.c ****     ***************************************************************************/
  74:Generated_Source\PSoC5/CyFlash.c ****     CY_FLASH_SPC_FM_EE_WAKE_CNT_REG = CY_FLASH_SPC_FM_EE_WAKE_CNT_80MHZ;
  75:Generated_Source\PSoC5/CyFlash.c **** 
  76:Generated_Source\PSoC5/CyFlash.c **** 
  77:Generated_Source\PSoC5/CyFlash.c ****     /***************************************************************************
  78:Generated_Source\PSoC5/CyFlash.c ****     * Enable flash. Active flash macros consume current, but re-enabling a
  79:Generated_Source\PSoC5/CyFlash.c ****     * disabled flash macro takes 5us. If the CPU attempts to fetch out of the
  80:Generated_Source\PSoC5/CyFlash.c ****     * macro during that time, it will be stalled. This bit allows the flash to
  81:Generated_Source\PSoC5/CyFlash.c ****     * be enabled even if the CPU is disabled, which allows a quicker return to
  82:Generated_Source\PSoC5/CyFlash.c ****     * code execution.
  83:Generated_Source\PSoC5/CyFlash.c ****     ***************************************************************************/
  84:Generated_Source\PSoC5/CyFlash.c ****     CY_FLASH_PM_ACT_CFG12_REG    |= CY_FLASH_PM_ACT_CFG12_EN_FM;
  85:Generated_Source\PSoC5/CyFlash.c ****     CY_FLASH_PM_ALTACT_CFG12_REG |= CY_FLASH_PM_ALTACT_CFG12_EN_FM;
  86:Generated_Source\PSoC5/CyFlash.c **** 
  87:Generated_Source\PSoC5/CyFlash.c ****     while(0u == (CY_FLASH_SPC_FM_EE_CR_REG & CY_FLASH_EE_EE_AWAKE))
  88:Generated_Source\PSoC5/CyFlash.c ****     {
ARM GAS  C:\Users\ingan\AppData\Local\Temp\ccOlcIOe.s 			page 3


  89:Generated_Source\PSoC5/CyFlash.c ****         /* Non-zero status denotes that the EEPROM/Flash is awake & powered. */
  90:Generated_Source\PSoC5/CyFlash.c ****     }
  91:Generated_Source\PSoC5/CyFlash.c **** 
  92:Generated_Source\PSoC5/CyFlash.c ****     CyExitCriticalSection(interruptState);
  93:Generated_Source\PSoC5/CyFlash.c **** }
  94:Generated_Source\PSoC5/CyFlash.c **** 
  95:Generated_Source\PSoC5/CyFlash.c **** 
  96:Generated_Source\PSoC5/CyFlash.c **** /*******************************************************************************
  97:Generated_Source\PSoC5/CyFlash.c **** * Function Name: CyFlash_Stop
  98:Generated_Source\PSoC5/CyFlash.c **** ****************************************************************************//**
  99:Generated_Source\PSoC5/CyFlash.c **** *
 100:Generated_Source\PSoC5/CyFlash.c **** *  Disable the Flash.
 101:Generated_Source\PSoC5/CyFlash.c **** *
 102:Generated_Source\PSoC5/CyFlash.c **** * \sideeffect
 103:Generated_Source\PSoC5/CyFlash.c **** *  This setting is ignored as long as the CPU is currently running.  This will
 104:Generated_Source\PSoC5/CyFlash.c **** *  only take effect when the CPU is later disabled.
 105:Generated_Source\PSoC5/CyFlash.c **** *
 106:Generated_Source\PSoC5/CyFlash.c **** *******************************************************************************/
 107:Generated_Source\PSoC5/CyFlash.c **** void CyFlash_Stop(void) 
 108:Generated_Source\PSoC5/CyFlash.c **** {
 109:Generated_Source\PSoC5/CyFlash.c ****     uint8 interruptState;
 110:Generated_Source\PSoC5/CyFlash.c **** 
 111:Generated_Source\PSoC5/CyFlash.c ****     interruptState = CyEnterCriticalSection();
 112:Generated_Source\PSoC5/CyFlash.c **** 
 113:Generated_Source\PSoC5/CyFlash.c ****     CY_FLASH_PM_ACT_CFG12_REG    &= ((uint8)(~CY_FLASH_PM_ACT_CFG12_EN_FM));
 114:Generated_Source\PSoC5/CyFlash.c ****     CY_FLASH_PM_ALTACT_CFG12_REG &= ((uint8)(~CY_FLASH_PM_ALTACT_CFG12_EN_FM));
 115:Generated_Source\PSoC5/CyFlash.c **** 
 116:Generated_Source\PSoC5/CyFlash.c ****     CyExitCriticalSection(interruptState);
 117:Generated_Source\PSoC5/CyFlash.c **** }
 118:Generated_Source\PSoC5/CyFlash.c **** 
 119:Generated_Source\PSoC5/CyFlash.c **** 
 120:Generated_Source\PSoC5/CyFlash.c **** /*******************************************************************************
 121:Generated_Source\PSoC5/CyFlash.c **** * Function Name: CySetTempInt
 122:Generated_Source\PSoC5/CyFlash.c **** ****************************************************************************//**
 123:Generated_Source\PSoC5/CyFlash.c **** *
 124:Generated_Source\PSoC5/CyFlash.c **** *  Sends a command to the SPC to read the die temperature. Sets a global value
 125:Generated_Source\PSoC5/CyFlash.c **** *  used by the Write function. This function must be called once before
 126:Generated_Source\PSoC5/CyFlash.c **** *  executing a series of Flash writing functions.
 127:Generated_Source\PSoC5/CyFlash.c **** *
 128:Generated_Source\PSoC5/CyFlash.c **** * \return
 129:Generated_Source\PSoC5/CyFlash.c **** *  status:
 130:Generated_Source\PSoC5/CyFlash.c **** *   CYRET_SUCCESS - if successful
 131:Generated_Source\PSoC5/CyFlash.c **** *   CYRET_LOCKED  - if Flash writing already in use
 132:Generated_Source\PSoC5/CyFlash.c **** *   CYRET_UNKNOWN - if there was an SPC error
 133:Generated_Source\PSoC5/CyFlash.c **** *
 134:Generated_Source\PSoC5/CyFlash.c **** *******************************************************************************/
 135:Generated_Source\PSoC5/CyFlash.c **** static cystatus CySetTempInt(void) 
 136:Generated_Source\PSoC5/CyFlash.c **** {
 137:Generated_Source\PSoC5/CyFlash.c ****     cystatus status;
 138:Generated_Source\PSoC5/CyFlash.c **** 
 139:Generated_Source\PSoC5/CyFlash.c ****     /* Make sure SPC is powered */
 140:Generated_Source\PSoC5/CyFlash.c ****     CySpcStart();
 141:Generated_Source\PSoC5/CyFlash.c **** 
 142:Generated_Source\PSoC5/CyFlash.c ****     /* Plan for failure. */
 143:Generated_Source\PSoC5/CyFlash.c ****     status = CYRET_UNKNOWN;
 144:Generated_Source\PSoC5/CyFlash.c **** 
 145:Generated_Source\PSoC5/CyFlash.c ****     if(CySpcLock() == CYRET_SUCCESS)
ARM GAS  C:\Users\ingan\AppData\Local\Temp\ccOlcIOe.s 			page 4


 146:Generated_Source\PSoC5/CyFlash.c ****     {
 147:Generated_Source\PSoC5/CyFlash.c ****         /* Write the command. */
 148:Generated_Source\PSoC5/CyFlash.c ****         if(CYRET_STARTED == CySpcGetTemp(CY_TEMP_NUMBER_OF_SAMPLES))
 149:Generated_Source\PSoC5/CyFlash.c ****         {
 150:Generated_Source\PSoC5/CyFlash.c ****             do
 151:Generated_Source\PSoC5/CyFlash.c ****             {
 152:Generated_Source\PSoC5/CyFlash.c ****                 if(CySpcReadData(dieTemperature, CY_FLASH_DIE_TEMP_DATA_SIZE) == CY_FLASH_DIE_TEMP_
 153:Generated_Source\PSoC5/CyFlash.c ****                 {
 154:Generated_Source\PSoC5/CyFlash.c ****                     status = CYRET_SUCCESS;
 155:Generated_Source\PSoC5/CyFlash.c **** 
 156:Generated_Source\PSoC5/CyFlash.c ****                     while(CY_SPC_BUSY)
 157:Generated_Source\PSoC5/CyFlash.c ****                     {
 158:Generated_Source\PSoC5/CyFlash.c ****                         /* Spin until idle. */
 159:Generated_Source\PSoC5/CyFlash.c ****                         CyDelayUs(1u);
 160:Generated_Source\PSoC5/CyFlash.c ****                     }
 161:Generated_Source\PSoC5/CyFlash.c ****                     break;
 162:Generated_Source\PSoC5/CyFlash.c ****                 }
 163:Generated_Source\PSoC5/CyFlash.c **** 
 164:Generated_Source\PSoC5/CyFlash.c ****             } while(CY_SPC_BUSY);
 165:Generated_Source\PSoC5/CyFlash.c ****         }
 166:Generated_Source\PSoC5/CyFlash.c **** 
 167:Generated_Source\PSoC5/CyFlash.c ****         CySpcUnlock();
 168:Generated_Source\PSoC5/CyFlash.c ****     }
 169:Generated_Source\PSoC5/CyFlash.c ****     else
 170:Generated_Source\PSoC5/CyFlash.c ****     {
 171:Generated_Source\PSoC5/CyFlash.c ****         status = CYRET_LOCKED;
 172:Generated_Source\PSoC5/CyFlash.c ****     }
 173:Generated_Source\PSoC5/CyFlash.c **** 
 174:Generated_Source\PSoC5/CyFlash.c ****     return (status);
 175:Generated_Source\PSoC5/CyFlash.c **** }
 176:Generated_Source\PSoC5/CyFlash.c **** 
 177:Generated_Source\PSoC5/CyFlash.c **** 
 178:Generated_Source\PSoC5/CyFlash.c **** /*******************************************************************************
 179:Generated_Source\PSoC5/CyFlash.c **** * Function Name: CyFlashGetSpcAlgorithm
 180:Generated_Source\PSoC5/CyFlash.c **** ****************************************************************************//**
 181:Generated_Source\PSoC5/CyFlash.c **** *
 182:Generated_Source\PSoC5/CyFlash.c **** *  Sends a command to the SPC to download code into RAM.
 183:Generated_Source\PSoC5/CyFlash.c **** *
 184:Generated_Source\PSoC5/CyFlash.c **** * \return
 185:Generated_Source\PSoC5/CyFlash.c **** *  status:
 186:Generated_Source\PSoC5/CyFlash.c **** *   CYRET_SUCCESS - if successful
 187:Generated_Source\PSoC5/CyFlash.c **** *   CYRET_LOCKED  - if Flash writing already in use
 188:Generated_Source\PSoC5/CyFlash.c **** *   CYRET_UNKNOWN - if there was an SPC error
 189:Generated_Source\PSoC5/CyFlash.c **** *
 190:Generated_Source\PSoC5/CyFlash.c **** *******************************************************************************/
 191:Generated_Source\PSoC5/CyFlash.c **** static cystatus CyFlashGetSpcAlgorithm(void) 
 192:Generated_Source\PSoC5/CyFlash.c **** {
 193:Generated_Source\PSoC5/CyFlash.c ****     cystatus status;
 194:Generated_Source\PSoC5/CyFlash.c **** 
 195:Generated_Source\PSoC5/CyFlash.c ****     /* Make sure SPC is powered */
 196:Generated_Source\PSoC5/CyFlash.c ****     CySpcStart();
 197:Generated_Source\PSoC5/CyFlash.c **** 
 198:Generated_Source\PSoC5/CyFlash.c ****     if(CySpcLock() == CYRET_SUCCESS)
 199:Generated_Source\PSoC5/CyFlash.c ****     {
 200:Generated_Source\PSoC5/CyFlash.c ****         status = CySpcGetAlgorithm();
 201:Generated_Source\PSoC5/CyFlash.c **** 
 202:Generated_Source\PSoC5/CyFlash.c ****         if(CYRET_STARTED == status)
ARM GAS  C:\Users\ingan\AppData\Local\Temp\ccOlcIOe.s 			page 5


 203:Generated_Source\PSoC5/CyFlash.c ****         {
 204:Generated_Source\PSoC5/CyFlash.c ****             while(CY_SPC_BUSY)
 205:Generated_Source\PSoC5/CyFlash.c ****             {
 206:Generated_Source\PSoC5/CyFlash.c ****                 /* Spin until idle. */
 207:Generated_Source\PSoC5/CyFlash.c ****                 CyDelayUs(1u);
 208:Generated_Source\PSoC5/CyFlash.c ****             }
 209:Generated_Source\PSoC5/CyFlash.c **** 
 210:Generated_Source\PSoC5/CyFlash.c ****             if(CY_SPC_STATUS_SUCCESS == CY_SPC_READ_STATUS)
 211:Generated_Source\PSoC5/CyFlash.c ****             {
 212:Generated_Source\PSoC5/CyFlash.c ****                 status = CYRET_SUCCESS;
 213:Generated_Source\PSoC5/CyFlash.c ****             }
 214:Generated_Source\PSoC5/CyFlash.c ****         }
 215:Generated_Source\PSoC5/CyFlash.c ****         CySpcUnlock();
 216:Generated_Source\PSoC5/CyFlash.c ****     }
 217:Generated_Source\PSoC5/CyFlash.c ****     else
 218:Generated_Source\PSoC5/CyFlash.c ****     {
 219:Generated_Source\PSoC5/CyFlash.c ****         status = CYRET_LOCKED;
 220:Generated_Source\PSoC5/CyFlash.c ****     }
 221:Generated_Source\PSoC5/CyFlash.c **** 
 222:Generated_Source\PSoC5/CyFlash.c ****     return (status);
 223:Generated_Source\PSoC5/CyFlash.c **** }
 224:Generated_Source\PSoC5/CyFlash.c **** 
 225:Generated_Source\PSoC5/CyFlash.c **** 
 226:Generated_Source\PSoC5/CyFlash.c **** /*******************************************************************************
 227:Generated_Source\PSoC5/CyFlash.c **** * Function Name: CySetTemp
 228:Generated_Source\PSoC5/CyFlash.c **** ****************************************************************************//**
 229:Generated_Source\PSoC5/CyFlash.c **** *
 230:Generated_Source\PSoC5/CyFlash.c **** *  This is a wraparound for CySetTempInt(). It is used to return the second
 231:Generated_Source\PSoC5/CyFlash.c **** *  successful read of the temperature value.
 232:Generated_Source\PSoC5/CyFlash.c **** *
 233:Generated_Source\PSoC5/CyFlash.c **** * \return
 234:Generated_Source\PSoC5/CyFlash.c **** *  status:
 235:Generated_Source\PSoC5/CyFlash.c **** *   CYRET_SUCCESS if successful.
 236:Generated_Source\PSoC5/CyFlash.c **** *   CYRET_LOCKED  if Flash writing already in use
 237:Generated_Source\PSoC5/CyFlash.c **** *   CYRET_UNKNOWN if there was an SPC error.
 238:Generated_Source\PSoC5/CyFlash.c **** *
 239:Generated_Source\PSoC5/CyFlash.c **** *  uint8 dieTemperature[2]:
 240:Generated_Source\PSoC5/CyFlash.c **** *   Holds the die temperature for the flash writing algorithm. The first byte is
 241:Generated_Source\PSoC5/CyFlash.c **** *   the sign of the temperature (0 = negative, 1 = positive). The second byte is
 242:Generated_Source\PSoC5/CyFlash.c **** *   the magnitude.
 243:Generated_Source\PSoC5/CyFlash.c **** *
 244:Generated_Source\PSoC5/CyFlash.c **** *******************************************************************************/
 245:Generated_Source\PSoC5/CyFlash.c **** cystatus CySetTemp(void) 
 246:Generated_Source\PSoC5/CyFlash.c **** {
 247:Generated_Source\PSoC5/CyFlash.c ****     cystatus status = CyFlashGetSpcAlgorithm();
 248:Generated_Source\PSoC5/CyFlash.c **** 
 249:Generated_Source\PSoC5/CyFlash.c ****     if(status == CYRET_SUCCESS)
 250:Generated_Source\PSoC5/CyFlash.c ****     {
 251:Generated_Source\PSoC5/CyFlash.c ****         status = CySetTempInt();
 252:Generated_Source\PSoC5/CyFlash.c ****     }
 253:Generated_Source\PSoC5/CyFlash.c **** 
 254:Generated_Source\PSoC5/CyFlash.c ****     return (status);
 255:Generated_Source\PSoC5/CyFlash.c **** }
 256:Generated_Source\PSoC5/CyFlash.c **** 
 257:Generated_Source\PSoC5/CyFlash.c **** 
 258:Generated_Source\PSoC5/CyFlash.c **** /*******************************************************************************
 259:Generated_Source\PSoC5/CyFlash.c **** * Function Name: CySetFlashEEBuffer
ARM GAS  C:\Users\ingan\AppData\Local\Temp\ccOlcIOe.s 			page 6


 260:Generated_Source\PSoC5/CyFlash.c **** ****************************************************************************//**
 261:Generated_Source\PSoC5/CyFlash.c **** *
 262:Generated_Source\PSoC5/CyFlash.c **** *  Sets the user supplied temporary buffer to store SPC data while performing
 263:Generated_Source\PSoC5/CyFlash.c **** *  Flash and EEPROM commands. This buffer is only necessary when the Flash ECC
 264:Generated_Source\PSoC5/CyFlash.c **** *  is disabled.
 265:Generated_Source\PSoC5/CyFlash.c **** *
 266:Generated_Source\PSoC5/CyFlash.c **** *  \param buffer:
 267:Generated_Source\PSoC5/CyFlash.c **** *   The address of a block of memory to store temporary memory. The size of the
 268:Generated_Source\PSoC5/CyFlash.c **** *   block of memory is CYDEV_FLS_ROW_SIZE + CYDEV_ECC_ROW_SIZE.
 269:Generated_Source\PSoC5/CyFlash.c **** *
 270:Generated_Source\PSoC5/CyFlash.c **** * \return
 271:Generated_Source\PSoC5/CyFlash.c **** *  status:
 272:Generated_Source\PSoC5/CyFlash.c **** *   CYRET_SUCCESS if successful.
 273:Generated_Source\PSoC5/CyFlash.c **** *   CYRET_BAD_PARAM if the buffer is NULL
 274:Generated_Source\PSoC5/CyFlash.c **** *
 275:Generated_Source\PSoC5/CyFlash.c **** *******************************************************************************/
 276:Generated_Source\PSoC5/CyFlash.c **** cystatus CySetFlashEEBuffer(uint8 * buffer) 
 277:Generated_Source\PSoC5/CyFlash.c **** {
 278:Generated_Source\PSoC5/CyFlash.c ****     cystatus status = CYRET_SUCCESS;
 279:Generated_Source\PSoC5/CyFlash.c **** 
 280:Generated_Source\PSoC5/CyFlash.c ****     CySpcStart();
 281:Generated_Source\PSoC5/CyFlash.c **** 
 282:Generated_Source\PSoC5/CyFlash.c ****     #if(CYDEV_ECC_ENABLE == 0)
 283:Generated_Source\PSoC5/CyFlash.c **** 
 284:Generated_Source\PSoC5/CyFlash.c ****         if(NULL == buffer)
 285:Generated_Source\PSoC5/CyFlash.c ****         {
 286:Generated_Source\PSoC5/CyFlash.c ****             rowBuffer = rowBuffer;
 287:Generated_Source\PSoC5/CyFlash.c ****             status = CYRET_BAD_PARAM;
 288:Generated_Source\PSoC5/CyFlash.c ****         }
 289:Generated_Source\PSoC5/CyFlash.c ****         else if(CySpcLock() != CYRET_SUCCESS)
 290:Generated_Source\PSoC5/CyFlash.c ****         {
 291:Generated_Source\PSoC5/CyFlash.c ****             rowBuffer = rowBuffer;
 292:Generated_Source\PSoC5/CyFlash.c ****             status = CYRET_LOCKED;
 293:Generated_Source\PSoC5/CyFlash.c ****         }
 294:Generated_Source\PSoC5/CyFlash.c ****         else
 295:Generated_Source\PSoC5/CyFlash.c ****         {
 296:Generated_Source\PSoC5/CyFlash.c ****             rowBuffer = buffer;
 297:Generated_Source\PSoC5/CyFlash.c ****             CySpcUnlock();
 298:Generated_Source\PSoC5/CyFlash.c ****         }
 299:Generated_Source\PSoC5/CyFlash.c **** 
 300:Generated_Source\PSoC5/CyFlash.c ****     #else
 301:Generated_Source\PSoC5/CyFlash.c **** 
 302:Generated_Source\PSoC5/CyFlash.c ****         /* To suppress warning */
 303:Generated_Source\PSoC5/CyFlash.c ****         buffer = buffer;
 304:Generated_Source\PSoC5/CyFlash.c **** 
 305:Generated_Source\PSoC5/CyFlash.c ****     #endif  /* (CYDEV_ECC_ENABLE == 0u) */
 306:Generated_Source\PSoC5/CyFlash.c **** 
 307:Generated_Source\PSoC5/CyFlash.c ****     return(status);
 308:Generated_Source\PSoC5/CyFlash.c **** }
 309:Generated_Source\PSoC5/CyFlash.c **** 
 310:Generated_Source\PSoC5/CyFlash.c **** 
 311:Generated_Source\PSoC5/CyFlash.c **** /*******************************************************************************
 312:Generated_Source\PSoC5/CyFlash.c **** * Function Name: CyWriteRowData
 313:Generated_Source\PSoC5/CyFlash.c **** ****************************************************************************//**
 314:Generated_Source\PSoC5/CyFlash.c **** *
 315:Generated_Source\PSoC5/CyFlash.c **** *  Sends a command to the SPC to load and program a row of data in
 316:Generated_Source\PSoC5/CyFlash.c **** *  Flash or EEPROM.
ARM GAS  C:\Users\ingan\AppData\Local\Temp\ccOlcIOe.s 			page 7


 317:Generated_Source\PSoC5/CyFlash.c **** *
 318:Generated_Source\PSoC5/CyFlash.c **** *  \param arrayID:    ID of the array to write.
 319:Generated_Source\PSoC5/CyFlash.c **** *   The type of write, Flash or EEPROM, is determined from the array ID.
 320:Generated_Source\PSoC5/CyFlash.c **** *   The arrays in the part are sequential starting at the first ID for the
 321:Generated_Source\PSoC5/CyFlash.c **** *   specific memory type. The array ID for the Flash memory lasts from 0x00 to
 322:Generated_Source\PSoC5/CyFlash.c **** *   0x3F and for the EEPROM memory it lasts from 0x40 to 0x7F.
 323:Generated_Source\PSoC5/CyFlash.c **** *  \param rowAddress: rowAddress of flash row to program.
 324:Generated_Source\PSoC5/CyFlash.c **** *  \param rowData:    Array of bytes to write.
 325:Generated_Source\PSoC5/CyFlash.c **** *
 326:Generated_Source\PSoC5/CyFlash.c **** * \return
 327:Generated_Source\PSoC5/CyFlash.c **** *  status:
 328:Generated_Source\PSoC5/CyFlash.c **** *   CYRET_SUCCESS if successful.
 329:Generated_Source\PSoC5/CyFlash.c **** *   CYRET_LOCKED if the SPC is already in use.
 330:Generated_Source\PSoC5/CyFlash.c **** *   CYRET_CANCELED if command not accepted
 331:Generated_Source\PSoC5/CyFlash.c **** *   CYRET_UNKNOWN if there was an SPC error.
 332:Generated_Source\PSoC5/CyFlash.c **** *
 333:Generated_Source\PSoC5/CyFlash.c **** *******************************************************************************/
 334:Generated_Source\PSoC5/CyFlash.c **** cystatus CyWriteRowData(uint8 arrayId, uint16 rowAddress, const uint8 * rowData) 
 335:Generated_Source\PSoC5/CyFlash.c **** {
 336:Generated_Source\PSoC5/CyFlash.c ****     uint16 rowSize;
 337:Generated_Source\PSoC5/CyFlash.c ****     cystatus status;
 338:Generated_Source\PSoC5/CyFlash.c **** 
 339:Generated_Source\PSoC5/CyFlash.c ****     rowSize = (arrayId > CY_SPC_LAST_FLASH_ARRAYID) ? CYDEV_EEPROM_ROW_SIZE : CYDEV_FLS_ROW_SIZE;
 340:Generated_Source\PSoC5/CyFlash.c ****     status = CyWriteRowFull(arrayId, rowAddress, rowData, rowSize);
 341:Generated_Source\PSoC5/CyFlash.c **** 
 342:Generated_Source\PSoC5/CyFlash.c ****     return(status);
 343:Generated_Source\PSoC5/CyFlash.c **** }
 344:Generated_Source\PSoC5/CyFlash.c **** 
 345:Generated_Source\PSoC5/CyFlash.c **** 
 346:Generated_Source\PSoC5/CyFlash.c **** /*******************************************************************
 347:Generated_Source\PSoC5/CyFlash.c **** * If "Enable Error Correcting Code (ECC)" and "Store Configuration
 348:Generated_Source\PSoC5/CyFlash.c **** * Data in ECC" DWR options are disabled, ECC section is available
 349:Generated_Source\PSoC5/CyFlash.c **** * for user data.
 350:Generated_Source\PSoC5/CyFlash.c **** *******************************************************************/
 351:Generated_Source\PSoC5/CyFlash.c **** #if ((CYDEV_ECC_ENABLE == 0u) && (CYDEV_CONFIGURATION_ECC == 0u))
 352:Generated_Source\PSoC5/CyFlash.c **** 
 353:Generated_Source\PSoC5/CyFlash.c ****     /*******************************************************************************
 354:Generated_Source\PSoC5/CyFlash.c ****     * Function Name: CyWriteRowConfig
 355:Generated_Source\PSoC5/CyFlash.c ****     ****************************************************************************//**
 356:Generated_Source\PSoC5/CyFlash.c ****     *
 357:Generated_Source\PSoC5/CyFlash.c ****     *  Sends a command to the SPC to load and program a row of config data in the
 358:Generated_Source\PSoC5/CyFlash.c ****     *  Flash. This function is only valid for Flash array IDs (not for EEPROM).
 359:Generated_Source\PSoC5/CyFlash.c ****     *
 360:Generated_Source\PSoC5/CyFlash.c ****     *  \param arrayId:      ID of the array to write
 361:Generated_Source\PSoC5/CyFlash.c ****     *   The arrays in the part are sequential starting at the first ID for the
 362:Generated_Source\PSoC5/CyFlash.c ****     *   specific memory type. The array ID for the Flash memory lasts
 363:Generated_Source\PSoC5/CyFlash.c ****     *   from 0x00 to 0x3F.
 364:Generated_Source\PSoC5/CyFlash.c ****     *  \param rowAddress:   The address of the sector to erase.
 365:Generated_Source\PSoC5/CyFlash.c ****     *  \param rowECC:       The array of bytes to write.
 366:Generated_Source\PSoC5/CyFlash.c ****     *
 367:Generated_Source\PSoC5/CyFlash.c ****     * \return
 368:Generated_Source\PSoC5/CyFlash.c ****     *  status:
 369:Generated_Source\PSoC5/CyFlash.c ****     *   CYRET_SUCCESS if successful.
 370:Generated_Source\PSoC5/CyFlash.c ****     *   CYRET_LOCKED if the SPC is already in use.
 371:Generated_Source\PSoC5/CyFlash.c ****     *   CYRET_CANCELED if command not accepted
 372:Generated_Source\PSoC5/CyFlash.c ****     *   CYRET_UNKNOWN if there was an SPC error.
 373:Generated_Source\PSoC5/CyFlash.c ****     *
ARM GAS  C:\Users\ingan\AppData\Local\Temp\ccOlcIOe.s 			page 8


 374:Generated_Source\PSoC5/CyFlash.c ****     *******************************************************************************/
 375:Generated_Source\PSoC5/CyFlash.c ****     cystatus CyWriteRowConfig(uint8 arrayId, uint16 rowAddress, const uint8 * rowECC)\
 376:Generated_Source\PSoC5/CyFlash.c ****     
 377:Generated_Source\PSoC5/CyFlash.c ****     {
 378:Generated_Source\PSoC5/CyFlash.c ****         cystatus status;
 379:Generated_Source\PSoC5/CyFlash.c **** 
 380:Generated_Source\PSoC5/CyFlash.c ****         status = CyWriteRowFull(arrayId, rowAddress, rowECC, CYDEV_ECC_ROW_SIZE);
 381:Generated_Source\PSoC5/CyFlash.c **** 
 382:Generated_Source\PSoC5/CyFlash.c ****         return (status);
 383:Generated_Source\PSoC5/CyFlash.c ****     }
 384:Generated_Source\PSoC5/CyFlash.c **** 
 385:Generated_Source\PSoC5/CyFlash.c **** #endif  /* ((CYDEV_ECC_ENABLE == 0u) && (CYDEV_CONFIGURATION_ECC == 0u)) */
 386:Generated_Source\PSoC5/CyFlash.c **** 
 387:Generated_Source\PSoC5/CyFlash.c **** 
 388:Generated_Source\PSoC5/CyFlash.c **** 
 389:Generated_Source\PSoC5/CyFlash.c **** /*******************************************************************************
 390:Generated_Source\PSoC5/CyFlash.c **** * Function Name: CyWriteRowFull
 391:Generated_Source\PSoC5/CyFlash.c **** ****************************************************************************//**
 392:Generated_Source\PSoC5/CyFlash.c **** *  Sends a command to the SPC to load and program a row of data in the Flash.
 393:Generated_Source\PSoC5/CyFlash.c **** *  rowData array is expected to contain Flash and ECC data if needed.
 394:Generated_Source\PSoC5/CyFlash.c **** *
 395:Generated_Source\PSoC5/CyFlash.c **** *  \param arrayId:    FLASH or EEPROM array id.
 396:Generated_Source\PSoC5/CyFlash.c **** *  \param rowData:    Pointer to a row of data to write.
 397:Generated_Source\PSoC5/CyFlash.c **** *  \param rowNumber:  Zero based number of the row.
 398:Generated_Source\PSoC5/CyFlash.c **** *  \param rowSize:    Size of the row.
 399:Generated_Source\PSoC5/CyFlash.c **** *
 400:Generated_Source\PSoC5/CyFlash.c **** * \return
 401:Generated_Source\PSoC5/CyFlash.c **** *  CYRET_SUCCESS if successful.
 402:Generated_Source\PSoC5/CyFlash.c **** *  CYRET_LOCKED if the SPC is already in use.
 403:Generated_Source\PSoC5/CyFlash.c **** *  CYRET_CANCELED if command not accepted
 404:Generated_Source\PSoC5/CyFlash.c **** *  CYRET_UNKNOWN if there was an SPC error.
 405:Generated_Source\PSoC5/CyFlash.c **** *
 406:Generated_Source\PSoC5/CyFlash.c **** *******************************************************************************/
 407:Generated_Source\PSoC5/CyFlash.c **** cystatus CyWriteRowFull(uint8 arrayId, uint16 rowNumber, const uint8* rowData, uint16 rowSize) \
  27              		.loc 1 407 0
  28              		.cfi_startproc
  29              		@ args = 0, pretend = 0, frame = 0
  30              		@ frame_needed = 0, uses_anonymous_args = 0
  31              	.LVL0:
  32 0000 F8B5     		push	{r3, r4, r5, r6, r7, lr}
  33              		.cfi_def_cfa_offset 24
  34              		.cfi_offset 3, -24
  35              		.cfi_offset 4, -20
  36              		.cfi_offset 5, -16
  37              		.cfi_offset 6, -12
  38              		.cfi_offset 7, -8
  39              		.cfi_offset 14, -4
  40              		.loc 1 407 0
  41 0002 0546     		mov	r5, r0
  42 0004 0E46     		mov	r6, r1
 408:Generated_Source\PSoC5/CyFlash.c ****         
 409:Generated_Source\PSoC5/CyFlash.c **** {
 410:Generated_Source\PSoC5/CyFlash.c ****     cystatus status = CYRET_SUCCESS;
 411:Generated_Source\PSoC5/CyFlash.c **** 
 412:Generated_Source\PSoC5/CyFlash.c ****     if((arrayId <=  CY_SPC_LAST_FLASH_ARRAYID) && (arrayId > (CY_FLASH_NUMBER_ARRAYS  + CY_SPC_FIRS
 413:Generated_Source\PSoC5/CyFlash.c ****     {
 414:Generated_Source\PSoC5/CyFlash.c ****         status = CYRET_BAD_PARAM;
ARM GAS  C:\Users\ingan\AppData\Local\Temp\ccOlcIOe.s 			page 9


 415:Generated_Source\PSoC5/CyFlash.c ****     }
 416:Generated_Source\PSoC5/CyFlash.c **** 
 417:Generated_Source\PSoC5/CyFlash.c ****     if(arrayId > CY_SPC_LAST_EE_ARRAYID)
 418:Generated_Source\PSoC5/CyFlash.c ****     {
 419:Generated_Source\PSoC5/CyFlash.c ****         status = CYRET_BAD_PARAM;
 420:Generated_Source\PSoC5/CyFlash.c ****     }
 421:Generated_Source\PSoC5/CyFlash.c **** 
 422:Generated_Source\PSoC5/CyFlash.c ****     if((arrayId >= CY_SPC_FIRST_EE_ARRAYID) && (arrayId > (CY_FLASH_EEPROM_NUMBER_ARRAYS + CY_SPC_F
 423:Generated_Source\PSoC5/CyFlash.c ****     {
 424:Generated_Source\PSoC5/CyFlash.c ****         status = CYRET_BAD_PARAM;
 425:Generated_Source\PSoC5/CyFlash.c ****     }
 426:Generated_Source\PSoC5/CyFlash.c **** 
 427:Generated_Source\PSoC5/CyFlash.c ****     if(arrayId <=  CY_SPC_LAST_FLASH_ARRAYID)
 428:Generated_Source\PSoC5/CyFlash.c ****     {
 429:Generated_Source\PSoC5/CyFlash.c ****         /* Flash */
 430:Generated_Source\PSoC5/CyFlash.c ****         if(rowNumber > (CY_FLASH_NUMBER_ROWS/CY_FLASH_NUMBER_ARRAYS))
 431:Generated_Source\PSoC5/CyFlash.c ****         {
 432:Generated_Source\PSoC5/CyFlash.c ****             status = CYRET_BAD_PARAM;
 433:Generated_Source\PSoC5/CyFlash.c ****         }
 434:Generated_Source\PSoC5/CyFlash.c ****     }
 435:Generated_Source\PSoC5/CyFlash.c ****     else
 436:Generated_Source\PSoC5/CyFlash.c ****     {
 437:Generated_Source\PSoC5/CyFlash.c ****         /* EEPROM */
 438:Generated_Source\PSoC5/CyFlash.c ****         if(rowNumber > (CY_EEPROM_NUMBER_ROWS/CY_FLASH_EEPROM_NUMBER_ARRAYS))
 439:Generated_Source\PSoC5/CyFlash.c ****         {
 440:Generated_Source\PSoC5/CyFlash.c ****             status = CYRET_BAD_PARAM;
 441:Generated_Source\PSoC5/CyFlash.c ****         }
 442:Generated_Source\PSoC5/CyFlash.c **** 
 443:Generated_Source\PSoC5/CyFlash.c ****         if(CY_EEPROM_SIZEOF_ROW != rowSize)
 444:Generated_Source\PSoC5/CyFlash.c ****         {
 445:Generated_Source\PSoC5/CyFlash.c ****             status = CYRET_BAD_PARAM;
 446:Generated_Source\PSoC5/CyFlash.c ****         }
 447:Generated_Source\PSoC5/CyFlash.c ****     }
 448:Generated_Source\PSoC5/CyFlash.c **** 
 449:Generated_Source\PSoC5/CyFlash.c ****     if(rowData == NULL)
 450:Generated_Source\PSoC5/CyFlash.c ****     {
 451:Generated_Source\PSoC5/CyFlash.c ****         status = CYRET_BAD_PARAM;
 452:Generated_Source\PSoC5/CyFlash.c ****     }
 453:Generated_Source\PSoC5/CyFlash.c **** 
 454:Generated_Source\PSoC5/CyFlash.c **** 
 455:Generated_Source\PSoC5/CyFlash.c ****     if(status == CYRET_SUCCESS)
 456:Generated_Source\PSoC5/CyFlash.c ****     {
 457:Generated_Source\PSoC5/CyFlash.c ****         if(CySpcLock() == CYRET_SUCCESS)
 458:Generated_Source\PSoC5/CyFlash.c ****         {
 459:Generated_Source\PSoC5/CyFlash.c ****             /* Load row data into SPC internal latch */
 460:Generated_Source\PSoC5/CyFlash.c ****             status = CySpcLoadRowFull(arrayId, rowNumber, rowData, rowSize);
  43              		.loc 1 460 0
  44 0006 FFF7FEFF 		bl	CySpcLoadRowFull
  45              	.LVL1:
 461:Generated_Source\PSoC5/CyFlash.c **** 
 462:Generated_Source\PSoC5/CyFlash.c ****             if(CYRET_STARTED == status)
  46              		.loc 1 462 0
  47 000a 0728     		cmp	r0, #7
 460:Generated_Source\PSoC5/CyFlash.c **** 
  48              		.loc 1 460 0
  49 000c 0446     		mov	r4, r0
  50              	.LVL2:
ARM GAS  C:\Users\ingan\AppData\Local\Temp\ccOlcIOe.s 			page 10


  51              		.loc 1 462 0
  52 000e 03D0     		beq	.L24
  53              	.LVL3:
  54              	.L2:
 463:Generated_Source\PSoC5/CyFlash.c ****             {
 464:Generated_Source\PSoC5/CyFlash.c ****                 while(CY_SPC_BUSY)
 465:Generated_Source\PSoC5/CyFlash.c ****                 {
 466:Generated_Source\PSoC5/CyFlash.c ****                     /* Wait for SPC to finish and get SPC status */
 467:Generated_Source\PSoC5/CyFlash.c ****                     CyDelayUs(1u);
 468:Generated_Source\PSoC5/CyFlash.c ****                 }
 469:Generated_Source\PSoC5/CyFlash.c **** 
 470:Generated_Source\PSoC5/CyFlash.c ****                 /* Hide SPC status */
 471:Generated_Source\PSoC5/CyFlash.c ****                 if(CY_SPC_STATUS_SUCCESS == CY_SPC_READ_STATUS)
 472:Generated_Source\PSoC5/CyFlash.c ****                 {
 473:Generated_Source\PSoC5/CyFlash.c ****                     status = CYRET_SUCCESS;
 474:Generated_Source\PSoC5/CyFlash.c ****                 }
 475:Generated_Source\PSoC5/CyFlash.c ****                 else
 476:Generated_Source\PSoC5/CyFlash.c ****                 {
 477:Generated_Source\PSoC5/CyFlash.c ****                     status = CYRET_UNKNOWN;
 478:Generated_Source\PSoC5/CyFlash.c ****                 }
 479:Generated_Source\PSoC5/CyFlash.c **** 
 480:Generated_Source\PSoC5/CyFlash.c ****                 if(CYRET_SUCCESS == status)
 481:Generated_Source\PSoC5/CyFlash.c ****                 {
 482:Generated_Source\PSoC5/CyFlash.c ****                     /* Erase and program flash with data from SPC interval latch */
 483:Generated_Source\PSoC5/CyFlash.c ****                     status = CySpcWriteRow(arrayId, rowNumber, dieTemperature[0u], dieTemperature[1
 484:Generated_Source\PSoC5/CyFlash.c **** 
 485:Generated_Source\PSoC5/CyFlash.c ****                     if(CYRET_STARTED == status)
 486:Generated_Source\PSoC5/CyFlash.c ****                     {
 487:Generated_Source\PSoC5/CyFlash.c ****                         while(CY_SPC_BUSY)
 488:Generated_Source\PSoC5/CyFlash.c ****                         {
 489:Generated_Source\PSoC5/CyFlash.c ****                             /* Wait for SPC to finish and get SPC status */
 490:Generated_Source\PSoC5/CyFlash.c ****                             CyDelayUs(1u);
 491:Generated_Source\PSoC5/CyFlash.c ****                         }
 492:Generated_Source\PSoC5/CyFlash.c **** 
 493:Generated_Source\PSoC5/CyFlash.c ****                         /* Hide SPC status */
 494:Generated_Source\PSoC5/CyFlash.c ****                         if(CY_SPC_STATUS_SUCCESS == CY_SPC_READ_STATUS)
 495:Generated_Source\PSoC5/CyFlash.c ****                         {
 496:Generated_Source\PSoC5/CyFlash.c ****                             status = CYRET_SUCCESS;
 497:Generated_Source\PSoC5/CyFlash.c ****                         }
 498:Generated_Source\PSoC5/CyFlash.c ****                         else
 499:Generated_Source\PSoC5/CyFlash.c ****                         {
 500:Generated_Source\PSoC5/CyFlash.c ****                             status = CYRET_UNKNOWN;
 501:Generated_Source\PSoC5/CyFlash.c ****                         }
 502:Generated_Source\PSoC5/CyFlash.c ****                     }
 503:Generated_Source\PSoC5/CyFlash.c ****                 }
 504:Generated_Source\PSoC5/CyFlash.c ****             }
 505:Generated_Source\PSoC5/CyFlash.c ****             CySpcUnlock();
  55              		.loc 1 505 0
  56 0010 FFF7FEFF 		bl	CySpcUnlock
  57              	.LVL4:
 506:Generated_Source\PSoC5/CyFlash.c ****         }   /* if(CySpcLock() == CYRET_SUCCESS) */
 507:Generated_Source\PSoC5/CyFlash.c ****         else
 508:Generated_Source\PSoC5/CyFlash.c ****         {
 509:Generated_Source\PSoC5/CyFlash.c ****             status = CYRET_LOCKED;
 510:Generated_Source\PSoC5/CyFlash.c ****         }
 511:Generated_Source\PSoC5/CyFlash.c ****     }
 512:Generated_Source\PSoC5/CyFlash.c **** 
ARM GAS  C:\Users\ingan\AppData\Local\Temp\ccOlcIOe.s 			page 11


 513:Generated_Source\PSoC5/CyFlash.c ****     return(status);
 514:Generated_Source\PSoC5/CyFlash.c **** }
  58              		.loc 1 514 0
  59 0014 2046     		mov	r0, r4
  60 0016 F8BD     		pop	{r3, r4, r5, r6, r7, pc}
  61              	.LVL5:
  62              	.L24:
 464:Generated_Source\PSoC5/CyFlash.c ****                 {
  63              		.loc 1 464 0
  64 0018 184C     		ldr	r4, .L25
  65 001a 2378     		ldrb	r3, [r4]	@ zero_extendqisi2
  66 001c 9F07     		lsls	r7, r3, #30
  67 001e 05D4     		bmi	.L6
  68              	.LVL6:
  69              	.L3:
 467:Generated_Source\PSoC5/CyFlash.c ****                 }
  70              		.loc 1 467 0
  71 0020 0120     		movs	r0, #1
  72 0022 FFF7FEFF 		bl	CyDelayUs
  73              	.LVL7:
 464:Generated_Source\PSoC5/CyFlash.c ****                 {
  74              		.loc 1 464 0
  75 0026 2378     		ldrb	r3, [r4]	@ zero_extendqisi2
  76 0028 9807     		lsls	r0, r3, #30
  77 002a F9D5     		bpl	.L3
  78              	.L6:
 471:Generated_Source\PSoC5/CyFlash.c ****                 {
  79              		.loc 1 471 0
  80 002c 134F     		ldr	r7, .L25
  81 002e 3B78     		ldrb	r3, [r7]	@ zero_extendqisi2
  82 0030 9C07     		lsls	r4, r3, #30
  83 0032 0DD5     		bpl	.L5
  84 0034 3B78     		ldrb	r3, [r7]	@ zero_extendqisi2
  85 0036 9B08     		lsrs	r3, r3, #2
  86 0038 0AD1     		bne	.L5
  87              	.LVL8:
 483:Generated_Source\PSoC5/CyFlash.c **** 
  88              		.loc 1 483 0
  89 003a 114A     		ldr	r2, .L25+4
  90 003c 3146     		mov	r1, r6
  91 003e 5378     		ldrb	r3, [r2, #1]	@ zero_extendqisi2
  92 0040 2846     		mov	r0, r5
  93 0042 1278     		ldrb	r2, [r2]	@ zero_extendqisi2
  94 0044 FFF7FEFF 		bl	CySpcWriteRow
  95              	.LVL9:
 485:Generated_Source\PSoC5/CyFlash.c ****                     {
  96              		.loc 1 485 0
  97 0048 0728     		cmp	r0, #7
 483:Generated_Source\PSoC5/CyFlash.c **** 
  98              		.loc 1 483 0
  99 004a 0446     		mov	r4, r0
 100              	.LVL10:
 485:Generated_Source\PSoC5/CyFlash.c ****                     {
 101              		.loc 1 485 0
 102 004c E0D1     		bne	.L2
 103 004e 08E0     		b	.L22
 104              	.LVL11:
ARM GAS  C:\Users\ingan\AppData\Local\Temp\ccOlcIOe.s 			page 12


 105              	.L5:
 500:Generated_Source\PSoC5/CyFlash.c ****                         }
 106              		.loc 1 500 0
 107 0050 4FF0FF34 		mov	r4, #-1
 108              	.LVL12:
 505:Generated_Source\PSoC5/CyFlash.c ****         }   /* if(CySpcLock() == CYRET_SUCCESS) */
 109              		.loc 1 505 0
 110 0054 FFF7FEFF 		bl	CySpcUnlock
 111              	.LVL13:
 112              		.loc 1 514 0
 113 0058 2046     		mov	r0, r4
 114 005a F8BD     		pop	{r3, r4, r5, r6, r7, pc}
 115              	.LVL14:
 116              	.L8:
 490:Generated_Source\PSoC5/CyFlash.c ****                         }
 117              		.loc 1 490 0
 118 005c 0120     		movs	r0, #1
 119 005e FFF7FEFF 		bl	CyDelayUs
 120              	.LVL15:
 121              	.L22:
 487:Generated_Source\PSoC5/CyFlash.c ****                         {
 122              		.loc 1 487 0
 123 0062 3B78     		ldrb	r3, [r7]	@ zero_extendqisi2
 124 0064 9907     		lsls	r1, r3, #30
 125 0066 F9D5     		bpl	.L8
 494:Generated_Source\PSoC5/CyFlash.c ****                         {
 126              		.loc 1 494 0
 127 0068 044B     		ldr	r3, .L25
 128 006a 1A78     		ldrb	r2, [r3]	@ zero_extendqisi2
 129 006c 9207     		lsls	r2, r2, #30
 130 006e EFD5     		bpl	.L5
 131 0070 1B78     		ldrb	r3, [r3]	@ zero_extendqisi2
 132 0072 9B08     		lsrs	r3, r3, #2
 133 0074 ECD1     		bne	.L5
 496:Generated_Source\PSoC5/CyFlash.c ****                         }
 134              		.loc 1 496 0
 135 0076 1C46     		mov	r4, r3
 136              	.LVL16:
 137 0078 CAE7     		b	.L2
 138              	.L26:
 139 007a 00BF     		.align	2
 140              	.L25:
 141 007c 22470040 		.word	1073760034
 142 0080 00000000 		.word	dieTemperature
 143              		.cfi_endproc
 144              	.LFE14:
 145              		.size	CyWriteRowFull.part.0, .-CyWriteRowFull.part.0
 146              		.section	.text.CyFlash_Start,"ax",%progbits
 147              		.align	2
 148              		.global	CyFlash_Start
 149              		.thumb
 150              		.thumb_func
 151              		.type	CyFlash_Start, %function
 152              	CyFlash_Start:
 153              	.LFB0:
  50:Generated_Source\PSoC5/CyFlash.c ****     uint8 interruptState;
 154              		.loc 1 50 0
ARM GAS  C:\Users\ingan\AppData\Local\Temp\ccOlcIOe.s 			page 13


 155              		.cfi_startproc
 156              		@ args = 0, pretend = 0, frame = 0
 157              		@ frame_needed = 0, uses_anonymous_args = 0
 158 0000 38B5     		push	{r3, r4, r5, lr}
 159              		.cfi_def_cfa_offset 16
 160              		.cfi_offset 3, -16
 161              		.cfi_offset 4, -12
 162              		.cfi_offset 5, -8
 163              		.cfi_offset 14, -4
  53:Generated_Source\PSoC5/CyFlash.c **** 
 164              		.loc 1 53 0
 165 0002 FFF7FEFF 		bl	CyEnterCriticalSection
 166              	.LVL17:
  60:Generated_Source\PSoC5/CyFlash.c ****     CY_FLASH_PM_ALTACT_CFG0_REG |= CY_FLASH_PM_ALTACT_CFG0_EN_CLK_SPC;
 167              		.loc 1 60 0
 168 0006 0F4A     		ldr	r2, .L32
  61:Generated_Source\PSoC5/CyFlash.c **** 
 169              		.loc 1 61 0
 170 0008 0F49     		ldr	r1, .L32+4
  60:Generated_Source\PSoC5/CyFlash.c ****     CY_FLASH_PM_ALTACT_CFG0_REG |= CY_FLASH_PM_ALTACT_CFG0_EN_CLK_SPC;
 171              		.loc 1 60 0
 172 000a 1378     		ldrb	r3, [r2]	@ zero_extendqisi2
  74:Generated_Source\PSoC5/CyFlash.c **** 
 173              		.loc 1 74 0
 174 000c 0F4C     		ldr	r4, .L32+8
  60:Generated_Source\PSoC5/CyFlash.c ****     CY_FLASH_PM_ALTACT_CFG0_REG |= CY_FLASH_PM_ALTACT_CFG0_EN_CLK_SPC;
 175              		.loc 1 60 0
 176 000e 43F00803 		orr	r3, r3, #8
 177 0012 1370     		strb	r3, [r2]
  61:Generated_Source\PSoC5/CyFlash.c **** 
 178              		.loc 1 61 0
 179 0014 0B78     		ldrb	r3, [r1]	@ zero_extendqisi2
  74:Generated_Source\PSoC5/CyFlash.c **** 
 180              		.loc 1 74 0
 181 0016 C825     		movs	r5, #200
  61:Generated_Source\PSoC5/CyFlash.c **** 
 182              		.loc 1 61 0
 183 0018 43F00803 		orr	r3, r3, #8
 184 001c 0B70     		strb	r3, [r1]
  74:Generated_Source\PSoC5/CyFlash.c **** 
 185              		.loc 1 74 0
 186 001e 2570     		strb	r5, [r4]
  84:Generated_Source\PSoC5/CyFlash.c ****     CY_FLASH_PM_ALTACT_CFG12_REG |= CY_FLASH_PM_ALTACT_CFG12_EN_FM;
 187              		.loc 1 84 0
 188 0020 137B     		ldrb	r3, [r2, #12]	@ zero_extendqisi2
 189 0022 43F00F03 		orr	r3, r3, #15
 190 0026 1373     		strb	r3, [r2, #12]
  85:Generated_Source\PSoC5/CyFlash.c **** 
 191              		.loc 1 85 0
 192 0028 0B7B     		ldrb	r3, [r1, #12]	@ zero_extendqisi2
  87:Generated_Source\PSoC5/CyFlash.c ****     {
 193              		.loc 1 87 0
 194 002a 02F55872 		add	r2, r2, #864
  85:Generated_Source\PSoC5/CyFlash.c **** 
 195              		.loc 1 85 0
 196 002e 43F00F03 		orr	r3, r3, #15
 197 0032 0B73     		strb	r3, [r1, #12]
ARM GAS  C:\Users\ingan\AppData\Local\Temp\ccOlcIOe.s 			page 14


 198              	.L28:
  87:Generated_Source\PSoC5/CyFlash.c ****     {
 199              		.loc 1 87 0 discriminator 1
 200 0034 1378     		ldrb	r3, [r2]	@ zero_extendqisi2
 201 0036 9B06     		lsls	r3, r3, #26
 202 0038 FCD5     		bpl	.L28
  93:Generated_Source\PSoC5/CyFlash.c **** 
 203              		.loc 1 93 0
 204 003a BDE83840 		pop	{r3, r4, r5, lr}
 205              		.cfi_restore 14
 206              		.cfi_restore 5
 207              		.cfi_restore 4
 208              		.cfi_restore 3
 209              		.cfi_def_cfa_offset 0
  92:Generated_Source\PSoC5/CyFlash.c **** }
 210              		.loc 1 92 0
 211 003e FFF7FEBF 		b	CyExitCriticalSection
 212              	.LVL18:
 213              	.L33:
 214 0042 00BF     		.align	2
 215              	.L32:
 216 0044 A0430040 		.word	1073759136
 217 0048 B0430040 		.word	1073759152
 218 004c 01470040 		.word	1073760001
 219              		.cfi_endproc
 220              	.LFE0:
 221              		.size	CyFlash_Start, .-CyFlash_Start
 222              		.section	.text.CyFlash_Stop,"ax",%progbits
 223              		.align	2
 224              		.global	CyFlash_Stop
 225              		.thumb
 226              		.thumb_func
 227              		.type	CyFlash_Stop, %function
 228              	CyFlash_Stop:
 229              	.LFB1:
 108:Generated_Source\PSoC5/CyFlash.c ****     uint8 interruptState;
 230              		.loc 1 108 0
 231              		.cfi_startproc
 232              		@ args = 0, pretend = 0, frame = 0
 233              		@ frame_needed = 0, uses_anonymous_args = 0
 234 0000 08B5     		push	{r3, lr}
 235              		.cfi_def_cfa_offset 8
 236              		.cfi_offset 3, -8
 237              		.cfi_offset 14, -4
 111:Generated_Source\PSoC5/CyFlash.c **** 
 238              		.loc 1 111 0
 239 0002 FFF7FEFF 		bl	CyEnterCriticalSection
 240              	.LVL19:
 113:Generated_Source\PSoC5/CyFlash.c ****     CY_FLASH_PM_ALTACT_CFG12_REG &= ((uint8)(~CY_FLASH_PM_ALTACT_CFG12_EN_FM));
 241              		.loc 1 113 0
 242 0006 0749     		ldr	r1, .L36
 114:Generated_Source\PSoC5/CyFlash.c **** 
 243              		.loc 1 114 0
 244 0008 074A     		ldr	r2, .L36+4
 113:Generated_Source\PSoC5/CyFlash.c ****     CY_FLASH_PM_ALTACT_CFG12_REG &= ((uint8)(~CY_FLASH_PM_ALTACT_CFG12_EN_FM));
 245              		.loc 1 113 0
 246 000a 0B78     		ldrb	r3, [r1]	@ zero_extendqisi2
ARM GAS  C:\Users\ingan\AppData\Local\Temp\ccOlcIOe.s 			page 15


 247 000c 03F0F003 		and	r3, r3, #240
 248 0010 0B70     		strb	r3, [r1]
 114:Generated_Source\PSoC5/CyFlash.c **** 
 249              		.loc 1 114 0
 250 0012 1378     		ldrb	r3, [r2]	@ zero_extendqisi2
 251 0014 03F0F003 		and	r3, r3, #240
 252 0018 1370     		strb	r3, [r2]
 117:Generated_Source\PSoC5/CyFlash.c **** 
 253              		.loc 1 117 0
 254 001a BDE80840 		pop	{r3, lr}
 255              		.cfi_restore 14
 256              		.cfi_restore 3
 257              		.cfi_def_cfa_offset 0
 116:Generated_Source\PSoC5/CyFlash.c **** }
 258              		.loc 1 116 0
 259 001e FFF7FEBF 		b	CyExitCriticalSection
 260              	.LVL20:
 261              	.L37:
 262 0022 00BF     		.align	2
 263              	.L36:
 264 0024 AC430040 		.word	1073759148
 265 0028 BC430040 		.word	1073759164
 266              		.cfi_endproc
 267              	.LFE1:
 268              		.size	CyFlash_Stop, .-CyFlash_Stop
 269              		.section	.text.CySetTemp,"ax",%progbits
 270              		.align	2
 271              		.global	CySetTemp
 272              		.thumb
 273              		.thumb_func
 274              		.type	CySetTemp, %function
 275              	CySetTemp:
 276              	.LFB4:
 246:Generated_Source\PSoC5/CyFlash.c ****     cystatus status = CyFlashGetSpcAlgorithm();
 277              		.loc 1 246 0
 278              		.cfi_startproc
 279              		@ args = 0, pretend = 0, frame = 0
 280              		@ frame_needed = 0, uses_anonymous_args = 0
 281 0000 38B5     		push	{r3, r4, r5, lr}
 282              		.cfi_def_cfa_offset 16
 283              		.cfi_offset 3, -16
 284              		.cfi_offset 4, -12
 285              		.cfi_offset 5, -8
 286              		.cfi_offset 14, -4
 287              	.LBB6:
 288              	.LBB7:
 196:Generated_Source\PSoC5/CyFlash.c **** 
 289              		.loc 1 196 0
 290 0002 FFF7FEFF 		bl	CySpcStart
 291              	.LVL21:
 198:Generated_Source\PSoC5/CyFlash.c ****     {
 292              		.loc 1 198 0
 293 0006 FFF7FEFF 		bl	CySpcLock
 294              	.LVL22:
 295 000a 10B1     		cbz	r0, .L39
 296              	.L47:
 219:Generated_Source\PSoC5/CyFlash.c ****     }
ARM GAS  C:\Users\ingan\AppData\Local\Temp\ccOlcIOe.s 			page 16


 297              		.loc 1 219 0
 298 000c 0424     		movs	r4, #4
 299              	.L61:
 300              	.LBE7:
 301              	.LBE6:
 255:Generated_Source\PSoC5/CyFlash.c **** 
 302              		.loc 1 255 0
 303 000e 2046     		mov	r0, r4
 304 0010 38BD     		pop	{r3, r4, r5, pc}
 305              	.L39:
 306              	.LBB11:
 307              	.LBB8:
 200:Generated_Source\PSoC5/CyFlash.c **** 
 308              		.loc 1 200 0
 309 0012 FFF7FEFF 		bl	CySpcGetAlgorithm
 310              	.LVL23:
 202:Generated_Source\PSoC5/CyFlash.c ****         {
 311              		.loc 1 202 0
 312 0016 0728     		cmp	r0, #7
 200:Generated_Source\PSoC5/CyFlash.c **** 
 313              		.loc 1 200 0
 314 0018 0446     		mov	r4, r0
 315              	.LVL24:
 202:Generated_Source\PSoC5/CyFlash.c ****         {
 316              		.loc 1 202 0
 317 001a 2BD0     		beq	.L66
 215:Generated_Source\PSoC5/CyFlash.c ****     }
 318              		.loc 1 215 0
 319 001c FFF7FEFF 		bl	CySpcUnlock
 320              	.LVL25:
 321              	.LBE8:
 322              	.LBE11:
 249:Generated_Source\PSoC5/CyFlash.c ****     {
 323              		.loc 1 249 0
 324 0020 002C     		cmp	r4, #0
 325 0022 F4D1     		bne	.L61
 326              	.L54:
 327              	.LBB12:
 328              	.LBB13:
 140:Generated_Source\PSoC5/CyFlash.c **** 
 329              		.loc 1 140 0
 330 0024 FFF7FEFF 		bl	CySpcStart
 331              	.LVL26:
 145:Generated_Source\PSoC5/CyFlash.c ****     {
 332              		.loc 1 145 0
 333 0028 FFF7FEFF 		bl	CySpcLock
 334              	.LVL27:
 335 002c 0028     		cmp	r0, #0
 336 002e EDD1     		bne	.L47
 148:Generated_Source\PSoC5/CyFlash.c ****         {
 337              		.loc 1 148 0
 338 0030 0120     		movs	r0, #1
 339 0032 FFF7FEFF 		bl	CySpcGetTemp
 340              	.LVL28:
 341 0036 0728     		cmp	r0, #7
 342 0038 05D0     		beq	.L67
 343              	.L53:
ARM GAS  C:\Users\ingan\AppData\Local\Temp\ccOlcIOe.s 			page 17


 143:Generated_Source\PSoC5/CyFlash.c **** 
 344              		.loc 1 143 0
 345 003a 4FF0FF34 		mov	r4, #-1
 346              	.LVL29:
 347              	.L44:
 348              	.LBE13:
 349              	.LBE12:
 350              	.LBB15:
 351              	.LBB9:
 215:Generated_Source\PSoC5/CyFlash.c ****     }
 352              		.loc 1 215 0
 353 003e FFF7FEFF 		bl	CySpcUnlock
 354              	.LVL30:
 355              	.LBE9:
 356              	.LBE15:
 255:Generated_Source\PSoC5/CyFlash.c **** 
 357              		.loc 1 255 0
 358 0042 2046     		mov	r0, r4
 359 0044 38BD     		pop	{r3, r4, r5, pc}
 360              	.LVL31:
 361              	.L67:
 362              	.LBB16:
 363              	.LBB14:
 164:Generated_Source\PSoC5/CyFlash.c ****         }
 364              		.loc 1 164 0
 365 0046 154C     		ldr	r4, .L68
 366 0048 02E0     		b	.L48
 367              	.L50:
 368 004a 2378     		ldrb	r3, [r4]	@ zero_extendqisi2
 369 004c 9B07     		lsls	r3, r3, #30
 370 004e F4D4     		bmi	.L53
 371              	.L48:
 152:Generated_Source\PSoC5/CyFlash.c ****                 {
 372              		.loc 1 152 0
 373 0050 0221     		movs	r1, #2
 374 0052 1348     		ldr	r0, .L68+4
 375 0054 FFF7FEFF 		bl	CySpcReadData
 376              	.LVL32:
 377 0058 0228     		cmp	r0, #2
 378 005a F6D1     		bne	.L50
 156:Generated_Source\PSoC5/CyFlash.c ****                     {
 379              		.loc 1 156 0
 380 005c 0F4C     		ldr	r4, .L68
 381 005e 2378     		ldrb	r3, [r4]	@ zero_extendqisi2
 382 0060 9907     		lsls	r1, r3, #30
 383 0062 05D4     		bmi	.L52
 384              	.L51:
 159:Generated_Source\PSoC5/CyFlash.c ****                     }
 385              		.loc 1 159 0
 386 0064 0120     		movs	r0, #1
 387 0066 FFF7FEFF 		bl	CyDelayUs
 388              	.LVL33:
 156:Generated_Source\PSoC5/CyFlash.c ****                     {
 389              		.loc 1 156 0
 390 006a 2378     		ldrb	r3, [r4]	@ zero_extendqisi2
 391 006c 9A07     		lsls	r2, r3, #30
 392 006e F9D5     		bpl	.L51
ARM GAS  C:\Users\ingan\AppData\Local\Temp\ccOlcIOe.s 			page 18


 393              	.L52:
 154:Generated_Source\PSoC5/CyFlash.c **** 
 394              		.loc 1 154 0
 395 0070 0024     		movs	r4, #0
 396 0072 E4E7     		b	.L44
 397              	.LVL34:
 398              	.L66:
 399              	.LBE14:
 400              	.LBE16:
 401              	.LBB17:
 402              	.LBB10:
 204:Generated_Source\PSoC5/CyFlash.c ****             {
 403              		.loc 1 204 0
 404 0074 094D     		ldr	r5, .L68
 405 0076 2B78     		ldrb	r3, [r5]	@ zero_extendqisi2
 406 0078 9B07     		lsls	r3, r3, #30
 407 007a 05D4     		bmi	.L45
 408              	.LVL35:
 409              	.L42:
 207:Generated_Source\PSoC5/CyFlash.c ****             }
 410              		.loc 1 207 0
 411 007c 0120     		movs	r0, #1
 412 007e FFF7FEFF 		bl	CyDelayUs
 413              	.LVL36:
 204:Generated_Source\PSoC5/CyFlash.c ****             {
 414              		.loc 1 204 0
 415 0082 2B78     		ldrb	r3, [r5]	@ zero_extendqisi2
 416 0084 9807     		lsls	r0, r3, #30
 417 0086 F9D5     		bpl	.L42
 418              	.L45:
 210:Generated_Source\PSoC5/CyFlash.c ****             {
 419              		.loc 1 210 0
 420 0088 044B     		ldr	r3, .L68
 421 008a 1A78     		ldrb	r2, [r3]	@ zero_extendqisi2
 422 008c 9507     		lsls	r5, r2, #30
 423 008e D6D5     		bpl	.L44
 424 0090 1B78     		ldrb	r3, [r3]	@ zero_extendqisi2
 425 0092 9B08     		lsrs	r3, r3, #2
 426 0094 D3D1     		bne	.L44
 427              	.LVL37:
 215:Generated_Source\PSoC5/CyFlash.c ****     }
 428              		.loc 1 215 0
 429 0096 FFF7FEFF 		bl	CySpcUnlock
 430              	.LVL38:
 431 009a C3E7     		b	.L54
 432              	.L69:
 433              		.align	2
 434              	.L68:
 435 009c 22470040 		.word	1073760034
 436 00a0 00000000 		.word	dieTemperature
 437              	.LBE10:
 438              	.LBE17:
 439              		.cfi_endproc
 440              	.LFE4:
 441              		.size	CySetTemp, .-CySetTemp
 442              		.section	.text.CySetFlashEEBuffer,"ax",%progbits
 443              		.align	2
ARM GAS  C:\Users\ingan\AppData\Local\Temp\ccOlcIOe.s 			page 19


 444              		.global	CySetFlashEEBuffer
 445              		.thumb
 446              		.thumb_func
 447              		.type	CySetFlashEEBuffer, %function
 448              	CySetFlashEEBuffer:
 449              	.LFB5:
 277:Generated_Source\PSoC5/CyFlash.c ****     cystatus status = CYRET_SUCCESS;
 450              		.loc 1 277 0
 451              		.cfi_startproc
 452              		@ args = 0, pretend = 0, frame = 8
 453              		@ frame_needed = 0, uses_anonymous_args = 0
 454              	.LVL39:
 455 0000 10B5     		push	{r4, lr}
 456              		.cfi_def_cfa_offset 8
 457              		.cfi_offset 4, -8
 458              		.cfi_offset 14, -4
 459 0002 0446     		mov	r4, r0
 460 0004 82B0     		sub	sp, sp, #8
 461              		.cfi_def_cfa_offset 16
 280:Generated_Source\PSoC5/CyFlash.c **** 
 462              		.loc 1 280 0
 463 0006 FFF7FEFF 		bl	CySpcStart
 464              	.LVL40:
 284:Generated_Source\PSoC5/CyFlash.c ****         {
 465              		.loc 1 284 0
 466 000a 2CB1     		cbz	r4, .L72
 289:Generated_Source\PSoC5/CyFlash.c ****         {
 467              		.loc 1 289 0
 468 000c FFF7FEFF 		bl	CySpcLock
 469              	.LVL41:
 470 0010 28B1     		cbz	r0, .L75
 292:Generated_Source\PSoC5/CyFlash.c ****         }
 471              		.loc 1 292 0
 472 0012 0420     		movs	r0, #4
 473              	.LVL42:
 308:Generated_Source\PSoC5/CyFlash.c **** 
 474              		.loc 1 308 0
 475 0014 02B0     		add	sp, sp, #8
 476              		.cfi_remember_state
 477              		.cfi_def_cfa_offset 8
 478              		@ sp needed
 479 0016 10BD     		pop	{r4, pc}
 480              	.LVL43:
 481              	.L72:
 482              		.cfi_restore_state
 287:Generated_Source\PSoC5/CyFlash.c ****         }
 483              		.loc 1 287 0
 484 0018 0120     		movs	r0, #1
 485              	.LVL44:
 308:Generated_Source\PSoC5/CyFlash.c **** 
 486              		.loc 1 308 0
 487 001a 02B0     		add	sp, sp, #8
 488              		.cfi_remember_state
 489              		.cfi_def_cfa_offset 8
 490              		@ sp needed
 491 001c 10BD     		pop	{r4, pc}
 492              	.LVL45:
ARM GAS  C:\Users\ingan\AppData\Local\Temp\ccOlcIOe.s 			page 20


 493              	.L75:
 494              		.cfi_restore_state
 495 001e 0190     		str	r0, [sp, #4]
 297:Generated_Source\PSoC5/CyFlash.c ****         }
 496              		.loc 1 297 0
 497 0020 FFF7FEFF 		bl	CySpcUnlock
 498              	.LVL46:
 278:Generated_Source\PSoC5/CyFlash.c **** 
 499              		.loc 1 278 0
 500 0024 0198     		ldr	r0, [sp, #4]
 501              	.LVL47:
 308:Generated_Source\PSoC5/CyFlash.c **** 
 502              		.loc 1 308 0
 503 0026 02B0     		add	sp, sp, #8
 504              		.cfi_def_cfa_offset 8
 505              		@ sp needed
 506 0028 10BD     		pop	{r4, pc}
 507              		.cfi_endproc
 508              	.LFE5:
 509              		.size	CySetFlashEEBuffer, .-CySetFlashEEBuffer
 510 002a 00BF     		.section	.text.CyWriteRowData,"ax",%progbits
 511              		.align	2
 512              		.global	CyWriteRowData
 513              		.thumb
 514              		.thumb_func
 515              		.type	CyWriteRowData, %function
 516              	CyWriteRowData:
 517              	.LFB6:
 335:Generated_Source\PSoC5/CyFlash.c ****     uint16 rowSize;
 518              		.loc 1 335 0
 519              		.cfi_startproc
 520              		@ args = 0, pretend = 0, frame = 0
 521              		@ frame_needed = 0, uses_anonymous_args = 0
 522              	.LVL48:
 339:Generated_Source\PSoC5/CyFlash.c ****     status = CyWriteRowFull(arrayId, rowAddress, rowData, rowSize);
 523              		.loc 1 339 0
 524 0000 3F28     		cmp	r0, #63
 335:Generated_Source\PSoC5/CyFlash.c ****     uint16 rowSize;
 525              		.loc 1 335 0
 526 0002 2DE9F041 		push	{r4, r5, r6, r7, r8, lr}
 527              		.cfi_def_cfa_offset 24
 528              		.cfi_offset 4, -24
 529              		.cfi_offset 5, -20
 530              		.cfi_offset 6, -16
 531              		.cfi_offset 7, -12
 532              		.cfi_offset 8, -8
 533              		.cfi_offset 14, -4
 339:Generated_Source\PSoC5/CyFlash.c ****     status = CyWriteRowFull(arrayId, rowAddress, rowData, rowSize);
 534              		.loc 1 339 0
 535 0006 0AD8     		bhi	.L87
 536              	.LVL49:
 537              	.LBB20:
 538              	.LBB21:
 410:Generated_Source\PSoC5/CyFlash.c **** 
 539              		.loc 1 410 0
 540 0008 441F     		subs	r4, r0, #5
 541 000a 3A2C     		cmp	r4, #58
ARM GAS  C:\Users\ingan\AppData\Local\Temp\ccOlcIOe.s 			page 21


 542 000c 8CBF     		ite	hi
 543 000e 0024     		movhi	r4, #0
 544 0010 0124     		movls	r4, #1
 430:Generated_Source\PSoC5/CyFlash.c ****         {
 545              		.loc 1 430 0
 546 0012 B1F5807F 		cmp	r1, #256
 547 0016 17D9     		bls	.L88
 548              	.LVL50:
 549              	.L84:
 550 0018 0120     		movs	r0, #1
 551              	.LVL51:
 552              	.LBE21:
 553              	.LBE20:
 342:Generated_Source\PSoC5/CyFlash.c **** }
 554              		.loc 1 342 0
 555 001a BDE8F081 		pop	{r4, r5, r6, r7, r8, pc}
 556              	.LVL52:
 557              	.L87:
 558              	.LBB24:
 559              	.LBB22:
 410:Generated_Source\PSoC5/CyFlash.c **** 
 560              		.loc 1 410 0 discriminator 4
 561 001e 4128     		cmp	r0, #65
 562 0020 94BF     		ite	ls
 563 0022 0024     		movls	r4, #0
 564 0024 0124     		movhi	r4, #1
 565              	.LVL53:
 440:Generated_Source\PSoC5/CyFlash.c ****         }
 566              		.loc 1 440 0 discriminator 4
 567 0026 8129     		cmp	r1, #129
 568 0028 28BF     		it	cs
 569 002a 0124     		movcs	r4, #1
 570              	.LVL54:
 430:Generated_Source\PSoC5/CyFlash.c ****         {
 571              		.loc 1 430 0 discriminator 4
 572 002c 1027     		movs	r7, #16
 573              	.LVL55:
 574              	.L80:
 449:Generated_Source\PSoC5/CyFlash.c ****     {
 575              		.loc 1 449 0
 576 002e 002A     		cmp	r2, #0
 577 0030 F2D0     		beq	.L84
 455:Generated_Source\PSoC5/CyFlash.c ****     {
 578              		.loc 1 455 0
 579 0032 002C     		cmp	r4, #0
 580 0034 F0D1     		bne	.L84
 581 0036 1646     		mov	r6, r2
 582 0038 0D46     		mov	r5, r1
 583 003a 0446     		mov	r4, r0
 584              	.LVL56:
 457:Generated_Source\PSoC5/CyFlash.c ****         {
 585              		.loc 1 457 0
 586 003c FFF7FEFF 		bl	CySpcLock
 587              	.LVL57:
 588 0040 28B1     		cbz	r0, .L89
 509:Generated_Source\PSoC5/CyFlash.c ****         }
 589              		.loc 1 509 0
ARM GAS  C:\Users\ingan\AppData\Local\Temp\ccOlcIOe.s 			page 22


 590 0042 0420     		movs	r0, #4
 591 0044 BDE8F081 		pop	{r4, r5, r6, r7, r8, pc}
 592              	.LVL58:
 593              	.L88:
 430:Generated_Source\PSoC5/CyFlash.c ****         {
 594              		.loc 1 430 0
 595 0048 4FF48077 		mov	r7, #256
 596 004c EFE7     		b	.L80
 597              	.LVL59:
 598              	.L89:
 599 004e 3B46     		mov	r3, r7
 600 0050 3246     		mov	r2, r6
 601 0052 2946     		mov	r1, r5
 602 0054 2046     		mov	r0, r4
 603              	.LBE22:
 604              	.LBE24:
 343:Generated_Source\PSoC5/CyFlash.c **** 
 605              		.loc 1 343 0
 606 0056 BDE8F041 		pop	{r4, r5, r6, r7, r8, lr}
 607              		.cfi_restore 14
 608              		.cfi_restore 8
 609              		.cfi_restore 7
 610              		.cfi_restore 6
 611              		.cfi_restore 5
 612              		.cfi_restore 4
 613              		.cfi_def_cfa_offset 0
 614              	.LVL60:
 615              	.LBB25:
 616              	.LBB23:
 617 005a FFF7FEBF 		b	CyWriteRowFull.part.0
 618              	.LVL61:
 619              	.LBE23:
 620              	.LBE25:
 621              		.cfi_endproc
 622              	.LFE6:
 623              		.size	CyWriteRowData, .-CyWriteRowData
 624 005e 00BF     		.section	.text.CyWriteRowConfig,"ax",%progbits
 625              		.align	2
 626              		.global	CyWriteRowConfig
 627              		.thumb
 628              		.thumb_func
 629              		.type	CyWriteRowConfig, %function
 630              	CyWriteRowConfig:
 631              	.LFB7:
 377:Generated_Source\PSoC5/CyFlash.c ****         cystatus status;
 632              		.loc 1 377 0
 633              		.cfi_startproc
 634              		@ args = 0, pretend = 0, frame = 0
 635              		@ frame_needed = 0, uses_anonymous_args = 0
 636              	.LVL62:
 637              	.LBB28:
 638              	.LBB29:
 427:Generated_Source\PSoC5/CyFlash.c ****     {
 639              		.loc 1 427 0
 640 0000 0428     		cmp	r0, #4
 641 0002 0CD8     		bhi	.L94
 430:Generated_Source\PSoC5/CyFlash.c ****         {
ARM GAS  C:\Users\ingan\AppData\Local\Temp\ccOlcIOe.s 			page 23


 642              		.loc 1 430 0
 643 0004 B1F5807F 		cmp	r1, #256
 644 0008 09D8     		bhi	.L94
 449:Generated_Source\PSoC5/CyFlash.c ****     {
 645              		.loc 1 449 0
 646 000a 42B1     		cbz	r2, .L94
 647              	.LBE29:
 648              	.LBE28:
 377:Generated_Source\PSoC5/CyFlash.c ****         cystatus status;
 649              		.loc 1 377 0
 650 000c 70B5     		push	{r4, r5, r6, lr}
 651              		.cfi_def_cfa_offset 16
 652              		.cfi_offset 4, -16
 653              		.cfi_offset 5, -12
 654              		.cfi_offset 6, -8
 655              		.cfi_offset 14, -4
 656 000e 1646     		mov	r6, r2
 657 0010 0D46     		mov	r5, r1
 658 0012 0446     		mov	r4, r0
 659              	.LBB33:
 660              	.LBB30:
 457:Generated_Source\PSoC5/CyFlash.c ****         {
 661              		.loc 1 457 0
 662 0014 FFF7FEFF 		bl	CySpcLock
 663              	.LVL63:
 664 0018 18B1     		cbz	r0, .L98
 509:Generated_Source\PSoC5/CyFlash.c ****         }
 665              		.loc 1 509 0
 666 001a 0420     		movs	r0, #4
 667              	.LVL64:
 668              	.LBE30:
 669              	.LBE33:
 383:Generated_Source\PSoC5/CyFlash.c **** 
 670              		.loc 1 383 0
 671 001c 70BD     		pop	{r4, r5, r6, pc}
 672              	.LVL65:
 673              	.L94:
 674              		.cfi_def_cfa_offset 0
 675              		.cfi_restore 4
 676              		.cfi_restore 5
 677              		.cfi_restore 6
 678              		.cfi_restore 14
 679              	.LBB34:
 680              	.LBB31:
 449:Generated_Source\PSoC5/CyFlash.c ****     {
 681              		.loc 1 449 0
 682 001e 0120     		movs	r0, #1
 683              	.LVL66:
 684 0020 7047     		bx	lr
 685              	.LVL67:
 686              	.L98:
 687              		.cfi_def_cfa_offset 16
 688              		.cfi_offset 4, -16
 689              		.cfi_offset 5, -12
 690              		.cfi_offset 6, -8
 691              		.cfi_offset 14, -4
 692 0022 3246     		mov	r2, r6
ARM GAS  C:\Users\ingan\AppData\Local\Temp\ccOlcIOe.s 			page 24


 693 0024 2946     		mov	r1, r5
 694 0026 2046     		mov	r0, r4
 695              	.LBE31:
 696              	.LBE34:
 383:Generated_Source\PSoC5/CyFlash.c **** 
 697              		.loc 1 383 0
 698 0028 BDE87040 		pop	{r4, r5, r6, lr}
 699              		.cfi_restore 14
 700              		.cfi_restore 6
 701              		.cfi_restore 5
 702              		.cfi_restore 4
 703              		.cfi_def_cfa_offset 0
 704              	.LVL68:
 705              	.LBB35:
 706              	.LBB32:
 707 002c 2023     		movs	r3, #32
 708 002e FFF7FEBF 		b	CyWriteRowFull.part.0
 709              	.LVL69:
 710              	.LBE32:
 711              	.LBE35:
 712              		.cfi_endproc
 713              	.LFE7:
 714              		.size	CyWriteRowConfig, .-CyWriteRowConfig
 715 0032 00BF     		.section	.text.CyWriteRowFull,"ax",%progbits
 716              		.align	2
 717              		.global	CyWriteRowFull
 718              		.thumb
 719              		.thumb_func
 720              		.type	CyWriteRowFull, %function
 721              	CyWriteRowFull:
 722              	.LFB8:
 409:Generated_Source\PSoC5/CyFlash.c ****     cystatus status = CYRET_SUCCESS;
 723              		.loc 1 409 0
 724              		.cfi_startproc
 725              		@ args = 0, pretend = 0, frame = 0
 726              		@ frame_needed = 0, uses_anonymous_args = 0
 727              	.LVL70:
 422:Generated_Source\PSoC5/CyFlash.c ****     {
 728              		.loc 1 422 0
 729 0000 4128     		cmp	r0, #65
 409:Generated_Source\PSoC5/CyFlash.c ****     cystatus status = CYRET_SUCCESS;
 730              		.loc 1 409 0
 731 0002 2DE9F041 		push	{r4, r5, r6, r7, r8, lr}
 732              		.cfi_def_cfa_offset 24
 733              		.cfi_offset 4, -24
 734              		.cfi_offset 5, -20
 735              		.cfi_offset 6, -16
 736              		.cfi_offset 7, -12
 737              		.cfi_offset 8, -8
 738              		.cfi_offset 14, -4
 422:Generated_Source\PSoC5/CyFlash.c ****     {
 739              		.loc 1 422 0
 740 0006 15D8     		bhi	.L104
 410:Generated_Source\PSoC5/CyFlash.c **** 
 741              		.loc 1 410 0
 742 0008 441F     		subs	r4, r0, #5
 743 000a 3A2C     		cmp	r4, #58
ARM GAS  C:\Users\ingan\AppData\Local\Temp\ccOlcIOe.s 			page 25


 744 000c 8CBF     		ite	hi
 745 000e 0024     		movhi	r4, #0
 746 0010 0124     		movls	r4, #1
 427:Generated_Source\PSoC5/CyFlash.c ****     {
 747              		.loc 1 427 0
 748 0012 3F28     		cmp	r0, #63
 749 0014 0FD8     		bhi	.L100
 430:Generated_Source\PSoC5/CyFlash.c ****         {
 750              		.loc 1 430 0
 751 0016 B1F5807F 		cmp	r1, #256
 752 001a 11D8     		bhi	.L108
 753              	.LVL71:
 754              	.L102:
 449:Generated_Source\PSoC5/CyFlash.c ****     {
 755              		.loc 1 449 0
 756 001c 82B1     		cbz	r2, .L108
 455:Generated_Source\PSoC5/CyFlash.c ****     {
 757              		.loc 1 455 0
 758 001e 7CB9     		cbnz	r4, .L108
 759 0020 1E46     		mov	r6, r3
 760 0022 1746     		mov	r7, r2
 761 0024 0D46     		mov	r5, r1
 762 0026 0446     		mov	r4, r0
 763              	.LVL72:
 457:Generated_Source\PSoC5/CyFlash.c ****         {
 764              		.loc 1 457 0
 765 0028 FFF7FEFF 		bl	CySpcLock
 766              	.LVL73:
 767 002c 58B1     		cbz	r0, .L111
 509:Generated_Source\PSoC5/CyFlash.c ****         }
 768              		.loc 1 509 0
 769 002e 0420     		movs	r0, #4
 770              	.LVL74:
 771              		.loc 1 514 0
 772 0030 BDE8F081 		pop	{r4, r5, r6, r7, r8, pc}
 773              	.LVL75:
 774              	.L104:
 775 0034 0124     		movs	r4, #1
 776              	.L100:
 777              	.LVL76:
 440:Generated_Source\PSoC5/CyFlash.c ****         }
 778              		.loc 1 440 0
 779 0036 8129     		cmp	r1, #129
 780 0038 28BF     		it	cs
 781 003a 0124     		movcs	r4, #1
 782              	.LVL77:
 443:Generated_Source\PSoC5/CyFlash.c ****         {
 783              		.loc 1 443 0
 784 003c 102B     		cmp	r3, #16
 785 003e EDD0     		beq	.L102
 786              	.LVL78:
 787              	.L108:
 788 0040 0120     		movs	r0, #1
 789              	.LVL79:
 790 0042 BDE8F081 		pop	{r4, r5, r6, r7, r8, pc}
 791              	.LVL80:
 792              	.L111:
ARM GAS  C:\Users\ingan\AppData\Local\Temp\ccOlcIOe.s 			page 26


 793 0046 3346     		mov	r3, r6
 794 0048 3A46     		mov	r2, r7
 795 004a 2946     		mov	r1, r5
 796 004c 2046     		mov	r0, r4
 797              		.loc 1 514 0
 798 004e BDE8F041 		pop	{r4, r5, r6, r7, r8, lr}
 799              		.cfi_restore 14
 800              		.cfi_restore 8
 801              		.cfi_restore 7
 802              		.cfi_restore 6
 803              		.cfi_restore 5
 804              		.cfi_restore 4
 805              		.cfi_def_cfa_offset 0
 806              	.LVL81:
 807 0052 FFF7FEBF 		b	CyWriteRowFull.part.0
 808              	.LVL82:
 809              		.cfi_endproc
 810              	.LFE8:
 811              		.size	CyWriteRowFull, .-CyWriteRowFull
 812 0056 00BF     		.section	.text.CyFlash_SetWaitCycles,"ax",%progbits
 813              		.align	2
 814              		.global	CyFlash_SetWaitCycles
 815              		.thumb
 816              		.thumb_func
 817              		.type	CyFlash_SetWaitCycles, %function
 818              	CyFlash_SetWaitCycles:
 819              	.LFB9:
 515:Generated_Source\PSoC5/CyFlash.c **** 
 516:Generated_Source\PSoC5/CyFlash.c **** 
 517:Generated_Source\PSoC5/CyFlash.c **** /*******************************************************************************
 518:Generated_Source\PSoC5/CyFlash.c **** * Function Name: CyFlash_SetWaitCycles
 519:Generated_Source\PSoC5/CyFlash.c **** ****************************************************************************//**
 520:Generated_Source\PSoC5/CyFlash.c **** *
 521:Generated_Source\PSoC5/CyFlash.c **** *  Sets the number of clock cycles the cache will wait before it samples data
 522:Generated_Source\PSoC5/CyFlash.c **** *  coming back from the Flash. This function must be called before increasing
 523:Generated_Source\PSoC5/CyFlash.c **** *  the CPU clock frequency. It can optionally be called after lowering the CPU
 524:Generated_Source\PSoC5/CyFlash.c **** *  clock frequency in order to improve the CPU performance.
 525:Generated_Source\PSoC5/CyFlash.c **** *
 526:Generated_Source\PSoC5/CyFlash.c **** *  \param uint8 freq:
 527:Generated_Source\PSoC5/CyFlash.c **** *   Frequency of operation in Megahertz.
 528:Generated_Source\PSoC5/CyFlash.c **** *
 529:Generated_Source\PSoC5/CyFlash.c **** *******************************************************************************/
 530:Generated_Source\PSoC5/CyFlash.c **** void CyFlash_SetWaitCycles(uint8 freq) 
 531:Generated_Source\PSoC5/CyFlash.c **** {
 820              		.loc 1 531 0
 821              		.cfi_startproc
 822              		@ args = 0, pretend = 0, frame = 0
 823              		@ frame_needed = 0, uses_anonymous_args = 0
 824              	.LVL83:
 825 0000 10B5     		push	{r4, lr}
 826              		.cfi_def_cfa_offset 8
 827              		.cfi_offset 4, -8
 828              		.cfi_offset 14, -4
 829              		.loc 1 531 0
 830 0002 0446     		mov	r4, r0
 532:Generated_Source\PSoC5/CyFlash.c ****     uint8 interruptState;
 533:Generated_Source\PSoC5/CyFlash.c **** 
ARM GAS  C:\Users\ingan\AppData\Local\Temp\ccOlcIOe.s 			page 27


 534:Generated_Source\PSoC5/CyFlash.c ****     /* Save current global interrupt enable and disable it */
 535:Generated_Source\PSoC5/CyFlash.c ****     interruptState = CyEnterCriticalSection();
 831              		.loc 1 535 0
 832 0004 FFF7FEFF 		bl	CyEnterCriticalSection
 833              	.LVL84:
 536:Generated_Source\PSoC5/CyFlash.c **** 
 537:Generated_Source\PSoC5/CyFlash.c ****     /***************************************************************************
 538:Generated_Source\PSoC5/CyFlash.c ****     * The number of clock cycles the cache will wait before it samples data
 539:Generated_Source\PSoC5/CyFlash.c ****     * coming back from the Flash must be equal or greater to to the CPU frequency
 540:Generated_Source\PSoC5/CyFlash.c ****     * outlined in clock cycles.
 541:Generated_Source\PSoC5/CyFlash.c ****     ***************************************************************************/
 542:Generated_Source\PSoC5/CyFlash.c **** 
 543:Generated_Source\PSoC5/CyFlash.c ****     if (freq < CY_FLASH_CACHE_WS_1_FREQ_MAX)
 834              		.loc 1 543 0
 835 0008 0F2C     		cmp	r4, #15
 836 000a 1AD9     		bls	.L119
 544:Generated_Source\PSoC5/CyFlash.c ****     {
 545:Generated_Source\PSoC5/CyFlash.c ****         CY_FLASH_CONTROL_REG = (CY_FLASH_CONTROL_REG & (uint8)(~CY_FLASH_CACHE_WS_VALUE_MASK)) |
 546:Generated_Source\PSoC5/CyFlash.c ****                                     CY_FLASH_CACHE_WS_1_VALUE_MASK;
 547:Generated_Source\PSoC5/CyFlash.c ****     }
 548:Generated_Source\PSoC5/CyFlash.c ****     else if (freq < CY_FLASH_CACHE_WS_2_FREQ_MAX)
 837              		.loc 1 548 0
 838 000c 202C     		cmp	r4, #32
 839 000e 0DD9     		bls	.L120
 549:Generated_Source\PSoC5/CyFlash.c ****     {
 550:Generated_Source\PSoC5/CyFlash.c ****         CY_FLASH_CONTROL_REG = (CY_FLASH_CONTROL_REG & (uint8)(~CY_FLASH_CACHE_WS_VALUE_MASK)) |
 551:Generated_Source\PSoC5/CyFlash.c ****                                     CY_FLASH_CACHE_WS_2_VALUE_MASK;
 552:Generated_Source\PSoC5/CyFlash.c ****     }
 553:Generated_Source\PSoC5/CyFlash.c ****     else if (freq < CY_FLASH_CACHE_WS_3_FREQ_MAX)
 840              		.loc 1 553 0
 841 0010 312C     		cmp	r4, #49
 842 0012 27D9     		bls	.L121
 554:Generated_Source\PSoC5/CyFlash.c ****     {
 555:Generated_Source\PSoC5/CyFlash.c ****         CY_FLASH_CONTROL_REG = (CY_FLASH_CONTROL_REG & (uint8)(~CY_FLASH_CACHE_WS_VALUE_MASK)) |
 556:Generated_Source\PSoC5/CyFlash.c ****                                     CY_FLASH_CACHE_WS_3_VALUE_MASK;
 557:Generated_Source\PSoC5/CyFlash.c ****     }
 558:Generated_Source\PSoC5/CyFlash.c **** #if (CY_PSOC5)
 559:Generated_Source\PSoC5/CyFlash.c ****     else if (freq < CY_FLASH_CACHE_WS_4_FREQ_MAX)
 843              		.loc 1 559 0
 844 0014 422C     		cmp	r4, #66
 845 0016 1FD9     		bls	.L122
 560:Generated_Source\PSoC5/CyFlash.c ****     {
 561:Generated_Source\PSoC5/CyFlash.c ****         CY_FLASH_CONTROL_REG = (CY_FLASH_CONTROL_REG & (uint8)(~CY_FLASH_CACHE_WS_VALUE_MASK)) |
 562:Generated_Source\PSoC5/CyFlash.c ****                                     CY_FLASH_CACHE_WS_4_VALUE_MASK;
 563:Generated_Source\PSoC5/CyFlash.c ****     }
 564:Generated_Source\PSoC5/CyFlash.c ****     else if (freq <= CY_FLASH_CACHE_WS_5_FREQ_MAX)
 846              		.loc 1 564 0
 847 0018 532C     		cmp	r4, #83
 848 001a 0ED8     		bhi	.L114
 565:Generated_Source\PSoC5/CyFlash.c ****     {
 566:Generated_Source\PSoC5/CyFlash.c ****         CY_FLASH_CONTROL_REG = (CY_FLASH_CONTROL_REG & (uint8)(~CY_FLASH_CACHE_WS_VALUE_MASK)) |
 849              		.loc 1 566 0
 850 001c 174A     		ldr	r2, .L123
 851 001e 1378     		ldrb	r3, [r2]	@ zero_extendqisi2
 852 0020 03F01F03 		and	r3, r3, #31
 853 0024 43F02003 		orr	r3, r3, #32
 854 0028 1370     		strb	r3, [r2]
ARM GAS  C:\Users\ingan\AppData\Local\Temp\ccOlcIOe.s 			page 28


 855 002a 06E0     		b	.L114
 856              	.L120:
 550:Generated_Source\PSoC5/CyFlash.c ****                                     CY_FLASH_CACHE_WS_2_VALUE_MASK;
 857              		.loc 1 550 0
 858 002c 134A     		ldr	r2, .L123
 859 002e 1378     		ldrb	r3, [r2]	@ zero_extendqisi2
 860 0030 03F01F03 		and	r3, r3, #31
 861 0034 43F08003 		orr	r3, r3, #128
 862 0038 1370     		strb	r3, [r2]
 863              	.L114:
 567:Generated_Source\PSoC5/CyFlash.c ****                                     CY_FLASH_CACHE_WS_5_VALUE_MASK;
 568:Generated_Source\PSoC5/CyFlash.c ****     }
 569:Generated_Source\PSoC5/CyFlash.c **** #endif  /* (CY_PSOC5) */
 570:Generated_Source\PSoC5/CyFlash.c ****     else
 571:Generated_Source\PSoC5/CyFlash.c ****     {
 572:Generated_Source\PSoC5/CyFlash.c ****         /* Halt CPU in debug mode if frequency is invalid */
 573:Generated_Source\PSoC5/CyFlash.c ****         CYASSERT(0u != 0u);
 574:Generated_Source\PSoC5/CyFlash.c ****     }
 575:Generated_Source\PSoC5/CyFlash.c **** 
 576:Generated_Source\PSoC5/CyFlash.c ****     /* Restore global interrupt enable state */
 577:Generated_Source\PSoC5/CyFlash.c ****     CyExitCriticalSection(interruptState);
 578:Generated_Source\PSoC5/CyFlash.c **** }
 864              		.loc 1 578 0
 865 003a BDE81040 		pop	{r4, lr}
 866              		.cfi_remember_state
 867              		.cfi_restore 14
 868              		.cfi_restore 4
 869              		.cfi_def_cfa_offset 0
 577:Generated_Source\PSoC5/CyFlash.c **** }
 870              		.loc 1 577 0
 871 003e FFF7FEBF 		b	CyExitCriticalSection
 872              	.LVL85:
 873              	.L119:
 874              		.cfi_restore_state
 545:Generated_Source\PSoC5/CyFlash.c ****                                     CY_FLASH_CACHE_WS_1_VALUE_MASK;
 875              		.loc 1 545 0
 876 0042 0E4A     		ldr	r2, .L123
 877 0044 1378     		ldrb	r3, [r2]	@ zero_extendqisi2
 878 0046 03F01F03 		and	r3, r3, #31
 879 004a 43F04003 		orr	r3, r3, #64
 880 004e 1370     		strb	r3, [r2]
 881              		.loc 1 578 0
 882 0050 BDE81040 		pop	{r4, lr}
 883              		.cfi_remember_state
 884              		.cfi_restore 4
 885              		.cfi_restore 14
 886              		.cfi_def_cfa_offset 0
 577:Generated_Source\PSoC5/CyFlash.c **** }
 887              		.loc 1 577 0
 888 0054 FFF7FEBF 		b	CyExitCriticalSection
 889              	.LVL86:
 890              	.L122:
 891              		.cfi_restore_state
 561:Generated_Source\PSoC5/CyFlash.c ****                                     CY_FLASH_CACHE_WS_4_VALUE_MASK;
 892              		.loc 1 561 0
 893 0058 084A     		ldr	r2, .L123
 894 005a 1378     		ldrb	r3, [r2]	@ zero_extendqisi2
ARM GAS  C:\Users\ingan\AppData\Local\Temp\ccOlcIOe.s 			page 29


 895 005c 03F01F03 		and	r3, r3, #31
 896 0060 1370     		strb	r3, [r2]
 897 0062 EAE7     		b	.L114
 898              	.L121:
 555:Generated_Source\PSoC5/CyFlash.c ****                                     CY_FLASH_CACHE_WS_3_VALUE_MASK;
 899              		.loc 1 555 0
 900 0064 054A     		ldr	r2, .L123
 901 0066 1378     		ldrb	r3, [r2]	@ zero_extendqisi2
 902 0068 03F01F03 		and	r3, r3, #31
 903 006c 43F0C003 		orr	r3, r3, #192
 904 0070 1370     		strb	r3, [r2]
 905              		.loc 1 578 0
 906 0072 BDE81040 		pop	{r4, lr}
 907              		.cfi_restore 4
 908              		.cfi_restore 14
 909              		.cfi_def_cfa_offset 0
 577:Generated_Source\PSoC5/CyFlash.c **** }
 910              		.loc 1 577 0
 911 0076 FFF7FEBF 		b	CyExitCriticalSection
 912              	.LVL87:
 913              	.L124:
 914 007a 00BF     		.align	2
 915              	.L123:
 916 007c 00480040 		.word	1073760256
 917              		.cfi_endproc
 918              	.LFE9:
 919              		.size	CyFlash_SetWaitCycles, .-CyFlash_SetWaitCycles
 920              		.section	.text.CyEEPROM_Start,"ax",%progbits
 921              		.align	2
 922              		.global	CyEEPROM_Start
 923              		.thumb
 924              		.thumb_func
 925              		.type	CyEEPROM_Start, %function
 926              	CyEEPROM_Start:
 927              	.LFB10:
 579:Generated_Source\PSoC5/CyFlash.c **** 
 580:Generated_Source\PSoC5/CyFlash.c **** 
 581:Generated_Source\PSoC5/CyFlash.c **** /*******************************************************************************
 582:Generated_Source\PSoC5/CyFlash.c **** * Function Name: CyEEPROM_Start
 583:Generated_Source\PSoC5/CyFlash.c **** ****************************************************************************//**
 584:Generated_Source\PSoC5/CyFlash.c **** *
 585:Generated_Source\PSoC5/CyFlash.c **** *  Enable the EEPROM.
 586:Generated_Source\PSoC5/CyFlash.c **** *
 587:Generated_Source\PSoC5/CyFlash.c **** *******************************************************************************/
 588:Generated_Source\PSoC5/CyFlash.c **** void CyEEPROM_Start(void) 
 589:Generated_Source\PSoC5/CyFlash.c **** {
 928              		.loc 1 589 0
 929              		.cfi_startproc
 930              		@ args = 0, pretend = 0, frame = 0
 931              		@ frame_needed = 0, uses_anonymous_args = 0
 932 0000 38B5     		push	{r3, r4, r5, lr}
 933              		.cfi_def_cfa_offset 16
 934              		.cfi_offset 3, -16
 935              		.cfi_offset 4, -12
 936              		.cfi_offset 5, -8
 937              		.cfi_offset 14, -4
 590:Generated_Source\PSoC5/CyFlash.c ****     uint8 interruptState;
ARM GAS  C:\Users\ingan\AppData\Local\Temp\ccOlcIOe.s 			page 30


 591:Generated_Source\PSoC5/CyFlash.c **** 
 592:Generated_Source\PSoC5/CyFlash.c ****     interruptState = CyEnterCriticalSection();
 938              		.loc 1 592 0
 939 0002 FFF7FEFF 		bl	CyEnterCriticalSection
 940              	.LVL88:
 593:Generated_Source\PSoC5/CyFlash.c **** 
 594:Generated_Source\PSoC5/CyFlash.c **** 
 595:Generated_Source\PSoC5/CyFlash.c ****     /***************************************************************************
 596:Generated_Source\PSoC5/CyFlash.c ****     * Enable SPC clock. This also internally enables the 36MHz IMO, since this
 597:Generated_Source\PSoC5/CyFlash.c ****     * is required for the SPC to function.
 598:Generated_Source\PSoC5/CyFlash.c ****     ***************************************************************************/
 599:Generated_Source\PSoC5/CyFlash.c ****     CY_FLASH_PM_ACT_CFG0_REG    |= CY_FLASH_PM_ACT_CFG0_EN_CLK_SPC;
 941              		.loc 1 599 0
 942 0006 0F4A     		ldr	r2, .L130
 600:Generated_Source\PSoC5/CyFlash.c ****     CY_FLASH_PM_ALTACT_CFG0_REG |= CY_FLASH_PM_ALTACT_CFG0_EN_CLK_SPC;
 943              		.loc 1 600 0
 944 0008 0F49     		ldr	r1, .L130+4
 599:Generated_Source\PSoC5/CyFlash.c ****     CY_FLASH_PM_ALTACT_CFG0_REG |= CY_FLASH_PM_ALTACT_CFG0_EN_CLK_SPC;
 945              		.loc 1 599 0
 946 000a 1378     		ldrb	r3, [r2]	@ zero_extendqisi2
 601:Generated_Source\PSoC5/CyFlash.c **** 
 602:Generated_Source\PSoC5/CyFlash.c **** 
 603:Generated_Source\PSoC5/CyFlash.c ****     /***************************************************************************
 604:Generated_Source\PSoC5/CyFlash.c ****     * The wake count defines the number of Bus Clock cycles it takes for the
 605:Generated_Source\PSoC5/CyFlash.c ****     * flash or EEPROM to wake up from a low power mode independent of the chip
 606:Generated_Source\PSoC5/CyFlash.c ****     * power mode. Wake up time for these blocks is 5 us.
 607:Generated_Source\PSoC5/CyFlash.c ****     * The granularity of this register is 2 Bus Clock cycles, so a value of 0x1E
 608:Generated_Source\PSoC5/CyFlash.c ****     * (30d) defines the wake up time as 60 cycles of the Bus Clock.
 609:Generated_Source\PSoC5/CyFlash.c ****     * This register needs to be written with a value dependent on the Bus Clock
 610:Generated_Source\PSoC5/CyFlash.c ****     * frequency so that the duration of the cycles is equal to or greater than
 611:Generated_Source\PSoC5/CyFlash.c ****     * the 5 us delay required.
 612:Generated_Source\PSoC5/CyFlash.c ****     ***************************************************************************/
 613:Generated_Source\PSoC5/CyFlash.c ****     CY_FLASH_SPC_FM_EE_WAKE_CNT_REG = CY_FLASH_SPC_FM_EE_WAKE_CNT_80MHZ;
 947              		.loc 1 613 0
 948 000c 0F4C     		ldr	r4, .L130+8
 599:Generated_Source\PSoC5/CyFlash.c ****     CY_FLASH_PM_ALTACT_CFG0_REG |= CY_FLASH_PM_ALTACT_CFG0_EN_CLK_SPC;
 949              		.loc 1 599 0
 950 000e 43F00803 		orr	r3, r3, #8
 951 0012 1370     		strb	r3, [r2]
 600:Generated_Source\PSoC5/CyFlash.c **** 
 952              		.loc 1 600 0
 953 0014 0B78     		ldrb	r3, [r1]	@ zero_extendqisi2
 954              		.loc 1 613 0
 955 0016 C825     		movs	r5, #200
 600:Generated_Source\PSoC5/CyFlash.c **** 
 956              		.loc 1 600 0
 957 0018 43F00803 		orr	r3, r3, #8
 958 001c 0B70     		strb	r3, [r1]
 959              		.loc 1 613 0
 960 001e 2570     		strb	r5, [r4]
 614:Generated_Source\PSoC5/CyFlash.c **** 
 615:Generated_Source\PSoC5/CyFlash.c **** 
 616:Generated_Source\PSoC5/CyFlash.c ****     /***************************************************************************
 617:Generated_Source\PSoC5/CyFlash.c ****     * Enable EEPROM. Re-enabling an EEPROM macro takes 5us. During this time,
 618:Generated_Source\PSoC5/CyFlash.c ****     * the EE will not acknowledge a PHUB request.
 619:Generated_Source\PSoC5/CyFlash.c ****     ***************************************************************************/
 620:Generated_Source\PSoC5/CyFlash.c ****     CY_FLASH_PM_ACT_CFG12_REG    |= CY_FLASH_PM_ACT_CFG12_EN_EE;
ARM GAS  C:\Users\ingan\AppData\Local\Temp\ccOlcIOe.s 			page 31


 961              		.loc 1 620 0
 962 0020 137B     		ldrb	r3, [r2, #12]	@ zero_extendqisi2
 963 0022 43F01003 		orr	r3, r3, #16
 964 0026 1373     		strb	r3, [r2, #12]
 621:Generated_Source\PSoC5/CyFlash.c ****     CY_FLASH_PM_ALTACT_CFG12_REG |= CY_FLASH_PM_ALTACT_CFG12_EN_EE;
 965              		.loc 1 621 0
 966 0028 0B7B     		ldrb	r3, [r1, #12]	@ zero_extendqisi2
 622:Generated_Source\PSoC5/CyFlash.c **** 
 623:Generated_Source\PSoC5/CyFlash.c ****     while(0u == (CY_FLASH_SPC_FM_EE_CR_REG & CY_FLASH_EE_EE_AWAKE))
 967              		.loc 1 623 0
 968 002a 02F55872 		add	r2, r2, #864
 621:Generated_Source\PSoC5/CyFlash.c ****     CY_FLASH_PM_ALTACT_CFG12_REG |= CY_FLASH_PM_ALTACT_CFG12_EN_EE;
 969              		.loc 1 621 0
 970 002e 43F01003 		orr	r3, r3, #16
 971 0032 0B73     		strb	r3, [r1, #12]
 972              	.L126:
 973              		.loc 1 623 0 discriminator 1
 974 0034 1378     		ldrb	r3, [r2]	@ zero_extendqisi2
 975 0036 9B06     		lsls	r3, r3, #26
 976 0038 FCD5     		bpl	.L126
 624:Generated_Source\PSoC5/CyFlash.c ****     {
 625:Generated_Source\PSoC5/CyFlash.c ****         /* Non-zero status denotes that the EEPROM/Flash is awake & powered. */
 626:Generated_Source\PSoC5/CyFlash.c ****     }
 627:Generated_Source\PSoC5/CyFlash.c **** 
 628:Generated_Source\PSoC5/CyFlash.c ****     CyExitCriticalSection(interruptState);
 629:Generated_Source\PSoC5/CyFlash.c **** }
 977              		.loc 1 629 0
 978 003a BDE83840 		pop	{r3, r4, r5, lr}
 979              		.cfi_restore 14
 980              		.cfi_restore 5
 981              		.cfi_restore 4
 982              		.cfi_restore 3
 983              		.cfi_def_cfa_offset 0
 628:Generated_Source\PSoC5/CyFlash.c **** }
 984              		.loc 1 628 0
 985 003e FFF7FEBF 		b	CyExitCriticalSection
 986              	.LVL89:
 987              	.L131:
 988 0042 00BF     		.align	2
 989              	.L130:
 990 0044 A0430040 		.word	1073759136
 991 0048 B0430040 		.word	1073759152
 992 004c 01470040 		.word	1073760001
 993              		.cfi_endproc
 994              	.LFE10:
 995              		.size	CyEEPROM_Start, .-CyEEPROM_Start
 996              		.section	.text.CyEEPROM_Stop,"ax",%progbits
 997              		.align	2
 998              		.global	CyEEPROM_Stop
 999              		.thumb
 1000              		.thumb_func
 1001              		.type	CyEEPROM_Stop, %function
 1002              	CyEEPROM_Stop:
 1003              	.LFB11:
 630:Generated_Source\PSoC5/CyFlash.c **** 
 631:Generated_Source\PSoC5/CyFlash.c **** 
 632:Generated_Source\PSoC5/CyFlash.c **** /*******************************************************************************
ARM GAS  C:\Users\ingan\AppData\Local\Temp\ccOlcIOe.s 			page 32


 633:Generated_Source\PSoC5/CyFlash.c **** * Function Name: CyEEPROM_Stop
 634:Generated_Source\PSoC5/CyFlash.c **** ****************************************************************************//**
 635:Generated_Source\PSoC5/CyFlash.c **** *
 636:Generated_Source\PSoC5/CyFlash.c **** *  Disable the EEPROM.
 637:Generated_Source\PSoC5/CyFlash.c **** *
 638:Generated_Source\PSoC5/CyFlash.c **** *******************************************************************************/
 639:Generated_Source\PSoC5/CyFlash.c **** void CyEEPROM_Stop (void) 
 640:Generated_Source\PSoC5/CyFlash.c **** {
 1004              		.loc 1 640 0
 1005              		.cfi_startproc
 1006              		@ args = 0, pretend = 0, frame = 0
 1007              		@ frame_needed = 0, uses_anonymous_args = 0
 1008 0000 08B5     		push	{r3, lr}
 1009              		.cfi_def_cfa_offset 8
 1010              		.cfi_offset 3, -8
 1011              		.cfi_offset 14, -4
 641:Generated_Source\PSoC5/CyFlash.c ****     uint8 interruptState;
 642:Generated_Source\PSoC5/CyFlash.c **** 
 643:Generated_Source\PSoC5/CyFlash.c ****     interruptState = CyEnterCriticalSection();
 1012              		.loc 1 643 0
 1013 0002 FFF7FEFF 		bl	CyEnterCriticalSection
 1014              	.LVL90:
 644:Generated_Source\PSoC5/CyFlash.c **** 
 645:Generated_Source\PSoC5/CyFlash.c ****     CY_FLASH_PM_ACT_CFG12_REG    &= ((uint8)(~CY_FLASH_PM_ACT_CFG12_EN_EE));
 1015              		.loc 1 645 0
 1016 0006 0749     		ldr	r1, .L134
 646:Generated_Source\PSoC5/CyFlash.c ****     CY_FLASH_PM_ALTACT_CFG12_REG &= ((uint8)(~CY_FLASH_PM_ALTACT_CFG12_EN_EE));
 1017              		.loc 1 646 0
 1018 0008 074A     		ldr	r2, .L134+4
 645:Generated_Source\PSoC5/CyFlash.c ****     CY_FLASH_PM_ALTACT_CFG12_REG &= ((uint8)(~CY_FLASH_PM_ALTACT_CFG12_EN_EE));
 1019              		.loc 1 645 0
 1020 000a 0B78     		ldrb	r3, [r1]	@ zero_extendqisi2
 1021 000c 03F0EF03 		and	r3, r3, #239
 1022 0010 0B70     		strb	r3, [r1]
 1023              		.loc 1 646 0
 1024 0012 1378     		ldrb	r3, [r2]	@ zero_extendqisi2
 1025 0014 03F0EF03 		and	r3, r3, #239
 1026 0018 1370     		strb	r3, [r2]
 647:Generated_Source\PSoC5/CyFlash.c **** 
 648:Generated_Source\PSoC5/CyFlash.c ****     CyExitCriticalSection(interruptState);
 649:Generated_Source\PSoC5/CyFlash.c **** }
 1027              		.loc 1 649 0
 1028 001a BDE80840 		pop	{r3, lr}
 1029              		.cfi_restore 14
 1030              		.cfi_restore 3
 1031              		.cfi_def_cfa_offset 0
 648:Generated_Source\PSoC5/CyFlash.c **** }
 1032              		.loc 1 648 0
 1033 001e FFF7FEBF 		b	CyExitCriticalSection
 1034              	.LVL91:
 1035              	.L135:
 1036 0022 00BF     		.align	2
 1037              	.L134:
 1038 0024 AC430040 		.word	1073759148
 1039 0028 BC430040 		.word	1073759164
 1040              		.cfi_endproc
 1041              	.LFE11:
ARM GAS  C:\Users\ingan\AppData\Local\Temp\ccOlcIOe.s 			page 33


 1042              		.size	CyEEPROM_Stop, .-CyEEPROM_Stop
 1043              		.section	.text.CyEEPROM_ReadReserve,"ax",%progbits
 1044              		.align	2
 1045              		.global	CyEEPROM_ReadReserve
 1046              		.thumb
 1047              		.thumb_func
 1048              		.type	CyEEPROM_ReadReserve, %function
 1049              	CyEEPROM_ReadReserve:
 1050              	.LFB12:
 650:Generated_Source\PSoC5/CyFlash.c **** 
 651:Generated_Source\PSoC5/CyFlash.c **** 
 652:Generated_Source\PSoC5/CyFlash.c **** /*******************************************************************************
 653:Generated_Source\PSoC5/CyFlash.c **** * Function Name: CyEEPROM_ReadReserve
 654:Generated_Source\PSoC5/CyFlash.c **** ****************************************************************************//**
 655:Generated_Source\PSoC5/CyFlash.c **** *
 656:Generated_Source\PSoC5/CyFlash.c **** *  Request access to the EEPROM for reading and wait until access is available.
 657:Generated_Source\PSoC5/CyFlash.c **** *
 658:Generated_Source\PSoC5/CyFlash.c **** *******************************************************************************/
 659:Generated_Source\PSoC5/CyFlash.c **** void CyEEPROM_ReadReserve(void) 
 660:Generated_Source\PSoC5/CyFlash.c **** {
 1051              		.loc 1 660 0
 1052              		.cfi_startproc
 1053              		@ args = 0, pretend = 0, frame = 0
 1054              		@ frame_needed = 0, uses_anonymous_args = 0
 1055              		@ link register save eliminated.
 661:Generated_Source\PSoC5/CyFlash.c ****     /* Make request for PHUB to have access */
 662:Generated_Source\PSoC5/CyFlash.c ****     CY_FLASH_EE_SCR_REG |= CY_FLASH_EE_SCR_AHB_EE_REQ;
 1056              		.loc 1 662 0
 1057 0000 044B     		ldr	r3, .L140
 663:Generated_Source\PSoC5/CyFlash.c **** 
 664:Generated_Source\PSoC5/CyFlash.c ****     while (0u == (CY_FLASH_EE_SCR_REG & CY_FLASH_EE_SCR_AHB_EE_ACK))
 1058              		.loc 1 664 0
 1059 0002 1A46     		mov	r2, r3
 662:Generated_Source\PSoC5/CyFlash.c **** 
 1060              		.loc 1 662 0
 1061 0004 1978     		ldrb	r1, [r3]	@ zero_extendqisi2
 1062 0006 41F00101 		orr	r1, r1, #1
 1063 000a 1970     		strb	r1, [r3]
 1064              	.L137:
 1065              		.loc 1 664 0 discriminator 1
 1066 000c 1378     		ldrb	r3, [r2]	@ zero_extendqisi2
 1067 000e 9B07     		lsls	r3, r3, #30
 1068 0010 FCD5     		bpl	.L137
 665:Generated_Source\PSoC5/CyFlash.c ****     {
 666:Generated_Source\PSoC5/CyFlash.c ****         /* Wait for acknowledgment from PHUB */
 667:Generated_Source\PSoC5/CyFlash.c ****     }
 668:Generated_Source\PSoC5/CyFlash.c **** }
 1069              		.loc 1 668 0
 1070 0012 7047     		bx	lr
 1071              	.L141:
 1072              		.align	2
 1073              	.L140:
 1074 0014 02470040 		.word	1073760002
 1075              		.cfi_endproc
 1076              	.LFE12:
 1077              		.size	CyEEPROM_ReadReserve, .-CyEEPROM_ReadReserve
 1078              		.section	.text.CyEEPROM_ReadRelease,"ax",%progbits
ARM GAS  C:\Users\ingan\AppData\Local\Temp\ccOlcIOe.s 			page 34


 1079              		.align	2
 1080              		.global	CyEEPROM_ReadRelease
 1081              		.thumb
 1082              		.thumb_func
 1083              		.type	CyEEPROM_ReadRelease, %function
 1084              	CyEEPROM_ReadRelease:
 1085              	.LFB13:
 669:Generated_Source\PSoC5/CyFlash.c **** 
 670:Generated_Source\PSoC5/CyFlash.c **** 
 671:Generated_Source\PSoC5/CyFlash.c **** /*******************************************************************************
 672:Generated_Source\PSoC5/CyFlash.c **** * Function Name: CyEEPROM_ReadRelease
 673:Generated_Source\PSoC5/CyFlash.c **** ****************************************************************************//**
 674:Generated_Source\PSoC5/CyFlash.c **** *
 675:Generated_Source\PSoC5/CyFlash.c **** *  Release the read reservation of the EEPROM.
 676:Generated_Source\PSoC5/CyFlash.c **** *
 677:Generated_Source\PSoC5/CyFlash.c **** *******************************************************************************/
 678:Generated_Source\PSoC5/CyFlash.c **** void CyEEPROM_ReadRelease(void) 
 679:Generated_Source\PSoC5/CyFlash.c **** {
 1086              		.loc 1 679 0
 1087              		.cfi_startproc
 1088              		@ args = 0, pretend = 0, frame = 0
 1089              		@ frame_needed = 0, uses_anonymous_args = 0
 1090              		@ link register save eliminated.
 680:Generated_Source\PSoC5/CyFlash.c ****     CY_FLASH_EE_SCR_REG &= (uint8)(~CY_FLASH_EE_SCR_AHB_EE_REQ);
 1091              		.loc 1 680 0
 1092 0000 024A     		ldr	r2, .L143
 1093 0002 1378     		ldrb	r3, [r2]	@ zero_extendqisi2
 1094 0004 03F0FE03 		and	r3, r3, #254
 1095 0008 1370     		strb	r3, [r2]
 1096 000a 7047     		bx	lr
 1097              	.L144:
 1098              		.align	2
 1099              	.L143:
 1100 000c 02470040 		.word	1073760002
 1101              		.cfi_endproc
 1102              	.LFE13:
 1103              		.size	CyEEPROM_ReadRelease, .-CyEEPROM_ReadRelease
 1104              		.comm	dieTemperature,2,4
 1105              		.text
 1106              	.Letext0:
 1107              		.file 2 "Generated_Source\\PSoC5\\cytypes.h"
 1108              		.file 3 "Generated_Source\\PSoC5\\CySpc.h"
 1109              		.file 4 "Generated_Source\\PSoC5\\CyLib.h"