ARM GAS  C:\Users\ingan\AppData\Local\Temp\cc4cIvUc.s 			page 1


   1              		.syntax unified
   2              		.cpu cortex-m3
   3              		.fpu softvfp
   4              		.eabi_attribute 20, 1
   5              		.eabi_attribute 21, 1
   6              		.eabi_attribute 23, 3
   7              		.eabi_attribute 24, 1
   8              		.eabi_attribute 25, 1
   9              		.eabi_attribute 26, 1
  10              		.eabi_attribute 30, 2
  11              		.eabi_attribute 34, 1
  12              		.eabi_attribute 18, 4
  13              		.thumb
  14              		.syntax unified
  15              		.file	"CySpc.c"
  16              		.text
  17              	.Ltext0:
  18              		.cfi_sections	.debug_frame
  19              		.section	.text.CySpcStart,"ax",%progbits
  20              		.align	2
  21              		.global	CySpcStart
  22              		.thumb
  23              		.thumb_func
  24              		.type	CySpcStart, %function
  25              	CySpcStart:
  26              	.LFB0:
  27              		.file 1 "Generated_Source\\PSoC5\\CySpc.c"
   1:Generated_Source\PSoC5/CySpc.c **** /***************************************************************************//**
   2:Generated_Source\PSoC5/CySpc.c **** * \file CySpc.c
   3:Generated_Source\PSoC5/CySpc.c **** * \version 5.60
   4:Generated_Source\PSoC5/CySpc.c **** *
   5:Generated_Source\PSoC5/CySpc.c **** * \brief Provides an API for the System Performance Component.
   6:Generated_Source\PSoC5/CySpc.c **** * The SPC functions are not meant to be called directly by the user
   7:Generated_Source\PSoC5/CySpc.c **** * application.
   8:Generated_Source\PSoC5/CySpc.c **** *
   9:Generated_Source\PSoC5/CySpc.c **** ********************************************************************************
  10:Generated_Source\PSoC5/CySpc.c **** * \copyright
  11:Generated_Source\PSoC5/CySpc.c **** * Copyright 2008-2017, Cypress Semiconductor Corporation.  All rights reserved.
  12:Generated_Source\PSoC5/CySpc.c **** * You may use this file only in accordance with the license, terms, conditions,
  13:Generated_Source\PSoC5/CySpc.c **** * disclaimers, and limitations in the end user license agreement accompanying
  14:Generated_Source\PSoC5/CySpc.c **** * the software package with which this file was provided.
  15:Generated_Source\PSoC5/CySpc.c **** *******************************************************************************/
  16:Generated_Source\PSoC5/CySpc.c **** 
  17:Generated_Source\PSoC5/CySpc.c **** #include "CySpc.h"
  18:Generated_Source\PSoC5/CySpc.c **** 
  19:Generated_Source\PSoC5/CySpc.c **** #define CY_SPC_KEY_ONE                      (0xB6u)
  20:Generated_Source\PSoC5/CySpc.c **** #define CY_SPC_KEY_TWO(x)                   ((uint8) (((uint16) 0xD3u) + ((uint16) (x))))
  21:Generated_Source\PSoC5/CySpc.c **** 
  22:Generated_Source\PSoC5/CySpc.c **** /* Command Codes */
  23:Generated_Source\PSoC5/CySpc.c **** #define CY_SPC_CMD_LD_BYTE                  (0x00u)
  24:Generated_Source\PSoC5/CySpc.c **** #define CY_SPC_CMD_LD_MULTI_BYTE            (0x01u)
  25:Generated_Source\PSoC5/CySpc.c **** #define CY_SPC_CMD_LD_ROW                   (0x02u)
  26:Generated_Source\PSoC5/CySpc.c **** #define CY_SPC_CMD_RD_BYTE                  (0x03u)
  27:Generated_Source\PSoC5/CySpc.c **** #define CY_SPC_CMD_RD_MULTI_BYTE            (0x04u)
  28:Generated_Source\PSoC5/CySpc.c **** #define CY_SPC_CMD_WR_ROW                   (0x05u)
  29:Generated_Source\PSoC5/CySpc.c **** #define CY_SPC_CMD_WR_USER_NVL              (0x06u)
  30:Generated_Source\PSoC5/CySpc.c **** #define CY_SPC_CMD_PRG_ROW                  (0x07u)
ARM GAS  C:\Users\ingan\AppData\Local\Temp\cc4cIvUc.s 			page 2


  31:Generated_Source\PSoC5/CySpc.c **** #define CY_SPC_CMD_ER_SECTOR                (0x08u)
  32:Generated_Source\PSoC5/CySpc.c **** #define CY_SPC_CMD_ER_ALL                   (0x09u)
  33:Generated_Source\PSoC5/CySpc.c **** #define CY_SPC_CMD_RD_HIDDEN                (0x0Au)
  34:Generated_Source\PSoC5/CySpc.c **** #define CY_SPC_CMD_PRG_PROTECT              (0x0Bu)
  35:Generated_Source\PSoC5/CySpc.c **** #define CY_SPC_CMD_CHECKSUM                 (0x0Cu)
  36:Generated_Source\PSoC5/CySpc.c **** #define CY_SPC_CMD_DWNLD_ALGORITHM          (0x0Du)
  37:Generated_Source\PSoC5/CySpc.c **** #define CY_SPC_CMD_GET_TEMP                 (0x0Eu)
  38:Generated_Source\PSoC5/CySpc.c **** #define CY_SPC_CMD_GET_ADC                  (0x0Fu)
  39:Generated_Source\PSoC5/CySpc.c **** #define CY_SPC_CMD_RD_NVL_VOLATILE          (0x10u)
  40:Generated_Source\PSoC5/CySpc.c **** #define CY_SPC_CMD_SETUP_TS                 (0x11u)
  41:Generated_Source\PSoC5/CySpc.c **** #define CY_SPC_CMD_DISABLE_TS               (0x12u)
  42:Generated_Source\PSoC5/CySpc.c **** #define CY_SPC_CMD_ER_ROW                   (0x13u)
  43:Generated_Source\PSoC5/CySpc.c **** 
  44:Generated_Source\PSoC5/CySpc.c **** /* Enable bit in Active and Alternate Active mode templates */
  45:Generated_Source\PSoC5/CySpc.c **** #define PM_SPC_PM_EN                        (0x08u)
  46:Generated_Source\PSoC5/CySpc.c **** 
  47:Generated_Source\PSoC5/CySpc.c **** /* Gate calls to the SPC. */
  48:Generated_Source\PSoC5/CySpc.c **** uint8 SpcLockState = CY_SPC_UNLOCKED;
  49:Generated_Source\PSoC5/CySpc.c **** 
  50:Generated_Source\PSoC5/CySpc.c **** 
  51:Generated_Source\PSoC5/CySpc.c **** #if(CY_PSOC5)
  52:Generated_Source\PSoC5/CySpc.c **** 
  53:Generated_Source\PSoC5/CySpc.c ****     /***************************************************************************
  54:Generated_Source\PSoC5/CySpc.c ****     * The wait-state pipeline must be enabled prior to accessing the SPC
  55:Generated_Source\PSoC5/CySpc.c ****     * register interface regardless of CPU frequency. The CySpcLock() saves
  56:Generated_Source\PSoC5/CySpc.c ****     * current wait-state pipeline state and enables it. The CySpcUnlock()
  57:Generated_Source\PSoC5/CySpc.c ****     * function, which must be called after SPC transaction, restores original
  58:Generated_Source\PSoC5/CySpc.c ****     * state.
  59:Generated_Source\PSoC5/CySpc.c ****     ***************************************************************************/
  60:Generated_Source\PSoC5/CySpc.c ****     static uint32 spcWaitPipeBypass = 0u;
  61:Generated_Source\PSoC5/CySpc.c **** 
  62:Generated_Source\PSoC5/CySpc.c **** #endif  /* (CY_PSOC5) */
  63:Generated_Source\PSoC5/CySpc.c **** 
  64:Generated_Source\PSoC5/CySpc.c **** 
  65:Generated_Source\PSoC5/CySpc.c **** /*******************************************************************************
  66:Generated_Source\PSoC5/CySpc.c **** * Function Name: CySpcStart
  67:Generated_Source\PSoC5/CySpc.c **** ****************************************************************************//**
  68:Generated_Source\PSoC5/CySpc.c **** *  Starts the SPC.
  69:Generated_Source\PSoC5/CySpc.c **** *
  70:Generated_Source\PSoC5/CySpc.c **** *******************************************************************************/
  71:Generated_Source\PSoC5/CySpc.c **** void CySpcStart(void) 
  72:Generated_Source\PSoC5/CySpc.c **** {
  28              		.loc 1 72 0
  29              		.cfi_startproc
  30              		@ args = 0, pretend = 0, frame = 0
  31              		@ frame_needed = 0, uses_anonymous_args = 0
  32 0000 08B5     		push	{r3, lr}
  33              		.cfi_def_cfa_offset 8
  34              		.cfi_offset 3, -8
  35              		.cfi_offset 14, -4
  73:Generated_Source\PSoC5/CySpc.c ****     /* Save current global interrupt enable and disable it */
  74:Generated_Source\PSoC5/CySpc.c ****     uint8 interruptState = CyEnterCriticalSection();
  36              		.loc 1 74 0
  37 0002 FFF7FEFF 		bl	CyEnterCriticalSection
  38              	.LVL0:
  75:Generated_Source\PSoC5/CySpc.c **** 
  76:Generated_Source\PSoC5/CySpc.c ****     CY_SPC_PM_ACT_REG  |= PM_SPC_PM_EN;
ARM GAS  C:\Users\ingan\AppData\Local\Temp\cc4cIvUc.s 			page 3


  39              		.loc 1 76 0
  40 0006 0749     		ldr	r1, .L3
  77:Generated_Source\PSoC5/CySpc.c ****     CY_SPC_PM_STBY_REG |= PM_SPC_PM_EN;
  41              		.loc 1 77 0
  42 0008 074A     		ldr	r2, .L3+4
  76:Generated_Source\PSoC5/CySpc.c ****     CY_SPC_PM_STBY_REG |= PM_SPC_PM_EN;
  43              		.loc 1 76 0
  44 000a 0B78     		ldrb	r3, [r1]	@ zero_extendqisi2
  45 000c 43F00803 		orr	r3, r3, #8
  46 0010 0B70     		strb	r3, [r1]
  47              		.loc 1 77 0
  48 0012 1378     		ldrb	r3, [r2]	@ zero_extendqisi2
  49 0014 43F00803 		orr	r3, r3, #8
  50 0018 1370     		strb	r3, [r2]
  78:Generated_Source\PSoC5/CySpc.c **** 
  79:Generated_Source\PSoC5/CySpc.c ****     /* Restore global interrupt enable state */
  80:Generated_Source\PSoC5/CySpc.c ****     CyExitCriticalSection(interruptState);
  81:Generated_Source\PSoC5/CySpc.c **** }
  51              		.loc 1 81 0
  52 001a BDE80840 		pop	{r3, lr}
  53              		.cfi_restore 14
  54              		.cfi_restore 3
  55              		.cfi_def_cfa_offset 0
  80:Generated_Source\PSoC5/CySpc.c **** }
  56              		.loc 1 80 0
  57 001e FFF7FEBF 		b	CyExitCriticalSection
  58              	.LVL1:
  59              	.L4:
  60 0022 00BF     		.align	2
  61              	.L3:
  62 0024 A0430040 		.word	1073759136
  63 0028 B0430040 		.word	1073759152
  64              		.cfi_endproc
  65              	.LFE0:
  66              		.size	CySpcStart, .-CySpcStart
  67              		.section	.text.CySpcStop,"ax",%progbits
  68              		.align	2
  69              		.global	CySpcStop
  70              		.thumb
  71              		.thumb_func
  72              		.type	CySpcStop, %function
  73              	CySpcStop:
  74              	.LFB1:
  82:Generated_Source\PSoC5/CySpc.c **** 
  83:Generated_Source\PSoC5/CySpc.c **** 
  84:Generated_Source\PSoC5/CySpc.c **** /*******************************************************************************
  85:Generated_Source\PSoC5/CySpc.c **** * Function Name: CySpcStop
  86:Generated_Source\PSoC5/CySpc.c **** ****************************************************************************//**
  87:Generated_Source\PSoC5/CySpc.c **** *  Stops the SPC.
  88:Generated_Source\PSoC5/CySpc.c **** *
  89:Generated_Source\PSoC5/CySpc.c **** *******************************************************************************/
  90:Generated_Source\PSoC5/CySpc.c **** void CySpcStop(void) 
  91:Generated_Source\PSoC5/CySpc.c **** {
  75              		.loc 1 91 0
  76              		.cfi_startproc
  77              		@ args = 0, pretend = 0, frame = 0
  78              		@ frame_needed = 0, uses_anonymous_args = 0
ARM GAS  C:\Users\ingan\AppData\Local\Temp\cc4cIvUc.s 			page 4


  79 0000 08B5     		push	{r3, lr}
  80              		.cfi_def_cfa_offset 8
  81              		.cfi_offset 3, -8
  82              		.cfi_offset 14, -4
  92:Generated_Source\PSoC5/CySpc.c ****     /* Save current global interrupt enable and disable it */
  93:Generated_Source\PSoC5/CySpc.c ****     uint8 interruptState = CyEnterCriticalSection();
  83              		.loc 1 93 0
  84 0002 FFF7FEFF 		bl	CyEnterCriticalSection
  85              	.LVL2:
  94:Generated_Source\PSoC5/CySpc.c **** 
  95:Generated_Source\PSoC5/CySpc.c ****     CY_SPC_PM_ACT_REG  &= ((uint8)(~PM_SPC_PM_EN));
  86              		.loc 1 95 0
  87 0006 0749     		ldr	r1, .L7
  96:Generated_Source\PSoC5/CySpc.c ****     CY_SPC_PM_STBY_REG &= ((uint8)(~PM_SPC_PM_EN));
  88              		.loc 1 96 0
  89 0008 074A     		ldr	r2, .L7+4
  95:Generated_Source\PSoC5/CySpc.c ****     CY_SPC_PM_STBY_REG &= ((uint8)(~PM_SPC_PM_EN));
  90              		.loc 1 95 0
  91 000a 0B78     		ldrb	r3, [r1]	@ zero_extendqisi2
  92 000c 03F0F703 		and	r3, r3, #247
  93 0010 0B70     		strb	r3, [r1]
  94              		.loc 1 96 0
  95 0012 1378     		ldrb	r3, [r2]	@ zero_extendqisi2
  96 0014 03F0F703 		and	r3, r3, #247
  97 0018 1370     		strb	r3, [r2]
  97:Generated_Source\PSoC5/CySpc.c **** 
  98:Generated_Source\PSoC5/CySpc.c ****     /* Restore global interrupt enable state */
  99:Generated_Source\PSoC5/CySpc.c ****     CyExitCriticalSection(interruptState);
 100:Generated_Source\PSoC5/CySpc.c **** }
  98              		.loc 1 100 0
  99 001a BDE80840 		pop	{r3, lr}
 100              		.cfi_restore 14
 101              		.cfi_restore 3
 102              		.cfi_def_cfa_offset 0
  99:Generated_Source\PSoC5/CySpc.c **** }
 103              		.loc 1 99 0
 104 001e FFF7FEBF 		b	CyExitCriticalSection
 105              	.LVL3:
 106              	.L8:
 107 0022 00BF     		.align	2
 108              	.L7:
 109 0024 A0430040 		.word	1073759136
 110 0028 B0430040 		.word	1073759152
 111              		.cfi_endproc
 112              	.LFE1:
 113              		.size	CySpcStop, .-CySpcStop
 114              		.section	.text.CySpcReadData,"ax",%progbits
 115              		.align	2
 116              		.global	CySpcReadData
 117              		.thumb
 118              		.thumb_func
 119              		.type	CySpcReadData, %function
 120              	CySpcReadData:
 121              	.LFB2:
 101:Generated_Source\PSoC5/CySpc.c **** 
 102:Generated_Source\PSoC5/CySpc.c **** 
 103:Generated_Source\PSoC5/CySpc.c **** /*******************************************************************************
ARM GAS  C:\Users\ingan\AppData\Local\Temp\cc4cIvUc.s 			page 5


 104:Generated_Source\PSoC5/CySpc.c **** * Function Name: CySpcReadData
 105:Generated_Source\PSoC5/CySpc.c **** ****************************************************************************//**
 106:Generated_Source\PSoC5/CySpc.c **** *  Reads data from the SPC.
 107:Generated_Source\PSoC5/CySpc.c **** *
 108:Generated_Source\PSoC5/CySpc.c **** *  \param uint8 buffer:
 109:Generated_Source\PSoC5/CySpc.c **** *   Address to store data read.
 110:Generated_Source\PSoC5/CySpc.c **** *
 111:Generated_Source\PSoC5/CySpc.c **** *  \param uint8 size:
 112:Generated_Source\PSoC5/CySpc.c **** *   Number of bytes to read from the SPC.
 113:Generated_Source\PSoC5/CySpc.c **** *
 114:Generated_Source\PSoC5/CySpc.c **** * \return
 115:Generated_Source\PSoC5/CySpc.c **** *  uint8:
 116:Generated_Source\PSoC5/CySpc.c **** *   The number of bytes read from the SPC.
 117:Generated_Source\PSoC5/CySpc.c **** *
 118:Generated_Source\PSoC5/CySpc.c **** *******************************************************************************/
 119:Generated_Source\PSoC5/CySpc.c **** uint8 CySpcReadData(uint8 buffer[], uint8 size) 
 120:Generated_Source\PSoC5/CySpc.c **** {
 122              		.loc 1 120 0
 123              		.cfi_startproc
 124              		@ args = 0, pretend = 0, frame = 0
 125              		@ frame_needed = 0, uses_anonymous_args = 0
 126              	.LVL4:
 127 0000 2DE9F041 		push	{r4, r5, r6, r7, r8, lr}
 128              		.cfi_def_cfa_offset 24
 129              		.cfi_offset 4, -24
 130              		.cfi_offset 5, -20
 131              		.cfi_offset 6, -16
 132              		.cfi_offset 7, -12
 133              		.cfi_offset 8, -8
 134              		.cfi_offset 14, -4
 121:Generated_Source\PSoC5/CySpc.c ****     uint8 i;
 122:Generated_Source\PSoC5/CySpc.c **** 
 123:Generated_Source\PSoC5/CySpc.c ****     for(i = 0u; i < size; i++)
 135              		.loc 1 123 0
 136 0004 0F46     		mov	r7, r1
 137 0006 99B1     		cbz	r1, .L10
 138 0008 4E1E     		subs	r6, r1, #1
 139 000a F6B2     		uxtb	r6, r6
 140 000c 0644     		add	r6, r6, r0
 141 000e 451E     		subs	r5, r0, #1
 124:Generated_Source\PSoC5/CySpc.c ****     {
 125:Generated_Source\PSoC5/CySpc.c ****         while(!CY_SPC_DATA_READY)
 142              		.loc 1 125 0
 143 0010 094C     		ldr	r4, .L24
 126:Generated_Source\PSoC5/CySpc.c ****         {
 127:Generated_Source\PSoC5/CySpc.c ****             CyDelayUs(1u);
 128:Generated_Source\PSoC5/CySpc.c ****         }
 129:Generated_Source\PSoC5/CySpc.c ****         buffer[i] = CY_SPC_CPU_DATA_REG;
 144              		.loc 1 129 0
 145 0012 DFF82880 		ldr	r8, .L24+4
 146 0016 02E0     		b	.L22
 147              	.LVL5:
 148              	.L12:
 127:Generated_Source\PSoC5/CySpc.c ****         }
 149              		.loc 1 127 0
 150 0018 0120     		movs	r0, #1
 151 001a FFF7FEFF 		bl	CyDelayUs
ARM GAS  C:\Users\ingan\AppData\Local\Temp\cc4cIvUc.s 			page 6


 152              	.LVL6:
 153              	.L22:
 125:Generated_Source\PSoC5/CySpc.c ****         {
 154              		.loc 1 125 0
 155 001e 2378     		ldrb	r3, [r4]	@ zero_extendqisi2
 156 0020 DB07     		lsls	r3, r3, #31
 157 0022 F9D5     		bpl	.L12
 158              		.loc 1 129 0
 159 0024 98F80030 		ldrb	r3, [r8]	@ zero_extendqisi2
 160 0028 05F8013F 		strb	r3, [r5, #1]!
 161              	.LVL7:
 123:Generated_Source\PSoC5/CySpc.c ****     {
 162              		.loc 1 123 0
 163 002c B542     		cmp	r5, r6
 164 002e F6D1     		bne	.L22
 165              	.LVL8:
 166              	.L10:
 130:Generated_Source\PSoC5/CySpc.c ****     }
 131:Generated_Source\PSoC5/CySpc.c **** 
 132:Generated_Source\PSoC5/CySpc.c ****     return(i);
 133:Generated_Source\PSoC5/CySpc.c **** }
 167              		.loc 1 133 0
 168 0030 3846     		mov	r0, r7
 169 0032 BDE8F081 		pop	{r4, r5, r6, r7, r8, pc}
 170              	.L25:
 171 0036 00BF     		.align	2
 172              	.L24:
 173 0038 22470040 		.word	1073760034
 174 003c 20470040 		.word	1073760032
 175              		.cfi_endproc
 176              	.LFE2:
 177              		.size	CySpcReadData, .-CySpcReadData
 178              		.section	.text.CySpcLoadMultiByte,"ax",%progbits
 179              		.align	2
 180              		.global	CySpcLoadMultiByte
 181              		.thumb
 182              		.thumb_func
 183              		.type	CySpcLoadMultiByte, %function
 184              	CySpcLoadMultiByte:
 185              	.LFB3:
 134:Generated_Source\PSoC5/CySpc.c **** 
 135:Generated_Source\PSoC5/CySpc.c **** 
 136:Generated_Source\PSoC5/CySpc.c **** /*******************************************************************************
 137:Generated_Source\PSoC5/CySpc.c **** * Function Name: CySpcLoadMultiByte
 138:Generated_Source\PSoC5/CySpc.c **** ****************************************************************************//**
 139:Generated_Source\PSoC5/CySpc.c **** *  Loads 1 to 32 bytes of data into the row latch of a Flash/EEPROM array.
 140:Generated_Source\PSoC5/CySpc.c **** *
 141:Generated_Source\PSoC5/CySpc.c **** *  \param uint8 array:
 142:Generated_Source\PSoC5/CySpc.c **** *   Id of the array.
 143:Generated_Source\PSoC5/CySpc.c **** *
 144:Generated_Source\PSoC5/CySpc.c **** *  \param uint16 address:
 145:Generated_Source\PSoC5/CySpc.c **** *   Flash/eeprom addrress
 146:Generated_Source\PSoC5/CySpc.c **** *
 147:Generated_Source\PSoC5/CySpc.c **** *  \param uint8* buffer:
 148:Generated_Source\PSoC5/CySpc.c **** *   Data to load to the row latch
 149:Generated_Source\PSoC5/CySpc.c **** *
 150:Generated_Source\PSoC5/CySpc.c **** *  \param uint16 number:
ARM GAS  C:\Users\ingan\AppData\Local\Temp\cc4cIvUc.s 			page 7


 151:Generated_Source\PSoC5/CySpc.c **** *   Number bytes to load.
 152:Generated_Source\PSoC5/CySpc.c **** *
 153:Generated_Source\PSoC5/CySpc.c **** * \return
 154:Generated_Source\PSoC5/CySpc.c **** *  CYRET_STARTED
 155:Generated_Source\PSoC5/CySpc.c **** *  CYRET_CANCELED
 156:Generated_Source\PSoC5/CySpc.c **** *  CYRET_LOCKED
 157:Generated_Source\PSoC5/CySpc.c **** *  CYRET_BAD_PARAM
 158:Generated_Source\PSoC5/CySpc.c **** *
 159:Generated_Source\PSoC5/CySpc.c **** *******************************************************************************/
 160:Generated_Source\PSoC5/CySpc.c **** cystatus CySpcLoadMultiByte(uint8 array, uint16 address, const uint8 buffer[], uint8 size)\
 161:Generated_Source\PSoC5/CySpc.c **** 
 162:Generated_Source\PSoC5/CySpc.c **** {
 186              		.loc 1 162 0
 187              		.cfi_startproc
 188              		@ args = 0, pretend = 0, frame = 0
 189              		@ frame_needed = 0, uses_anonymous_args = 0
 190              		@ link register save eliminated.
 191              	.LVL9:
 163:Generated_Source\PSoC5/CySpc.c ****     cystatus status = CYRET_STARTED;
 164:Generated_Source\PSoC5/CySpc.c ****     uint8 i;
 165:Generated_Source\PSoC5/CySpc.c **** 
 166:Generated_Source\PSoC5/CySpc.c ****     /***************************************************************************
 167:Generated_Source\PSoC5/CySpc.c ****     * Check if number is correct for array. Number must be less than
 168:Generated_Source\PSoC5/CySpc.c ****     * 32 for Flash or less than 16 for EEPROM.
 169:Generated_Source\PSoC5/CySpc.c ****     ***************************************************************************/
 170:Generated_Source\PSoC5/CySpc.c ****     if(((array < CY_SPC_LAST_FLASH_ARRAYID) && (size < 32u)) ||
 192              		.loc 1 170 0
 193 0000 3E28     		cmp	r0, #62
 162:Generated_Source\PSoC5/CySpc.c ****     cystatus status = CYRET_STARTED;
 194              		.loc 1 162 0
 195 0002 F0B4     		push	{r4, r5, r6, r7}
 196              		.cfi_def_cfa_offset 16
 197              		.cfi_offset 4, -16
 198              		.cfi_offset 5, -12
 199              		.cfi_offset 6, -8
 200              		.cfi_offset 7, -4
 201              		.loc 1 170 0
 202 0004 08D8     		bhi	.L27
 203              		.loc 1 170 0 is_stmt 0 discriminator 1
 204 0006 1F2B     		cmp	r3, #31
 205 0008 0AD8     		bhi	.L34
 206              	.L28:
 171:Generated_Source\PSoC5/CySpc.c ****        ((array > CY_SPC_LAST_FLASH_ARRAYID) && (size < 16u)))
 172:Generated_Source\PSoC5/CySpc.c ****     {
 173:Generated_Source\PSoC5/CySpc.c ****         if(CY_SPC_IDLE)
 207              		.loc 1 173 0 is_stmt 1
 208 000a 174D     		ldr	r5, .L41
 209 000c 2C78     		ldrb	r4, [r5]	@ zero_extendqisi2
 210 000e A607     		lsls	r6, r4, #30
 211 0010 09D4     		bmi	.L39
 174:Generated_Source\PSoC5/CySpc.c ****         {
 175:Generated_Source\PSoC5/CySpc.c ****             CY_SPC_CPU_DATA_REG = CY_SPC_KEY_ONE;
 176:Generated_Source\PSoC5/CySpc.c ****             CY_SPC_CPU_DATA_REG = CY_SPC_KEY_TWO(CY_SPC_CMD_LD_MULTI_BYTE);
 177:Generated_Source\PSoC5/CySpc.c ****             CY_SPC_CPU_DATA_REG = CY_SPC_CMD_LD_MULTI_BYTE;
 178:Generated_Source\PSoC5/CySpc.c **** 
 179:Generated_Source\PSoC5/CySpc.c ****             if(CY_SPC_BUSY)
 180:Generated_Source\PSoC5/CySpc.c ****             {
ARM GAS  C:\Users\ingan\AppData\Local\Temp\cc4cIvUc.s 			page 8


 181:Generated_Source\PSoC5/CySpc.c ****                 CY_SPC_CPU_DATA_REG = array;
 182:Generated_Source\PSoC5/CySpc.c ****                 CY_SPC_CPU_DATA_REG = 1u & HI8(address);
 183:Generated_Source\PSoC5/CySpc.c ****                 CY_SPC_CPU_DATA_REG = LO8(address);
 184:Generated_Source\PSoC5/CySpc.c ****                 CY_SPC_CPU_DATA_REG = ((uint8)(size - 1u));
 185:Generated_Source\PSoC5/CySpc.c **** 
 186:Generated_Source\PSoC5/CySpc.c ****                 for(i = 0u; i < size; i++)
 187:Generated_Source\PSoC5/CySpc.c ****                 {
 188:Generated_Source\PSoC5/CySpc.c ****                     CY_SPC_CPU_DATA_REG = buffer[i];
 189:Generated_Source\PSoC5/CySpc.c ****                 }
 190:Generated_Source\PSoC5/CySpc.c ****             }
 191:Generated_Source\PSoC5/CySpc.c ****             else
 192:Generated_Source\PSoC5/CySpc.c ****             {
 193:Generated_Source\PSoC5/CySpc.c ****                 status = CYRET_CANCELED;
 194:Generated_Source\PSoC5/CySpc.c ****             }
 195:Generated_Source\PSoC5/CySpc.c ****         }
 196:Generated_Source\PSoC5/CySpc.c ****         else
 197:Generated_Source\PSoC5/CySpc.c ****         {
 198:Generated_Source\PSoC5/CySpc.c ****             status = CYRET_LOCKED;
 212              		.loc 1 198 0
 213 0012 0420     		movs	r0, #4
 214              	.LVL10:
 215              	.L29:
 199:Generated_Source\PSoC5/CySpc.c ****         }
 200:Generated_Source\PSoC5/CySpc.c ****     }
 201:Generated_Source\PSoC5/CySpc.c ****     else
 202:Generated_Source\PSoC5/CySpc.c ****     {
 203:Generated_Source\PSoC5/CySpc.c ****         status = CYRET_BAD_PARAM;
 204:Generated_Source\PSoC5/CySpc.c ****     }
 205:Generated_Source\PSoC5/CySpc.c **** 
 206:Generated_Source\PSoC5/CySpc.c ****     return(status);
 207:Generated_Source\PSoC5/CySpc.c **** }
 216              		.loc 1 207 0
 217 0014 F0BC     		pop	{r4, r5, r6, r7}
 218              		.cfi_remember_state
 219              		.cfi_restore 7
 220              		.cfi_restore 6
 221              		.cfi_restore 5
 222              		.cfi_restore 4
 223              		.cfi_def_cfa_offset 0
 224 0016 7047     		bx	lr
 225              	.LVL11:
 226              	.L27:
 227              		.cfi_restore_state
 170:Generated_Source\PSoC5/CySpc.c ****        ((array > CY_SPC_LAST_FLASH_ARRAYID) && (size < 16u)))
 228              		.loc 1 170 0 discriminator 3
 229 0018 3F28     		cmp	r0, #63
 230 001a 01D0     		beq	.L34
 171:Generated_Source\PSoC5/CySpc.c ****     {
 231              		.loc 1 171 0
 232 001c 0F2B     		cmp	r3, #15
 233 001e F4D9     		bls	.L28
 234              	.L34:
 235              		.loc 1 207 0
 236 0020 F0BC     		pop	{r4, r5, r6, r7}
 237              		.cfi_remember_state
 238              		.cfi_restore 4
 239              		.cfi_restore 5
ARM GAS  C:\Users\ingan\AppData\Local\Temp\cc4cIvUc.s 			page 9


 240              		.cfi_restore 6
 241              		.cfi_restore 7
 242              		.cfi_def_cfa_offset 0
 203:Generated_Source\PSoC5/CySpc.c ****     }
 243              		.loc 1 203 0
 244 0022 0120     		movs	r0, #1
 245              	.LVL12:
 246              		.loc 1 207 0
 247 0024 7047     		bx	lr
 248              	.LVL13:
 249              	.L39:
 250              		.cfi_restore_state
 175:Generated_Source\PSoC5/CySpc.c ****             CY_SPC_CPU_DATA_REG = CY_SPC_KEY_TWO(CY_SPC_CMD_LD_MULTI_BYTE);
 251              		.loc 1 175 0
 252 0026 114C     		ldr	r4, .L41+4
 253 0028 B626     		movs	r6, #182
 254 002a 2670     		strb	r6, [r4]
 176:Generated_Source\PSoC5/CySpc.c ****             CY_SPC_CPU_DATA_REG = CY_SPC_CMD_LD_MULTI_BYTE;
 255              		.loc 1 176 0
 256 002c D427     		movs	r7, #212
 177:Generated_Source\PSoC5/CySpc.c **** 
 257              		.loc 1 177 0
 258 002e 0126     		movs	r6, #1
 176:Generated_Source\PSoC5/CySpc.c ****             CY_SPC_CPU_DATA_REG = CY_SPC_CMD_LD_MULTI_BYTE;
 259              		.loc 1 176 0
 260 0030 2770     		strb	r7, [r4]
 177:Generated_Source\PSoC5/CySpc.c **** 
 261              		.loc 1 177 0
 262 0032 2670     		strb	r6, [r4]
 179:Generated_Source\PSoC5/CySpc.c ****             {
 263              		.loc 1 179 0
 264 0034 2D78     		ldrb	r5, [r5]	@ zero_extendqisi2
 265 0036 AD07     		lsls	r5, r5, #30
 266 0038 02D5     		bpl	.L40
 267              		.loc 1 207 0
 268 003a F0BC     		pop	{r4, r5, r6, r7}
 269              		.cfi_remember_state
 270              		.cfi_restore 4
 271              		.cfi_restore 5
 272              		.cfi_restore 6
 273              		.cfi_restore 7
 274              		.cfi_def_cfa_offset 0
 193:Generated_Source\PSoC5/CySpc.c ****             }
 275              		.loc 1 193 0
 276 003c 0920     		movs	r0, #9
 277              	.LVL14:
 278              		.loc 1 207 0
 279 003e 7047     		bx	lr
 280              	.LVL15:
 281              	.L40:
 282              		.cfi_restore_state
 184:Generated_Source\PSoC5/CySpc.c **** 
 283              		.loc 1 184 0
 284 0040 5D1E     		subs	r5, r3, #1
 182:Generated_Source\PSoC5/CySpc.c ****                 CY_SPC_CPU_DATA_REG = LO8(address);
 285              		.loc 1 182 0
 286 0042 C1F30026 		ubfx	r6, r1, #8, #1
ARM GAS  C:\Users\ingan\AppData\Local\Temp\cc4cIvUc.s 			page 10


 184:Generated_Source\PSoC5/CySpc.c **** 
 287              		.loc 1 184 0
 288 0046 EDB2     		uxtb	r5, r5
 183:Generated_Source\PSoC5/CySpc.c ****                 CY_SPC_CPU_DATA_REG = ((uint8)(size - 1u));
 289              		.loc 1 183 0
 290 0048 C9B2     		uxtb	r1, r1
 291              	.LVL16:
 181:Generated_Source\PSoC5/CySpc.c ****                 CY_SPC_CPU_DATA_REG = 1u & HI8(address);
 292              		.loc 1 181 0
 293 004a 2070     		strb	r0, [r4]
 182:Generated_Source\PSoC5/CySpc.c ****                 CY_SPC_CPU_DATA_REG = LO8(address);
 294              		.loc 1 182 0
 295 004c 2670     		strb	r6, [r4]
 183:Generated_Source\PSoC5/CySpc.c ****                 CY_SPC_CPU_DATA_REG = ((uint8)(size - 1u));
 296              		.loc 1 183 0
 297 004e 2170     		strb	r1, [r4]
 184:Generated_Source\PSoC5/CySpc.c **** 
 298              		.loc 1 184 0
 299 0050 2570     		strb	r5, [r4]
 300              	.LVL17:
 186:Generated_Source\PSoC5/CySpc.c ****                 {
 301              		.loc 1 186 0
 302 0052 33B1     		cbz	r3, .L32
 303 0054 5119     		adds	r1, r2, r5
 304 0056 013A     		subs	r2, r2, #1
 305              	.LVL18:
 306              	.L31:
 188:Generated_Source\PSoC5/CySpc.c ****                 }
 307              		.loc 1 188 0 discriminator 3
 308 0058 12F8013F 		ldrb	r3, [r2, #1]!	@ zero_extendqisi2
 309              	.LVL19:
 186:Generated_Source\PSoC5/CySpc.c ****                 {
 310              		.loc 1 186 0 discriminator 3
 311 005c 8A42     		cmp	r2, r1
 188:Generated_Source\PSoC5/CySpc.c ****                 }
 312              		.loc 1 188 0 discriminator 3
 313 005e 2370     		strb	r3, [r4]
 314              	.LVL20:
 186:Generated_Source\PSoC5/CySpc.c ****                 {
 315              		.loc 1 186 0 discriminator 3
 316 0060 FAD1     		bne	.L31
 317              	.LVL21:
 318              	.L32:
 163:Generated_Source\PSoC5/CySpc.c ****     uint8 i;
 319              		.loc 1 163 0
 320 0062 0720     		movs	r0, #7
 321              	.LVL22:
 322 0064 D6E7     		b	.L29
 323              	.L42:
 324 0066 00BF     		.align	2
 325              	.L41:
 326 0068 22470040 		.word	1073760034
 327 006c 20470040 		.word	1073760032
 328              		.cfi_endproc
 329              	.LFE3:
 330              		.size	CySpcLoadMultiByte, .-CySpcLoadMultiByte
 331              		.section	.text.CySpcLoadRow,"ax",%progbits
ARM GAS  C:\Users\ingan\AppData\Local\Temp\cc4cIvUc.s 			page 11


 332              		.align	2
 333              		.global	CySpcLoadRow
 334              		.thumb
 335              		.thumb_func
 336              		.type	CySpcLoadRow, %function
 337              	CySpcLoadRow:
 338              	.LFB4:
 208:Generated_Source\PSoC5/CySpc.c **** 
 209:Generated_Source\PSoC5/CySpc.c **** 
 210:Generated_Source\PSoC5/CySpc.c **** /*******************************************************************************
 211:Generated_Source\PSoC5/CySpc.c **** * Function Name: CySpcLoadRow
 212:Generated_Source\PSoC5/CySpc.c **** ****************************************************************************//**
 213:Generated_Source\PSoC5/CySpc.c **** *  Loads a row of data into the row latch of a Flash/EEPROM array.
 214:Generated_Source\PSoC5/CySpc.c **** *
 215:Generated_Source\PSoC5/CySpc.c **** *  The buffer pointer should point to the data that should be written to the
 216:Generated_Source\PSoC5/CySpc.c **** *  flash row directly (no data in ECC/flash will be preserved). It is Flash API
 217:Generated_Source\PSoC5/CySpc.c **** *  responsibility to prepare data: the preserved data are copied from flash into
 218:Generated_Source\PSoC5/CySpc.c **** *  array with the modified data.
 219:Generated_Source\PSoC5/CySpc.c **** *
 220:Generated_Source\PSoC5/CySpc.c **** *  \param uint8 array:
 221:Generated_Source\PSoC5/CySpc.c **** *   Id of the array.
 222:Generated_Source\PSoC5/CySpc.c **** *
 223:Generated_Source\PSoC5/CySpc.c **** *  \param uint8* buffer:
 224:Generated_Source\PSoC5/CySpc.c **** *   Data to be loaded to the row latch
 225:Generated_Source\PSoC5/CySpc.c **** *
 226:Generated_Source\PSoC5/CySpc.c **** *  \param uint8 size:
 227:Generated_Source\PSoC5/CySpc.c **** *   The number of data bytes that the SPC expects to be written. Depends on the
 228:Generated_Source\PSoC5/CySpc.c **** *   type of the array and, if the array is Flash, whether ECC is being enabled
 229:Generated_Source\PSoC5/CySpc.c **** *   or not. There are following values: flash row latch size with ECC enabled,
 230:Generated_Source\PSoC5/CySpc.c **** *   flash row latch size with ECC disabled and EEPROM row latch size.
 231:Generated_Source\PSoC5/CySpc.c **** *
 232:Generated_Source\PSoC5/CySpc.c **** * \return
 233:Generated_Source\PSoC5/CySpc.c **** *  CYRET_STARTED
 234:Generated_Source\PSoC5/CySpc.c **** *  CYRET_CANCELED
 235:Generated_Source\PSoC5/CySpc.c **** *  CYRET_LOCKED
 236:Generated_Source\PSoC5/CySpc.c **** *
 237:Generated_Source\PSoC5/CySpc.c **** *******************************************************************************/
 238:Generated_Source\PSoC5/CySpc.c **** cystatus CySpcLoadRow(uint8 array, const uint8 buffer[], uint16 size)
 239:Generated_Source\PSoC5/CySpc.c **** {
 339              		.loc 1 239 0
 340              		.cfi_startproc
 341              		@ args = 0, pretend = 0, frame = 0
 342              		@ frame_needed = 0, uses_anonymous_args = 0
 343              		@ link register save eliminated.
 344              	.LVL23:
 345 0000 F0B4     		push	{r4, r5, r6, r7}
 346              		.cfi_def_cfa_offset 16
 347              		.cfi_offset 4, -16
 348              		.cfi_offset 5, -12
 349              		.cfi_offset 6, -8
 350              		.cfi_offset 7, -4
 240:Generated_Source\PSoC5/CySpc.c ****     cystatus status = CYRET_STARTED;
 241:Generated_Source\PSoC5/CySpc.c ****     uint16 i;
 242:Generated_Source\PSoC5/CySpc.c **** 
 243:Generated_Source\PSoC5/CySpc.c ****     /* Make sure the SPC is ready to accept command */
 244:Generated_Source\PSoC5/CySpc.c ****     if(CY_SPC_IDLE)
 351              		.loc 1 244 0
ARM GAS  C:\Users\ingan\AppData\Local\Temp\cc4cIvUc.s 			page 12


 352 0002 114C     		ldr	r4, .L52
 353              	.LVL24:
 354 0004 2378     		ldrb	r3, [r4]	@ zero_extendqisi2
 355 0006 9D07     		lsls	r5, r3, #30
 356 0008 1BD5     		bpl	.L48
 245:Generated_Source\PSoC5/CySpc.c ****     {
 246:Generated_Source\PSoC5/CySpc.c ****         CY_SPC_CPU_DATA_REG = CY_SPC_KEY_ONE;
 357              		.loc 1 246 0
 358 000a 104B     		ldr	r3, .L52+4
 359 000c B627     		movs	r7, #182
 247:Generated_Source\PSoC5/CySpc.c ****         CY_SPC_CPU_DATA_REG = CY_SPC_KEY_TWO(CY_SPC_CMD_LD_ROW);
 360              		.loc 1 247 0
 361 000e D526     		movs	r6, #213
 248:Generated_Source\PSoC5/CySpc.c ****         CY_SPC_CPU_DATA_REG = CY_SPC_CMD_LD_ROW;
 362              		.loc 1 248 0
 363 0010 0225     		movs	r5, #2
 246:Generated_Source\PSoC5/CySpc.c ****         CY_SPC_CPU_DATA_REG = CY_SPC_KEY_TWO(CY_SPC_CMD_LD_ROW);
 364              		.loc 1 246 0
 365 0012 1F70     		strb	r7, [r3]
 247:Generated_Source\PSoC5/CySpc.c ****         CY_SPC_CPU_DATA_REG = CY_SPC_KEY_TWO(CY_SPC_CMD_LD_ROW);
 366              		.loc 1 247 0
 367 0014 1E70     		strb	r6, [r3]
 368              		.loc 1 248 0
 369 0016 1D70     		strb	r5, [r3]
 249:Generated_Source\PSoC5/CySpc.c **** 
 250:Generated_Source\PSoC5/CySpc.c ****         /* Make sure the command was accepted */
 251:Generated_Source\PSoC5/CySpc.c ****         if(CY_SPC_BUSY)
 370              		.loc 1 251 0
 371 0018 2478     		ldrb	r4, [r4]	@ zero_extendqisi2
 372 001a A407     		lsls	r4, r4, #30
 373 001c 0ED4     		bmi	.L49
 252:Generated_Source\PSoC5/CySpc.c ****         {
 253:Generated_Source\PSoC5/CySpc.c ****             CY_SPC_CPU_DATA_REG = array;
 374              		.loc 1 253 0
 375 001e 1870     		strb	r0, [r3]
 376              	.LVL25:
 254:Generated_Source\PSoC5/CySpc.c **** 
 255:Generated_Source\PSoC5/CySpc.c ****             for(i = 0u; i < size; i++)
 377              		.loc 1 255 0
 378 0020 4AB1     		cbz	r2, .L47
 256:Generated_Source\PSoC5/CySpc.c ****             {
 257:Generated_Source\PSoC5/CySpc.c ****                 CY_SPC_CPU_DATA_REG = buffer[i];
 379              		.loc 1 257 0
 380 0022 1846     		mov	r0, r3
 381              	.LVL26:
 382 0024 013A     		subs	r2, r2, #1
 383              	.LVL27:
 384 0026 92B2     		uxth	r2, r2
 385 0028 0A44     		add	r2, r2, r1
 386 002a 0139     		subs	r1, r1, #1
 387              	.LVL28:
 388              	.L46:
 389              		.loc 1 257 0 is_stmt 0 discriminator 3
 390 002c 11F8013F 		ldrb	r3, [r1, #1]!	@ zero_extendqisi2
 391              	.LVL29:
 255:Generated_Source\PSoC5/CySpc.c ****             {
 392              		.loc 1 255 0 is_stmt 1 discriminator 3
ARM GAS  C:\Users\ingan\AppData\Local\Temp\cc4cIvUc.s 			page 13


 393 0030 9142     		cmp	r1, r2
 394              		.loc 1 257 0 discriminator 3
 395 0032 0370     		strb	r3, [r0]
 396              	.LVL30:
 255:Generated_Source\PSoC5/CySpc.c ****             {
 397              		.loc 1 255 0 discriminator 3
 398 0034 FAD1     		bne	.L46
 399              	.LVL31:
 400              	.L47:
 240:Generated_Source\PSoC5/CySpc.c ****     uint16 i;
 401              		.loc 1 240 0
 402 0036 0720     		movs	r0, #7
 403              	.LVL32:
 258:Generated_Source\PSoC5/CySpc.c ****             }
 259:Generated_Source\PSoC5/CySpc.c ****         }
 260:Generated_Source\PSoC5/CySpc.c ****         else
 261:Generated_Source\PSoC5/CySpc.c ****         {
 262:Generated_Source\PSoC5/CySpc.c ****             status = CYRET_CANCELED;
 263:Generated_Source\PSoC5/CySpc.c ****         }
 264:Generated_Source\PSoC5/CySpc.c ****     }
 265:Generated_Source\PSoC5/CySpc.c ****     else
 266:Generated_Source\PSoC5/CySpc.c ****     {
 267:Generated_Source\PSoC5/CySpc.c ****         status = CYRET_LOCKED;
 268:Generated_Source\PSoC5/CySpc.c ****     }
 269:Generated_Source\PSoC5/CySpc.c **** 
 270:Generated_Source\PSoC5/CySpc.c ****     return(status);
 271:Generated_Source\PSoC5/CySpc.c **** }
 404              		.loc 1 271 0
 405 0038 F0BC     		pop	{r4, r5, r6, r7}
 406              		.cfi_remember_state
 407              		.cfi_restore 7
 408              		.cfi_restore 6
 409              		.cfi_restore 5
 410              		.cfi_restore 4
 411              		.cfi_def_cfa_offset 0
 412 003a 7047     		bx	lr
 413              	.LVL33:
 414              	.L49:
 415              		.cfi_restore_state
 262:Generated_Source\PSoC5/CySpc.c ****         }
 416              		.loc 1 262 0
 417 003c 0920     		movs	r0, #9
 418              	.LVL34:
 419              		.loc 1 271 0
 420 003e F0BC     		pop	{r4, r5, r6, r7}
 421              		.cfi_remember_state
 422              		.cfi_restore 4
 423              		.cfi_restore 5
 424              		.cfi_restore 6
 425              		.cfi_restore 7
 426              		.cfi_def_cfa_offset 0
 427 0040 7047     		bx	lr
 428              	.LVL35:
 429              	.L48:
 430              		.cfi_restore_state
 267:Generated_Source\PSoC5/CySpc.c ****     }
 431              		.loc 1 267 0
ARM GAS  C:\Users\ingan\AppData\Local\Temp\cc4cIvUc.s 			page 14


 432 0042 0420     		movs	r0, #4
 433              	.LVL36:
 434              		.loc 1 271 0
 435 0044 F0BC     		pop	{r4, r5, r6, r7}
 436              		.cfi_restore 4
 437              		.cfi_restore 5
 438              		.cfi_restore 6
 439              		.cfi_restore 7
 440              		.cfi_def_cfa_offset 0
 441 0046 7047     		bx	lr
 442              	.L53:
 443              		.align	2
 444              	.L52:
 445 0048 22470040 		.word	1073760034
 446 004c 20470040 		.word	1073760032
 447              		.cfi_endproc
 448              	.LFE4:
 449              		.size	CySpcLoadRow, .-CySpcLoadRow
 450              		.section	.text.CySpcLoadRowFull,"ax",%progbits
 451              		.align	2
 452              		.global	CySpcLoadRowFull
 453              		.thumb
 454              		.thumb_func
 455              		.type	CySpcLoadRowFull, %function
 456              	CySpcLoadRowFull:
 457              	.LFB5:
 272:Generated_Source\PSoC5/CySpc.c **** 
 273:Generated_Source\PSoC5/CySpc.c **** 
 274:Generated_Source\PSoC5/CySpc.c **** /*******************************************************************************
 275:Generated_Source\PSoC5/CySpc.c **** * Function Name: CySpcLoadRowFull
 276:Generated_Source\PSoC5/CySpc.c **** ****************************************************************************//**
 277:Generated_Source\PSoC5/CySpc.c **** *  Loads a row of data into the row latch of a Flash/EEPROM array.
 278:Generated_Source\PSoC5/CySpc.c **** *
 279:Generated_Source\PSoC5/CySpc.c **** *  The only data that are going to be changed should be passed. The function
 280:Generated_Source\PSoC5/CySpc.c **** *  will handle unmodified data preservation based on DWR settings and input
 281:Generated_Source\PSoC5/CySpc.c **** *  parameters.
 282:Generated_Source\PSoC5/CySpc.c **** *
 283:Generated_Source\PSoC5/CySpc.c **** *  \param uint8 array:
 284:Generated_Source\PSoC5/CySpc.c **** *   Id of the array.
 285:Generated_Source\PSoC5/CySpc.c **** *
 286:Generated_Source\PSoC5/CySpc.c **** *  \param uint16 row:
 287:Generated_Source\PSoC5/CySpc.c **** *   Flash row number to be loaded.
 288:Generated_Source\PSoC5/CySpc.c **** *
 289:Generated_Source\PSoC5/CySpc.c **** *  \param uint8* buffer:
 290:Generated_Source\PSoC5/CySpc.c **** *   Data to be loaded to the row latch
 291:Generated_Source\PSoC5/CySpc.c **** *
 292:Generated_Source\PSoC5/CySpc.c **** *  \param uint8 size:
 293:Generated_Source\PSoC5/CySpc.c **** *   The number of data bytes that the SPC expects to be written. Depends on the
 294:Generated_Source\PSoC5/CySpc.c **** *   type of the array and, if the array is Flash, whether ECC is being enabled
 295:Generated_Source\PSoC5/CySpc.c **** *   or not. There are following values: flash row latch size with ECC enabled,
 296:Generated_Source\PSoC5/CySpc.c **** *   flash row latch size with ECC disabled and EEPROM row latch size.
 297:Generated_Source\PSoC5/CySpc.c **** *
 298:Generated_Source\PSoC5/CySpc.c **** * \return
 299:Generated_Source\PSoC5/CySpc.c **** *  CYRET_STARTED
 300:Generated_Source\PSoC5/CySpc.c **** *  CYRET_CANCELED
 301:Generated_Source\PSoC5/CySpc.c **** *  CYRET_LOCKED
 302:Generated_Source\PSoC5/CySpc.c **** *
ARM GAS  C:\Users\ingan\AppData\Local\Temp\cc4cIvUc.s 			page 15


 303:Generated_Source\PSoC5/CySpc.c **** *******************************************************************************/
 304:Generated_Source\PSoC5/CySpc.c **** cystatus CySpcLoadRowFull(uint8 array, uint16 row, const uint8 buffer[], uint16 size)\
 305:Generated_Source\PSoC5/CySpc.c **** 
 306:Generated_Source\PSoC5/CySpc.c **** {
 458              		.loc 1 306 0
 459              		.cfi_startproc
 460              		@ args = 0, pretend = 0, frame = 0
 461              		@ frame_needed = 0, uses_anonymous_args = 0
 462              		@ link register save eliminated.
 463              	.LVL37:
 464 0000 F0B4     		push	{r4, r5, r6, r7}
 465              		.cfi_def_cfa_offset 16
 466              		.cfi_offset 4, -16
 467              		.cfi_offset 5, -12
 468              		.cfi_offset 6, -8
 469              		.cfi_offset 7, -4
 307:Generated_Source\PSoC5/CySpc.c ****     cystatus status = CYRET_STARTED;
 308:Generated_Source\PSoC5/CySpc.c ****     uint16 i;
 309:Generated_Source\PSoC5/CySpc.c **** 
 310:Generated_Source\PSoC5/CySpc.c ****     #if (CYDEV_ECC_ENABLE == 0)
 311:Generated_Source\PSoC5/CySpc.c ****         uint32 offset;
 312:Generated_Source\PSoC5/CySpc.c ****     #endif /* (CYDEV_ECC_ENABLE == 0) */
 313:Generated_Source\PSoC5/CySpc.c **** 
 314:Generated_Source\PSoC5/CySpc.c ****     /* Make sure the SPC is ready to accept command */
 315:Generated_Source\PSoC5/CySpc.c ****     if(CY_SPC_IDLE)
 470              		.loc 1 315 0
 471 0002 234C     		ldr	r4, .L72
 472 0004 2578     		ldrb	r5, [r4]	@ zero_extendqisi2
 473              	.LVL38:
 474 0006 AD07     		lsls	r5, r5, #30
 475 0008 1FD5     		bpl	.L63
 316:Generated_Source\PSoC5/CySpc.c ****     {
 317:Generated_Source\PSoC5/CySpc.c ****         CY_SPC_CPU_DATA_REG = CY_SPC_KEY_ONE;
 476              		.loc 1 317 0
 477 000a 224E     		ldr	r6, .L72+4
 478 000c B625     		movs	r5, #182
 479 000e 3570     		strb	r5, [r6]
 318:Generated_Source\PSoC5/CySpc.c ****         CY_SPC_CPU_DATA_REG = CY_SPC_KEY_TWO(CY_SPC_CMD_LD_ROW);
 480              		.loc 1 318 0
 481 0010 D527     		movs	r7, #213
 319:Generated_Source\PSoC5/CySpc.c ****         CY_SPC_CPU_DATA_REG = CY_SPC_CMD_LD_ROW;
 482              		.loc 1 319 0
 483 0012 0225     		movs	r5, #2
 318:Generated_Source\PSoC5/CySpc.c ****         CY_SPC_CPU_DATA_REG = CY_SPC_KEY_TWO(CY_SPC_CMD_LD_ROW);
 484              		.loc 1 318 0
 485 0014 3770     		strb	r7, [r6]
 486              		.loc 1 319 0
 487 0016 3570     		strb	r5, [r6]
 320:Generated_Source\PSoC5/CySpc.c **** 
 321:Generated_Source\PSoC5/CySpc.c ****         /* Make sure the command was accepted */
 322:Generated_Source\PSoC5/CySpc.c ****         if(CY_SPC_BUSY)
 488              		.loc 1 322 0
 489 0018 2478     		ldrb	r4, [r4]	@ zero_extendqisi2
 490 001a A407     		lsls	r4, r4, #30
 491 001c 12D4     		bmi	.L64
 323:Generated_Source\PSoC5/CySpc.c ****         {
 324:Generated_Source\PSoC5/CySpc.c ****             CY_SPC_CPU_DATA_REG = array;
ARM GAS  C:\Users\ingan\AppData\Local\Temp\cc4cIvUc.s 			page 16


 325:Generated_Source\PSoC5/CySpc.c **** 
 326:Generated_Source\PSoC5/CySpc.c ****             /*******************************************************************
 327:Generated_Source\PSoC5/CySpc.c ****             * If "Enable Error Correcting Code (ECC)" and "Store Configuration
 328:Generated_Source\PSoC5/CySpc.c ****             * Data in ECC" DWR options are disabled, ECC section is available
 329:Generated_Source\PSoC5/CySpc.c ****             * for user data.
 330:Generated_Source\PSoC5/CySpc.c ****             *******************************************************************/
 331:Generated_Source\PSoC5/CySpc.c ****             #if ((CYDEV_ECC_ENABLE == 0u) && (CYDEV_CONFIGURATION_ECC == 0u))
 332:Generated_Source\PSoC5/CySpc.c **** 
 333:Generated_Source\PSoC5/CySpc.c ****                 /*******************************************************************
 334:Generated_Source\PSoC5/CySpc.c ****                 * If size parameter equals size of the ECC row and selected array
 335:Generated_Source\PSoC5/CySpc.c ****                 * identification corresponds to the flash array (but not to EEPROM
 336:Generated_Source\PSoC5/CySpc.c ****                 * array) then data are going to be written to the ECC section.
 337:Generated_Source\PSoC5/CySpc.c ****                 * In this case flash data must be preserved. The flash data copied
 338:Generated_Source\PSoC5/CySpc.c ****                 * from flash data section to the SPC data register.
 339:Generated_Source\PSoC5/CySpc.c ****                 *******************************************************************/
 340:Generated_Source\PSoC5/CySpc.c ****                 if ((size == CYDEV_ECC_ROW_SIZE) && (array <= CY_SPC_LAST_FLASH_ARRAYID))
 492              		.loc 1 340 0
 493 001e 202B     		cmp	r3, #32
 324:Generated_Source\PSoC5/CySpc.c **** 
 494              		.loc 1 324 0
 495 0020 3070     		strb	r0, [r6]
 496              		.loc 1 340 0
 497 0022 26D0     		beq	.L70
 498              	.LVL39:
 341:Generated_Source\PSoC5/CySpc.c ****                 {
 342:Generated_Source\PSoC5/CySpc.c ****                     offset = CYDEV_FLS_BASE +
 343:Generated_Source\PSoC5/CySpc.c ****                              ((uint32) array * CYDEV_FLS_SECTOR_SIZE) +
 344:Generated_Source\PSoC5/CySpc.c ****                              ((uint32)   row * CYDEV_FLS_ROW_SIZE   );
 345:Generated_Source\PSoC5/CySpc.c **** 
 346:Generated_Source\PSoC5/CySpc.c ****                     for (i = 0u; i < CYDEV_FLS_ROW_SIZE; i++)
 347:Generated_Source\PSoC5/CySpc.c ****                     {
 348:Generated_Source\PSoC5/CySpc.c ****                         CY_SPC_CPU_DATA_REG = CY_GET_XTND_REG8((void CYFAR *)(offset + i));
 349:Generated_Source\PSoC5/CySpc.c ****                     }
 350:Generated_Source\PSoC5/CySpc.c ****                 }
 351:Generated_Source\PSoC5/CySpc.c **** 
 352:Generated_Source\PSoC5/CySpc.c ****             #endif /* ((CYDEV_ECC_ENABLE == 0u) && (CYDEV_CONFIGURATION_ECC == 0u)) */
 353:Generated_Source\PSoC5/CySpc.c **** 
 354:Generated_Source\PSoC5/CySpc.c **** 
 355:Generated_Source\PSoC5/CySpc.c ****             for(i = 0u; i < size; i++)
 499              		.loc 1 355 0 discriminator 1
 500 0024 5BB1     		cbz	r3, .L61
 501              	.LVL40:
 502              	.L59:
 342:Generated_Source\PSoC5/CySpc.c ****                              ((uint32) array * CYDEV_FLS_SECTOR_SIZE) +
 503              		.loc 1 342 0
 504 0026 1546     		mov	r5, r2
 356:Generated_Source\PSoC5/CySpc.c ****             {
 357:Generated_Source\PSoC5/CySpc.c ****                 CY_SPC_CPU_DATA_REG = buffer[i];
 505              		.loc 1 357 0
 506 0028 1A4F     		ldr	r7, .L72+4
 507              	.LVL41:
 508              	.L60:
 509              		.loc 1 357 0 is_stmt 0 discriminator 3
 510 002a 15F8016B 		ldrb	r6, [r5], #1	@ zero_extendqisi2
 511              	.LVL42:
 355:Generated_Source\PSoC5/CySpc.c ****             {
 512              		.loc 1 355 0 is_stmt 1 discriminator 3
ARM GAS  C:\Users\ingan\AppData\Local\Temp\cc4cIvUc.s 			page 17


 513 002e AC1A     		subs	r4, r5, r2
 514 0030 A4B2     		uxth	r4, r4
 515 0032 A342     		cmp	r3, r4
 516              		.loc 1 357 0 discriminator 3
 517 0034 3E70     		strb	r6, [r7]
 518              	.LVL43:
 355:Generated_Source\PSoC5/CySpc.c ****             {
 519              		.loc 1 355 0 discriminator 3
 520 0036 F8D8     		bhi	.L60
 358:Generated_Source\PSoC5/CySpc.c ****             }
 359:Generated_Source\PSoC5/CySpc.c **** 
 360:Generated_Source\PSoC5/CySpc.c **** 
 361:Generated_Source\PSoC5/CySpc.c ****             /*******************************************************************
 362:Generated_Source\PSoC5/CySpc.c ****             * If "Enable Error Correcting Code (ECC)" DWR option is disabled,
 363:Generated_Source\PSoC5/CySpc.c ****             * ECC section can be used for storing device configuration data
 364:Generated_Source\PSoC5/CySpc.c ****             * ("Store Configuration Data in ECC" DWR option is enabled) or for
 365:Generated_Source\PSoC5/CySpc.c ****             * storing user data in the ECC section ("Store Configuration Data in
 366:Generated_Source\PSoC5/CySpc.c ****             * ECC" DWR option is enabled). In both cases, the data in the ECC
 367:Generated_Source\PSoC5/CySpc.c ****             * section must be preserved if flash data is written.
 368:Generated_Source\PSoC5/CySpc.c ****             *******************************************************************/
 369:Generated_Source\PSoC5/CySpc.c ****             #if (CYDEV_ECC_ENABLE == 0)
 370:Generated_Source\PSoC5/CySpc.c **** 
 371:Generated_Source\PSoC5/CySpc.c **** 
 372:Generated_Source\PSoC5/CySpc.c ****                 /*******************************************************************
 373:Generated_Source\PSoC5/CySpc.c ****                 * If size parameter equals size of the flash row and selected array
 374:Generated_Source\PSoC5/CySpc.c ****                 * identification corresponds to the flash array (but not to EEPROM
 375:Generated_Source\PSoC5/CySpc.c ****                 * array) then data are going to be written to the flash data
 376:Generated_Source\PSoC5/CySpc.c ****                 * section. In this case, ECC section data must be preserved.
 377:Generated_Source\PSoC5/CySpc.c ****                 * The ECC section data copied from ECC section to the SPC data
 378:Generated_Source\PSoC5/CySpc.c ****                 * register.
 379:Generated_Source\PSoC5/CySpc.c ****                 *******************************************************************/
 380:Generated_Source\PSoC5/CySpc.c ****                 if ((size == CYDEV_FLS_ROW_SIZE) && (array <= CY_SPC_LAST_FLASH_ARRAYID))
 521              		.loc 1 380 0
 522 0038 B3F5807F 		cmp	r3, #256
 523 003c 08D0     		beq	.L71
 524              	.LVL44:
 525              	.L61:
 381:Generated_Source\PSoC5/CySpc.c ****                 {
 382:Generated_Source\PSoC5/CySpc.c ****                     offset = CYDEV_ECC_BASE +
 383:Generated_Source\PSoC5/CySpc.c ****                             ((uint32) array * CYDEV_ECC_SECTOR_SIZE) +
 384:Generated_Source\PSoC5/CySpc.c ****                             ((uint32) row   * CYDEV_ECC_ROW_SIZE   );
 385:Generated_Source\PSoC5/CySpc.c **** 
 386:Generated_Source\PSoC5/CySpc.c ****                     for (i = 0u; i < CYDEV_ECC_ROW_SIZE; i++)
 387:Generated_Source\PSoC5/CySpc.c ****                     {
 388:Generated_Source\PSoC5/CySpc.c ****                         CY_SPC_CPU_DATA_REG = CY_GET_XTND_REG8((void CYFAR *)(offset + i));
 389:Generated_Source\PSoC5/CySpc.c ****                     }
 390:Generated_Source\PSoC5/CySpc.c ****                 }
 391:Generated_Source\PSoC5/CySpc.c **** 
 392:Generated_Source\PSoC5/CySpc.c ****             #else
 393:Generated_Source\PSoC5/CySpc.c **** 
 394:Generated_Source\PSoC5/CySpc.c ****                 if(0u != row)
 395:Generated_Source\PSoC5/CySpc.c ****                 {
 396:Generated_Source\PSoC5/CySpc.c ****                     /* To remove unreferenced local variable warning */
 397:Generated_Source\PSoC5/CySpc.c ****                 }
 398:Generated_Source\PSoC5/CySpc.c **** 
 399:Generated_Source\PSoC5/CySpc.c ****             #endif /* (CYDEV_ECC_ENABLE == 0) */
 400:Generated_Source\PSoC5/CySpc.c ****         }
ARM GAS  C:\Users\ingan\AppData\Local\Temp\cc4cIvUc.s 			page 18


 401:Generated_Source\PSoC5/CySpc.c ****         else
 402:Generated_Source\PSoC5/CySpc.c ****         {
 403:Generated_Source\PSoC5/CySpc.c ****             status = CYRET_CANCELED;
 404:Generated_Source\PSoC5/CySpc.c ****         }
 405:Generated_Source\PSoC5/CySpc.c ****     }
 406:Generated_Source\PSoC5/CySpc.c ****     else
 407:Generated_Source\PSoC5/CySpc.c ****     {
 408:Generated_Source\PSoC5/CySpc.c ****         status = CYRET_LOCKED;
 409:Generated_Source\PSoC5/CySpc.c ****     }
 410:Generated_Source\PSoC5/CySpc.c **** 
 411:Generated_Source\PSoC5/CySpc.c ****     return(status);
 412:Generated_Source\PSoC5/CySpc.c **** }
 526              		.loc 1 412 0
 527 003e F0BC     		pop	{r4, r5, r6, r7}
 528              		.cfi_remember_state
 529              		.cfi_restore 4
 530              		.cfi_restore 5
 531              		.cfi_restore 6
 532              		.cfi_restore 7
 533              		.cfi_def_cfa_offset 0
 307:Generated_Source\PSoC5/CySpc.c ****     uint16 i;
 534              		.loc 1 307 0
 535 0040 0720     		movs	r0, #7
 536              		.loc 1 412 0
 537 0042 7047     		bx	lr
 538              	.LVL45:
 539              	.L64:
 540              		.cfi_restore_state
 403:Generated_Source\PSoC5/CySpc.c ****         }
 541              		.loc 1 403 0
 542 0044 0920     		movs	r0, #9
 543              	.LVL46:
 544              		.loc 1 412 0
 545 0046 F0BC     		pop	{r4, r5, r6, r7}
 546              		.cfi_remember_state
 547              		.cfi_restore 7
 548              		.cfi_restore 6
 549              		.cfi_restore 5
 550              		.cfi_restore 4
 551              		.cfi_def_cfa_offset 0
 552 0048 7047     		bx	lr
 553              	.LVL47:
 554              	.L63:
 555              		.cfi_restore_state
 408:Generated_Source\PSoC5/CySpc.c ****     }
 556              		.loc 1 408 0
 557 004a 0420     		movs	r0, #4
 558              	.LVL48:
 559              		.loc 1 412 0
 560 004c F0BC     		pop	{r4, r5, r6, r7}
 561              		.cfi_remember_state
 562              		.cfi_restore 4
 563              		.cfi_restore 5
 564              		.cfi_restore 6
 565              		.cfi_restore 7
 566              		.cfi_def_cfa_offset 0
 567 004e 7047     		bx	lr
ARM GAS  C:\Users\ingan\AppData\Local\Temp\cc4cIvUc.s 			page 19


 568              	.LVL49:
 569              	.L71:
 570              		.cfi_restore_state
 380:Generated_Source\PSoC5/CySpc.c ****                 {
 571              		.loc 1 380 0 discriminator 1
 572 0050 3F28     		cmp	r0, #63
 573 0052 F4D8     		bhi	.L61
 382:Generated_Source\PSoC5/CySpc.c ****                             ((uint32) array * CYDEV_ECC_SECTOR_SIZE) +
 574              		.loc 1 382 0
 575 0054 00F51030 		add	r0, r0, #147456
 576              	.LVL50:
 577 0058 01EB0021 		add	r1, r1, r0, lsl #8
 578              	.LVL51:
 579 005c 4901     		lsls	r1, r1, #5
 580              	.LVL52:
 388:Generated_Source\PSoC5/CySpc.c ****                     }
 581              		.loc 1 388 0
 582 005e 0D48     		ldr	r0, .L72+4
 382:Generated_Source\PSoC5/CySpc.c ****                             ((uint32) array * CYDEV_ECC_SECTOR_SIZE) +
 583              		.loc 1 382 0
 584 0060 0A46     		mov	r2, r1
 585              	.LVL53:
 586 0062 2031     		adds	r1, r1, #32
 587              	.LVL54:
 588              	.L62:
 388:Generated_Source\PSoC5/CySpc.c ****                     }
 589              		.loc 1 388 0 discriminator 3
 590 0064 12F8013B 		ldrb	r3, [r2], #1	@ zero_extendqisi2
 591              	.LVL55:
 592 0068 DBB2     		uxtb	r3, r3
 386:Generated_Source\PSoC5/CySpc.c ****                     {
 593              		.loc 1 386 0 discriminator 3
 594 006a 8A42     		cmp	r2, r1
 388:Generated_Source\PSoC5/CySpc.c ****                     }
 595              		.loc 1 388 0 discriminator 3
 596 006c 0370     		strb	r3, [r0]
 597              	.LVL56:
 386:Generated_Source\PSoC5/CySpc.c ****                     {
 598              		.loc 1 386 0 discriminator 3
 599 006e F9D1     		bne	.L62
 600 0070 E5E7     		b	.L61
 601              	.LVL57:
 602              	.L70:
 340:Generated_Source\PSoC5/CySpc.c ****                 {
 603              		.loc 1 340 0 discriminator 1
 604 0072 3F28     		cmp	r0, #63
 605 0074 D7D8     		bhi	.L59
 342:Generated_Source\PSoC5/CySpc.c ****                              ((uint32) array * CYDEV_FLS_SECTOR_SIZE) +
 606              		.loc 1 342 0
 607 0076 01EB0027 		add	r7, r1, r0, lsl #8
 608 007a 3F02     		lsls	r7, r7, #8
 609              	.LVL58:
 610 007c 3D46     		mov	r5, r7
 611 007e 07F58077 		add	r7, r7, #256
 612              	.LVL59:
 613              	.L58:
 348:Generated_Source\PSoC5/CySpc.c ****                     }
ARM GAS  C:\Users\ingan\AppData\Local\Temp\cc4cIvUc.s 			page 20


 614              		.loc 1 348 0 discriminator 3
 615 0082 15F8014B 		ldrb	r4, [r5], #1	@ zero_extendqisi2
 616              	.LVL60:
 617 0086 E4B2     		uxtb	r4, r4
 346:Generated_Source\PSoC5/CySpc.c ****                     {
 618              		.loc 1 346 0 discriminator 3
 619 0088 BD42     		cmp	r5, r7
 348:Generated_Source\PSoC5/CySpc.c ****                     }
 620              		.loc 1 348 0 discriminator 3
 621 008a 3470     		strb	r4, [r6]
 622              	.LVL61:
 346:Generated_Source\PSoC5/CySpc.c ****                     {
 623              		.loc 1 346 0 discriminator 3
 624 008c F9D1     		bne	.L58
 625 008e CAE7     		b	.L59
 626              	.L73:
 627              		.align	2
 628              	.L72:
 629 0090 22470040 		.word	1073760034
 630 0094 20470040 		.word	1073760032
 631              		.cfi_endproc
 632              	.LFE5:
 633              		.size	CySpcLoadRowFull, .-CySpcLoadRowFull
 634              		.section	.text.CySpcWriteRow,"ax",%progbits
 635              		.align	2
 636              		.global	CySpcWriteRow
 637              		.thumb
 638              		.thumb_func
 639              		.type	CySpcWriteRow, %function
 640              	CySpcWriteRow:
 641              	.LFB6:
 413:Generated_Source\PSoC5/CySpc.c **** 
 414:Generated_Source\PSoC5/CySpc.c **** 
 415:Generated_Source\PSoC5/CySpc.c **** /*******************************************************************************
 416:Generated_Source\PSoC5/CySpc.c **** * Function Name: CySpcWriteRow
 417:Generated_Source\PSoC5/CySpc.c **** ****************************************************************************//**
 418:Generated_Source\PSoC5/CySpc.c **** *  Erases then programs a row in Flash/EEPROM with data in row latch.
 419:Generated_Source\PSoC5/CySpc.c **** *
 420:Generated_Source\PSoC5/CySpc.c **** *  \param uint8 array:
 421:Generated_Source\PSoC5/CySpc.c **** *   Id of the array.
 422:Generated_Source\PSoC5/CySpc.c **** *
 423:Generated_Source\PSoC5/CySpc.c **** *  \param uint16 address:
 424:Generated_Source\PSoC5/CySpc.c **** *   flash/eeprom addrress
 425:Generated_Source\PSoC5/CySpc.c **** *
 426:Generated_Source\PSoC5/CySpc.c **** *  \param uint8 tempPolarity:
 427:Generated_Source\PSoC5/CySpc.c **** *   temperature polarity.
 428:Generated_Source\PSoC5/CySpc.c **** *   \param 1: the Temp Magnitude is interpreted as a positive value
 429:Generated_Source\PSoC5/CySpc.c **** *   \param 0: the Temp Magnitude is interpreted as a negative value
 430:Generated_Source\PSoC5/CySpc.c **** *
 431:Generated_Source\PSoC5/CySpc.c **** *  \param uint8 tempMagnitude:
 432:Generated_Source\PSoC5/CySpc.c **** *   temperature magnitude.
 433:Generated_Source\PSoC5/CySpc.c **** *
 434:Generated_Source\PSoC5/CySpc.c **** * \return
 435:Generated_Source\PSoC5/CySpc.c **** *  CYRET_STARTED
 436:Generated_Source\PSoC5/CySpc.c **** *  CYRET_CANCELED
 437:Generated_Source\PSoC5/CySpc.c **** *  CYRET_LOCKED
 438:Generated_Source\PSoC5/CySpc.c **** *
ARM GAS  C:\Users\ingan\AppData\Local\Temp\cc4cIvUc.s 			page 21


 439:Generated_Source\PSoC5/CySpc.c **** *******************************************************************************/
 440:Generated_Source\PSoC5/CySpc.c **** cystatus CySpcWriteRow(uint8 array, uint16 address, uint8 tempPolarity, uint8 tempMagnitude)\
 441:Generated_Source\PSoC5/CySpc.c **** 
 442:Generated_Source\PSoC5/CySpc.c **** {
 642              		.loc 1 442 0
 643              		.cfi_startproc
 644              		@ args = 0, pretend = 0, frame = 0
 645              		@ frame_needed = 0, uses_anonymous_args = 0
 646              		@ link register save eliminated.
 647              	.LVL62:
 648 0000 F0B4     		push	{r4, r5, r6, r7}
 649              		.cfi_def_cfa_offset 16
 650              		.cfi_offset 4, -16
 651              		.cfi_offset 5, -12
 652              		.cfi_offset 6, -8
 653              		.cfi_offset 7, -4
 443:Generated_Source\PSoC5/CySpc.c ****     cystatus status = CYRET_STARTED;
 444:Generated_Source\PSoC5/CySpc.c **** 
 445:Generated_Source\PSoC5/CySpc.c ****     /* Make sure the SPC is ready to accept command */
 446:Generated_Source\PSoC5/CySpc.c ****     if(CY_SPC_IDLE)
 654              		.loc 1 446 0
 655 0002 0F4D     		ldr	r5, .L79
 656 0004 2C78     		ldrb	r4, [r5]	@ zero_extendqisi2
 657 0006 A607     		lsls	r6, r4, #30
 658 0008 16D5     		bpl	.L76
 447:Generated_Source\PSoC5/CySpc.c ****     {
 448:Generated_Source\PSoC5/CySpc.c ****         CY_SPC_CPU_DATA_REG = CY_SPC_KEY_ONE;
 659              		.loc 1 448 0
 660 000a 0E4C     		ldr	r4, .L79+4
 661 000c B626     		movs	r6, #182
 662 000e 2670     		strb	r6, [r4]
 449:Generated_Source\PSoC5/CySpc.c ****         CY_SPC_CPU_DATA_REG = CY_SPC_KEY_TWO(CY_SPC_CMD_WR_ROW);
 663              		.loc 1 449 0
 664 0010 D827     		movs	r7, #216
 450:Generated_Source\PSoC5/CySpc.c ****         CY_SPC_CPU_DATA_REG = CY_SPC_CMD_WR_ROW;
 665              		.loc 1 450 0
 666 0012 0526     		movs	r6, #5
 449:Generated_Source\PSoC5/CySpc.c ****         CY_SPC_CPU_DATA_REG = CY_SPC_KEY_TWO(CY_SPC_CMD_WR_ROW);
 667              		.loc 1 449 0
 668 0014 2770     		strb	r7, [r4]
 669              		.loc 1 450 0
 670 0016 2670     		strb	r6, [r4]
 451:Generated_Source\PSoC5/CySpc.c **** 
 452:Generated_Source\PSoC5/CySpc.c ****         /* Make sure the command was accepted */
 453:Generated_Source\PSoC5/CySpc.c ****         if(CY_SPC_BUSY)
 671              		.loc 1 453 0
 672 0018 2D78     		ldrb	r5, [r5]	@ zero_extendqisi2
 673 001a AD07     		lsls	r5, r5, #30
 674 001c 09D4     		bmi	.L77
 454:Generated_Source\PSoC5/CySpc.c ****         {
 455:Generated_Source\PSoC5/CySpc.c ****             CY_SPC_CPU_DATA_REG = array;
 456:Generated_Source\PSoC5/CySpc.c ****             CY_SPC_CPU_DATA_REG = HI8(address);
 675              		.loc 1 456 0
 676 001e 0D0A     		lsrs	r5, r1, #8
 457:Generated_Source\PSoC5/CySpc.c ****             CY_SPC_CPU_DATA_REG = LO8(address);
 677              		.loc 1 457 0
 678 0020 C9B2     		uxtb	r1, r1
ARM GAS  C:\Users\ingan\AppData\Local\Temp\cc4cIvUc.s 			page 22


 679              	.LVL63:
 455:Generated_Source\PSoC5/CySpc.c ****             CY_SPC_CPU_DATA_REG = HI8(address);
 680              		.loc 1 455 0
 681 0022 2070     		strb	r0, [r4]
 456:Generated_Source\PSoC5/CySpc.c ****             CY_SPC_CPU_DATA_REG = LO8(address);
 682              		.loc 1 456 0
 683 0024 2570     		strb	r5, [r4]
 684              		.loc 1 457 0
 685 0026 2170     		strb	r1, [r4]
 458:Generated_Source\PSoC5/CySpc.c ****             CY_SPC_CPU_DATA_REG = tempPolarity;
 686              		.loc 1 458 0
 687 0028 2270     		strb	r2, [r4]
 459:Generated_Source\PSoC5/CySpc.c ****             CY_SPC_CPU_DATA_REG = tempMagnitude;
 688              		.loc 1 459 0
 689 002a 2370     		strb	r3, [r4]
 443:Generated_Source\PSoC5/CySpc.c **** 
 690              		.loc 1 443 0
 691 002c 0720     		movs	r0, #7
 692              	.LVL64:
 460:Generated_Source\PSoC5/CySpc.c ****         }
 461:Generated_Source\PSoC5/CySpc.c ****         else
 462:Generated_Source\PSoC5/CySpc.c ****         {
 463:Generated_Source\PSoC5/CySpc.c ****             status = CYRET_CANCELED;
 464:Generated_Source\PSoC5/CySpc.c ****         }
 465:Generated_Source\PSoC5/CySpc.c ****     }
 466:Generated_Source\PSoC5/CySpc.c ****     else
 467:Generated_Source\PSoC5/CySpc.c ****     {
 468:Generated_Source\PSoC5/CySpc.c ****         status = CYRET_LOCKED;
 469:Generated_Source\PSoC5/CySpc.c ****     }
 470:Generated_Source\PSoC5/CySpc.c **** 
 471:Generated_Source\PSoC5/CySpc.c ****     return(status);
 472:Generated_Source\PSoC5/CySpc.c **** }
 693              		.loc 1 472 0
 694 002e F0BC     		pop	{r4, r5, r6, r7}
 695              		.cfi_remember_state
 696              		.cfi_restore 7
 697              		.cfi_restore 6
 698              		.cfi_restore 5
 699              		.cfi_restore 4
 700              		.cfi_def_cfa_offset 0
 701 0030 7047     		bx	lr
 702              	.LVL65:
 703              	.L77:
 704              		.cfi_restore_state
 463:Generated_Source\PSoC5/CySpc.c ****         }
 705              		.loc 1 463 0
 706 0032 0920     		movs	r0, #9
 707              	.LVL66:
 708              		.loc 1 472 0
 709 0034 F0BC     		pop	{r4, r5, r6, r7}
 710              		.cfi_remember_state
 711              		.cfi_restore 4
 712              		.cfi_restore 5
 713              		.cfi_restore 6
 714              		.cfi_restore 7
 715              		.cfi_def_cfa_offset 0
 716 0036 7047     		bx	lr
ARM GAS  C:\Users\ingan\AppData\Local\Temp\cc4cIvUc.s 			page 23


 717              	.LVL67:
 718              	.L76:
 719              		.cfi_restore_state
 468:Generated_Source\PSoC5/CySpc.c ****     }
 720              		.loc 1 468 0
 721 0038 0420     		movs	r0, #4
 722              	.LVL68:
 723              		.loc 1 472 0
 724 003a F0BC     		pop	{r4, r5, r6, r7}
 725              		.cfi_restore 4
 726              		.cfi_restore 5
 727              		.cfi_restore 6
 728              		.cfi_restore 7
 729              		.cfi_def_cfa_offset 0
 730 003c 7047     		bx	lr
 731              	.L80:
 732 003e 00BF     		.align	2
 733              	.L79:
 734 0040 22470040 		.word	1073760034
 735 0044 20470040 		.word	1073760032
 736              		.cfi_endproc
 737              	.LFE6:
 738              		.size	CySpcWriteRow, .-CySpcWriteRow
 739              		.section	.text.CySpcEraseSector,"ax",%progbits
 740              		.align	2
 741              		.global	CySpcEraseSector
 742              		.thumb
 743              		.thumb_func
 744              		.type	CySpcEraseSector, %function
 745              	CySpcEraseSector:
 746              	.LFB7:
 473:Generated_Source\PSoC5/CySpc.c **** 
 474:Generated_Source\PSoC5/CySpc.c **** 
 475:Generated_Source\PSoC5/CySpc.c **** /*******************************************************************************
 476:Generated_Source\PSoC5/CySpc.c **** * Function Name: CySpcEraseSector
 477:Generated_Source\PSoC5/CySpc.c **** ****************************************************************************//**
 478:Generated_Source\PSoC5/CySpc.c **** *  Erases all data in the addressed sector (block of 64 rows).
 479:Generated_Source\PSoC5/CySpc.c **** *
 480:Generated_Source\PSoC5/CySpc.c **** *  \param uint8 array:
 481:Generated_Source\PSoC5/CySpc.c **** *   Id of the array.
 482:Generated_Source\PSoC5/CySpc.c **** *
 483:Generated_Source\PSoC5/CySpc.c **** *  \param uint8 sectorNumber:
 484:Generated_Source\PSoC5/CySpc.c **** *   Zero based sector number within Flash/EEPROM array
 485:Generated_Source\PSoC5/CySpc.c **** *
 486:Generated_Source\PSoC5/CySpc.c **** * \return
 487:Generated_Source\PSoC5/CySpc.c **** *  CYRET_STARTED
 488:Generated_Source\PSoC5/CySpc.c **** *  CYRET_CANCELED
 489:Generated_Source\PSoC5/CySpc.c **** *  CYRET_LOCKED
 490:Generated_Source\PSoC5/CySpc.c **** *
 491:Generated_Source\PSoC5/CySpc.c **** *******************************************************************************/
 492:Generated_Source\PSoC5/CySpc.c **** cystatus CySpcEraseSector(uint8 array, uint8 sectorNumber)
 493:Generated_Source\PSoC5/CySpc.c **** {
 747              		.loc 1 493 0
 748              		.cfi_startproc
 749              		@ args = 0, pretend = 0, frame = 0
 750              		@ frame_needed = 0, uses_anonymous_args = 0
 751              		@ link register save eliminated.
ARM GAS  C:\Users\ingan\AppData\Local\Temp\cc4cIvUc.s 			page 24


 752              	.LVL69:
 494:Generated_Source\PSoC5/CySpc.c ****     cystatus status = CYRET_STARTED;
 495:Generated_Source\PSoC5/CySpc.c **** 
 496:Generated_Source\PSoC5/CySpc.c ****     /* Make sure the SPC is ready to accept command */
 497:Generated_Source\PSoC5/CySpc.c ****     if(CY_SPC_IDLE)
 753              		.loc 1 497 0
 754 0000 0C4A     		ldr	r2, .L86
 755 0002 1378     		ldrb	r3, [r2]	@ zero_extendqisi2
 756 0004 9B07     		lsls	r3, r3, #30
 757 0006 12D5     		bpl	.L83
 493:Generated_Source\PSoC5/CySpc.c ****     cystatus status = CYRET_STARTED;
 758              		.loc 1 493 0
 759 0008 70B4     		push	{r4, r5, r6}
 760              		.cfi_def_cfa_offset 12
 761              		.cfi_offset 4, -12
 762              		.cfi_offset 5, -8
 763              		.cfi_offset 6, -4
 498:Generated_Source\PSoC5/CySpc.c ****     {
 499:Generated_Source\PSoC5/CySpc.c ****         CY_SPC_CPU_DATA_REG = CY_SPC_KEY_ONE;
 764              		.loc 1 499 0
 765 000a 0B4B     		ldr	r3, .L86+4
 766 000c B626     		movs	r6, #182
 500:Generated_Source\PSoC5/CySpc.c ****         CY_SPC_CPU_DATA_REG = CY_SPC_KEY_TWO(CY_SPC_CMD_ER_SECTOR);
 767              		.loc 1 500 0
 768 000e DB25     		movs	r5, #219
 501:Generated_Source\PSoC5/CySpc.c ****         CY_SPC_CPU_DATA_REG = CY_SPC_CMD_ER_SECTOR;
 769              		.loc 1 501 0
 770 0010 0824     		movs	r4, #8
 499:Generated_Source\PSoC5/CySpc.c ****         CY_SPC_CPU_DATA_REG = CY_SPC_KEY_TWO(CY_SPC_CMD_ER_SECTOR);
 771              		.loc 1 499 0
 772 0012 1E70     		strb	r6, [r3]
 500:Generated_Source\PSoC5/CySpc.c ****         CY_SPC_CPU_DATA_REG = CY_SPC_KEY_TWO(CY_SPC_CMD_ER_SECTOR);
 773              		.loc 1 500 0
 774 0014 1D70     		strb	r5, [r3]
 775              		.loc 1 501 0
 776 0016 1C70     		strb	r4, [r3]
 502:Generated_Source\PSoC5/CySpc.c **** 
 503:Generated_Source\PSoC5/CySpc.c ****         /* Make sure the command was accepted */
 504:Generated_Source\PSoC5/CySpc.c ****         if(CY_SPC_BUSY)
 777              		.loc 1 504 0
 778 0018 1278     		ldrb	r2, [r2]	@ zero_extendqisi2
 779 001a 9207     		lsls	r2, r2, #30
 780 001c 04D4     		bmi	.L84
 505:Generated_Source\PSoC5/CySpc.c ****         {
 506:Generated_Source\PSoC5/CySpc.c ****             CY_SPC_CPU_DATA_REG = array;
 781              		.loc 1 506 0
 782 001e 1870     		strb	r0, [r3]
 507:Generated_Source\PSoC5/CySpc.c ****             CY_SPC_CPU_DATA_REG = sectorNumber;
 783              		.loc 1 507 0
 784 0020 1970     		strb	r1, [r3]
 494:Generated_Source\PSoC5/CySpc.c **** 
 785              		.loc 1 494 0
 786 0022 0720     		movs	r0, #7
 787              	.LVL70:
 508:Generated_Source\PSoC5/CySpc.c ****         }
 509:Generated_Source\PSoC5/CySpc.c ****         else
 510:Generated_Source\PSoC5/CySpc.c ****         {
ARM GAS  C:\Users\ingan\AppData\Local\Temp\cc4cIvUc.s 			page 25


 511:Generated_Source\PSoC5/CySpc.c ****             status = CYRET_CANCELED;
 512:Generated_Source\PSoC5/CySpc.c ****         }
 513:Generated_Source\PSoC5/CySpc.c ****     }
 514:Generated_Source\PSoC5/CySpc.c ****     else
 515:Generated_Source\PSoC5/CySpc.c ****     {
 516:Generated_Source\PSoC5/CySpc.c ****         status = CYRET_LOCKED;
 517:Generated_Source\PSoC5/CySpc.c ****     }
 518:Generated_Source\PSoC5/CySpc.c **** 
 519:Generated_Source\PSoC5/CySpc.c ****     return(status);
 520:Generated_Source\PSoC5/CySpc.c **** }
 788              		.loc 1 520 0
 789 0024 70BC     		pop	{r4, r5, r6}
 790              		.cfi_remember_state
 791              		.cfi_restore 6
 792              		.cfi_restore 5
 793              		.cfi_restore 4
 794              		.cfi_def_cfa_offset 0
 795 0026 7047     		bx	lr
 796              	.LVL71:
 797              	.L84:
 798              		.cfi_restore_state
 511:Generated_Source\PSoC5/CySpc.c ****         }
 799              		.loc 1 511 0
 800 0028 0920     		movs	r0, #9
 801              	.LVL72:
 802              		.loc 1 520 0
 803 002a 70BC     		pop	{r4, r5, r6}
 804              		.cfi_restore 4
 805              		.cfi_restore 5
 806              		.cfi_restore 6
 807              		.cfi_def_cfa_offset 0
 808 002c 7047     		bx	lr
 809              	.LVL73:
 810              	.L83:
 516:Generated_Source\PSoC5/CySpc.c ****     }
 811              		.loc 1 516 0
 812 002e 0420     		movs	r0, #4
 813              	.LVL74:
 814              		.loc 1 520 0
 815 0030 7047     		bx	lr
 816              	.L87:
 817 0032 00BF     		.align	2
 818              	.L86:
 819 0034 22470040 		.word	1073760034
 820 0038 20470040 		.word	1073760032
 821              		.cfi_endproc
 822              	.LFE7:
 823              		.size	CySpcEraseSector, .-CySpcEraseSector
 824              		.section	.text.CySpcGetTemp,"ax",%progbits
 825              		.align	2
 826              		.global	CySpcGetTemp
 827              		.thumb
 828              		.thumb_func
 829              		.type	CySpcGetTemp, %function
 830              	CySpcGetTemp:
 831              	.LFB8:
 521:Generated_Source\PSoC5/CySpc.c **** 
ARM GAS  C:\Users\ingan\AppData\Local\Temp\cc4cIvUc.s 			page 26


 522:Generated_Source\PSoC5/CySpc.c **** 
 523:Generated_Source\PSoC5/CySpc.c **** /*******************************************************************************
 524:Generated_Source\PSoC5/CySpc.c **** * Function Name: CySpcGetTemp
 525:Generated_Source\PSoC5/CySpc.c **** ****************************************************************************//**
 526:Generated_Source\PSoC5/CySpc.c **** *  Returns the internal die temperature
 527:Generated_Source\PSoC5/CySpc.c **** *
 528:Generated_Source\PSoC5/CySpc.c **** *  \param uint8 numSamples:
 529:Generated_Source\PSoC5/CySpc.c **** *   Number of samples. Valid values are 1-5, resulting in 2 - 32 samples
 530:Generated_Source\PSoC5/CySpc.c **** *   respectively.
 531:Generated_Source\PSoC5/CySpc.c **** *
 532:Generated_Source\PSoC5/CySpc.c **** * \param uint16 timerPeriod:
 533:Generated_Source\PSoC5/CySpc.c **** *   Number of ADC ACLK cycles. A valid 14 bit value is accepted, higher 2 bits
 534:Generated_Source\PSoC5/CySpc.c **** *   of 16 bit values are ignored.
 535:Generated_Source\PSoC5/CySpc.c **** *
 536:Generated_Source\PSoC5/CySpc.c **** * \param uint8 clkDivSelect:
 537:Generated_Source\PSoC5/CySpc.c **** *   ADC ACLK clock divide value. Valid values are 2 - 225.
 538:Generated_Source\PSoC5/CySpc.c **** *
 539:Generated_Source\PSoC5/CySpc.c **** * \return
 540:Generated_Source\PSoC5/CySpc.c **** *  CYRET_STARTED
 541:Generated_Source\PSoC5/CySpc.c **** *  CYRET_CANCELED
 542:Generated_Source\PSoC5/CySpc.c **** *  CYRET_LOCKED
 543:Generated_Source\PSoC5/CySpc.c **** *
 544:Generated_Source\PSoC5/CySpc.c **** *******************************************************************************/
 545:Generated_Source\PSoC5/CySpc.c **** cystatus CySpcGetTemp(uint8 numSamples)
 546:Generated_Source\PSoC5/CySpc.c **** {
 832              		.loc 1 546 0
 833              		.cfi_startproc
 834              		@ args = 0, pretend = 0, frame = 0
 835              		@ frame_needed = 0, uses_anonymous_args = 0
 836              		@ link register save eliminated.
 837              	.LVL75:
 547:Generated_Source\PSoC5/CySpc.c ****     cystatus status = CYRET_STARTED;
 548:Generated_Source\PSoC5/CySpc.c **** 
 549:Generated_Source\PSoC5/CySpc.c ****     /* Make sure the SPC is ready to accept command */
 550:Generated_Source\PSoC5/CySpc.c ****     if(CY_SPC_IDLE)
 838              		.loc 1 550 0
 839 0000 0B4A     		ldr	r2, .L93
 840 0002 1378     		ldrb	r3, [r2]	@ zero_extendqisi2
 841 0004 9907     		lsls	r1, r3, #30
 842 0006 11D5     		bpl	.L90
 546:Generated_Source\PSoC5/CySpc.c ****     cystatus status = CYRET_STARTED;
 843              		.loc 1 546 0
 844 0008 30B4     		push	{r4, r5}
 845              		.cfi_def_cfa_offset 8
 846              		.cfi_offset 4, -8
 847              		.cfi_offset 5, -4
 551:Generated_Source\PSoC5/CySpc.c ****     {
 552:Generated_Source\PSoC5/CySpc.c ****         CY_SPC_CPU_DATA_REG = CY_SPC_KEY_ONE;
 848              		.loc 1 552 0
 849 000a 0A4B     		ldr	r3, .L93+4
 850 000c B625     		movs	r5, #182
 553:Generated_Source\PSoC5/CySpc.c ****         CY_SPC_CPU_DATA_REG = CY_SPC_KEY_TWO(CY_SPC_CMD_GET_TEMP);
 851              		.loc 1 553 0
 852 000e E124     		movs	r4, #225
 554:Generated_Source\PSoC5/CySpc.c ****         CY_SPC_CPU_DATA_REG = CY_SPC_CMD_GET_TEMP;
 853              		.loc 1 554 0
 854 0010 0E21     		movs	r1, #14
ARM GAS  C:\Users\ingan\AppData\Local\Temp\cc4cIvUc.s 			page 27


 552:Generated_Source\PSoC5/CySpc.c ****         CY_SPC_CPU_DATA_REG = CY_SPC_KEY_TWO(CY_SPC_CMD_GET_TEMP);
 855              		.loc 1 552 0
 856 0012 1D70     		strb	r5, [r3]
 553:Generated_Source\PSoC5/CySpc.c ****         CY_SPC_CPU_DATA_REG = CY_SPC_KEY_TWO(CY_SPC_CMD_GET_TEMP);
 857              		.loc 1 553 0
 858 0014 1C70     		strb	r4, [r3]
 859              		.loc 1 554 0
 860 0016 1970     		strb	r1, [r3]
 555:Generated_Source\PSoC5/CySpc.c **** 
 556:Generated_Source\PSoC5/CySpc.c ****         /* Make sure the command was accepted */
 557:Generated_Source\PSoC5/CySpc.c ****         if(CY_SPC_BUSY)
 861              		.loc 1 557 0
 862 0018 1278     		ldrb	r2, [r2]	@ zero_extendqisi2
 863 001a 9207     		lsls	r2, r2, #30
 864 001c 03D4     		bmi	.L91
 558:Generated_Source\PSoC5/CySpc.c ****         {
 559:Generated_Source\PSoC5/CySpc.c ****             CY_SPC_CPU_DATA_REG = numSamples;
 865              		.loc 1 559 0
 866 001e 1870     		strb	r0, [r3]
 560:Generated_Source\PSoC5/CySpc.c ****         }
 561:Generated_Source\PSoC5/CySpc.c ****         else
 562:Generated_Source\PSoC5/CySpc.c ****         {
 563:Generated_Source\PSoC5/CySpc.c ****             status = CYRET_CANCELED;
 564:Generated_Source\PSoC5/CySpc.c ****         }
 565:Generated_Source\PSoC5/CySpc.c ****     }
 566:Generated_Source\PSoC5/CySpc.c ****     else
 567:Generated_Source\PSoC5/CySpc.c ****     {
 568:Generated_Source\PSoC5/CySpc.c ****         status = CYRET_LOCKED;
 569:Generated_Source\PSoC5/CySpc.c ****     }
 570:Generated_Source\PSoC5/CySpc.c **** 
 571:Generated_Source\PSoC5/CySpc.c ****     return(status);
 572:Generated_Source\PSoC5/CySpc.c **** }
 867              		.loc 1 572 0
 868 0020 30BC     		pop	{r4, r5}
 869              		.cfi_remember_state
 870              		.cfi_restore 5
 871              		.cfi_restore 4
 872              		.cfi_def_cfa_offset 0
 547:Generated_Source\PSoC5/CySpc.c **** 
 873              		.loc 1 547 0
 874 0022 0720     		movs	r0, #7
 875              	.LVL76:
 876              		.loc 1 572 0
 877 0024 7047     		bx	lr
 878              	.LVL77:
 879              	.L91:
 880              		.cfi_restore_state
 563:Generated_Source\PSoC5/CySpc.c ****         }
 881              		.loc 1 563 0
 882 0026 0920     		movs	r0, #9
 883              	.LVL78:
 884              		.loc 1 572 0
 885 0028 30BC     		pop	{r4, r5}
 886              		.cfi_restore 4
 887              		.cfi_restore 5
 888              		.cfi_def_cfa_offset 0
 889 002a 7047     		bx	lr
ARM GAS  C:\Users\ingan\AppData\Local\Temp\cc4cIvUc.s 			page 28


 890              	.LVL79:
 891              	.L90:
 568:Generated_Source\PSoC5/CySpc.c ****     }
 892              		.loc 1 568 0
 893 002c 0420     		movs	r0, #4
 894              	.LVL80:
 895              		.loc 1 572 0
 896 002e 7047     		bx	lr
 897              	.L94:
 898              		.align	2
 899              	.L93:
 900 0030 22470040 		.word	1073760034
 901 0034 20470040 		.word	1073760032
 902              		.cfi_endproc
 903              	.LFE8:
 904              		.size	CySpcGetTemp, .-CySpcGetTemp
 905              		.section	.text.CySpcLock,"ax",%progbits
 906              		.align	2
 907              		.global	CySpcLock
 908              		.thumb
 909              		.thumb_func
 910              		.type	CySpcLock, %function
 911              	CySpcLock:
 912              	.LFB9:
 573:Generated_Source\PSoC5/CySpc.c **** 
 574:Generated_Source\PSoC5/CySpc.c **** 
 575:Generated_Source\PSoC5/CySpc.c **** /*******************************************************************************
 576:Generated_Source\PSoC5/CySpc.c **** * Function Name: CySpcLock
 577:Generated_Source\PSoC5/CySpc.c **** ****************************************************************************//**
 578:Generated_Source\PSoC5/CySpc.c **** *  Locks the SPC so it can not be used by someone else:
 579:Generated_Source\PSoC5/CySpc.c **** *   - Saves wait-pipeline enable state and enable pipeline (PSoC5)
 580:Generated_Source\PSoC5/CySpc.c **** *
 581:Generated_Source\PSoC5/CySpc.c **** * \return
 582:Generated_Source\PSoC5/CySpc.c **** *  CYRET_SUCCESS - if the resource was free.
 583:Generated_Source\PSoC5/CySpc.c **** *  CYRET_LOCKED  - if the SPC is in use.
 584:Generated_Source\PSoC5/CySpc.c **** *
 585:Generated_Source\PSoC5/CySpc.c **** *******************************************************************************/
 586:Generated_Source\PSoC5/CySpc.c **** cystatus CySpcLock(void)
 587:Generated_Source\PSoC5/CySpc.c **** {
 913              		.loc 1 587 0
 914              		.cfi_startproc
 915              		@ args = 0, pretend = 0, frame = 0
 916              		@ frame_needed = 0, uses_anonymous_args = 0
 917              	.LVL81:
 918 0000 38B5     		push	{r3, r4, r5, lr}
 919              		.cfi_def_cfa_offset 16
 920              		.cfi_offset 3, -16
 921              		.cfi_offset 4, -12
 922              		.cfi_offset 5, -8
 923              		.cfi_offset 14, -4
 588:Generated_Source\PSoC5/CySpc.c ****     cystatus status = CYRET_LOCKED;
 589:Generated_Source\PSoC5/CySpc.c ****     uint8 interruptState;
 590:Generated_Source\PSoC5/CySpc.c **** 
 591:Generated_Source\PSoC5/CySpc.c ****     /* Enter critical section */
 592:Generated_Source\PSoC5/CySpc.c ****     interruptState = CyEnterCriticalSection();
 924              		.loc 1 592 0
 925 0002 FFF7FEFF 		bl	CyEnterCriticalSection
ARM GAS  C:\Users\ingan\AppData\Local\Temp\cc4cIvUc.s 			page 29


 926              	.LVL82:
 593:Generated_Source\PSoC5/CySpc.c **** 
 594:Generated_Source\PSoC5/CySpc.c ****     if(CY_SPC_UNLOCKED == SpcLockState)
 927              		.loc 1 594 0
 928 0006 0D4A     		ldr	r2, .L101
 929 0008 1378     		ldrb	r3, [r2]	@ zero_extendqisi2
 930 000a 23B1     		cbz	r3, .L100
 588:Generated_Source\PSoC5/CySpc.c ****     cystatus status = CYRET_LOCKED;
 931              		.loc 1 588 0
 932 000c 0424     		movs	r4, #4
 933              	.LVL83:
 934              	.L96:
 595:Generated_Source\PSoC5/CySpc.c ****     {
 596:Generated_Source\PSoC5/CySpc.c ****         SpcLockState = CY_SPC_LOCKED;
 597:Generated_Source\PSoC5/CySpc.c ****         status = CYRET_SUCCESS;
 598:Generated_Source\PSoC5/CySpc.c **** 
 599:Generated_Source\PSoC5/CySpc.c ****         #if(CY_PSOC5)
 600:Generated_Source\PSoC5/CySpc.c **** 
 601:Generated_Source\PSoC5/CySpc.c ****             if(0u != (CY_SPC_CPU_WAITPIPE_REG & CY_SPC_CPU_WAITPIPE_BYPASS))
 602:Generated_Source\PSoC5/CySpc.c ****             {
 603:Generated_Source\PSoC5/CySpc.c ****                 /* Enable pipeline registers */
 604:Generated_Source\PSoC5/CySpc.c ****                 CY_SPC_CPU_WAITPIPE_REG &= ((uint32)(~CY_SPC_CPU_WAITPIPE_BYPASS));
 605:Generated_Source\PSoC5/CySpc.c **** 
 606:Generated_Source\PSoC5/CySpc.c ****                 /* At least 2 NOP instructions are recommended */
 607:Generated_Source\PSoC5/CySpc.c ****                 CY_NOP;
 608:Generated_Source\PSoC5/CySpc.c ****                 CY_NOP;
 609:Generated_Source\PSoC5/CySpc.c ****                 CY_NOP;
 610:Generated_Source\PSoC5/CySpc.c **** 
 611:Generated_Source\PSoC5/CySpc.c ****                 spcWaitPipeBypass = CY_SPC_CPU_WAITPIPE_BYPASS;
 612:Generated_Source\PSoC5/CySpc.c ****             }
 613:Generated_Source\PSoC5/CySpc.c **** 
 614:Generated_Source\PSoC5/CySpc.c ****         #endif  /* (CY_PSOC5) */
 615:Generated_Source\PSoC5/CySpc.c ****     }
 616:Generated_Source\PSoC5/CySpc.c **** 
 617:Generated_Source\PSoC5/CySpc.c ****     /* Exit critical section */
 618:Generated_Source\PSoC5/CySpc.c ****     CyExitCriticalSection(interruptState);
 935              		.loc 1 618 0
 936 000e FFF7FEFF 		bl	CyExitCriticalSection
 937              	.LVL84:
 619:Generated_Source\PSoC5/CySpc.c **** 
 620:Generated_Source\PSoC5/CySpc.c ****     return(status);
 621:Generated_Source\PSoC5/CySpc.c **** }
 938              		.loc 1 621 0
 939 0012 2046     		mov	r0, r4
 940 0014 38BD     		pop	{r3, r4, r5, pc}
 941              	.LVL85:
 942              	.L100:
 596:Generated_Source\PSoC5/CySpc.c ****         status = CYRET_SUCCESS;
 943              		.loc 1 596 0
 944 0016 0125     		movs	r5, #1
 601:Generated_Source\PSoC5/CySpc.c ****             {
 945              		.loc 1 601 0
 946 0018 0949     		ldr	r1, .L101+4
 596:Generated_Source\PSoC5/CySpc.c ****         status = CYRET_SUCCESS;
 947              		.loc 1 596 0
 948 001a 1570     		strb	r5, [r2]
 949              	.LVL86:
ARM GAS  C:\Users\ingan\AppData\Local\Temp\cc4cIvUc.s 			page 30


 601:Generated_Source\PSoC5/CySpc.c ****             {
 950              		.loc 1 601 0
 951 001c 0C68     		ldr	r4, [r1]
 952 001e 2C40     		ands	r4, r4, r5
 953 0020 F5D0     		beq	.L96
 604:Generated_Source\PSoC5/CySpc.c **** 
 954              		.loc 1 604 0
 955 0022 0C68     		ldr	r4, [r1]
 956 0024 24F00104 		bic	r4, r4, #1
 957 0028 0C60     		str	r4, [r1]
 607:Generated_Source\PSoC5/CySpc.c ****                 CY_NOP;
 958              		.loc 1 607 0
 959              		.syntax unified
 960              	@ 607 "Generated_Source\PSoC5\CySpc.c" 1
 961 002a 00BF     		NOP
 962              	
 963              	@ 0 "" 2
 608:Generated_Source\PSoC5/CySpc.c ****                 CY_NOP;
 964              		.loc 1 608 0
 965              	@ 608 "Generated_Source\PSoC5\CySpc.c" 1
 966 002c 00BF     		NOP
 967              	
 968              	@ 0 "" 2
 609:Generated_Source\PSoC5/CySpc.c **** 
 969              		.loc 1 609 0
 970              	@ 609 "Generated_Source\PSoC5\CySpc.c" 1
 971 002e 00BF     		NOP
 972              	
 973              	@ 0 "" 2
 597:Generated_Source\PSoC5/CySpc.c **** 
 974              		.loc 1 597 0
 975              		.thumb
 976              		.syntax unified
 977 0030 1C46     		mov	r4, r3
 978              	.LVL87:
 611:Generated_Source\PSoC5/CySpc.c ****             }
 979              		.loc 1 611 0
 980 0032 5560     		str	r5, [r2, #4]
 618:Generated_Source\PSoC5/CySpc.c **** 
 981              		.loc 1 618 0
 982 0034 FFF7FEFF 		bl	CyExitCriticalSection
 983              	.LVL88:
 984              		.loc 1 621 0
 985 0038 2046     		mov	r0, r4
 986 003a 38BD     		pop	{r3, r4, r5, pc}
 987              	.LVL89:
 988              	.L102:
 989              		.align	2
 990              	.L101:
 991 003c 00000000 		.word	.LANCHOR0
 992 0040 04000840 		.word	1074266116
 993              		.cfi_endproc
 994              	.LFE9:
 995              		.size	CySpcLock, .-CySpcLock
 996              		.section	.text.CySpcUnlock,"ax",%progbits
 997              		.align	2
 998              		.global	CySpcUnlock
ARM GAS  C:\Users\ingan\AppData\Local\Temp\cc4cIvUc.s 			page 31


 999              		.thumb
 1000              		.thumb_func
 1001              		.type	CySpcUnlock, %function
 1002              	CySpcUnlock:
 1003              	.LFB10:
 622:Generated_Source\PSoC5/CySpc.c **** 
 623:Generated_Source\PSoC5/CySpc.c **** 
 624:Generated_Source\PSoC5/CySpc.c **** /*******************************************************************************
 625:Generated_Source\PSoC5/CySpc.c **** * Function Name: CySpcUnlock
 626:Generated_Source\PSoC5/CySpc.c **** ****************************************************************************//**
 627:Generated_Source\PSoC5/CySpc.c **** *  Unlocks the SPC so it can be used by someone else:
 628:Generated_Source\PSoC5/CySpc.c **** *   - Restores wait-pipeline enable state (PSoC5)
 629:Generated_Source\PSoC5/CySpc.c **** *
 630:Generated_Source\PSoC5/CySpc.c **** *******************************************************************************/
 631:Generated_Source\PSoC5/CySpc.c **** void CySpcUnlock(void)
 632:Generated_Source\PSoC5/CySpc.c **** {
 1004              		.loc 1 632 0
 1005              		.cfi_startproc
 1006              		@ args = 0, pretend = 0, frame = 0
 1007              		@ frame_needed = 0, uses_anonymous_args = 0
 1008 0000 10B5     		push	{r4, lr}
 1009              		.cfi_def_cfa_offset 8
 1010              		.cfi_offset 4, -8
 1011              		.cfi_offset 14, -4
 633:Generated_Source\PSoC5/CySpc.c ****     uint8 interruptState;
 634:Generated_Source\PSoC5/CySpc.c **** 
 635:Generated_Source\PSoC5/CySpc.c ****     /* Enter critical section */
 636:Generated_Source\PSoC5/CySpc.c ****     interruptState = CyEnterCriticalSection();
 1012              		.loc 1 636 0
 1013 0002 FFF7FEFF 		bl	CyEnterCriticalSection
 1014              	.LVL90:
 637:Generated_Source\PSoC5/CySpc.c **** 
 638:Generated_Source\PSoC5/CySpc.c ****     /* Release the SPC object */
 639:Generated_Source\PSoC5/CySpc.c ****     SpcLockState = CY_SPC_UNLOCKED;
 1015              		.loc 1 639 0
 1016 0006 094B     		ldr	r3, .L106
 1017 0008 0022     		movs	r2, #0
 640:Generated_Source\PSoC5/CySpc.c **** 
 641:Generated_Source\PSoC5/CySpc.c ****     #if(CY_PSOC5)
 642:Generated_Source\PSoC5/CySpc.c **** 
 643:Generated_Source\PSoC5/CySpc.c ****         if(CY_SPC_CPU_WAITPIPE_BYPASS == spcWaitPipeBypass)
 1018              		.loc 1 643 0
 1019 000a 5968     		ldr	r1, [r3, #4]
 639:Generated_Source\PSoC5/CySpc.c **** 
 1020              		.loc 1 639 0
 1021 000c 1A70     		strb	r2, [r3]
 1022              		.loc 1 643 0
 1023 000e 0129     		cmp	r1, #1
 1024 0010 08D1     		bne	.L104
 644:Generated_Source\PSoC5/CySpc.c ****         {
 645:Generated_Source\PSoC5/CySpc.c ****             /* Force to bypass pipeline registers */
 646:Generated_Source\PSoC5/CySpc.c ****             CY_SPC_CPU_WAITPIPE_REG |= CY_SPC_CPU_WAITPIPE_BYPASS;
 1025              		.loc 1 646 0
 1026 0012 074C     		ldr	r4, .L106+4
 1027 0014 2168     		ldr	r1, [r4]
 1028 0016 41F00101 		orr	r1, r1, #1
 1029 001a 2160     		str	r1, [r4]
ARM GAS  C:\Users\ingan\AppData\Local\Temp\cc4cIvUc.s 			page 32


 647:Generated_Source\PSoC5/CySpc.c **** 
 648:Generated_Source\PSoC5/CySpc.c ****             /* At least 2 NOP instructions are recommended */
 649:Generated_Source\PSoC5/CySpc.c ****             CY_NOP;
 1030              		.loc 1 649 0
 1031              		.syntax unified
 1032              	@ 649 "Generated_Source\PSoC5\CySpc.c" 1
 1033 001c 00BF     		NOP
 1034              	
 1035              	@ 0 "" 2
 650:Generated_Source\PSoC5/CySpc.c ****             CY_NOP;
 1036              		.loc 1 650 0
 1037              	@ 650 "Generated_Source\PSoC5\CySpc.c" 1
 1038 001e 00BF     		NOP
 1039              	
 1040              	@ 0 "" 2
 651:Generated_Source\PSoC5/CySpc.c ****             CY_NOP;
 1041              		.loc 1 651 0
 1042              	@ 651 "Generated_Source\PSoC5\CySpc.c" 1
 1043 0020 00BF     		NOP
 1044              	
 1045              	@ 0 "" 2
 652:Generated_Source\PSoC5/CySpc.c **** 
 653:Generated_Source\PSoC5/CySpc.c ****             spcWaitPipeBypass = 0u;
 1046              		.loc 1 653 0
 1047              		.thumb
 1048              		.syntax unified
 1049 0022 5A60     		str	r2, [r3, #4]
 1050              	.L104:
 654:Generated_Source\PSoC5/CySpc.c ****         }
 655:Generated_Source\PSoC5/CySpc.c **** 
 656:Generated_Source\PSoC5/CySpc.c ****     #endif  /* (CY_PSOC5) */
 657:Generated_Source\PSoC5/CySpc.c **** 
 658:Generated_Source\PSoC5/CySpc.c ****     /* Exit critical section */
 659:Generated_Source\PSoC5/CySpc.c ****     CyExitCriticalSection(interruptState);
 660:Generated_Source\PSoC5/CySpc.c **** }
 1051              		.loc 1 660 0
 1052 0024 BDE81040 		pop	{r4, lr}
 1053              		.cfi_restore 14
 1054              		.cfi_restore 4
 1055              		.cfi_def_cfa_offset 0
 659:Generated_Source\PSoC5/CySpc.c **** }
 1056              		.loc 1 659 0
 1057 0028 FFF7FEBF 		b	CyExitCriticalSection
 1058              	.LVL91:
 1059              	.L107:
 1060              		.align	2
 1061              	.L106:
 1062 002c 00000000 		.word	.LANCHOR0
 1063 0030 04000840 		.word	1074266116
 1064              		.cfi_endproc
 1065              	.LFE10:
 1066              		.size	CySpcUnlock, .-CySpcUnlock
 1067              		.section	.text.CySpcGetAlgorithm,"ax",%progbits
 1068              		.align	2
 1069              		.global	CySpcGetAlgorithm
 1070              		.thumb
 1071              		.thumb_func
ARM GAS  C:\Users\ingan\AppData\Local\Temp\cc4cIvUc.s 			page 33


 1072              		.type	CySpcGetAlgorithm, %function
 1073              	CySpcGetAlgorithm:
 1074              	.LFB11:
 661:Generated_Source\PSoC5/CySpc.c **** 
 662:Generated_Source\PSoC5/CySpc.c **** 
 663:Generated_Source\PSoC5/CySpc.c **** /*******************************************************************************
 664:Generated_Source\PSoC5/CySpc.c **** * Function Name: CySpcGetAlgorithm
 665:Generated_Source\PSoC5/CySpc.c **** ****************************************************************************//**
 666:Generated_Source\PSoC5/CySpc.c **** *  Downloads SPC algorithm from SPC SROM into SRAM.
 667:Generated_Source\PSoC5/CySpc.c **** *
 668:Generated_Source\PSoC5/CySpc.c **** * \return
 669:Generated_Source\PSoC5/CySpc.c **** *  CYRET_STARTED
 670:Generated_Source\PSoC5/CySpc.c **** *  CYRET_LOCKED
 671:Generated_Source\PSoC5/CySpc.c **** *
 672:Generated_Source\PSoC5/CySpc.c **** *******************************************************************************/
 673:Generated_Source\PSoC5/CySpc.c **** cystatus CySpcGetAlgorithm(void)
 674:Generated_Source\PSoC5/CySpc.c **** {
 1075              		.loc 1 674 0
 1076              		.cfi_startproc
 1077              		@ args = 0, pretend = 0, frame = 0
 1078              		@ frame_needed = 0, uses_anonymous_args = 0
 1079              		@ link register save eliminated.
 1080              	.LVL92:
 675:Generated_Source\PSoC5/CySpc.c ****     cystatus status = CYRET_STARTED;
 676:Generated_Source\PSoC5/CySpc.c **** 
 677:Generated_Source\PSoC5/CySpc.c ****     /* Make sure the SPC is ready to accept command */
 678:Generated_Source\PSoC5/CySpc.c ****     if(CY_SPC_IDLE)
 1081              		.loc 1 678 0
 1082 0000 074B     		ldr	r3, .L111
 1083 0002 1B78     		ldrb	r3, [r3]	@ zero_extendqisi2
 1084 0004 9B07     		lsls	r3, r3, #30
 1085 0006 08D5     		bpl	.L110
 679:Generated_Source\PSoC5/CySpc.c ****     {
 680:Generated_Source\PSoC5/CySpc.c ****         CY_SPC_CPU_DATA_REG = CY_SPC_KEY_ONE;
 1086              		.loc 1 680 0
 1087 0008 064B     		ldr	r3, .L111+4
 1088 000a B620     		movs	r0, #182
 681:Generated_Source\PSoC5/CySpc.c ****         CY_SPC_CPU_DATA_REG = CY_SPC_KEY_TWO(CY_SPC_CMD_DWNLD_ALGORITHM);
 1089              		.loc 1 681 0
 1090 000c E021     		movs	r1, #224
 682:Generated_Source\PSoC5/CySpc.c ****         CY_SPC_CPU_DATA_REG = CY_SPC_CMD_DWNLD_ALGORITHM;
 1091              		.loc 1 682 0
 1092 000e 0D22     		movs	r2, #13
 680:Generated_Source\PSoC5/CySpc.c ****         CY_SPC_CPU_DATA_REG = CY_SPC_KEY_TWO(CY_SPC_CMD_DWNLD_ALGORITHM);
 1093              		.loc 1 680 0
 1094 0010 1870     		strb	r0, [r3]
 681:Generated_Source\PSoC5/CySpc.c ****         CY_SPC_CPU_DATA_REG = CY_SPC_KEY_TWO(CY_SPC_CMD_DWNLD_ALGORITHM);
 1095              		.loc 1 681 0
 1096 0012 1970     		strb	r1, [r3]
 675:Generated_Source\PSoC5/CySpc.c **** 
 1097              		.loc 1 675 0
 1098 0014 0720     		movs	r0, #7
 1099              		.loc 1 682 0
 1100 0016 1A70     		strb	r2, [r3]
 1101 0018 7047     		bx	lr
 1102              	.L110:
 683:Generated_Source\PSoC5/CySpc.c ****     }
ARM GAS  C:\Users\ingan\AppData\Local\Temp\cc4cIvUc.s 			page 34


 684:Generated_Source\PSoC5/CySpc.c ****     else
 685:Generated_Source\PSoC5/CySpc.c ****     {
 686:Generated_Source\PSoC5/CySpc.c ****         status = CYRET_LOCKED;
 1103              		.loc 1 686 0
 1104 001a 0420     		movs	r0, #4
 1105              	.LVL93:
 687:Generated_Source\PSoC5/CySpc.c ****     }
 688:Generated_Source\PSoC5/CySpc.c **** 
 689:Generated_Source\PSoC5/CySpc.c ****     return(status);
 690:Generated_Source\PSoC5/CySpc.c **** }
 1106              		.loc 1 690 0
 1107 001c 7047     		bx	lr
 1108              	.L112:
 1109 001e 00BF     		.align	2
 1110              	.L111:
 1111 0020 22470040 		.word	1073760034
 1112 0024 20470040 		.word	1073760032
 1113              		.cfi_endproc
 1114              	.LFE11:
 1115              		.size	CySpcGetAlgorithm, .-CySpcGetAlgorithm
 1116              		.global	SpcLockState
 1117              		.bss
 1118              		.align	2
 1119              		.set	.LANCHOR0,. + 0
 1120              		.type	SpcLockState, %object
 1121              		.size	SpcLockState, 1
 1122              	SpcLockState:
 1123 0000 00       		.space	1
 1124 0001 000000   		.space	3
 1125              		.type	spcWaitPipeBypass, %object
 1126              		.size	spcWaitPipeBypass, 4
 1127              	spcWaitPipeBypass:
 1128 0004 00000000 		.space	4
 1129              		.text
 1130              	.Letext0:
 1131              		.file 2 "Generated_Source\\PSoC5\\cytypes.h"
 1132              		.file 3 "Generated_Source\\PSoC5\\CyLib.h"