ARM GAS  C:\Users\ingan\AppData\Local\Temp\ccSpDBYo.s 			page 1


   1              		.syntax unified
   2              		.cpu cortex-m3
   3              		.fpu softvfp
   4              		.eabi_attribute 20, 1
   5              		.eabi_attribute 21, 1
   6              		.eabi_attribute 23, 3
   7              		.eabi_attribute 24, 1
   8              		.eabi_attribute 25, 1
   9              		.eabi_attribute 26, 1
  10              		.eabi_attribute 30, 2
  11              		.eabi_attribute 34, 1
  12              		.eabi_attribute 18, 4
  13              		.thumb
  14              		.syntax unified
  15              		.file	"main.c"
  16              		.text
  17              	.Ltext0:
  18              		.cfi_sections	.debug_frame
  19              		.syntax unified
  20              		.global _printf_float
  21              		.thumb
  22              		.syntax unified
  23              		.section	.text.ym2612_write_step,"ax",%progbits
  24              		.align	2
  25              		.global	ym2612_write_step
  26              		.thumb
  27              		.thumb_func
  28              		.type	ym2612_write_step, %function
  29              	ym2612_write_step:
  30              	.LFB64:
  31              		.file 1 "main.c"
   1:main.c        **** /*******************************************************************************
   2:main.c        **** * File Name: main.c
   3:main.c        **** *
   4:main.c        **** * Version: 2.0
   5:main.c        **** *
   6:main.c        **** * Description:
   7:main.c        **** *   The component is enumerated as a Virtual Com port. Receives data from the 
   8:main.c        **** *   hyper terminal, then sends back the received data.
   9:main.c        **** *   For PSoC3/PSoC5LP, the LCD shows the line settings.
  10:main.c        **** *
  11:main.c        **** * Related Document:
  12:main.c        **** *  Universal Serial Bus Specification Revision 2.0
  13:main.c        **** *  Universal Serial Bus Class Definitions for Communications Devices
  14:main.c        **** *  Revision 1.2
  15:main.c        **** *
  16:main.c        **** ********************************************************************************
  17:main.c        **** * Copyright 2015, Cypress Semiconductor Corporation. All rights reserved.
  18:main.c        **** * This software is owned by Cypress Semiconductor Corporation and is protected
  19:main.c        **** * by and subject to worldwide patent and copyright laws and treaties.
  20:main.c        **** * Therefore, you may use this software only as provided in the license agreement
  21:main.c        **** * accompanying the software package from which you obtained this software.
  22:main.c        **** * CYPRESS AND ITS SUPPLIERS MAKE NO WARRANTY OF ANY KIND, EXPRESS OR IMPLIED,
  23:main.c        **** * WITH REGARD TO THIS SOFTWARE, INCLUDING, BUT NOT LIMITED TO, NONINFRINGEMENT,
  24:main.c        **** * IMPLIED WARRANTIES OF MERCHANTABILITY AND FITNESS FOR A PARTICULAR PURPOSE.
  25:main.c        **** *******************************************************************************/
  26:main.c        **** 
ARM GAS  C:\Users\ingan\AppData\Local\Temp\ccSpDBYo.s 			page 2


  27:main.c        **** #include <project.h>
  28:main.c        **** #include "stdio.h"
  29:main.c        **** 
  30:main.c        **** #if defined (__GNUC__)
  31:main.c        ****     /* Add an explicit reference to the floating point printf library */
  32:main.c        ****     /* to allow usage of the floating point conversion specifiers. */
  33:main.c        ****     /* This is not linked in by default with the newlib-nano library. */
  34:main.c        ****     asm (".global _printf_float");
  35:main.c        **** #endif
  36:main.c        **** 
  37:main.c        **** #define USBFS_DEVICE    (0u)
  38:main.c        **** 
  39:main.c        **** /* The buffer size is equal to the maximum packet size of the IN and OUT bulk
  40:main.c        **** * endpoints.
  41:main.c        **** */
  42:main.c        **** #define USBUART_BUFFER_SIZE (64u)
  43:main.c        **** #define LINE_STR_LENGTH     (20u)
  44:main.c        **** 
  45:main.c        **** char8* parity[] = {"None", "Odd", "Even", "Mark", "Space"};
  46:main.c        **** char8* stop[]   = {"1", "1.5", "2"};
  47:main.c        **** 
  48:main.c        **** void ym2612_write_step (uint8_t data)
  49:main.c        **** {
  32              		.loc 1 49 0
  33              		.cfi_startproc
  34              		@ args = 0, pretend = 0, frame = 0
  35              		@ frame_needed = 0, uses_anonymous_args = 0
  36              	.LVL0:
  37 0000 10B5     		push	{r4, lr}
  38              		.cfi_def_cfa_offset 8
  39              		.cfi_offset 4, -8
  40              		.cfi_offset 14, -4
  41              		.loc 1 49 0
  42 0002 0446     		mov	r4, r0
  50:main.c        ****   // CS Pin low
  51:main.c        ****   YM_CS_Write(0);
  43              		.loc 1 51 0
  44 0004 0020     		movs	r0, #0
  45              	.LVL1:
  46 0006 FFF7FEFF 		bl	YM_CS_Write
  47              	.LVL2:
  52:main.c        ****   // DATA to bus
  53:main.c        ****   YM_Data_Write(data);
  48              		.loc 1 53 0
  49 000a 2046     		mov	r0, r4
  50 000c FFF7FEFF 		bl	YM_Data_Write
  51              	.LVL3:
  54:main.c        ****   // WR data
  55:main.c        ****   YM_WR_Write(0);
  52              		.loc 1 55 0
  53 0010 0020     		movs	r0, #0
  54 0012 FFF7FEFF 		bl	YM_WR_Write
  55              	.LVL4:
  56:main.c        ****   YM_RD_Write(1);
  56              		.loc 1 56 0
  57 0016 0120     		movs	r0, #1
  58 0018 FFF7FEFF 		bl	YM_RD_Write
ARM GAS  C:\Users\ingan\AppData\Local\Temp\ccSpDBYo.s 			page 3


  59              	.LVL5:
  57:main.c        ****   //CyDelayCycles(1);
  58:main.c        ****   CyDelayUs(1);
  60              		.loc 1 58 0
  61 001c 0120     		movs	r0, #1
  62 001e FFF7FEFF 		bl	CyDelayUs
  63              	.LVL6:
  59:main.c        ****   YM_WR_Write(1);
  64              		.loc 1 59 0
  65 0022 0120     		movs	r0, #1
  66 0024 FFF7FEFF 		bl	YM_WR_Write
  67              	.LVL7:
  60:main.c        ****   YM_RD_Write(0);
  68              		.loc 1 60 0
  69 0028 0020     		movs	r0, #0
  70 002a FFF7FEFF 		bl	YM_RD_Write
  71              	.LVL8:
  61:main.c        ****   // CS Pin high
  62:main.c        ****   YM_CS_Write(1);
  72              		.loc 1 62 0
  73 002e 0120     		movs	r0, #1
  74 0030 FFF7FEFF 		bl	YM_CS_Write
  75              	.LVL9:
  63:main.c        ****   CyDelayUs(1);
  64:main.c        ****   //CyDelayCycles(1);
  65:main.c        **** }
  76              		.loc 1 65 0
  77 0034 BDE81040 		pop	{r4, lr}
  78              		.cfi_restore 14
  79              		.cfi_restore 4
  80              		.cfi_def_cfa_offset 0
  63:main.c        ****   CyDelayUs(1);
  81              		.loc 1 63 0
  82 0038 0120     		movs	r0, #1
  83 003a FFF7FEBF 		b	CyDelayUs
  84              	.LVL10:
  85              		.cfi_endproc
  86              	.LFE64:
  87              		.size	ym2612_write_step, .-ym2612_write_step
  88 003e 00BF     		.section	.text.ym2612_write,"ax",%progbits
  89              		.align	2
  90              		.global	ym2612_write
  91              		.thumb
  92              		.thumb_func
  93              		.type	ym2612_write, %function
  94              	ym2612_write:
  95              	.LFB65:
  66:main.c        **** 
  67:main.c        **** void ym2612_write(uint8_t reg, uint8_t data, uint8_t port)
  68:main.c        **** {
  96              		.loc 1 68 0
  97              		.cfi_startproc
  98              		@ args = 0, pretend = 0, frame = 0
  99              		@ frame_needed = 0, uses_anonymous_args = 0
 100              	.LVL11:
 101 0000 38B5     		push	{r3, r4, r5, lr}
 102              		.cfi_def_cfa_offset 16
ARM GAS  C:\Users\ingan\AppData\Local\Temp\ccSpDBYo.s 			page 4


 103              		.cfi_offset 3, -16
 104              		.cfi_offset 4, -12
 105              		.cfi_offset 5, -8
 106              		.cfi_offset 14, -4
 107              		.loc 1 68 0
 108 0002 0546     		mov	r5, r0
 109 0004 0C46     		mov	r4, r1
  69:main.c        ****   // A1 selects part0 (channels 1-3) or part1 (channels 1-6)
  70:main.c        ****   YM_A1_Write(port);
 110              		.loc 1 70 0
 111 0006 1046     		mov	r0, r2
 112              	.LVL12:
 113 0008 FFF7FEFF 		bl	YM_A1_Write
 114              	.LVL13:
  71:main.c        ****   YM_A0_Write(0);
 115              		.loc 1 71 0
 116 000c 0020     		movs	r0, #0
 117 000e FFF7FEFF 		bl	YM_A0_Write
 118              	.LVL14:
 119              	.LBB6:
 120              	.LBB7:
  51:main.c        ****   // DATA to bus
 121              		.loc 1 51 0
 122 0012 0020     		movs	r0, #0
 123 0014 FFF7FEFF 		bl	YM_CS_Write
 124              	.LVL15:
  53:main.c        ****   // WR data
 125              		.loc 1 53 0
 126 0018 2846     		mov	r0, r5
 127 001a FFF7FEFF 		bl	YM_Data_Write
 128              	.LVL16:
  55:main.c        ****   YM_RD_Write(1);
 129              		.loc 1 55 0
 130 001e 0020     		movs	r0, #0
 131 0020 FFF7FEFF 		bl	YM_WR_Write
 132              	.LVL17:
  56:main.c        ****   //CyDelayCycles(1);
 133              		.loc 1 56 0
 134 0024 0120     		movs	r0, #1
 135 0026 FFF7FEFF 		bl	YM_RD_Write
 136              	.LVL18:
  58:main.c        ****   YM_WR_Write(1);
 137              		.loc 1 58 0
 138 002a 0120     		movs	r0, #1
 139 002c FFF7FEFF 		bl	CyDelayUs
 140              	.LVL19:
  59:main.c        ****   YM_RD_Write(0);
 141              		.loc 1 59 0
 142 0030 0120     		movs	r0, #1
 143 0032 FFF7FEFF 		bl	YM_WR_Write
 144              	.LVL20:
  60:main.c        ****   // CS Pin high
 145              		.loc 1 60 0
 146 0036 0020     		movs	r0, #0
 147 0038 FFF7FEFF 		bl	YM_RD_Write
 148              	.LVL21:
  62:main.c        ****   CyDelayUs(1);
ARM GAS  C:\Users\ingan\AppData\Local\Temp\ccSpDBYo.s 			page 5


 149              		.loc 1 62 0
 150 003c 0120     		movs	r0, #1
 151 003e FFF7FEFF 		bl	YM_CS_Write
 152              	.LVL22:
  63:main.c        ****   //CyDelayCycles(1);
 153              		.loc 1 63 0
 154 0042 0120     		movs	r0, #1
 155 0044 FFF7FEFF 		bl	CyDelayUs
 156              	.LVL23:
 157              	.LBE7:
 158              	.LBE6:
  72:main.c        ****   // write register selection
  73:main.c        ****   ym2612_write_step(reg);
  74:main.c        ****   // data part 0 (channels 1-3)
  75:main.c        ****   // A1 low, A0 high
  76:main.c        ****   YM_A0_Write(1);
 159              		.loc 1 76 0
 160 0048 0120     		movs	r0, #1
 161 004a FFF7FEFF 		bl	YM_A0_Write
 162              	.LVL24:
 163              	.LBB8:
 164              	.LBB9:
  51:main.c        ****   // DATA to bus
 165              		.loc 1 51 0
 166 004e 0020     		movs	r0, #0
 167 0050 FFF7FEFF 		bl	YM_CS_Write
 168              	.LVL25:
  53:main.c        ****   // WR data
 169              		.loc 1 53 0
 170 0054 2046     		mov	r0, r4
 171 0056 FFF7FEFF 		bl	YM_Data_Write
 172              	.LVL26:
  55:main.c        ****   YM_RD_Write(1);
 173              		.loc 1 55 0
 174 005a 0020     		movs	r0, #0
 175 005c FFF7FEFF 		bl	YM_WR_Write
 176              	.LVL27:
  56:main.c        ****   //CyDelayCycles(1);
 177              		.loc 1 56 0
 178 0060 0120     		movs	r0, #1
 179 0062 FFF7FEFF 		bl	YM_RD_Write
 180              	.LVL28:
  58:main.c        ****   YM_WR_Write(1);
 181              		.loc 1 58 0
 182 0066 0120     		movs	r0, #1
 183 0068 FFF7FEFF 		bl	CyDelayUs
 184              	.LVL29:
  59:main.c        ****   YM_RD_Write(0);
 185              		.loc 1 59 0
 186 006c 0120     		movs	r0, #1
 187 006e FFF7FEFF 		bl	YM_WR_Write
 188              	.LVL30:
  60:main.c        ****   // CS Pin high
 189              		.loc 1 60 0
 190 0072 0020     		movs	r0, #0
 191 0074 FFF7FEFF 		bl	YM_RD_Write
 192              	.LVL31:
ARM GAS  C:\Users\ingan\AppData\Local\Temp\ccSpDBYo.s 			page 6


  62:main.c        ****   CyDelayUs(1);
 193              		.loc 1 62 0
 194 0078 0120     		movs	r0, #1
 195 007a FFF7FEFF 		bl	YM_CS_Write
 196              	.LVL32:
 197              	.LBE9:
 198              	.LBE8:
  77:main.c        ****   ym2612_write_step(data);
  78:main.c        **** }
 199              		.loc 1 78 0
 200 007e BDE83840 		pop	{r3, r4, r5, lr}
 201              		.cfi_restore 14
 202              		.cfi_restore 5
 203              		.cfi_restore 4
 204              		.cfi_restore 3
 205              		.cfi_def_cfa_offset 0
 206              	.LVL33:
 207              	.LBB11:
 208              	.LBB10:
  63:main.c        ****   //CyDelayCycles(1);
 209              		.loc 1 63 0
 210 0082 0120     		movs	r0, #1
 211 0084 FFF7FEBF 		b	CyDelayUs
 212              	.LVL34:
 213              	.LBE10:
 214              	.LBE11:
 215              		.cfi_endproc
 216              	.LFE65:
 217              		.size	ym2612_write, .-ym2612_write
 218              		.section	.text.sn76489_write,"ax",%progbits
 219              		.align	2
 220              		.global	sn76489_write
 221              		.thumb
 222              		.thumb_func
 223              		.type	sn76489_write, %function
 224              	sn76489_write:
 225              	.LFB66:
  79:main.c        **** 
  80:main.c        **** void sn76489_write(uint8_t data)
  81:main.c        **** {
 226              		.loc 1 81 0
 227              		.cfi_startproc
 228              		@ args = 0, pretend = 0, frame = 0
 229              		@ frame_needed = 0, uses_anonymous_args = 0
 230              	.LVL35:
 231 0000 10B5     		push	{r4, lr}
 232              		.cfi_def_cfa_offset 8
 233              		.cfi_offset 4, -8
 234              		.cfi_offset 14, -4
 235              		.loc 1 81 0
 236 0002 0446     		mov	r4, r0
  82:main.c        ****   //data = flip_byte(data);  
  83:main.c        ****   SN_WE_Write(1);
 237              		.loc 1 83 0
 238 0004 0120     		movs	r0, #1
 239              	.LVL36:
 240 0006 FFF7FEFF 		bl	SN_WE_Write
ARM GAS  C:\Users\ingan\AppData\Local\Temp\ccSpDBYo.s 			page 7


 241              	.LVL37:
  84:main.c        ****   YM_Data_Write(data);
 242              		.loc 1 84 0
 243 000a 2046     		mov	r0, r4
 244 000c FFF7FEFF 		bl	YM_Data_Write
 245              	.LVL38:
  85:main.c        ****   SN_WE_Write(0);
 246              		.loc 1 85 0
 247 0010 0020     		movs	r0, #0
 248 0012 FFF7FEFF 		bl	SN_WE_Write
 249              	.LVL39:
  86:main.c        ****   //CyDelayCycles(1);
  87:main.c        ****   CyDelayUs(18);
 250              		.loc 1 87 0
 251 0016 1220     		movs	r0, #18
 252 0018 FFF7FEFF 		bl	CyDelayUs
 253              	.LVL40:
  88:main.c        ****   SN_WE_Write(1);
  89:main.c        **** }
 254              		.loc 1 89 0
 255 001c BDE81040 		pop	{r4, lr}
 256              		.cfi_restore 14
 257              		.cfi_restore 4
 258              		.cfi_def_cfa_offset 0
  88:main.c        ****   SN_WE_Write(1);
 259              		.loc 1 88 0
 260 0020 0120     		movs	r0, #1
 261 0022 FFF7FEBF 		b	SN_WE_Write
 262              	.LVL41:
 263              		.cfi_endproc
 264              	.LFE66:
 265              		.size	sn76489_write, .-sn76489_write
 266 0026 00BF     		.section	.text.ym2612_reset,"ax",%progbits
 267              		.align	2
 268              		.global	ym2612_reset
 269              		.thumb
 270              		.thumb_func
 271              		.type	ym2612_reset, %function
 272              	ym2612_reset:
 273              	.LFB67:
  90:main.c        **** 
  91:main.c        **** void ym2612_reset()
  92:main.c        **** {
 274              		.loc 1 92 0
 275              		.cfi_startproc
 276              		@ args = 0, pretend = 0, frame = 0
 277              		@ frame_needed = 0, uses_anonymous_args = 0
 278 0000 08B5     		push	{r3, lr}
 279              		.cfi_def_cfa_offset 8
 280              		.cfi_offset 3, -8
 281              		.cfi_offset 14, -4
  93:main.c        ****   //YM_IC_Write(0);
  94:main.c        ****   //CyDelayUs(1);
  95:main.c        ****   //YM_IC_Write(1);
  96:main.c        ****   YM_IC_Write(0);
 282              		.loc 1 96 0
 283 0002 0020     		movs	r0, #0
ARM GAS  C:\Users\ingan\AppData\Local\Temp\ccSpDBYo.s 			page 8


 284 0004 FFF7FEFF 		bl	YM_IC_Write
 285              	.LVL42:
  97:main.c        ****   CyDelay(10);
 286              		.loc 1 97 0
 287 0008 0A20     		movs	r0, #10
 288 000a FFF7FEFF 		bl	CyDelay
 289              	.LVL43:
  98:main.c        ****   YM_IC_Write(1);
 290              		.loc 1 98 0
 291 000e 0120     		movs	r0, #1
 292 0010 FFF7FEFF 		bl	YM_IC_Write
 293              	.LVL44:
  99:main.c        ****   CyDelay(10);  
 100:main.c        ****   // Silence channel-0 to channel-6
 101:main.c        ****   //for (uint8_t ch = 0; ch <= 6; ++ch)
 102:main.c        ****   //  ym2612_write(0x28, ch, 0);
 103:main.c        **** }
 294              		.loc 1 103 0
 295 0014 BDE80840 		pop	{r3, lr}
 296              		.cfi_restore 14
 297              		.cfi_restore 3
 298              		.cfi_def_cfa_offset 0
  99:main.c        ****   CyDelay(10);  
 299              		.loc 1 99 0
 300 0018 0A20     		movs	r0, #10
 301 001a FFF7FEBF 		b	CyDelay
 302              	.LVL45:
 303              		.cfi_endproc
 304              	.LFE67:
 305              		.size	ym2612_reset, .-ym2612_reset
 306 001e 00BF     		.section	.text.ym2612_init,"ax",%progbits
 307              		.align	2
 308              		.global	ym2612_init
 309              		.thumb
 310              		.thumb_func
 311              		.type	ym2612_init, %function
 312              	ym2612_init:
 313              	.LFB68:
 104:main.c        **** 
 105:main.c        **** void ym2612_init (void)
 106:main.c        **** {
 314              		.loc 1 106 0
 315              		.cfi_startproc
 316              		@ args = 0, pretend = 0, frame = 0
 317              		@ frame_needed = 0, uses_anonymous_args = 0
 318 0000 08B5     		push	{r3, lr}
 319              		.cfi_def_cfa_offset 8
 320              		.cfi_offset 3, -8
 321              		.cfi_offset 14, -4
 107:main.c        ****   YM_CS_Write(1);
 322              		.loc 1 107 0
 323 0002 0120     		movs	r0, #1
 324 0004 FFF7FEFF 		bl	YM_CS_Write
 325              	.LVL46:
 108:main.c        ****   YM_WR_Write(1);
 326              		.loc 1 108 0
 327 0008 0120     		movs	r0, #1
ARM GAS  C:\Users\ingan\AppData\Local\Temp\ccSpDBYo.s 			page 9


 328 000a FFF7FEFF 		bl	YM_WR_Write
 329              	.LVL47:
 109:main.c        ****   YM_RD_Write(1);
 330              		.loc 1 109 0
 331 000e 0120     		movs	r0, #1
 332 0010 FFF7FEFF 		bl	YM_RD_Write
 333              	.LVL48:
 110:main.c        ****   YM_IC_Write(1);
 334              		.loc 1 110 0
 335 0014 0120     		movs	r0, #1
 336 0016 FFF7FEFF 		bl	YM_IC_Write
 337              	.LVL49:
 111:main.c        ****   YM_A0_Write(0);
 338              		.loc 1 111 0
 339 001a 0020     		movs	r0, #0
 340 001c FFF7FEFF 		bl	YM_A0_Write
 341              	.LVL50:
 112:main.c        ****   YM_A1_Write(0);
 342              		.loc 1 112 0
 343 0020 0020     		movs	r0, #0
 344 0022 FFF7FEFF 		bl	YM_A1_Write
 345              	.LVL51:
 113:main.c        ****   YM_Data_Write(0xff);
 114:main.c        **** }
 346              		.loc 1 114 0
 347 0026 BDE80840 		pop	{r3, lr}
 348              		.cfi_restore 14
 349              		.cfi_restore 3
 350              		.cfi_def_cfa_offset 0
 113:main.c        ****   YM_Data_Write(0xff);
 351              		.loc 1 113 0
 352 002a FF20     		movs	r0, #255
 353 002c FFF7FEBF 		b	YM_Data_Write
 354              	.LVL52:
 355              		.cfi_endproc
 356              	.LFE68:
 357              		.size	ym2612_init, .-ym2612_init
 358              		.section	.text.SilenceAllChannels,"ax",%progbits
 359              		.align	2
 360              		.global	SilenceAllChannels
 361              		.thumb
 362              		.thumb_func
 363              		.type	SilenceAllChannels, %function
 364              	SilenceAllChannels:
 365              	.LFB69:
 115:main.c        **** 
 116:main.c        **** void SilenceAllChannels()
 117:main.c        **** {  
 366              		.loc 1 117 0
 367              		.cfi_startproc
 368              		@ args = 0, pretend = 0, frame = 0
 369              		@ frame_needed = 0, uses_anonymous_args = 0
 370              	.LVL53:
 371 0000 08B5     		push	{r3, lr}
 372              		.cfi_def_cfa_offset 8
 373              		.cfi_offset 3, -8
 374              		.cfi_offset 14, -4
ARM GAS  C:\Users\ingan\AppData\Local\Temp\ccSpDBYo.s 			page 10


 375              	.LBB24:
 376              	.LBB25:
  83:main.c        ****   YM_Data_Write(data);
 377              		.loc 1 83 0
 378 0002 0120     		movs	r0, #1
 379 0004 FFF7FEFF 		bl	SN_WE_Write
 380              	.LVL54:
  84:main.c        ****   SN_WE_Write(0);
 381              		.loc 1 84 0
 382 0008 9F20     		movs	r0, #159
 383 000a FFF7FEFF 		bl	YM_Data_Write
 384              	.LVL55:
  85:main.c        ****   //CyDelayCycles(1);
 385              		.loc 1 85 0
 386 000e 0020     		movs	r0, #0
 387 0010 FFF7FEFF 		bl	SN_WE_Write
 388              	.LVL56:
  87:main.c        ****   SN_WE_Write(1);
 389              		.loc 1 87 0
 390 0014 1220     		movs	r0, #18
 391 0016 FFF7FEFF 		bl	CyDelayUs
 392              	.LVL57:
  88:main.c        **** }
 393              		.loc 1 88 0
 394 001a 0120     		movs	r0, #1
 395 001c FFF7FEFF 		bl	SN_WE_Write
 396              	.LVL58:
 397              	.LBE25:
 398              	.LBE24:
 399              	.LBB26:
 400              	.LBB27:
  83:main.c        ****   YM_Data_Write(data);
 401              		.loc 1 83 0
 402 0020 0120     		movs	r0, #1
 403 0022 FFF7FEFF 		bl	SN_WE_Write
 404              	.LVL59:
  84:main.c        ****   SN_WE_Write(0);
 405              		.loc 1 84 0
 406 0026 BF20     		movs	r0, #191
 407 0028 FFF7FEFF 		bl	YM_Data_Write
 408              	.LVL60:
  85:main.c        ****   //CyDelayCycles(1);
 409              		.loc 1 85 0
 410 002c 0020     		movs	r0, #0
 411 002e FFF7FEFF 		bl	SN_WE_Write
 412              	.LVL61:
  87:main.c        ****   SN_WE_Write(1);
 413              		.loc 1 87 0
 414 0032 1220     		movs	r0, #18
 415 0034 FFF7FEFF 		bl	CyDelayUs
 416              	.LVL62:
  88:main.c        **** }
 417              		.loc 1 88 0
 418 0038 0120     		movs	r0, #1
 419 003a FFF7FEFF 		bl	SN_WE_Write
 420              	.LVL63:
 421              	.LBE27:
ARM GAS  C:\Users\ingan\AppData\Local\Temp\ccSpDBYo.s 			page 11


 422              	.LBE26:
 423              	.LBB28:
 424              	.LBB29:
  83:main.c        ****   YM_Data_Write(data);
 425              		.loc 1 83 0
 426 003e 0120     		movs	r0, #1
 427 0040 FFF7FEFF 		bl	SN_WE_Write
 428              	.LVL64:
  84:main.c        ****   SN_WE_Write(0);
 429              		.loc 1 84 0
 430 0044 DF20     		movs	r0, #223
 431 0046 FFF7FEFF 		bl	YM_Data_Write
 432              	.LVL65:
  85:main.c        ****   //CyDelayCycles(1);
 433              		.loc 1 85 0
 434 004a 0020     		movs	r0, #0
 435 004c FFF7FEFF 		bl	SN_WE_Write
 436              	.LVL66:
  87:main.c        ****   SN_WE_Write(1);
 437              		.loc 1 87 0
 438 0050 1220     		movs	r0, #18
 439 0052 FFF7FEFF 		bl	CyDelayUs
 440              	.LVL67:
  88:main.c        **** }
 441              		.loc 1 88 0
 442 0056 0120     		movs	r0, #1
 443 0058 FFF7FEFF 		bl	SN_WE_Write
 444              	.LVL68:
 445              	.LBE29:
 446              	.LBE28:
 447              	.LBB30:
 448              	.LBB31:
  83:main.c        ****   YM_Data_Write(data);
 449              		.loc 1 83 0
 450 005c 0120     		movs	r0, #1
 451 005e FFF7FEFF 		bl	SN_WE_Write
 452              	.LVL69:
  84:main.c        ****   SN_WE_Write(0);
 453              		.loc 1 84 0
 454 0062 FF20     		movs	r0, #255
 455 0064 FFF7FEFF 		bl	YM_Data_Write
 456              	.LVL70:
  85:main.c        ****   //CyDelayCycles(1);
 457              		.loc 1 85 0
 458 0068 0020     		movs	r0, #0
 459 006a FFF7FEFF 		bl	SN_WE_Write
 460              	.LVL71:
  87:main.c        ****   SN_WE_Write(1);
 461              		.loc 1 87 0
 462 006e 1220     		movs	r0, #18
 463 0070 FFF7FEFF 		bl	CyDelayUs
 464              	.LVL72:
  88:main.c        **** }
 465              		.loc 1 88 0
 466 0074 0120     		movs	r0, #1
 467 0076 FFF7FEFF 		bl	SN_WE_Write
 468              	.LVL73:
ARM GAS  C:\Users\ingan\AppData\Local\Temp\ccSpDBYo.s 			page 12


 469              	.LBE31:
 470              	.LBE30:
 471              	.LBB32:
 472              	.LBB33:
 107:main.c        ****   YM_WR_Write(1);
 473              		.loc 1 107 0
 474 007a 0120     		movs	r0, #1
 475 007c FFF7FEFF 		bl	YM_CS_Write
 476              	.LVL74:
 108:main.c        ****   YM_RD_Write(1);
 477              		.loc 1 108 0
 478 0080 0120     		movs	r0, #1
 479 0082 FFF7FEFF 		bl	YM_WR_Write
 480              	.LVL75:
 109:main.c        ****   YM_IC_Write(1);
 481              		.loc 1 109 0
 482 0086 0120     		movs	r0, #1
 483 0088 FFF7FEFF 		bl	YM_RD_Write
 484              	.LVL76:
 110:main.c        ****   YM_A0_Write(0);
 485              		.loc 1 110 0
 486 008c 0120     		movs	r0, #1
 487 008e FFF7FEFF 		bl	YM_IC_Write
 488              	.LVL77:
 111:main.c        ****   YM_A1_Write(0);
 489              		.loc 1 111 0
 490 0092 0020     		movs	r0, #0
 491 0094 FFF7FEFF 		bl	YM_A0_Write
 492              	.LVL78:
 112:main.c        ****   YM_Data_Write(0xff);
 493              		.loc 1 112 0
 494 0098 0020     		movs	r0, #0
 495 009a FFF7FEFF 		bl	YM_A1_Write
 496              	.LVL79:
 113:main.c        **** }
 497              		.loc 1 113 0
 498 009e FF20     		movs	r0, #255
 499 00a0 FFF7FEFF 		bl	YM_Data_Write
 500              	.LVL80:
 501              	.LBE33:
 502              	.LBE32:
 503              	.LBB34:
 504              	.LBB35:
  96:main.c        ****   CyDelay(10);
 505              		.loc 1 96 0
 506 00a4 0020     		movs	r0, #0
 507 00a6 FFF7FEFF 		bl	YM_IC_Write
 508              	.LVL81:
  97:main.c        ****   YM_IC_Write(1);
 509              		.loc 1 97 0
 510 00aa 0A20     		movs	r0, #10
 511 00ac FFF7FEFF 		bl	CyDelay
 512              	.LVL82:
  98:main.c        ****   CyDelay(10);  
 513              		.loc 1 98 0
 514 00b0 0120     		movs	r0, #1
 515 00b2 FFF7FEFF 		bl	YM_IC_Write
ARM GAS  C:\Users\ingan\AppData\Local\Temp\ccSpDBYo.s 			page 13


 516              	.LVL83:
 517              	.LBE35:
 518              	.LBE34:
 118:main.c        ****   sn76489_write(0x9f);
 119:main.c        ****   sn76489_write(0xbf);
 120:main.c        ****   sn76489_write(0xdf);
 121:main.c        ****   sn76489_write(0xff);
 122:main.c        **** 
 123:main.c        ****   ym2612_init();
 124:main.c        ****   ym2612_reset();
 125:main.c        **** }
 519              		.loc 1 125 0
 520 00b6 BDE80840 		pop	{r3, lr}
 521              		.cfi_restore 14
 522              		.cfi_restore 3
 523              		.cfi_def_cfa_offset 0
 524              	.LBB37:
 525              	.LBB36:
  99:main.c        ****   // Silence channel-0 to channel-6
 526              		.loc 1 99 0
 527 00ba 0A20     		movs	r0, #10
 528 00bc FFF7FEBF 		b	CyDelay
 529              	.LVL84:
 530              	.LBE36:
 531              	.LBE37:
 532              		.cfi_endproc
 533              	.LFE69:
 534              		.size	SilenceAllChannels, .-SilenceAllChannels
 535              		.section	.text.startup.main,"ax",%progbits
 536              		.align	2
 537              		.global	main
 538              		.thumb
 539              		.thumb_func
 540              		.type	main, %function
 541              	main:
 542              	.LFB70:
 126:main.c        **** 
 127:main.c        **** /*******************************************************************************
 128:main.c        **** * Function Name: main
 129:main.c        **** ********************************************************************************
 130:main.c        **** *
 131:main.c        **** * Summary:
 132:main.c        **** *  The main function performs the following actions:
 133:main.c        **** *   1. Waits until VBUS becomes valid and starts the USBFS component which is
 134:main.c        **** *      enumerated as virtual Com port.
 135:main.c        **** *   2. Waits until the device is enumerated by the host.
 136:main.c        **** *   3. Waits for data coming from the hyper terminal and sends it back.
 137:main.c        **** *   4. PSoC3/PSoC5LP: the LCD shows the line settings.
 138:main.c        **** *
 139:main.c        **** * Parameters:
 140:main.c        **** *  None.
 141:main.c        **** *
 142:main.c        **** * Return:
 143:main.c        **** *  None.
 144:main.c        **** *
 145:main.c        **** *******************************************************************************/
 146:main.c        **** int main()
ARM GAS  C:\Users\ingan\AppData\Local\Temp\ccSpDBYo.s 			page 14


 147:main.c        **** {
 543              		.loc 1 147 0
 544              		.cfi_startproc
 545              		@ args = 0, pretend = 0, frame = 64
 546              		@ frame_needed = 0, uses_anonymous_args = 0
 547              	.LVL85:
 548 0000 30B5     		push	{r4, r5, lr}
 549              		.cfi_def_cfa_offset 12
 550              		.cfi_offset 4, -12
 551              		.cfi_offset 5, -8
 552              		.cfi_offset 14, -4
 553 0002 91B0     		sub	sp, sp, #68
 554              		.cfi_def_cfa_offset 80
 148:main.c        ****     uint16 count;
 149:main.c        ****     uint8 buffer[USBUART_BUFFER_SIZE];
 150:main.c        ****     uint8_t command = 0;
 151:main.c        ****     uint8_t reg = 0;
 152:main.c        ****     uint8_t data = 0;
 153:main.c        ****     uint8_t test[10000];
 154:main.c        ****     uint16_t idx = 0;
 155:main.c        ****     //uint16_t waitData = 0;
 156:main.c        ****     
 157:main.c        **** //#if (CY_PSOC3 || CY_PSOC5LP)
 158:main.c        **** //    uint8 state;
 159:main.c        **** //    char8 lineStr[LINE_STR_LENGTH];
 160:main.c        **** //    
 161:main.c        **** //    LCD_Start();
 162:main.c        **** //#endif /* (CY_PSOC3 || CY_PSOC5LP) */
 163:main.c        ****     
 164:main.c        ****     SilenceAllChannels();
 555              		.loc 1 164 0
 556 0004 FFF7FEFF 		bl	SilenceAllChannels
 557              	.LVL86:
 165:main.c        ****     CyGlobalIntEnable;
 558              		.loc 1 165 0
 559              		.syntax unified
 560              	@ 165 "main.c" 1
 561 0008 62B6     		CPSIE   i
 562              	@ 0 "" 2
 166:main.c        **** 
 167:main.c        ****     /* Start USBFS operation with 5-V operation. */
 168:main.c        ****     USBUART_Start(USBFS_DEVICE, USBUART_5V_OPERATION);
 563              		.loc 1 168 0
 564              		.thumb
 565              		.syntax unified
 566 000a 0121     		movs	r1, #1
 567 000c 0020     		movs	r0, #0
 568 000e FFF7FEFF 		bl	USBUART_Start
 569              	.LVL87:
 570 0012 02E0     		b	.L19
 571              	.LVL88:
 572              	.L17:
 169:main.c        ****     
 170:main.c        ****     for(;;)
 171:main.c        ****     {
 172:main.c        ****         /* Host can send double SET_INTERFACE request. */
 173:main.c        ****         if (0u != USBUART_IsConfigurationChanged())
ARM GAS  C:\Users\ingan\AppData\Local\Temp\ccSpDBYo.s 			page 15


 174:main.c        ****         {
 175:main.c        ****             /* Initialize IN endpoints when device is configured. */
 176:main.c        ****             if (0u != USBUART_GetConfiguration())
 177:main.c        ****             {
 178:main.c        ****                 /* Enumeration is done, enable OUT endpoint to receive data 
 179:main.c        ****                  * from host. */
 180:main.c        ****                 USBUART_CDC_Init();
 181:main.c        ****             }
 182:main.c        ****         }
 183:main.c        **** 
 184:main.c        ****         /* Service USB CDC when device is configured. */
 185:main.c        ****         if (0u != USBUART_GetConfiguration())
 573              		.loc 1 185 0
 574 0014 FFF7FEFF 		bl	USBUART_GetConfiguration
 575              	.LVL89:
 576 0018 68B9     		cbnz	r0, .L34
 577              	.L19:
 173:main.c        ****         {
 578              		.loc 1 173 0
 579 001a FFF7FEFF 		bl	USBUART_IsConfigurationChanged
 580              	.LVL90:
 581 001e 0028     		cmp	r0, #0
 582 0020 F8D0     		beq	.L17
 176:main.c        ****             {
 583              		.loc 1 176 0
 584 0022 FFF7FEFF 		bl	USBUART_GetConfiguration
 585              	.LVL91:
 586 0026 0028     		cmp	r0, #0
 587 0028 F4D0     		beq	.L17
 180:main.c        ****             }
 588              		.loc 1 180 0
 589 002a FFF7FEFF 		bl	USBUART_CDC_Init
 590              	.LVL92:
 591              		.loc 1 185 0
 592 002e FFF7FEFF 		bl	USBUART_GetConfiguration
 593              	.LVL93:
 594 0032 0028     		cmp	r0, #0
 595 0034 F1D0     		beq	.L19
 596              	.L34:
 186:main.c        ****         {
 187:main.c        ****             /* Check for input data from host. */
 188:main.c        ****             if (0u != USBUART_DataIsReady())
 597              		.loc 1 188 0
 598 0036 FFF7FEFF 		bl	USBUART_DataIsReady
 599              	.LVL94:
 600 003a 0028     		cmp	r0, #0
 601 003c EDD0     		beq	.L19
 189:main.c        ****             {
 190:main.c        ****                 /* Read received data and re-enable OUT endpoint. */
 191:main.c        ****                 count = USBUART_GetAll(buffer);
 602              		.loc 1 191 0
 603 003e 6846     		mov	r0, sp
 604 0040 FFF7FEFF 		bl	USBUART_GetAll
 605              	.LVL95:
 192:main.c        ****                 //USBUART_PutData(buffer, count);
 193:main.c        ****                 
 194:main.c        ****                 command = buffer[0];
ARM GAS  C:\Users\ingan\AppData\Local\Temp\ccSpDBYo.s 			page 16


 195:main.c        ****                 
 196:main.c        ****                 // check for seek command
 197:main.c        ****                 //if (command == 0xe0) // 0xE0 	dddddddd 	Seek to offset dddddddd (Intel byte order
 198:main.c        ****                 //{
 199:main.c        ****                 //    pcm_index = pcm_offset + get_vgm_ui32();
 200:main.c        ****                 //}
 201:main.c        ****                         
 202:main.c        ****                 switch (buffer[0]) {
 606              		.loc 1 202 0
 607 0044 9DF80000 		ldrb	r0, [sp]	@ zero_extendqisi2
 608 0048 5028     		cmp	r0, #80
 609 004a 49D0     		beq	.L21
 610 004c E5D3     		bcc	.L19
 611 004e A0F15203 		sub	r3, r0, #82
 612 0052 012B     		cmp	r3, #1
 613 0054 E1D8     		bhi	.L19
 614              	.LBB46:
 615              	.LBB47:
  70:main.c        ****   YM_A0_Write(0);
 616              		.loc 1 70 0
 617 0056 00F00100 		and	r0, r0, #1
 618              	.LBE47:
 619              	.LBE46:
 203:main.c        ****                     
 204:main.c        **** //                    case 0x4f: // Game Gear stereo PSG (skip)
 205:main.c        **** //                        //get_vgm_ui16();
 206:main.c        **** //                        break;
 207:main.c        ****                     
 208:main.c        ****                     case 0x50: // 0x50 	dd 	PSG (SN76489/SN76496) write value dd
 209:main.c        ****                         
 210:main.c        ****                         sn76489_write(buffer[1]);
 211:main.c        ****                         break;
 212:main.c        ****                     
 213:main.c        ****                     case 0x52: // 0x52 	aa dd  YM2612 port 0, write value dd to register aa
 214:main.c        ****                     case 0x53: // 0x53 	aa dd  YM2612 port 1, write value dd to register aa
 215:main.c        ****                         //reg = buffer[1];
 216:main.c        ****                         //data = buffer[2];
 217:main.c        ****                         ym2612_write(buffer[1], buffer[2], buffer[0] & 0x01);
 620              		.loc 1 217 0
 621 005a 9DF80150 		ldrb	r5, [sp, #1]	@ zero_extendqisi2
 622 005e 9DF80240 		ldrb	r4, [sp, #2]	@ zero_extendqisi2
 623              	.LVL96:
 624              	.LBB53:
 625              	.LBB52:
  70:main.c        ****   YM_A0_Write(0);
 626              		.loc 1 70 0
 627 0062 FFF7FEFF 		bl	YM_A1_Write
 628              	.LVL97:
  71:main.c        ****   // write register selection
 629              		.loc 1 71 0
 630 0066 0020     		movs	r0, #0
 631 0068 FFF7FEFF 		bl	YM_A0_Write
 632              	.LVL98:
 633              	.LBB48:
 634              	.LBB49:
  51:main.c        ****   // DATA to bus
 635              		.loc 1 51 0
ARM GAS  C:\Users\ingan\AppData\Local\Temp\ccSpDBYo.s 			page 17


 636 006c 0020     		movs	r0, #0
 637 006e FFF7FEFF 		bl	YM_CS_Write
 638              	.LVL99:
  53:main.c        ****   // WR data
 639              		.loc 1 53 0
 640 0072 2846     		mov	r0, r5
 641 0074 FFF7FEFF 		bl	YM_Data_Write
 642              	.LVL100:
  55:main.c        ****   YM_RD_Write(1);
 643              		.loc 1 55 0
 644 0078 0020     		movs	r0, #0
 645 007a FFF7FEFF 		bl	YM_WR_Write
 646              	.LVL101:
  56:main.c        ****   //CyDelayCycles(1);
 647              		.loc 1 56 0
 648 007e 0120     		movs	r0, #1
 649 0080 FFF7FEFF 		bl	YM_RD_Write
 650              	.LVL102:
  58:main.c        ****   YM_WR_Write(1);
 651              		.loc 1 58 0
 652 0084 0120     		movs	r0, #1
 653 0086 FFF7FEFF 		bl	CyDelayUs
 654              	.LVL103:
  59:main.c        ****   YM_RD_Write(0);
 655              		.loc 1 59 0
 656 008a 0120     		movs	r0, #1
 657 008c FFF7FEFF 		bl	YM_WR_Write
 658              	.LVL104:
  60:main.c        ****   // CS Pin high
 659              		.loc 1 60 0
 660 0090 0020     		movs	r0, #0
 661 0092 FFF7FEFF 		bl	YM_RD_Write
 662              	.LVL105:
  62:main.c        ****   CyDelayUs(1);
 663              		.loc 1 62 0
 664 0096 0120     		movs	r0, #1
 665 0098 FFF7FEFF 		bl	YM_CS_Write
 666              	.LVL106:
  63:main.c        ****   //CyDelayCycles(1);
 667              		.loc 1 63 0
 668 009c 0120     		movs	r0, #1
 669 009e FFF7FEFF 		bl	CyDelayUs
 670              	.LVL107:
 671              	.LBE49:
 672              	.LBE48:
  76:main.c        ****   ym2612_write_step(data);
 673              		.loc 1 76 0
 674 00a2 0120     		movs	r0, #1
 675 00a4 FFF7FEFF 		bl	YM_A0_Write
 676              	.LVL108:
 677              	.LBB50:
 678              	.LBB51:
  51:main.c        ****   // DATA to bus
 679              		.loc 1 51 0
 680 00a8 0020     		movs	r0, #0
 681 00aa FFF7FEFF 		bl	YM_CS_Write
 682              	.LVL109:
ARM GAS  C:\Users\ingan\AppData\Local\Temp\ccSpDBYo.s 			page 18


  53:main.c        ****   // WR data
 683              		.loc 1 53 0
 684 00ae 2046     		mov	r0, r4
 685 00b0 FFF7FEFF 		bl	YM_Data_Write
 686              	.LVL110:
  55:main.c        ****   YM_RD_Write(1);
 687              		.loc 1 55 0
 688 00b4 0020     		movs	r0, #0
 689 00b6 FFF7FEFF 		bl	YM_WR_Write
 690              	.LVL111:
  56:main.c        ****   //CyDelayCycles(1);
 691              		.loc 1 56 0
 692 00ba 0120     		movs	r0, #1
 693 00bc FFF7FEFF 		bl	YM_RD_Write
 694              	.LVL112:
  58:main.c        ****   YM_WR_Write(1);
 695              		.loc 1 58 0
 696 00c0 0120     		movs	r0, #1
 697 00c2 FFF7FEFF 		bl	CyDelayUs
 698              	.LVL113:
  59:main.c        ****   YM_RD_Write(0);
 699              		.loc 1 59 0
 700 00c6 0120     		movs	r0, #1
 701 00c8 FFF7FEFF 		bl	YM_WR_Write
 702              	.LVL114:
  60:main.c        ****   // CS Pin high
 703              		.loc 1 60 0
 704 00cc 0020     		movs	r0, #0
 705 00ce FFF7FEFF 		bl	YM_RD_Write
 706              	.LVL115:
  62:main.c        ****   CyDelayUs(1);
 707              		.loc 1 62 0
 708 00d2 0120     		movs	r0, #1
 709 00d4 FFF7FEFF 		bl	YM_CS_Write
 710              	.LVL116:
  63:main.c        ****   //CyDelayCycles(1);
 711              		.loc 1 63 0
 712 00d8 0120     		movs	r0, #1
 713 00da FFF7FEFF 		bl	CyDelayUs
 714              	.LVL117:
 715 00de 9CE7     		b	.L19
 716              	.LVL118:
 717              	.L21:
 718              	.LBE51:
 719              	.LBE50:
 720              	.LBE52:
 721              	.LBE53:
 210:main.c        ****                         break;
 722              		.loc 1 210 0
 723 00e0 9DF80140 		ldrb	r4, [sp, #1]	@ zero_extendqisi2
 724              	.LVL119:
 725              	.LBB54:
 726              	.LBB55:
  83:main.c        ****   YM_Data_Write(data);
 727              		.loc 1 83 0
 728 00e4 0120     		movs	r0, #1
 729 00e6 FFF7FEFF 		bl	SN_WE_Write
ARM GAS  C:\Users\ingan\AppData\Local\Temp\ccSpDBYo.s 			page 19


 730              	.LVL120:
  84:main.c        ****   SN_WE_Write(0);
 731              		.loc 1 84 0
 732 00ea 2046     		mov	r0, r4
 733 00ec FFF7FEFF 		bl	YM_Data_Write
 734              	.LVL121:
  85:main.c        ****   //CyDelayCycles(1);
 735              		.loc 1 85 0
 736 00f0 0020     		movs	r0, #0
 737 00f2 FFF7FEFF 		bl	SN_WE_Write
 738              	.LVL122:
  87:main.c        ****   SN_WE_Write(1);
 739              		.loc 1 87 0
 740 00f6 1220     		movs	r0, #18
 741 00f8 FFF7FEFF 		bl	CyDelayUs
 742              	.LVL123:
  88:main.c        **** }
 743              		.loc 1 88 0
 744 00fc 0120     		movs	r0, #1
 745 00fe FFF7FEFF 		bl	SN_WE_Write
 746              	.LVL124:
 747 0102 8AE7     		b	.L19
 748              	.LBE55:
 749              	.LBE54:
 750              		.cfi_endproc
 751              	.LFE70:
 752              		.size	main, .-main
 753              		.global	stop
 754              		.global	parity
 755              		.data
 756              		.align	2
 757              		.type	stop, %object
 758              		.size	stop, 12
 759              	stop:
 760 0000 00000000 		.word	.LC0
 761 0004 04000000 		.word	.LC1
 762 0008 08000000 		.word	.LC2
 763              		.type	parity, %object
 764              		.size	parity, 20
 765              	parity:
 766 000c 0C000000 		.word	.LC3
 767 0010 14000000 		.word	.LC4
 768 0014 18000000 		.word	.LC5
 769 0018 20000000 		.word	.LC6
 770 001c 28000000 		.word	.LC7
 771              		.section	.rodata.str1.4,"aMS",%progbits,1
 772              		.align	2
 773              	.LC0:
 774 0000 3100     		.ascii	"1\000"
 775 0002 0000     		.space	2
 776              	.LC1:
 777 0004 312E3500 		.ascii	"1.5\000"
 778              	.LC2:
 779 0008 3200     		.ascii	"2\000"
 780 000a 0000     		.space	2
 781              	.LC3:
 782 000c 4E6F6E65 		.ascii	"None\000"
ARM GAS  C:\Users\ingan\AppData\Local\Temp\ccSpDBYo.s 			page 20


 782      00
 783 0011 000000   		.space	3
 784              	.LC4:
 785 0014 4F646400 		.ascii	"Odd\000"
 786              	.LC5:
 787 0018 4576656E 		.ascii	"Even\000"
 787      00
 788 001d 000000   		.space	3
 789              	.LC6:
 790 0020 4D61726B 		.ascii	"Mark\000"
 790      00
 791 0025 000000   		.space	3
 792              	.LC7:
 793 0028 53706163 		.ascii	"Space\000"
 793      6500
 794              		.text
 795              	.Letext0:
 796              		.file 2 "c:\\program files (x86)\\cypress\\psoc creator\\4.2\\psoc creator\\import\\gnu\\arm\\5.4.
 797              		.file 3 "c:\\program files (x86)\\cypress\\psoc creator\\4.2\\psoc creator\\import\\gnu\\arm\\5.4.
 798              		.file 4 "Generated_Source\\PSoC5/cytypes.h"
 799              		.file 5 "Generated_Source\\PSoC5/core_cm3.h"
 800              		.file 6 "Generated_Source\\PSoC5/YM_CS.h"
 801              		.file 7 "Generated_Source\\PSoC5/YM_Data.h"
 802              		.file 8 "Generated_Source\\PSoC5/YM_WR.h"
 803              		.file 9 "Generated_Source\\PSoC5/YM_RD.h"
 804              		.file 10 "Generated_Source\\PSoC5/CyLib.h"
 805              		.file 11 "Generated_Source\\PSoC5/YM_A1.h"
 806              		.file 12 "Generated_Source\\PSoC5/YM_A0.h"
 807              		.file 13 "Generated_Source\\PSoC5/SN_WE.h"
 808              		.file 14 "Generated_Source\\PSoC5/YM_IC.h"
 809              		.file 15 "Generated_Source\\PSoC5/USBUART.h"
 810              		.file 16 "Generated_Source\\PSoC5/USBUART_cdc.h"