ARM GAS  C:\Users\ingan\AppData\Local\Temp\cc2prN0E.s 			page 1


   1              		.syntax unified
   2              		.cpu cortex-m3
   3              		.fpu softvfp
   4              		.eabi_attribute 20, 1
   5              		.eabi_attribute 21, 1
   6              		.eabi_attribute 23, 3
   7              		.eabi_attribute 24, 1
   8              		.eabi_attribute 25, 1
   9              		.eabi_attribute 26, 1
  10              		.eabi_attribute 30, 2
  11              		.eabi_attribute 34, 1
  12              		.eabi_attribute 18, 4
  13              		.thumb
  14              		.syntax unified
  15              		.file	"USBUART_episr.c"
  16              		.text
  17              	.Ltext0:
  18              		.cfi_sections	.debug_frame
  19              		.section	.text.USBUART_EP_1_ISR,"ax",%progbits
  20              		.align	2
  21              		.global	USBUART_EP_1_ISR
  22              		.thumb
  23              		.thumb_func
  24              		.type	USBUART_EP_1_ISR, %function
  25              	USBUART_EP_1_ISR:
  26              	.LFB0:
  27              		.file 1 "Generated_Source\\PSoC5\\USBUART_episr.c"
   1:Generated_Source\PSoC5/USBUART_episr.c **** /***************************************************************************//**
   2:Generated_Source\PSoC5/USBUART_episr.c **** * \file USBUART_episr.c
   3:Generated_Source\PSoC5/USBUART_episr.c **** * \version 3.10
   4:Generated_Source\PSoC5/USBUART_episr.c **** *
   5:Generated_Source\PSoC5/USBUART_episr.c **** * \brief
   6:Generated_Source\PSoC5/USBUART_episr.c **** *  This file contains the Data endpoint Interrupt Service Routines.
   7:Generated_Source\PSoC5/USBUART_episr.c **** *
   8:Generated_Source\PSoC5/USBUART_episr.c **** ********************************************************************************
   9:Generated_Source\PSoC5/USBUART_episr.c **** * \copyright
  10:Generated_Source\PSoC5/USBUART_episr.c **** * Copyright 2008-2016, Cypress Semiconductor Corporation.  All rights reserved.
  11:Generated_Source\PSoC5/USBUART_episr.c **** * You may use this file only in accordance with the license, terms, conditions,
  12:Generated_Source\PSoC5/USBUART_episr.c **** * disclaimers, and limitations in the end user license agreement accompanying
  13:Generated_Source\PSoC5/USBUART_episr.c **** * the software package with which this file was provided.
  14:Generated_Source\PSoC5/USBUART_episr.c **** *******************************************************************************/
  15:Generated_Source\PSoC5/USBUART_episr.c **** 
  16:Generated_Source\PSoC5/USBUART_episr.c **** #include "USBUART_pvt.h"
  17:Generated_Source\PSoC5/USBUART_episr.c **** #include "USBUART_cydmac.h"
  18:Generated_Source\PSoC5/USBUART_episr.c **** #include "cyapicallbacks.h"
  19:Generated_Source\PSoC5/USBUART_episr.c **** 
  20:Generated_Source\PSoC5/USBUART_episr.c **** 
  21:Generated_Source\PSoC5/USBUART_episr.c **** /***************************************
  22:Generated_Source\PSoC5/USBUART_episr.c **** * Custom Declarations
  23:Generated_Source\PSoC5/USBUART_episr.c **** ***************************************/
  24:Generated_Source\PSoC5/USBUART_episr.c **** /* `#START CUSTOM_DECLARATIONS` Place your declaration here */
  25:Generated_Source\PSoC5/USBUART_episr.c **** 
  26:Generated_Source\PSoC5/USBUART_episr.c **** /* `#END` */
  27:Generated_Source\PSoC5/USBUART_episr.c **** 
  28:Generated_Source\PSoC5/USBUART_episr.c **** 
  29:Generated_Source\PSoC5/USBUART_episr.c **** #if (USBUART_EP1_ISR_ACTIVE)
  30:Generated_Source\PSoC5/USBUART_episr.c ****     /******************************************************************************
ARM GAS  C:\Users\ingan\AppData\Local\Temp\cc2prN0E.s 			page 2


  31:Generated_Source\PSoC5/USBUART_episr.c ****     * Function Name: USBUART_EP_1_ISR
  32:Generated_Source\PSoC5/USBUART_episr.c ****     ***************************************************************************//**
  33:Generated_Source\PSoC5/USBUART_episr.c ****     *
  34:Generated_Source\PSoC5/USBUART_episr.c ****     *  Endpoint 1 Interrupt Service Routine
  35:Generated_Source\PSoC5/USBUART_episr.c ****     *
  36:Generated_Source\PSoC5/USBUART_episr.c ****     ******************************************************************************/
  37:Generated_Source\PSoC5/USBUART_episr.c ****     CY_ISR(USBUART_EP_1_ISR)
  38:Generated_Source\PSoC5/USBUART_episr.c ****     {
  28              		.loc 1 38 0
  29              		.cfi_startproc
  30              		@ args = 0, pretend = 0, frame = 0
  31              		@ frame_needed = 0, uses_anonymous_args = 0
  32              		@ link register save eliminated.
  39:Generated_Source\PSoC5/USBUART_episr.c **** 
  40:Generated_Source\PSoC5/USBUART_episr.c ****     #ifdef USBUART_EP_1_ISR_ENTRY_CALLBACK
  41:Generated_Source\PSoC5/USBUART_episr.c ****         USBUART_EP_1_ISR_EntryCallback();
  42:Generated_Source\PSoC5/USBUART_episr.c ****     #endif /* (USBUART_EP_1_ISR_ENTRY_CALLBACK) */
  43:Generated_Source\PSoC5/USBUART_episr.c **** 
  44:Generated_Source\PSoC5/USBUART_episr.c ****         /* `#START EP1_USER_CODE` Place your code here */
  45:Generated_Source\PSoC5/USBUART_episr.c **** 
  46:Generated_Source\PSoC5/USBUART_episr.c ****         /* `#END` */
  47:Generated_Source\PSoC5/USBUART_episr.c **** 
  48:Generated_Source\PSoC5/USBUART_episr.c ****     #if (CY_PSOC3 && defined(USBUART_ENABLE_MIDI_STREAMING) && \
  49:Generated_Source\PSoC5/USBUART_episr.c ****         !defined(USBUART_MAIN_SERVICE_MIDI_OUT) && USBUART_ISR_SERVICE_MIDI_OUT)
  50:Generated_Source\PSoC5/USBUART_episr.c ****         {
  51:Generated_Source\PSoC5/USBUART_episr.c ****             uint8 intEn = EA;
  52:Generated_Source\PSoC5/USBUART_episr.c ****             CyGlobalIntEnable;  /* Enable nested interrupts. */
  53:Generated_Source\PSoC5/USBUART_episr.c ****     #endif /* (CY_PSOC3 && USBUART_ISR_SERVICE_MIDI_OUT) */
  54:Generated_Source\PSoC5/USBUART_episr.c ****     
  55:Generated_Source\PSoC5/USBUART_episr.c ****         USBUART_ClearSieEpInterruptSource(USBUART_SIE_INT_EP1_INTR);
  33              		.loc 1 55 0
  34 0000 0849     		ldr	r1, .L7
  35 0002 0120     		movs	r0, #1
  56:Generated_Source\PSoC5/USBUART_episr.c ****             
  57:Generated_Source\PSoC5/USBUART_episr.c ****         /* Notifies user that transfer IN or OUT transfer is completed.
  58:Generated_Source\PSoC5/USBUART_episr.c ****         * IN endpoint: endpoint buffer can be reloaded, Host is read data.
  59:Generated_Source\PSoC5/USBUART_episr.c ****         * OUT endpoint: data is ready to be read from endpoint buffer. 
  60:Generated_Source\PSoC5/USBUART_episr.c ****         */
  61:Generated_Source\PSoC5/USBUART_episr.c ****     #if (CY_PSOC4 && USBUART_EP_MANAGEMENT_DMA_AUTO)
  62:Generated_Source\PSoC5/USBUART_episr.c ****         if (0u != (USBUART_EP[USBUART_EP1].addr & USBUART_DIR_IN))
  63:Generated_Source\PSoC5/USBUART_episr.c ****     #endif /* (CY_PSOC4 && USBUART_EP_MANAGEMENT_DMA_AUTO) */
  64:Generated_Source\PSoC5/USBUART_episr.c ****         {
  65:Generated_Source\PSoC5/USBUART_episr.c ****             /* Read CR0 register to clear SIE lock. */
  66:Generated_Source\PSoC5/USBUART_episr.c ****             (void) USBUART_SIE_EP_BASE.sieEp[USBUART_EP1].epCr0;
  36              		.loc 1 66 0
  37 0004 084A     		ldr	r2, .L7+4
  67:Generated_Source\PSoC5/USBUART_episr.c ****             
  68:Generated_Source\PSoC5/USBUART_episr.c ****             /* Toggle all endpoint types except ISOC. */
  69:Generated_Source\PSoC5/USBUART_episr.c ****             if (USBUART_GET_EP_TYPE(USBUART_EP1) != USBUART_EP_TYPE_ISOC)
  38              		.loc 1 69 0
  39 0006 094B     		ldr	r3, .L7+8
  55:Generated_Source\PSoC5/USBUART_episr.c ****             
  40              		.loc 1 55 0
  41 0008 0870     		strb	r0, [r1]
  66:Generated_Source\PSoC5/USBUART_episr.c ****             
  42              		.loc 1 66 0
  43 000a 927C     		ldrb	r2, [r2, #18]	@ zero_extendqisi2
ARM GAS  C:\Users\ingan\AppData\Local\Temp\cc2prN0E.s 			page 3


  44              		.loc 1 69 0
  45 000c 1A7B     		ldrb	r2, [r3, #12]	@ zero_extendqisi2
  46 000e 02F00302 		and	r2, r2, #3
  47 0012 8242     		cmp	r2, r0
  48 0014 03D0     		beq	.L2
  70:Generated_Source\PSoC5/USBUART_episr.c ****             {
  71:Generated_Source\PSoC5/USBUART_episr.c ****                 USBUART_EP[USBUART_EP1].epToggle ^= USBUART_EPX_CNT_DATA_TOGGLE;
  49              		.loc 1 71 0
  50 0016 DA7B     		ldrb	r2, [r3, #15]	@ zero_extendqisi2
  51 0018 82F08002 		eor	r2, r2, #128
  52 001c DA73     		strb	r2, [r3, #15]
  53              	.L2:
  72:Generated_Source\PSoC5/USBUART_episr.c ****             }
  73:Generated_Source\PSoC5/USBUART_episr.c **** 
  74:Generated_Source\PSoC5/USBUART_episr.c ****             /* EP_MANAGEMENT_DMA_AUTO (Ticket ID# 214187): For OUT endpoint this event is used to n
  75:Generated_Source\PSoC5/USBUART_episr.c ****             * user that DMA has completed copying data from OUT endpoint which is not completely tr
  76:Generated_Source\PSoC5/USBUART_episr.c ****             * Because last chunk of data is being copied.
  77:Generated_Source\PSoC5/USBUART_episr.c ****             * For CY_PSOC 3/5LP: it is acceptable as DMA is really fast.
  78:Generated_Source\PSoC5/USBUART_episr.c ****             * For CY_PSOC4: this event is set in Arbiter interrupt (source is DMA_TERMIN).
  79:Generated_Source\PSoC5/USBUART_episr.c ****             */
  80:Generated_Source\PSoC5/USBUART_episr.c ****             USBUART_EP[USBUART_EP1].apiEpState = USBUART_EVENT_PENDING;
  54              		.loc 1 80 0
  55 001e 0122     		movs	r2, #1
  56 0020 5A73     		strb	r2, [r3, #13]
  57 0022 7047     		bx	lr
  58              	.L8:
  59              		.align	2
  60              	.L7:
  61 0024 0B600040 		.word	1073766411
  62 0028 FC5F0040 		.word	1073766396
  63 002c 00000000 		.word	USBUART_EP
  64              		.cfi_endproc
  65              	.LFE0:
  66              		.size	USBUART_EP_1_ISR, .-USBUART_EP_1_ISR
  67              		.section	.text.USBUART_EP_2_ISR,"ax",%progbits
  68              		.align	2
  69              		.global	USBUART_EP_2_ISR
  70              		.thumb
  71              		.thumb_func
  72              		.type	USBUART_EP_2_ISR, %function
  73              	USBUART_EP_2_ISR:
  74              	.LFB1:
  81:Generated_Source\PSoC5/USBUART_episr.c ****         }
  82:Generated_Source\PSoC5/USBUART_episr.c **** 
  83:Generated_Source\PSoC5/USBUART_episr.c ****     #if (!(CY_PSOC4 && USBUART_EP_MANAGEMENT_DMA_AUTO))
  84:Generated_Source\PSoC5/USBUART_episr.c ****         #if (defined(USBUART_ENABLE_MIDI_STREAMING) && \
  85:Generated_Source\PSoC5/USBUART_episr.c ****             !defined(USBUART_MAIN_SERVICE_MIDI_OUT) && USBUART_ISR_SERVICE_MIDI_OUT)
  86:Generated_Source\PSoC5/USBUART_episr.c ****             if (USBUART_midi_out_ep == USBUART_EP1)
  87:Generated_Source\PSoC5/USBUART_episr.c ****             {
  88:Generated_Source\PSoC5/USBUART_episr.c ****                 USBUART_MIDI_OUT_Service();
  89:Generated_Source\PSoC5/USBUART_episr.c ****             }
  90:Generated_Source\PSoC5/USBUART_episr.c ****         #endif /* (USBUART_ISR_SERVICE_MIDI_OUT) */
  91:Generated_Source\PSoC5/USBUART_episr.c ****     #endif /* (!(CY_PSOC4 && USBUART_EP_MANAGEMENT_DMA_AUTO)) */
  92:Generated_Source\PSoC5/USBUART_episr.c ****     
  93:Generated_Source\PSoC5/USBUART_episr.c ****         /* `#START EP1_END_USER_CODE` Place your code here */
  94:Generated_Source\PSoC5/USBUART_episr.c **** 
  95:Generated_Source\PSoC5/USBUART_episr.c ****         /* `#END` */
ARM GAS  C:\Users\ingan\AppData\Local\Temp\cc2prN0E.s 			page 4


  96:Generated_Source\PSoC5/USBUART_episr.c **** 
  97:Generated_Source\PSoC5/USBUART_episr.c ****     #ifdef USBUART_EP_1_ISR_EXIT_CALLBACK
  98:Generated_Source\PSoC5/USBUART_episr.c ****         USBUART_EP_1_ISR_ExitCallback();
  99:Generated_Source\PSoC5/USBUART_episr.c ****     #endif /* (USBUART_EP_1_ISR_EXIT_CALLBACK) */
 100:Generated_Source\PSoC5/USBUART_episr.c **** 
 101:Generated_Source\PSoC5/USBUART_episr.c ****     #if (CY_PSOC3 && defined(USBUART_ENABLE_MIDI_STREAMING) && \
 102:Generated_Source\PSoC5/USBUART_episr.c ****         !defined(USBUART_MAIN_SERVICE_MIDI_OUT) && USBUART_ISR_SERVICE_MIDI_OUT)
 103:Generated_Source\PSoC5/USBUART_episr.c ****         
 104:Generated_Source\PSoC5/USBUART_episr.c ****             EA = intEn; /* Restore nested interrupt configuration. */
 105:Generated_Source\PSoC5/USBUART_episr.c ****         }
 106:Generated_Source\PSoC5/USBUART_episr.c ****     #endif /* (CY_PSOC3 && USBUART_ISR_SERVICE_MIDI_OUT) */
 107:Generated_Source\PSoC5/USBUART_episr.c ****     }
 108:Generated_Source\PSoC5/USBUART_episr.c **** 
 109:Generated_Source\PSoC5/USBUART_episr.c **** #endif /* (USBUART_EP1_ISR_ACTIVE) */
 110:Generated_Source\PSoC5/USBUART_episr.c **** 
 111:Generated_Source\PSoC5/USBUART_episr.c **** 
 112:Generated_Source\PSoC5/USBUART_episr.c **** #if (USBUART_EP2_ISR_ACTIVE)
 113:Generated_Source\PSoC5/USBUART_episr.c ****     /*******************************************************************************
 114:Generated_Source\PSoC5/USBUART_episr.c ****     * Function Name: USBUART_EP_2_ISR
 115:Generated_Source\PSoC5/USBUART_episr.c ****     ****************************************************************************//**
 116:Generated_Source\PSoC5/USBUART_episr.c ****     *
 117:Generated_Source\PSoC5/USBUART_episr.c ****     *  Endpoint 2 Interrupt Service Routine.
 118:Generated_Source\PSoC5/USBUART_episr.c ****     *
 119:Generated_Source\PSoC5/USBUART_episr.c ****     *******************************************************************************/
 120:Generated_Source\PSoC5/USBUART_episr.c ****     CY_ISR(USBUART_EP_2_ISR)
 121:Generated_Source\PSoC5/USBUART_episr.c ****     {
  75              		.loc 1 121 0
  76              		.cfi_startproc
  77              		@ args = 0, pretend = 0, frame = 0
  78              		@ frame_needed = 0, uses_anonymous_args = 0
  79              		@ link register save eliminated.
 122:Generated_Source\PSoC5/USBUART_episr.c ****     #ifdef USBUART_EP_2_ISR_ENTRY_CALLBACK
 123:Generated_Source\PSoC5/USBUART_episr.c ****         USBUART_EP_2_ISR_EntryCallback();
 124:Generated_Source\PSoC5/USBUART_episr.c ****     #endif /* (USBUART_EP_2_ISR_ENTRY_CALLBACK) */
 125:Generated_Source\PSoC5/USBUART_episr.c **** 
 126:Generated_Source\PSoC5/USBUART_episr.c ****         /* `#START EP2_USER_CODE` Place your code here */
 127:Generated_Source\PSoC5/USBUART_episr.c **** 
 128:Generated_Source\PSoC5/USBUART_episr.c ****         /* `#END` */
 129:Generated_Source\PSoC5/USBUART_episr.c **** 
 130:Generated_Source\PSoC5/USBUART_episr.c ****     #if (CY_PSOC3 && defined(USBUART_ENABLE_MIDI_STREAMING) && \
 131:Generated_Source\PSoC5/USBUART_episr.c ****         !defined(USBUART_MAIN_SERVICE_MIDI_OUT) && USBUART_ISR_SERVICE_MIDI_OUT)
 132:Generated_Source\PSoC5/USBUART_episr.c ****         {
 133:Generated_Source\PSoC5/USBUART_episr.c ****             uint8 intEn = EA;
 134:Generated_Source\PSoC5/USBUART_episr.c ****             CyGlobalIntEnable;  /* Enable nested interrupts. */
 135:Generated_Source\PSoC5/USBUART_episr.c ****     #endif /* (CY_PSOC3 && USBUART_ISR_SERVICE_MIDI_OUT) */
 136:Generated_Source\PSoC5/USBUART_episr.c **** 
 137:Generated_Source\PSoC5/USBUART_episr.c ****         USBUART_ClearSieEpInterruptSource(USBUART_SIE_INT_EP2_INTR);
  80              		.loc 1 137 0
  81 0000 0949     		ldr	r1, .L14
  82 0002 0220     		movs	r0, #2
 138:Generated_Source\PSoC5/USBUART_episr.c **** 
 139:Generated_Source\PSoC5/USBUART_episr.c ****         /* Notifies user that transfer IN or OUT transfer is completed.
 140:Generated_Source\PSoC5/USBUART_episr.c ****         * IN endpoint: endpoint buffer can be reloaded, Host is read data.
 141:Generated_Source\PSoC5/USBUART_episr.c ****         * OUT endpoint: data is ready to be read from endpoint buffer. 
 142:Generated_Source\PSoC5/USBUART_episr.c ****         */
 143:Generated_Source\PSoC5/USBUART_episr.c ****     #if (CY_PSOC4 && USBUART_EP_MANAGEMENT_DMA_AUTO)
 144:Generated_Source\PSoC5/USBUART_episr.c ****         if (0u != (USBUART_EP[USBUART_EP2].addr & USBUART_DIR_IN))
ARM GAS  C:\Users\ingan\AppData\Local\Temp\cc2prN0E.s 			page 5


 145:Generated_Source\PSoC5/USBUART_episr.c ****     #endif /* (CY_PSOC4 && USBUART_EP_MANAGEMENT_DMA_AUTO) */
 146:Generated_Source\PSoC5/USBUART_episr.c ****         {            
 147:Generated_Source\PSoC5/USBUART_episr.c ****             /* Read CR0 register to clear SIE lock. */
 148:Generated_Source\PSoC5/USBUART_episr.c ****             (void) USBUART_SIE_EP_BASE.sieEp[USBUART_EP2].epCr0;
  83              		.loc 1 148 0
  84 0004 094A     		ldr	r2, .L14+4
 149:Generated_Source\PSoC5/USBUART_episr.c ****             
 150:Generated_Source\PSoC5/USBUART_episr.c ****             /* Toggle all endpoint types except ISOC. */
 151:Generated_Source\PSoC5/USBUART_episr.c ****             if (USBUART_GET_EP_TYPE(USBUART_EP2) != USBUART_EP_TYPE_ISOC)
  85              		.loc 1 151 0
  86 0006 0A4B     		ldr	r3, .L14+8
 137:Generated_Source\PSoC5/USBUART_episr.c **** 
  87              		.loc 1 137 0
  88 0008 0870     		strb	r0, [r1]
 148:Generated_Source\PSoC5/USBUART_episr.c ****             
  89              		.loc 1 148 0
  90 000a 92F82220 		ldrb	r2, [r2, #34]	@ zero_extendqisi2
  91              		.loc 1 151 0
  92 000e 1A7E     		ldrb	r2, [r3, #24]	@ zero_extendqisi2
  93 0010 02F00302 		and	r2, r2, #3
  94 0014 012A     		cmp	r2, #1
  95 0016 03D0     		beq	.L10
 152:Generated_Source\PSoC5/USBUART_episr.c ****             {
 153:Generated_Source\PSoC5/USBUART_episr.c ****                 USBUART_EP[USBUART_EP2].epToggle ^= USBUART_EPX_CNT_DATA_TOGGLE;
  96              		.loc 1 153 0
  97 0018 DA7E     		ldrb	r2, [r3, #27]	@ zero_extendqisi2
  98 001a 82F08002 		eor	r2, r2, #128
  99 001e DA76     		strb	r2, [r3, #27]
 100              	.L10:
 154:Generated_Source\PSoC5/USBUART_episr.c ****             }
 155:Generated_Source\PSoC5/USBUART_episr.c **** 
 156:Generated_Source\PSoC5/USBUART_episr.c ****             /* EP_MANAGEMENT_DMA_AUTO (Ticket ID# 214187): For OUT endpoint this event is used to n
 157:Generated_Source\PSoC5/USBUART_episr.c ****             * user that DMA has completed copying data from OUT endpoint which is not completely tr
 158:Generated_Source\PSoC5/USBUART_episr.c ****             * Because last chunk of data is being copied.
 159:Generated_Source\PSoC5/USBUART_episr.c ****             * For CY_PSOC 3/5LP: it is acceptable as DMA is really fast.
 160:Generated_Source\PSoC5/USBUART_episr.c ****             * For CY_PSOC4: this event is set in Arbiter interrupt (source is DMA_TERMIN).
 161:Generated_Source\PSoC5/USBUART_episr.c ****             */
 162:Generated_Source\PSoC5/USBUART_episr.c ****             USBUART_EP[USBUART_EP2].apiEpState = USBUART_EVENT_PENDING;
 101              		.loc 1 162 0
 102 0020 0122     		movs	r2, #1
 103 0022 5A76     		strb	r2, [r3, #25]
 104 0024 7047     		bx	lr
 105              	.L15:
 106 0026 00BF     		.align	2
 107              	.L14:
 108 0028 0B600040 		.word	1073766411
 109 002c FC5F0040 		.word	1073766396
 110 0030 00000000 		.word	USBUART_EP
 111              		.cfi_endproc
 112              	.LFE1:
 113              		.size	USBUART_EP_2_ISR, .-USBUART_EP_2_ISR
 114              		.section	.text.USBUART_EP_3_ISR,"ax",%progbits
 115              		.align	2
 116              		.global	USBUART_EP_3_ISR
 117              		.thumb
 118              		.thumb_func
 119              		.type	USBUART_EP_3_ISR, %function
ARM GAS  C:\Users\ingan\AppData\Local\Temp\cc2prN0E.s 			page 6


 120              	USBUART_EP_3_ISR:
 121              	.LFB2:
 163:Generated_Source\PSoC5/USBUART_episr.c ****         }
 164:Generated_Source\PSoC5/USBUART_episr.c **** 
 165:Generated_Source\PSoC5/USBUART_episr.c ****     #if (!(CY_PSOC4 && USBUART_EP_MANAGEMENT_DMA_AUTO))
 166:Generated_Source\PSoC5/USBUART_episr.c ****         #if (defined(USBUART_ENABLE_MIDI_STREAMING) && \
 167:Generated_Source\PSoC5/USBUART_episr.c ****             !defined(USBUART_MAIN_SERVICE_MIDI_OUT) && USBUART_ISR_SERVICE_MIDI_OUT)
 168:Generated_Source\PSoC5/USBUART_episr.c ****             if (USBUART_midi_out_ep == USBUART_EP2)
 169:Generated_Source\PSoC5/USBUART_episr.c ****             {
 170:Generated_Source\PSoC5/USBUART_episr.c ****                 USBUART_MIDI_OUT_Service();
 171:Generated_Source\PSoC5/USBUART_episr.c ****             }
 172:Generated_Source\PSoC5/USBUART_episr.c ****         #endif /* (USBUART_ISR_SERVICE_MIDI_OUT) */
 173:Generated_Source\PSoC5/USBUART_episr.c ****     #endif /* (!(CY_PSOC4 && USBUART_EP_MANAGEMENT_DMA_AUTO)) */        
 174:Generated_Source\PSoC5/USBUART_episr.c ****     
 175:Generated_Source\PSoC5/USBUART_episr.c ****         /* `#START EP2_END_USER_CODE` Place your code here */
 176:Generated_Source\PSoC5/USBUART_episr.c **** 
 177:Generated_Source\PSoC5/USBUART_episr.c ****         /* `#END` */
 178:Generated_Source\PSoC5/USBUART_episr.c **** 
 179:Generated_Source\PSoC5/USBUART_episr.c ****     #ifdef USBUART_EP_2_ISR_EXIT_CALLBACK
 180:Generated_Source\PSoC5/USBUART_episr.c ****         USBUART_EP_2_ISR_ExitCallback();
 181:Generated_Source\PSoC5/USBUART_episr.c ****     #endif /* (USBUART_EP_2_ISR_EXIT_CALLBACK) */
 182:Generated_Source\PSoC5/USBUART_episr.c **** 
 183:Generated_Source\PSoC5/USBUART_episr.c ****     #if (CY_PSOC3 && defined(USBUART_ENABLE_MIDI_STREAMING) && \
 184:Generated_Source\PSoC5/USBUART_episr.c ****         !defined(USBUART_MAIN_SERVICE_MIDI_OUT) && USBUART_ISR_SERVICE_MIDI_OUT)
 185:Generated_Source\PSoC5/USBUART_episr.c ****         
 186:Generated_Source\PSoC5/USBUART_episr.c ****             EA = intEn; /* Restore nested interrupt configuration. */
 187:Generated_Source\PSoC5/USBUART_episr.c ****         }
 188:Generated_Source\PSoC5/USBUART_episr.c ****     #endif /* (CY_PSOC3 && USBUART_ISR_SERVICE_MIDI_OUT) */
 189:Generated_Source\PSoC5/USBUART_episr.c ****     }
 190:Generated_Source\PSoC5/USBUART_episr.c **** #endif /* (USBUART_EP2_ISR_ACTIVE) */
 191:Generated_Source\PSoC5/USBUART_episr.c **** 
 192:Generated_Source\PSoC5/USBUART_episr.c **** 
 193:Generated_Source\PSoC5/USBUART_episr.c **** #if (USBUART_EP3_ISR_ACTIVE)
 194:Generated_Source\PSoC5/USBUART_episr.c ****     /*******************************************************************************
 195:Generated_Source\PSoC5/USBUART_episr.c ****     * Function Name: USBUART_EP_3_ISR
 196:Generated_Source\PSoC5/USBUART_episr.c ****     ****************************************************************************//**
 197:Generated_Source\PSoC5/USBUART_episr.c ****     *
 198:Generated_Source\PSoC5/USBUART_episr.c ****     *  Endpoint 3 Interrupt Service Routine.
 199:Generated_Source\PSoC5/USBUART_episr.c ****     *
 200:Generated_Source\PSoC5/USBUART_episr.c ****     *******************************************************************************/
 201:Generated_Source\PSoC5/USBUART_episr.c ****     CY_ISR(USBUART_EP_3_ISR)
 202:Generated_Source\PSoC5/USBUART_episr.c ****     {
 122              		.loc 1 202 0
 123              		.cfi_startproc
 124              		@ args = 0, pretend = 0, frame = 0
 125              		@ frame_needed = 0, uses_anonymous_args = 0
 126              		@ link register save eliminated.
 203:Generated_Source\PSoC5/USBUART_episr.c ****     #ifdef USBUART_EP_3_ISR_ENTRY_CALLBACK
 204:Generated_Source\PSoC5/USBUART_episr.c ****         USBUART_EP_3_ISR_EntryCallback();
 205:Generated_Source\PSoC5/USBUART_episr.c ****     #endif /* (USBUART_EP_3_ISR_ENTRY_CALLBACK) */
 206:Generated_Source\PSoC5/USBUART_episr.c **** 
 207:Generated_Source\PSoC5/USBUART_episr.c ****         /* `#START EP3_USER_CODE` Place your code here */
 208:Generated_Source\PSoC5/USBUART_episr.c **** 
 209:Generated_Source\PSoC5/USBUART_episr.c ****         /* `#END` */
 210:Generated_Source\PSoC5/USBUART_episr.c **** 
 211:Generated_Source\PSoC5/USBUART_episr.c ****     #if (CY_PSOC3 && defined(USBUART_ENABLE_MIDI_STREAMING) && \
 212:Generated_Source\PSoC5/USBUART_episr.c ****         !defined(USBUART_MAIN_SERVICE_MIDI_OUT) && USBUART_ISR_SERVICE_MIDI_OUT)
ARM GAS  C:\Users\ingan\AppData\Local\Temp\cc2prN0E.s 			page 7


 213:Generated_Source\PSoC5/USBUART_episr.c ****         {
 214:Generated_Source\PSoC5/USBUART_episr.c ****             uint8 intEn = EA;
 215:Generated_Source\PSoC5/USBUART_episr.c ****             CyGlobalIntEnable;  /* Enable nested interrupts. */
 216:Generated_Source\PSoC5/USBUART_episr.c ****     #endif /* (CY_PSOC3 && USBUART_ISR_SERVICE_MIDI_OUT) */
 217:Generated_Source\PSoC5/USBUART_episr.c **** 
 218:Generated_Source\PSoC5/USBUART_episr.c ****         USBUART_ClearSieEpInterruptSource(USBUART_SIE_INT_EP3_INTR);    
 127              		.loc 1 218 0
 128 0000 0B49     		ldr	r1, .L21
 129 0002 0420     		movs	r0, #4
 219:Generated_Source\PSoC5/USBUART_episr.c **** 
 220:Generated_Source\PSoC5/USBUART_episr.c ****         /* Notifies user that transfer IN or OUT transfer is completed.
 221:Generated_Source\PSoC5/USBUART_episr.c ****         * IN endpoint: endpoint buffer can be reloaded, Host is read data.
 222:Generated_Source\PSoC5/USBUART_episr.c ****         * OUT endpoint: data is ready to be read from endpoint buffer. 
 223:Generated_Source\PSoC5/USBUART_episr.c ****         */
 224:Generated_Source\PSoC5/USBUART_episr.c ****     #if (CY_PSOC4 && USBUART_EP_MANAGEMENT_DMA_AUTO)
 225:Generated_Source\PSoC5/USBUART_episr.c ****         if (0u != (USBUART_EP[USBUART_EP3].addr & USBUART_DIR_IN))
 226:Generated_Source\PSoC5/USBUART_episr.c ****     #endif /* (USBUART_EP_MANAGEMENT_DMA_AUTO) */
 227:Generated_Source\PSoC5/USBUART_episr.c ****         {            
 228:Generated_Source\PSoC5/USBUART_episr.c ****             /* Read CR0 register to clear SIE lock. */
 229:Generated_Source\PSoC5/USBUART_episr.c ****             (void) USBUART_SIE_EP_BASE.sieEp[USBUART_EP3].epCr0;
 130              		.loc 1 229 0
 131 0004 0B4A     		ldr	r2, .L21+4
 230:Generated_Source\PSoC5/USBUART_episr.c **** 
 231:Generated_Source\PSoC5/USBUART_episr.c ****             /* Toggle all endpoint types except ISOC. */
 232:Generated_Source\PSoC5/USBUART_episr.c ****             if (USBUART_GET_EP_TYPE(USBUART_EP3) != USBUART_EP_TYPE_ISOC)
 132              		.loc 1 232 0
 133 0006 0C4B     		ldr	r3, .L21+8
 218:Generated_Source\PSoC5/USBUART_episr.c **** 
 134              		.loc 1 218 0
 135 0008 0870     		strb	r0, [r1]
 229:Generated_Source\PSoC5/USBUART_episr.c **** 
 136              		.loc 1 229 0
 137 000a 92F83220 		ldrb	r2, [r2, #50]	@ zero_extendqisi2
 138              		.loc 1 232 0
 139 000e 93F82420 		ldrb	r2, [r3, #36]	@ zero_extendqisi2
 140 0012 02F00302 		and	r2, r2, #3
 141 0016 012A     		cmp	r2, #1
 142 0018 05D0     		beq	.L17
 233:Generated_Source\PSoC5/USBUART_episr.c ****             {
 234:Generated_Source\PSoC5/USBUART_episr.c ****                 USBUART_EP[USBUART_EP3].epToggle ^= USBUART_EPX_CNT_DATA_TOGGLE;
 143              		.loc 1 234 0
 144 001a 93F82720 		ldrb	r2, [r3, #39]	@ zero_extendqisi2
 145 001e 82F08002 		eor	r2, r2, #128
 146 0022 83F82720 		strb	r2, [r3, #39]
 147              	.L17:
 235:Generated_Source\PSoC5/USBUART_episr.c ****             }
 236:Generated_Source\PSoC5/USBUART_episr.c **** 
 237:Generated_Source\PSoC5/USBUART_episr.c ****             /* EP_MANAGEMENT_DMA_AUTO (Ticket ID# 214187): For OUT endpoint this event is used to n
 238:Generated_Source\PSoC5/USBUART_episr.c ****             * user that DMA has completed copying data from OUT endpoint which is not completely tr
 239:Generated_Source\PSoC5/USBUART_episr.c ****             * Because last chunk of data is being copied.
 240:Generated_Source\PSoC5/USBUART_episr.c ****             * For CY_PSOC 3/5LP: it is acceptable as DMA is really fast.
 241:Generated_Source\PSoC5/USBUART_episr.c ****             * For CY_PSOC4: this event is set in Arbiter interrupt (source is DMA_TERMIN).
 242:Generated_Source\PSoC5/USBUART_episr.c ****             */
 243:Generated_Source\PSoC5/USBUART_episr.c ****             USBUART_EP[USBUART_EP3].apiEpState = USBUART_EVENT_PENDING;
 148              		.loc 1 243 0
 149 0026 0122     		movs	r2, #1
 150 0028 83F82520 		strb	r2, [r3, #37]
ARM GAS  C:\Users\ingan\AppData\Local\Temp\cc2prN0E.s 			page 8


 151 002c 7047     		bx	lr
 152              	.L22:
 153 002e 00BF     		.align	2
 154              	.L21:
 155 0030 0B600040 		.word	1073766411
 156 0034 FC5F0040 		.word	1073766396
 157 0038 00000000 		.word	USBUART_EP
 158              		.cfi_endproc
 159              	.LFE2:
 160              		.size	USBUART_EP_3_ISR, .-USBUART_EP_3_ISR
 161              		.section	.text.USBUART_SOF_ISR,"ax",%progbits
 162              		.align	2
 163              		.global	USBUART_SOF_ISR
 164              		.thumb
 165              		.thumb_func
 166              		.type	USBUART_SOF_ISR, %function
 167              	USBUART_SOF_ISR:
 168              	.LFB3:
 244:Generated_Source\PSoC5/USBUART_episr.c ****         }
 245:Generated_Source\PSoC5/USBUART_episr.c **** 
 246:Generated_Source\PSoC5/USBUART_episr.c ****     #if (!(CY_PSOC4 && USBUART_EP_MANAGEMENT_DMA_AUTO))
 247:Generated_Source\PSoC5/USBUART_episr.c ****         #if (defined(USBUART_ENABLE_MIDI_STREAMING) && \
 248:Generated_Source\PSoC5/USBUART_episr.c ****             !defined(USBUART_MAIN_SERVICE_MIDI_OUT) && USBUART_ISR_SERVICE_MIDI_OUT)
 249:Generated_Source\PSoC5/USBUART_episr.c ****             if (USBUART_midi_out_ep == USBUART_EP3)
 250:Generated_Source\PSoC5/USBUART_episr.c ****             {
 251:Generated_Source\PSoC5/USBUART_episr.c ****                 USBUART_MIDI_OUT_Service();
 252:Generated_Source\PSoC5/USBUART_episr.c ****             }
 253:Generated_Source\PSoC5/USBUART_episr.c ****         #endif /* (USBUART_ISR_SERVICE_MIDI_OUT) */
 254:Generated_Source\PSoC5/USBUART_episr.c ****     #endif /* (!(CY_PSOC4 && USBUART_EP_MANAGEMENT_DMA_AUTO)) */        
 255:Generated_Source\PSoC5/USBUART_episr.c **** 
 256:Generated_Source\PSoC5/USBUART_episr.c ****         /* `#START EP3_END_USER_CODE` Place your code here */
 257:Generated_Source\PSoC5/USBUART_episr.c **** 
 258:Generated_Source\PSoC5/USBUART_episr.c ****         /* `#END` */
 259:Generated_Source\PSoC5/USBUART_episr.c **** 
 260:Generated_Source\PSoC5/USBUART_episr.c ****     #ifdef USBUART_EP_3_ISR_EXIT_CALLBACK
 261:Generated_Source\PSoC5/USBUART_episr.c ****         USBUART_EP_3_ISR_ExitCallback();
 262:Generated_Source\PSoC5/USBUART_episr.c ****     #endif /* (USBUART_EP_3_ISR_EXIT_CALLBACK) */
 263:Generated_Source\PSoC5/USBUART_episr.c **** 
 264:Generated_Source\PSoC5/USBUART_episr.c ****     #if (CY_PSOC3 && defined(USBUART_ENABLE_MIDI_STREAMING) && \
 265:Generated_Source\PSoC5/USBUART_episr.c ****         !defined(USBUART_MAIN_SERVICE_MIDI_OUT) && USBUART_ISR_SERVICE_MIDI_OUT)
 266:Generated_Source\PSoC5/USBUART_episr.c ****         
 267:Generated_Source\PSoC5/USBUART_episr.c ****             EA = intEn; /* Restore nested interrupt configuration. */
 268:Generated_Source\PSoC5/USBUART_episr.c ****         }
 269:Generated_Source\PSoC5/USBUART_episr.c ****     #endif /* (CY_PSOC3 && USBUART_ISR_SERVICE_MIDI_OUT) */
 270:Generated_Source\PSoC5/USBUART_episr.c ****     }
 271:Generated_Source\PSoC5/USBUART_episr.c **** #endif /* (USBUART_EP3_ISR_ACTIVE) */
 272:Generated_Source\PSoC5/USBUART_episr.c **** 
 273:Generated_Source\PSoC5/USBUART_episr.c **** 
 274:Generated_Source\PSoC5/USBUART_episr.c **** #if (USBUART_EP4_ISR_ACTIVE)
 275:Generated_Source\PSoC5/USBUART_episr.c ****     /*******************************************************************************
 276:Generated_Source\PSoC5/USBUART_episr.c ****     * Function Name: USBUART_EP_4_ISR
 277:Generated_Source\PSoC5/USBUART_episr.c ****     ****************************************************************************//**
 278:Generated_Source\PSoC5/USBUART_episr.c ****     *
 279:Generated_Source\PSoC5/USBUART_episr.c ****     *  Endpoint 4 Interrupt Service Routine.
 280:Generated_Source\PSoC5/USBUART_episr.c ****     *
 281:Generated_Source\PSoC5/USBUART_episr.c ****     *******************************************************************************/
 282:Generated_Source\PSoC5/USBUART_episr.c ****     CY_ISR(USBUART_EP_4_ISR)
ARM GAS  C:\Users\ingan\AppData\Local\Temp\cc2prN0E.s 			page 9


 283:Generated_Source\PSoC5/USBUART_episr.c ****     {
 284:Generated_Source\PSoC5/USBUART_episr.c ****     #ifdef USBUART_EP_4_ISR_ENTRY_CALLBACK
 285:Generated_Source\PSoC5/USBUART_episr.c ****         USBUART_EP_4_ISR_EntryCallback();
 286:Generated_Source\PSoC5/USBUART_episr.c ****     #endif /* (USBUART_EP_4_ISR_ENTRY_CALLBACK) */
 287:Generated_Source\PSoC5/USBUART_episr.c **** 
 288:Generated_Source\PSoC5/USBUART_episr.c ****         /* `#START EP4_USER_CODE` Place your code here */
 289:Generated_Source\PSoC5/USBUART_episr.c **** 
 290:Generated_Source\PSoC5/USBUART_episr.c ****         /* `#END` */
 291:Generated_Source\PSoC5/USBUART_episr.c **** 
 292:Generated_Source\PSoC5/USBUART_episr.c ****     #if (CY_PSOC3 && defined(USBUART_ENABLE_MIDI_STREAMING) && \
 293:Generated_Source\PSoC5/USBUART_episr.c ****         !defined(USBUART_MAIN_SERVICE_MIDI_OUT) && USBUART_ISR_SERVICE_MIDI_OUT)
 294:Generated_Source\PSoC5/USBUART_episr.c ****         {
 295:Generated_Source\PSoC5/USBUART_episr.c ****             uint8 intEn = EA;
 296:Generated_Source\PSoC5/USBUART_episr.c ****             CyGlobalIntEnable;  /* Enable nested interrupts. */
 297:Generated_Source\PSoC5/USBUART_episr.c ****     #endif /* (CY_PSOC3 && USBUART_ISR_SERVICE_MIDI_OUT) */
 298:Generated_Source\PSoC5/USBUART_episr.c **** 
 299:Generated_Source\PSoC5/USBUART_episr.c ****         USBUART_ClearSieEpInterruptSource(USBUART_SIE_INT_EP4_INTR);
 300:Generated_Source\PSoC5/USBUART_episr.c ****         
 301:Generated_Source\PSoC5/USBUART_episr.c ****         /* Notifies user that transfer IN or OUT transfer is completed.
 302:Generated_Source\PSoC5/USBUART_episr.c ****         * IN endpoint: endpoint buffer can be reloaded, Host is read data.
 303:Generated_Source\PSoC5/USBUART_episr.c ****         * OUT endpoint: data is ready to read from endpoint buffer. 
 304:Generated_Source\PSoC5/USBUART_episr.c ****         */
 305:Generated_Source\PSoC5/USBUART_episr.c ****     #if (CY_PSOC4 && USBUART_EP_MANAGEMENT_DMA_AUTO)
 306:Generated_Source\PSoC5/USBUART_episr.c ****         if (0u != (USBUART_EP[USBUART_EP4].addr & USBUART_DIR_IN))
 307:Generated_Source\PSoC5/USBUART_episr.c ****     #endif /* (USBUART_EP_MANAGEMENT_DMA_AUTO) */
 308:Generated_Source\PSoC5/USBUART_episr.c ****         {
 309:Generated_Source\PSoC5/USBUART_episr.c ****             /* Read CR0 register to clear SIE lock. */
 310:Generated_Source\PSoC5/USBUART_episr.c ****             (void) USBUART_SIE_EP_BASE.sieEp[USBUART_EP4].epCr0;
 311:Generated_Source\PSoC5/USBUART_episr.c **** 
 312:Generated_Source\PSoC5/USBUART_episr.c ****             /* Toggle all endpoint types except ISOC. */
 313:Generated_Source\PSoC5/USBUART_episr.c ****             if (USBUART_GET_EP_TYPE(USBUART_EP4) != USBUART_EP_TYPE_ISOC)
 314:Generated_Source\PSoC5/USBUART_episr.c ****             {
 315:Generated_Source\PSoC5/USBUART_episr.c ****                 USBUART_EP[USBUART_EP4].epToggle ^= USBUART_EPX_CNT_DATA_TOGGLE;
 316:Generated_Source\PSoC5/USBUART_episr.c ****             }
 317:Generated_Source\PSoC5/USBUART_episr.c **** 
 318:Generated_Source\PSoC5/USBUART_episr.c ****             /* EP_MANAGEMENT_DMA_AUTO (Ticket ID# 214187): For OUT endpoint this event is used to n
 319:Generated_Source\PSoC5/USBUART_episr.c ****             * user that DMA has completed copying data from OUT endpoint which is not completely tr
 320:Generated_Source\PSoC5/USBUART_episr.c ****             * Because last chunk of data is being copied.
 321:Generated_Source\PSoC5/USBUART_episr.c ****             * For CY_PSOC 3/5LP: it is acceptable as DMA is really fast.
 322:Generated_Source\PSoC5/USBUART_episr.c ****             * For CY_PSOC4: this event is set in Arbiter interrupt (source is DMA_TERMIN).
 323:Generated_Source\PSoC5/USBUART_episr.c ****             */
 324:Generated_Source\PSoC5/USBUART_episr.c ****             USBUART_EP[USBUART_EP4].apiEpState = USBUART_EVENT_PENDING;
 325:Generated_Source\PSoC5/USBUART_episr.c ****         }
 326:Generated_Source\PSoC5/USBUART_episr.c **** 
 327:Generated_Source\PSoC5/USBUART_episr.c ****     #if (!(CY_PSOC4 && USBUART_EP_MANAGEMENT_DMA_AUTO))
 328:Generated_Source\PSoC5/USBUART_episr.c ****         #if (defined(USBUART_ENABLE_MIDI_STREAMING) && \
 329:Generated_Source\PSoC5/USBUART_episr.c ****             !defined(USBUART_MAIN_SERVICE_MIDI_OUT) && USBUART_ISR_SERVICE_MIDI_OUT)
 330:Generated_Source\PSoC5/USBUART_episr.c ****             if(USBUART_midi_out_ep == USBUART_EP4)
 331:Generated_Source\PSoC5/USBUART_episr.c ****             {
 332:Generated_Source\PSoC5/USBUART_episr.c ****                 USBUART_MIDI_OUT_Service();
 333:Generated_Source\PSoC5/USBUART_episr.c ****             }
 334:Generated_Source\PSoC5/USBUART_episr.c ****         #endif /* (USBUART_ISR_SERVICE_MIDI_OUT) */
 335:Generated_Source\PSoC5/USBUART_episr.c ****     #endif /* (!(CY_PSOC4 && USBUART_EP_MANAGEMENT_DMA_AUTO)) */        
 336:Generated_Source\PSoC5/USBUART_episr.c **** 
 337:Generated_Source\PSoC5/USBUART_episr.c ****         /* `#START EP4_END_USER_CODE` Place your code here */
 338:Generated_Source\PSoC5/USBUART_episr.c **** 
 339:Generated_Source\PSoC5/USBUART_episr.c ****         /* `#END` */
ARM GAS  C:\Users\ingan\AppData\Local\Temp\cc2prN0E.s 			page 10


 340:Generated_Source\PSoC5/USBUART_episr.c **** 
 341:Generated_Source\PSoC5/USBUART_episr.c ****     #ifdef USBUART_EP_4_ISR_EXIT_CALLBACK
 342:Generated_Source\PSoC5/USBUART_episr.c ****         USBUART_EP_4_ISR_ExitCallback();
 343:Generated_Source\PSoC5/USBUART_episr.c ****     #endif /* (USBUART_EP_4_ISR_EXIT_CALLBACK) */
 344:Generated_Source\PSoC5/USBUART_episr.c **** 
 345:Generated_Source\PSoC5/USBUART_episr.c ****     #if (CY_PSOC3 && defined(USBUART_ENABLE_MIDI_STREAMING) && \
 346:Generated_Source\PSoC5/USBUART_episr.c ****         !defined(USBUART_MAIN_SERVICE_MIDI_OUT) && USBUART_ISR_SERVICE_MIDI_OUT)
 347:Generated_Source\PSoC5/USBUART_episr.c ****         
 348:Generated_Source\PSoC5/USBUART_episr.c ****             EA = intEn; /* Restore nested interrupt configuration. */
 349:Generated_Source\PSoC5/USBUART_episr.c ****         }
 350:Generated_Source\PSoC5/USBUART_episr.c ****     #endif /* (CY_PSOC3 && USBUART_ISR_SERVICE_MIDI_OUT) */
 351:Generated_Source\PSoC5/USBUART_episr.c ****     }
 352:Generated_Source\PSoC5/USBUART_episr.c **** #endif /* (USBUART_EP4_ISR_ACTIVE) */
 353:Generated_Source\PSoC5/USBUART_episr.c **** 
 354:Generated_Source\PSoC5/USBUART_episr.c **** 
 355:Generated_Source\PSoC5/USBUART_episr.c **** #if (USBUART_EP5_ISR_ACTIVE)
 356:Generated_Source\PSoC5/USBUART_episr.c ****     /*******************************************************************************
 357:Generated_Source\PSoC5/USBUART_episr.c ****     * Function Name: USBUART_EP_5_ISR
 358:Generated_Source\PSoC5/USBUART_episr.c ****     ****************************************************************************//**
 359:Generated_Source\PSoC5/USBUART_episr.c ****     *
 360:Generated_Source\PSoC5/USBUART_episr.c ****     *  Endpoint 5 Interrupt Service Routine
 361:Generated_Source\PSoC5/USBUART_episr.c ****     *
 362:Generated_Source\PSoC5/USBUART_episr.c ****     *
 363:Generated_Source\PSoC5/USBUART_episr.c ****     *******************************************************************************/
 364:Generated_Source\PSoC5/USBUART_episr.c ****     CY_ISR(USBUART_EP_5_ISR)
 365:Generated_Source\PSoC5/USBUART_episr.c ****     {
 366:Generated_Source\PSoC5/USBUART_episr.c ****     #ifdef USBUART_EP_5_ISR_ENTRY_CALLBACK
 367:Generated_Source\PSoC5/USBUART_episr.c ****         USBUART_EP_5_ISR_EntryCallback();
 368:Generated_Source\PSoC5/USBUART_episr.c ****     #endif /* (USBUART_EP_5_ISR_ENTRY_CALLBACK) */
 369:Generated_Source\PSoC5/USBUART_episr.c **** 
 370:Generated_Source\PSoC5/USBUART_episr.c ****         /* `#START EP5_USER_CODE` Place your code here */
 371:Generated_Source\PSoC5/USBUART_episr.c **** 
 372:Generated_Source\PSoC5/USBUART_episr.c ****         /* `#END` */
 373:Generated_Source\PSoC5/USBUART_episr.c **** 
 374:Generated_Source\PSoC5/USBUART_episr.c ****     #if (defined(USBUART_ENABLE_MIDI_STREAMING) && !defined(USBUART_MAIN_SERVICE_MIDI_OUT) && \
 375:Generated_Source\PSoC5/USBUART_episr.c ****                  USBUART_ISR_SERVICE_MIDI_OUT && CY_PSOC3)
 376:Generated_Source\PSoC5/USBUART_episr.c ****         {
 377:Generated_Source\PSoC5/USBUART_episr.c ****             uint8 intEn = EA;
 378:Generated_Source\PSoC5/USBUART_episr.c ****             CyGlobalIntEnable;  /* Enable nested interrupts. */
 379:Generated_Source\PSoC5/USBUART_episr.c ****     #endif /* (CY_PSOC3 && USBUART_ISR_SERVICE_MIDI_OUT) */
 380:Generated_Source\PSoC5/USBUART_episr.c **** 
 381:Generated_Source\PSoC5/USBUART_episr.c ****         USBUART_ClearSieEpInterruptSource(USBUART_SIE_INT_EP5_INTR);
 382:Generated_Source\PSoC5/USBUART_episr.c ****     
 383:Generated_Source\PSoC5/USBUART_episr.c ****         /* Notifies user that transfer IN or OUT transfer is completed.
 384:Generated_Source\PSoC5/USBUART_episr.c ****         * IN endpoint: endpoint buffer can be reloaded, Host is read data.
 385:Generated_Source\PSoC5/USBUART_episr.c ****         * OUT endpoint: data is ready to read from endpoint buffer. 
 386:Generated_Source\PSoC5/USBUART_episr.c ****         */
 387:Generated_Source\PSoC5/USBUART_episr.c ****     #if (CY_PSOC4 && USBUART_EP_MANAGEMENT_DMA_AUTO)
 388:Generated_Source\PSoC5/USBUART_episr.c ****         if (0u != (USBUART_EP[USBUART_EP5].addr & USBUART_DIR_IN))
 389:Generated_Source\PSoC5/USBUART_episr.c ****     #endif /* (USBUART_EP_MANAGEMENT_DMA_AUTO) */
 390:Generated_Source\PSoC5/USBUART_episr.c ****         {            
 391:Generated_Source\PSoC5/USBUART_episr.c ****             /* Read CR0 register to clear SIE lock. */
 392:Generated_Source\PSoC5/USBUART_episr.c ****             (void) USBUART_SIE_EP_BASE.sieEp[USBUART_EP5].epCr0;
 393:Generated_Source\PSoC5/USBUART_episr.c **** 
 394:Generated_Source\PSoC5/USBUART_episr.c ****             /* Toggle all endpoint types except ISOC. */
 395:Generated_Source\PSoC5/USBUART_episr.c ****             if (USBUART_GET_EP_TYPE(USBUART_EP5) != USBUART_EP_TYPE_ISOC)
 396:Generated_Source\PSoC5/USBUART_episr.c ****             {
ARM GAS  C:\Users\ingan\AppData\Local\Temp\cc2prN0E.s 			page 11


 397:Generated_Source\PSoC5/USBUART_episr.c ****                 USBUART_EP[USBUART_EP5].epToggle ^= USBUART_EPX_CNT_DATA_TOGGLE;
 398:Generated_Source\PSoC5/USBUART_episr.c ****             }
 399:Generated_Source\PSoC5/USBUART_episr.c **** 
 400:Generated_Source\PSoC5/USBUART_episr.c ****             /* EP_MANAGEMENT_DMA_AUTO (Ticket ID# 214187): For OUT endpoint this event is used to n
 401:Generated_Source\PSoC5/USBUART_episr.c ****             * user that DMA has completed copying data from OUT endpoint which is not completely tr
 402:Generated_Source\PSoC5/USBUART_episr.c ****             * Because last chunk of data is being copied.
 403:Generated_Source\PSoC5/USBUART_episr.c ****             * For CY_PSOC 3/5LP: it is acceptable as DMA is really fast.
 404:Generated_Source\PSoC5/USBUART_episr.c ****             * For CY_PSOC4: this event is set in Arbiter interrupt (source is DMA_TERMIN).
 405:Generated_Source\PSoC5/USBUART_episr.c ****             */
 406:Generated_Source\PSoC5/USBUART_episr.c ****             USBUART_EP[USBUART_EP5].apiEpState = USBUART_EVENT_PENDING;
 407:Generated_Source\PSoC5/USBUART_episr.c ****         }
 408:Generated_Source\PSoC5/USBUART_episr.c **** 
 409:Generated_Source\PSoC5/USBUART_episr.c ****     #if (!(CY_PSOC4 && USBUART_EP_MANAGEMENT_DMA_AUTO))        
 410:Generated_Source\PSoC5/USBUART_episr.c ****         #if (defined(USBUART_ENABLE_MIDI_STREAMING) && \
 411:Generated_Source\PSoC5/USBUART_episr.c ****             !defined(USBUART_MAIN_SERVICE_MIDI_OUT) && USBUART_ISR_SERVICE_MIDI_OUT)
 412:Generated_Source\PSoC5/USBUART_episr.c ****             if (USBUART_midi_out_ep == USBUART_EP5)
 413:Generated_Source\PSoC5/USBUART_episr.c ****             {
 414:Generated_Source\PSoC5/USBUART_episr.c ****                 USBUART_MIDI_OUT_Service();
 415:Generated_Source\PSoC5/USBUART_episr.c ****             }
 416:Generated_Source\PSoC5/USBUART_episr.c ****         #endif /* (USBUART_ISR_SERVICE_MIDI_OUT) */
 417:Generated_Source\PSoC5/USBUART_episr.c ****     #endif /* (!(CY_PSOC4 && USBUART_EP_MANAGEMENT_DMA_AUTO)) */
 418:Generated_Source\PSoC5/USBUART_episr.c **** 
 419:Generated_Source\PSoC5/USBUART_episr.c ****         /* `#START EP5_END_USER_CODE` Place your code here */
 420:Generated_Source\PSoC5/USBUART_episr.c **** 
 421:Generated_Source\PSoC5/USBUART_episr.c ****         /* `#END` */
 422:Generated_Source\PSoC5/USBUART_episr.c **** 
 423:Generated_Source\PSoC5/USBUART_episr.c ****     #ifdef USBUART_EP_5_ISR_EXIT_CALLBACK
 424:Generated_Source\PSoC5/USBUART_episr.c ****         USBUART_EP_5_ISR_ExitCallback();
 425:Generated_Source\PSoC5/USBUART_episr.c ****     #endif /* (USBUART_EP_5_ISR_EXIT_CALLBACK) */
 426:Generated_Source\PSoC5/USBUART_episr.c **** 
 427:Generated_Source\PSoC5/USBUART_episr.c ****     #if (CY_PSOC3 && defined(USBUART_ENABLE_MIDI_STREAMING) && \
 428:Generated_Source\PSoC5/USBUART_episr.c ****         !defined(USBUART_MAIN_SERVICE_MIDI_OUT) && USBUART_ISR_SERVICE_MIDI_OUT)
 429:Generated_Source\PSoC5/USBUART_episr.c ****         
 430:Generated_Source\PSoC5/USBUART_episr.c ****             EA = intEn; /* Restore nested interrupt configuration. */
 431:Generated_Source\PSoC5/USBUART_episr.c ****         }
 432:Generated_Source\PSoC5/USBUART_episr.c ****     #endif /* (CY_PSOC3 && USBUART_ISR_SERVICE_MIDI_OUT) */
 433:Generated_Source\PSoC5/USBUART_episr.c ****     }
 434:Generated_Source\PSoC5/USBUART_episr.c **** #endif /* (USBUART_EP5_ISR_ACTIVE) */
 435:Generated_Source\PSoC5/USBUART_episr.c **** 
 436:Generated_Source\PSoC5/USBUART_episr.c **** 
 437:Generated_Source\PSoC5/USBUART_episr.c **** #if (USBUART_EP6_ISR_ACTIVE)
 438:Generated_Source\PSoC5/USBUART_episr.c ****     /*******************************************************************************
 439:Generated_Source\PSoC5/USBUART_episr.c ****     * Function Name: USBUART_EP_6_ISR
 440:Generated_Source\PSoC5/USBUART_episr.c ****     ****************************************************************************//**
 441:Generated_Source\PSoC5/USBUART_episr.c ****     *
 442:Generated_Source\PSoC5/USBUART_episr.c ****     *  Endpoint 6 Interrupt Service Routine.
 443:Generated_Source\PSoC5/USBUART_episr.c ****     *
 444:Generated_Source\PSoC5/USBUART_episr.c ****     *
 445:Generated_Source\PSoC5/USBUART_episr.c ****     *******************************************************************************/
 446:Generated_Source\PSoC5/USBUART_episr.c ****     CY_ISR(USBUART_EP_6_ISR)
 447:Generated_Source\PSoC5/USBUART_episr.c ****     {
 448:Generated_Source\PSoC5/USBUART_episr.c ****     #ifdef USBUART_EP_6_ISR_ENTRY_CALLBACK
 449:Generated_Source\PSoC5/USBUART_episr.c ****         USBUART_EP_6_ISR_EntryCallback();
 450:Generated_Source\PSoC5/USBUART_episr.c ****     #endif /* (USBUART_EP_6_ISR_ENTRY_CALLBACK) */
 451:Generated_Source\PSoC5/USBUART_episr.c **** 
 452:Generated_Source\PSoC5/USBUART_episr.c ****         /* `#START EP6_USER_CODE` Place your code here */
 453:Generated_Source\PSoC5/USBUART_episr.c **** 
ARM GAS  C:\Users\ingan\AppData\Local\Temp\cc2prN0E.s 			page 12


 454:Generated_Source\PSoC5/USBUART_episr.c ****         /* `#END` */
 455:Generated_Source\PSoC5/USBUART_episr.c **** 
 456:Generated_Source\PSoC5/USBUART_episr.c ****     #if (CY_PSOC3 && defined(USBUART_ENABLE_MIDI_STREAMING) && \
 457:Generated_Source\PSoC5/USBUART_episr.c ****         !defined(USBUART_MAIN_SERVICE_MIDI_OUT) && USBUART_ISR_SERVICE_MIDI_OUT)
 458:Generated_Source\PSoC5/USBUART_episr.c ****         {
 459:Generated_Source\PSoC5/USBUART_episr.c ****             uint8 intEn = EA;
 460:Generated_Source\PSoC5/USBUART_episr.c ****             CyGlobalIntEnable;  /* Enable nested interrupts. */
 461:Generated_Source\PSoC5/USBUART_episr.c ****     #endif /* (CY_PSOC3 && USBUART_ISR_SERVICE_MIDI_OUT) */
 462:Generated_Source\PSoC5/USBUART_episr.c **** 
 463:Generated_Source\PSoC5/USBUART_episr.c ****         USBUART_ClearSieEpInterruptSource(USBUART_SIE_INT_EP6_INTR);
 464:Generated_Source\PSoC5/USBUART_episr.c ****         
 465:Generated_Source\PSoC5/USBUART_episr.c ****         /* Notifies user that transfer IN or OUT transfer is completed.
 466:Generated_Source\PSoC5/USBUART_episr.c ****         * IN endpoint: endpoint buffer can be reloaded, Host is read data.
 467:Generated_Source\PSoC5/USBUART_episr.c ****         * OUT endpoint: data is ready to read from endpoint buffer. 
 468:Generated_Source\PSoC5/USBUART_episr.c ****         */
 469:Generated_Source\PSoC5/USBUART_episr.c ****     #if (CY_PSOC4 && USBUART_EP_MANAGEMENT_DMA_AUTO)
 470:Generated_Source\PSoC5/USBUART_episr.c ****         if (0u != (USBUART_EP[USBUART_EP6].addr & USBUART_DIR_IN))
 471:Generated_Source\PSoC5/USBUART_episr.c ****     #endif /* (USBUART_EP_MANAGEMENT_DMA_AUTO) */
 472:Generated_Source\PSoC5/USBUART_episr.c ****         {
 473:Generated_Source\PSoC5/USBUART_episr.c ****             /* Read CR0 register to clear SIE lock. */
 474:Generated_Source\PSoC5/USBUART_episr.c ****             (void) USBUART_SIE_EP_BASE.sieEp[USBUART_EP6].epCr0;
 475:Generated_Source\PSoC5/USBUART_episr.c **** 
 476:Generated_Source\PSoC5/USBUART_episr.c ****             /* Toggle all endpoint types except ISOC. */
 477:Generated_Source\PSoC5/USBUART_episr.c ****             if (USBUART_GET_EP_TYPE(USBUART_EP6) != USBUART_EP_TYPE_ISOC)
 478:Generated_Source\PSoC5/USBUART_episr.c ****             {
 479:Generated_Source\PSoC5/USBUART_episr.c ****                 USBUART_EP[USBUART_EP6].epToggle ^= USBUART_EPX_CNT_DATA_TOGGLE;
 480:Generated_Source\PSoC5/USBUART_episr.c ****             }
 481:Generated_Source\PSoC5/USBUART_episr.c ****             
 482:Generated_Source\PSoC5/USBUART_episr.c ****             /* EP_MANAGEMENT_DMA_AUTO (Ticket ID# 214187): For OUT endpoint this event is used to n
 483:Generated_Source\PSoC5/USBUART_episr.c ****             * user that DMA has completed copying data from OUT endpoint which is not completely tr
 484:Generated_Source\PSoC5/USBUART_episr.c ****             * Because last chunk of data is being copied.
 485:Generated_Source\PSoC5/USBUART_episr.c ****             * For CY_PSOC 3/5LP: it is acceptable as DMA is really fast.
 486:Generated_Source\PSoC5/USBUART_episr.c ****             * For CY_PSOC4: this event is set in Arbiter interrupt (source is DMA_TERMIN).
 487:Generated_Source\PSoC5/USBUART_episr.c ****             */
 488:Generated_Source\PSoC5/USBUART_episr.c ****             USBUART_EP[USBUART_EP6].apiEpState = USBUART_EVENT_PENDING;
 489:Generated_Source\PSoC5/USBUART_episr.c ****         }
 490:Generated_Source\PSoC5/USBUART_episr.c **** 
 491:Generated_Source\PSoC5/USBUART_episr.c ****     #if (!(CY_PSOC4 && USBUART_EP_MANAGEMENT_DMA_AUTO))
 492:Generated_Source\PSoC5/USBUART_episr.c ****         #if (defined(USBUART_ENABLE_MIDI_STREAMING) && \
 493:Generated_Source\PSoC5/USBUART_episr.c ****             !defined(USBUART_MAIN_SERVICE_MIDI_OUT) && USBUART_ISR_SERVICE_MIDI_OUT)
 494:Generated_Source\PSoC5/USBUART_episr.c ****             if (USBUART_midi_out_ep == USBUART_EP6)
 495:Generated_Source\PSoC5/USBUART_episr.c ****             {
 496:Generated_Source\PSoC5/USBUART_episr.c ****                 USBUART_MIDI_OUT_Service();
 497:Generated_Source\PSoC5/USBUART_episr.c ****             }
 498:Generated_Source\PSoC5/USBUART_episr.c ****         #endif /* (USBUART_ISR_SERVICE_MIDI_OUT) */
 499:Generated_Source\PSoC5/USBUART_episr.c ****     #endif /* (!(CY_PSOC4 && USBUART_EP_MANAGEMENT_DMA_AUTO)) */
 500:Generated_Source\PSoC5/USBUART_episr.c **** 
 501:Generated_Source\PSoC5/USBUART_episr.c ****         /* `#START EP6_END_USER_CODE` Place your code here */
 502:Generated_Source\PSoC5/USBUART_episr.c **** 
 503:Generated_Source\PSoC5/USBUART_episr.c ****         /* `#END` */
 504:Generated_Source\PSoC5/USBUART_episr.c **** 
 505:Generated_Source\PSoC5/USBUART_episr.c ****     #ifdef USBUART_EP_6_ISR_EXIT_CALLBACK
 506:Generated_Source\PSoC5/USBUART_episr.c ****         USBUART_EP_6_ISR_ExitCallback();
 507:Generated_Source\PSoC5/USBUART_episr.c ****     #endif /* (USBUART_EP_6_ISR_EXIT_CALLBACK) */
 508:Generated_Source\PSoC5/USBUART_episr.c **** 
 509:Generated_Source\PSoC5/USBUART_episr.c ****     #if (CY_PSOC3 && defined(USBUART_ENABLE_MIDI_STREAMING) && \
 510:Generated_Source\PSoC5/USBUART_episr.c ****         !defined(USBUART_MAIN_SERVICE_MIDI_OUT) && USBUART_ISR_SERVICE_MIDI_OUT)
ARM GAS  C:\Users\ingan\AppData\Local\Temp\cc2prN0E.s 			page 13


 511:Generated_Source\PSoC5/USBUART_episr.c ****         
 512:Generated_Source\PSoC5/USBUART_episr.c ****             EA = intEn; /* Restore nested interrupt configuration. */
 513:Generated_Source\PSoC5/USBUART_episr.c ****         }
 514:Generated_Source\PSoC5/USBUART_episr.c ****     #endif /* (CY_PSOC3 && USBUART_ISR_SERVICE_MIDI_OUT) */
 515:Generated_Source\PSoC5/USBUART_episr.c ****     }
 516:Generated_Source\PSoC5/USBUART_episr.c **** #endif /* (USBUART_EP6_ISR_ACTIVE) */
 517:Generated_Source\PSoC5/USBUART_episr.c **** 
 518:Generated_Source\PSoC5/USBUART_episr.c **** 
 519:Generated_Source\PSoC5/USBUART_episr.c **** #if (USBUART_EP7_ISR_ACTIVE)
 520:Generated_Source\PSoC5/USBUART_episr.c ****     /*******************************************************************************
 521:Generated_Source\PSoC5/USBUART_episr.c ****     * Function Name: USBUART_EP_7_ISR
 522:Generated_Source\PSoC5/USBUART_episr.c ****     ****************************************************************************//**
 523:Generated_Source\PSoC5/USBUART_episr.c ****     *
 524:Generated_Source\PSoC5/USBUART_episr.c ****     *  Endpoint 7 Interrupt Service Routine.
 525:Generated_Source\PSoC5/USBUART_episr.c ****     *
 526:Generated_Source\PSoC5/USBUART_episr.c ****     *
 527:Generated_Source\PSoC5/USBUART_episr.c ****     *******************************************************************************/
 528:Generated_Source\PSoC5/USBUART_episr.c ****     CY_ISR(USBUART_EP_7_ISR)
 529:Generated_Source\PSoC5/USBUART_episr.c ****     {
 530:Generated_Source\PSoC5/USBUART_episr.c ****     #ifdef USBUART_EP_7_ISR_ENTRY_CALLBACK
 531:Generated_Source\PSoC5/USBUART_episr.c ****         USBUART_EP_7_ISR_EntryCallback();
 532:Generated_Source\PSoC5/USBUART_episr.c ****     #endif /* (USBUART_EP_7_ISR_ENTRY_CALLBACK) */
 533:Generated_Source\PSoC5/USBUART_episr.c **** 
 534:Generated_Source\PSoC5/USBUART_episr.c ****         /* `#START EP7_USER_CODE` Place your code here */
 535:Generated_Source\PSoC5/USBUART_episr.c **** 
 536:Generated_Source\PSoC5/USBUART_episr.c ****         /* `#END` */
 537:Generated_Source\PSoC5/USBUART_episr.c **** 
 538:Generated_Source\PSoC5/USBUART_episr.c ****     #if (CY_PSOC3 && defined(USBUART_ENABLE_MIDI_STREAMING) && \
 539:Generated_Source\PSoC5/USBUART_episr.c ****         !defined(USBUART_MAIN_SERVICE_MIDI_OUT) && USBUART_ISR_SERVICE_MIDI_OUT)
 540:Generated_Source\PSoC5/USBUART_episr.c ****         {
 541:Generated_Source\PSoC5/USBUART_episr.c ****             uint8 intEn = EA;
 542:Generated_Source\PSoC5/USBUART_episr.c ****             CyGlobalIntEnable;  /* Enable nested interrupts. */
 543:Generated_Source\PSoC5/USBUART_episr.c ****     #endif /* (CY_PSOC3 && USBUART_ISR_SERVICE_MIDI_OUT) */
 544:Generated_Source\PSoC5/USBUART_episr.c ****     
 545:Generated_Source\PSoC5/USBUART_episr.c ****         USBUART_ClearSieEpInterruptSource(USBUART_SIE_INT_EP7_INTR);
 546:Generated_Source\PSoC5/USBUART_episr.c ****         
 547:Generated_Source\PSoC5/USBUART_episr.c ****         /* Notifies user that transfer IN or OUT transfer is completed.
 548:Generated_Source\PSoC5/USBUART_episr.c ****         * IN endpoint: endpoint buffer can be reloaded, Host is read data.
 549:Generated_Source\PSoC5/USBUART_episr.c ****         * OUT endpoint: data is ready to read from endpoint buffer. 
 550:Generated_Source\PSoC5/USBUART_episr.c ****         */
 551:Generated_Source\PSoC5/USBUART_episr.c ****     #if (CY_PSOC4 && USBUART_EP_MANAGEMENT_DMA_AUTO)
 552:Generated_Source\PSoC5/USBUART_episr.c ****         if (0u != (USBUART_EP[USBUART_EP7].addr & USBUART_DIR_IN))
 553:Generated_Source\PSoC5/USBUART_episr.c ****     #endif /* (USBUART_EP_MANAGEMENT_DMA_AUTO) */
 554:Generated_Source\PSoC5/USBUART_episr.c ****         {           
 555:Generated_Source\PSoC5/USBUART_episr.c ****             /* Read CR0 register to clear SIE lock. */
 556:Generated_Source\PSoC5/USBUART_episr.c ****             (void) USBUART_SIE_EP_BASE.sieEp[USBUART_EP7].epCr0;
 557:Generated_Source\PSoC5/USBUART_episr.c **** 
 558:Generated_Source\PSoC5/USBUART_episr.c ****             /* Toggle all endpoint types except ISOC. */
 559:Generated_Source\PSoC5/USBUART_episr.c ****             if (USBUART_GET_EP_TYPE(USBUART_EP7) != USBUART_EP_TYPE_ISOC)
 560:Generated_Source\PSoC5/USBUART_episr.c ****             {
 561:Generated_Source\PSoC5/USBUART_episr.c ****                 USBUART_EP[USBUART_EP7].epToggle ^= USBUART_EPX_CNT_DATA_TOGGLE;
 562:Generated_Source\PSoC5/USBUART_episr.c ****             }
 563:Generated_Source\PSoC5/USBUART_episr.c ****             
 564:Generated_Source\PSoC5/USBUART_episr.c ****             /* EP_MANAGEMENT_DMA_AUTO (Ticket ID# 214187): For OUT endpoint this event is used to n
 565:Generated_Source\PSoC5/USBUART_episr.c ****             * user that DMA has completed copying data from OUT endpoint which is not completely tr
 566:Generated_Source\PSoC5/USBUART_episr.c ****             * Because last chunk of data is being copied.
 567:Generated_Source\PSoC5/USBUART_episr.c ****             * For CY_PSOC 3/5LP: it is acceptable as DMA is really fast.
ARM GAS  C:\Users\ingan\AppData\Local\Temp\cc2prN0E.s 			page 14


 568:Generated_Source\PSoC5/USBUART_episr.c ****             * For CY_PSOC4: this event is set in Arbiter interrupt (source is DMA_TERMIN).
 569:Generated_Source\PSoC5/USBUART_episr.c ****             */
 570:Generated_Source\PSoC5/USBUART_episr.c ****             USBUART_EP[USBUART_EP7].apiEpState = USBUART_EVENT_PENDING;
 571:Generated_Source\PSoC5/USBUART_episr.c ****         }
 572:Generated_Source\PSoC5/USBUART_episr.c **** 
 573:Generated_Source\PSoC5/USBUART_episr.c **** 
 574:Generated_Source\PSoC5/USBUART_episr.c ****     #if (!(CY_PSOC4 && USBUART_EP_MANAGEMENT_DMA_AUTO))
 575:Generated_Source\PSoC5/USBUART_episr.c ****         #if (defined(USBUART_ENABLE_MIDI_STREAMING) && \
 576:Generated_Source\PSoC5/USBUART_episr.c ****             !defined(USBUART_MAIN_SERVICE_MIDI_OUT) && USBUART_ISR_SERVICE_MIDI_OUT)
 577:Generated_Source\PSoC5/USBUART_episr.c ****             if(USBUART_midi_out_ep == USBUART_EP7)
 578:Generated_Source\PSoC5/USBUART_episr.c ****             {
 579:Generated_Source\PSoC5/USBUART_episr.c ****                 USBUART_MIDI_OUT_Service();
 580:Generated_Source\PSoC5/USBUART_episr.c ****             }
 581:Generated_Source\PSoC5/USBUART_episr.c ****         #endif /* (USBUART_ISR_SERVICE_MIDI_OUT) */
 582:Generated_Source\PSoC5/USBUART_episr.c ****     #endif /* (!(CY_PSOC4 && USBUART_EP_MANAGEMENT_DMA_AUTO)) */
 583:Generated_Source\PSoC5/USBUART_episr.c **** 
 584:Generated_Source\PSoC5/USBUART_episr.c ****         /* `#START EP7_END_USER_CODE` Place your code here */
 585:Generated_Source\PSoC5/USBUART_episr.c **** 
 586:Generated_Source\PSoC5/USBUART_episr.c ****         /* `#END` */
 587:Generated_Source\PSoC5/USBUART_episr.c **** 
 588:Generated_Source\PSoC5/USBUART_episr.c ****     #ifdef USBUART_EP_7_ISR_EXIT_CALLBACK
 589:Generated_Source\PSoC5/USBUART_episr.c ****         USBUART_EP_7_ISR_ExitCallback();
 590:Generated_Source\PSoC5/USBUART_episr.c ****     #endif /* (USBUART_EP_7_ISR_EXIT_CALLBACK) */
 591:Generated_Source\PSoC5/USBUART_episr.c **** 
 592:Generated_Source\PSoC5/USBUART_episr.c ****     #if (CY_PSOC3 && defined(USBUART_ENABLE_MIDI_STREAMING) && \
 593:Generated_Source\PSoC5/USBUART_episr.c ****         !defined(USBUART_MAIN_SERVICE_MIDI_OUT) && USBUART_ISR_SERVICE_MIDI_OUT)
 594:Generated_Source\PSoC5/USBUART_episr.c ****         
 595:Generated_Source\PSoC5/USBUART_episr.c ****             EA = intEn; /* Restore nested interrupt configuration. */
 596:Generated_Source\PSoC5/USBUART_episr.c ****         }
 597:Generated_Source\PSoC5/USBUART_episr.c ****     #endif /* (CY_PSOC3 && USBUART_ISR_SERVICE_MIDI_OUT) */
 598:Generated_Source\PSoC5/USBUART_episr.c ****     }
 599:Generated_Source\PSoC5/USBUART_episr.c **** #endif /* (USBUART_EP7_ISR_ACTIVE) */
 600:Generated_Source\PSoC5/USBUART_episr.c **** 
 601:Generated_Source\PSoC5/USBUART_episr.c **** 
 602:Generated_Source\PSoC5/USBUART_episr.c **** #if (USBUART_EP8_ISR_ACTIVE)
 603:Generated_Source\PSoC5/USBUART_episr.c ****     /*******************************************************************************
 604:Generated_Source\PSoC5/USBUART_episr.c ****     * Function Name: USBUART_EP_8_ISR
 605:Generated_Source\PSoC5/USBUART_episr.c ****     ****************************************************************************//**
 606:Generated_Source\PSoC5/USBUART_episr.c ****     *
 607:Generated_Source\PSoC5/USBUART_episr.c ****     *  Endpoint 8 Interrupt Service Routine
 608:Generated_Source\PSoC5/USBUART_episr.c ****     *
 609:Generated_Source\PSoC5/USBUART_episr.c ****     *
 610:Generated_Source\PSoC5/USBUART_episr.c ****     *******************************************************************************/
 611:Generated_Source\PSoC5/USBUART_episr.c ****     CY_ISR(USBUART_EP_8_ISR)
 612:Generated_Source\PSoC5/USBUART_episr.c ****     {
 613:Generated_Source\PSoC5/USBUART_episr.c ****     #ifdef USBUART_EP_8_ISR_ENTRY_CALLBACK
 614:Generated_Source\PSoC5/USBUART_episr.c ****         USBUART_EP_8_ISR_EntryCallback();
 615:Generated_Source\PSoC5/USBUART_episr.c ****     #endif /* (USBUART_EP_8_ISR_ENTRY_CALLBACK) */
 616:Generated_Source\PSoC5/USBUART_episr.c **** 
 617:Generated_Source\PSoC5/USBUART_episr.c ****         /* `#START EP8_USER_CODE` Place your code here */
 618:Generated_Source\PSoC5/USBUART_episr.c **** 
 619:Generated_Source\PSoC5/USBUART_episr.c ****         /* `#END` */
 620:Generated_Source\PSoC5/USBUART_episr.c **** 
 621:Generated_Source\PSoC5/USBUART_episr.c ****     #if (CY_PSOC3 && defined(USBUART_ENABLE_MIDI_STREAMING) && \
 622:Generated_Source\PSoC5/USBUART_episr.c ****         !defined(USBUART_MAIN_SERVICE_MIDI_OUT) && USBUART_ISR_SERVICE_MIDI_OUT)
 623:Generated_Source\PSoC5/USBUART_episr.c ****         {
 624:Generated_Source\PSoC5/USBUART_episr.c ****             uint8 intEn = EA;
ARM GAS  C:\Users\ingan\AppData\Local\Temp\cc2prN0E.s 			page 15


 625:Generated_Source\PSoC5/USBUART_episr.c ****             CyGlobalIntEnable;  /* Enable nested interrupts. */
 626:Generated_Source\PSoC5/USBUART_episr.c ****     #endif /* (CY_PSOC3 && USBUART_ISR_SERVICE_MIDI_OUT) */
 627:Generated_Source\PSoC5/USBUART_episr.c **** 
 628:Generated_Source\PSoC5/USBUART_episr.c ****         USBUART_ClearSieEpInterruptSource(USBUART_SIE_INT_EP8_INTR);
 629:Generated_Source\PSoC5/USBUART_episr.c ****         
 630:Generated_Source\PSoC5/USBUART_episr.c ****         /* Notifies user that transfer IN or OUT transfer is completed.
 631:Generated_Source\PSoC5/USBUART_episr.c ****         * IN endpoint: endpoint buffer can be reloaded, Host is read data.
 632:Generated_Source\PSoC5/USBUART_episr.c ****         * OUT endpoint: data is ready to read from endpoint buffer. 
 633:Generated_Source\PSoC5/USBUART_episr.c ****         */
 634:Generated_Source\PSoC5/USBUART_episr.c ****     #if (CY_PSOC4 && USBUART_EP_MANAGEMENT_DMA_AUTO)
 635:Generated_Source\PSoC5/USBUART_episr.c ****         if (0u != (USBUART_EP[USBUART_EP8].addr & USBUART_DIR_IN))
 636:Generated_Source\PSoC5/USBUART_episr.c ****     #endif /* (USBUART_EP_MANAGEMENT_DMA_AUTO) */
 637:Generated_Source\PSoC5/USBUART_episr.c ****         {
 638:Generated_Source\PSoC5/USBUART_episr.c ****             /* Read CR0 register to clear SIE lock. */
 639:Generated_Source\PSoC5/USBUART_episr.c ****             (void) USBUART_SIE_EP_BASE.sieEp[USBUART_EP8].epCr0;
 640:Generated_Source\PSoC5/USBUART_episr.c **** 
 641:Generated_Source\PSoC5/USBUART_episr.c ****             /* Toggle all endpoint types except ISOC. */
 642:Generated_Source\PSoC5/USBUART_episr.c ****             if (USBUART_GET_EP_TYPE(USBUART_EP8) != USBUART_EP_TYPE_ISOC)
 643:Generated_Source\PSoC5/USBUART_episr.c ****             {
 644:Generated_Source\PSoC5/USBUART_episr.c ****                 USBUART_EP[USBUART_EP8].epToggle ^= USBUART_EPX_CNT_DATA_TOGGLE;
 645:Generated_Source\PSoC5/USBUART_episr.c ****             }
 646:Generated_Source\PSoC5/USBUART_episr.c **** 
 647:Generated_Source\PSoC5/USBUART_episr.c ****             /* EP_MANAGEMENT_DMA_AUTO (Ticket ID# 214187): For OUT endpoint this event is used to n
 648:Generated_Source\PSoC5/USBUART_episr.c ****             * user that DMA has completed copying data from OUT endpoint which is not completely tr
 649:Generated_Source\PSoC5/USBUART_episr.c ****             * Because last chunk of data is being copied.
 650:Generated_Source\PSoC5/USBUART_episr.c ****             * For CY_PSOC 3/5LP: it is acceptable as DMA is really fast.
 651:Generated_Source\PSoC5/USBUART_episr.c ****             * For CY_PSOC4: this event is set in Arbiter interrupt (source is DMA_TERMIN).
 652:Generated_Source\PSoC5/USBUART_episr.c ****             */
 653:Generated_Source\PSoC5/USBUART_episr.c ****             USBUART_EP[USBUART_EP8].apiEpState = USBUART_EVENT_PENDING;
 654:Generated_Source\PSoC5/USBUART_episr.c ****         }
 655:Generated_Source\PSoC5/USBUART_episr.c **** 
 656:Generated_Source\PSoC5/USBUART_episr.c ****     #if (!(CY_PSOC4 && USBUART_EP_MANAGEMENT_DMA_AUTO))
 657:Generated_Source\PSoC5/USBUART_episr.c ****         #if (defined(USBUART_ENABLE_MIDI_STREAMING) && \
 658:Generated_Source\PSoC5/USBUART_episr.c ****             !defined(USBUART_MAIN_SERVICE_MIDI_OUT) && USBUART_ISR_SERVICE_MIDI_OUT)
 659:Generated_Source\PSoC5/USBUART_episr.c ****             if (USBUART_midi_out_ep == USBUART_EP8)
 660:Generated_Source\PSoC5/USBUART_episr.c ****             {
 661:Generated_Source\PSoC5/USBUART_episr.c ****                 USBUART_MIDI_OUT_Service();
 662:Generated_Source\PSoC5/USBUART_episr.c ****             }
 663:Generated_Source\PSoC5/USBUART_episr.c ****         #endif /* (USBUART_ISR_SERVICE_MIDI_OUT) */
 664:Generated_Source\PSoC5/USBUART_episr.c ****     #endif /* (!(CY_PSOC4 && USBUART_EP_MANAGEMENT_DMA_AUTO)) */
 665:Generated_Source\PSoC5/USBUART_episr.c **** 
 666:Generated_Source\PSoC5/USBUART_episr.c ****         /* `#START EP8_END_USER_CODE` Place your code here */
 667:Generated_Source\PSoC5/USBUART_episr.c **** 
 668:Generated_Source\PSoC5/USBUART_episr.c ****         /* `#END` */
 669:Generated_Source\PSoC5/USBUART_episr.c **** 
 670:Generated_Source\PSoC5/USBUART_episr.c ****     #ifdef USBUART_EP_8_ISR_EXIT_CALLBACK
 671:Generated_Source\PSoC5/USBUART_episr.c ****         USBUART_EP_8_ISR_ExitCallback();
 672:Generated_Source\PSoC5/USBUART_episr.c ****     #endif /* (USBUART_EP_8_ISR_EXIT_CALLBACK) */
 673:Generated_Source\PSoC5/USBUART_episr.c **** 
 674:Generated_Source\PSoC5/USBUART_episr.c ****     #if (CY_PSOC3 && defined(USBUART_ENABLE_MIDI_STREAMING) && \
 675:Generated_Source\PSoC5/USBUART_episr.c ****         !defined(USBUART_MAIN_SERVICE_MIDI_OUT) && USBUART_ISR_SERVICE_MIDI_OUT)
 676:Generated_Source\PSoC5/USBUART_episr.c ****         
 677:Generated_Source\PSoC5/USBUART_episr.c ****             EA = intEn; /* Restore nested interrupt configuration. */
 678:Generated_Source\PSoC5/USBUART_episr.c ****         }
 679:Generated_Source\PSoC5/USBUART_episr.c ****     #endif /* (CY_PSOC3 && USBUART_ISR_SERVICE_MIDI_OUT) */
 680:Generated_Source\PSoC5/USBUART_episr.c ****     }
 681:Generated_Source\PSoC5/USBUART_episr.c **** #endif /* (USBUART_EP8_ISR_ACTIVE) */
ARM GAS  C:\Users\ingan\AppData\Local\Temp\cc2prN0E.s 			page 16


 682:Generated_Source\PSoC5/USBUART_episr.c **** 
 683:Generated_Source\PSoC5/USBUART_episr.c **** 
 684:Generated_Source\PSoC5/USBUART_episr.c **** #if (USBUART_SOF_ISR_ACTIVE)
 685:Generated_Source\PSoC5/USBUART_episr.c ****     /*******************************************************************************
 686:Generated_Source\PSoC5/USBUART_episr.c ****     * Function Name: USBUART_SOF_ISR
 687:Generated_Source\PSoC5/USBUART_episr.c ****     ****************************************************************************//**
 688:Generated_Source\PSoC5/USBUART_episr.c ****     *
 689:Generated_Source\PSoC5/USBUART_episr.c ****     *  Start of Frame Interrupt Service Routine.
 690:Generated_Source\PSoC5/USBUART_episr.c ****     *
 691:Generated_Source\PSoC5/USBUART_episr.c ****     *
 692:Generated_Source\PSoC5/USBUART_episr.c ****     *******************************************************************************/
 693:Generated_Source\PSoC5/USBUART_episr.c ****     CY_ISR(USBUART_SOF_ISR)
 694:Generated_Source\PSoC5/USBUART_episr.c ****     {
 169              		.loc 1 694 0
 170              		.cfi_startproc
 171              		@ args = 0, pretend = 0, frame = 0
 172              		@ frame_needed = 0, uses_anonymous_args = 0
 173              		@ link register save eliminated.
 174 0000 7047     		bx	lr
 175              		.cfi_endproc
 176              	.LFE3:
 177              		.size	USBUART_SOF_ISR, .-USBUART_SOF_ISR
 178 0002 00BF     		.section	.text.USBUART_BUS_RESET_ISR,"ax",%progbits
 179              		.align	2
 180              		.global	USBUART_BUS_RESET_ISR
 181              		.thumb
 182              		.thumb_func
 183              		.type	USBUART_BUS_RESET_ISR, %function
 184              	USBUART_BUS_RESET_ISR:
 185              	.LFB4:
 695:Generated_Source\PSoC5/USBUART_episr.c ****     #ifdef USBUART_SOF_ISR_ENTRY_CALLBACK
 696:Generated_Source\PSoC5/USBUART_episr.c ****         USBUART_SOF_ISR_EntryCallback();
 697:Generated_Source\PSoC5/USBUART_episr.c ****     #endif /* (USBUART_SOF_ISR_ENTRY_CALLBACK) */
 698:Generated_Source\PSoC5/USBUART_episr.c **** 
 699:Generated_Source\PSoC5/USBUART_episr.c ****         /* `#START SOF_USER_CODE` Place your code here */
 700:Generated_Source\PSoC5/USBUART_episr.c **** 
 701:Generated_Source\PSoC5/USBUART_episr.c ****         /* `#END` */
 702:Generated_Source\PSoC5/USBUART_episr.c **** 
 703:Generated_Source\PSoC5/USBUART_episr.c ****         USBUART_ClearSieInterruptSource(USBUART_INTR_SIE_SOF_INTR);
 704:Generated_Source\PSoC5/USBUART_episr.c **** 
 705:Generated_Source\PSoC5/USBUART_episr.c ****     #ifdef USBUART_SOF_ISR_EXIT_CALLBACK
 706:Generated_Source\PSoC5/USBUART_episr.c ****         USBUART_SOF_ISR_ExitCallback();
 707:Generated_Source\PSoC5/USBUART_episr.c ****     #endif /* (USBUART_SOF_ISR_EXIT_CALLBACK) */
 708:Generated_Source\PSoC5/USBUART_episr.c ****     }
 709:Generated_Source\PSoC5/USBUART_episr.c **** #endif /* (USBUART_SOF_ISR_ACTIVE) */
 710:Generated_Source\PSoC5/USBUART_episr.c **** 
 711:Generated_Source\PSoC5/USBUART_episr.c **** 
 712:Generated_Source\PSoC5/USBUART_episr.c **** #if (USBUART_BUS_RESET_ISR_ACTIVE)
 713:Generated_Source\PSoC5/USBUART_episr.c **** /*******************************************************************************
 714:Generated_Source\PSoC5/USBUART_episr.c **** * Function Name: USBUART_BUS_RESET_ISR
 715:Generated_Source\PSoC5/USBUART_episr.c **** ****************************************************************************//**
 716:Generated_Source\PSoC5/USBUART_episr.c **** *
 717:Generated_Source\PSoC5/USBUART_episr.c **** *  USB Bus Reset Interrupt Service Routine.  Calls _Start with the same
 718:Generated_Source\PSoC5/USBUART_episr.c **** *  parameters as the last USER call to _Start
 719:Generated_Source\PSoC5/USBUART_episr.c **** *
 720:Generated_Source\PSoC5/USBUART_episr.c **** *
 721:Generated_Source\PSoC5/USBUART_episr.c **** *******************************************************************************/
ARM GAS  C:\Users\ingan\AppData\Local\Temp\cc2prN0E.s 			page 17


 722:Generated_Source\PSoC5/USBUART_episr.c **** CY_ISR(USBUART_BUS_RESET_ISR)
 723:Generated_Source\PSoC5/USBUART_episr.c **** {
 186              		.loc 1 723 0
 187              		.cfi_startproc
 188              		@ args = 0, pretend = 0, frame = 0
 189              		@ frame_needed = 0, uses_anonymous_args = 0
 190              		@ link register save eliminated.
 724:Generated_Source\PSoC5/USBUART_episr.c **** #ifdef USBUART_BUS_RESET_ISR_ENTRY_CALLBACK
 725:Generated_Source\PSoC5/USBUART_episr.c ****     USBUART_BUS_RESET_ISR_EntryCallback();
 726:Generated_Source\PSoC5/USBUART_episr.c **** #endif /* (USBUART_BUS_RESET_ISR_ENTRY_CALLBACK) */
 727:Generated_Source\PSoC5/USBUART_episr.c **** 
 728:Generated_Source\PSoC5/USBUART_episr.c ****     /* `#START BUS_RESET_USER_CODE` Place your code here */
 729:Generated_Source\PSoC5/USBUART_episr.c **** 
 730:Generated_Source\PSoC5/USBUART_episr.c ****     /* `#END` */
 731:Generated_Source\PSoC5/USBUART_episr.c **** 
 732:Generated_Source\PSoC5/USBUART_episr.c ****     USBUART_ClearSieInterruptSource(USBUART_INTR_SIE_BUS_RESET_INTR);
 733:Generated_Source\PSoC5/USBUART_episr.c **** 
 734:Generated_Source\PSoC5/USBUART_episr.c ****     USBUART_ReInitComponent();
 191              		.loc 1 734 0
 192 0000 FFF7FEBF 		b	USBUART_ReInitComponent
 193              	.LVL0:
 194              		.cfi_endproc
 195              	.LFE4:
 196              		.size	USBUART_BUS_RESET_ISR, .-USBUART_BUS_RESET_ISR
 197              		.text
 198              	.Letext0:
 199              		.file 2 "Generated_Source\\PSoC5\\cytypes.h"
 200              		.file 3 "Generated_Source\\PSoC5\\USBUART.h"
 201              		.file 4 "Generated_Source\\PSoC5\\USBUART_pvt.h"