ARM GAS  C:\Users\ingan\AppData\Local\Temp\ccEP7IZL.s 			page 1


   1              		.syntax unified
   2              		.cpu cortex-m3
   3              		.fpu softvfp
   4              		.eabi_attribute 20, 1
   5              		.eabi_attribute 21, 1
   6              		.eabi_attribute 23, 3
   7              		.eabi_attribute 24, 1
   8              		.eabi_attribute 25, 1
   9              		.eabi_attribute 26, 1
  10              		.eabi_attribute 30, 2
  11              		.eabi_attribute 34, 1
  12              		.eabi_attribute 18, 4
  13              		.thumb
  14              		.syntax unified
  15              		.file	"USBUART_hid.c"
  16              		.text
  17              	.Ltext0:
  18              		.cfi_sections	.debug_frame
  19              		.section	.text.USBUART_UpdateHIDTimer,"ax",%progbits
  20              		.align	2
  21              		.global	USBUART_UpdateHIDTimer
  22              		.thumb
  23              		.thumb_func
  24              		.type	USBUART_UpdateHIDTimer, %function
  25              	USBUART_UpdateHIDTimer:
  26              	.LFB0:
  27              		.file 1 "Generated_Source\\PSoC5\\USBUART_hid.c"
   1:Generated_Source\PSoC5/USBUART_hid.c **** /***************************************************************************//**
   2:Generated_Source\PSoC5/USBUART_hid.c **** * \file USBUART_hid.c
   3:Generated_Source\PSoC5/USBUART_hid.c **** * \version 3.10
   4:Generated_Source\PSoC5/USBUART_hid.c **** *
   5:Generated_Source\PSoC5/USBUART_hid.c **** * \brief
   6:Generated_Source\PSoC5/USBUART_hid.c **** *  This file contains the USB HID Class request handler. 
   7:Generated_Source\PSoC5/USBUART_hid.c **** *
   8:Generated_Source\PSoC5/USBUART_hid.c **** * Related Document:
   9:Generated_Source\PSoC5/USBUART_hid.c **** *  Device Class Definition for Human Interface Devices (HID) Version 1.11
  10:Generated_Source\PSoC5/USBUART_hid.c **** *
  11:Generated_Source\PSoC5/USBUART_hid.c **** ********************************************************************************
  12:Generated_Source\PSoC5/USBUART_hid.c **** * \copyright
  13:Generated_Source\PSoC5/USBUART_hid.c **** * Copyright 2008-2016, Cypress Semiconductor Corporation.  All rights reserved.
  14:Generated_Source\PSoC5/USBUART_hid.c **** * You may use this file only in accordance with the license, terms, conditions,
  15:Generated_Source\PSoC5/USBUART_hid.c **** * disclaimers, and limitations in the end user license agreement accompanying
  16:Generated_Source\PSoC5/USBUART_hid.c **** * the software package with which this file was provided.
  17:Generated_Source\PSoC5/USBUART_hid.c **** *******************************************************************************/
  18:Generated_Source\PSoC5/USBUART_hid.c **** 
  19:Generated_Source\PSoC5/USBUART_hid.c **** #include "USBUART_hid.h"
  20:Generated_Source\PSoC5/USBUART_hid.c **** #include "USBUART_pvt.h"
  21:Generated_Source\PSoC5/USBUART_hid.c **** #include "cyapicallbacks.h"
  22:Generated_Source\PSoC5/USBUART_hid.c **** 
  23:Generated_Source\PSoC5/USBUART_hid.c **** 
  24:Generated_Source\PSoC5/USBUART_hid.c **** #if defined(USBUART_ENABLE_HID_CLASS)
  25:Generated_Source\PSoC5/USBUART_hid.c **** 
  26:Generated_Source\PSoC5/USBUART_hid.c **** /***************************************
  27:Generated_Source\PSoC5/USBUART_hid.c **** *    HID Variables
  28:Generated_Source\PSoC5/USBUART_hid.c **** ***************************************/
  29:Generated_Source\PSoC5/USBUART_hid.c **** /** This variable is initialized in the USBFS_InitComponent() API to the 
  30:Generated_Source\PSoC5/USBUART_hid.c ****  * PROTOCOL_REPORT value. It is controlled by the host using the 
ARM GAS  C:\Users\ingan\AppData\Local\Temp\ccEP7IZL.s 			page 2


  31:Generated_Source\PSoC5/USBUART_hid.c ****  * HID_SET_PROTOCOL request. The value is returned to the user code by the 
  32:Generated_Source\PSoC5/USBUART_hid.c ****  * USBFS_GetProtocol() API.*/
  33:Generated_Source\PSoC5/USBUART_hid.c **** volatile uint8 USBUART_hidProtocol[USBUART_MAX_INTERFACES_NUMBER];
  34:Generated_Source\PSoC5/USBUART_hid.c **** 
  35:Generated_Source\PSoC5/USBUART_hid.c **** /** This variable controls the HID report rate. It is controlled by the host 
  36:Generated_Source\PSoC5/USBUART_hid.c ****  * using the HID_SET_IDLE request and used by the USBFS_UpdateHIDTimer() API to 
  37:Generated_Source\PSoC5/USBUART_hid.c ****  * reload timer.*/
  38:Generated_Source\PSoC5/USBUART_hid.c **** volatile uint8 USBUART_hidIdleRate[USBUART_MAX_INTERFACES_NUMBER];
  39:Generated_Source\PSoC5/USBUART_hid.c **** 
  40:Generated_Source\PSoC5/USBUART_hid.c **** /** This variable contains the timer counter, which is decremented and reloaded 
  41:Generated_Source\PSoC5/USBUART_hid.c ****  * by the USBFS_UpdateHIDTimer() API.*/
  42:Generated_Source\PSoC5/USBUART_hid.c **** volatile uint8 USBUART_hidIdleTimer[USBUART_MAX_INTERFACES_NUMBER]; /* HID device idle rate value *
  43:Generated_Source\PSoC5/USBUART_hid.c **** 
  44:Generated_Source\PSoC5/USBUART_hid.c **** 
  45:Generated_Source\PSoC5/USBUART_hid.c **** /***************************************
  46:Generated_Source\PSoC5/USBUART_hid.c **** * Custom Declarations
  47:Generated_Source\PSoC5/USBUART_hid.c **** ***************************************/
  48:Generated_Source\PSoC5/USBUART_hid.c **** 
  49:Generated_Source\PSoC5/USBUART_hid.c **** /* `#START HID_CUSTOM_DECLARATIONS` Place your declaration here */
  50:Generated_Source\PSoC5/USBUART_hid.c **** 
  51:Generated_Source\PSoC5/USBUART_hid.c **** /* `#END` */
  52:Generated_Source\PSoC5/USBUART_hid.c **** 
  53:Generated_Source\PSoC5/USBUART_hid.c **** 
  54:Generated_Source\PSoC5/USBUART_hid.c **** /*******************************************************************************
  55:Generated_Source\PSoC5/USBUART_hid.c **** * Function Name: USBUART_UpdateHIDTimer
  56:Generated_Source\PSoC5/USBUART_hid.c **** ****************************************************************************//**
  57:Generated_Source\PSoC5/USBUART_hid.c **** *
  58:Generated_Source\PSoC5/USBUART_hid.c **** *  This function updates the HID Report idle timer and returns the status and 
  59:Generated_Source\PSoC5/USBUART_hid.c **** *  reloads the timer if it expires.
  60:Generated_Source\PSoC5/USBUART_hid.c **** *
  61:Generated_Source\PSoC5/USBUART_hid.c **** *  \param interface Contains the interface number.
  62:Generated_Source\PSoC5/USBUART_hid.c **** *
  63:Generated_Source\PSoC5/USBUART_hid.c **** * \return
  64:Generated_Source\PSoC5/USBUART_hid.c **** *  Returns the state of the HID timer. Symbolic names and their associated values are given here:
  65:Generated_Source\PSoC5/USBUART_hid.c **** *  Return Value               |Notes
  66:Generated_Source\PSoC5/USBUART_hid.c **** *  ---------------------------|------------------------------------------------
  67:Generated_Source\PSoC5/USBUART_hid.c **** *  USBFS_IDLE_TIMER_EXPIRED   | The timer expired.
  68:Generated_Source\PSoC5/USBUART_hid.c **** *  USBFS_IDLE_TIMER_RUNNING   | The timer is running.
  69:Generated_Source\PSoC5/USBUART_hid.c **** *  USBFS_IDLE_TIMER_IDEFINITE | The report is sent when data or state changes.
  70:Generated_Source\PSoC5/USBUART_hid.c **** *
  71:Generated_Source\PSoC5/USBUART_hid.c **** *
  72:Generated_Source\PSoC5/USBUART_hid.c **** * \reentrant
  73:Generated_Source\PSoC5/USBUART_hid.c **** *  No.
  74:Generated_Source\PSoC5/USBUART_hid.c **** *
  75:Generated_Source\PSoC5/USBUART_hid.c **** *******************************************************************************/
  76:Generated_Source\PSoC5/USBUART_hid.c **** uint8 USBUART_UpdateHIDTimer(uint8 interface) 
  77:Generated_Source\PSoC5/USBUART_hid.c **** {
  28              		.loc 1 77 0
  29              		.cfi_startproc
  30              		@ args = 0, pretend = 0, frame = 0
  31              		@ frame_needed = 0, uses_anonymous_args = 0
  32              		@ link register save eliminated.
  33              	.LVL0:
  34 0000 10B4     		push	{r4}
  35              		.cfi_def_cfa_offset 4
  36              		.cfi_offset 4, -4
  78:Generated_Source\PSoC5/USBUART_hid.c ****     uint8 stat = USBUART_IDLE_TIMER_INDEFINITE;
ARM GAS  C:\Users\ingan\AppData\Local\Temp\ccEP7IZL.s 			page 3


  79:Generated_Source\PSoC5/USBUART_hid.c **** 
  80:Generated_Source\PSoC5/USBUART_hid.c ****     if(USBUART_hidIdleRate[interface] != 0u)
  37              		.loc 1 80 0
  38 0002 0B4C     		ldr	r4, .L7
  77:Generated_Source\PSoC5/USBUART_hid.c ****     uint8 stat = USBUART_IDLE_TIMER_INDEFINITE;
  39              		.loc 1 77 0
  40 0004 0346     		mov	r3, r0
  41              		.loc 1 80 0
  42 0006 225C     		ldrb	r2, [r4, r0]	@ zero_extendqisi2
  43 0008 02F0FF00 		and	r0, r2, #255
  44              	.LVL1:
  45 000c 3AB1     		cbz	r2, .L2
  81:Generated_Source\PSoC5/USBUART_hid.c ****     {
  82:Generated_Source\PSoC5/USBUART_hid.c ****         if(USBUART_hidIdleTimer[interface] > 0u)
  46              		.loc 1 82 0
  47 000e 0949     		ldr	r1, .L7+4
  48 0010 CA5C     		ldrb	r2, [r1, r3]	@ zero_extendqisi2
  49 0012 32B1     		cbz	r2, .L3
  83:Generated_Source\PSoC5/USBUART_hid.c ****         {
  84:Generated_Source\PSoC5/USBUART_hid.c ****             USBUART_hidIdleTimer[interface]--;
  50              		.loc 1 84 0
  51 0014 CA5C     		ldrb	r2, [r1, r3]	@ zero_extendqisi2
  85:Generated_Source\PSoC5/USBUART_hid.c ****             stat = USBUART_IDLE_TIMER_RUNNING;
  52              		.loc 1 85 0
  53 0016 0220     		movs	r0, #2
  84:Generated_Source\PSoC5/USBUART_hid.c ****             stat = USBUART_IDLE_TIMER_RUNNING;
  54              		.loc 1 84 0
  55 0018 013A     		subs	r2, r2, #1
  56 001a D2B2     		uxtb	r2, r2
  57 001c CA54     		strb	r2, [r1, r3]
  58              	.LVL2:
  59              	.L2:
  86:Generated_Source\PSoC5/USBUART_hid.c ****         }
  87:Generated_Source\PSoC5/USBUART_hid.c ****         else
  88:Generated_Source\PSoC5/USBUART_hid.c ****         {
  89:Generated_Source\PSoC5/USBUART_hid.c ****             USBUART_hidIdleTimer[interface] = USBUART_hidIdleRate[interface];
  90:Generated_Source\PSoC5/USBUART_hid.c ****             stat = USBUART_IDLE_TIMER_EXPIRED;
  91:Generated_Source\PSoC5/USBUART_hid.c ****         }
  92:Generated_Source\PSoC5/USBUART_hid.c ****     }
  93:Generated_Source\PSoC5/USBUART_hid.c **** 
  94:Generated_Source\PSoC5/USBUART_hid.c ****     return((uint8)stat);
  95:Generated_Source\PSoC5/USBUART_hid.c **** }
  60              		.loc 1 95 0
  61 001e 10BC     		pop	{r4}
  62              		.cfi_remember_state
  63              		.cfi_restore 4
  64              		.cfi_def_cfa_offset 0
  65 0020 7047     		bx	lr
  66              	.LVL3:
  67              	.L3:
  68              		.cfi_restore_state
  89:Generated_Source\PSoC5/USBUART_hid.c ****             stat = USBUART_IDLE_TIMER_EXPIRED;
  69              		.loc 1 89 0
  70 0022 E25C     		ldrb	r2, [r4, r3]	@ zero_extendqisi2
  90:Generated_Source\PSoC5/USBUART_hid.c ****         }
  71              		.loc 1 90 0
  72 0024 0120     		movs	r0, #1
ARM GAS  C:\Users\ingan\AppData\Local\Temp\ccEP7IZL.s 			page 4


  89:Generated_Source\PSoC5/USBUART_hid.c ****             stat = USBUART_IDLE_TIMER_EXPIRED;
  73              		.loc 1 89 0
  74 0026 D2B2     		uxtb	r2, r2
  75 0028 CA54     		strb	r2, [r1, r3]
  76              	.LVL4:
  77              		.loc 1 95 0
  78 002a 10BC     		pop	{r4}
  79              		.cfi_restore 4
  80              		.cfi_def_cfa_offset 0
  81 002c 7047     		bx	lr
  82              	.L8:
  83 002e 00BF     		.align	2
  84              	.L7:
  85 0030 00000000 		.word	USBUART_hidIdleRate
  86 0034 00000000 		.word	USBUART_hidIdleTimer
  87              		.cfi_endproc
  88              	.LFE0:
  89              		.size	USBUART_UpdateHIDTimer, .-USBUART_UpdateHIDTimer
  90              		.section	.text.USBUART_GetProtocol,"ax",%progbits
  91              		.align	2
  92              		.global	USBUART_GetProtocol
  93              		.thumb
  94              		.thumb_func
  95              		.type	USBUART_GetProtocol, %function
  96              	USBUART_GetProtocol:
  97              	.LFB1:
  96:Generated_Source\PSoC5/USBUART_hid.c **** 
  97:Generated_Source\PSoC5/USBUART_hid.c **** 
  98:Generated_Source\PSoC5/USBUART_hid.c **** /*******************************************************************************
  99:Generated_Source\PSoC5/USBUART_hid.c **** * Function Name: USBUART_GetProtocol
 100:Generated_Source\PSoC5/USBUART_hid.c **** ****************************************************************************//**
 101:Generated_Source\PSoC5/USBUART_hid.c **** *
 102:Generated_Source\PSoC5/USBUART_hid.c **** *  This function returns the HID protocol value for the selected interface.
 103:Generated_Source\PSoC5/USBUART_hid.c **** *
 104:Generated_Source\PSoC5/USBUART_hid.c **** *  \param interface:  Contains the interface number.
 105:Generated_Source\PSoC5/USBUART_hid.c **** *
 106:Generated_Source\PSoC5/USBUART_hid.c **** *  \return
 107:Generated_Source\PSoC5/USBUART_hid.c **** *  Returns the protocol value. 
 108:Generated_Source\PSoC5/USBUART_hid.c **** *
 109:Generated_Source\PSoC5/USBUART_hid.c **** *******************************************************************************/
 110:Generated_Source\PSoC5/USBUART_hid.c **** uint8 USBUART_GetProtocol(uint8 interface) 
 111:Generated_Source\PSoC5/USBUART_hid.c **** {
  98              		.loc 1 111 0
  99              		.cfi_startproc
 100              		@ args = 0, pretend = 0, frame = 0
 101              		@ frame_needed = 0, uses_anonymous_args = 0
 102              		@ link register save eliminated.
 103              	.LVL5:
 112:Generated_Source\PSoC5/USBUART_hid.c ****     return(USBUART_hidProtocol[interface]);
 104              		.loc 1 112 0
 105 0000 014B     		ldr	r3, .L10
 106 0002 185C     		ldrb	r0, [r3, r0]	@ zero_extendqisi2
 107              	.LVL6:
 113:Generated_Source\PSoC5/USBUART_hid.c **** }
 108              		.loc 1 113 0
 109 0004 7047     		bx	lr
 110              	.L11:
ARM GAS  C:\Users\ingan\AppData\Local\Temp\ccEP7IZL.s 			page 5


 111 0006 00BF     		.align	2
 112              	.L10:
 113 0008 00000000 		.word	USBUART_hidProtocol
 114              		.cfi_endproc
 115              	.LFE1:
 116              		.size	USBUART_GetProtocol, .-USBUART_GetProtocol
 117              		.section	.text.USBUART_DispatchHIDClassRqst,"ax",%progbits
 118              		.align	2
 119              		.global	USBUART_DispatchHIDClassRqst
 120              		.thumb
 121              		.thumb_func
 122              		.type	USBUART_DispatchHIDClassRqst, %function
 123              	USBUART_DispatchHIDClassRqst:
 124              	.LFB2:
 114:Generated_Source\PSoC5/USBUART_hid.c **** 
 115:Generated_Source\PSoC5/USBUART_hid.c **** 
 116:Generated_Source\PSoC5/USBUART_hid.c **** /*******************************************************************************
 117:Generated_Source\PSoC5/USBUART_hid.c **** * Function Name: USBUART_DispatchHIDClassRqst
 118:Generated_Source\PSoC5/USBUART_hid.c **** ****************************************************************************//**
 119:Generated_Source\PSoC5/USBUART_hid.c **** *
 120:Generated_Source\PSoC5/USBUART_hid.c **** *  This routine dispatches class requests
 121:Generated_Source\PSoC5/USBUART_hid.c **** *
 122:Generated_Source\PSoC5/USBUART_hid.c **** * \return
 123:Generated_Source\PSoC5/USBUART_hid.c **** *  Results of HID Class request handling: 
 124:Generated_Source\PSoC5/USBUART_hid.c **** *  - USBUART_TRUE  - request was handled without errors
 125:Generated_Source\PSoC5/USBUART_hid.c **** *  - USBUART_FALSE - error occurs during handling of request  
 126:Generated_Source\PSoC5/USBUART_hid.c **** *
 127:Generated_Source\PSoC5/USBUART_hid.c **** * \reentrant
 128:Generated_Source\PSoC5/USBUART_hid.c **** *  No.
 129:Generated_Source\PSoC5/USBUART_hid.c **** *
 130:Generated_Source\PSoC5/USBUART_hid.c **** *******************************************************************************/
 131:Generated_Source\PSoC5/USBUART_hid.c **** uint8 USBUART_DispatchHIDClassRqst(void) 
 132:Generated_Source\PSoC5/USBUART_hid.c **** {
 125              		.loc 1 132 0
 126              		.cfi_startproc
 127              		@ args = 0, pretend = 0, frame = 0
 128              		@ frame_needed = 0, uses_anonymous_args = 0
 129              	.LVL7:
 130 0000 70B5     		push	{r4, r5, r6, lr}
 131              		.cfi_def_cfa_offset 16
 132              		.cfi_offset 4, -16
 133              		.cfi_offset 5, -12
 134              		.cfi_offset 6, -8
 135              		.cfi_offset 14, -4
 133:Generated_Source\PSoC5/USBUART_hid.c ****     uint8 requestHandled = USBUART_FALSE;
 134:Generated_Source\PSoC5/USBUART_hid.c **** 
 135:Generated_Source\PSoC5/USBUART_hid.c ****     uint8 interfaceNumber = (uint8) USBUART_wIndexLoReg;
 136              		.loc 1 135 0
 137 0002 8C4C     		ldr	r4, .L51
 138 0004 2279     		ldrb	r2, [r4, #4]	@ zero_extendqisi2
 136:Generated_Source\PSoC5/USBUART_hid.c ****     
 137:Generated_Source\PSoC5/USBUART_hid.c ****     /* Check request direction: D2H or H2D. */
 138:Generated_Source\PSoC5/USBUART_hid.c ****     if (0u != (USBUART_bmRequestTypeReg & USBUART_RQST_DIR_D2H))
 139              		.loc 1 138 0
 140 0006 2378     		ldrb	r3, [r4]	@ zero_extendqisi2
 135:Generated_Source\PSoC5/USBUART_hid.c ****     
 141              		.loc 1 135 0
ARM GAS  C:\Users\ingan\AppData\Local\Temp\ccEP7IZL.s 			page 6


 142 0008 D2B2     		uxtb	r2, r2
 143              	.LVL8:
 144              		.loc 1 138 0
 145 000a 13F0800F 		tst	r3, #128
 139:Generated_Source\PSoC5/USBUART_hid.c ****     {
 140:Generated_Source\PSoC5/USBUART_hid.c ****         /* Handle direction from device to host. */
 141:Generated_Source\PSoC5/USBUART_hid.c ****         
 142:Generated_Source\PSoC5/USBUART_hid.c ****         switch (USBUART_bRequestReg)
 146              		.loc 1 142 0
 147 000e 6378     		ldrb	r3, [r4, #1]	@ zero_extendqisi2
 138:Generated_Source\PSoC5/USBUART_hid.c ****     {
 148              		.loc 1 138 0
 149 0010 09D1     		bne	.L46
 143:Generated_Source\PSoC5/USBUART_hid.c ****         {
 144:Generated_Source\PSoC5/USBUART_hid.c ****             case USBUART_GET_DESCRIPTOR:
 145:Generated_Source\PSoC5/USBUART_hid.c ****                 if (USBUART_wValueHiReg == USBUART_DESCR_HID_CLASS)
 146:Generated_Source\PSoC5/USBUART_hid.c ****                 {
 147:Generated_Source\PSoC5/USBUART_hid.c ****                     USBUART_FindHidClassDecriptor();
 148:Generated_Source\PSoC5/USBUART_hid.c ****                     if (USBUART_currentTD.count != 0u)
 149:Generated_Source\PSoC5/USBUART_hid.c ****                     {
 150:Generated_Source\PSoC5/USBUART_hid.c ****                         requestHandled = USBUART_InitControlRead();
 151:Generated_Source\PSoC5/USBUART_hid.c ****                     }
 152:Generated_Source\PSoC5/USBUART_hid.c ****                 }
 153:Generated_Source\PSoC5/USBUART_hid.c ****                 else if (USBUART_wValueHiReg == USBUART_DESCR_HID_REPORT)
 154:Generated_Source\PSoC5/USBUART_hid.c ****                 {
 155:Generated_Source\PSoC5/USBUART_hid.c ****                     USBUART_FindReportDescriptor();
 156:Generated_Source\PSoC5/USBUART_hid.c ****                     if (USBUART_currentTD.count != 0u)
 157:Generated_Source\PSoC5/USBUART_hid.c ****                     {
 158:Generated_Source\PSoC5/USBUART_hid.c ****                         requestHandled = USBUART_InitControlRead();
 159:Generated_Source\PSoC5/USBUART_hid.c ****                     }
 160:Generated_Source\PSoC5/USBUART_hid.c ****                 }
 161:Generated_Source\PSoC5/USBUART_hid.c ****                 else
 162:Generated_Source\PSoC5/USBUART_hid.c ****                 {   
 163:Generated_Source\PSoC5/USBUART_hid.c ****                     /* Do not handle this request. */
 164:Generated_Source\PSoC5/USBUART_hid.c ****                 }
 165:Generated_Source\PSoC5/USBUART_hid.c ****                 break;
 166:Generated_Source\PSoC5/USBUART_hid.c ****                 
 167:Generated_Source\PSoC5/USBUART_hid.c ****             case USBUART_HID_GET_REPORT:
 168:Generated_Source\PSoC5/USBUART_hid.c ****                 USBUART_FindReport();
 169:Generated_Source\PSoC5/USBUART_hid.c ****                 if (USBUART_currentTD.count != 0u)
 170:Generated_Source\PSoC5/USBUART_hid.c ****                 {
 171:Generated_Source\PSoC5/USBUART_hid.c ****                     requestHandled = USBUART_InitControlRead();
 172:Generated_Source\PSoC5/USBUART_hid.c ****                 }
 173:Generated_Source\PSoC5/USBUART_hid.c ****                 break;
 174:Generated_Source\PSoC5/USBUART_hid.c **** 
 175:Generated_Source\PSoC5/USBUART_hid.c ****             case USBUART_HID_GET_IDLE:
 176:Generated_Source\PSoC5/USBUART_hid.c ****                 /* This function does not support multiple reports per interface*/
 177:Generated_Source\PSoC5/USBUART_hid.c ****                 /* Validate interfaceNumber and Report ID (should be 0): Do not support Idle per Re
 178:Generated_Source\PSoC5/USBUART_hid.c ****                 if ((interfaceNumber < USBUART_MAX_INTERFACES_NUMBER) && (USBUART_wValueLoReg == 0u
 179:Generated_Source\PSoC5/USBUART_hid.c ****                 {
 180:Generated_Source\PSoC5/USBUART_hid.c ****                     USBUART_currentTD.count = 1u;
 181:Generated_Source\PSoC5/USBUART_hid.c ****                     USBUART_currentTD.pData = &USBUART_hidIdleRate[interfaceNumber];
 182:Generated_Source\PSoC5/USBUART_hid.c ****                     requestHandled  = USBUART_InitControlRead();
 183:Generated_Source\PSoC5/USBUART_hid.c ****                 }
 184:Generated_Source\PSoC5/USBUART_hid.c ****                 break;
 185:Generated_Source\PSoC5/USBUART_hid.c ****                 
 186:Generated_Source\PSoC5/USBUART_hid.c ****             case USBUART_HID_GET_PROTOCOL:
ARM GAS  C:\Users\ingan\AppData\Local\Temp\ccEP7IZL.s 			page 7


 187:Generated_Source\PSoC5/USBUART_hid.c ****                 /* Validate interfaceNumber */
 188:Generated_Source\PSoC5/USBUART_hid.c ****                 if( interfaceNumber < USBUART_MAX_INTERFACES_NUMBER)
 189:Generated_Source\PSoC5/USBUART_hid.c ****                 {
 190:Generated_Source\PSoC5/USBUART_hid.c ****                     USBUART_currentTD.count = 1u;
 191:Generated_Source\PSoC5/USBUART_hid.c ****                     USBUART_currentTD.pData = &USBUART_hidProtocol[interfaceNumber];
 192:Generated_Source\PSoC5/USBUART_hid.c ****                     requestHandled  = USBUART_InitControlRead();
 193:Generated_Source\PSoC5/USBUART_hid.c ****                 }
 194:Generated_Source\PSoC5/USBUART_hid.c ****                 break;
 195:Generated_Source\PSoC5/USBUART_hid.c ****                 
 196:Generated_Source\PSoC5/USBUART_hid.c ****             default:    /* requestHandled is initialized as FALSE by default */
 197:Generated_Source\PSoC5/USBUART_hid.c ****                 break;
 198:Generated_Source\PSoC5/USBUART_hid.c ****         }
 199:Generated_Source\PSoC5/USBUART_hid.c ****     }
 200:Generated_Source\PSoC5/USBUART_hid.c ****     else
 201:Generated_Source\PSoC5/USBUART_hid.c ****     {   
 202:Generated_Source\PSoC5/USBUART_hid.c ****         /* Handle direction from host to device. */
 203:Generated_Source\PSoC5/USBUART_hid.c ****         
 204:Generated_Source\PSoC5/USBUART_hid.c ****         switch (USBUART_bRequestReg)
 150              		.loc 1 204 0
 151 0012 DBB2     		uxtb	r3, r3
 152 0014 0A2B     		cmp	r3, #10
 153 0016 00F08E80 		beq	.L24
 154 001a 0B2B     		cmp	r3, #11
 155 001c 16D0     		beq	.L25
 156 001e 092B     		cmp	r3, #9
 157 0020 71D0     		beq	.L47
 158              	.LVL9:
 159              	.L14:
 205:Generated_Source\PSoC5/USBUART_hid.c ****         {
 206:Generated_Source\PSoC5/USBUART_hid.c ****             case USBUART_HID_SET_REPORT:
 207:Generated_Source\PSoC5/USBUART_hid.c ****                 USBUART_FindReport();
 208:Generated_Source\PSoC5/USBUART_hid.c ****                 if (USBUART_currentTD.count != 0u)
 209:Generated_Source\PSoC5/USBUART_hid.c ****                 {
 210:Generated_Source\PSoC5/USBUART_hid.c ****                     requestHandled = USBUART_InitControlWrite();
 211:Generated_Source\PSoC5/USBUART_hid.c ****                 }
 212:Generated_Source\PSoC5/USBUART_hid.c ****                 break;
 213:Generated_Source\PSoC5/USBUART_hid.c ****                 
 214:Generated_Source\PSoC5/USBUART_hid.c ****             case USBUART_HID_SET_IDLE:
 215:Generated_Source\PSoC5/USBUART_hid.c ****                 /* This function does not support multiple reports per interface */
 216:Generated_Source\PSoC5/USBUART_hid.c ****                 /* Validate interfaceNumber and Report ID (should be 0): Do not support Idle per Re
 217:Generated_Source\PSoC5/USBUART_hid.c ****                 if ((interfaceNumber < USBUART_MAX_INTERFACES_NUMBER) && (USBUART_wValueLoReg == 0u
 218:Generated_Source\PSoC5/USBUART_hid.c ****                 {
 219:Generated_Source\PSoC5/USBUART_hid.c ****                     USBUART_hidIdleRate[interfaceNumber] = (uint8)USBUART_wValueHiReg;
 220:Generated_Source\PSoC5/USBUART_hid.c ****                     /* With regards to HID spec: "7.2.4 Set_Idle Request"
 221:Generated_Source\PSoC5/USBUART_hid.c ****                     *  Latency. If the current period has gone past the
 222:Generated_Source\PSoC5/USBUART_hid.c ****                     *  newly proscribed time duration, then a report
 223:Generated_Source\PSoC5/USBUART_hid.c ****                     *  will be generated immediately.
 224:Generated_Source\PSoC5/USBUART_hid.c ****                     */
 225:Generated_Source\PSoC5/USBUART_hid.c ****                     if(USBUART_hidIdleRate[interfaceNumber] <
 226:Generated_Source\PSoC5/USBUART_hid.c ****                        USBUART_hidIdleTimer[interfaceNumber])
 227:Generated_Source\PSoC5/USBUART_hid.c ****                     {
 228:Generated_Source\PSoC5/USBUART_hid.c ****                         /* Set the timer to zero and let the UpdateHIDTimer() API return IDLE_TIMER
 229:Generated_Source\PSoC5/USBUART_hid.c ****                         USBUART_hidIdleTimer[interfaceNumber] = 0u;
 230:Generated_Source\PSoC5/USBUART_hid.c ****                     }
 231:Generated_Source\PSoC5/USBUART_hid.c ****                     /* If the new request is received within 4 milliseconds
 232:Generated_Source\PSoC5/USBUART_hid.c ****                     *  (1 count) of the end of the current period, then the
 233:Generated_Source\PSoC5/USBUART_hid.c ****                     *  new request will have no effect until after the report.
ARM GAS  C:\Users\ingan\AppData\Local\Temp\ccEP7IZL.s 			page 8


 234:Generated_Source\PSoC5/USBUART_hid.c ****                     */
 235:Generated_Source\PSoC5/USBUART_hid.c ****                     else if(USBUART_hidIdleTimer[interfaceNumber] <= 1u)
 236:Generated_Source\PSoC5/USBUART_hid.c ****                     {
 237:Generated_Source\PSoC5/USBUART_hid.c ****                         /* Do nothing.
 238:Generated_Source\PSoC5/USBUART_hid.c ****                         *  Let the UpdateHIDTimer() API continue to work and
 239:Generated_Source\PSoC5/USBUART_hid.c ****                         *  return IDLE_TIMER_EXPIRED status
 240:Generated_Source\PSoC5/USBUART_hid.c ****                         */
 241:Generated_Source\PSoC5/USBUART_hid.c ****                     }
 242:Generated_Source\PSoC5/USBUART_hid.c ****                     else
 243:Generated_Source\PSoC5/USBUART_hid.c ****                     {   /* Reload the timer*/
 244:Generated_Source\PSoC5/USBUART_hid.c ****                         USBUART_hidIdleTimer[interfaceNumber] =
 245:Generated_Source\PSoC5/USBUART_hid.c ****                         USBUART_hidIdleRate[interfaceNumber];
 246:Generated_Source\PSoC5/USBUART_hid.c ****                     }
 247:Generated_Source\PSoC5/USBUART_hid.c ****                     requestHandled = USBUART_InitNoDataControlTransfer();
 248:Generated_Source\PSoC5/USBUART_hid.c ****                 }
 249:Generated_Source\PSoC5/USBUART_hid.c ****                 break;
 250:Generated_Source\PSoC5/USBUART_hid.c **** 
 251:Generated_Source\PSoC5/USBUART_hid.c ****             case USBUART_HID_SET_PROTOCOL:
 252:Generated_Source\PSoC5/USBUART_hid.c ****                 /* Validate interfaceNumber and protocol (must be 0 or 1) */
 253:Generated_Source\PSoC5/USBUART_hid.c ****                 if ((interfaceNumber < USBUART_MAX_INTERFACES_NUMBER) && (USBUART_wValueLoReg <= 1u
 254:Generated_Source\PSoC5/USBUART_hid.c ****                 {
 255:Generated_Source\PSoC5/USBUART_hid.c ****                     USBUART_hidProtocol[interfaceNumber] = (uint8)USBUART_wValueLoReg;
 256:Generated_Source\PSoC5/USBUART_hid.c ****                     requestHandled = USBUART_InitNoDataControlTransfer();
 257:Generated_Source\PSoC5/USBUART_hid.c ****                 }
 258:Generated_Source\PSoC5/USBUART_hid.c ****                 break;
 259:Generated_Source\PSoC5/USBUART_hid.c ****             
 260:Generated_Source\PSoC5/USBUART_hid.c ****             default:    
 261:Generated_Source\PSoC5/USBUART_hid.c ****                 /* Unknown class request is not handled. */
 262:Generated_Source\PSoC5/USBUART_hid.c ****                 break;
 263:Generated_Source\PSoC5/USBUART_hid.c ****         }
 264:Generated_Source\PSoC5/USBUART_hid.c ****     }
 265:Generated_Source\PSoC5/USBUART_hid.c **** 
 266:Generated_Source\PSoC5/USBUART_hid.c ****     return (requestHandled);
 267:Generated_Source\PSoC5/USBUART_hid.c **** }
 160              		.loc 1 267 0
 161 0022 0020     		movs	r0, #0
 162 0024 70BD     		pop	{r4, r5, r6, pc}
 163              	.LVL10:
 164              	.L46:
 142:Generated_Source\PSoC5/USBUART_hid.c ****         {
 165              		.loc 1 142 0
 166 0026 013B     		subs	r3, r3, #1
 167 0028 052B     		cmp	r3, #5
 168 002a FAD8     		bhi	.L14
 169 002c 01A1     		adr	r1, .L16
 170 002e 51F823F0 		ldr	pc, [r1, r3, lsl #2]
 171 0032 00BF     		.p2align 2
 172              	.L16:
 173 0034 DD000000 		.word	.L15+1
 174 0038 C3000000 		.word	.L17+1
 175 003c BB000000 		.word	.L18+1
 176 0040 23000000 		.word	.L14+1
 177 0044 23000000 		.word	.L14+1
 178 0048 67000000 		.word	.L19+1
 179              		.p2align 1
 180              	.L25:
 253:Generated_Source\PSoC5/USBUART_hid.c ****                 {
ARM GAS  C:\Users\ingan\AppData\Local\Temp\ccEP7IZL.s 			page 9


 181              		.loc 1 253 0
 182 004c 012A     		cmp	r2, #1
 183 004e E8D8     		bhi	.L14
 253:Generated_Source\PSoC5/USBUART_hid.c ****                 {
 184              		.loc 1 253 0 is_stmt 0 discriminator 1
 185 0050 A378     		ldrb	r3, [r4, #2]	@ zero_extendqisi2
 186 0052 012B     		cmp	r3, #1
 187 0054 E5D8     		bhi	.L14
 255:Generated_Source\PSoC5/USBUART_hid.c ****                     requestHandled = USBUART_InitNoDataControlTransfer();
 188              		.loc 1 255 0 is_stmt 1
 189 0056 A378     		ldrb	r3, [r4, #2]	@ zero_extendqisi2
 190 0058 7749     		ldr	r1, .L51+4
 191 005a DBB2     		uxtb	r3, r3
 192 005c 8B54     		strb	r3, [r1, r2]
 193              		.loc 1 267 0
 194 005e BDE87040 		pop	{r4, r5, r6, lr}
 195              		.cfi_remember_state
 196              		.cfi_restore 14
 197              		.cfi_restore 6
 198              		.cfi_restore 5
 199              		.cfi_restore 4
 200              		.cfi_def_cfa_offset 0
 256:Generated_Source\PSoC5/USBUART_hid.c ****                 }
 201              		.loc 1 256 0
 202 0062 FFF7FEBF 		b	USBUART_InitNoDataControlTransfer
 203              	.LVL11:
 204              	.L19:
 205              		.cfi_restore_state
 145:Generated_Source\PSoC5/USBUART_hid.c ****                 {
 206              		.loc 1 145 0
 207 0066 734C     		ldr	r4, .L51
 208 0068 E378     		ldrb	r3, [r4, #3]	@ zero_extendqisi2
 209 006a 212B     		cmp	r3, #33
 210 006c 00F0C080 		beq	.L48
 153:Generated_Source\PSoC5/USBUART_hid.c ****                 {
 211              		.loc 1 153 0
 212 0070 E378     		ldrb	r3, [r4, #3]	@ zero_extendqisi2
 213 0072 222B     		cmp	r3, #34
 214 0074 D5D1     		bne	.L14
 215              	.LBB10:
 216              	.LBB11:
 268:Generated_Source\PSoC5/USBUART_hid.c **** 
 269:Generated_Source\PSoC5/USBUART_hid.c **** 
 270:Generated_Source\PSoC5/USBUART_hid.c **** /*******************************************************************************
 271:Generated_Source\PSoC5/USBUART_hid.c **** * Function Name: USB_FindHidClassDescriptor
 272:Generated_Source\PSoC5/USBUART_hid.c **** ****************************************************************************//**
 273:Generated_Source\PSoC5/USBUART_hid.c **** *
 274:Generated_Source\PSoC5/USBUART_hid.c **** *  This routine find Hid Class Descriptor pointer based on the Interface number
 275:Generated_Source\PSoC5/USBUART_hid.c **** *  and Alternate setting then loads the currentTD structure with the address of
 276:Generated_Source\PSoC5/USBUART_hid.c **** *  the buffer and the size.
 277:Generated_Source\PSoC5/USBUART_hid.c **** *  The HID Class Descriptor resides inside the config descriptor.
 278:Generated_Source\PSoC5/USBUART_hid.c **** *
 279:Generated_Source\PSoC5/USBUART_hid.c **** * \return
 280:Generated_Source\PSoC5/USBUART_hid.c **** *  currentTD
 281:Generated_Source\PSoC5/USBUART_hid.c **** *
 282:Generated_Source\PSoC5/USBUART_hid.c **** * \reentrant
 283:Generated_Source\PSoC5/USBUART_hid.c **** *  No.
ARM GAS  C:\Users\ingan\AppData\Local\Temp\ccEP7IZL.s 			page 10


 284:Generated_Source\PSoC5/USBUART_hid.c **** *
 285:Generated_Source\PSoC5/USBUART_hid.c **** *******************************************************************************/
 286:Generated_Source\PSoC5/USBUART_hid.c **** void USBUART_FindHidClassDecriptor(void) 
 287:Generated_Source\PSoC5/USBUART_hid.c **** {
 288:Generated_Source\PSoC5/USBUART_hid.c ****     const T_USBUART_LUT CYCODE *pTmp;
 289:Generated_Source\PSoC5/USBUART_hid.c ****     volatile uint8 *pDescr;
 290:Generated_Source\PSoC5/USBUART_hid.c ****     uint8 interfaceN;
 291:Generated_Source\PSoC5/USBUART_hid.c **** 
 292:Generated_Source\PSoC5/USBUART_hid.c ****     pTmp = USBUART_GetConfigTablePtr(USBUART_configuration - 1u);
 293:Generated_Source\PSoC5/USBUART_hid.c ****     
 294:Generated_Source\PSoC5/USBUART_hid.c ****     interfaceN = (uint8) USBUART_wIndexLoReg;
 295:Generated_Source\PSoC5/USBUART_hid.c ****     /* Third entry in the LUT starts the Interface Table pointers */
 296:Generated_Source\PSoC5/USBUART_hid.c ****     /* Now use the request interface number*/
 297:Generated_Source\PSoC5/USBUART_hid.c ****     pTmp = &pTmp[interfaceN + 2u];
 298:Generated_Source\PSoC5/USBUART_hid.c ****     
 299:Generated_Source\PSoC5/USBUART_hid.c ****     /* USB_DEVICEx_CONFIGURATIONy_INTERFACEz_TABLE */
 300:Generated_Source\PSoC5/USBUART_hid.c ****     pTmp = (const T_USBUART_LUT CYCODE *) pTmp->p_list;
 301:Generated_Source\PSoC5/USBUART_hid.c ****     
 302:Generated_Source\PSoC5/USBUART_hid.c ****     /* Now use Alternate setting number */
 303:Generated_Source\PSoC5/USBUART_hid.c ****     pTmp = &pTmp[USBUART_interfaceSetting[interfaceN]];
 304:Generated_Source\PSoC5/USBUART_hid.c ****     
 305:Generated_Source\PSoC5/USBUART_hid.c ****     /* USB_DEVICEx_CONFIGURATIONy_INTERFACEz_ALTERNATEi_HID_TABLE */
 306:Generated_Source\PSoC5/USBUART_hid.c ****     pTmp = (const T_USBUART_LUT CYCODE *) pTmp->p_list;
 307:Generated_Source\PSoC5/USBUART_hid.c ****     
 308:Generated_Source\PSoC5/USBUART_hid.c ****     /* Fifth entry in the LUT points to Hid Class Descriptor in Configuration Descriptor */
 309:Generated_Source\PSoC5/USBUART_hid.c ****     pTmp = &pTmp[4u];
 310:Generated_Source\PSoC5/USBUART_hid.c ****     pDescr = (volatile uint8 *)pTmp->p_list;
 311:Generated_Source\PSoC5/USBUART_hid.c ****     
 312:Generated_Source\PSoC5/USBUART_hid.c ****     /* The first byte contains the descriptor length */
 313:Generated_Source\PSoC5/USBUART_hid.c ****     USBUART_currentTD.count = *pDescr;
 314:Generated_Source\PSoC5/USBUART_hid.c ****     USBUART_currentTD.pData = pDescr;
 315:Generated_Source\PSoC5/USBUART_hid.c **** }
 316:Generated_Source\PSoC5/USBUART_hid.c **** 
 317:Generated_Source\PSoC5/USBUART_hid.c **** 
 318:Generated_Source\PSoC5/USBUART_hid.c **** /*******************************************************************************
 319:Generated_Source\PSoC5/USBUART_hid.c **** * Function Name: USB_FindReportDescriptor
 320:Generated_Source\PSoC5/USBUART_hid.c **** ****************************************************************************//**
 321:Generated_Source\PSoC5/USBUART_hid.c **** *
 322:Generated_Source\PSoC5/USBUART_hid.c **** *  This routine find Hid Report Descriptor pointer based on the Interface
 323:Generated_Source\PSoC5/USBUART_hid.c **** *  number, then loads the currentTD structure with the address of the buffer
 324:Generated_Source\PSoC5/USBUART_hid.c **** *  and the size.
 325:Generated_Source\PSoC5/USBUART_hid.c **** *  Hid Report Descriptor is located after IN/OUT/FEATURE reports.
 326:Generated_Source\PSoC5/USBUART_hid.c **** *
 327:Generated_Source\PSoC5/USBUART_hid.c **** * \return
 328:Generated_Source\PSoC5/USBUART_hid.c **** *  currentTD
 329:Generated_Source\PSoC5/USBUART_hid.c **** *
 330:Generated_Source\PSoC5/USBUART_hid.c **** * \reentrant
 331:Generated_Source\PSoC5/USBUART_hid.c **** *  No.
 332:Generated_Source\PSoC5/USBUART_hid.c **** *
 333:Generated_Source\PSoC5/USBUART_hid.c **** *******************************************************************************/
 334:Generated_Source\PSoC5/USBUART_hid.c **** void USBUART_FindReportDescriptor(void) 
 335:Generated_Source\PSoC5/USBUART_hid.c **** {
 336:Generated_Source\PSoC5/USBUART_hid.c ****     const T_USBUART_LUT CYCODE *pTmp;
 337:Generated_Source\PSoC5/USBUART_hid.c ****     volatile uint8 *pDescr;
 338:Generated_Source\PSoC5/USBUART_hid.c ****     uint8 interfaceN;
 339:Generated_Source\PSoC5/USBUART_hid.c **** 
 340:Generated_Source\PSoC5/USBUART_hid.c ****     pTmp = USBUART_GetConfigTablePtr(USBUART_configuration - 1u);
ARM GAS  C:\Users\ingan\AppData\Local\Temp\ccEP7IZL.s 			page 11


 217              		.loc 1 340 0
 218 0076 714B     		ldr	r3, .L51+8
 219 0078 1878     		ldrb	r0, [r3]	@ zero_extendqisi2
 220 007a 0138     		subs	r0, r0, #1
 221 007c C0B2     		uxtb	r0, r0
 222 007e FFF7FEFF 		bl	USBUART_GetConfigTablePtr
 223              	.LVL12:
 341:Generated_Source\PSoC5/USBUART_hid.c ****     interfaceN = (uint8) USBUART_wIndexLoReg;
 224              		.loc 1 341 0
 225 0082 2379     		ldrb	r3, [r4, #4]	@ zero_extendqisi2
 342:Generated_Source\PSoC5/USBUART_hid.c ****     
 343:Generated_Source\PSoC5/USBUART_hid.c ****     /* Third entry in the LUT starts the Interface Table pointers */
 344:Generated_Source\PSoC5/USBUART_hid.c ****     /* Now use the request interface number */
 345:Generated_Source\PSoC5/USBUART_hid.c ****     pTmp = &pTmp[interfaceN + 2u];
 346:Generated_Source\PSoC5/USBUART_hid.c ****     
 347:Generated_Source\PSoC5/USBUART_hid.c ****     /* USB_DEVICEx_CONFIGURATIONy_INTERFACEz_TABLE */
 348:Generated_Source\PSoC5/USBUART_hid.c ****     pTmp = (const T_USBUART_LUT CYCODE *) pTmp->p_list;
 349:Generated_Source\PSoC5/USBUART_hid.c ****     
 350:Generated_Source\PSoC5/USBUART_hid.c ****     /* Now use Alternate setting number */
 351:Generated_Source\PSoC5/USBUART_hid.c ****     pTmp = &pTmp[USBUART_interfaceSetting[interfaceN]];
 226              		.loc 1 351 0
 227 0084 6E49     		ldr	r1, .L51+12
 341:Generated_Source\PSoC5/USBUART_hid.c ****     interfaceN = (uint8) USBUART_wIndexLoReg;
 228              		.loc 1 341 0
 229 0086 DBB2     		uxtb	r3, r3
 230              	.LVL13:
 345:Generated_Source\PSoC5/USBUART_hid.c ****     
 231              		.loc 1 345 0
 232 0088 00EBC300 		add	r0, r0, r3, lsl #3
 233              	.LVL14:
 234              		.loc 1 351 0
 235 008c C95C     		ldrb	r1, [r1, r3]	@ zero_extendqisi2
 348:Generated_Source\PSoC5/USBUART_hid.c ****     
 236              		.loc 1 348 0
 237 008e 4269     		ldr	r2, [r0, #20]
 238              	.LVL15:
 352:Generated_Source\PSoC5/USBUART_hid.c ****     
 353:Generated_Source\PSoC5/USBUART_hid.c ****     /* USB_DEVICEx_CONFIGURATIONy_INTERFACEz_ALTERNATEi_HID_TABLE */
 354:Generated_Source\PSoC5/USBUART_hid.c ****     pTmp = (const T_USBUART_LUT CYCODE *) pTmp->p_list;
 355:Generated_Source\PSoC5/USBUART_hid.c ****     
 356:Generated_Source\PSoC5/USBUART_hid.c ****     /* Fourth entry in the LUT starts the Hid Report Descriptor */
 357:Generated_Source\PSoC5/USBUART_hid.c ****     pTmp = &pTmp[3u];
 358:Generated_Source\PSoC5/USBUART_hid.c ****     pDescr = (volatile uint8 *)pTmp->p_list;
 359:Generated_Source\PSoC5/USBUART_hid.c ****     
 360:Generated_Source\PSoC5/USBUART_hid.c ****     /* The 1st and 2nd bytes of descriptor contain its length. LSB is 1st. */
 361:Generated_Source\PSoC5/USBUART_hid.c ****     USBUART_currentTD.count =  ((uint16)((uint16) pDescr[1u] << 8u) | pDescr[0u]);
 239              		.loc 1 361 0
 240 0090 6C4B     		ldr	r3, .L51+16
 241              	.LVL16:
 351:Generated_Source\PSoC5/USBUART_hid.c ****     
 242              		.loc 1 351 0
 243 0092 02EBC102 		add	r2, r2, r1, lsl #3
 244              	.LVL17:
 358:Generated_Source\PSoC5/USBUART_hid.c ****     
 245              		.loc 1 358 0
 246 0096 5268     		ldr	r2, [r2, #4]
 247              	.LVL18:
ARM GAS  C:\Users\ingan\AppData\Local\Temp\ccEP7IZL.s 			page 12


 248 0098 D169     		ldr	r1, [r2, #28]
 249              	.LVL19:
 250              		.loc 1 361 0
 251 009a 0A46     		mov	r2, r1
 252              	.LVL20:
 253 009c 4878     		ldrb	r0, [r1, #1]	@ zero_extendqisi2
 254 009e 12F8021B 		ldrb	r1, [r2], #2	@ zero_extendqisi2
 255              	.LVL21:
 256 00a2 41EA0021 		orr	r1, r1, r0, lsl #8
 257 00a6 1980     		strh	r1, [r3]	@ movhi
 362:Generated_Source\PSoC5/USBUART_hid.c ****     USBUART_currentTD.pData = &pDescr[2u];
 258              		.loc 1 362 0
 259 00a8 5A60     		str	r2, [r3, #4]
 260              	.LVL22:
 261              	.LBE11:
 262              	.LBE10:
 156:Generated_Source\PSoC5/USBUART_hid.c ****                     {
 263              		.loc 1 156 0
 264 00aa 1B88     		ldrh	r3, [r3]
 265 00ac 9BB2     		uxth	r3, r3
 266 00ae 002B     		cmp	r3, #0
 267 00b0 B7D0     		beq	.L14
 268              	.L44:
 267:Generated_Source\PSoC5/USBUART_hid.c **** 
 269              		.loc 1 267 0
 270 00b2 BDE87040 		pop	{r4, r5, r6, lr}
 271              		.cfi_remember_state
 272              		.cfi_restore 14
 273              		.cfi_restore 6
 274              		.cfi_restore 5
 275              		.cfi_restore 4
 276              		.cfi_def_cfa_offset 0
 182:Generated_Source\PSoC5/USBUART_hid.c ****                 }
 277              		.loc 1 182 0
 278 00b6 FFF7FEBF 		b	USBUART_InitControlRead
 279              	.LVL23:
 280              	.L18:
 281              		.cfi_restore_state
 188:Generated_Source\PSoC5/USBUART_hid.c ****                 {
 282              		.loc 1 188 0
 283 00ba 012A     		cmp	r2, #1
 284 00bc B1D8     		bhi	.L14
 191:Generated_Source\PSoC5/USBUART_hid.c ****                     requestHandled  = USBUART_InitControlRead();
 285              		.loc 1 191 0
 286 00be 5E4B     		ldr	r3, .L51+4
 287 00c0 06E0     		b	.L45
 288              	.L17:
 178:Generated_Source\PSoC5/USBUART_hid.c ****                 {
 289              		.loc 1 178 0
 290 00c2 012A     		cmp	r2, #1
 291 00c4 ADD8     		bhi	.L14
 178:Generated_Source\PSoC5/USBUART_hid.c ****                 {
 292              		.loc 1 178 0 is_stmt 0 discriminator 1
 293 00c6 5B4B     		ldr	r3, .L51
 294 00c8 9B78     		ldrb	r3, [r3, #2]	@ zero_extendqisi2
 295 00ca 002B     		cmp	r3, #0
 296 00cc A9D1     		bne	.L14
ARM GAS  C:\Users\ingan\AppData\Local\Temp\ccEP7IZL.s 			page 13


 181:Generated_Source\PSoC5/USBUART_hid.c ****                     requestHandled  = USBUART_InitControlRead();
 297              		.loc 1 181 0 is_stmt 1
 298 00ce 5E4B     		ldr	r3, .L51+20
 299              	.L45:
 180:Generated_Source\PSoC5/USBUART_hid.c ****                     USBUART_currentTD.pData = &USBUART_hidIdleRate[interfaceNumber];
 300              		.loc 1 180 0
 301 00d0 5C49     		ldr	r1, .L51+16
 181:Generated_Source\PSoC5/USBUART_hid.c ****                     requestHandled  = USBUART_InitControlRead();
 302              		.loc 1 181 0
 303 00d2 1A44     		add	r2, r2, r3
 304              	.LVL24:
 180:Generated_Source\PSoC5/USBUART_hid.c ****                     USBUART_currentTD.pData = &USBUART_hidIdleRate[interfaceNumber];
 305              		.loc 1 180 0
 306 00d4 0123     		movs	r3, #1
 307 00d6 0B80     		strh	r3, [r1]	@ movhi
 181:Generated_Source\PSoC5/USBUART_hid.c ****                     requestHandled  = USBUART_InitControlRead();
 308              		.loc 1 181 0
 309 00d8 4A60     		str	r2, [r1, #4]
 310 00da EAE7     		b	.L44
 311              	.LVL25:
 312              	.L15:
 313              	.LBB12:
 314              	.LBB13:
 363:Generated_Source\PSoC5/USBUART_hid.c **** }
 364:Generated_Source\PSoC5/USBUART_hid.c **** 
 365:Generated_Source\PSoC5/USBUART_hid.c **** 
 366:Generated_Source\PSoC5/USBUART_hid.c **** /*******************************************************************************
 367:Generated_Source\PSoC5/USBUART_hid.c **** * Function Name: USBUART_FindReport
 368:Generated_Source\PSoC5/USBUART_hid.c **** ****************************************************************************//**
 369:Generated_Source\PSoC5/USBUART_hid.c **** *
 370:Generated_Source\PSoC5/USBUART_hid.c **** *  This routine sets up a transfer based on the Interface number, Report Type
 371:Generated_Source\PSoC5/USBUART_hid.c **** *  and Report ID, then loads the currentTD structure with the address of the
 372:Generated_Source\PSoC5/USBUART_hid.c **** *  buffer and the size.  The caller has to decide if it is a control read or
 373:Generated_Source\PSoC5/USBUART_hid.c **** *  control write.
 374:Generated_Source\PSoC5/USBUART_hid.c **** *
 375:Generated_Source\PSoC5/USBUART_hid.c **** * \return
 376:Generated_Source\PSoC5/USBUART_hid.c **** *  currentTD
 377:Generated_Source\PSoC5/USBUART_hid.c **** *
 378:Generated_Source\PSoC5/USBUART_hid.c **** * \reentrant
 379:Generated_Source\PSoC5/USBUART_hid.c **** *  No.
 380:Generated_Source\PSoC5/USBUART_hid.c **** *
 381:Generated_Source\PSoC5/USBUART_hid.c **** *******************************************************************************/
 382:Generated_Source\PSoC5/USBUART_hid.c **** void USBUART_FindReport(void) 
 383:Generated_Source\PSoC5/USBUART_hid.c **** {
 384:Generated_Source\PSoC5/USBUART_hid.c ****     const T_USBUART_LUT CYCODE *pTmp;
 385:Generated_Source\PSoC5/USBUART_hid.c ****     T_USBUART_TD *pTD;
 386:Generated_Source\PSoC5/USBUART_hid.c ****     uint8 reportType;
 387:Generated_Source\PSoC5/USBUART_hid.c ****     uint8 interfaceN;
 388:Generated_Source\PSoC5/USBUART_hid.c ****  
 389:Generated_Source\PSoC5/USBUART_hid.c ****     /* `#START HID_FINDREPORT` Place custom handling here */
 390:Generated_Source\PSoC5/USBUART_hid.c **** 
 391:Generated_Source\PSoC5/USBUART_hid.c ****     /* `#END` */
 392:Generated_Source\PSoC5/USBUART_hid.c ****     
 393:Generated_Source\PSoC5/USBUART_hid.c **** #ifdef USBUART_FIND_REPORT_CALLBACK
 394:Generated_Source\PSoC5/USBUART_hid.c ****     USBUART_FindReport_Callback();
 395:Generated_Source\PSoC5/USBUART_hid.c **** #endif /* (USBUART_FIND_REPORT_CALLBACK) */
 396:Generated_Source\PSoC5/USBUART_hid.c ****     
ARM GAS  C:\Users\ingan\AppData\Local\Temp\ccEP7IZL.s 			page 14


 397:Generated_Source\PSoC5/USBUART_hid.c ****     USBUART_currentTD.count = 0u;   /* Init not supported condition */
 315              		.loc 1 397 0
 316 00dc 594D     		ldr	r5, .L51+16
 317 00de 0022     		movs	r2, #0
 318              	.LVL26:
 398:Generated_Source\PSoC5/USBUART_hid.c ****     pTmp = USBUART_GetConfigTablePtr(USBUART_configuration - 1u);
 319              		.loc 1 398 0
 320 00e0 564B     		ldr	r3, .L51+8
 397:Generated_Source\PSoC5/USBUART_hid.c ****     pTmp = USBUART_GetConfigTablePtr(USBUART_configuration - 1u);
 321              		.loc 1 397 0
 322 00e2 2A80     		strh	r2, [r5]	@ movhi
 323              		.loc 1 398 0
 324 00e4 1878     		ldrb	r0, [r3]	@ zero_extendqisi2
 325 00e6 0138     		subs	r0, r0, #1
 326 00e8 C0B2     		uxtb	r0, r0
 327 00ea FFF7FEFF 		bl	USBUART_GetConfigTablePtr
 328              	.LVL27:
 399:Generated_Source\PSoC5/USBUART_hid.c ****     reportType = (uint8) USBUART_wValueHiReg;
 329              		.loc 1 399 0
 330 00ee 5149     		ldr	r1, .L51
 331 00f0 CB78     		ldrb	r3, [r1, #3]	@ zero_extendqisi2
 400:Generated_Source\PSoC5/USBUART_hid.c ****     interfaceN = (uint8) USBUART_wIndexLoReg;
 332              		.loc 1 400 0
 333 00f2 0A79     		ldrb	r2, [r1, #4]	@ zero_extendqisi2
 399:Generated_Source\PSoC5/USBUART_hid.c ****     reportType = (uint8) USBUART_wValueHiReg;
 334              		.loc 1 399 0
 335 00f4 DBB2     		uxtb	r3, r3
 336              	.LVL28:
 337              		.loc 1 400 0
 338 00f6 D2B2     		uxtb	r2, r2
 339              	.LVL29:
 401:Generated_Source\PSoC5/USBUART_hid.c ****     
 402:Generated_Source\PSoC5/USBUART_hid.c ****     /* Third entry in the LUT Configuration Table starts the Interface Table pointers */
 403:Generated_Source\PSoC5/USBUART_hid.c ****     /* Now use the request interface number */
 404:Generated_Source\PSoC5/USBUART_hid.c ****     pTmp = &pTmp[interfaceN + 2u];
 405:Generated_Source\PSoC5/USBUART_hid.c ****     
 406:Generated_Source\PSoC5/USBUART_hid.c ****     /* USB_DEVICEx_CONFIGURATIONy_INTERFACEz_TABLE */
 407:Generated_Source\PSoC5/USBUART_hid.c ****     pTmp = (const T_USBUART_LUT CYCODE *) pTmp->p_list;
 408:Generated_Source\PSoC5/USBUART_hid.c ****     if (interfaceN < USBUART_MAX_INTERFACES_NUMBER)
 340              		.loc 1 408 0
 341 00f8 012A     		cmp	r2, #1
 342 00fa 56D9     		bls	.L49
 343              	.LVL30:
 344              	.L23:
 345              	.LBE13:
 346              	.LBE12:
 169:Generated_Source\PSoC5/USBUART_hid.c ****                 {
 347              		.loc 1 169 0
 348 00fc 2B88     		ldrh	r3, [r5]
 349 00fe 9BB2     		uxth	r3, r3
 350 0100 002B     		cmp	r3, #0
 351 0102 8ED0     		beq	.L14
 352 0104 D5E7     		b	.L44
 353              	.LVL31:
 354              	.L47:
 355              	.LBB15:
 356              	.LBB16:
ARM GAS  C:\Users\ingan\AppData\Local\Temp\ccEP7IZL.s 			page 15


 397:Generated_Source\PSoC5/USBUART_hid.c ****     pTmp = USBUART_GetConfigTablePtr(USBUART_configuration - 1u);
 357              		.loc 1 397 0
 358 0106 4F4D     		ldr	r5, .L51+16
 359 0108 0022     		movs	r2, #0
 360              	.LVL32:
 398:Generated_Source\PSoC5/USBUART_hid.c ****     reportType = (uint8) USBUART_wValueHiReg;
 361              		.loc 1 398 0
 362 010a 4C4B     		ldr	r3, .L51+8
 397:Generated_Source\PSoC5/USBUART_hid.c ****     pTmp = USBUART_GetConfigTablePtr(USBUART_configuration - 1u);
 363              		.loc 1 397 0
 364 010c 2A80     		strh	r2, [r5]	@ movhi
 398:Generated_Source\PSoC5/USBUART_hid.c ****     reportType = (uint8) USBUART_wValueHiReg;
 365              		.loc 1 398 0
 366 010e 1878     		ldrb	r0, [r3]	@ zero_extendqisi2
 367 0110 0138     		subs	r0, r0, #1
 368 0112 C0B2     		uxtb	r0, r0
 369 0114 FFF7FEFF 		bl	USBUART_GetConfigTablePtr
 370              	.LVL33:
 399:Generated_Source\PSoC5/USBUART_hid.c ****     interfaceN = (uint8) USBUART_wIndexLoReg;
 371              		.loc 1 399 0
 372 0118 E378     		ldrb	r3, [r4, #3]	@ zero_extendqisi2
 400:Generated_Source\PSoC5/USBUART_hid.c ****     
 373              		.loc 1 400 0
 374 011a 2279     		ldrb	r2, [r4, #4]	@ zero_extendqisi2
 399:Generated_Source\PSoC5/USBUART_hid.c ****     interfaceN = (uint8) USBUART_wIndexLoReg;
 375              		.loc 1 399 0
 376 011c DBB2     		uxtb	r3, r3
 377              	.LVL34:
 400:Generated_Source\PSoC5/USBUART_hid.c ****     
 378              		.loc 1 400 0
 379 011e D2B2     		uxtb	r2, r2
 380              	.LVL35:
 381              		.loc 1 408 0
 382 0120 012A     		cmp	r2, #1
 383 0122 1FD9     		bls	.L50
 384              	.LVL36:
 385              	.L27:
 386              	.LBE16:
 387              	.LBE15:
 208:Generated_Source\PSoC5/USBUART_hid.c ****                 {
 388              		.loc 1 208 0
 389 0124 2B88     		ldrh	r3, [r5]
 390 0126 9BB2     		uxth	r3, r3
 391 0128 002B     		cmp	r3, #0
 392 012a 3FF47AAF 		beq	.L14
 267:Generated_Source\PSoC5/USBUART_hid.c **** 
 393              		.loc 1 267 0
 394 012e BDE87040 		pop	{r4, r5, r6, lr}
 395              		.cfi_remember_state
 396              		.cfi_restore 14
 397              		.cfi_restore 6
 398              		.cfi_restore 5
 399              		.cfi_restore 4
 400              		.cfi_def_cfa_offset 0
 210:Generated_Source\PSoC5/USBUART_hid.c ****                 }
 401              		.loc 1 210 0
 402 0132 FFF7FEBF 		b	USBUART_InitControlWrite
ARM GAS  C:\Users\ingan\AppData\Local\Temp\ccEP7IZL.s 			page 16


 403              	.LVL37:
 404              	.L24:
 405              		.cfi_restore_state
 217:Generated_Source\PSoC5/USBUART_hid.c ****                 {
 406              		.loc 1 217 0
 407 0136 012A     		cmp	r2, #1
 408 0138 3FF673AF 		bhi	.L14
 217:Generated_Source\PSoC5/USBUART_hid.c ****                 {
 409              		.loc 1 217 0 is_stmt 0 discriminator 1
 410 013c A378     		ldrb	r3, [r4, #2]	@ zero_extendqisi2
 411 013e 03F0FF05 		and	r5, r3, #255
 412 0142 002B     		cmp	r3, #0
 413 0144 7FF46DAF 		bne	.L14
 219:Generated_Source\PSoC5/USBUART_hid.c ****                     /* With regards to HID spec: "7.2.4 Set_Idle Request"
 414              		.loc 1 219 0 is_stmt 1
 415 0148 E378     		ldrb	r3, [r4, #3]	@ zero_extendqisi2
 416 014a 3F48     		ldr	r0, .L51+20
 417 014c DBB2     		uxtb	r3, r3
 226:Generated_Source\PSoC5/USBUART_hid.c ****                     {
 418              		.loc 1 226 0
 419 014e 3F49     		ldr	r1, .L51+24
 219:Generated_Source\PSoC5/USBUART_hid.c ****                     /* With regards to HID spec: "7.2.4 Set_Idle Request"
 420              		.loc 1 219 0
 421 0150 8354     		strb	r3, [r0, r2]
 225:Generated_Source\PSoC5/USBUART_hid.c ****                        USBUART_hidIdleTimer[interfaceNumber])
 422              		.loc 1 225 0
 423 0152 845C     		ldrb	r4, [r0, r2]	@ zero_extendqisi2
 226:Generated_Source\PSoC5/USBUART_hid.c ****                     {
 424              		.loc 1 226 0
 425 0154 8B5C     		ldrb	r3, [r1, r2]	@ zero_extendqisi2
 225:Generated_Source\PSoC5/USBUART_hid.c ****                        USBUART_hidIdleTimer[interfaceNumber])
 426              		.loc 1 225 0
 427 0156 9C42     		cmp	r4, r3
 428 0158 65D2     		bcs	.L28
 229:Generated_Source\PSoC5/USBUART_hid.c ****                     }
 429              		.loc 1 229 0
 430 015a 8D54     		strb	r5, [r1, r2]
 431              	.L29:
 267:Generated_Source\PSoC5/USBUART_hid.c **** 
 432              		.loc 1 267 0
 433 015c BDE87040 		pop	{r4, r5, r6, lr}
 434              		.cfi_remember_state
 435              		.cfi_restore 14
 436              		.cfi_restore 6
 437              		.cfi_restore 5
 438              		.cfi_restore 4
 439              		.cfi_def_cfa_offset 0
 247:Generated_Source\PSoC5/USBUART_hid.c ****                 }
 440              		.loc 1 247 0
 441 0160 FFF7FEBF 		b	USBUART_InitNoDataControlTransfer
 442              	.LVL38:
 443              	.L50:
 444              		.cfi_restore_state
 445              	.LBB18:
 446              	.LBB17:
 409:Generated_Source\PSoC5/USBUART_hid.c ****     {
 410:Generated_Source\PSoC5/USBUART_hid.c ****         /* Now use Alternate setting number */
ARM GAS  C:\Users\ingan\AppData\Local\Temp\ccEP7IZL.s 			page 17


 411:Generated_Source\PSoC5/USBUART_hid.c ****         pTmp = &pTmp[USBUART_interfaceSetting[interfaceN]];
 447              		.loc 1 411 0
 448 0164 364E     		ldr	r6, .L51+12
 412:Generated_Source\PSoC5/USBUART_hid.c ****         
 413:Generated_Source\PSoC5/USBUART_hid.c ****         /* USB_DEVICEx_CONFIGURATIONy_INTERFACEz_ALTERNATEi_HID_TABLE */
 414:Generated_Source\PSoC5/USBUART_hid.c ****         pTmp = (const T_USBUART_LUT CYCODE *) pTmp->p_list;
 415:Generated_Source\PSoC5/USBUART_hid.c ****         
 416:Generated_Source\PSoC5/USBUART_hid.c ****         /* Validate reportType to comply with "7.2.1 Get_Report Request" */
 417:Generated_Source\PSoC5/USBUART_hid.c ****         if ((reportType >= USBUART_HID_GET_REPORT_INPUT) &&
 449              		.loc 1 417 0
 450 0166 591E     		subs	r1, r3, #1
 411:Generated_Source\PSoC5/USBUART_hid.c ****         
 451              		.loc 1 411 0
 452 0168 B65C     		ldrb	r6, [r6, r2]	@ zero_extendqisi2
 453              		.loc 1 417 0
 454 016a 0229     		cmp	r1, #2
 411:Generated_Source\PSoC5/USBUART_hid.c ****         
 455              		.loc 1 411 0
 456 016c F6B2     		uxtb	r6, r6
 457              	.LVL39:
 458              		.loc 1 417 0
 459 016e D9D8     		bhi	.L27
 404:Generated_Source\PSoC5/USBUART_hid.c ****     
 460              		.loc 1 404 0
 461 0170 00EBC202 		add	r2, r0, r2, lsl #3
 462              	.LVL40:
 407:Generated_Source\PSoC5/USBUART_hid.c ****     if (interfaceN < USBUART_MAX_INTERFACES_NUMBER)
 463              		.loc 1 407 0
 464 0174 5269     		ldr	r2, [r2, #20]
 418:Generated_Source\PSoC5/USBUART_hid.c ****             (reportType <= USBUART_HID_GET_REPORT_FEATURE))
 419:Generated_Source\PSoC5/USBUART_hid.c ****         {
 420:Generated_Source\PSoC5/USBUART_hid.c ****             /* Get the entry proper TD (IN, OUT or Feature Report Table)*/
 421:Generated_Source\PSoC5/USBUART_hid.c ****             pTmp = &pTmp[reportType - 1u];
 465              		.loc 1 421 0
 466 0176 03F10053 		add	r3, r3, #536870912
 467              	.LVL41:
 411:Generated_Source\PSoC5/USBUART_hid.c ****         
 468              		.loc 1 411 0
 469 017a 02EBC606 		add	r6, r2, r6, lsl #3
 414:Generated_Source\PSoC5/USBUART_hid.c ****         
 470              		.loc 1 414 0
 471 017e 7168     		ldr	r1, [r6, #4]
 472              		.loc 1 421 0
 473 0180 013B     		subs	r3, r3, #1
 474              	.LVL42:
 422:Generated_Source\PSoC5/USBUART_hid.c ****             
 423:Generated_Source\PSoC5/USBUART_hid.c ****             /* Get reportID */
 424:Generated_Source\PSoC5/USBUART_hid.c ****             reportType = (uint8) USBUART_wValueLoReg;
 475              		.loc 1 424 0
 476 0182 A278     		ldrb	r2, [r4, #2]	@ zero_extendqisi2
 425:Generated_Source\PSoC5/USBUART_hid.c ****             
 426:Generated_Source\PSoC5/USBUART_hid.c ****             /* Validate table support by the HID descriptor, compare table count with reportID */
 427:Generated_Source\PSoC5/USBUART_hid.c ****             if (pTmp->c >= reportType)
 477              		.loc 1 427 0
 478 0184 11F83300 		ldrb	r0, [r1, r3, lsl #3]	@ zero_extendqisi2
 424:Generated_Source\PSoC5/USBUART_hid.c ****             
 479              		.loc 1 424 0
ARM GAS  C:\Users\ingan\AppData\Local\Temp\ccEP7IZL.s 			page 18


 480 0188 D2B2     		uxtb	r2, r2
 481              		.loc 1 427 0
 482 018a 9042     		cmp	r0, r2
 421:Generated_Source\PSoC5/USBUART_hid.c ****             
 483              		.loc 1 421 0
 484 018c 01EBC303 		add	r3, r1, r3, lsl #3
 485              	.LVL43:
 486              		.loc 1 427 0
 487 0190 C8D3     		bcc	.L27
 428:Generated_Source\PSoC5/USBUART_hid.c ****             {
 429:Generated_Source\PSoC5/USBUART_hid.c ****                 pTD = (T_USBUART_TD *) pTmp->p_list;
 488              		.loc 1 429 0
 489 0192 5968     		ldr	r1, [r3, #4]
 490              	.LVL44:
 430:Generated_Source\PSoC5/USBUART_hid.c ****                 pTD = &pTD[reportType];                          /* select entry depend on report I
 491              		.loc 1 430 0
 492 0194 02EB4202 		add	r2, r2, r2, lsl #1
 493              	.LVL45:
 494 0198 9200     		lsls	r2, r2, #2
 495 019a 8B18     		adds	r3, r1, r2
 496              	.LVL46:
 431:Generated_Source\PSoC5/USBUART_hid.c ****                 USBUART_currentTD.pData = pTD->pData;   /* Buffer pointer */
 432:Generated_Source\PSoC5/USBUART_hid.c ****                 USBUART_currentTD.count = pTD->count;   /* Buffer Size */
 497              		.loc 1 432 0
 498 019c 8A5A     		ldrh	r2, [r1, r2]
 431:Generated_Source\PSoC5/USBUART_hid.c ****                 USBUART_currentTD.pData = pTD->pData;   /* Buffer pointer */
 499              		.loc 1 431 0
 500 019e 5968     		ldr	r1, [r3, #4]
 433:Generated_Source\PSoC5/USBUART_hid.c ****                 USBUART_currentTD.pStatusBlock = pTD->pStatusBlock;
 501              		.loc 1 433 0
 502 01a0 9B68     		ldr	r3, [r3, #8]
 503              	.LVL47:
 431:Generated_Source\PSoC5/USBUART_hid.c ****                 USBUART_currentTD.pData = pTD->pData;   /* Buffer pointer */
 504              		.loc 1 431 0
 505 01a2 6960     		str	r1, [r5, #4]
 432:Generated_Source\PSoC5/USBUART_hid.c ****                 USBUART_currentTD.pStatusBlock = pTD->pStatusBlock;
 506              		.loc 1 432 0
 507 01a4 2A80     		strh	r2, [r5]	@ movhi
 508              		.loc 1 433 0
 509 01a6 AB60     		str	r3, [r5, #8]
 510 01a8 BCE7     		b	.L27
 511              	.LVL48:
 512              	.L49:
 513              	.LBE17:
 514              	.LBE18:
 515              	.LBB19:
 516              	.LBB14:
 411:Generated_Source\PSoC5/USBUART_hid.c ****         
 517              		.loc 1 411 0
 518 01aa 254E     		ldr	r6, .L51+12
 417:Generated_Source\PSoC5/USBUART_hid.c ****             (reportType <= USBUART_HID_GET_REPORT_FEATURE))
 519              		.loc 1 417 0
 520 01ac 5C1E     		subs	r4, r3, #1
 411:Generated_Source\PSoC5/USBUART_hid.c ****         
 521              		.loc 1 411 0
 522 01ae B65C     		ldrb	r6, [r6, r2]	@ zero_extendqisi2
 417:Generated_Source\PSoC5/USBUART_hid.c ****             (reportType <= USBUART_HID_GET_REPORT_FEATURE))
ARM GAS  C:\Users\ingan\AppData\Local\Temp\ccEP7IZL.s 			page 19


 523              		.loc 1 417 0
 524 01b0 022C     		cmp	r4, #2
 411:Generated_Source\PSoC5/USBUART_hid.c ****         
 525              		.loc 1 411 0
 526 01b2 F6B2     		uxtb	r6, r6
 527              	.LVL49:
 417:Generated_Source\PSoC5/USBUART_hid.c ****             (reportType <= USBUART_HID_GET_REPORT_FEATURE))
 528              		.loc 1 417 0
 529 01b4 A2D8     		bhi	.L23
 404:Generated_Source\PSoC5/USBUART_hid.c ****     
 530              		.loc 1 404 0
 531 01b6 00EBC202 		add	r2, r0, r2, lsl #3
 532              	.LVL50:
 407:Generated_Source\PSoC5/USBUART_hid.c ****     if (interfaceN < USBUART_MAX_INTERFACES_NUMBER)
 533              		.loc 1 407 0
 534 01ba 5269     		ldr	r2, [r2, #20]
 421:Generated_Source\PSoC5/USBUART_hid.c ****             
 535              		.loc 1 421 0
 536 01bc 03F10053 		add	r3, r3, #536870912
 537              	.LVL51:
 411:Generated_Source\PSoC5/USBUART_hid.c ****         
 538              		.loc 1 411 0
 539 01c0 02EBC606 		add	r6, r2, r6, lsl #3
 414:Generated_Source\PSoC5/USBUART_hid.c ****         
 540              		.loc 1 414 0
 541 01c4 7068     		ldr	r0, [r6, #4]
 421:Generated_Source\PSoC5/USBUART_hid.c ****             
 542              		.loc 1 421 0
 543 01c6 013B     		subs	r3, r3, #1
 544              	.LVL52:
 424:Generated_Source\PSoC5/USBUART_hid.c ****             
 545              		.loc 1 424 0
 546 01c8 8A78     		ldrb	r2, [r1, #2]	@ zero_extendqisi2
 427:Generated_Source\PSoC5/USBUART_hid.c ****             {
 547              		.loc 1 427 0
 548 01ca 10F83310 		ldrb	r1, [r0, r3, lsl #3]	@ zero_extendqisi2
 424:Generated_Source\PSoC5/USBUART_hid.c ****             
 549              		.loc 1 424 0
 550 01ce D2B2     		uxtb	r2, r2
 427:Generated_Source\PSoC5/USBUART_hid.c ****             {
 551              		.loc 1 427 0
 552 01d0 9142     		cmp	r1, r2
 421:Generated_Source\PSoC5/USBUART_hid.c ****             
 553              		.loc 1 421 0
 554 01d2 00EBC303 		add	r3, r0, r3, lsl #3
 555              	.LVL53:
 427:Generated_Source\PSoC5/USBUART_hid.c ****             {
 556              		.loc 1 427 0
 557 01d6 91D3     		bcc	.L23
 429:Generated_Source\PSoC5/USBUART_hid.c ****                 pTD = &pTD[reportType];                          /* select entry depend on report I
 558              		.loc 1 429 0
 559 01d8 5968     		ldr	r1, [r3, #4]
 560              	.LVL54:
 430:Generated_Source\PSoC5/USBUART_hid.c ****                 USBUART_currentTD.pData = pTD->pData;   /* Buffer pointer */
 561              		.loc 1 430 0
 562 01da 02EB4202 		add	r2, r2, r2, lsl #1
 563              	.LVL55:
ARM GAS  C:\Users\ingan\AppData\Local\Temp\ccEP7IZL.s 			page 20


 564 01de 9300     		lsls	r3, r2, #2
 565              	.LVL56:
 566 01e0 CA18     		adds	r2, r1, r3
 567              	.LVL57:
 431:Generated_Source\PSoC5/USBUART_hid.c ****                 USBUART_currentTD.count = pTD->count;   /* Buffer Size */
 568              		.loc 1 431 0
 569 01e2 5068     		ldr	r0, [r2, #4]
 570              	.LVL58:
 432:Generated_Source\PSoC5/USBUART_hid.c ****                 USBUART_currentTD.pStatusBlock = pTD->pStatusBlock;
 571              		.loc 1 432 0
 572 01e4 C95A     		ldrh	r1, [r1, r3]
 573              		.loc 1 433 0
 574 01e6 9368     		ldr	r3, [r2, #8]
 431:Generated_Source\PSoC5/USBUART_hid.c ****                 USBUART_currentTD.count = pTD->count;   /* Buffer Size */
 575              		.loc 1 431 0
 576 01e8 6860     		str	r0, [r5, #4]
 432:Generated_Source\PSoC5/USBUART_hid.c ****                 USBUART_currentTD.pStatusBlock = pTD->pStatusBlock;
 577              		.loc 1 432 0
 578 01ea 2980     		strh	r1, [r5]	@ movhi
 579              		.loc 1 433 0
 580 01ec AB60     		str	r3, [r5, #8]
 581 01ee 85E7     		b	.L23
 582              	.LVL59:
 583              	.L48:
 584              	.LBE14:
 585              	.LBE19:
 586              	.LBB20:
 587              	.LBB21:
 292:Generated_Source\PSoC5/USBUART_hid.c ****     
 588              		.loc 1 292 0
 589 01f0 124B     		ldr	r3, .L51+8
 590 01f2 1878     		ldrb	r0, [r3]	@ zero_extendqisi2
 591 01f4 0138     		subs	r0, r0, #1
 592 01f6 C0B2     		uxtb	r0, r0
 593 01f8 FFF7FEFF 		bl	USBUART_GetConfigTablePtr
 594              	.LVL60:
 294:Generated_Source\PSoC5/USBUART_hid.c ****     /* Third entry in the LUT starts the Interface Table pointers */
 595              		.loc 1 294 0
 596 01fc 2379     		ldrb	r3, [r4, #4]	@ zero_extendqisi2
 303:Generated_Source\PSoC5/USBUART_hid.c ****     
 597              		.loc 1 303 0
 598 01fe 1049     		ldr	r1, .L51+12
 294:Generated_Source\PSoC5/USBUART_hid.c ****     /* Third entry in the LUT starts the Interface Table pointers */
 599              		.loc 1 294 0
 600 0200 DBB2     		uxtb	r3, r3
 601              	.LVL61:
 297:Generated_Source\PSoC5/USBUART_hid.c ****     
 602              		.loc 1 297 0
 603 0202 00EBC300 		add	r0, r0, r3, lsl #3
 604              	.LVL62:
 303:Generated_Source\PSoC5/USBUART_hid.c ****     
 605              		.loc 1 303 0
 606 0206 C95C     		ldrb	r1, [r1, r3]	@ zero_extendqisi2
 300:Generated_Source\PSoC5/USBUART_hid.c ****     
 607              		.loc 1 300 0
 608 0208 4269     		ldr	r2, [r0, #20]
 609              	.LVL63:
ARM GAS  C:\Users\ingan\AppData\Local\Temp\ccEP7IZL.s 			page 21


 313:Generated_Source\PSoC5/USBUART_hid.c ****     USBUART_currentTD.pData = pDescr;
 610              		.loc 1 313 0
 611 020a 0E4B     		ldr	r3, .L51+16
 612              	.LVL64:
 303:Generated_Source\PSoC5/USBUART_hid.c ****     
 613              		.loc 1 303 0
 614 020c 02EBC102 		add	r2, r2, r1, lsl #3
 615              	.LVL65:
 310:Generated_Source\PSoC5/USBUART_hid.c ****     
 616              		.loc 1 310 0
 617 0210 5268     		ldr	r2, [r2, #4]
 618              	.LVL66:
 619 0212 516A     		ldr	r1, [r2, #36]
 620              	.LVL67:
 313:Generated_Source\PSoC5/USBUART_hid.c ****     USBUART_currentTD.pData = pDescr;
 621              		.loc 1 313 0
 622 0214 0A78     		ldrb	r2, [r1]	@ zero_extendqisi2
 623              	.LVL68:
 624 0216 1A80     		strh	r2, [r3]	@ movhi
 314:Generated_Source\PSoC5/USBUART_hid.c **** }
 625              		.loc 1 314 0
 626 0218 5960     		str	r1, [r3, #4]
 627              	.LVL69:
 628              	.LBE21:
 629              	.LBE20:
 148:Generated_Source\PSoC5/USBUART_hid.c ****                     {
 630              		.loc 1 148 0
 631 021a 1B88     		ldrh	r3, [r3]
 632 021c 9BB2     		uxth	r3, r3
 633 021e 002B     		cmp	r3, #0
 634 0220 3FF4FFAE 		beq	.L14
 635 0224 45E7     		b	.L44
 636              	.LVL70:
 637              	.L28:
 235:Generated_Source\PSoC5/USBUART_hid.c ****                     {
 638              		.loc 1 235 0
 639 0226 8B5C     		ldrb	r3, [r1, r2]	@ zero_extendqisi2
 640 0228 012B     		cmp	r3, #1
 641 022a 97D9     		bls	.L29
 245:Generated_Source\PSoC5/USBUART_hid.c ****                     }
 642              		.loc 1 245 0
 643 022c 835C     		ldrb	r3, [r0, r2]	@ zero_extendqisi2
 644 022e DBB2     		uxtb	r3, r3
 244:Generated_Source\PSoC5/USBUART_hid.c ****                         USBUART_hidIdleRate[interfaceNumber];
 645              		.loc 1 244 0
 646 0230 8B54     		strb	r3, [r1, r2]
 647 0232 93E7     		b	.L29
 648              	.L52:
 649              		.align	2
 650              	.L51:
 651 0234 00600040 		.word	1073766400
 652 0238 00000000 		.word	USBUART_hidProtocol
 653 023c 00000000 		.word	USBUART_configuration
 654 0240 00000000 		.word	USBUART_interfaceSetting
 655 0244 00000000 		.word	USBUART_currentTD
 656 0248 00000000 		.word	USBUART_hidIdleRate
 657 024c 00000000 		.word	USBUART_hidIdleTimer
ARM GAS  C:\Users\ingan\AppData\Local\Temp\ccEP7IZL.s 			page 22


 658              		.cfi_endproc
 659              	.LFE2:
 660              		.size	USBUART_DispatchHIDClassRqst, .-USBUART_DispatchHIDClassRqst
 661              		.section	.text.USBUART_FindHidClassDecriptor,"ax",%progbits
 662              		.align	2
 663              		.global	USBUART_FindHidClassDecriptor
 664              		.thumb
 665              		.thumb_func
 666              		.type	USBUART_FindHidClassDecriptor, %function
 667              	USBUART_FindHidClassDecriptor:
 668              	.LFB3:
 287:Generated_Source\PSoC5/USBUART_hid.c ****     const T_USBUART_LUT CYCODE *pTmp;
 669              		.loc 1 287 0
 670              		.cfi_startproc
 671              		@ args = 0, pretend = 0, frame = 0
 672              		@ frame_needed = 0, uses_anonymous_args = 0
 673 0000 10B5     		push	{r4, lr}
 674              		.cfi_def_cfa_offset 8
 675              		.cfi_offset 4, -8
 676              		.cfi_offset 14, -4
 292:Generated_Source\PSoC5/USBUART_hid.c ****     
 677              		.loc 1 292 0
 678 0002 0B4B     		ldr	r3, .L55
 303:Generated_Source\PSoC5/USBUART_hid.c ****     
 679              		.loc 1 303 0
 680 0004 0B4C     		ldr	r4, .L55+4
 292:Generated_Source\PSoC5/USBUART_hid.c ****     
 681              		.loc 1 292 0
 682 0006 1878     		ldrb	r0, [r3]	@ zero_extendqisi2
 683 0008 0138     		subs	r0, r0, #1
 684 000a C0B2     		uxtb	r0, r0
 685 000c FFF7FEFF 		bl	USBUART_GetConfigTablePtr
 686              	.LVL71:
 294:Generated_Source\PSoC5/USBUART_hid.c ****     /* Third entry in the LUT starts the Interface Table pointers */
 687              		.loc 1 294 0
 688 0010 094B     		ldr	r3, .L55+8
 313:Generated_Source\PSoC5/USBUART_hid.c ****     USBUART_currentTD.pData = pDescr;
 689              		.loc 1 313 0
 690 0012 0A49     		ldr	r1, .L55+12
 294:Generated_Source\PSoC5/USBUART_hid.c ****     /* Third entry in the LUT starts the Interface Table pointers */
 691              		.loc 1 294 0
 692 0014 1B79     		ldrb	r3, [r3, #4]	@ zero_extendqisi2
 693 0016 DBB2     		uxtb	r3, r3
 694              	.LVL72:
 297:Generated_Source\PSoC5/USBUART_hid.c ****     
 695              		.loc 1 297 0
 696 0018 00EBC300 		add	r0, r0, r3, lsl #3
 697              	.LVL73:
 300:Generated_Source\PSoC5/USBUART_hid.c ****     
 698              		.loc 1 300 0
 699 001c 4269     		ldr	r2, [r0, #20]
 700              	.LVL74:
 303:Generated_Source\PSoC5/USBUART_hid.c ****     
 701              		.loc 1 303 0
 702 001e E35C     		ldrb	r3, [r4, r3]	@ zero_extendqisi2
 703              	.LVL75:
 704 0020 02EBC303 		add	r3, r2, r3, lsl #3
ARM GAS  C:\Users\ingan\AppData\Local\Temp\ccEP7IZL.s 			page 23


 705              	.LVL76:
 310:Generated_Source\PSoC5/USBUART_hid.c ****     
 706              		.loc 1 310 0
 707 0024 5B68     		ldr	r3, [r3, #4]
 708              	.LVL77:
 709 0026 5A6A     		ldr	r2, [r3, #36]
 710              	.LVL78:
 313:Generated_Source\PSoC5/USBUART_hid.c ****     USBUART_currentTD.pData = pDescr;
 711              		.loc 1 313 0
 712 0028 1378     		ldrb	r3, [r2]	@ zero_extendqisi2
 713              	.LVL79:
 714 002a 0B80     		strh	r3, [r1]	@ movhi
 314:Generated_Source\PSoC5/USBUART_hid.c **** }
 715              		.loc 1 314 0
 716 002c 4A60     		str	r2, [r1, #4]
 717 002e 10BD     		pop	{r4, pc}
 718              	.L56:
 719              		.align	2
 720              	.L55:
 721 0030 00000000 		.word	USBUART_configuration
 722 0034 00000000 		.word	USBUART_interfaceSetting
 723 0038 00600040 		.word	1073766400
 724 003c 00000000 		.word	USBUART_currentTD
 725              		.cfi_endproc
 726              	.LFE3:
 727              		.size	USBUART_FindHidClassDecriptor, .-USBUART_FindHidClassDecriptor
 728              		.section	.text.USBUART_FindReportDescriptor,"ax",%progbits
 729              		.align	2
 730              		.global	USBUART_FindReportDescriptor
 731              		.thumb
 732              		.thumb_func
 733              		.type	USBUART_FindReportDescriptor, %function
 734              	USBUART_FindReportDescriptor:
 735              	.LFB4:
 335:Generated_Source\PSoC5/USBUART_hid.c ****     const T_USBUART_LUT CYCODE *pTmp;
 736              		.loc 1 335 0
 737              		.cfi_startproc
 738              		@ args = 0, pretend = 0, frame = 0
 739              		@ frame_needed = 0, uses_anonymous_args = 0
 740 0000 10B5     		push	{r4, lr}
 741              		.cfi_def_cfa_offset 8
 742              		.cfi_offset 4, -8
 743              		.cfi_offset 14, -4
 340:Generated_Source\PSoC5/USBUART_hid.c ****     interfaceN = (uint8) USBUART_wIndexLoReg;
 744              		.loc 1 340 0
 745 0002 0E4B     		ldr	r3, .L59
 351:Generated_Source\PSoC5/USBUART_hid.c ****     
 746              		.loc 1 351 0
 747 0004 0E4C     		ldr	r4, .L59+4
 340:Generated_Source\PSoC5/USBUART_hid.c ****     interfaceN = (uint8) USBUART_wIndexLoReg;
 748              		.loc 1 340 0
 749 0006 1878     		ldrb	r0, [r3]	@ zero_extendqisi2
 750 0008 0138     		subs	r0, r0, #1
 751 000a C0B2     		uxtb	r0, r0
 752 000c FFF7FEFF 		bl	USBUART_GetConfigTablePtr
 753              	.LVL80:
 341:Generated_Source\PSoC5/USBUART_hid.c ****     
ARM GAS  C:\Users\ingan\AppData\Local\Temp\ccEP7IZL.s 			page 24


 754              		.loc 1 341 0
 755 0010 0C4B     		ldr	r3, .L59+8
 361:Generated_Source\PSoC5/USBUART_hid.c ****     USBUART_currentTD.pData = &pDescr[2u];
 756              		.loc 1 361 0
 757 0012 0D49     		ldr	r1, .L59+12
 341:Generated_Source\PSoC5/USBUART_hid.c ****     
 758              		.loc 1 341 0
 759 0014 1B79     		ldrb	r3, [r3, #4]	@ zero_extendqisi2
 760 0016 DBB2     		uxtb	r3, r3
 761              	.LVL81:
 345:Generated_Source\PSoC5/USBUART_hid.c ****     
 762              		.loc 1 345 0
 763 0018 00EBC300 		add	r0, r0, r3, lsl #3
 764              	.LVL82:
 348:Generated_Source\PSoC5/USBUART_hid.c ****     
 765              		.loc 1 348 0
 766 001c 4269     		ldr	r2, [r0, #20]
 767              	.LVL83:
 351:Generated_Source\PSoC5/USBUART_hid.c ****     
 768              		.loc 1 351 0
 769 001e E35C     		ldrb	r3, [r4, r3]	@ zero_extendqisi2
 770              	.LVL84:
 771 0020 02EBC303 		add	r3, r2, r3, lsl #3
 772              	.LVL85:
 358:Generated_Source\PSoC5/USBUART_hid.c ****     
 773              		.loc 1 358 0
 774 0024 5B68     		ldr	r3, [r3, #4]
 775              	.LVL86:
 776 0026 DA69     		ldr	r2, [r3, #28]
 777              	.LVL87:
 361:Generated_Source\PSoC5/USBUART_hid.c ****     USBUART_currentTD.pData = &pDescr[2u];
 778              		.loc 1 361 0
 779 0028 1346     		mov	r3, r2
 780              	.LVL88:
 781 002a 5078     		ldrb	r0, [r2, #1]	@ zero_extendqisi2
 782 002c 13F8022B 		ldrb	r2, [r3], #2	@ zero_extendqisi2
 783              	.LVL89:
 784 0030 42EA0022 		orr	r2, r2, r0, lsl #8
 785 0034 0A80     		strh	r2, [r1]	@ movhi
 362:Generated_Source\PSoC5/USBUART_hid.c **** }
 786              		.loc 1 362 0
 787 0036 4B60     		str	r3, [r1, #4]
 788 0038 10BD     		pop	{r4, pc}
 789              	.L60:
 790 003a 00BF     		.align	2
 791              	.L59:
 792 003c 00000000 		.word	USBUART_configuration
 793 0040 00000000 		.word	USBUART_interfaceSetting
 794 0044 00600040 		.word	1073766400
 795 0048 00000000 		.word	USBUART_currentTD
 796              		.cfi_endproc
 797              	.LFE4:
 798              		.size	USBUART_FindReportDescriptor, .-USBUART_FindReportDescriptor
 799              		.section	.text.USBUART_FindReport,"ax",%progbits
 800              		.align	2
 801              		.global	USBUART_FindReport
 802              		.thumb
ARM GAS  C:\Users\ingan\AppData\Local\Temp\ccEP7IZL.s 			page 25


 803              		.thumb_func
 804              		.type	USBUART_FindReport, %function
 805              	USBUART_FindReport:
 806              	.LFB5:
 383:Generated_Source\PSoC5/USBUART_hid.c ****     const T_USBUART_LUT CYCODE *pTmp;
 807              		.loc 1 383 0
 808              		.cfi_startproc
 809              		@ args = 0, pretend = 0, frame = 0
 810              		@ frame_needed = 0, uses_anonymous_args = 0
 811 0000 70B5     		push	{r4, r5, r6, lr}
 812              		.cfi_def_cfa_offset 16
 813              		.cfi_offset 4, -16
 814              		.cfi_offset 5, -12
 815              		.cfi_offset 6, -8
 816              		.cfi_offset 14, -4
 397:Generated_Source\PSoC5/USBUART_hid.c ****     pTmp = USBUART_GetConfigTablePtr(USBUART_configuration - 1u);
 817              		.loc 1 397 0
 818 0002 1A4C     		ldr	r4, .L65
 819 0004 0022     		movs	r2, #0
 398:Generated_Source\PSoC5/USBUART_hid.c ****     reportType = (uint8) USBUART_wValueHiReg;
 820              		.loc 1 398 0
 821 0006 1A4B     		ldr	r3, .L65+4
 397:Generated_Source\PSoC5/USBUART_hid.c ****     pTmp = USBUART_GetConfigTablePtr(USBUART_configuration - 1u);
 822              		.loc 1 397 0
 823 0008 2280     		strh	r2, [r4]	@ movhi
 398:Generated_Source\PSoC5/USBUART_hid.c ****     reportType = (uint8) USBUART_wValueHiReg;
 824              		.loc 1 398 0
 825 000a 1878     		ldrb	r0, [r3]	@ zero_extendqisi2
 826 000c 0138     		subs	r0, r0, #1
 827 000e C0B2     		uxtb	r0, r0
 828 0010 FFF7FEFF 		bl	USBUART_GetConfigTablePtr
 829              	.LVL90:
 399:Generated_Source\PSoC5/USBUART_hid.c ****     interfaceN = (uint8) USBUART_wIndexLoReg;
 830              		.loc 1 399 0
 831 0014 1749     		ldr	r1, .L65+8
 832 0016 CB78     		ldrb	r3, [r1, #3]	@ zero_extendqisi2
 400:Generated_Source\PSoC5/USBUART_hid.c ****     
 833              		.loc 1 400 0
 834 0018 0A79     		ldrb	r2, [r1, #4]	@ zero_extendqisi2
 835              	.LVL91:
 836 001a D2B2     		uxtb	r2, r2
 837              	.LVL92:
 408:Generated_Source\PSoC5/USBUART_hid.c ****     {
 838              		.loc 1 408 0
 839 001c 012A     		cmp	r2, #1
 840 001e 00D9     		bls	.L64
 841              	.LVL93:
 842              	.L61:
 843 0020 70BD     		pop	{r4, r5, r6, pc}
 844              	.LVL94:
 845              	.L64:
 411:Generated_Source\PSoC5/USBUART_hid.c ****         
 846              		.loc 1 411 0
 847 0022 154E     		ldr	r6, .L65+12
 848 0024 DBB2     		uxtb	r3, r3
 417:Generated_Source\PSoC5/USBUART_hid.c ****             (reportType <= USBUART_HID_GET_REPORT_FEATURE))
 849              		.loc 1 417 0
ARM GAS  C:\Users\ingan\AppData\Local\Temp\ccEP7IZL.s 			page 26


 850 0026 5D1E     		subs	r5, r3, #1
 411:Generated_Source\PSoC5/USBUART_hid.c ****         
 851              		.loc 1 411 0
 852 0028 B65C     		ldrb	r6, [r6, r2]	@ zero_extendqisi2
 417:Generated_Source\PSoC5/USBUART_hid.c ****             (reportType <= USBUART_HID_GET_REPORT_FEATURE))
 853              		.loc 1 417 0
 854 002a 022D     		cmp	r5, #2
 411:Generated_Source\PSoC5/USBUART_hid.c ****         
 855              		.loc 1 411 0
 856 002c F6B2     		uxtb	r6, r6
 857              	.LVL95:
 417:Generated_Source\PSoC5/USBUART_hid.c ****             (reportType <= USBUART_HID_GET_REPORT_FEATURE))
 858              		.loc 1 417 0
 859 002e F7D8     		bhi	.L61
 404:Generated_Source\PSoC5/USBUART_hid.c ****     
 860              		.loc 1 404 0
 861 0030 00EBC200 		add	r0, r0, r2, lsl #3
 862              	.LVL96:
 407:Generated_Source\PSoC5/USBUART_hid.c ****     if (interfaceN < USBUART_MAX_INTERFACES_NUMBER)
 863              		.loc 1 407 0
 864 0034 4269     		ldr	r2, [r0, #20]
 865              	.LVL97:
 421:Generated_Source\PSoC5/USBUART_hid.c ****             
 866              		.loc 1 421 0
 867 0036 03F10053 		add	r3, r3, #536870912
 868              	.LVL98:
 411:Generated_Source\PSoC5/USBUART_hid.c ****         
 869              		.loc 1 411 0
 870 003a 02EBC606 		add	r6, r2, r6, lsl #3
 414:Generated_Source\PSoC5/USBUART_hid.c ****         
 871              		.loc 1 414 0
 872 003e 7068     		ldr	r0, [r6, #4]
 421:Generated_Source\PSoC5/USBUART_hid.c ****             
 873              		.loc 1 421 0
 874 0040 013B     		subs	r3, r3, #1
 875              	.LVL99:
 424:Generated_Source\PSoC5/USBUART_hid.c ****             
 876              		.loc 1 424 0
 877 0042 8A78     		ldrb	r2, [r1, #2]	@ zero_extendqisi2
 427:Generated_Source\PSoC5/USBUART_hid.c ****             {
 878              		.loc 1 427 0
 879 0044 10F83310 		ldrb	r1, [r0, r3, lsl #3]	@ zero_extendqisi2
 424:Generated_Source\PSoC5/USBUART_hid.c ****             
 880              		.loc 1 424 0
 881 0048 D2B2     		uxtb	r2, r2
 427:Generated_Source\PSoC5/USBUART_hid.c ****             {
 882              		.loc 1 427 0
 883 004a 9142     		cmp	r1, r2
 421:Generated_Source\PSoC5/USBUART_hid.c ****             
 884              		.loc 1 421 0
 885 004c 00EBC303 		add	r3, r0, r3, lsl #3
 886              	.LVL100:
 427:Generated_Source\PSoC5/USBUART_hid.c ****             {
 887              		.loc 1 427 0
 888 0050 E6D3     		bcc	.L61
 429:Generated_Source\PSoC5/USBUART_hid.c ****                 pTD = &pTD[reportType];                          /* select entry depend on report I
 889              		.loc 1 429 0
ARM GAS  C:\Users\ingan\AppData\Local\Temp\ccEP7IZL.s 			page 27


 890 0052 5968     		ldr	r1, [r3, #4]
 891              	.LVL101:
 430:Generated_Source\PSoC5/USBUART_hid.c ****                 USBUART_currentTD.pData = pTD->pData;   /* Buffer pointer */
 892              		.loc 1 430 0
 893 0054 02EB4202 		add	r2, r2, r2, lsl #1
 894              	.LVL102:
 895 0058 9200     		lsls	r2, r2, #2
 896 005a 8B18     		adds	r3, r1, r2
 897              	.LVL103:
 432:Generated_Source\PSoC5/USBUART_hid.c ****                 USBUART_currentTD.pStatusBlock = pTD->pStatusBlock;
 898              		.loc 1 432 0
 899 005c 8A5A     		ldrh	r2, [r1, r2]
 431:Generated_Source\PSoC5/USBUART_hid.c ****                 USBUART_currentTD.count = pTD->count;   /* Buffer Size */
 900              		.loc 1 431 0
 901 005e 5968     		ldr	r1, [r3, #4]
 902              		.loc 1 433 0
 903 0060 9B68     		ldr	r3, [r3, #8]
 904              	.LVL104:
 431:Generated_Source\PSoC5/USBUART_hid.c ****                 USBUART_currentTD.count = pTD->count;   /* Buffer Size */
 905              		.loc 1 431 0
 906 0062 6160     		str	r1, [r4, #4]
 432:Generated_Source\PSoC5/USBUART_hid.c ****                 USBUART_currentTD.pStatusBlock = pTD->pStatusBlock;
 907              		.loc 1 432 0
 908 0064 2280     		strh	r2, [r4]	@ movhi
 909              		.loc 1 433 0
 910 0066 A360     		str	r3, [r4, #8]
 911 0068 70BD     		pop	{r4, r5, r6, pc}
 912              	.LVL105:
 913              	.L66:
 914 006a 00BF     		.align	2
 915              	.L65:
 916 006c 00000000 		.word	USBUART_currentTD
 917 0070 00000000 		.word	USBUART_configuration
 918 0074 00600040 		.word	1073766400
 919 0078 00000000 		.word	USBUART_interfaceSetting
 920              		.cfi_endproc
 921              	.LFE5:
 922              		.size	USBUART_FindReport, .-USBUART_FindReport
 923              		.comm	USBUART_hidIdleTimer,2,4
 924              		.comm	USBUART_hidIdleRate,2,4
 925              		.comm	USBUART_hidProtocol,2,4
 926              		.text
 927              	.Letext0:
 928              		.file 2 "Generated_Source\\PSoC5\\cytypes.h"
 929              		.file 3 "Generated_Source\\PSoC5\\USBUART.h"
 930              		.file 4 "Generated_Source\\PSoC5\\USBUART_pvt.h"