ARM GAS  C:\Users\ingan\AppData\Local\Temp\ccY20xfO.s 			page 1


   1              		.syntax unified
   2              		.cpu cortex-m3
   3              		.fpu softvfp
   4              		.eabi_attribute 20, 1
   5              		.eabi_attribute 21, 1
   6              		.eabi_attribute 23, 3
   7              		.eabi_attribute 24, 1
   8              		.eabi_attribute 25, 1
   9              		.eabi_attribute 26, 1
  10              		.eabi_attribute 30, 1
  11              		.eabi_attribute 34, 1
  12              		.eabi_attribute 18, 4
  13              		.thumb
  14              		.syntax unified
  15              		.file	"CyDmac.c"
  16              		.text
  17              	.Ltext0:
  18              		.cfi_sections	.debug_frame
  19              		.section	.text.CyDmacConfigure,"ax",%progbits
  20              		.align	2
  21              		.global	CyDmacConfigure
  22              		.thumb
  23              		.thumb_func
  24              		.type	CyDmacConfigure, %function
  25              	CyDmacConfigure:
  26              	.LFB0:
  27              		.file 1 "Generated_Source\\PSoC5\\CyDmac.c"
   1:Generated_Source\PSoC5/CyDmac.c **** /***************************************************************************//**
   2:Generated_Source\PSoC5/CyDmac.c **** * \file CyDmac.c
   3:Generated_Source\PSoC5/CyDmac.c **** * \version 5.70
   4:Generated_Source\PSoC5/CyDmac.c **** *
   5:Generated_Source\PSoC5/CyDmac.c **** * \brief
   6:Generated_Source\PSoC5/CyDmac.c **** * Provides an API for the DMAC component. The API includes functions for the
   7:Generated_Source\PSoC5/CyDmac.c **** * DMA controller, DMA channels and Transfer Descriptors. This API is the library
   8:Generated_Source\PSoC5/CyDmac.c **** * version not the auto generated code that gets generated when the user places a
   9:Generated_Source\PSoC5/CyDmac.c **** * DMA component on the schematic.
  10:Generated_Source\PSoC5/CyDmac.c **** *
  11:Generated_Source\PSoC5/CyDmac.c **** * The auto generated code would use the APi's in this module.
  12:Generated_Source\PSoC5/CyDmac.c **** *
  13:Generated_Source\PSoC5/CyDmac.c **** * \note This code is endian agnostic.
  14:Generated_Source\PSoC5/CyDmac.c **** *
  15:Generated_Source\PSoC5/CyDmac.c **** * \note The Transfer Descriptor memory can be used as regular memory if the
  16:Generated_Source\PSoC5/CyDmac.c **** * TD's are not being used.
  17:Generated_Source\PSoC5/CyDmac.c **** *
  18:Generated_Source\PSoC5/CyDmac.c **** * \note This code uses the first byte of each TD to manage the free list of
  19:Generated_Source\PSoC5/CyDmac.c **** * TD's. The user can overwrite this once the TD is allocated.
  20:Generated_Source\PSoC5/CyDmac.c **** *
  21:Generated_Source\PSoC5/CyDmac.c **** ********************************************************************************
  22:Generated_Source\PSoC5/CyDmac.c **** * \copyright
  23:Generated_Source\PSoC5/CyDmac.c **** * Copyright 2008-2018, Cypress Semiconductor Corporation.  All rights reserved.
  24:Generated_Source\PSoC5/CyDmac.c **** * You may use this file only in accordance with the license, terms, conditions,
  25:Generated_Source\PSoC5/CyDmac.c **** * disclaimers, and limitations in the end user license agreement accompanying
  26:Generated_Source\PSoC5/CyDmac.c **** * the software package with which this file was provided.
  27:Generated_Source\PSoC5/CyDmac.c **** *******************************************************************************/
  28:Generated_Source\PSoC5/CyDmac.c **** 
  29:Generated_Source\PSoC5/CyDmac.c **** #include "CyDmac.h"
  30:Generated_Source\PSoC5/CyDmac.c **** 
ARM GAS  C:\Users\ingan\AppData\Local\Temp\ccY20xfO.s 			page 2


  31:Generated_Source\PSoC5/CyDmac.c **** 
  32:Generated_Source\PSoC5/CyDmac.c **** /*******************************************************************************
  33:Generated_Source\PSoC5/CyDmac.c **** * The following variables are initialized from CyDmacConfigure() function that
  34:Generated_Source\PSoC5/CyDmac.c **** * is executed from initialize_psoc() at the early initialization stage.
  35:Generated_Source\PSoC5/CyDmac.c **** * In case of IAR EW IDE, initialize_psoc() is executed before the data sections
  36:Generated_Source\PSoC5/CyDmac.c **** * are initialized. To avoid zeroing, these variables should be initialized
  37:Generated_Source\PSoC5/CyDmac.c **** * properly during segments initialization as well.
  38:Generated_Source\PSoC5/CyDmac.c **** *******************************************************************************/
  39:Generated_Source\PSoC5/CyDmac.c **** static uint8  CyDmaTdCurrentNumber = CY_DMA_NUMBEROF_TDS;           /* Current Number of free eleme
  40:Generated_Source\PSoC5/CyDmac.c **** static uint8  CyDmaTdFreeIndex = (uint8)(CY_DMA_NUMBEROF_TDS - 1u); /* Index of first available TD 
  41:Generated_Source\PSoC5/CyDmac.c **** static uint32 CyDmaChannels = DMA_CHANNELS_USED__MASK0;              /* Bit map of DMA channel owne
  42:Generated_Source\PSoC5/CyDmac.c **** 
  43:Generated_Source\PSoC5/CyDmac.c **** 
  44:Generated_Source\PSoC5/CyDmac.c **** /*******************************************************************************
  45:Generated_Source\PSoC5/CyDmac.c **** * Function Name: CyDmacConfigure
  46:Generated_Source\PSoC5/CyDmac.c **** ****************************************************************************//**
  47:Generated_Source\PSoC5/CyDmac.c **** *
  48:Generated_Source\PSoC5/CyDmac.c **** * Creates a linked list of all the TDs to be allocated. This function is called
  49:Generated_Source\PSoC5/CyDmac.c **** * by the startup code; you do not normally need to call it. You can call this
  50:Generated_Source\PSoC5/CyDmac.c **** * function if all of the DMA channels are inactive.
  51:Generated_Source\PSoC5/CyDmac.c **** *
  52:Generated_Source\PSoC5/CyDmac.c **** *******************************************************************************/
  53:Generated_Source\PSoC5/CyDmac.c **** void CyDmacConfigure(void) 
  54:Generated_Source\PSoC5/CyDmac.c **** {
  28              		.loc 1 54 0
  29              		.cfi_startproc
  30              		@ args = 0, pretend = 0, frame = 0
  31              		@ frame_needed = 0, uses_anonymous_args = 0
  32              		@ link register save eliminated.
  55:Generated_Source\PSoC5/CyDmac.c ****     uint8 dmaIndex;
  56:Generated_Source\PSoC5/CyDmac.c **** 
  57:Generated_Source\PSoC5/CyDmac.c ****     /* Set TD list variables. */
  58:Generated_Source\PSoC5/CyDmac.c ****     CyDmaTdFreeIndex     = (uint8)(CY_DMA_NUMBEROF_TDS - 1u);
  33              		.loc 1 58 0
  34 0000 074A     		ldr	r2, .L4
  35 0002 7F23     		movs	r3, #127
  36 0004 1370     		strb	r3, [r2]
  59:Generated_Source\PSoC5/CyDmac.c ****     CyDmaTdCurrentNumber = CY_DMA_NUMBEROF_TDS;
  37              		.loc 1 59 0
  38 0006 8021     		movs	r1, #128
  39 0008 5170     		strb	r1, [r2, #1]
  40              	.LVL0:
  41 000a 064A     		ldr	r2, .L4+4
  42              	.LVL1:
  43              	.L2:
  60:Generated_Source\PSoC5/CyDmac.c **** 
  61:Generated_Source\PSoC5/CyDmac.c ****     /* Make TD free list. */
  62:Generated_Source\PSoC5/CyDmac.c ****     for(dmaIndex = (uint8)(CY_DMA_NUMBEROF_TDS - 1u); dmaIndex != 0u; dmaIndex--)
  63:Generated_Source\PSoC5/CyDmac.c ****     {
  64:Generated_Source\PSoC5/CyDmac.c ****         CY_DMA_TDMEM_STRUCT_PTR[dmaIndex].TD0[0u] = (uint8)(dmaIndex - 1u);
  44              		.loc 1 64 0 discriminator 3
  45 000c 013B     		subs	r3, r3, #1
  46              	.LVL2:
  47 000e DBB2     		uxtb	r3, r3
  48 0010 02F80839 		strb	r3, [r2], #-8
  49              	.LVL3:
  62:Generated_Source\PSoC5/CyDmac.c ****     {
ARM GAS  C:\Users\ingan\AppData\Local\Temp\ccY20xfO.s 			page 3


  50              		.loc 1 62 0 discriminator 3
  51 0014 002B     		cmp	r3, #0
  52 0016 F9D1     		bne	.L2
  65:Generated_Source\PSoC5/CyDmac.c ****     }
  66:Generated_Source\PSoC5/CyDmac.c **** 
  67:Generated_Source\PSoC5/CyDmac.c ****     /* Make last one point to zero. */
  68:Generated_Source\PSoC5/CyDmac.c ****     CY_DMA_TDMEM_STRUCT_PTR[dmaIndex].TD0[0u] = 0u;
  53              		.loc 1 68 0
  54 0018 0022     		movs	r2, #0
  55 001a 034B     		ldr	r3, .L4+8
  56              	.LVL4:
  57 001c 1A70     		strb	r2, [r3]
  58 001e 7047     		bx	lr
  59              	.L5:
  60              		.align	2
  61              	.L4:
  62 0020 00000000 		.word	.LANCHOR0
  63 0024 F87B0040 		.word	1073773560
  64 0028 00780040 		.word	1073772544
  65              		.cfi_endproc
  66              	.LFE0:
  67              		.size	CyDmacConfigure, .-CyDmacConfigure
  68              		.section	.text.CyDmacError,"ax",%progbits
  69              		.align	2
  70              		.global	CyDmacError
  71              		.thumb
  72              		.thumb_func
  73              		.type	CyDmacError, %function
  74              	CyDmacError:
  75              	.LFB1:
  69:Generated_Source\PSoC5/CyDmac.c **** }
  70:Generated_Source\PSoC5/CyDmac.c **** 
  71:Generated_Source\PSoC5/CyDmac.c **** 
  72:Generated_Source\PSoC5/CyDmac.c **** /*******************************************************************************
  73:Generated_Source\PSoC5/CyDmac.c **** * Function Name: CyDmacError
  74:Generated_Source\PSoC5/CyDmac.c **** ****************************************************************************//**
  75:Generated_Source\PSoC5/CyDmac.c **** *
  76:Generated_Source\PSoC5/CyDmac.c **** *  Returns errors of the last failed DMA transaction.
  77:Generated_Source\PSoC5/CyDmac.c **** *
  78:Generated_Source\PSoC5/CyDmac.c **** * \return Errors of the last failed DMA transaction.
  79:Generated_Source\PSoC5/CyDmac.c **** *
  80:Generated_Source\PSoC5/CyDmac.c **** *  DMAC_PERIPH_ERR:
  81:Generated_Source\PSoC5/CyDmac.c **** *   Set to 1 when a peripheral responds to a bus transaction with an error
  82:Generated_Source\PSoC5/CyDmac.c **** *   response.
  83:Generated_Source\PSoC5/CyDmac.c **** *
  84:Generated_Source\PSoC5/CyDmac.c **** *  DMAC_UNPOP_ACC:
  85:Generated_Source\PSoC5/CyDmac.c **** *   Set to 1 when an access is attempted to an invalid address.
  86:Generated_Source\PSoC5/CyDmac.c **** *
  87:Generated_Source\PSoC5/CyDmac.c **** *  DMAC_BUS_TIMEOUT:
  88:Generated_Source\PSoC5/CyDmac.c **** *   Set to 1 when a bus timeout occurs. Cleared by writing a 1. Timeout values
  89:Generated_Source\PSoC5/CyDmac.c **** *   are determined by the BUS_TIMEOUT field in the PHUBCFG register.
  90:Generated_Source\PSoC5/CyDmac.c **** *
  91:Generated_Source\PSoC5/CyDmac.c **** * Theory:
  92:Generated_Source\PSoC5/CyDmac.c **** *  Once an error occurs the error bits are sticky and are only cleared by
  93:Generated_Source\PSoC5/CyDmac.c **** *  writing 1 to the error register.
  94:Generated_Source\PSoC5/CyDmac.c **** *
  95:Generated_Source\PSoC5/CyDmac.c **** *******************************************************************************/
ARM GAS  C:\Users\ingan\AppData\Local\Temp\ccY20xfO.s 			page 4


  96:Generated_Source\PSoC5/CyDmac.c **** uint8 CyDmacError(void) 
  97:Generated_Source\PSoC5/CyDmac.c **** {
  76              		.loc 1 97 0
  77              		.cfi_startproc
  78              		@ args = 0, pretend = 0, frame = 0
  79              		@ frame_needed = 0, uses_anonymous_args = 0
  80              		@ link register save eliminated.
  98:Generated_Source\PSoC5/CyDmac.c ****     return((uint8)(((uint32) 0x0Eu) & *CY_DMA_ERR_PTR));
  81              		.loc 1 98 0
  82 0000 024B     		ldr	r3, .L7
  83 0002 1868     		ldr	r0, [r3]
  99:Generated_Source\PSoC5/CyDmac.c **** }
  84              		.loc 1 99 0
  85 0004 00F00E00 		and	r0, r0, #14
  86 0008 7047     		bx	lr
  87              	.L8:
  88 000a 00BF     		.align	2
  89              	.L7:
  90 000c 04700040 		.word	1073770500
  91              		.cfi_endproc
  92              	.LFE1:
  93              		.size	CyDmacError, .-CyDmacError
  94              		.section	.text.CyDmacClearError,"ax",%progbits
  95              		.align	2
  96              		.global	CyDmacClearError
  97              		.thumb
  98              		.thumb_func
  99              		.type	CyDmacClearError, %function
 100              	CyDmacClearError:
 101              	.LFB2:
 100:Generated_Source\PSoC5/CyDmac.c **** 
 101:Generated_Source\PSoC5/CyDmac.c **** 
 102:Generated_Source\PSoC5/CyDmac.c **** /*******************************************************************************
 103:Generated_Source\PSoC5/CyDmac.c **** * Function Name: CyDmacClearError
 104:Generated_Source\PSoC5/CyDmac.c **** ****************************************************************************//**
 105:Generated_Source\PSoC5/CyDmac.c **** *
 106:Generated_Source\PSoC5/CyDmac.c **** *  Clears the error bits in the error register of the DMAC.
 107:Generated_Source\PSoC5/CyDmac.c **** *
 108:Generated_Source\PSoC5/CyDmac.c **** * \param error:
 109:Generated_Source\PSoC5/CyDmac.c **** *   Clears the error bits in the DMAC error register.
 110:Generated_Source\PSoC5/CyDmac.c **** *
 111:Generated_Source\PSoC5/CyDmac.c **** *  \param DMAC_PERIPH_ERR:
 112:Generated_Source\PSoC5/CyDmac.c **** *   Set to 1 when a peripheral responds to a bus transaction with an error
 113:Generated_Source\PSoC5/CyDmac.c **** *   response.
 114:Generated_Source\PSoC5/CyDmac.c **** *
 115:Generated_Source\PSoC5/CyDmac.c **** *  \param DMAC_UNPOP_ACC:
 116:Generated_Source\PSoC5/CyDmac.c **** *   Set to 1 when an access is attempted to an invalid address.
 117:Generated_Source\PSoC5/CyDmac.c **** *
 118:Generated_Source\PSoC5/CyDmac.c **** *  \param DMAC_BUS_TIMEOUT:
 119:Generated_Source\PSoC5/CyDmac.c **** *   Set to 1 when a bus timeout occurs. Cleared by writing 1. Timeout values
 120:Generated_Source\PSoC5/CyDmac.c **** *   are determined by the BUS_TIMEOUT field in the PHUBCFG register.
 121:Generated_Source\PSoC5/CyDmac.c **** *
 122:Generated_Source\PSoC5/CyDmac.c **** * Theory:
 123:Generated_Source\PSoC5/CyDmac.c **** *  Once an error occurs the error bits are sticky and are only cleared by
 124:Generated_Source\PSoC5/CyDmac.c **** *  writing 1 to the error register.
 125:Generated_Source\PSoC5/CyDmac.c **** *
 126:Generated_Source\PSoC5/CyDmac.c **** *******************************************************************************/
ARM GAS  C:\Users\ingan\AppData\Local\Temp\ccY20xfO.s 			page 5


 127:Generated_Source\PSoC5/CyDmac.c **** void CyDmacClearError(uint8 error) 
 128:Generated_Source\PSoC5/CyDmac.c **** {
 102              		.loc 1 128 0
 103              		.cfi_startproc
 104              		@ args = 0, pretend = 0, frame = 0
 105              		@ frame_needed = 0, uses_anonymous_args = 0
 106              		@ link register save eliminated.
 107              	.LVL5:
 129:Generated_Source\PSoC5/CyDmac.c ****     *CY_DMA_ERR_PTR = (((uint32)0x0Fu) & ((uint32)error));
 108              		.loc 1 129 0
 109 0000 00F00F00 		and	r0, r0, #15
 110              	.LVL6:
 111 0004 014B     		ldr	r3, .L10
 112 0006 1860     		str	r0, [r3]
 113 0008 7047     		bx	lr
 114              	.L11:
 115 000a 00BF     		.align	2
 116              	.L10:
 117 000c 04700040 		.word	1073770500
 118              		.cfi_endproc
 119              	.LFE2:
 120              		.size	CyDmacClearError, .-CyDmacClearError
 121              		.section	.text.CyDmacErrorAddress,"ax",%progbits
 122              		.align	2
 123              		.global	CyDmacErrorAddress
 124              		.thumb
 125              		.thumb_func
 126              		.type	CyDmacErrorAddress, %function
 127              	CyDmacErrorAddress:
 128              	.LFB3:
 130:Generated_Source\PSoC5/CyDmac.c **** }
 131:Generated_Source\PSoC5/CyDmac.c **** 
 132:Generated_Source\PSoC5/CyDmac.c **** 
 133:Generated_Source\PSoC5/CyDmac.c **** /*******************************************************************************
 134:Generated_Source\PSoC5/CyDmac.c **** * Function Name: CyDmacErrorAddress
 135:Generated_Source\PSoC5/CyDmac.c **** ****************************************************************************//**
 136:Generated_Source\PSoC5/CyDmac.c **** *
 137:Generated_Source\PSoC5/CyDmac.c **** *  When DMAC_BUS_TIMEOUT, DMAC_UNPOP_ACC, and DMAC_PERIPH_ERR occur the
 138:Generated_Source\PSoC5/CyDmac.c **** *  address of the error is written to the error address register and can be read
 139:Generated_Source\PSoC5/CyDmac.c **** *  with this function.
 140:Generated_Source\PSoC5/CyDmac.c **** *
 141:Generated_Source\PSoC5/CyDmac.c **** *  If there are multiple errors, only the address of the first is saved.
 142:Generated_Source\PSoC5/CyDmac.c **** *
 143:Generated_Source\PSoC5/CyDmac.c **** * \return The address that caused the error.
 144:Generated_Source\PSoC5/CyDmac.c **** *
 145:Generated_Source\PSoC5/CyDmac.c **** *******************************************************************************/
 146:Generated_Source\PSoC5/CyDmac.c **** uint32 CyDmacErrorAddress(void) 
 147:Generated_Source\PSoC5/CyDmac.c **** {
 129              		.loc 1 147 0
 130              		.cfi_startproc
 131              		@ args = 0, pretend = 0, frame = 0
 132              		@ frame_needed = 0, uses_anonymous_args = 0
 133              		@ link register save eliminated.
 148:Generated_Source\PSoC5/CyDmac.c ****     return(CY_GET_REG32(CY_DMA_ERR_ADR_PTR));
 134              		.loc 1 148 0
 135 0000 014B     		ldr	r3, .L13
 136 0002 1868     		ldr	r0, [r3]
ARM GAS  C:\Users\ingan\AppData\Local\Temp\ccY20xfO.s 			page 6


 149:Generated_Source\PSoC5/CyDmac.c **** }
 137              		.loc 1 149 0
 138 0004 7047     		bx	lr
 139              	.L14:
 140 0006 00BF     		.align	2
 141              	.L13:
 142 0008 08700040 		.word	1073770504
 143              		.cfi_endproc
 144              	.LFE3:
 145              		.size	CyDmacErrorAddress, .-CyDmacErrorAddress
 146              		.section	.text.CyDmaChAlloc,"ax",%progbits
 147              		.align	2
 148              		.global	CyDmaChAlloc
 149              		.thumb
 150              		.thumb_func
 151              		.type	CyDmaChAlloc, %function
 152              	CyDmaChAlloc:
 153              	.LFB4:
 150:Generated_Source\PSoC5/CyDmac.c **** 
 151:Generated_Source\PSoC5/CyDmac.c **** 
 152:Generated_Source\PSoC5/CyDmac.c **** /*******************************************************************************
 153:Generated_Source\PSoC5/CyDmac.c **** * Function Name: CyDmaChAlloc
 154:Generated_Source\PSoC5/CyDmac.c **** ****************************************************************************//**
 155:Generated_Source\PSoC5/CyDmac.c **** *
 156:Generated_Source\PSoC5/CyDmac.c **** *  Allocates a channel from the DMAC to be used in all functions that require a
 157:Generated_Source\PSoC5/CyDmac.c **** *  channel handle.
 158:Generated_Source\PSoC5/CyDmac.c **** *
 159:Generated_Source\PSoC5/CyDmac.c **** * \return The allocated channel number. Zero is a valid channel number.
 160:Generated_Source\PSoC5/CyDmac.c **** *  DMA_INVALID_CHANNEL is returned if there are no channels available.
 161:Generated_Source\PSoC5/CyDmac.c **** *
 162:Generated_Source\PSoC5/CyDmac.c **** *******************************************************************************/
 163:Generated_Source\PSoC5/CyDmac.c **** uint8 CyDmaChAlloc(void) 
 164:Generated_Source\PSoC5/CyDmac.c **** {
 154              		.loc 1 164 0
 155              		.cfi_startproc
 156              		@ args = 0, pretend = 0, frame = 0
 157              		@ frame_needed = 0, uses_anonymous_args = 0
 158 0000 10B5     		push	{r4, lr}
 159              		.cfi_def_cfa_offset 8
 160              		.cfi_offset 4, -8
 161              		.cfi_offset 14, -4
 162              	.LVL7:
 165:Generated_Source\PSoC5/CyDmac.c ****     uint8 interruptState;
 166:Generated_Source\PSoC5/CyDmac.c ****     uint8 dmaIndex;
 167:Generated_Source\PSoC5/CyDmac.c ****     uint32 channel = 1u;
 168:Generated_Source\PSoC5/CyDmac.c **** 
 169:Generated_Source\PSoC5/CyDmac.c **** 
 170:Generated_Source\PSoC5/CyDmac.c ****     /* Enter critical section! */
 171:Generated_Source\PSoC5/CyDmac.c ****     interruptState = CyEnterCriticalSection();
 163              		.loc 1 171 0
 164 0002 FFF7FEFF 		bl	CyEnterCriticalSection
 165              	.LVL8:
 172:Generated_Source\PSoC5/CyDmac.c **** 
 173:Generated_Source\PSoC5/CyDmac.c ****     /* Look for free channel. */
 174:Generated_Source\PSoC5/CyDmac.c ****     for(dmaIndex = 0u; dmaIndex < CY_DMA_NUMBEROF_CHANNELS; dmaIndex++)
 175:Generated_Source\PSoC5/CyDmac.c ****     {
 176:Generated_Source\PSoC5/CyDmac.c ****         if(0uL == (CyDmaChannels & channel))
ARM GAS  C:\Users\ingan\AppData\Local\Temp\ccY20xfO.s 			page 7


 166              		.loc 1 176 0
 167 0006 104B     		ldr	r3, .L23
 168 0008 5A68     		ldr	r2, [r3, #4]
 169 000a 12F0010F 		tst	r2, #1
 170 000e 11D0     		beq	.L16
 171 0010 0124     		movs	r4, #1
 172 0012 0223     		movs	r3, #2
 173              	.LVL9:
 174              	.L19:
 175 0014 1A42     		tst	r2, r3
 176 0016 06D1     		bne	.L17
 177:Generated_Source\PSoC5/CyDmac.c ****         {
 178:Generated_Source\PSoC5/CyDmac.c ****             /* Mark channel as used. */
 179:Generated_Source\PSoC5/CyDmac.c ****             CyDmaChannels |= channel;
 177              		.loc 1 179 0
 178 0018 1343     		orrs	r3, r3, r2
 179              	.LVL10:
 180 001a 0B4A     		ldr	r2, .L23
 181 001c 5360     		str	r3, [r2, #4]
 180:Generated_Source\PSoC5/CyDmac.c ****             break;
 181:Generated_Source\PSoC5/CyDmac.c ****         }
 182:Generated_Source\PSoC5/CyDmac.c **** 
 183:Generated_Source\PSoC5/CyDmac.c ****         channel <<= 1u;
 184:Generated_Source\PSoC5/CyDmac.c ****     }
 185:Generated_Source\PSoC5/CyDmac.c **** 
 186:Generated_Source\PSoC5/CyDmac.c ****     if(dmaIndex >= CY_DMA_NUMBEROF_CHANNELS)
 187:Generated_Source\PSoC5/CyDmac.c ****     {
 188:Generated_Source\PSoC5/CyDmac.c ****         dmaIndex = CY_DMA_INVALID_CHANNEL;
 182              		.loc 1 188 0
 183 001e 182C     		cmp	r4, #24
 184 0020 28BF     		it	cs
 185 0022 FF24     		movcs	r4, #255
 186              	.LVL11:
 187 0024 0BE0     		b	.L18
 188              	.LVL12:
 189              	.L17:
 183:Generated_Source\PSoC5/CyDmac.c ****     }
 190              		.loc 1 183 0 discriminator 2
 191 0026 5B00     		lsls	r3, r3, #1
 192              	.LVL13:
 174:Generated_Source\PSoC5/CyDmac.c ****     {
 193              		.loc 1 174 0 discriminator 2
 194 0028 0134     		adds	r4, r4, #1
 195              	.LVL14:
 196 002a E4B2     		uxtb	r4, r4
 197              	.LVL15:
 198 002c 182C     		cmp	r4, #24
 199 002e F1D1     		bne	.L19
 200              		.loc 1 188 0
 201 0030 FF24     		movs	r4, #255
 202              	.LVL16:
 203 0032 04E0     		b	.L18
 204              	.LVL17:
 205              	.L16:
 179:Generated_Source\PSoC5/CyDmac.c ****             break;
 206              		.loc 1 179 0
 207 0034 42F00103 		orr	r3, r2, #1
ARM GAS  C:\Users\ingan\AppData\Local\Temp\ccY20xfO.s 			page 8


 208 0038 034A     		ldr	r2, .L23
 209 003a 5360     		str	r3, [r2, #4]
 174:Generated_Source\PSoC5/CyDmac.c ****     {
 210              		.loc 1 174 0
 211 003c 0024     		movs	r4, #0
 212              	.LVL18:
 213              	.L18:
 189:Generated_Source\PSoC5/CyDmac.c ****     }
 190:Generated_Source\PSoC5/CyDmac.c **** 
 191:Generated_Source\PSoC5/CyDmac.c ****     /* Exit critical section! */
 192:Generated_Source\PSoC5/CyDmac.c ****     CyExitCriticalSection(interruptState);
 214              		.loc 1 192 0
 215 003e FFF7FEFF 		bl	CyExitCriticalSection
 216              	.LVL19:
 193:Generated_Source\PSoC5/CyDmac.c **** 
 194:Generated_Source\PSoC5/CyDmac.c ****     return(dmaIndex);
 195:Generated_Source\PSoC5/CyDmac.c **** }
 217              		.loc 1 195 0
 218 0042 2046     		mov	r0, r4
 219 0044 10BD     		pop	{r4, pc}
 220              	.LVL20:
 221              	.L24:
 222 0046 00BF     		.align	2
 223              	.L23:
 224 0048 00000000 		.word	.LANCHOR0
 225              		.cfi_endproc
 226              	.LFE4:
 227              		.size	CyDmaChAlloc, .-CyDmaChAlloc
 228              		.section	.text.CyDmaChFree,"ax",%progbits
 229              		.align	2
 230              		.global	CyDmaChFree
 231              		.thumb
 232              		.thumb_func
 233              		.type	CyDmaChFree, %function
 234              	CyDmaChFree:
 235              	.LFB5:
 196:Generated_Source\PSoC5/CyDmac.c **** 
 197:Generated_Source\PSoC5/CyDmac.c **** 
 198:Generated_Source\PSoC5/CyDmac.c **** /*******************************************************************************
 199:Generated_Source\PSoC5/CyDmac.c **** * Function Name: CyDmaChFree
 200:Generated_Source\PSoC5/CyDmac.c **** ****************************************************************************//**
 201:Generated_Source\PSoC5/CyDmac.c **** *
 202:Generated_Source\PSoC5/CyDmac.c **** * Frees a channel allocated by \ref DmaChAlloc().
 203:Generated_Source\PSoC5/CyDmac.c **** *
 204:Generated_Source\PSoC5/CyDmac.c **** * \param chHandle The handle previously returned by \ref CyDmaChAlloc() or \ref
 205:Generated_Source\PSoC5/CyDmac.c **** * DMA_DmaInitalize().
 206:Generated_Source\PSoC5/CyDmac.c **** *
 207:Generated_Source\PSoC5/CyDmac.c **** * \return CYRET_SUCCESS if successful.
 208:Generated_Source\PSoC5/CyDmac.c **** * \return CYRET_BAD_PARAM if chHandle is invalid.
 209:Generated_Source\PSoC5/CyDmac.c **** *
 210:Generated_Source\PSoC5/CyDmac.c **** *******************************************************************************/
 211:Generated_Source\PSoC5/CyDmac.c **** cystatus CyDmaChFree(uint8 chHandle) 
 212:Generated_Source\PSoC5/CyDmac.c **** {
 236              		.loc 1 212 0
 237              		.cfi_startproc
 238              		@ args = 0, pretend = 0, frame = 0
 239              		@ frame_needed = 0, uses_anonymous_args = 0
ARM GAS  C:\Users\ingan\AppData\Local\Temp\ccY20xfO.s 			page 9


 240              	.LVL21:
 213:Generated_Source\PSoC5/CyDmac.c ****     cystatus status = CYRET_BAD_PARAM;
 214:Generated_Source\PSoC5/CyDmac.c ****     uint8 interruptState;
 215:Generated_Source\PSoC5/CyDmac.c **** 
 216:Generated_Source\PSoC5/CyDmac.c ****     if(chHandle < CY_DMA_NUMBEROF_CHANNELS)
 241              		.loc 1 216 0
 242 0000 1728     		cmp	r0, #23
 243 0002 0FD8     		bhi	.L27
 212:Generated_Source\PSoC5/CyDmac.c ****     cystatus status = CYRET_BAD_PARAM;
 244              		.loc 1 212 0
 245 0004 10B5     		push	{r4, lr}
 246              		.cfi_def_cfa_offset 8
 247              		.cfi_offset 4, -8
 248              		.cfi_offset 14, -4
 249 0006 0446     		mov	r4, r0
 217:Generated_Source\PSoC5/CyDmac.c ****     {
 218:Generated_Source\PSoC5/CyDmac.c ****         /* Enter critical section */
 219:Generated_Source\PSoC5/CyDmac.c ****         interruptState = CyEnterCriticalSection();
 250              		.loc 1 219 0
 251 0008 FFF7FEFF 		bl	CyEnterCriticalSection
 252              	.LVL22:
 220:Generated_Source\PSoC5/CyDmac.c **** 
 221:Generated_Source\PSoC5/CyDmac.c ****         /* Clear bit mask that keeps track of ownership. */
 222:Generated_Source\PSoC5/CyDmac.c ****         CyDmaChannels &= ~(((uint32) 1u) << chHandle);
 253              		.loc 1 222 0
 254 000c 064A     		ldr	r2, .L30
 255 000e 0123     		movs	r3, #1
 256 0010 03FA04F4 		lsl	r4, r3, r4
 257 0014 5368     		ldr	r3, [r2, #4]
 258 0016 23EA0403 		bic	r3, r3, r4
 259 001a 5360     		str	r3, [r2, #4]
 223:Generated_Source\PSoC5/CyDmac.c **** 
 224:Generated_Source\PSoC5/CyDmac.c ****         /* Exit critical section */
 225:Generated_Source\PSoC5/CyDmac.c ****         CyExitCriticalSection(interruptState);
 260              		.loc 1 225 0
 261 001c FFF7FEFF 		bl	CyExitCriticalSection
 262              	.LVL23:
 226:Generated_Source\PSoC5/CyDmac.c ****         status = CYRET_SUCCESS;
 263              		.loc 1 226 0
 264 0020 0020     		movs	r0, #0
 265 0022 10BD     		pop	{r4, pc}
 266              	.LVL24:
 267              	.L27:
 268              		.cfi_def_cfa_offset 0
 269              		.cfi_restore 4
 270              		.cfi_restore 14
 213:Generated_Source\PSoC5/CyDmac.c ****     uint8 interruptState;
 271              		.loc 1 213 0
 272 0024 0120     		movs	r0, #1
 273              	.LVL25:
 274 0026 7047     		bx	lr
 275              	.L31:
 276              		.align	2
 277              	.L30:
 278 0028 00000000 		.word	.LANCHOR0
 279              		.cfi_endproc
 280              	.LFE5:
ARM GAS  C:\Users\ingan\AppData\Local\Temp\ccY20xfO.s 			page 10


 281              		.size	CyDmaChFree, .-CyDmaChFree
 282              		.section	.text.CyDmaChEnable,"ax",%progbits
 283              		.align	2
 284              		.global	CyDmaChEnable
 285              		.thumb
 286              		.thumb_func
 287              		.type	CyDmaChEnable, %function
 288              	CyDmaChEnable:
 289              	.LFB6:
 227:Generated_Source\PSoC5/CyDmac.c ****     }
 228:Generated_Source\PSoC5/CyDmac.c **** 
 229:Generated_Source\PSoC5/CyDmac.c ****     return(status);
 230:Generated_Source\PSoC5/CyDmac.c **** }
 231:Generated_Source\PSoC5/CyDmac.c **** 
 232:Generated_Source\PSoC5/CyDmac.c **** 
 233:Generated_Source\PSoC5/CyDmac.c **** /*******************************************************************************
 234:Generated_Source\PSoC5/CyDmac.c **** * Function Name: CyDmaChEnable
 235:Generated_Source\PSoC5/CyDmac.c **** ****************************************************************************//**
 236:Generated_Source\PSoC5/CyDmac.c **** *
 237:Generated_Source\PSoC5/CyDmac.c **** *  Enables the DMA channel. A software or hardware request still must happen
 238:Generated_Source\PSoC5/CyDmac.c **** *  before the channel is executed.
 239:Generated_Source\PSoC5/CyDmac.c **** *
 240:Generated_Source\PSoC5/CyDmac.c **** *  \param chHandle A handle previously returned by \ref CyDmaChAlloc() or \ref
 241:Generated_Source\PSoC5/CyDmac.c **** *  DMA_DmaInitalize().
 242:Generated_Source\PSoC5/CyDmac.c **** *
 243:Generated_Source\PSoC5/CyDmac.c **** *  \param preserveTds Preserves the original TD state when the TD has completed.
 244:Generated_Source\PSoC5/CyDmac.c **** *  This parameter applies to all TDs in the channel.
 245:Generated_Source\PSoC5/CyDmac.c **** *
 246:Generated_Source\PSoC5/CyDmac.c **** *   0 - When TD is completed, the DMAC leaves the TD configuration values in
 247:Generated_Source\PSoC5/CyDmac.c **** *   their current state, and does not restore them to their original state.
 248:Generated_Source\PSoC5/CyDmac.c **** *
 249:Generated_Source\PSoC5/CyDmac.c **** *   1 - When TD is completed, the DMAC restores the original configuration
 250:Generated_Source\PSoC5/CyDmac.c **** *   values of the TD.
 251:Generated_Source\PSoC5/CyDmac.c **** *
 252:Generated_Source\PSoC5/CyDmac.c **** *  When preserveTds is set, the TD slot that equals the channel number becomes
 253:Generated_Source\PSoC5/CyDmac.c **** *  RESERVED and that becomes where the working registers exist. So, for example,
 254:Generated_Source\PSoC5/CyDmac.c **** *  if you are using CH06 and preserveTds is set, you are not allowed to use TD
 255:Generated_Source\PSoC5/CyDmac.c **** *  slot 6. That is reclaimed by the DMA engine for its private use.
 256:Generated_Source\PSoC5/CyDmac.c **** *
 257:Generated_Source\PSoC5/CyDmac.c **** *  \note Do not chain back to a completed TD if the preserveTds for the channel
 258:Generated_Source\PSoC5/CyDmac.c **** *  is set to 0. When a TD has completed preserveTds for the channel set to 0,
 259:Generated_Source\PSoC5/CyDmac.c **** *  the transfer count will be at 0. If a TD with a transfer count of 0 is
 260:Generated_Source\PSoC5/CyDmac.c **** *  started, the TD will transfer an indefinite amount of data.
 261:Generated_Source\PSoC5/CyDmac.c **** *
 262:Generated_Source\PSoC5/CyDmac.c **** *  Take extra precautions when using the hardware request (DRQ) option when the
 263:Generated_Source\PSoC5/CyDmac.c **** *  preserveTds is set to 0, as you might be requesting the wrong data.
 264:Generated_Source\PSoC5/CyDmac.c **** *
 265:Generated_Source\PSoC5/CyDmac.c **** * \return CYRET_SUCCESS if successful.
 266:Generated_Source\PSoC5/CyDmac.c **** * \return CYRET_BAD_PARAM if chHandle is invalid.
 267:Generated_Source\PSoC5/CyDmac.c **** *
 268:Generated_Source\PSoC5/CyDmac.c **** *******************************************************************************/
 269:Generated_Source\PSoC5/CyDmac.c **** cystatus CyDmaChEnable(uint8 chHandle, uint8 preserveTds) 
 270:Generated_Source\PSoC5/CyDmac.c **** {
 290              		.loc 1 270 0
 291              		.cfi_startproc
 292              		@ args = 0, pretend = 0, frame = 0
 293              		@ frame_needed = 0, uses_anonymous_args = 0
ARM GAS  C:\Users\ingan\AppData\Local\Temp\ccY20xfO.s 			page 11


 294              		@ link register save eliminated.
 295              	.LVL26:
 271:Generated_Source\PSoC5/CyDmac.c ****     cystatus status = CYRET_BAD_PARAM;
 272:Generated_Source\PSoC5/CyDmac.c **** 
 273:Generated_Source\PSoC5/CyDmac.c ****     if(chHandle < CY_DMA_NUMBEROF_CHANNELS)
 296              		.loc 1 273 0
 297 0000 1728     		cmp	r0, #23
 298 0002 15D8     		bhi	.L36
 274:Generated_Source\PSoC5/CyDmac.c ****     {
 275:Generated_Source\PSoC5/CyDmac.c ****         if (0u != preserveTds)
 299              		.loc 1 275 0
 300 0004 31B1     		cbz	r1, .L34
 276:Generated_Source\PSoC5/CyDmac.c ****         {
 277:Generated_Source\PSoC5/CyDmac.c ****             /* Store intermediate TD states separately in CHn_SEP_TD0/1 to
 278:Generated_Source\PSoC5/CyDmac.c ****             *  preserve original TD chain
 279:Generated_Source\PSoC5/CyDmac.c ****             */
 280:Generated_Source\PSoC5/CyDmac.c ****             CY_DMA_CH_STRUCT_PTR[chHandle].basic_cfg[0u] |= CY_DMA_CH_BASIC_CFG_WORK_SEP;
 301              		.loc 1 280 0
 302 0006 0301     		lsls	r3, r0, #4
 303 0008 0A49     		ldr	r1, .L37
 304              	.LVL27:
 305 000a 5A5C     		ldrb	r2, [r3, r1]	@ zero_extendqisi2
 306 000c 42F02002 		orr	r2, r2, #32
 307 0010 5A54     		strb	r2, [r3, r1]
 308 0012 05E0     		b	.L35
 309              	.LVL28:
 310              	.L34:
 281:Generated_Source\PSoC5/CyDmac.c ****         }
 282:Generated_Source\PSoC5/CyDmac.c ****         else
 283:Generated_Source\PSoC5/CyDmac.c ****         {
 284:Generated_Source\PSoC5/CyDmac.c ****             /* Store intermediate and final TD states on top of original TD chain */
 285:Generated_Source\PSoC5/CyDmac.c ****             CY_DMA_CH_STRUCT_PTR[chHandle].basic_cfg[0u] &= (uint8)(~CY_DMA_CH_BASIC_CFG_WORK_SEP);
 311              		.loc 1 285 0
 312 0014 0301     		lsls	r3, r0, #4
 313 0016 0749     		ldr	r1, .L37
 314              	.LVL29:
 315 0018 5A5C     		ldrb	r2, [r3, r1]	@ zero_extendqisi2
 316 001a 02F0DF02 		and	r2, r2, #223
 317 001e 5A54     		strb	r2, [r3, r1]
 318              	.L35:
 286:Generated_Source\PSoC5/CyDmac.c ****         }
 287:Generated_Source\PSoC5/CyDmac.c **** 
 288:Generated_Source\PSoC5/CyDmac.c ****         /* Enable channel */
 289:Generated_Source\PSoC5/CyDmac.c ****         CY_DMA_CH_STRUCT_PTR[chHandle].basic_cfg[0u] |= CY_DMA_CH_BASIC_CFG_EN;
 319              		.loc 1 289 0
 320 0020 0001     		lsls	r0, r0, #4
 321              	.LVL30:
 322 0022 044A     		ldr	r2, .L37
 323 0024 835C     		ldrb	r3, [r0, r2]	@ zero_extendqisi2
 324 0026 43F00103 		orr	r3, r3, #1
 325 002a 8354     		strb	r3, [r0, r2]
 326              	.LVL31:
 290:Generated_Source\PSoC5/CyDmac.c **** 
 291:Generated_Source\PSoC5/CyDmac.c ****         status = CYRET_SUCCESS;
 327              		.loc 1 291 0
 328 002c 0020     		movs	r0, #0
 329 002e 7047     		bx	lr
ARM GAS  C:\Users\ingan\AppData\Local\Temp\ccY20xfO.s 			page 12


 330              	.LVL32:
 331              	.L36:
 271:Generated_Source\PSoC5/CyDmac.c **** 
 332              		.loc 1 271 0
 333 0030 0120     		movs	r0, #1
 334              	.LVL33:
 292:Generated_Source\PSoC5/CyDmac.c ****     }
 293:Generated_Source\PSoC5/CyDmac.c **** 
 294:Generated_Source\PSoC5/CyDmac.c ****     return(status);
 295:Generated_Source\PSoC5/CyDmac.c **** }
 335              		.loc 1 295 0
 336 0032 7047     		bx	lr
 337              	.L38:
 338              		.align	2
 339              	.L37:
 340 0034 10700040 		.word	1073770512
 341              		.cfi_endproc
 342              	.LFE6:
 343              		.size	CyDmaChEnable, .-CyDmaChEnable
 344              		.section	.text.CyDmaChDisable,"ax",%progbits
 345              		.align	2
 346              		.global	CyDmaChDisable
 347              		.thumb
 348              		.thumb_func
 349              		.type	CyDmaChDisable, %function
 350              	CyDmaChDisable:
 351              	.LFB7:
 296:Generated_Source\PSoC5/CyDmac.c **** 
 297:Generated_Source\PSoC5/CyDmac.c **** 
 298:Generated_Source\PSoC5/CyDmac.c **** /*******************************************************************************
 299:Generated_Source\PSoC5/CyDmac.c **** * Function Name: CyDmaChDisable
 300:Generated_Source\PSoC5/CyDmac.c **** ****************************************************************************//**
 301:Generated_Source\PSoC5/CyDmac.c **** *
 302:Generated_Source\PSoC5/CyDmac.c **** * Disables the DMA channel. Once this function is called, CyDmaChStatus() may
 303:Generated_Source\PSoC5/CyDmac.c **** * be called to determine when the channel is disabled and which TDs were being
 304:Generated_Source\PSoC5/CyDmac.c **** * executed.
 305:Generated_Source\PSoC5/CyDmac.c **** *
 306:Generated_Source\PSoC5/CyDmac.c **** * If it is currently executing it will allow the current burst to finish
 307:Generated_Source\PSoC5/CyDmac.c **** * naturally.
 308:Generated_Source\PSoC5/CyDmac.c **** *
 309:Generated_Source\PSoC5/CyDmac.c **** * \param chHandle A handle previously returned by \ref CyDmaChAlloc() or \ref
 310:Generated_Source\PSoC5/CyDmac.c **** * DMA_DmaInitalize().
 311:Generated_Source\PSoC5/CyDmac.c **** *
 312:Generated_Source\PSoC5/CyDmac.c **** * \return CYRET_SUCCESS if successful.
 313:Generated_Source\PSoC5/CyDmac.c **** * \return CYRET_BAD_PARAM if chHandle is invalid.
 314:Generated_Source\PSoC5/CyDmac.c **** *
 315:Generated_Source\PSoC5/CyDmac.c **** *******************************************************************************/
 316:Generated_Source\PSoC5/CyDmac.c **** cystatus CyDmaChDisable(uint8 chHandle) 
 317:Generated_Source\PSoC5/CyDmac.c **** {
 352              		.loc 1 317 0
 353              		.cfi_startproc
 354              		@ args = 0, pretend = 0, frame = 0
 355              		@ frame_needed = 0, uses_anonymous_args = 0
 356              		@ link register save eliminated.
 357              	.LVL34:
 318:Generated_Source\PSoC5/CyDmac.c ****     cystatus status = CYRET_BAD_PARAM;
 319:Generated_Source\PSoC5/CyDmac.c **** 
ARM GAS  C:\Users\ingan\AppData\Local\Temp\ccY20xfO.s 			page 13


 320:Generated_Source\PSoC5/CyDmac.c ****     if(chHandle < CY_DMA_NUMBEROF_CHANNELS)
 358              		.loc 1 320 0
 359 0000 1728     		cmp	r0, #23
 360 0002 0BD8     		bhi	.L41
 321:Generated_Source\PSoC5/CyDmac.c ****     {
 322:Generated_Source\PSoC5/CyDmac.c ****         /***********************************************************************
 323:Generated_Source\PSoC5/CyDmac.c ****         * Should not change configuration information of a DMA channel when it
 324:Generated_Source\PSoC5/CyDmac.c ****         * is active (or vulnerable to becoming active).
 325:Generated_Source\PSoC5/CyDmac.c ****         ***********************************************************************/
 326:Generated_Source\PSoC5/CyDmac.c **** 
 327:Generated_Source\PSoC5/CyDmac.c ****         /* Disable channel */
 328:Generated_Source\PSoC5/CyDmac.c ****         CY_DMA_CH_STRUCT_PTR[chHandle].basic_cfg[0] &= ((uint8) (~CY_DMA_CH_BASIC_CFG_EN));
 361              		.loc 1 328 0
 362 0004 0001     		lsls	r0, r0, #4
 363              	.LVL35:
 364 0006 064B     		ldr	r3, .L42
 365 0008 C25C     		ldrb	r2, [r0, r3]	@ zero_extendqisi2
 366 000a 02F0FE02 		and	r2, r2, #254
 367 000e C254     		strb	r2, [r0, r3]
 329:Generated_Source\PSoC5/CyDmac.c **** 
 330:Generated_Source\PSoC5/CyDmac.c ****         /* Store intermediate and final TD states on top of original TD chain */
 331:Generated_Source\PSoC5/CyDmac.c ****         CY_DMA_CH_STRUCT_PTR[chHandle].basic_cfg[0] &= ((uint8) (~CY_DMA_CH_BASIC_CFG_WORK_SEP));
 368              		.loc 1 331 0
 369 0010 C25C     		ldrb	r2, [r0, r3]	@ zero_extendqisi2
 370 0012 02F0DF02 		and	r2, r2, #223
 371 0016 C254     		strb	r2, [r0, r3]
 372              	.LVL36:
 332:Generated_Source\PSoC5/CyDmac.c ****         status = CYRET_SUCCESS;
 373              		.loc 1 332 0
 374 0018 0020     		movs	r0, #0
 375 001a 7047     		bx	lr
 376              	.LVL37:
 377              	.L41:
 318:Generated_Source\PSoC5/CyDmac.c **** 
 378              		.loc 1 318 0
 379 001c 0120     		movs	r0, #1
 380              	.LVL38:
 333:Generated_Source\PSoC5/CyDmac.c ****     }
 334:Generated_Source\PSoC5/CyDmac.c **** 
 335:Generated_Source\PSoC5/CyDmac.c ****     return(status);
 336:Generated_Source\PSoC5/CyDmac.c **** }
 381              		.loc 1 336 0
 382 001e 7047     		bx	lr
 383              	.L43:
 384              		.align	2
 385              	.L42:
 386 0020 10700040 		.word	1073770512
 387              		.cfi_endproc
 388              	.LFE7:
 389              		.size	CyDmaChDisable, .-CyDmaChDisable
 390              		.section	.text.CyDmaClearPendingDrq,"ax",%progbits
 391              		.align	2
 392              		.global	CyDmaClearPendingDrq
 393              		.thumb
 394              		.thumb_func
 395              		.type	CyDmaClearPendingDrq, %function
 396              	CyDmaClearPendingDrq:
ARM GAS  C:\Users\ingan\AppData\Local\Temp\ccY20xfO.s 			page 14


 397              	.LFB8:
 337:Generated_Source\PSoC5/CyDmac.c **** 
 338:Generated_Source\PSoC5/CyDmac.c **** 
 339:Generated_Source\PSoC5/CyDmac.c **** /*******************************************************************************
 340:Generated_Source\PSoC5/CyDmac.c **** * Function Name: CyDmaClearPendingDrq
 341:Generated_Source\PSoC5/CyDmac.c **** ****************************************************************************//**
 342:Generated_Source\PSoC5/CyDmac.c **** *
 343:Generated_Source\PSoC5/CyDmac.c **** * Clears pending the DMA data request.
 344:Generated_Source\PSoC5/CyDmac.c **** *
 345:Generated_Source\PSoC5/CyDmac.c **** * \param chHandle Handle to the dma channel.
 346:Generated_Source\PSoC5/CyDmac.c **** *
 347:Generated_Source\PSoC5/CyDmac.c **** * \return CYRET_SUCCESS if successful.
 348:Generated_Source\PSoC5/CyDmac.c **** * \return CYRET_BAD_PARAM if chHandle is invalid.
 349:Generated_Source\PSoC5/CyDmac.c **** *
 350:Generated_Source\PSoC5/CyDmac.c **** *******************************************************************************/
 351:Generated_Source\PSoC5/CyDmac.c **** cystatus CyDmaClearPendingDrq(uint8 chHandle) 
 352:Generated_Source\PSoC5/CyDmac.c **** {
 398              		.loc 1 352 0
 399              		.cfi_startproc
 400              		@ args = 0, pretend = 0, frame = 0
 401              		@ frame_needed = 0, uses_anonymous_args = 0
 402              		@ link register save eliminated.
 403              	.LVL39:
 353:Generated_Source\PSoC5/CyDmac.c ****     cystatus status = CYRET_BAD_PARAM;
 354:Generated_Source\PSoC5/CyDmac.c **** 
 355:Generated_Source\PSoC5/CyDmac.c ****     if(chHandle < CY_DMA_NUMBEROF_CHANNELS)
 404              		.loc 1 355 0
 405 0000 1728     		cmp	r0, #23
 406 0002 0CD8     		bhi	.L46
 356:Generated_Source\PSoC5/CyDmac.c ****     {
 357:Generated_Source\PSoC5/CyDmac.c ****         CY_DMA_CH_STRUCT_PTR[chHandle].action[0] |= CY_DMA_CPU_TERM_CHAIN;
 407              		.loc 1 357 0
 408 0004 0001     		lsls	r0, r0, #4
 409              	.LVL40:
 410 0006 074B     		ldr	r3, .L47
 411 0008 C118     		adds	r1, r0, r3
 412 000a 0A79     		ldrb	r2, [r1, #4]	@ zero_extendqisi2
 413 000c 42F00402 		orr	r2, r2, #4
 414 0010 0A71     		strb	r2, [r1, #4]
 358:Generated_Source\PSoC5/CyDmac.c ****         CY_DMA_CH_STRUCT_PTR[chHandle].basic_cfg[0] |= 0x01u;
 415              		.loc 1 358 0
 416 0012 C25C     		ldrb	r2, [r0, r3]	@ zero_extendqisi2
 417 0014 42F00102 		orr	r2, r2, #1
 418 0018 C254     		strb	r2, [r0, r3]
 419              	.LVL41:
 359:Generated_Source\PSoC5/CyDmac.c ****         status = CYRET_SUCCESS;
 420              		.loc 1 359 0
 421 001a 0020     		movs	r0, #0
 422 001c 7047     		bx	lr
 423              	.LVL42:
 424              	.L46:
 353:Generated_Source\PSoC5/CyDmac.c **** 
 425              		.loc 1 353 0
 426 001e 0120     		movs	r0, #1
 427              	.LVL43:
 360:Generated_Source\PSoC5/CyDmac.c ****     }
 361:Generated_Source\PSoC5/CyDmac.c **** 
ARM GAS  C:\Users\ingan\AppData\Local\Temp\ccY20xfO.s 			page 15


 362:Generated_Source\PSoC5/CyDmac.c ****     return(status);
 363:Generated_Source\PSoC5/CyDmac.c **** }
 428              		.loc 1 363 0
 429 0020 7047     		bx	lr
 430              	.L48:
 431 0022 00BF     		.align	2
 432              	.L47:
 433 0024 10700040 		.word	1073770512
 434              		.cfi_endproc
 435              	.LFE8:
 436              		.size	CyDmaClearPendingDrq, .-CyDmaClearPendingDrq
 437              		.section	.text.CyDmaChPriority,"ax",%progbits
 438              		.align	2
 439              		.global	CyDmaChPriority
 440              		.thumb
 441              		.thumb_func
 442              		.type	CyDmaChPriority, %function
 443              	CyDmaChPriority:
 444              	.LFB9:
 364:Generated_Source\PSoC5/CyDmac.c **** 
 365:Generated_Source\PSoC5/CyDmac.c **** 
 366:Generated_Source\PSoC5/CyDmac.c **** /*******************************************************************************
 367:Generated_Source\PSoC5/CyDmac.c **** * Function Name: CyDmaChPriority
 368:Generated_Source\PSoC5/CyDmac.c **** ****************************************************************************//**
 369:Generated_Source\PSoC5/CyDmac.c **** *
 370:Generated_Source\PSoC5/CyDmac.c **** *  Sets the priority of a DMA channel. You can use this function when you want
 371:Generated_Source\PSoC5/CyDmac.c **** *  to change the priority at run time. If the priority remains the same for a
 372:Generated_Source\PSoC5/CyDmac.c **** *  DMA channel, then you can configure the priority in the .cydwr file.
 373:Generated_Source\PSoC5/CyDmac.c **** *
 374:Generated_Source\PSoC5/CyDmac.c **** *  \param chHandle A handle previously returned by \ref CyDmaChAlloc() or \ref
 375:Generated_Source\PSoC5/CyDmac.c **** *  DMA_DmaInitalize().
 376:Generated_Source\PSoC5/CyDmac.c **** *
 377:Generated_Source\PSoC5/CyDmac.c **** *  \param priority Priority to set the channel to, 0 - 7.
 378:Generated_Source\PSoC5/CyDmac.c **** *
 379:Generated_Source\PSoC5/CyDmac.c **** * \return CYRET_SUCCESS if successful.
 380:Generated_Source\PSoC5/CyDmac.c **** *  \return CYRET_BAD_PARAM if chHandle is invalid.
 381:Generated_Source\PSoC5/CyDmac.c **** *
 382:Generated_Source\PSoC5/CyDmac.c **** *******************************************************************************/
 383:Generated_Source\PSoC5/CyDmac.c **** cystatus CyDmaChPriority(uint8 chHandle, uint8 priority) 
 384:Generated_Source\PSoC5/CyDmac.c **** {
 445              		.loc 1 384 0
 446              		.cfi_startproc
 447              		@ args = 0, pretend = 0, frame = 0
 448              		@ frame_needed = 0, uses_anonymous_args = 0
 449              		@ link register save eliminated.
 450              	.LVL44:
 385:Generated_Source\PSoC5/CyDmac.c ****     uint8 value;
 386:Generated_Source\PSoC5/CyDmac.c ****     cystatus status = CYRET_BAD_PARAM;
 387:Generated_Source\PSoC5/CyDmac.c **** 
 388:Generated_Source\PSoC5/CyDmac.c ****     if(chHandle < CY_DMA_NUMBEROF_CHANNELS)
 451              		.loc 1 388 0
 452 0000 1728     		cmp	r0, #23
 453 0002 0BD8     		bhi	.L51
 389:Generated_Source\PSoC5/CyDmac.c ****     {
 390:Generated_Source\PSoC5/CyDmac.c ****         value = CY_DMA_CH_STRUCT_PTR[chHandle].basic_cfg[0u] & ((uint8)(~(0x0Eu)));
 454              		.loc 1 390 0
 455 0004 0001     		lsls	r0, r0, #4
ARM GAS  C:\Users\ingan\AppData\Local\Temp\ccY20xfO.s 			page 16


 456              	.LVL45:
 457 0006 064A     		ldr	r2, .L52
 458 0008 835C     		ldrb	r3, [r0, r2]	@ zero_extendqisi2
 459              	.LVL46:
 391:Generated_Source\PSoC5/CyDmac.c **** 
 392:Generated_Source\PSoC5/CyDmac.c ****         CY_DMA_CH_STRUCT_PTR[chHandle].basic_cfg[0u] = value | ((uint8) ((priority & 0x7u) << 0x01u
 460              		.loc 1 392 0
 461 000a 4900     		lsls	r1, r1, #1
 462              	.LVL47:
 463 000c 01F00E01 		and	r1, r1, #14
 464 0010 03F0F103 		and	r3, r3, #241
 465              	.LVL48:
 466 0014 1943     		orrs	r1, r1, r3
 467 0016 8154     		strb	r1, [r0, r2]
 468              	.LVL49:
 393:Generated_Source\PSoC5/CyDmac.c **** 
 394:Generated_Source\PSoC5/CyDmac.c ****         status = CYRET_SUCCESS;
 469              		.loc 1 394 0
 470 0018 0020     		movs	r0, #0
 471 001a 7047     		bx	lr
 472              	.LVL50:
 473              	.L51:
 386:Generated_Source\PSoC5/CyDmac.c **** 
 474              		.loc 1 386 0
 475 001c 0120     		movs	r0, #1
 476              	.LVL51:
 395:Generated_Source\PSoC5/CyDmac.c ****     }
 396:Generated_Source\PSoC5/CyDmac.c **** 
 397:Generated_Source\PSoC5/CyDmac.c ****     return(status);
 398:Generated_Source\PSoC5/CyDmac.c **** }
 477              		.loc 1 398 0
 478 001e 7047     		bx	lr
 479              	.L53:
 480              		.align	2
 481              	.L52:
 482 0020 10700040 		.word	1073770512
 483              		.cfi_endproc
 484              	.LFE9:
 485              		.size	CyDmaChPriority, .-CyDmaChPriority
 486              		.section	.text.CyDmaChSetExtendedAddress,"ax",%progbits
 487              		.align	2
 488              		.global	CyDmaChSetExtendedAddress
 489              		.thumb
 490              		.thumb_func
 491              		.type	CyDmaChSetExtendedAddress, %function
 492              	CyDmaChSetExtendedAddress:
 493              	.LFB10:
 399:Generated_Source\PSoC5/CyDmac.c **** 
 400:Generated_Source\PSoC5/CyDmac.c **** 
 401:Generated_Source\PSoC5/CyDmac.c **** /*******************************************************************************
 402:Generated_Source\PSoC5/CyDmac.c **** * Function Name: CyDmaChSetExtendedAddress
 403:Generated_Source\PSoC5/CyDmac.c **** ****************************************************************************//**
 404:Generated_Source\PSoC5/CyDmac.c **** *
 405:Generated_Source\PSoC5/CyDmac.c **** *  Sets the high 16 bits of the source and destination addresses for the DMA
 406:Generated_Source\PSoC5/CyDmac.c **** *  channel (valid for all TDs in the chain).
 407:Generated_Source\PSoC5/CyDmac.c **** *
 408:Generated_Source\PSoC5/CyDmac.c **** *  \param chHandle A handle previously returned by \ref CyDmaChAlloc() or \ref
ARM GAS  C:\Users\ingan\AppData\Local\Temp\ccY20xfO.s 			page 17


 409:Generated_Source\PSoC5/CyDmac.c **** *  DMA_DmaInitalize().
 410:Generated_Source\PSoC5/CyDmac.c **** *
 411:Generated_Source\PSoC5/CyDmac.c **** *  \param source Upper 16 bit address of the DMA transfer source.
 412:Generated_Source\PSoC5/CyDmac.c **** *
 413:Generated_Source\PSoC5/CyDmac.c **** *  \param destination Upper 16 bit address of the DMA transfer destination.
 414:Generated_Source\PSoC5/CyDmac.c **** *
 415:Generated_Source\PSoC5/CyDmac.c **** * \return CYRET_SUCCESS if successful.
 416:Generated_Source\PSoC5/CyDmac.c **** * \return CYRET_BAD_PARAM if chHandle is invalid.
 417:Generated_Source\PSoC5/CyDmac.c **** *
 418:Generated_Source\PSoC5/CyDmac.c **** *******************************************************************************/
 419:Generated_Source\PSoC5/CyDmac.c **** cystatus CyDmaChSetExtendedAddress(uint8 chHandle, uint16 source, uint16 destination) \
 420:Generated_Source\PSoC5/CyDmac.c ****     
 421:Generated_Source\PSoC5/CyDmac.c **** {
 494              		.loc 1 421 0
 495              		.cfi_startproc
 496              		@ args = 0, pretend = 0, frame = 0
 497              		@ frame_needed = 0, uses_anonymous_args = 0
 498              		@ link register save eliminated.
 499              	.LVL52:
 422:Generated_Source\PSoC5/CyDmac.c ****     cystatus status = CYRET_BAD_PARAM;
 423:Generated_Source\PSoC5/CyDmac.c ****     reg16 *convert;
 424:Generated_Source\PSoC5/CyDmac.c **** 
 425:Generated_Source\PSoC5/CyDmac.c ****     #if(CY_PSOC5)
 426:Generated_Source\PSoC5/CyDmac.c **** 
 427:Generated_Source\PSoC5/CyDmac.c ****         /* 0x1FFF8000-0x1FFFFFFF needs to use alias at 0x20008000-0x2000FFFF */
 428:Generated_Source\PSoC5/CyDmac.c ****         if(source == 0x1FFFu)
 429:Generated_Source\PSoC5/CyDmac.c ****         {
 430:Generated_Source\PSoC5/CyDmac.c ****             source = 0x2000u;
 500              		.loc 1 430 0
 501 0000 41F6FF73 		movw	r3, #8191
 502 0004 9942     		cmp	r1, r3
 503 0006 08BF     		it	eq
 504 0008 4FF40051 		moveq	r1, #8192
 505              	.LVL53:
 431:Generated_Source\PSoC5/CyDmac.c ****         }
 432:Generated_Source\PSoC5/CyDmac.c **** 
 433:Generated_Source\PSoC5/CyDmac.c ****         if(destination == 0x1FFFu)
 434:Generated_Source\PSoC5/CyDmac.c ****         {
 435:Generated_Source\PSoC5/CyDmac.c ****             destination = 0x2000u;
 506              		.loc 1 435 0
 507 000c 9A42     		cmp	r2, r3
 508 000e 08BF     		it	eq
 509 0010 4FF40052 		moveq	r2, #8192
 510              	.LVL54:
 436:Generated_Source\PSoC5/CyDmac.c ****         }
 437:Generated_Source\PSoC5/CyDmac.c **** 
 438:Generated_Source\PSoC5/CyDmac.c ****     #endif  /* (CY_PSOC5) */
 439:Generated_Source\PSoC5/CyDmac.c **** 
 440:Generated_Source\PSoC5/CyDmac.c **** 
 441:Generated_Source\PSoC5/CyDmac.c ****     if(chHandle < CY_DMA_NUMBEROF_CHANNELS)
 511              		.loc 1 441 0
 512 0014 1728     		cmp	r0, #23
 513 0016 08D8     		bhi	.L58
 442:Generated_Source\PSoC5/CyDmac.c ****     {
 443:Generated_Source\PSoC5/CyDmac.c ****         /* Set source address */
 444:Generated_Source\PSoC5/CyDmac.c ****         convert = (reg16 *) &CY_DMA_CFGMEM_STRUCT_PTR[chHandle].CFG1[0];
 514              		.loc 1 444 0
ARM GAS  C:\Users\ingan\AppData\Local\Temp\ccY20xfO.s 			page 18


 515 0018 C000     		lsls	r0, r0, #3
 516              	.LVL55:
 517 001a 00F18040 		add	r0, r0, #1073741824
 518 001e 00F5EC40 		add	r0, r0, #30208
 519              	.LVL56:
 445:Generated_Source\PSoC5/CyDmac.c ****         CY_SET_REG16(convert, source);
 520              		.loc 1 445 0
 521 0022 8180     		strh	r1, [r0, #4]	@ movhi
 522              	.LVL57:
 446:Generated_Source\PSoC5/CyDmac.c **** 
 447:Generated_Source\PSoC5/CyDmac.c ****         /* Set destination address */
 448:Generated_Source\PSoC5/CyDmac.c ****         convert = (reg16 *) &CY_DMA_CFGMEM_STRUCT_PTR[chHandle].CFG1[2u];
 449:Generated_Source\PSoC5/CyDmac.c ****         CY_SET_REG16(convert, destination);
 523              		.loc 1 449 0
 524 0024 C280     		strh	r2, [r0, #6]	@ movhi
 525              	.LVL58:
 450:Generated_Source\PSoC5/CyDmac.c ****         status = CYRET_SUCCESS;
 526              		.loc 1 450 0
 527 0026 0020     		movs	r0, #0
 528              	.LVL59:
 529 0028 7047     		bx	lr
 530              	.LVL60:
 531              	.L58:
 422:Generated_Source\PSoC5/CyDmac.c ****     reg16 *convert;
 532              		.loc 1 422 0
 533 002a 0120     		movs	r0, #1
 534              	.LVL61:
 451:Generated_Source\PSoC5/CyDmac.c ****     }
 452:Generated_Source\PSoC5/CyDmac.c **** 
 453:Generated_Source\PSoC5/CyDmac.c ****     return(status);
 454:Generated_Source\PSoC5/CyDmac.c **** }
 535              		.loc 1 454 0
 536 002c 7047     		bx	lr
 537              		.cfi_endproc
 538              	.LFE10:
 539              		.size	CyDmaChSetExtendedAddress, .-CyDmaChSetExtendedAddress
 540 002e 00BF     		.section	.text.CyDmaChSetInitialTd,"ax",%progbits
 541              		.align	2
 542              		.global	CyDmaChSetInitialTd
 543              		.thumb
 544              		.thumb_func
 545              		.type	CyDmaChSetInitialTd, %function
 546              	CyDmaChSetInitialTd:
 547              	.LFB11:
 455:Generated_Source\PSoC5/CyDmac.c **** 
 456:Generated_Source\PSoC5/CyDmac.c **** 
 457:Generated_Source\PSoC5/CyDmac.c **** /*******************************************************************************
 458:Generated_Source\PSoC5/CyDmac.c **** * Function Name: CyDmaChSetInitialTd
 459:Generated_Source\PSoC5/CyDmac.c **** ****************************************************************************//**
 460:Generated_Source\PSoC5/CyDmac.c **** *
 461:Generated_Source\PSoC5/CyDmac.c **** * Sets the initial TD to be executed for the channel when the \ref CyDmaChEnable()
 462:Generated_Source\PSoC5/CyDmac.c **** * function is called.
 463:Generated_Source\PSoC5/CyDmac.c **** *
 464:Generated_Source\PSoC5/CyDmac.c **** * \param chHandle A handle previously returned by \ref CyDmaChAlloc() or
 465:Generated_Source\PSoC5/CyDmac.c **** * \ref DMA_DmaInitialize().
 466:Generated_Source\PSoC5/CyDmac.c **** *
 467:Generated_Source\PSoC5/CyDmac.c **** * \param startTd Set the TD index as the first TD associated with the
ARM GAS  C:\Users\ingan\AppData\Local\Temp\ccY20xfO.s 			page 19


 468:Generated_Source\PSoC5/CyDmac.c **** * channel. Zero is a valid TD index.
 469:Generated_Source\PSoC5/CyDmac.c **** *
 470:Generated_Source\PSoC5/CyDmac.c **** * \return CYRET_SUCCESS if successful.
 471:Generated_Source\PSoC5/CyDmac.c **** * \return CYRET_BAD_PARAM if chHandle is invalid.
 472:Generated_Source\PSoC5/CyDmac.c **** *
 473:Generated_Source\PSoC5/CyDmac.c **** *******************************************************************************/
 474:Generated_Source\PSoC5/CyDmac.c **** cystatus CyDmaChSetInitialTd(uint8 chHandle, uint8 startTd) 
 475:Generated_Source\PSoC5/CyDmac.c **** {
 548              		.loc 1 475 0
 549              		.cfi_startproc
 550              		@ args = 0, pretend = 0, frame = 0
 551              		@ frame_needed = 0, uses_anonymous_args = 0
 552              		@ link register save eliminated.
 553              	.LVL62:
 476:Generated_Source\PSoC5/CyDmac.c ****     cystatus status = CYRET_BAD_PARAM;
 477:Generated_Source\PSoC5/CyDmac.c **** 
 478:Generated_Source\PSoC5/CyDmac.c ****     if(chHandle < CY_DMA_NUMBEROF_CHANNELS)
 554              		.loc 1 478 0
 555 0000 1728     		cmp	r0, #23
 556 0002 05D8     		bhi	.L61
 479:Generated_Source\PSoC5/CyDmac.c ****     {
 480:Generated_Source\PSoC5/CyDmac.c ****         CY_DMA_CH_STRUCT_PTR[chHandle].basic_status[1u] = startTd;
 557              		.loc 1 480 0
 558 0004 034B     		ldr	r3, .L62
 559 0006 03EB0010 		add	r0, r3, r0, lsl #4
 560              	.LVL63:
 561 000a 4172     		strb	r1, [r0, #9]
 562              	.LVL64:
 481:Generated_Source\PSoC5/CyDmac.c ****         status = CYRET_SUCCESS;
 563              		.loc 1 481 0
 564 000c 0020     		movs	r0, #0
 565 000e 7047     		bx	lr
 566              	.LVL65:
 567              	.L61:
 476:Generated_Source\PSoC5/CyDmac.c ****     cystatus status = CYRET_BAD_PARAM;
 568              		.loc 1 476 0
 569 0010 0120     		movs	r0, #1
 570              	.LVL66:
 482:Generated_Source\PSoC5/CyDmac.c ****     }
 483:Generated_Source\PSoC5/CyDmac.c **** 
 484:Generated_Source\PSoC5/CyDmac.c ****     return(status);
 485:Generated_Source\PSoC5/CyDmac.c **** }
 571              		.loc 1 485 0
 572 0012 7047     		bx	lr
 573              	.L63:
 574              		.align	2
 575              	.L62:
 576 0014 10700040 		.word	1073770512
 577              		.cfi_endproc
 578              	.LFE11:
 579              		.size	CyDmaChSetInitialTd, .-CyDmaChSetInitialTd
 580              		.section	.text.CyDmaChSetRequest,"ax",%progbits
 581              		.align	2
 582              		.global	CyDmaChSetRequest
 583              		.thumb
 584              		.thumb_func
 585              		.type	CyDmaChSetRequest, %function
ARM GAS  C:\Users\ingan\AppData\Local\Temp\ccY20xfO.s 			page 20


 586              	CyDmaChSetRequest:
 587              	.LFB12:
 486:Generated_Source\PSoC5/CyDmac.c **** 
 487:Generated_Source\PSoC5/CyDmac.c **** 
 488:Generated_Source\PSoC5/CyDmac.c **** /*******************************************************************************
 489:Generated_Source\PSoC5/CyDmac.c **** * Function Name: CyDmaChSetRequest
 490:Generated_Source\PSoC5/CyDmac.c **** ****************************************************************************//**
 491:Generated_Source\PSoC5/CyDmac.c **** *
 492:Generated_Source\PSoC5/CyDmac.c **** *  Allows the caller to terminate a chain of TDs, terminate one TD, or create a
 493:Generated_Source\PSoC5/CyDmac.c **** *  direct request to start the DMA channel.
 494:Generated_Source\PSoC5/CyDmac.c **** *
 495:Generated_Source\PSoC5/CyDmac.c **** *  \param chHandle A handle previously returned by \ref CyDmaChAlloc() or \ref
 496:Generated_Source\PSoC5/CyDmac.c **** *  DMA_DmaInitalize().
 497:Generated_Source\PSoC5/CyDmac.c **** *
 498:Generated_Source\PSoC5/CyDmac.c **** *  \param request One of the following constants. Each of the constants is a
 499:Generated_Source\PSoC5/CyDmac.c **** *  three-bit value.
 500:Generated_Source\PSoC5/CyDmac.c **** *   CPU_REQ         - Create a direct request to start the DMA channel
 501:Generated_Source\PSoC5/CyDmac.c **** *   CPU_TERM_TD     - Terminate one TD
 502:Generated_Source\PSoC5/CyDmac.c **** *   CPU_TERM_CHAIN  - Terminate a chain of TDs
 503:Generated_Source\PSoC5/CyDmac.c **** *
 504:Generated_Source\PSoC5/CyDmac.c **** * \return CYRET_SUCCESS if successful.
 505:Generated_Source\PSoC5/CyDmac.c **** * \return CYRET_BAD_PARAM if chHandle is invalid.
 506:Generated_Source\PSoC5/CyDmac.c **** *
 507:Generated_Source\PSoC5/CyDmac.c **** *******************************************************************************/
 508:Generated_Source\PSoC5/CyDmac.c **** cystatus CyDmaChSetRequest(uint8 chHandle, uint8 request) 
 509:Generated_Source\PSoC5/CyDmac.c **** {
 588              		.loc 1 509 0
 589              		.cfi_startproc
 590              		@ args = 0, pretend = 0, frame = 0
 591              		@ frame_needed = 0, uses_anonymous_args = 0
 592              		@ link register save eliminated.
 593              	.LVL67:
 510:Generated_Source\PSoC5/CyDmac.c ****     cystatus status = CYRET_BAD_PARAM;
 511:Generated_Source\PSoC5/CyDmac.c **** 
 512:Generated_Source\PSoC5/CyDmac.c ****     if(chHandle < CY_DMA_NUMBEROF_CHANNELS)
 594              		.loc 1 512 0
 595 0000 1728     		cmp	r0, #23
 596 0002 09D8     		bhi	.L66
 513:Generated_Source\PSoC5/CyDmac.c ****     {
 514:Generated_Source\PSoC5/CyDmac.c ****         CY_DMA_CH_STRUCT_PTR[chHandle].action[0u] |= (request & (CPU_REQ | CPU_TERM_TD | CPU_TERM_C
 597              		.loc 1 514 0
 598 0004 054B     		ldr	r3, .L67
 599 0006 03EB0010 		add	r0, r3, r0, lsl #4
 600              	.LVL68:
 601 000a 0379     		ldrb	r3, [r0, #4]	@ zero_extendqisi2
 602 000c 01F00701 		and	r1, r1, #7
 603              	.LVL69:
 604 0010 1943     		orrs	r1, r1, r3
 605 0012 0171     		strb	r1, [r0, #4]
 606              	.LVL70:
 515:Generated_Source\PSoC5/CyDmac.c ****         status = CYRET_SUCCESS;
 607              		.loc 1 515 0
 608 0014 0020     		movs	r0, #0
 609 0016 7047     		bx	lr
 610              	.LVL71:
 611              	.L66:
 510:Generated_Source\PSoC5/CyDmac.c ****     cystatus status = CYRET_BAD_PARAM;
ARM GAS  C:\Users\ingan\AppData\Local\Temp\ccY20xfO.s 			page 21


 612              		.loc 1 510 0
 613 0018 0120     		movs	r0, #1
 614              	.LVL72:
 516:Generated_Source\PSoC5/CyDmac.c ****     }
 517:Generated_Source\PSoC5/CyDmac.c **** 
 518:Generated_Source\PSoC5/CyDmac.c ****     return(status);
 519:Generated_Source\PSoC5/CyDmac.c **** }
 615              		.loc 1 519 0
 616 001a 7047     		bx	lr
 617              	.L68:
 618              		.align	2
 619              	.L67:
 620 001c 10700040 		.word	1073770512
 621              		.cfi_endproc
 622              	.LFE12:
 623              		.size	CyDmaChSetRequest, .-CyDmaChSetRequest
 624              		.section	.text.CyDmaChGetRequest,"ax",%progbits
 625              		.align	2
 626              		.global	CyDmaChGetRequest
 627              		.thumb
 628              		.thumb_func
 629              		.type	CyDmaChGetRequest, %function
 630              	CyDmaChGetRequest:
 631              	.LFB13:
 520:Generated_Source\PSoC5/CyDmac.c **** 
 521:Generated_Source\PSoC5/CyDmac.c **** 
 522:Generated_Source\PSoC5/CyDmac.c **** /*******************************************************************************
 523:Generated_Source\PSoC5/CyDmac.c **** * Function Name: CyDmaChGetRequest
 524:Generated_Source\PSoC5/CyDmac.c **** ****************************************************************************//**
 525:Generated_Source\PSoC5/CyDmac.c **** *
 526:Generated_Source\PSoC5/CyDmac.c **** * This function allows the caller of \ref CyDmaChSetRequest() to determine if the
 527:Generated_Source\PSoC5/CyDmac.c **** * request was completed.
 528:Generated_Source\PSoC5/CyDmac.c **** *
 529:Generated_Source\PSoC5/CyDmac.c **** * \param chHandle A handle previously returned by \ref CyDmaChAlloc() or \ref
 530:Generated_Source\PSoC5/CyDmac.c **** * DMA_DmaInitalize().
 531:Generated_Source\PSoC5/CyDmac.c **** *
 532:Generated_Source\PSoC5/CyDmac.c **** * \return Returns a three-bit field, corresponding to the three bits of the
 533:Generated_Source\PSoC5/CyDmac.c **** * request, which describes the state of the previously posted request. If the
 534:Generated_Source\PSoC5/CyDmac.c **** * value is zero, the request was completed. CY_DMA_INVALID_CHANNEL if the handle
 535:Generated_Source\PSoC5/CyDmac.c **** * is invalid.
 536:Generated_Source\PSoC5/CyDmac.c **** *
 537:Generated_Source\PSoC5/CyDmac.c **** *******************************************************************************/
 538:Generated_Source\PSoC5/CyDmac.c **** cystatus CyDmaChGetRequest(uint8 chHandle) 
 539:Generated_Source\PSoC5/CyDmac.c **** {
 632              		.loc 1 539 0
 633              		.cfi_startproc
 634              		@ args = 0, pretend = 0, frame = 0
 635              		@ frame_needed = 0, uses_anonymous_args = 0
 636              		@ link register save eliminated.
 637              	.LVL73:
 540:Generated_Source\PSoC5/CyDmac.c ****     cystatus status = CY_DMA_INVALID_CHANNEL;
 541:Generated_Source\PSoC5/CyDmac.c **** 
 542:Generated_Source\PSoC5/CyDmac.c ****     if(chHandle < CY_DMA_NUMBEROF_CHANNELS)
 638              		.loc 1 542 0
 639 0000 1728     		cmp	r0, #23
 640 0002 06D8     		bhi	.L71
 543:Generated_Source\PSoC5/CyDmac.c ****     {
ARM GAS  C:\Users\ingan\AppData\Local\Temp\ccY20xfO.s 			page 22


 544:Generated_Source\PSoC5/CyDmac.c ****         status = (cystatus) ((uint32)CY_DMA_CH_STRUCT_PTR[chHandle].action[0u] &
 641              		.loc 1 544 0
 642 0004 044B     		ldr	r3, .L72
 643 0006 03EB0010 		add	r0, r3, r0, lsl #4
 644              	.LVL74:
 645 000a 0079     		ldrb	r0, [r0, #4]	@ zero_extendqisi2
 646 000c 00F00700 		and	r0, r0, #7
 647              	.LVL75:
 648 0010 7047     		bx	lr
 649              	.LVL76:
 650              	.L71:
 540:Generated_Source\PSoC5/CyDmac.c ****     cystatus status = CY_DMA_INVALID_CHANNEL;
 651              		.loc 1 540 0
 652 0012 FF20     		movs	r0, #255
 653              	.LVL77:
 545:Generated_Source\PSoC5/CyDmac.c ****                             (uint32)(CY_DMA_CPU_REQ | CY_DMA_CPU_TERM_TD | CY_DMA_CPU_TERM_CHAIN));
 546:Generated_Source\PSoC5/CyDmac.c ****     }
 547:Generated_Source\PSoC5/CyDmac.c **** 
 548:Generated_Source\PSoC5/CyDmac.c ****     return(status);
 549:Generated_Source\PSoC5/CyDmac.c **** }
 654              		.loc 1 549 0
 655 0014 7047     		bx	lr
 656              	.L73:
 657 0016 00BF     		.align	2
 658              	.L72:
 659 0018 10700040 		.word	1073770512
 660              		.cfi_endproc
 661              	.LFE13:
 662              		.size	CyDmaChGetRequest, .-CyDmaChGetRequest
 663              		.section	.text.CyDmaChStatus,"ax",%progbits
 664              		.align	2
 665              		.global	CyDmaChStatus
 666              		.thumb
 667              		.thumb_func
 668              		.type	CyDmaChStatus, %function
 669              	CyDmaChStatus:
 670              	.LFB14:
 550:Generated_Source\PSoC5/CyDmac.c **** 
 551:Generated_Source\PSoC5/CyDmac.c **** 
 552:Generated_Source\PSoC5/CyDmac.c **** /*******************************************************************************
 553:Generated_Source\PSoC5/CyDmac.c **** * Function Name: CyDmaChStatus
 554:Generated_Source\PSoC5/CyDmac.c **** ****************************************************************************//**
 555:Generated_Source\PSoC5/CyDmac.c **** *
 556:Generated_Source\PSoC5/CyDmac.c **** *  Determines the status of the DMA channel.
 557:Generated_Source\PSoC5/CyDmac.c **** *
 558:Generated_Source\PSoC5/CyDmac.c **** *  \param chHandle A handle previously returned by \ref CyDmaChAlloc() or \ref
 559:Generated_Source\PSoC5/CyDmac.c **** *  DMA_DmaInitalize().
 560:Generated_Source\PSoC5/CyDmac.c **** *
 561:Generated_Source\PSoC5/CyDmac.c **** *  \param currentTd The address to store the index of the current TD. Can be NULL
 562:Generated_Source\PSoC5/CyDmac.c **** *  if the value is not needed.
 563:Generated_Source\PSoC5/CyDmac.c **** *
 564:Generated_Source\PSoC5/CyDmac.c **** *  \param state The address to store the state of the channel. Can be NULL if the
 565:Generated_Source\PSoC5/CyDmac.c **** *  value is not needed.
 566:Generated_Source\PSoC5/CyDmac.c **** *
 567:Generated_Source\PSoC5/CyDmac.c **** *   STATUS_TD_ACTIVE
 568:Generated_Source\PSoC5/CyDmac.c **** *    \param 0: Channel is not currently being serviced by DMAC
 569:Generated_Source\PSoC5/CyDmac.c **** *    \param 1: Channel is currently being serviced by DMAC
ARM GAS  C:\Users\ingan\AppData\Local\Temp\ccY20xfO.s 			page 23


 570:Generated_Source\PSoC5/CyDmac.c **** *
 571:Generated_Source\PSoC5/CyDmac.c **** *   STATUS_CHAIN_ACTIVE
 572:Generated_Source\PSoC5/CyDmac.c **** *    \param 0: TD chain is inactive; either no DMA requests have triggered a new chain
 573:Generated_Source\PSoC5/CyDmac.c **** *       or the previous chain has completed.
 574:Generated_Source\PSoC5/CyDmac.c **** *    \param 1: TD chain has been triggered by a DMA request
 575:Generated_Source\PSoC5/CyDmac.c **** *
 576:Generated_Source\PSoC5/CyDmac.c **** * \return CYRET_SUCCESS if successful.
 577:Generated_Source\PSoC5/CyDmac.c **** * \return CYRET_BAD_PARAM if chHandle is invalid.
 578:Generated_Source\PSoC5/CyDmac.c **** *
 579:Generated_Source\PSoC5/CyDmac.c **** * Theory:
 580:Generated_Source\PSoC5/CyDmac.c **** *   The caller can check on the activity of the Current TD and the Chain.
 581:Generated_Source\PSoC5/CyDmac.c **** *
 582:Generated_Source\PSoC5/CyDmac.c **** *******************************************************************************/
 583:Generated_Source\PSoC5/CyDmac.c **** cystatus CyDmaChStatus(uint8 chHandle, uint8 * currentTd, uint8 * state) 
 584:Generated_Source\PSoC5/CyDmac.c **** {
 671              		.loc 1 584 0
 672              		.cfi_startproc
 673              		@ args = 0, pretend = 0, frame = 0
 674              		@ frame_needed = 0, uses_anonymous_args = 0
 675              		@ link register save eliminated.
 676              	.LVL78:
 585:Generated_Source\PSoC5/CyDmac.c ****     cystatus status = CYRET_BAD_PARAM;
 586:Generated_Source\PSoC5/CyDmac.c **** 
 587:Generated_Source\PSoC5/CyDmac.c ****     if(chHandle < CY_DMA_NUMBEROF_CHANNELS)
 677              		.loc 1 587 0
 678 0000 1728     		cmp	r0, #23
 679 0002 0FD8     		bhi	.L77
 588:Generated_Source\PSoC5/CyDmac.c ****     {
 589:Generated_Source\PSoC5/CyDmac.c ****         if(NULL != currentTd)
 680              		.loc 1 589 0
 681 0004 31B1     		cbz	r1, .L76
 590:Generated_Source\PSoC5/CyDmac.c ****         {
 591:Generated_Source\PSoC5/CyDmac.c ****             *currentTd = CY_DMA_CH_STRUCT_PTR[chHandle].basic_status[1] & 0x7Fu;
 682              		.loc 1 591 0
 683 0006 094B     		ldr	r3, .L79
 684 0008 03EB0013 		add	r3, r3, r0, lsl #4
 685 000c 5B7A     		ldrb	r3, [r3, #9]	@ zero_extendqisi2
 686 000e 03F07F03 		and	r3, r3, #127
 687 0012 0B70     		strb	r3, [r1]
 688              	.L76:
 592:Generated_Source\PSoC5/CyDmac.c ****         }
 593:Generated_Source\PSoC5/CyDmac.c **** 
 594:Generated_Source\PSoC5/CyDmac.c ****         if(NULL != state)
 689              		.loc 1 594 0
 690 0014 42B1     		cbz	r2, .L78
 595:Generated_Source\PSoC5/CyDmac.c ****         {
 596:Generated_Source\PSoC5/CyDmac.c ****             *state= CY_DMA_CH_STRUCT_PTR[chHandle].basic_status[0];
 691              		.loc 1 596 0
 692 0016 054B     		ldr	r3, .L79
 693 0018 03EB0010 		add	r0, r3, r0, lsl #4
 694              	.LVL79:
 695 001c 037A     		ldrb	r3, [r0, #8]	@ zero_extendqisi2
 696 001e 1370     		strb	r3, [r2]
 597:Generated_Source\PSoC5/CyDmac.c ****         }
 598:Generated_Source\PSoC5/CyDmac.c **** 
 599:Generated_Source\PSoC5/CyDmac.c ****         status = CYRET_SUCCESS;
 697              		.loc 1 599 0
ARM GAS  C:\Users\ingan\AppData\Local\Temp\ccY20xfO.s 			page 24


 698 0020 0020     		movs	r0, #0
 699 0022 7047     		bx	lr
 700              	.LVL80:
 701              	.L77:
 585:Generated_Source\PSoC5/CyDmac.c **** 
 702              		.loc 1 585 0
 703 0024 0120     		movs	r0, #1
 704              	.LVL81:
 705 0026 7047     		bx	lr
 706              	.LVL82:
 707              	.L78:
 708              		.loc 1 599 0
 709 0028 0020     		movs	r0, #0
 710              	.LVL83:
 600:Generated_Source\PSoC5/CyDmac.c ****     }
 601:Generated_Source\PSoC5/CyDmac.c **** 
 602:Generated_Source\PSoC5/CyDmac.c ****     return (status);
 603:Generated_Source\PSoC5/CyDmac.c **** }
 711              		.loc 1 603 0
 712 002a 7047     		bx	lr
 713              	.L80:
 714              		.align	2
 715              	.L79:
 716 002c 10700040 		.word	1073770512
 717              		.cfi_endproc
 718              	.LFE14:
 719              		.size	CyDmaChStatus, .-CyDmaChStatus
 720              		.section	.text.CyDmaChSetConfiguration,"ax",%progbits
 721              		.align	2
 722              		.global	CyDmaChSetConfiguration
 723              		.thumb
 724              		.thumb_func
 725              		.type	CyDmaChSetConfiguration, %function
 726              	CyDmaChSetConfiguration:
 727              	.LFB15:
 604:Generated_Source\PSoC5/CyDmac.c **** 
 605:Generated_Source\PSoC5/CyDmac.c **** 
 606:Generated_Source\PSoC5/CyDmac.c **** /*******************************************************************************
 607:Generated_Source\PSoC5/CyDmac.c **** * Function Name: CyDmaChSetConfiguration
 608:Generated_Source\PSoC5/CyDmac.c **** ****************************************************************************//**
 609:Generated_Source\PSoC5/CyDmac.c **** *
 610:Generated_Source\PSoC5/CyDmac.c **** * Sets configuration information of the channel.
 611:Generated_Source\PSoC5/CyDmac.c **** *
 612:Generated_Source\PSoC5/CyDmac.c **** *  \param uint8 chHandle:
 613:Generated_Source\PSoC5/CyDmac.c **** *   A handle previously returned by CyDmaChAlloc() or DMA_DmaInitialize().
 614:Generated_Source\PSoC5/CyDmac.c **** *
 615:Generated_Source\PSoC5/CyDmac.c **** *  \param uint8 burstCount:
 616:Generated_Source\PSoC5/CyDmac.c **** *   Specifies the size of bursts (1 to 127) the data transfer should be divided
 617:Generated_Source\PSoC5/CyDmac.c **** *   into. If this value is zero then the whole transfer is done in one burst.
 618:Generated_Source\PSoC5/CyDmac.c **** *
 619:Generated_Source\PSoC5/CyDmac.c **** *  \param uint8 requestPerBurst:
 620:Generated_Source\PSoC5/CyDmac.c **** *   The whole of the data can be split into multiple bursts, if this is
 621:Generated_Source\PSoC5/CyDmac.c **** *   \param required to complete the transaction:
 622:Generated_Source\PSoC5/CyDmac.c **** *    \param 0: All subsequent bursts after the first burst will be automatically
 623:Generated_Source\PSoC5/CyDmac.c **** *       requested and carried out
 624:Generated_Source\PSoC5/CyDmac.c **** *    \param 1: All subsequent bursts after the first burst must also be individually
 625:Generated_Source\PSoC5/CyDmac.c **** *       requested.
ARM GAS  C:\Users\ingan\AppData\Local\Temp\ccY20xfO.s 			page 25


 626:Generated_Source\PSoC5/CyDmac.c **** *
 627:Generated_Source\PSoC5/CyDmac.c **** *  \param uint8 tdDone0:
 628:Generated_Source\PSoC5/CyDmac.c **** *   Selects one of the TERMOUT0 interrupt lines to signal completion. The line
 629:Generated_Source\PSoC5/CyDmac.c **** *   connected to the nrq terminal will determine the TERMOUT0_SEL definition and
 630:Generated_Source\PSoC5/CyDmac.c **** *   should be used as supplied by cyfitter.h
 631:Generated_Source\PSoC5/CyDmac.c **** *
 632:Generated_Source\PSoC5/CyDmac.c **** *  \param uint8 tdDone1:
 633:Generated_Source\PSoC5/CyDmac.c **** *   Selects one of the TERMOUT1 interrupt lines to signal completion. The line
 634:Generated_Source\PSoC5/CyDmac.c **** *   connected to the nrq terminal will determine the TERMOUT1_SEL definition and
 635:Generated_Source\PSoC5/CyDmac.c **** *   should be used as supplied by cyfitter.h
 636:Generated_Source\PSoC5/CyDmac.c **** *
 637:Generated_Source\PSoC5/CyDmac.c **** *  \param uint8 tdStop:
 638:Generated_Source\PSoC5/CyDmac.c **** *   Selects one of the TERMIN interrupt lines to signal to the DMAC that the TD
 639:Generated_Source\PSoC5/CyDmac.c **** *   should terminate. The signal connected to the trq terminal will determine
 640:Generated_Source\PSoC5/CyDmac.c **** *   which TERMIN (termination request) is used.
 641:Generated_Source\PSoC5/CyDmac.c **** *
 642:Generated_Source\PSoC5/CyDmac.c **** * \return
 643:Generated_Source\PSoC5/CyDmac.c **** *  CYRET_SUCCESS if successful.
 644:Generated_Source\PSoC5/CyDmac.c **** *  CYRET_BAD_PARAM if chHandle is invalid.
 645:Generated_Source\PSoC5/CyDmac.c **** *
 646:Generated_Source\PSoC5/CyDmac.c **** *******************************************************************************/
 647:Generated_Source\PSoC5/CyDmac.c **** cystatus CyDmaChSetConfiguration(uint8 chHandle, uint8 burstCount, uint8 requestPerBurst,
 648:Generated_Source\PSoC5/CyDmac.c ****                                  uint8 tdDone0, uint8 tdDone1, uint8 tdStop) 
 649:Generated_Source\PSoC5/CyDmac.c **** {
 728              		.loc 1 649 0
 729              		.cfi_startproc
 730              		@ args = 8, pretend = 0, frame = 0
 731              		@ frame_needed = 0, uses_anonymous_args = 0
 732              		@ link register save eliminated.
 733              	.LVL84:
 650:Generated_Source\PSoC5/CyDmac.c ****     cystatus status = CYRET_BAD_PARAM;
 651:Generated_Source\PSoC5/CyDmac.c **** 
 652:Generated_Source\PSoC5/CyDmac.c ****     if(chHandle < CY_DMA_NUMBEROF_CHANNELS)
 734              		.loc 1 652 0
 735 0000 1728     		cmp	r0, #23
 736 0002 1BD8     		bhi	.L83
 649:Generated_Source\PSoC5/CyDmac.c ****     cystatus status = CYRET_BAD_PARAM;
 737              		.loc 1 649 0
 738 0004 10B4     		push	{r4}
 739              		.cfi_def_cfa_offset 4
 740              		.cfi_offset 4, -4
 653:Generated_Source\PSoC5/CyDmac.c ****     {
 654:Generated_Source\PSoC5/CyDmac.c ****         CY_DMA_CFGMEM_STRUCT_PTR[chHandle].CFG0[0] = (burstCount & 0x7Fu) | ((uint8)((requestPerBur
 741              		.loc 1 654 0
 742 0006 C000     		lsls	r0, r0, #3
 743              	.LVL85:
 744 0008 00F18044 		add	r4, r0, #1073741824
 745 000c 04F5EC44 		add	r4, r4, #30208
 746 0010 01F07F01 		and	r1, r1, #127
 747              	.LVL86:
 748 0014 41EAC211 		orr	r1, r1, r2, lsl #7
 749 0018 C9B2     		uxtb	r1, r1
 750 001a 2170     		strb	r1, [r4]
 655:Generated_Source\PSoC5/CyDmac.c ****         CY_DMA_CFGMEM_STRUCT_PTR[chHandle].CFG0[1] = ((uint8)((tdDone1 & 0xFu) << 4u)) | (tdDone0 &
 751              		.loc 1 655 0
 752 001c 03F00F03 		and	r3, r3, #15
 753              	.LVL87:
ARM GAS  C:\Users\ingan\AppData\Local\Temp\ccY20xfO.s 			page 26


 754 0020 9DF80420 		ldrb	r2, [sp, #4]	@ zero_extendqisi2
 755              	.LVL88:
 756 0024 43EA0213 		orr	r3, r3, r2, lsl #4
 757 0028 DBB2     		uxtb	r3, r3
 758 002a 6370     		strb	r3, [r4, #1]
 656:Generated_Source\PSoC5/CyDmac.c ****         CY_DMA_CFGMEM_STRUCT_PTR[chHandle].CFG0[2] = 0x0Fu & tdStop;
 759              		.loc 1 656 0
 760 002c 9DF80830 		ldrb	r3, [sp, #8]	@ zero_extendqisi2
 761 0030 03F00F03 		and	r3, r3, #15
 762 0034 A370     		strb	r3, [r4, #2]
 657:Generated_Source\PSoC5/CyDmac.c ****         CY_DMA_CFGMEM_STRUCT_PTR[chHandle].CFG0[3] = 0u; /* burstcount_remain. */
 763              		.loc 1 657 0
 764 0036 0020     		movs	r0, #0
 765 0038 E070     		strb	r0, [r4, #3]
 766              	.LVL89:
 767 003a 01E0     		b	.L82
 768              	.LVL90:
 769              	.L83:
 770              		.cfi_def_cfa_offset 0
 771              		.cfi_restore 4
 650:Generated_Source\PSoC5/CyDmac.c **** 
 772              		.loc 1 650 0
 773 003c 0120     		movs	r0, #1
 774              	.LVL91:
 775 003e 7047     		bx	lr
 776              	.LVL92:
 777              	.L82:
 778              		.cfi_def_cfa_offset 4
 779              		.cfi_offset 4, -4
 658:Generated_Source\PSoC5/CyDmac.c **** 
 659:Generated_Source\PSoC5/CyDmac.c ****         status = CYRET_SUCCESS;
 660:Generated_Source\PSoC5/CyDmac.c ****     }
 661:Generated_Source\PSoC5/CyDmac.c **** 
 662:Generated_Source\PSoC5/CyDmac.c ****     return (status);
 663:Generated_Source\PSoC5/CyDmac.c **** }
 780              		.loc 1 663 0
 781 0040 10BC     		pop	{r4}
 782              		.cfi_restore 4
 783              		.cfi_def_cfa_offset 0
 784              	.LVL93:
 785 0042 7047     		bx	lr
 786              		.cfi_endproc
 787              	.LFE15:
 788              		.size	CyDmaChSetConfiguration, .-CyDmaChSetConfiguration
 789              		.section	.text.CyDmaTdAllocate,"ax",%progbits
 790              		.align	2
 791              		.global	CyDmaTdAllocate
 792              		.thumb
 793              		.thumb_func
 794              		.type	CyDmaTdAllocate, %function
 795              	CyDmaTdAllocate:
 796              	.LFB16:
 664:Generated_Source\PSoC5/CyDmac.c **** 
 665:Generated_Source\PSoC5/CyDmac.c **** 
 666:Generated_Source\PSoC5/CyDmac.c **** /*******************************************************************************
 667:Generated_Source\PSoC5/CyDmac.c **** * Function Name: CyDmaTdAllocate
 668:Generated_Source\PSoC5/CyDmac.c **** ****************************************************************************//**
ARM GAS  C:\Users\ingan\AppData\Local\Temp\ccY20xfO.s 			page 27


 669:Generated_Source\PSoC5/CyDmac.c **** *
 670:Generated_Source\PSoC5/CyDmac.c **** *  Allocates a TD for use with an allocated DMA channel.
 671:Generated_Source\PSoC5/CyDmac.c **** *
 672:Generated_Source\PSoC5/CyDmac.c **** * \return
 673:Generated_Source\PSoC5/CyDmac.c **** *  Zero-based index of the TD to be used by the caller. Since there are 128 TDs
 674:Generated_Source\PSoC5/CyDmac.c **** *  minus the reserved TDs (0 to 23), the value returned would range from 24 to
 675:Generated_Source\PSoC5/CyDmac.c **** *  127 not 24 to 128. DMA_INVALID_TD is returned if there are no free TDs
 676:Generated_Source\PSoC5/CyDmac.c **** *  available.
 677:Generated_Source\PSoC5/CyDmac.c **** *
 678:Generated_Source\PSoC5/CyDmac.c **** *******************************************************************************/
 679:Generated_Source\PSoC5/CyDmac.c **** uint8 CyDmaTdAllocate(void) 
 680:Generated_Source\PSoC5/CyDmac.c **** {
 797              		.loc 1 680 0
 798              		.cfi_startproc
 799              		@ args = 0, pretend = 0, frame = 0
 800              		@ frame_needed = 0, uses_anonymous_args = 0
 801 0000 10B5     		push	{r4, lr}
 802              		.cfi_def_cfa_offset 8
 803              		.cfi_offset 4, -8
 804              		.cfi_offset 14, -4
 805              	.LVL94:
 681:Generated_Source\PSoC5/CyDmac.c ****     uint8 interruptState;
 682:Generated_Source\PSoC5/CyDmac.c ****     uint8 element = CY_DMA_INVALID_TD;
 683:Generated_Source\PSoC5/CyDmac.c **** 
 684:Generated_Source\PSoC5/CyDmac.c ****     /* Enter critical section! */
 685:Generated_Source\PSoC5/CyDmac.c ****     interruptState = CyEnterCriticalSection();
 806              		.loc 1 685 0
 807 0002 FFF7FEFF 		bl	CyEnterCriticalSection
 808              	.LVL95:
 686:Generated_Source\PSoC5/CyDmac.c **** 
 687:Generated_Source\PSoC5/CyDmac.c ****     if(CyDmaTdCurrentNumber > NUMBEROF_CHANNELS)
 809              		.loc 1 687 0
 810 0006 0A4B     		ldr	r3, .L90
 811 0008 5B78     		ldrb	r3, [r3, #1]	@ zero_extendqisi2
 812 000a 182B     		cmp	r3, #24
 813 000c 0BD9     		bls	.L88
 688:Generated_Source\PSoC5/CyDmac.c ****     {
 689:Generated_Source\PSoC5/CyDmac.c ****         /* Get pointer to Next available. */
 690:Generated_Source\PSoC5/CyDmac.c ****         element = CyDmaTdFreeIndex;
 814              		.loc 1 690 0
 815 000e 084A     		ldr	r2, .L90
 816 0010 1478     		ldrb	r4, [r2]	@ zero_extendqisi2
 817              	.LVL96:
 691:Generated_Source\PSoC5/CyDmac.c **** 
 692:Generated_Source\PSoC5/CyDmac.c ****         /* Decrement the count. */
 693:Generated_Source\PSoC5/CyDmac.c ****         CyDmaTdCurrentNumber--;
 818              		.loc 1 693 0
 819 0012 013B     		subs	r3, r3, #1
 820 0014 5370     		strb	r3, [r2, #1]
 694:Generated_Source\PSoC5/CyDmac.c **** 
 695:Generated_Source\PSoC5/CyDmac.c ****         /* Update next available pointer. */
 696:Generated_Source\PSoC5/CyDmac.c ****         CyDmaTdFreeIndex = CY_DMA_TDMEM_STRUCT_PTR[element].TD0[0];
 821              		.loc 1 696 0
 822 0016 E300     		lsls	r3, r4, #3
 823 0018 03F18043 		add	r3, r3, #1073741824
 824 001c 03F5F043 		add	r3, r3, #30720
 825 0020 1B78     		ldrb	r3, [r3]	@ zero_extendqisi2
ARM GAS  C:\Users\ingan\AppData\Local\Temp\ccY20xfO.s 			page 28


 826 0022 1370     		strb	r3, [r2]
 827 0024 00E0     		b	.L87
 828              	.LVL97:
 829              	.L88:
 682:Generated_Source\PSoC5/CyDmac.c **** 
 830              		.loc 1 682 0
 831 0026 FF24     		movs	r4, #255
 832              	.LVL98:
 833              	.L87:
 697:Generated_Source\PSoC5/CyDmac.c ****     }
 698:Generated_Source\PSoC5/CyDmac.c **** 
 699:Generated_Source\PSoC5/CyDmac.c ****     /* Exit critical section! */
 700:Generated_Source\PSoC5/CyDmac.c ****     CyExitCriticalSection(interruptState);
 834              		.loc 1 700 0
 835 0028 FFF7FEFF 		bl	CyExitCriticalSection
 836              	.LVL99:
 701:Generated_Source\PSoC5/CyDmac.c **** 
 702:Generated_Source\PSoC5/CyDmac.c ****     return(element);
 703:Generated_Source\PSoC5/CyDmac.c **** }
 837              		.loc 1 703 0
 838 002c 2046     		mov	r0, r4
 839 002e 10BD     		pop	{r4, pc}
 840              	.LVL100:
 841              	.L91:
 842              		.align	2
 843              	.L90:
 844 0030 00000000 		.word	.LANCHOR0
 845              		.cfi_endproc
 846              	.LFE16:
 847              		.size	CyDmaTdAllocate, .-CyDmaTdAllocate
 848              		.section	.text.CyDmaTdFree,"ax",%progbits
 849              		.align	2
 850              		.global	CyDmaTdFree
 851              		.thumb
 852              		.thumb_func
 853              		.type	CyDmaTdFree, %function
 854              	CyDmaTdFree:
 855              	.LFB17:
 704:Generated_Source\PSoC5/CyDmac.c **** 
 705:Generated_Source\PSoC5/CyDmac.c **** 
 706:Generated_Source\PSoC5/CyDmac.c **** /*******************************************************************************
 707:Generated_Source\PSoC5/CyDmac.c **** * Function Name: CyDmaTdFree
 708:Generated_Source\PSoC5/CyDmac.c **** ****************************************************************************//**
 709:Generated_Source\PSoC5/CyDmac.c **** *
 710:Generated_Source\PSoC5/CyDmac.c **** *  Returns a TD to the free list.
 711:Generated_Source\PSoC5/CyDmac.c **** *
 712:Generated_Source\PSoC5/CyDmac.c **** *  \param uint8 tdHandle:
 713:Generated_Source\PSoC5/CyDmac.c **** *   The TD handle returned by the CyDmaTdAllocate().
 714:Generated_Source\PSoC5/CyDmac.c **** *
 715:Generated_Source\PSoC5/CyDmac.c **** *******************************************************************************/
 716:Generated_Source\PSoC5/CyDmac.c **** void CyDmaTdFree(uint8 tdHandle) 
 717:Generated_Source\PSoC5/CyDmac.c **** {
 856              		.loc 1 717 0
 857              		.cfi_startproc
 858              		@ args = 0, pretend = 0, frame = 0
 859              		@ frame_needed = 0, uses_anonymous_args = 0
 860              	.LVL101:
ARM GAS  C:\Users\ingan\AppData\Local\Temp\ccY20xfO.s 			page 29


 718:Generated_Source\PSoC5/CyDmac.c ****     if(tdHandle < CY_DMA_NUMBEROF_TDS)
 861              		.loc 1 718 0
 862 0000 10F0800F 		tst	r0, #128
 863 0004 12D1     		bne	.L95
 717:Generated_Source\PSoC5/CyDmac.c ****     if(tdHandle < CY_DMA_NUMBEROF_TDS)
 864              		.loc 1 717 0
 865 0006 10B5     		push	{r4, lr}
 866              		.cfi_def_cfa_offset 8
 867              		.cfi_offset 4, -8
 868              		.cfi_offset 14, -4
 869 0008 0446     		mov	r4, r0
 870              	.LBB2:
 719:Generated_Source\PSoC5/CyDmac.c ****     {
 720:Generated_Source\PSoC5/CyDmac.c ****         /* Enter critical section! */
 721:Generated_Source\PSoC5/CyDmac.c ****         uint8 interruptState = CyEnterCriticalSection();
 871              		.loc 1 721 0
 872 000a FFF7FEFF 		bl	CyEnterCriticalSection
 873              	.LVL102:
 722:Generated_Source\PSoC5/CyDmac.c **** 
 723:Generated_Source\PSoC5/CyDmac.c ****         /* Get pointer to Next available. */
 724:Generated_Source\PSoC5/CyDmac.c ****         CY_DMA_TDMEM_STRUCT_PTR[tdHandle].TD0[0u] = CyDmaTdFreeIndex;
 874              		.loc 1 724 0
 875 000e E300     		lsls	r3, r4, #3
 876 0010 03F18043 		add	r3, r3, #1073741824
 877 0014 03F5F043 		add	r3, r3, #30720
 878 0018 054A     		ldr	r2, .L96
 879 001a 1178     		ldrb	r1, [r2]	@ zero_extendqisi2
 880 001c 1970     		strb	r1, [r3]
 725:Generated_Source\PSoC5/CyDmac.c **** 
 726:Generated_Source\PSoC5/CyDmac.c ****         /* Set new Next Available. */
 727:Generated_Source\PSoC5/CyDmac.c ****         CyDmaTdFreeIndex = tdHandle;
 881              		.loc 1 727 0
 882 001e 1470     		strb	r4, [r2]
 728:Generated_Source\PSoC5/CyDmac.c **** 
 729:Generated_Source\PSoC5/CyDmac.c ****         /* Keep track of how many left. */
 730:Generated_Source\PSoC5/CyDmac.c ****         CyDmaTdCurrentNumber++;
 883              		.loc 1 730 0
 884 0020 5378     		ldrb	r3, [r2, #1]	@ zero_extendqisi2
 885 0022 0133     		adds	r3, r3, #1
 886 0024 5370     		strb	r3, [r2, #1]
 731:Generated_Source\PSoC5/CyDmac.c **** 
 732:Generated_Source\PSoC5/CyDmac.c ****         /* Exit critical section! */
 733:Generated_Source\PSoC5/CyDmac.c ****         CyExitCriticalSection(interruptState);
 887              		.loc 1 733 0
 888 0026 FFF7FEFF 		bl	CyExitCriticalSection
 889              	.LVL103:
 890 002a 10BD     		pop	{r4, pc}
 891              	.LVL104:
 892              	.L95:
 893              		.cfi_def_cfa_offset 0
 894              		.cfi_restore 4
 895              		.cfi_restore 14
 896 002c 7047     		bx	lr
 897              	.L97:
 898 002e 00BF     		.align	2
 899              	.L96:
 900 0030 00000000 		.word	.LANCHOR0
ARM GAS  C:\Users\ingan\AppData\Local\Temp\ccY20xfO.s 			page 30


 901              	.LBE2:
 902              		.cfi_endproc
 903              	.LFE17:
 904              		.size	CyDmaTdFree, .-CyDmaTdFree
 905              		.section	.text.CyDmaTdFreeCount,"ax",%progbits
 906              		.align	2
 907              		.global	CyDmaTdFreeCount
 908              		.thumb
 909              		.thumb_func
 910              		.type	CyDmaTdFreeCount, %function
 911              	CyDmaTdFreeCount:
 912              	.LFB18:
 734:Generated_Source\PSoC5/CyDmac.c ****     }
 735:Generated_Source\PSoC5/CyDmac.c **** }
 736:Generated_Source\PSoC5/CyDmac.c **** 
 737:Generated_Source\PSoC5/CyDmac.c **** 
 738:Generated_Source\PSoC5/CyDmac.c **** /*******************************************************************************
 739:Generated_Source\PSoC5/CyDmac.c **** * Function Name: CyDmaTdFreeCount
 740:Generated_Source\PSoC5/CyDmac.c **** ****************************************************************************//**
 741:Generated_Source\PSoC5/CyDmac.c **** *
 742:Generated_Source\PSoC5/CyDmac.c **** *  Returns the number of free TDs available to be allocated.
 743:Generated_Source\PSoC5/CyDmac.c **** *
 744:Generated_Source\PSoC5/CyDmac.c **** * \return
 745:Generated_Source\PSoC5/CyDmac.c **** *  The number of free TDs.
 746:Generated_Source\PSoC5/CyDmac.c **** *
 747:Generated_Source\PSoC5/CyDmac.c **** *******************************************************************************/
 748:Generated_Source\PSoC5/CyDmac.c **** uint8 CyDmaTdFreeCount(void) 
 749:Generated_Source\PSoC5/CyDmac.c **** {
 913              		.loc 1 749 0
 914              		.cfi_startproc
 915              		@ args = 0, pretend = 0, frame = 0
 916              		@ frame_needed = 0, uses_anonymous_args = 0
 917              		@ link register save eliminated.
 750:Generated_Source\PSoC5/CyDmac.c ****     return(CyDmaTdCurrentNumber - CY_DMA_NUMBEROF_CHANNELS);
 918              		.loc 1 750 0
 919 0000 024B     		ldr	r3, .L99
 920 0002 5878     		ldrb	r0, [r3, #1]	@ zero_extendqisi2
 921 0004 1838     		subs	r0, r0, #24
 751:Generated_Source\PSoC5/CyDmac.c **** }
 922              		.loc 1 751 0
 923 0006 C0B2     		uxtb	r0, r0
 924 0008 7047     		bx	lr
 925              	.L100:
 926 000a 00BF     		.align	2
 927              	.L99:
 928 000c 00000000 		.word	.LANCHOR0
 929              		.cfi_endproc
 930              	.LFE18:
 931              		.size	CyDmaTdFreeCount, .-CyDmaTdFreeCount
 932              		.section	.text.CyDmaTdSetConfiguration,"ax",%progbits
 933              		.align	2
 934              		.global	CyDmaTdSetConfiguration
 935              		.thumb
 936              		.thumb_func
 937              		.type	CyDmaTdSetConfiguration, %function
 938              	CyDmaTdSetConfiguration:
 939              	.LFB19:
ARM GAS  C:\Users\ingan\AppData\Local\Temp\ccY20xfO.s 			page 31


 752:Generated_Source\PSoC5/CyDmac.c **** 
 753:Generated_Source\PSoC5/CyDmac.c **** 
 754:Generated_Source\PSoC5/CyDmac.c **** /*******************************************************************************
 755:Generated_Source\PSoC5/CyDmac.c **** * Function Name: CyDmaTdSetConfiguration
 756:Generated_Source\PSoC5/CyDmac.c **** ****************************************************************************//**
 757:Generated_Source\PSoC5/CyDmac.c **** *
 758:Generated_Source\PSoC5/CyDmac.c **** *  Configures the TD.
 759:Generated_Source\PSoC5/CyDmac.c **** *
 760:Generated_Source\PSoC5/CyDmac.c **** *  \param uint8 tdHandle:
 761:Generated_Source\PSoC5/CyDmac.c **** *   A handle previously returned by CyDmaTdAlloc().
 762:Generated_Source\PSoC5/CyDmac.c **** *
 763:Generated_Source\PSoC5/CyDmac.c **** *  \param uint16 transferCount:
 764:Generated_Source\PSoC5/CyDmac.c **** *   The size of the data transfer (in bytes) for this TD. A size of zero will
 765:Generated_Source\PSoC5/CyDmac.c **** *   cause the transfer to continue indefinitely. This parameter is limited to
 766:Generated_Source\PSoC5/CyDmac.c **** *   4095 bytes; the TD is not initialized at all when a higher value is passed.
 767:Generated_Source\PSoC5/CyDmac.c **** *
 768:Generated_Source\PSoC5/CyDmac.c **** *  \param uint8 nextTd:
 769:Generated_Source\PSoC5/CyDmac.c **** *   Zero based index of the next Transfer Descriptor in the TD chain. Zero is a
 770:Generated_Source\PSoC5/CyDmac.c **** *   valid pointer to the next TD; DMA_END_CHAIN_TD is the end of the chain.
 771:Generated_Source\PSoC5/CyDmac.c **** *   DMA_DISABLE_TD indicates an end to the chain and the DMA is disabled. No
 772:Generated_Source\PSoC5/CyDmac.c **** *   further TDs are fetched. DMA_DISABLE_TD is only supported on PSoC3 and
 773:Generated_Source\PSoC5/CyDmac.c **** *   PSoC 5LP silicons.
 774:Generated_Source\PSoC5/CyDmac.c **** *
 775:Generated_Source\PSoC5/CyDmac.c **** *  \param uint8 configuration:
 776:Generated_Source\PSoC5/CyDmac.c **** *   Stores the Bit field of configuration bits.
 777:Generated_Source\PSoC5/CyDmac.c **** *
 778:Generated_Source\PSoC5/CyDmac.c **** *   CY_DMA_TD_SWAP_EN        - Perform endian swap
 779:Generated_Source\PSoC5/CyDmac.c **** *
 780:Generated_Source\PSoC5/CyDmac.c **** *   CY_DMA_TD_SWAP_SIZE4     - Swap size = 4 bytes
 781:Generated_Source\PSoC5/CyDmac.c **** *
 782:Generated_Source\PSoC5/CyDmac.c **** *   CY_DMA_TD_AUTO_EXEC_NEXT - The next TD in the chain will trigger
 783:Generated_Source\PSoC5/CyDmac.c **** *                              automatically when the current TD completes.
 784:Generated_Source\PSoC5/CyDmac.c **** *
 785:Generated_Source\PSoC5/CyDmac.c **** *   CY_DMA_TD_TERMIN_EN      - Terminate this TD if a positive edge on the trq
 786:Generated_Source\PSoC5/CyDmac.c **** *                              input line occurs. The positive edge must occur
 787:Generated_Source\PSoC5/CyDmac.c **** *                              during a burst. That is the only time the DMAC
 788:Generated_Source\PSoC5/CyDmac.c **** *                              will listen for it.
 789:Generated_Source\PSoC5/CyDmac.c **** *
 790:Generated_Source\PSoC5/CyDmac.c **** *   DMA__TD_TERMOUT_EN       - When this TD completes, the TERMOUT signal will
 791:Generated_Source\PSoC5/CyDmac.c **** *                              generate a pulse. Note that this option is
 792:Generated_Source\PSoC5/CyDmac.c **** *                              instance specific with the instance name followed
 793:Generated_Source\PSoC5/CyDmac.c **** *                              by two underscores. In this example, the instance
 794:Generated_Source\PSoC5/CyDmac.c **** *                              name is DMA.
 795:Generated_Source\PSoC5/CyDmac.c **** *
 796:Generated_Source\PSoC5/CyDmac.c **** *   CY_DMA_TD_INC_DST_ADR    - Increment DST_ADR according to the size of each
 797:Generated_Source\PSoC5/CyDmac.c **** *                              data transaction in the burst.
 798:Generated_Source\PSoC5/CyDmac.c **** *
 799:Generated_Source\PSoC5/CyDmac.c **** *   CY_DMA_TD_INC_SRC_ADR    - Increment SRC_ADR according to the size of each
 800:Generated_Source\PSoC5/CyDmac.c **** *                              data transaction in the burst.
 801:Generated_Source\PSoC5/CyDmac.c **** *
 802:Generated_Source\PSoC5/CyDmac.c **** * \return
 803:Generated_Source\PSoC5/CyDmac.c **** *  CYRET_SUCCESS if successful.
 804:Generated_Source\PSoC5/CyDmac.c **** *  CYRET_BAD_PARAM if tdHandle or transferCount is invalid.
 805:Generated_Source\PSoC5/CyDmac.c **** *
 806:Generated_Source\PSoC5/CyDmac.c **** *******************************************************************************/
 807:Generated_Source\PSoC5/CyDmac.c **** cystatus CyDmaTdSetConfiguration(uint8 tdHandle, uint16 transferCount, uint8 nextTd, uint8 configur
 808:Generated_Source\PSoC5/CyDmac.c ****     
ARM GAS  C:\Users\ingan\AppData\Local\Temp\ccY20xfO.s 			page 32


 809:Generated_Source\PSoC5/CyDmac.c **** {
 940              		.loc 1 809 0
 941              		.cfi_startproc
 942              		@ args = 0, pretend = 0, frame = 0
 943              		@ frame_needed = 0, uses_anonymous_args = 0
 944              		@ link register save eliminated.
 945              	.LVL105:
 810:Generated_Source\PSoC5/CyDmac.c ****     cystatus status = CYRET_BAD_PARAM;
 811:Generated_Source\PSoC5/CyDmac.c **** 
 812:Generated_Source\PSoC5/CyDmac.c ****     if((tdHandle < CY_DMA_NUMBEROF_TDS) && (0u == (0xF000u & transferCount)))
 946              		.loc 1 812 0
 947 0000 10F0800F 		tst	r0, #128
 948 0004 0CD1     		bne	.L103
 949              		.loc 1 812 0 is_stmt 0 discriminator 1
 950 0006 11F4704F 		tst	r1, #61440
 951 000a 0BD1     		bne	.L104
 952              	.LBB3:
 813:Generated_Source\PSoC5/CyDmac.c ****     {
 814:Generated_Source\PSoC5/CyDmac.c ****         /* Set 12 bits transfer count. */
 815:Generated_Source\PSoC5/CyDmac.c ****         reg16 *convert = (reg16 *) &CY_DMA_TDMEM_STRUCT_PTR[tdHandle].TD0[0u];
 953              		.loc 1 815 0 is_stmt 1
 954 000c C000     		lsls	r0, r0, #3
 955              	.LVL106:
 956 000e 00F18040 		add	r0, r0, #1073741824
 957 0012 00F5F040 		add	r0, r0, #30720
 958              	.LVL107:
 816:Generated_Source\PSoC5/CyDmac.c ****         CY_SET_REG16(convert, transferCount);
 959              		.loc 1 816 0
 960 0016 0180     		strh	r1, [r0]	@ movhi
 817:Generated_Source\PSoC5/CyDmac.c **** 
 818:Generated_Source\PSoC5/CyDmac.c ****         /* Set Next TD pointer. */
 819:Generated_Source\PSoC5/CyDmac.c ****         CY_DMA_TDMEM_STRUCT_PTR[tdHandle].TD0[2u] = nextTd;
 961              		.loc 1 819 0
 962 0018 8270     		strb	r2, [r0, #2]
 820:Generated_Source\PSoC5/CyDmac.c **** 
 821:Generated_Source\PSoC5/CyDmac.c ****         /* Configure the TD */
 822:Generated_Source\PSoC5/CyDmac.c ****         CY_DMA_TDMEM_STRUCT_PTR[tdHandle].TD0[3u] = configuration;
 963              		.loc 1 822 0
 964 001a C370     		strb	r3, [r0, #3]
 965              	.LVL108:
 823:Generated_Source\PSoC5/CyDmac.c **** 
 824:Generated_Source\PSoC5/CyDmac.c ****         status = CYRET_SUCCESS;
 966              		.loc 1 824 0
 967 001c 0020     		movs	r0, #0
 968              	.LVL109:
 969 001e 7047     		bx	lr
 970              	.LVL110:
 971              	.L103:
 972              	.LBE3:
 810:Generated_Source\PSoC5/CyDmac.c **** 
 973              		.loc 1 810 0
 974 0020 0120     		movs	r0, #1
 975              	.LVL111:
 976 0022 7047     		bx	lr
 977              	.LVL112:
 978              	.L104:
 979 0024 0120     		movs	r0, #1
ARM GAS  C:\Users\ingan\AppData\Local\Temp\ccY20xfO.s 			page 33


 980              	.LVL113:
 825:Generated_Source\PSoC5/CyDmac.c ****     }
 826:Generated_Source\PSoC5/CyDmac.c **** 
 827:Generated_Source\PSoC5/CyDmac.c ****     return(status);
 828:Generated_Source\PSoC5/CyDmac.c **** }
 981              		.loc 1 828 0
 982 0026 7047     		bx	lr
 983              		.cfi_endproc
 984              	.LFE19:
 985              		.size	CyDmaTdSetConfiguration, .-CyDmaTdSetConfiguration
 986              		.section	.text.CyDmaTdGetConfiguration,"ax",%progbits
 987              		.align	2
 988              		.global	CyDmaTdGetConfiguration
 989              		.thumb
 990              		.thumb_func
 991              		.type	CyDmaTdGetConfiguration, %function
 992              	CyDmaTdGetConfiguration:
 993              	.LFB20:
 829:Generated_Source\PSoC5/CyDmac.c **** 
 830:Generated_Source\PSoC5/CyDmac.c **** 
 831:Generated_Source\PSoC5/CyDmac.c **** /*******************************************************************************
 832:Generated_Source\PSoC5/CyDmac.c **** * Function Name: CyDmaTdGetConfiguration
 833:Generated_Source\PSoC5/CyDmac.c **** ****************************************************************************//**
 834:Generated_Source\PSoC5/CyDmac.c **** *
 835:Generated_Source\PSoC5/CyDmac.c **** *  Retrieves the configuration of the TD. If a NULL pointer is passed as a
 836:Generated_Source\PSoC5/CyDmac.c **** *  parameter, that parameter is skipped. You may request only the values you are
 837:Generated_Source\PSoC5/CyDmac.c **** *  interested in.
 838:Generated_Source\PSoC5/CyDmac.c **** *
 839:Generated_Source\PSoC5/CyDmac.c **** *  \param uint8 tdHandle:
 840:Generated_Source\PSoC5/CyDmac.c **** *   A handle previously returned by CyDmaTdAlloc().
 841:Generated_Source\PSoC5/CyDmac.c **** *
 842:Generated_Source\PSoC5/CyDmac.c **** *  \param uint16 * transferCount:
 843:Generated_Source\PSoC5/CyDmac.c **** *   The address to store the size of the data transfer (in bytes) for this TD.
 844:Generated_Source\PSoC5/CyDmac.c **** *   A size of zero could indicate that the TD has completed its transfer, or
 845:Generated_Source\PSoC5/CyDmac.c **** *   that the TD is doing an indefinite transfer.
 846:Generated_Source\PSoC5/CyDmac.c **** *
 847:Generated_Source\PSoC5/CyDmac.c **** *  \param uint8 * nextTd:
 848:Generated_Source\PSoC5/CyDmac.c **** *   The address to store the index of the next TD in the TD chain.
 849:Generated_Source\PSoC5/CyDmac.c **** *
 850:Generated_Source\PSoC5/CyDmac.c **** *  \param uint8 * configuration:
 851:Generated_Source\PSoC5/CyDmac.c **** *   The address to store the Bit field of configuration bits.
 852:Generated_Source\PSoC5/CyDmac.c **** *   See CyDmaTdSetConfiguration() function description.
 853:Generated_Source\PSoC5/CyDmac.c **** *
 854:Generated_Source\PSoC5/CyDmac.c **** * \return
 855:Generated_Source\PSoC5/CyDmac.c **** *  CYRET_SUCCESS if successful.
 856:Generated_Source\PSoC5/CyDmac.c **** *  CYRET_BAD_PARAM if tdHandle is invalid.
 857:Generated_Source\PSoC5/CyDmac.c **** *
 858:Generated_Source\PSoC5/CyDmac.c **** * \sideeffect
 859:Generated_Source\PSoC5/CyDmac.c **** *  If TD has a transfer count of N and is executed, the transfer count becomes
 860:Generated_Source\PSoC5/CyDmac.c **** *  0. If it is reexecuted, the Transfer count of zero will be interpreted as a
 861:Generated_Source\PSoC5/CyDmac.c **** *  request for indefinite transfer. Be careful when requesting TD with a
 862:Generated_Source\PSoC5/CyDmac.c **** *  transfer count of zero.
 863:Generated_Source\PSoC5/CyDmac.c **** *
 864:Generated_Source\PSoC5/CyDmac.c **** *******************************************************************************/
 865:Generated_Source\PSoC5/CyDmac.c **** cystatus CyDmaTdGetConfiguration(uint8 tdHandle, uint16 * transferCount, uint8 * nextTd, uint8 * co
 866:Generated_Source\PSoC5/CyDmac.c ****     
 867:Generated_Source\PSoC5/CyDmac.c **** {
ARM GAS  C:\Users\ingan\AppData\Local\Temp\ccY20xfO.s 			page 34


 994              		.loc 1 867 0
 995              		.cfi_startproc
 996              		@ args = 0, pretend = 0, frame = 0
 997              		@ frame_needed = 0, uses_anonymous_args = 0
 998              		@ link register save eliminated.
 999              	.LVL114:
 868:Generated_Source\PSoC5/CyDmac.c ****     cystatus status = CYRET_BAD_PARAM;
 869:Generated_Source\PSoC5/CyDmac.c **** 
 870:Generated_Source\PSoC5/CyDmac.c ****     if(tdHandle < CY_DMA_NUMBEROF_TDS)
 1000              		.loc 1 870 0
 1001 0000 10F0800F 		tst	r0, #128
 1002 0004 1CD1     		bne	.L109
 867:Generated_Source\PSoC5/CyDmac.c ****     cystatus status = CYRET_BAD_PARAM;
 1003              		.loc 1 867 0
 1004 0006 10B4     		push	{r4}
 1005              		.cfi_def_cfa_offset 4
 1006              		.cfi_offset 4, -4
 871:Generated_Source\PSoC5/CyDmac.c ****     {
 872:Generated_Source\PSoC5/CyDmac.c ****         /* If we have pointer */
 873:Generated_Source\PSoC5/CyDmac.c ****         if(NULL != transferCount)
 1007              		.loc 1 873 0
 1008 0008 41B1     		cbz	r1, .L107
 1009              	.LBB4:
 874:Generated_Source\PSoC5/CyDmac.c ****         {
 875:Generated_Source\PSoC5/CyDmac.c ****             /* Get 12 bits of transfer count */
 876:Generated_Source\PSoC5/CyDmac.c ****             reg16 *convert = (reg16 *) &CY_DMA_TDMEM_STRUCT_PTR[tdHandle].TD0[0];
 1010              		.loc 1 876 0
 1011 000a C400     		lsls	r4, r0, #3
 1012 000c 04F18044 		add	r4, r4, #1073741824
 1013 0010 04F5F044 		add	r4, r4, #30720
 1014              	.LVL115:
 877:Generated_Source\PSoC5/CyDmac.c ****             *transferCount = 0x0FFFu & CY_GET_REG16(convert);
 1015              		.loc 1 877 0
 1016 0014 2488     		ldrh	r4, [r4]
 1017              	.LVL116:
 1018 0016 C4F30B04 		ubfx	r4, r4, #0, #12
 1019 001a 0C80     		strh	r4, [r1]	@ movhi
 1020              	.LVL117:
 1021              	.L107:
 1022              	.LBE4:
 878:Generated_Source\PSoC5/CyDmac.c ****         }
 879:Generated_Source\PSoC5/CyDmac.c **** 
 880:Generated_Source\PSoC5/CyDmac.c ****         /* If we have pointer */
 881:Generated_Source\PSoC5/CyDmac.c ****         if(NULL != nextTd)
 1023              		.loc 1 881 0
 1024 001c 32B1     		cbz	r2, .L108
 882:Generated_Source\PSoC5/CyDmac.c ****         {
 883:Generated_Source\PSoC5/CyDmac.c ****             /* Get Next TD pointer */
 884:Generated_Source\PSoC5/CyDmac.c ****             *nextTd = CY_DMA_TDMEM_STRUCT_PTR[tdHandle].TD0[2u];
 1025              		.loc 1 884 0
 1026 001e C100     		lsls	r1, r0, #3
 1027              	.LVL118:
 1028 0020 01F18041 		add	r1, r1, #1073741824
 1029 0024 01F5F041 		add	r1, r1, #30720
 1030 0028 8978     		ldrb	r1, [r1, #2]	@ zero_extendqisi2
 1031 002a 1170     		strb	r1, [r2]
 1032              	.L108:
ARM GAS  C:\Users\ingan\AppData\Local\Temp\ccY20xfO.s 			page 35


 885:Generated_Source\PSoC5/CyDmac.c ****         }
 886:Generated_Source\PSoC5/CyDmac.c **** 
 887:Generated_Source\PSoC5/CyDmac.c ****         /* If we have pointer */
 888:Generated_Source\PSoC5/CyDmac.c ****         if(NULL != configuration)
 1033              		.loc 1 888 0
 1034 002c 53B1     		cbz	r3, .L110
 889:Generated_Source\PSoC5/CyDmac.c ****         {
 890:Generated_Source\PSoC5/CyDmac.c ****             /* Get configuration TD */
 891:Generated_Source\PSoC5/CyDmac.c ****             *configuration = CY_DMA_TDMEM_STRUCT_PTR[tdHandle].TD0[3u];
 1035              		.loc 1 891 0
 1036 002e C000     		lsls	r0, r0, #3
 1037              	.LVL119:
 1038 0030 00F18040 		add	r0, r0, #1073741824
 1039 0034 00F5F040 		add	r0, r0, #30720
 1040 0038 C278     		ldrb	r2, [r0, #3]	@ zero_extendqisi2
 1041              	.LVL120:
 1042 003a 1A70     		strb	r2, [r3]
 892:Generated_Source\PSoC5/CyDmac.c ****         }
 893:Generated_Source\PSoC5/CyDmac.c **** 
 894:Generated_Source\PSoC5/CyDmac.c ****         status = CYRET_SUCCESS;
 1043              		.loc 1 894 0
 1044 003c 0020     		movs	r0, #0
 1045 003e 02E0     		b	.L106
 1046              	.LVL121:
 1047              	.L109:
 1048              		.cfi_def_cfa_offset 0
 1049              		.cfi_restore 4
 868:Generated_Source\PSoC5/CyDmac.c **** 
 1050              		.loc 1 868 0
 1051 0040 0120     		movs	r0, #1
 1052              	.LVL122:
 895:Generated_Source\PSoC5/CyDmac.c ****     }
 896:Generated_Source\PSoC5/CyDmac.c **** 
 897:Generated_Source\PSoC5/CyDmac.c ****     return(status);
 898:Generated_Source\PSoC5/CyDmac.c **** }
 1053              		.loc 1 898 0
 1054 0042 7047     		bx	lr
 1055              	.LVL123:
 1056              	.L110:
 1057              		.cfi_def_cfa_offset 4
 1058              		.cfi_offset 4, -4
 894:Generated_Source\PSoC5/CyDmac.c ****     }
 1059              		.loc 1 894 0
 1060 0044 0020     		movs	r0, #0
 1061              	.LVL124:
 1062              	.L106:
 1063              		.loc 1 898 0
 1064 0046 10BC     		pop	{r4}
 1065              		.cfi_restore 4
 1066              		.cfi_def_cfa_offset 0
 1067 0048 7047     		bx	lr
 1068              		.cfi_endproc
 1069              	.LFE20:
 1070              		.size	CyDmaTdGetConfiguration, .-CyDmaTdGetConfiguration
 1071 004a 00BF     		.section	.text.CyDmaTdSetAddress,"ax",%progbits
 1072              		.align	2
 1073              		.global	CyDmaTdSetAddress
ARM GAS  C:\Users\ingan\AppData\Local\Temp\ccY20xfO.s 			page 36


 1074              		.thumb
 1075              		.thumb_func
 1076              		.type	CyDmaTdSetAddress, %function
 1077              	CyDmaTdSetAddress:
 1078              	.LFB21:
 899:Generated_Source\PSoC5/CyDmac.c **** 
 900:Generated_Source\PSoC5/CyDmac.c **** 
 901:Generated_Source\PSoC5/CyDmac.c **** /*******************************************************************************
 902:Generated_Source\PSoC5/CyDmac.c **** * Function Name: CyDmaTdSetAddress
 903:Generated_Source\PSoC5/CyDmac.c **** ****************************************************************************//**
 904:Generated_Source\PSoC5/CyDmac.c **** *
 905:Generated_Source\PSoC5/CyDmac.c **** *  Sets the lower 16 bits of the source and destination addresses for this TD
 906:Generated_Source\PSoC5/CyDmac.c **** *  only.
 907:Generated_Source\PSoC5/CyDmac.c **** *
 908:Generated_Source\PSoC5/CyDmac.c **** *  \param uint8 tdHandle:
 909:Generated_Source\PSoC5/CyDmac.c **** *   A handle previously returned by CyDmaTdAlloc().
 910:Generated_Source\PSoC5/CyDmac.c **** *
 911:Generated_Source\PSoC5/CyDmac.c **** *  \param uint16 source:
 912:Generated_Source\PSoC5/CyDmac.c **** *   The lower 16 address bits of the source of the data transfer.
 913:Generated_Source\PSoC5/CyDmac.c **** *
 914:Generated_Source\PSoC5/CyDmac.c **** *  \param uint16 destination:
 915:Generated_Source\PSoC5/CyDmac.c **** *   The lower 16 address bits of the destination of the data transfer.
 916:Generated_Source\PSoC5/CyDmac.c **** *
 917:Generated_Source\PSoC5/CyDmac.c **** * \return
 918:Generated_Source\PSoC5/CyDmac.c **** *  CYRET_SUCCESS if successful.
 919:Generated_Source\PSoC5/CyDmac.c **** *  CYRET_BAD_PARAM if tdHandle is invalid.
 920:Generated_Source\PSoC5/CyDmac.c **** *
 921:Generated_Source\PSoC5/CyDmac.c **** *******************************************************************************/
 922:Generated_Source\PSoC5/CyDmac.c **** cystatus CyDmaTdSetAddress(uint8 tdHandle, uint16 source, uint16 destination) 
 923:Generated_Source\PSoC5/CyDmac.c **** {
 1079              		.loc 1 923 0
 1080              		.cfi_startproc
 1081              		@ args = 0, pretend = 0, frame = 0
 1082              		@ frame_needed = 0, uses_anonymous_args = 0
 1083              		@ link register save eliminated.
 1084              	.LVL125:
 924:Generated_Source\PSoC5/CyDmac.c ****     cystatus status = CYRET_BAD_PARAM;
 925:Generated_Source\PSoC5/CyDmac.c ****     reg16 *convert;
 926:Generated_Source\PSoC5/CyDmac.c **** 
 927:Generated_Source\PSoC5/CyDmac.c ****     if(tdHandle < CY_DMA_NUMBEROF_TDS)
 1085              		.loc 1 927 0
 1086 0000 10F0800F 		tst	r0, #128
 1087 0004 08D1     		bne	.L114
 928:Generated_Source\PSoC5/CyDmac.c ****     {
 929:Generated_Source\PSoC5/CyDmac.c ****         /* Set source address */
 930:Generated_Source\PSoC5/CyDmac.c ****         convert = (reg16 *) &CY_DMA_TDMEM_STRUCT_PTR[tdHandle].TD1[0u];
 1088              		.loc 1 930 0
 1089 0006 C000     		lsls	r0, r0, #3
 1090              	.LVL126:
 1091 0008 00F18040 		add	r0, r0, #1073741824
 1092 000c 00F5F040 		add	r0, r0, #30720
 1093              	.LVL127:
 931:Generated_Source\PSoC5/CyDmac.c ****         CY_SET_REG16(convert, source);
 1094              		.loc 1 931 0
 1095 0010 8180     		strh	r1, [r0, #4]	@ movhi
 1096              	.LVL128:
 932:Generated_Source\PSoC5/CyDmac.c **** 
ARM GAS  C:\Users\ingan\AppData\Local\Temp\ccY20xfO.s 			page 37


 933:Generated_Source\PSoC5/CyDmac.c ****         /* Set destination address */
 934:Generated_Source\PSoC5/CyDmac.c ****         convert = (reg16 *) &CY_DMA_TDMEM_STRUCT_PTR[tdHandle].TD1[2u];
 935:Generated_Source\PSoC5/CyDmac.c ****         CY_SET_REG16(convert, destination);
 1097              		.loc 1 935 0
 1098 0012 C280     		strh	r2, [r0, #6]	@ movhi
 1099              	.LVL129:
 936:Generated_Source\PSoC5/CyDmac.c **** 
 937:Generated_Source\PSoC5/CyDmac.c ****         status = CYRET_SUCCESS;
 1100              		.loc 1 937 0
 1101 0014 0020     		movs	r0, #0
 1102              	.LVL130:
 1103 0016 7047     		bx	lr
 1104              	.LVL131:
 1105              	.L114:
 924:Generated_Source\PSoC5/CyDmac.c ****     reg16 *convert;
 1106              		.loc 1 924 0
 1107 0018 0120     		movs	r0, #1
 1108              	.LVL132:
 938:Generated_Source\PSoC5/CyDmac.c ****     }
 939:Generated_Source\PSoC5/CyDmac.c **** 
 940:Generated_Source\PSoC5/CyDmac.c ****     return(status);
 941:Generated_Source\PSoC5/CyDmac.c **** }
 1109              		.loc 1 941 0
 1110 001a 7047     		bx	lr
 1111              		.cfi_endproc
 1112              	.LFE21:
 1113              		.size	CyDmaTdSetAddress, .-CyDmaTdSetAddress
 1114              		.section	.text.CyDmaTdGetAddress,"ax",%progbits
 1115              		.align	2
 1116              		.global	CyDmaTdGetAddress
 1117              		.thumb
 1118              		.thumb_func
 1119              		.type	CyDmaTdGetAddress, %function
 1120              	CyDmaTdGetAddress:
 1121              	.LFB22:
 942:Generated_Source\PSoC5/CyDmac.c **** 
 943:Generated_Source\PSoC5/CyDmac.c **** 
 944:Generated_Source\PSoC5/CyDmac.c **** /*******************************************************************************
 945:Generated_Source\PSoC5/CyDmac.c **** * Function Name: CyDmaTdGetAddress
 946:Generated_Source\PSoC5/CyDmac.c **** ****************************************************************************//**
 947:Generated_Source\PSoC5/CyDmac.c **** *
 948:Generated_Source\PSoC5/CyDmac.c **** *  Retrieves the lower 16 bits of the source and/or destination addresses for
 949:Generated_Source\PSoC5/CyDmac.c **** *  this TD only. If NULL is passed for a pointer parameter, that value is
 950:Generated_Source\PSoC5/CyDmac.c **** *  skipped. You may request only the values of interest.
 951:Generated_Source\PSoC5/CyDmac.c **** *
 952:Generated_Source\PSoC5/CyDmac.c **** *  \param uint8 tdHandle:
 953:Generated_Source\PSoC5/CyDmac.c **** *   A handle previously returned by CyDmaTdAlloc().
 954:Generated_Source\PSoC5/CyDmac.c **** *
 955:Generated_Source\PSoC5/CyDmac.c **** *  \param uint16 * source:
 956:Generated_Source\PSoC5/CyDmac.c **** *   The address to store the lower 16 address bits of the source of the data
 957:Generated_Source\PSoC5/CyDmac.c **** *   transfer.
 958:Generated_Source\PSoC5/CyDmac.c **** *
 959:Generated_Source\PSoC5/CyDmac.c **** *  \param uint16 * destination:
 960:Generated_Source\PSoC5/CyDmac.c **** *   The address to store the lower 16 address bits of the destination of the
 961:Generated_Source\PSoC5/CyDmac.c **** *   data transfer.
 962:Generated_Source\PSoC5/CyDmac.c **** *
 963:Generated_Source\PSoC5/CyDmac.c **** * \return
ARM GAS  C:\Users\ingan\AppData\Local\Temp\ccY20xfO.s 			page 38


 964:Generated_Source\PSoC5/CyDmac.c **** *  CYRET_SUCCESS if successful.
 965:Generated_Source\PSoC5/CyDmac.c **** *  CYRET_BAD_PARAM if tdHandle is invalid.
 966:Generated_Source\PSoC5/CyDmac.c **** *
 967:Generated_Source\PSoC5/CyDmac.c **** *******************************************************************************/
 968:Generated_Source\PSoC5/CyDmac.c **** cystatus CyDmaTdGetAddress(uint8 tdHandle, uint16 * source, uint16 * destination) 
 969:Generated_Source\PSoC5/CyDmac.c **** {
 1122              		.loc 1 969 0
 1123              		.cfi_startproc
 1124              		@ args = 0, pretend = 0, frame = 0
 1125              		@ frame_needed = 0, uses_anonymous_args = 0
 1126              		@ link register save eliminated.
 1127              	.LVL133:
 970:Generated_Source\PSoC5/CyDmac.c ****     cystatus status = CYRET_BAD_PARAM;
 971:Generated_Source\PSoC5/CyDmac.c ****     reg16 *convert;
 972:Generated_Source\PSoC5/CyDmac.c **** 
 973:Generated_Source\PSoC5/CyDmac.c ****     if(tdHandle < CY_DMA_NUMBEROF_TDS)
 1128              		.loc 1 973 0
 1129 0000 10F0800F 		tst	r0, #128
 1130 0004 11D1     		bne	.L118
 974:Generated_Source\PSoC5/CyDmac.c ****     {
 975:Generated_Source\PSoC5/CyDmac.c ****         /* If we have a pointer. */
 976:Generated_Source\PSoC5/CyDmac.c ****         if(NULL != source)
 1131              		.loc 1 976 0
 1132 0006 31B1     		cbz	r1, .L117
 977:Generated_Source\PSoC5/CyDmac.c ****         {
 978:Generated_Source\PSoC5/CyDmac.c ****             /* Get source address */
 979:Generated_Source\PSoC5/CyDmac.c ****             convert = (reg16 *) &CY_DMA_TDMEM_STRUCT_PTR[tdHandle].TD1[0u];
 1133              		.loc 1 979 0
 1134 0008 C300     		lsls	r3, r0, #3
 1135 000a 03F18043 		add	r3, r3, #1073741824
 1136 000e 03F5F043 		add	r3, r3, #30720
 1137              	.LVL134:
 980:Generated_Source\PSoC5/CyDmac.c ****             *source = CY_GET_REG16(convert);
 1138              		.loc 1 980 0
 1139 0012 9B88     		ldrh	r3, [r3, #4]
 1140              	.LVL135:
 1141 0014 0B80     		strh	r3, [r1]	@ movhi
 1142              	.LVL136:
 1143              	.L117:
 981:Generated_Source\PSoC5/CyDmac.c ****         }
 982:Generated_Source\PSoC5/CyDmac.c **** 
 983:Generated_Source\PSoC5/CyDmac.c ****         /* If we have a pointer. */
 984:Generated_Source\PSoC5/CyDmac.c ****         if(NULL != destination)
 1144              		.loc 1 984 0
 1145 0016 52B1     		cbz	r2, .L119
 985:Generated_Source\PSoC5/CyDmac.c ****         {
 986:Generated_Source\PSoC5/CyDmac.c ****             /* Get Destination address. */
 987:Generated_Source\PSoC5/CyDmac.c ****             convert = (reg16 *) &CY_DMA_TDMEM_STRUCT_PTR[tdHandle].TD1[2u];
 1146              		.loc 1 987 0
 1147 0018 C000     		lsls	r0, r0, #3
 1148              	.LVL137:
 1149 001a 00F18040 		add	r0, r0, #1073741824
 1150 001e 00F5F040 		add	r0, r0, #30720
 1151              	.LVL138:
 988:Generated_Source\PSoC5/CyDmac.c ****             *destination = CY_GET_REG16(convert);
 1152              		.loc 1 988 0
 1153 0022 C388     		ldrh	r3, [r0, #6]
ARM GAS  C:\Users\ingan\AppData\Local\Temp\ccY20xfO.s 			page 39


 1154 0024 1380     		strh	r3, [r2]	@ movhi
 989:Generated_Source\PSoC5/CyDmac.c ****         }
 990:Generated_Source\PSoC5/CyDmac.c **** 
 991:Generated_Source\PSoC5/CyDmac.c ****         status = CYRET_SUCCESS;
 1155              		.loc 1 991 0
 1156 0026 0020     		movs	r0, #0
 1157              	.LVL139:
 1158 0028 7047     		bx	lr
 1159              	.LVL140:
 1160              	.L118:
 970:Generated_Source\PSoC5/CyDmac.c ****     reg16 *convert;
 1161              		.loc 1 970 0
 1162 002a 0120     		movs	r0, #1
 1163              	.LVL141:
 1164 002c 7047     		bx	lr
 1165              	.LVL142:
 1166              	.L119:
 1167              		.loc 1 991 0
 1168 002e 0020     		movs	r0, #0
 1169              	.LVL143:
 992:Generated_Source\PSoC5/CyDmac.c ****     }
 993:Generated_Source\PSoC5/CyDmac.c **** 
 994:Generated_Source\PSoC5/CyDmac.c ****     return(status);
 995:Generated_Source\PSoC5/CyDmac.c **** }
 1170              		.loc 1 995 0
 1171 0030 7047     		bx	lr
 1172              		.cfi_endproc
 1173              	.LFE22:
 1174              		.size	CyDmaTdGetAddress, .-CyDmaTdGetAddress
 1175 0032 00BF     		.section	.text.CyDmaChRoundRobin,"ax",%progbits
 1176              		.align	2
 1177              		.global	CyDmaChRoundRobin
 1178              		.thumb
 1179              		.thumb_func
 1180              		.type	CyDmaChRoundRobin, %function
 1181              	CyDmaChRoundRobin:
 1182              	.LFB23:
 996:Generated_Source\PSoC5/CyDmac.c **** 
 997:Generated_Source\PSoC5/CyDmac.c **** 
 998:Generated_Source\PSoC5/CyDmac.c **** /*******************************************************************************
 999:Generated_Source\PSoC5/CyDmac.c **** * Function Name: CyDmaChRoundRobin
1000:Generated_Source\PSoC5/CyDmac.c **** ****************************************************************************//**
1001:Generated_Source\PSoC5/CyDmac.c **** *
1002:Generated_Source\PSoC5/CyDmac.c **** * Either enables or disables the Round-Robin scheduling enforcement algorithm.
1003:Generated_Source\PSoC5/CyDmac.c **** * Within a priority level a Round-Robin fairness algorithm is enforced.
1004:Generated_Source\PSoC5/CyDmac.c **** *
1005:Generated_Source\PSoC5/CyDmac.c **** * \param uint8 chHandle:
1006:Generated_Source\PSoC5/CyDmac.c **** *  A handle previously returned by CyDmaChAlloc() or Dma_DmaInitialize().
1007:Generated_Source\PSoC5/CyDmac.c **** *
1008:Generated_Source\PSoC5/CyDmac.c **** * \param uint8 enableRR:
1009:Generated_Source\PSoC5/CyDmac.c **** *  \param 0: Disable Round-Robin fairness algorithm
1010:Generated_Source\PSoC5/CyDmac.c **** *  \param 1: Enable Round-Robin fairness algorithm
1011:Generated_Source\PSoC5/CyDmac.c **** *
1012:Generated_Source\PSoC5/CyDmac.c **** * \return
1013:Generated_Source\PSoC5/CyDmac.c **** * CYRET_SUCCESS if successful.
1014:Generated_Source\PSoC5/CyDmac.c **** * CYRET_BAD_PARAM if chHandle is invalid.
1015:Generated_Source\PSoC5/CyDmac.c **** *
ARM GAS  C:\Users\ingan\AppData\Local\Temp\ccY20xfO.s 			page 40


1016:Generated_Source\PSoC5/CyDmac.c **** *******************************************************************************/
1017:Generated_Source\PSoC5/CyDmac.c **** cystatus CyDmaChRoundRobin(uint8 chHandle, uint8 enableRR) 
1018:Generated_Source\PSoC5/CyDmac.c **** {
 1183              		.loc 1 1018 0
 1184              		.cfi_startproc
 1185              		@ args = 0, pretend = 0, frame = 0
 1186              		@ frame_needed = 0, uses_anonymous_args = 0
 1187              		@ link register save eliminated.
 1188              	.LVL144:
1019:Generated_Source\PSoC5/CyDmac.c ****     cystatus status = CYRET_BAD_PARAM;
1020:Generated_Source\PSoC5/CyDmac.c **** 
1021:Generated_Source\PSoC5/CyDmac.c ****     if(chHandle < CY_DMA_NUMBEROF_CHANNELS)
 1189              		.loc 1 1021 0
 1190 0000 1728     		cmp	r0, #23
 1191 0002 10D8     		bhi	.L123
1022:Generated_Source\PSoC5/CyDmac.c ****     {
1023:Generated_Source\PSoC5/CyDmac.c ****         if (0u != enableRR)
 1192              		.loc 1 1023 0
 1193 0004 39B1     		cbz	r1, .L122
1024:Generated_Source\PSoC5/CyDmac.c ****         {
1025:Generated_Source\PSoC5/CyDmac.c ****             CY_DMA_CH_STRUCT_PTR[chHandle].basic_cfg[0u] |= (uint8)CY_DMA_ROUND_ROBIN_ENABLE;
 1194              		.loc 1 1025 0
 1195 0006 0001     		lsls	r0, r0, #4
 1196              	.LVL145:
 1197 0008 084A     		ldr	r2, .L124
 1198 000a 835C     		ldrb	r3, [r0, r2]	@ zero_extendqisi2
 1199 000c 43F01003 		orr	r3, r3, #16
 1200 0010 8354     		strb	r3, [r0, r2]
1026:Generated_Source\PSoC5/CyDmac.c ****         }
1027:Generated_Source\PSoC5/CyDmac.c ****         else
1028:Generated_Source\PSoC5/CyDmac.c ****         {
1029:Generated_Source\PSoC5/CyDmac.c ****             CY_DMA_CH_STRUCT_PTR[chHandle].basic_cfg[0u] &= (uint8)(~CY_DMA_ROUND_ROBIN_ENABLE);
1030:Generated_Source\PSoC5/CyDmac.c ****         }
1031:Generated_Source\PSoC5/CyDmac.c **** 
1032:Generated_Source\PSoC5/CyDmac.c ****         status = CYRET_SUCCESS;
 1201              		.loc 1 1032 0
 1202 0012 0020     		movs	r0, #0
 1203 0014 7047     		bx	lr
 1204              	.LVL146:
 1205              	.L122:
1029:Generated_Source\PSoC5/CyDmac.c ****         }
 1206              		.loc 1 1029 0
 1207 0016 0001     		lsls	r0, r0, #4
 1208              	.LVL147:
 1209 0018 044A     		ldr	r2, .L124
 1210 001a 835C     		ldrb	r3, [r0, r2]	@ zero_extendqisi2
 1211 001c 03F0EF03 		and	r3, r3, #239
 1212 0020 8354     		strb	r3, [r0, r2]
 1213              		.loc 1 1032 0
 1214 0022 0020     		movs	r0, #0
 1215 0024 7047     		bx	lr
 1216              	.LVL148:
 1217              	.L123:
1019:Generated_Source\PSoC5/CyDmac.c **** 
 1218              		.loc 1 1019 0
 1219 0026 0120     		movs	r0, #1
 1220              	.LVL149:
ARM GAS  C:\Users\ingan\AppData\Local\Temp\ccY20xfO.s 			page 41


1033:Generated_Source\PSoC5/CyDmac.c ****     }
1034:Generated_Source\PSoC5/CyDmac.c **** 
1035:Generated_Source\PSoC5/CyDmac.c ****     return(status);
1036:Generated_Source\PSoC5/CyDmac.c **** }
 1221              		.loc 1 1036 0
 1222 0028 7047     		bx	lr
 1223              	.L125:
 1224 002a 00BF     		.align	2
 1225              	.L124:
 1226 002c 10700040 		.word	1073770512
 1227              		.cfi_endproc
 1228              	.LFE23:
 1229              		.size	CyDmaChRoundRobin, .-CyDmaChRoundRobin
 1230              		.data
 1231              		.align	2
 1232              		.set	.LANCHOR0,. + 0
 1233              		.type	CyDmaTdFreeIndex, %object
 1234              		.size	CyDmaTdFreeIndex, 1
 1235              	CyDmaTdFreeIndex:
 1236 0000 7F       		.byte	127
 1237              		.type	CyDmaTdCurrentNumber, %object
 1238              		.size	CyDmaTdCurrentNumber, 1
 1239              	CyDmaTdCurrentNumber:
 1240 0001 80       		.byte	-128
 1241 0002 0000     		.space	2
 1242              		.type	CyDmaChannels, %object
 1243              		.size	CyDmaChannels, 4
 1244              	CyDmaChannels:
 1245 0004 07000000 		.word	7
 1246              		.text
 1247              	.Letext0:
 1248              		.file 2 "Generated_Source\\PSoC5\\cytypes.h"
 1249              		.file 3 "Generated_Source\\PSoC5\\CyDmac.h"
 1250              		.file 4 "Generated_Source\\PSoC5\\CyLib.h"