ARM GAS  C:\Users\ingan\AppData\Local\Temp\ccYjmgRi.s 			page 1


   1              		.syntax unified
   2              		.cpu cortex-m3
   3              		.fpu softvfp
   4              		.eabi_attribute 20, 1
   5              		.eabi_attribute 21, 1
   6              		.eabi_attribute 23, 3
   7              		.eabi_attribute 24, 1
   8              		.eabi_attribute 25, 1
   9              		.eabi_attribute 26, 1
  10              		.eabi_attribute 30, 1
  11              		.eabi_attribute 34, 1
  12              		.eabi_attribute 18, 4
  13              		.thumb
  14              		.syntax unified
  15              		.file	"cyfitter_cfg.c"
  16              		.text
  17              	.Ltext0:
  18              		.cfi_sections	.debug_frame
  19              		.section	.text.SetAnalogRoutingPumps,"ax",%progbits
  20              		.align	2
  21              		.global	SetAnalogRoutingPumps
  22              		.thumb
  23              		.thumb_func
  24              		.type	SetAnalogRoutingPumps, %function
  25              	SetAnalogRoutingPumps:
  26              	.LFB7:
  27              		.file 1 "Generated_Source\\PSoC5\\cyfitter_cfg.c"
   1:Generated_Source\PSoC5/cyfitter_cfg.c **** 
   2:Generated_Source\PSoC5/cyfitter_cfg.c **** /*******************************************************************************
   3:Generated_Source\PSoC5/cyfitter_cfg.c **** * File Name: cyfitter_cfg.c
   4:Generated_Source\PSoC5/cyfitter_cfg.c **** * 
   5:Generated_Source\PSoC5/cyfitter_cfg.c **** * PSoC Creator  4.2
   6:Generated_Source\PSoC5/cyfitter_cfg.c **** *
   7:Generated_Source\PSoC5/cyfitter_cfg.c **** * Description:
   8:Generated_Source\PSoC5/cyfitter_cfg.c **** * This file contains device initialization code.
   9:Generated_Source\PSoC5/cyfitter_cfg.c **** * Except for the user defined sections in CyClockStartupError(), this file should not be modified.
  10:Generated_Source\PSoC5/cyfitter_cfg.c **** * This file is automatically generated by PSoC Creator.
  11:Generated_Source\PSoC5/cyfitter_cfg.c **** *
  12:Generated_Source\PSoC5/cyfitter_cfg.c **** ********************************************************************************
  13:Generated_Source\PSoC5/cyfitter_cfg.c **** * Copyright (c) 2007-2018 Cypress Semiconductor.  All rights reserved.
  14:Generated_Source\PSoC5/cyfitter_cfg.c **** * You may use this file only in accordance with the license, terms, conditions, 
  15:Generated_Source\PSoC5/cyfitter_cfg.c **** * disclaimers, and limitations in the end user license agreement accompanying 
  16:Generated_Source\PSoC5/cyfitter_cfg.c **** * the software package with which this file was provided.
  17:Generated_Source\PSoC5/cyfitter_cfg.c **** ********************************************************************************/
  18:Generated_Source\PSoC5/cyfitter_cfg.c **** 
  19:Generated_Source\PSoC5/cyfitter_cfg.c **** #include <string.h>
  20:Generated_Source\PSoC5/cyfitter_cfg.c **** #include "cytypes.h"
  21:Generated_Source\PSoC5/cyfitter_cfg.c **** #include "cydevice_trm.h"
  22:Generated_Source\PSoC5/cyfitter_cfg.c **** #include "cyfitter.h"
  23:Generated_Source\PSoC5/cyfitter_cfg.c **** #include "CyLib.h"
  24:Generated_Source\PSoC5/cyfitter_cfg.c **** #include "cyfitter_cfg.h"
  25:Generated_Source\PSoC5/cyfitter_cfg.c **** #include "cyapicallbacks.h"
  26:Generated_Source\PSoC5/cyfitter_cfg.c **** 
  27:Generated_Source\PSoC5/cyfitter_cfg.c **** #define CY_NEED_CYCLOCKSTARTUPERROR 1
  28:Generated_Source\PSoC5/cyfitter_cfg.c **** 
  29:Generated_Source\PSoC5/cyfitter_cfg.c **** 
  30:Generated_Source\PSoC5/cyfitter_cfg.c **** #if defined(__GNUC__) || defined(__ARMCC_VERSION)
ARM GAS  C:\Users\ingan\AppData\Local\Temp\ccYjmgRi.s 			page 2


  31:Generated_Source\PSoC5/cyfitter_cfg.c ****     #define CYPACKED 
  32:Generated_Source\PSoC5/cyfitter_cfg.c ****     #define CYPACKED_ATTR __attribute__ ((packed))
  33:Generated_Source\PSoC5/cyfitter_cfg.c ****     #define CYALIGNED __attribute__ ((aligned))
  34:Generated_Source\PSoC5/cyfitter_cfg.c ****     #define CY_CFG_UNUSED __attribute__ ((unused))
  35:Generated_Source\PSoC5/cyfitter_cfg.c ****     #ifndef CY_CFG_SECTION
  36:Generated_Source\PSoC5/cyfitter_cfg.c ****         #define CY_CFG_SECTION __attribute__ ((section(".psocinit")))
  37:Generated_Source\PSoC5/cyfitter_cfg.c ****     #endif
  38:Generated_Source\PSoC5/cyfitter_cfg.c ****     
  39:Generated_Source\PSoC5/cyfitter_cfg.c ****     #if defined(__ARMCC_VERSION)
  40:Generated_Source\PSoC5/cyfitter_cfg.c ****         #define CY_CFG_MEMORY_BARRIER() __memory_changed()
  41:Generated_Source\PSoC5/cyfitter_cfg.c ****     #else
  42:Generated_Source\PSoC5/cyfitter_cfg.c ****         #define CY_CFG_MEMORY_BARRIER() __sync_synchronize()
  43:Generated_Source\PSoC5/cyfitter_cfg.c ****     #endif
  44:Generated_Source\PSoC5/cyfitter_cfg.c ****     
  45:Generated_Source\PSoC5/cyfitter_cfg.c **** #elif defined(__ICCARM__)
  46:Generated_Source\PSoC5/cyfitter_cfg.c ****     #include <intrinsics.h>
  47:Generated_Source\PSoC5/cyfitter_cfg.c **** 
  48:Generated_Source\PSoC5/cyfitter_cfg.c ****     #define CYPACKED __packed
  49:Generated_Source\PSoC5/cyfitter_cfg.c ****     #define CYPACKED_ATTR 
  50:Generated_Source\PSoC5/cyfitter_cfg.c ****     #define CYALIGNED _Pragma("data_alignment=4")
  51:Generated_Source\PSoC5/cyfitter_cfg.c ****     #define CY_CFG_UNUSED _Pragma("diag_suppress=Pe177")
  52:Generated_Source\PSoC5/cyfitter_cfg.c ****     #define CY_CFG_SECTION _Pragma("location=\".psocinit\"")
  53:Generated_Source\PSoC5/cyfitter_cfg.c ****     
  54:Generated_Source\PSoC5/cyfitter_cfg.c ****     #define CY_CFG_MEMORY_BARRIER() __DMB()
  55:Generated_Source\PSoC5/cyfitter_cfg.c ****     
  56:Generated_Source\PSoC5/cyfitter_cfg.c **** #else
  57:Generated_Source\PSoC5/cyfitter_cfg.c ****     #error Unsupported toolchain
  58:Generated_Source\PSoC5/cyfitter_cfg.c **** #endif
  59:Generated_Source\PSoC5/cyfitter_cfg.c **** 
  60:Generated_Source\PSoC5/cyfitter_cfg.c **** #ifndef CYCODE
  61:Generated_Source\PSoC5/cyfitter_cfg.c ****     #define CYCODE
  62:Generated_Source\PSoC5/cyfitter_cfg.c **** #endif
  63:Generated_Source\PSoC5/cyfitter_cfg.c **** #ifndef CYDATA
  64:Generated_Source\PSoC5/cyfitter_cfg.c ****     #define CYDATA
  65:Generated_Source\PSoC5/cyfitter_cfg.c **** #endif
  66:Generated_Source\PSoC5/cyfitter_cfg.c **** #ifndef CYFAR
  67:Generated_Source\PSoC5/cyfitter_cfg.c ****     #define CYFAR
  68:Generated_Source\PSoC5/cyfitter_cfg.c **** #endif
  69:Generated_Source\PSoC5/cyfitter_cfg.c **** #ifndef CYXDATA
  70:Generated_Source\PSoC5/cyfitter_cfg.c ****     #define CYXDATA
  71:Generated_Source\PSoC5/cyfitter_cfg.c **** #endif
  72:Generated_Source\PSoC5/cyfitter_cfg.c **** 
  73:Generated_Source\PSoC5/cyfitter_cfg.c **** 
  74:Generated_Source\PSoC5/cyfitter_cfg.c **** CY_CFG_UNUSED
  75:Generated_Source\PSoC5/cyfitter_cfg.c **** static void CYMEMZERO(void *s, size_t n);
  76:Generated_Source\PSoC5/cyfitter_cfg.c **** CY_CFG_UNUSED
  77:Generated_Source\PSoC5/cyfitter_cfg.c **** static void CYMEMZERO(void *s, size_t n)
  78:Generated_Source\PSoC5/cyfitter_cfg.c **** {
  79:Generated_Source\PSoC5/cyfitter_cfg.c **** 	(void)memset(s, 0, n);
  80:Generated_Source\PSoC5/cyfitter_cfg.c **** }
  81:Generated_Source\PSoC5/cyfitter_cfg.c **** CY_CFG_UNUSED
  82:Generated_Source\PSoC5/cyfitter_cfg.c **** static void CYCONFIGCPY(void *dest, const void *src, size_t n);
  83:Generated_Source\PSoC5/cyfitter_cfg.c **** CY_CFG_UNUSED
  84:Generated_Source\PSoC5/cyfitter_cfg.c **** static void CYCONFIGCPY(void *dest, const void *src, size_t n)
  85:Generated_Source\PSoC5/cyfitter_cfg.c **** {
  86:Generated_Source\PSoC5/cyfitter_cfg.c **** 	(void)memcpy(dest, src, n);
  87:Generated_Source\PSoC5/cyfitter_cfg.c **** }
ARM GAS  C:\Users\ingan\AppData\Local\Temp\ccYjmgRi.s 			page 3


  88:Generated_Source\PSoC5/cyfitter_cfg.c **** CY_CFG_UNUSED
  89:Generated_Source\PSoC5/cyfitter_cfg.c **** static void CYCONFIGCPYCODE(void *dest, const void *src, size_t n);
  90:Generated_Source\PSoC5/cyfitter_cfg.c **** CY_CFG_UNUSED
  91:Generated_Source\PSoC5/cyfitter_cfg.c **** static void CYCONFIGCPYCODE(void *dest, const void *src, size_t n)
  92:Generated_Source\PSoC5/cyfitter_cfg.c **** {
  93:Generated_Source\PSoC5/cyfitter_cfg.c **** 	(void)memcpy(dest, src, n);
  94:Generated_Source\PSoC5/cyfitter_cfg.c **** }
  95:Generated_Source\PSoC5/cyfitter_cfg.c **** 
  96:Generated_Source\PSoC5/cyfitter_cfg.c **** 
  97:Generated_Source\PSoC5/cyfitter_cfg.c **** 
  98:Generated_Source\PSoC5/cyfitter_cfg.c **** 
  99:Generated_Source\PSoC5/cyfitter_cfg.c **** /* Clock startup error codes                                                   */
 100:Generated_Source\PSoC5/cyfitter_cfg.c **** #define CYCLOCKSTART_NO_ERROR    0u
 101:Generated_Source\PSoC5/cyfitter_cfg.c **** #define CYCLOCKSTART_XTAL_ERROR  1u
 102:Generated_Source\PSoC5/cyfitter_cfg.c **** #define CYCLOCKSTART_32KHZ_ERROR 2u
 103:Generated_Source\PSoC5/cyfitter_cfg.c **** #define CYCLOCKSTART_PLL_ERROR   3u
 104:Generated_Source\PSoC5/cyfitter_cfg.c **** #define CYCLOCKSTART_FLL_ERROR   4u
 105:Generated_Source\PSoC5/cyfitter_cfg.c **** #define CYCLOCKSTART_WCO_ERROR   5u
 106:Generated_Source\PSoC5/cyfitter_cfg.c **** 
 107:Generated_Source\PSoC5/cyfitter_cfg.c **** 
 108:Generated_Source\PSoC5/cyfitter_cfg.c **** #ifdef CY_NEED_CYCLOCKSTARTUPERROR
 109:Generated_Source\PSoC5/cyfitter_cfg.c **** /*******************************************************************************
 110:Generated_Source\PSoC5/cyfitter_cfg.c **** * Function Name: CyClockStartupError
 111:Generated_Source\PSoC5/cyfitter_cfg.c **** ********************************************************************************
 112:Generated_Source\PSoC5/cyfitter_cfg.c **** * Summary:
 113:Generated_Source\PSoC5/cyfitter_cfg.c **** *  If an error is encountered during clock configuration (crystal startup error,
 114:Generated_Source\PSoC5/cyfitter_cfg.c **** *  PLL lock error, etc.), the system will end up here.  Unless reimplemented by
 115:Generated_Source\PSoC5/cyfitter_cfg.c **** *  the customer, this function will stop in an infinite loop.
 116:Generated_Source\PSoC5/cyfitter_cfg.c **** *
 117:Generated_Source\PSoC5/cyfitter_cfg.c **** * Parameters:
 118:Generated_Source\PSoC5/cyfitter_cfg.c **** *   void
 119:Generated_Source\PSoC5/cyfitter_cfg.c **** *
 120:Generated_Source\PSoC5/cyfitter_cfg.c **** * Return:
 121:Generated_Source\PSoC5/cyfitter_cfg.c **** *   void
 122:Generated_Source\PSoC5/cyfitter_cfg.c **** *
 123:Generated_Source\PSoC5/cyfitter_cfg.c **** *******************************************************************************/
 124:Generated_Source\PSoC5/cyfitter_cfg.c **** CY_CFG_UNUSED
 125:Generated_Source\PSoC5/cyfitter_cfg.c **** static void CyClockStartupError(uint8 errorCode);
 126:Generated_Source\PSoC5/cyfitter_cfg.c **** CY_CFG_UNUSED
 127:Generated_Source\PSoC5/cyfitter_cfg.c **** static void CyClockStartupError(uint8 errorCode)
 128:Generated_Source\PSoC5/cyfitter_cfg.c **** {
 129:Generated_Source\PSoC5/cyfitter_cfg.c ****     /* To remove the compiler warning if errorCode not used.                */
 130:Generated_Source\PSoC5/cyfitter_cfg.c ****     errorCode = errorCode;
 131:Generated_Source\PSoC5/cyfitter_cfg.c **** 
 132:Generated_Source\PSoC5/cyfitter_cfg.c ****     /* If we have a clock startup error (bad MHz crystal, PLL lock, etc.),  */
 133:Generated_Source\PSoC5/cyfitter_cfg.c ****     /* we will end up here to allow the customer to implement something to  */
 134:Generated_Source\PSoC5/cyfitter_cfg.c ****     /* deal with the clock condition.                                       */
 135:Generated_Source\PSoC5/cyfitter_cfg.c **** 
 136:Generated_Source\PSoC5/cyfitter_cfg.c **** #ifdef CY_CFG_CLOCK_STARTUP_ERROR_CALLBACK
 137:Generated_Source\PSoC5/cyfitter_cfg.c ****     CY_CFG_Clock_Startup_ErrorCallback();
 138:Generated_Source\PSoC5/cyfitter_cfg.c **** #else
 139:Generated_Source\PSoC5/cyfitter_cfg.c ****     /*  If not using CY_CFG_CLOCK_STARTUP_ERROR_CALLBACK, place your clock startup code here. */
 140:Generated_Source\PSoC5/cyfitter_cfg.c ****     /* `#START CyClockStartupError` */
 141:Generated_Source\PSoC5/cyfitter_cfg.c **** 
 142:Generated_Source\PSoC5/cyfitter_cfg.c **** 
 143:Generated_Source\PSoC5/cyfitter_cfg.c **** 
 144:Generated_Source\PSoC5/cyfitter_cfg.c ****     /* `#END` */
ARM GAS  C:\Users\ingan\AppData\Local\Temp\ccYjmgRi.s 			page 4


 145:Generated_Source\PSoC5/cyfitter_cfg.c **** 
 146:Generated_Source\PSoC5/cyfitter_cfg.c ****     while(1) {}
 147:Generated_Source\PSoC5/cyfitter_cfg.c **** #endif /* CY_CFG_CLOCK_STARTUP_ERROR_CALLBACK */
 148:Generated_Source\PSoC5/cyfitter_cfg.c **** }
 149:Generated_Source\PSoC5/cyfitter_cfg.c **** #endif
 150:Generated_Source\PSoC5/cyfitter_cfg.c **** 
 151:Generated_Source\PSoC5/cyfitter_cfg.c **** #define CY_CFG_BASE_ADDR_COUNT 13u
 152:Generated_Source\PSoC5/cyfitter_cfg.c **** CYPACKED typedef struct
 153:Generated_Source\PSoC5/cyfitter_cfg.c **** {
 154:Generated_Source\PSoC5/cyfitter_cfg.c **** 	uint8 offset;
 155:Generated_Source\PSoC5/cyfitter_cfg.c **** 	uint8 value;
 156:Generated_Source\PSoC5/cyfitter_cfg.c **** } CYPACKED_ATTR cy_cfg_addrvalue_t;
 157:Generated_Source\PSoC5/cyfitter_cfg.c **** 
 158:Generated_Source\PSoC5/cyfitter_cfg.c **** #define cy_cfg_addr_table ((const uint32 CYFAR *)0x48000000u)
 159:Generated_Source\PSoC5/cyfitter_cfg.c **** #define cy_cfg_data_table ((const cy_cfg_addrvalue_t CYFAR *)0x48000034u)
 160:Generated_Source\PSoC5/cyfitter_cfg.c **** 
 161:Generated_Source\PSoC5/cyfitter_cfg.c **** /* IOPINS0_0 Address: CYREG_PRT0_DM0 Size (bytes): 8 */
 162:Generated_Source\PSoC5/cyfitter_cfg.c **** #define BS_IOPINS0_0_VAL ((const uint8 CYFAR *)0x48000088u)
 163:Generated_Source\PSoC5/cyfitter_cfg.c **** 
 164:Generated_Source\PSoC5/cyfitter_cfg.c **** /* IOPINS0_7 Address: CYREG_PRT12_DM0 Size (bytes): 8 */
 165:Generated_Source\PSoC5/cyfitter_cfg.c **** #define BS_IOPINS0_7_VAL ((const uint8 CYFAR *)0x48000090u)
 166:Generated_Source\PSoC5/cyfitter_cfg.c **** 
 167:Generated_Source\PSoC5/cyfitter_cfg.c **** /* IOPINS0_8 Address: CYREG_PRT15_DR Size (bytes): 10 */
 168:Generated_Source\PSoC5/cyfitter_cfg.c **** #define BS_IOPINS0_8_VAL ((const uint8 CYFAR *)0x48000098u)
 169:Generated_Source\PSoC5/cyfitter_cfg.c **** 
 170:Generated_Source\PSoC5/cyfitter_cfg.c **** /* IOPINS0_1 Address: CYREG_PRT1_DM0 Size (bytes): 8 */
 171:Generated_Source\PSoC5/cyfitter_cfg.c **** #define BS_IOPINS0_1_VAL ((const uint8 CYFAR *)0x480000A4u)
 172:Generated_Source\PSoC5/cyfitter_cfg.c **** 
 173:Generated_Source\PSoC5/cyfitter_cfg.c **** /* IOPINS0_2 Address: CYREG_PRT2_DM0 Size (bytes): 8 */
 174:Generated_Source\PSoC5/cyfitter_cfg.c **** #define BS_IOPINS0_2_VAL ((const uint8 CYFAR *)0x480000ACu)
 175:Generated_Source\PSoC5/cyfitter_cfg.c **** 
 176:Generated_Source\PSoC5/cyfitter_cfg.c **** /* IOPINS0_3 Address: CYREG_PRT3_DM0 Size (bytes): 8 */
 177:Generated_Source\PSoC5/cyfitter_cfg.c **** #define BS_IOPINS0_3_VAL ((const uint8 CYFAR *)0x480000B4u)
 178:Generated_Source\PSoC5/cyfitter_cfg.c **** 
 179:Generated_Source\PSoC5/cyfitter_cfg.c **** 
 180:Generated_Source\PSoC5/cyfitter_cfg.c **** /*******************************************************************************
 181:Generated_Source\PSoC5/cyfitter_cfg.c **** * Function Name: cfg_write_bytes32
 182:Generated_Source\PSoC5/cyfitter_cfg.c **** ********************************************************************************
 183:Generated_Source\PSoC5/cyfitter_cfg.c **** * Summary:
 184:Generated_Source\PSoC5/cyfitter_cfg.c **** *  This function is used for setting up the chip configuration areas that
 185:Generated_Source\PSoC5/cyfitter_cfg.c **** *  contain relatively sparse data.
 186:Generated_Source\PSoC5/cyfitter_cfg.c **** *
 187:Generated_Source\PSoC5/cyfitter_cfg.c **** * Parameters:
 188:Generated_Source\PSoC5/cyfitter_cfg.c **** *   void
 189:Generated_Source\PSoC5/cyfitter_cfg.c **** *
 190:Generated_Source\PSoC5/cyfitter_cfg.c **** * Return:
 191:Generated_Source\PSoC5/cyfitter_cfg.c **** *   void
 192:Generated_Source\PSoC5/cyfitter_cfg.c **** *
 193:Generated_Source\PSoC5/cyfitter_cfg.c **** *******************************************************************************/
 194:Generated_Source\PSoC5/cyfitter_cfg.c **** static void cfg_write_bytes32(const uint32 addr_table[], const cy_cfg_addrvalue_t data_table[]);
 195:Generated_Source\PSoC5/cyfitter_cfg.c **** static void cfg_write_bytes32(const uint32 addr_table[], const cy_cfg_addrvalue_t data_table[])
 196:Generated_Source\PSoC5/cyfitter_cfg.c **** {
 197:Generated_Source\PSoC5/cyfitter_cfg.c **** 	/* For 32-bit little-endian architectures */
 198:Generated_Source\PSoC5/cyfitter_cfg.c **** 	uint32 i, j = 0u;
 199:Generated_Source\PSoC5/cyfitter_cfg.c **** 	for (i = 0u; i < CY_CFG_BASE_ADDR_COUNT; i++)
 200:Generated_Source\PSoC5/cyfitter_cfg.c **** 	{
 201:Generated_Source\PSoC5/cyfitter_cfg.c **** 		uint32 baseAddr = addr_table[i];
ARM GAS  C:\Users\ingan\AppData\Local\Temp\ccYjmgRi.s 			page 5


 202:Generated_Source\PSoC5/cyfitter_cfg.c **** 		uint8 count = (uint8)baseAddr;
 203:Generated_Source\PSoC5/cyfitter_cfg.c **** 		baseAddr &= 0xFFFFFF00u;
 204:Generated_Source\PSoC5/cyfitter_cfg.c **** 		while (count != 0u)
 205:Generated_Source\PSoC5/cyfitter_cfg.c **** 		{
 206:Generated_Source\PSoC5/cyfitter_cfg.c **** 			CY_SET_REG8((void *)(baseAddr + data_table[j].offset), data_table[j].value);
 207:Generated_Source\PSoC5/cyfitter_cfg.c **** 			j++;
 208:Generated_Source\PSoC5/cyfitter_cfg.c **** 			count--;
 209:Generated_Source\PSoC5/cyfitter_cfg.c **** 		}
 210:Generated_Source\PSoC5/cyfitter_cfg.c **** 	}
 211:Generated_Source\PSoC5/cyfitter_cfg.c **** }
 212:Generated_Source\PSoC5/cyfitter_cfg.c **** 
 213:Generated_Source\PSoC5/cyfitter_cfg.c **** /*******************************************************************************
 214:Generated_Source\PSoC5/cyfitter_cfg.c **** * Function Name: ClockSetup
 215:Generated_Source\PSoC5/cyfitter_cfg.c **** ********************************************************************************
 216:Generated_Source\PSoC5/cyfitter_cfg.c **** *
 217:Generated_Source\PSoC5/cyfitter_cfg.c **** * Summary:
 218:Generated_Source\PSoC5/cyfitter_cfg.c **** *  Performs the initialization of all of the clocks in the device based on the
 219:Generated_Source\PSoC5/cyfitter_cfg.c **** *  settings in the Clock tab of the DWR.  This includes enabling the requested
 220:Generated_Source\PSoC5/cyfitter_cfg.c **** *  clocks and setting the necessary dividers to produce the desired frequency. 
 221:Generated_Source\PSoC5/cyfitter_cfg.c **** *
 222:Generated_Source\PSoC5/cyfitter_cfg.c **** * Parameters:
 223:Generated_Source\PSoC5/cyfitter_cfg.c **** *  void
 224:Generated_Source\PSoC5/cyfitter_cfg.c **** *
 225:Generated_Source\PSoC5/cyfitter_cfg.c **** * Return:
 226:Generated_Source\PSoC5/cyfitter_cfg.c **** *  void
 227:Generated_Source\PSoC5/cyfitter_cfg.c **** *
 228:Generated_Source\PSoC5/cyfitter_cfg.c **** *******************************************************************************/
 229:Generated_Source\PSoC5/cyfitter_cfg.c **** static void ClockSetup(void);
 230:Generated_Source\PSoC5/cyfitter_cfg.c **** static void ClockSetup(void)
 231:Generated_Source\PSoC5/cyfitter_cfg.c **** {
 232:Generated_Source\PSoC5/cyfitter_cfg.c **** 	uint32 timeout;
 233:Generated_Source\PSoC5/cyfitter_cfg.c **** 	uint8 pllLock;
 234:Generated_Source\PSoC5/cyfitter_cfg.c **** 
 235:Generated_Source\PSoC5/cyfitter_cfg.c **** 
 236:Generated_Source\PSoC5/cyfitter_cfg.c **** 	/* Configure Digital Clocks based on settings from Clock DWR */
 237:Generated_Source\PSoC5/cyfitter_cfg.c **** 	CY_SET_XTND_REG16((void CYFAR *)(CYREG_CLKDIST_DCFG0_CFG0), 0x000Cu);
 238:Generated_Source\PSoC5/cyfitter_cfg.c **** 	CY_SET_XTND_REG8((void CYFAR *)(CYREG_CLKDIST_DCFG0_CFG0 + 0x2u), 0x18u);
 239:Generated_Source\PSoC5/cyfitter_cfg.c **** 	CY_SET_XTND_REG16((void CYFAR *)(CYREG_CLKDIST_DCFG1_CFG0), 0x0005u);
 240:Generated_Source\PSoC5/cyfitter_cfg.c **** 	CY_SET_XTND_REG8((void CYFAR *)(CYREG_CLKDIST_DCFG1_CFG0 + 0x2u), 0x18u);
 241:Generated_Source\PSoC5/cyfitter_cfg.c **** 	CY_SET_XTND_REG16((void CYFAR *)(CYREG_CLKDIST_DCFG2_CFG0), 0x0412u);
 242:Generated_Source\PSoC5/cyfitter_cfg.c **** 	CY_SET_XTND_REG8((void CYFAR *)(CYREG_CLKDIST_DCFG2_CFG0 + 0x2u), 0x18u);
 243:Generated_Source\PSoC5/cyfitter_cfg.c **** 
 244:Generated_Source\PSoC5/cyfitter_cfg.c **** 	/* Configure ILO based on settings from Clock DWR */
 245:Generated_Source\PSoC5/cyfitter_cfg.c **** 	CY_SET_XTND_REG8((void CYFAR *)(CYREG_SLOWCLK_ILO_CR0), 0x06u);
 246:Generated_Source\PSoC5/cyfitter_cfg.c **** 
 247:Generated_Source\PSoC5/cyfitter_cfg.c **** 	/* Configure IMO based on settings from Clock DWR */
 248:Generated_Source\PSoC5/cyfitter_cfg.c **** 	CY_SET_XTND_REG8((void CYFAR *)(CYREG_FASTCLK_IMO_CR), 0x52u);
 249:Generated_Source\PSoC5/cyfitter_cfg.c **** 	CY_SET_XTND_REG8((void CYFAR *)(CYREG_IMO_TR1), (CY_GET_XTND_REG8((void CYFAR *)CYREG_FLSHID_CUST_
 250:Generated_Source\PSoC5/cyfitter_cfg.c **** 
 251:Generated_Source\PSoC5/cyfitter_cfg.c **** 	/* Configure PLL based on settings from Clock DWR */
 252:Generated_Source\PSoC5/cyfitter_cfg.c **** 	CY_SET_XTND_REG16((void CYFAR *)(CYREG_FASTCLK_PLL_P), 0x0B17u);
 253:Generated_Source\PSoC5/cyfitter_cfg.c **** 	CY_SET_XTND_REG16((void CYFAR *)(CYREG_FASTCLK_PLL_CFG0), 0x1251u);
 254:Generated_Source\PSoC5/cyfitter_cfg.c **** 	/* Wait up to 250us for the PLL to lock */
 255:Generated_Source\PSoC5/cyfitter_cfg.c **** 	pllLock = 0u;
 256:Generated_Source\PSoC5/cyfitter_cfg.c **** 	for (timeout = 250u / 10u; (timeout > 0u) && (pllLock != 0x03u); timeout--)
 257:Generated_Source\PSoC5/cyfitter_cfg.c **** 	{ 
 258:Generated_Source\PSoC5/cyfitter_cfg.c **** 		pllLock = 0x03u & ((uint8)((uint8)pllLock << 1) | ((CY_GET_XTND_REG8((void CYFAR *)CYREG_FASTCLK_
ARM GAS  C:\Users\ingan\AppData\Local\Temp\ccYjmgRi.s 			page 6


 259:Generated_Source\PSoC5/cyfitter_cfg.c **** 		CyDelayCycles(10u * 48u); /* Delay 10us based on 48MHz clock */
 260:Generated_Source\PSoC5/cyfitter_cfg.c **** 	}
 261:Generated_Source\PSoC5/cyfitter_cfg.c **** 	/* If we ran out of time the PLL didn't lock so go to the error function */
 262:Generated_Source\PSoC5/cyfitter_cfg.c **** 	if (timeout == 0u)
 263:Generated_Source\PSoC5/cyfitter_cfg.c **** 	{
 264:Generated_Source\PSoC5/cyfitter_cfg.c **** 		CyClockStartupError(CYCLOCKSTART_PLL_ERROR);
 265:Generated_Source\PSoC5/cyfitter_cfg.c **** 	}
 266:Generated_Source\PSoC5/cyfitter_cfg.c **** 
 267:Generated_Source\PSoC5/cyfitter_cfg.c **** 	/* Configure Bus/Master Clock based on settings from Clock DWR */
 268:Generated_Source\PSoC5/cyfitter_cfg.c **** 	CY_SET_XTND_REG16((void CYFAR *)(CYREG_CLKDIST_MSTR0), 0x0100u);
 269:Generated_Source\PSoC5/cyfitter_cfg.c **** 	CY_SET_XTND_REG8((void CYFAR *)(CYREG_CLKDIST_MSTR0), 0x07u);
 270:Generated_Source\PSoC5/cyfitter_cfg.c **** 	CY_SET_XTND_REG8((void CYFAR *)(CYREG_CLKDIST_BCFG0), 0x00u);
 271:Generated_Source\PSoC5/cyfitter_cfg.c **** 	CY_SET_XTND_REG8((void CYFAR *)(CYREG_CLKDIST_BCFG2), 0x48u);
 272:Generated_Source\PSoC5/cyfitter_cfg.c **** 	CY_SET_XTND_REG8((void CYFAR *)(CYREG_CLKDIST_MSTR0), 0x00u);
 273:Generated_Source\PSoC5/cyfitter_cfg.c **** 
 274:Generated_Source\PSoC5/cyfitter_cfg.c **** 	/* Configure USB Clock based on settings from Clock DWR */
 275:Generated_Source\PSoC5/cyfitter_cfg.c **** 	CY_SET_XTND_REG8((void CYFAR *)(CYREG_CLKDIST_UCFG), 0x00u);
 276:Generated_Source\PSoC5/cyfitter_cfg.c **** 	CY_SET_XTND_REG8((void CYFAR *)(CYREG_CLKDIST_LD), 0x02u);
 277:Generated_Source\PSoC5/cyfitter_cfg.c **** 
 278:Generated_Source\PSoC5/cyfitter_cfg.c **** 	CY_SET_XTND_REG8((void CYFAR *)(CYREG_PM_ACT_CFG2), ((CY_GET_XTND_REG8((void CYFAR *)CYREG_PM_ACT_
 279:Generated_Source\PSoC5/cyfitter_cfg.c **** }
 280:Generated_Source\PSoC5/cyfitter_cfg.c **** 
 281:Generated_Source\PSoC5/cyfitter_cfg.c **** 
 282:Generated_Source\PSoC5/cyfitter_cfg.c **** /* Analog API Functions */
 283:Generated_Source\PSoC5/cyfitter_cfg.c **** 
 284:Generated_Source\PSoC5/cyfitter_cfg.c **** 
 285:Generated_Source\PSoC5/cyfitter_cfg.c **** /*******************************************************************************
 286:Generated_Source\PSoC5/cyfitter_cfg.c **** * Function Name: AnalogSetDefault
 287:Generated_Source\PSoC5/cyfitter_cfg.c **** ********************************************************************************
 288:Generated_Source\PSoC5/cyfitter_cfg.c **** *
 289:Generated_Source\PSoC5/cyfitter_cfg.c **** * Summary:
 290:Generated_Source\PSoC5/cyfitter_cfg.c **** *  Sets up the analog portions of the chip to default values based on chip
 291:Generated_Source\PSoC5/cyfitter_cfg.c **** *  configuration options from the project.
 292:Generated_Source\PSoC5/cyfitter_cfg.c **** *
 293:Generated_Source\PSoC5/cyfitter_cfg.c **** * Parameters:
 294:Generated_Source\PSoC5/cyfitter_cfg.c **** *  void
 295:Generated_Source\PSoC5/cyfitter_cfg.c **** *
 296:Generated_Source\PSoC5/cyfitter_cfg.c **** * Return:
 297:Generated_Source\PSoC5/cyfitter_cfg.c **** *  void
 298:Generated_Source\PSoC5/cyfitter_cfg.c **** *
 299:Generated_Source\PSoC5/cyfitter_cfg.c **** *******************************************************************************/
 300:Generated_Source\PSoC5/cyfitter_cfg.c **** static void AnalogSetDefault(void);
 301:Generated_Source\PSoC5/cyfitter_cfg.c **** static void AnalogSetDefault(void)
 302:Generated_Source\PSoC5/cyfitter_cfg.c **** {
 303:Generated_Source\PSoC5/cyfitter_cfg.c **** 	uint8 bg_xover_inl_trim = CY_GET_XTND_REG8((void CYFAR *)(CYREG_FLSHID_MFG_CFG_BG_XOVER_INL_TRIM +
 304:Generated_Source\PSoC5/cyfitter_cfg.c **** 	CY_SET_XTND_REG8((void CYFAR *)(CYREG_BG_DFT0), (bg_xover_inl_trim & 0x07u));
 305:Generated_Source\PSoC5/cyfitter_cfg.c **** 	CY_SET_XTND_REG8((void CYFAR *)(CYREG_BG_DFT1), ((bg_xover_inl_trim >> 4) & 0x0Fu));
 306:Generated_Source\PSoC5/cyfitter_cfg.c **** 	CY_SET_XTND_REG8((void CYFAR *)CYREG_PUMP_CR0, 0x44u);
 307:Generated_Source\PSoC5/cyfitter_cfg.c **** }
 308:Generated_Source\PSoC5/cyfitter_cfg.c **** 
 309:Generated_Source\PSoC5/cyfitter_cfg.c **** 
 310:Generated_Source\PSoC5/cyfitter_cfg.c **** /*******************************************************************************
 311:Generated_Source\PSoC5/cyfitter_cfg.c **** * Function Name: SetAnalogRoutingPumps
 312:Generated_Source\PSoC5/cyfitter_cfg.c **** ********************************************************************************
 313:Generated_Source\PSoC5/cyfitter_cfg.c **** *
 314:Generated_Source\PSoC5/cyfitter_cfg.c **** * Summary:
 315:Generated_Source\PSoC5/cyfitter_cfg.c **** * Enables or disables the analog pumps feeding analog routing switches.
ARM GAS  C:\Users\ingan\AppData\Local\Temp\ccYjmgRi.s 			page 7


 316:Generated_Source\PSoC5/cyfitter_cfg.c **** * Intended to be called at startup, based on the Vdda system configuration;
 317:Generated_Source\PSoC5/cyfitter_cfg.c **** * may be called during operation when the user informs us that the Vdda voltage
 318:Generated_Source\PSoC5/cyfitter_cfg.c **** * crossed the pump threshold.
 319:Generated_Source\PSoC5/cyfitter_cfg.c **** *
 320:Generated_Source\PSoC5/cyfitter_cfg.c **** * Parameters:
 321:Generated_Source\PSoC5/cyfitter_cfg.c **** *  enabled - 1 to enable the pumps, 0 to disable the pumps
 322:Generated_Source\PSoC5/cyfitter_cfg.c **** *
 323:Generated_Source\PSoC5/cyfitter_cfg.c **** * Return:
 324:Generated_Source\PSoC5/cyfitter_cfg.c **** *  void
 325:Generated_Source\PSoC5/cyfitter_cfg.c **** *
 326:Generated_Source\PSoC5/cyfitter_cfg.c **** *******************************************************************************/
 327:Generated_Source\PSoC5/cyfitter_cfg.c **** void SetAnalogRoutingPumps(uint8 enabled)
 328:Generated_Source\PSoC5/cyfitter_cfg.c **** {
  28              		.loc 1 328 0
  29              		.cfi_startproc
  30              		@ args = 0, pretend = 0, frame = 0
  31              		@ frame_needed = 0, uses_anonymous_args = 0
  32              		@ link register save eliminated.
  33              	.LVL0:
 329:Generated_Source\PSoC5/cyfitter_cfg.c **** 	uint8 regValue = CY_GET_XTND_REG8((void CYFAR *)CYREG_PUMP_CR0);
  34              		.loc 1 329 0
  35 0000 024A     		ldr	r2, .L2
  36 0002 1378     		ldrb	r3, [r2]	@ zero_extendqisi2
  37 0004 DBB2     		uxtb	r3, r3
  38              	.LVL1:
 330:Generated_Source\PSoC5/cyfitter_cfg.c **** 	if (enabled != 0u)
 331:Generated_Source\PSoC5/cyfitter_cfg.c **** 	{
 332:Generated_Source\PSoC5/cyfitter_cfg.c **** 		regValue |= 0x00u;
 333:Generated_Source\PSoC5/cyfitter_cfg.c **** 	}
 334:Generated_Source\PSoC5/cyfitter_cfg.c **** 	else
 335:Generated_Source\PSoC5/cyfitter_cfg.c **** 	{
 336:Generated_Source\PSoC5/cyfitter_cfg.c **** 		regValue &= (uint8)~0x00u;
 337:Generated_Source\PSoC5/cyfitter_cfg.c **** 	}
 338:Generated_Source\PSoC5/cyfitter_cfg.c **** 	CY_SET_XTND_REG8((void CYFAR *)CYREG_PUMP_CR0, regValue);
  39              		.loc 1 338 0
  40 0006 1370     		strb	r3, [r2]
  41 0008 7047     		bx	lr
  42              	.L3:
  43 000a 00BF     		.align	2
  44              	.L2:
  45 000c 76580040 		.word	1073764470
  46              		.cfi_endproc
  47              	.LFE7:
  48              		.size	SetAnalogRoutingPumps, .-SetAnalogRoutingPumps
  49              		.section	.text.cyfitter_cfg,"ax",%progbits
  50              		.align	2
  51              		.global	cyfitter_cfg
  52              		.thumb
  53              		.thumb_func
  54              		.type	cyfitter_cfg, %function
  55              	cyfitter_cfg:
  56              	.LFB8:
 339:Generated_Source\PSoC5/cyfitter_cfg.c **** }
 340:Generated_Source\PSoC5/cyfitter_cfg.c **** 
 341:Generated_Source\PSoC5/cyfitter_cfg.c **** 
 342:Generated_Source\PSoC5/cyfitter_cfg.c **** 
 343:Generated_Source\PSoC5/cyfitter_cfg.c **** 
ARM GAS  C:\Users\ingan\AppData\Local\Temp\ccYjmgRi.s 			page 8


 344:Generated_Source\PSoC5/cyfitter_cfg.c **** /*******************************************************************************
 345:Generated_Source\PSoC5/cyfitter_cfg.c **** * Function Name: cyfitter_cfg
 346:Generated_Source\PSoC5/cyfitter_cfg.c **** ********************************************************************************
 347:Generated_Source\PSoC5/cyfitter_cfg.c **** * Summary:
 348:Generated_Source\PSoC5/cyfitter_cfg.c **** *  This function is called by the start-up code for the selected device. It
 349:Generated_Source\PSoC5/cyfitter_cfg.c **** *  performs all of the necessary device configuration based on the design
 350:Generated_Source\PSoC5/cyfitter_cfg.c **** *  settings.  This includes settings from the Design Wide Resources (DWR) such
 351:Generated_Source\PSoC5/cyfitter_cfg.c **** *  as Clocks and Pins as well as any component configuration that is necessary.
 352:Generated_Source\PSoC5/cyfitter_cfg.c **** *
 353:Generated_Source\PSoC5/cyfitter_cfg.c **** * Parameters:
 354:Generated_Source\PSoC5/cyfitter_cfg.c **** *   void
 355:Generated_Source\PSoC5/cyfitter_cfg.c **** *
 356:Generated_Source\PSoC5/cyfitter_cfg.c **** * Return:
 357:Generated_Source\PSoC5/cyfitter_cfg.c **** *   void
 358:Generated_Source\PSoC5/cyfitter_cfg.c **** *
 359:Generated_Source\PSoC5/cyfitter_cfg.c **** *******************************************************************************/
 360:Generated_Source\PSoC5/cyfitter_cfg.c **** 
 361:Generated_Source\PSoC5/cyfitter_cfg.c **** void cyfitter_cfg(void)
 362:Generated_Source\PSoC5/cyfitter_cfg.c **** {
  57              		.loc 1 362 0
  58              		.cfi_startproc
  59              		@ args = 0, pretend = 0, frame = 0
  60              		@ frame_needed = 0, uses_anonymous_args = 0
  61 0000 F8B5     		push	{r3, r4, r5, r6, r7, lr}
  62              		.cfi_def_cfa_offset 24
  63              		.cfi_offset 3, -24
  64              		.cfi_offset 4, -20
  65              		.cfi_offset 5, -16
  66              		.cfi_offset 6, -12
  67              		.cfi_offset 7, -8
  68              		.cfi_offset 14, -4
 363:Generated_Source\PSoC5/cyfitter_cfg.c **** #ifdef CYGlobalIntDisable
 364:Generated_Source\PSoC5/cyfitter_cfg.c **** 	/* Disable interrupts by default. Let user enable if/when they want. */
 365:Generated_Source\PSoC5/cyfitter_cfg.c **** 	CYGlobalIntDisable
  69              		.loc 1 365 0
  70              		.syntax unified
  71              	@ 365 "Generated_Source\PSoC5\cyfitter_cfg.c" 1
  72 0002 72B6     		CPSID   i
  73              	@ 0 "" 2
 366:Generated_Source\PSoC5/cyfitter_cfg.c **** #endif
 367:Generated_Source\PSoC5/cyfitter_cfg.c **** 
 368:Generated_Source\PSoC5/cyfitter_cfg.c **** 	/* Enable/Disable Debug functionality based on settings from System DWR */
 369:Generated_Source\PSoC5/cyfitter_cfg.c **** 	CY_SET_XTND_REG8((void CYFAR *)CYREG_MLOGIC_DEBUG, (CY_GET_XTND_REG8((void CYFAR *)CYREG_MLOGIC_DE
  74              		.loc 1 369 0
  75              		.thumb
  76              		.syntax unified
  77 0004 6F4A     		ldr	r2, .L19
  78 0006 1378     		ldrb	r3, [r2]	@ zero_extendqisi2
  79 0008 43F00403 		orr	r3, r3, #4
  80 000c 1370     		strb	r3, [r2]
  81              	.LVL2:
  82 000e 6E4D     		ldr	r5, .L19+4
  83 0010 0024     		movs	r4, #0
  84              	.LBB35:
  85              	.LBB36:
 370:Generated_Source\PSoC5/cyfitter_cfg.c **** 
 371:Generated_Source\PSoC5/cyfitter_cfg.c **** 	{
ARM GAS  C:\Users\ingan\AppData\Local\Temp\ccYjmgRi.s 			page 9


 372:Generated_Source\PSoC5/cyfitter_cfg.c **** 
 373:Generated_Source\PSoC5/cyfitter_cfg.c **** 		CYPACKED typedef struct {
 374:Generated_Source\PSoC5/cyfitter_cfg.c **** 			void CYFAR *address;
 375:Generated_Source\PSoC5/cyfitter_cfg.c **** 			uint16 size;
 376:Generated_Source\PSoC5/cyfitter_cfg.c **** 		} CYPACKED_ATTR cfg_memset_t;
 377:Generated_Source\PSoC5/cyfitter_cfg.c **** 
 378:Generated_Source\PSoC5/cyfitter_cfg.c **** 		static const cfg_memset_t CYCODE cfg_memset_list[] = {
 379:Generated_Source\PSoC5/cyfitter_cfg.c **** 			/* address, size */
 380:Generated_Source\PSoC5/cyfitter_cfg.c **** 			{(void CYFAR *)(CYREG_PRT4_DR), 48u},
 381:Generated_Source\PSoC5/cyfitter_cfg.c **** 			{(void CYFAR *)(CYDEV_UCFG_B0_P0_U0_BASE), 4096u},
 382:Generated_Source\PSoC5/cyfitter_cfg.c **** 			{(void CYFAR *)(CYDEV_UCFG_B1_P2_U0_BASE), 2048u},
 383:Generated_Source\PSoC5/cyfitter_cfg.c **** 			{(void CYFAR *)(CYDEV_UCFG_DSI0_BASE), 2560u},
 384:Generated_Source\PSoC5/cyfitter_cfg.c **** 			{(void CYFAR *)(CYDEV_UCFG_DSI12_BASE), 512u},
 385:Generated_Source\PSoC5/cyfitter_cfg.c **** 			{(void CYFAR *)(CYREG_BCTL0_MDCLK_EN), 32u},
 386:Generated_Source\PSoC5/cyfitter_cfg.c **** 		};
 387:Generated_Source\PSoC5/cyfitter_cfg.c **** 
 388:Generated_Source\PSoC5/cyfitter_cfg.c **** 		uint8 CYDATA i;
 389:Generated_Source\PSoC5/cyfitter_cfg.c **** 
 390:Generated_Source\PSoC5/cyfitter_cfg.c **** 		/* Zero out critical memory blocks before beginning configuration */
 391:Generated_Source\PSoC5/cyfitter_cfg.c **** 		for (i = 0u; i < (sizeof(cfg_memset_list)/sizeof(cfg_memset_list[0])); i++)
 392:Generated_Source\PSoC5/cyfitter_cfg.c **** 		{
 393:Generated_Source\PSoC5/cyfitter_cfg.c **** 			const cfg_memset_t CYCODE * CYDATA ms = &cfg_memset_list[i];
 394:Generated_Source\PSoC5/cyfitter_cfg.c **** 			CYMEMZERO(ms->address, (size_t)(uint32)(ms->size));
  86              		.loc 1 394 0
  87 0012 2F46     		mov	r7, r5
  88              	.LBB37:
  89              	.LBB38:
  79:Generated_Source\PSoC5/cyfitter_cfg.c **** }
  90              		.loc 1 79 0
  91 0014 2646     		mov	r6, r4
  92              	.LVL3:
  93              	.L5:
  94              	.LBE38:
  95              	.LBE37:
  96              		.loc 1 394 0 discriminator 3
  97 0016 04EB4403 		add	r3, r4, r4, lsl #1
  98              	.LBB40:
  99              	.LBB39:
  79:Generated_Source\PSoC5/cyfitter_cfg.c **** }
 100              		.loc 1 79 0 discriminator 3
 101 001a AA88     		ldrh	r2, [r5, #4]
 102              	.LVL4:
 103 001c 3146     		mov	r1, r6
 104 001e 57F81300 		ldr	r0, [r7, r3, lsl #1]	@ unaligned
 105 0022 FFF7FEFF 		bl	memset
 106              	.LVL5:
 107 0026 0134     		adds	r4, r4, #1
 108              	.LVL6:
 109 0028 0635     		adds	r5, r5, #6
 110              	.LBE39:
 111              	.LBE40:
 112              	.LBE36:
 391:Generated_Source\PSoC5/cyfitter_cfg.c **** 		{
 113              		.loc 1 391 0 discriminator 3
 114 002a 062C     		cmp	r4, #6
 115 002c F3D1     		bne	.L5
 116 002e 674F     		ldr	r7, .L19+8
ARM GAS  C:\Users\ingan\AppData\Local\Temp\ccYjmgRi.s 			page 10


 117 0030 0026     		movs	r6, #0
 118              	.LBB41:
 119              	.LBB42:
 199:Generated_Source\PSoC5/cyfitter_cfg.c **** 	{
 120              		.loc 1 199 0
 121 0032 DFF8E0E1 		ldr	lr, .L19+80
 122              	.LVL7:
 123              	.L8:
 124              	.LBB43:
 201:Generated_Source\PSoC5/cyfitter_cfg.c **** 		uint8 count = (uint8)baseAddr;
 125              		.loc 1 201 0
 126 0036 57F8043F 		ldr	r3, [r7, #4]!
 127              	.LVL8:
 203:Generated_Source\PSoC5/cyfitter_cfg.c **** 		while (count != 0u)
 128              		.loc 1 203 0
 129 003a 23F0FF04 		bic	r4, r3, #255
 130              	.LVL9:
 204:Generated_Source\PSoC5/cyfitter_cfg.c **** 		{
 131              		.loc 1 204 0
 132 003e 13F0FF05 		ands	r5, r3, #255
 133 0042 11D0     		beq	.L6
 134 0044 06F11050 		add	r0, r6, #603979776
 135 0048 00F11A03 		add	r3, r0, #26
 136              	.LVL10:
 137 004c 5B00     		lsls	r3, r3, #1
 138 004e 013D     		subs	r5, r5, #1
 139 0050 EDB2     		uxtb	r5, r5
 140 0052 1B30     		adds	r0, r0, #27
 141 0054 2844     		add	r0, r0, r5
 142 0056 4000     		lsls	r0, r0, #1
 143              	.LVL11:
 144              	.L7:
 206:Generated_Source\PSoC5/cyfitter_cfg.c **** 			j++;
 145              		.loc 1 206 0
 146 0058 1A78     		ldrb	r2, [r3]	@ zero_extendqisi2
 147 005a 5978     		ldrb	r1, [r3, #1]	@ zero_extendqisi2
 148 005c 1155     		strb	r1, [r2, r4]
 149 005e 0233     		adds	r3, r3, #2
 204:Generated_Source\PSoC5/cyfitter_cfg.c **** 		{
 150              		.loc 1 204 0
 151 0060 8342     		cmp	r3, r0
 152 0062 F9D1     		bne	.L7
 153 0064 0136     		adds	r6, r6, #1
 154 0066 2E44     		add	r6, r6, r5
 155              	.L6:
 156              	.LVL12:
 157              	.LBE43:
 199:Generated_Source\PSoC5/cyfitter_cfg.c **** 	{
 158              		.loc 1 199 0
 159 0068 7745     		cmp	r7, lr
 160 006a E4D1     		bne	.L8
 161              	.LVL13:
 162              	.LBE42:
 163              	.LBE41:
 164              	.LBB44:
 165              	.LBB45:
  79:Generated_Source\PSoC5/cyfitter_cfg.c **** }
ARM GAS  C:\Users\ingan\AppData\Local\Temp\ccYjmgRi.s 			page 11


 166              		.loc 1 79 0
 167 006c 0023     		movs	r3, #0
 168 006e 584A     		ldr	r2, .L19+12
 169 0070 1360     		str	r3, [r2]
 170              	.LVL14:
 171              	.LBE45:
 172              	.LBE44:
 173              	.LBB46:
 174              	.LBB47:
 175 0072 0832     		adds	r2, r2, #8
 176 0074 1360     		str	r3, [r2]
 177              	.LVL15:
 178              	.LBE47:
 179              	.LBE46:
 180              	.LBB48:
 181              	.LBB49:
 182 0076 0832     		adds	r2, r2, #8
 183 0078 1360     		str	r3, [r2]
 184              	.LVL16:
 185              	.LBE49:
 186              	.LBE48:
 395:Generated_Source\PSoC5/cyfitter_cfg.c **** 		}
 396:Generated_Source\PSoC5/cyfitter_cfg.c **** 
 397:Generated_Source\PSoC5/cyfitter_cfg.c **** 		cfg_write_bytes32(cy_cfg_addr_table, cy_cfg_data_table);
 398:Generated_Source\PSoC5/cyfitter_cfg.c **** 
 399:Generated_Source\PSoC5/cyfitter_cfg.c **** 		/* Perform normal device configuration. Order is not critical for these items. */
 400:Generated_Source\PSoC5/cyfitter_cfg.c **** 		CYMEMZERO((void CYFAR *)(CYREG_PHUB_CFGMEM0_CFG0), 4u);
 401:Generated_Source\PSoC5/cyfitter_cfg.c **** 		CYMEMZERO((void CYFAR *)(CYREG_PHUB_CFGMEM1_CFG0), 4u);
 402:Generated_Source\PSoC5/cyfitter_cfg.c **** 		CYMEMZERO((void CYFAR *)(CYREG_PHUB_CFGMEM2_CFG0), 4u);
 403:Generated_Source\PSoC5/cyfitter_cfg.c **** 
 404:Generated_Source\PSoC5/cyfitter_cfg.c **** 		/* Enable digital routing */
 405:Generated_Source\PSoC5/cyfitter_cfg.c **** 		CY_SET_XTND_REG8((void CYFAR *)CYREG_BCTL0_BANK_CTL, CY_GET_XTND_REG8((void CYFAR *)CYREG_BCTL0_B
 187              		.loc 1 405 0
 188 007a 02F55942 		add	r2, r2, #55552
 189 007e F332     		adds	r2, r2, #243
 190 0080 1378     		ldrb	r3, [r2]	@ zero_extendqisi2
 191 0082 43F00203 		orr	r3, r3, #2
 192 0086 1370     		strb	r3, [r2]
 406:Generated_Source\PSoC5/cyfitter_cfg.c **** 		CY_SET_XTND_REG8((void CYFAR *)CYREG_BCTL1_BANK_CTL, CY_GET_XTND_REG8((void CYFAR *)CYREG_BCTL1_B
 193              		.loc 1 406 0
 194 0088 1032     		adds	r2, r2, #16
 195 008a 1378     		ldrb	r3, [r2]	@ zero_extendqisi2
 196 008c 43F00203 		orr	r3, r3, #2
 197 0090 1370     		strb	r3, [r2]
 198              	.LVL17:
 199              	.LBE35:
 200              	.LBB50:
 201              	.LBB51:
  86:Generated_Source\PSoC5/cyfitter_cfg.c **** }
 202              		.loc 1 86 0
 203 0092 A2F57F42 		sub	r2, r2, #65280
 204 0096 113A     		subs	r2, r2, #17
 205 0098 4E4B     		ldr	r3, .L19+16
 206 009a 03CB     		ldmia	r3!, {r0, r1}
 207 009c 1060     		str	r0, [r2]	@ unaligned
 208 009e 5160     		str	r1, [r2, #4]	@ unaligned
 209              	.LVL18:
ARM GAS  C:\Users\ingan\AppData\Local\Temp\ccYjmgRi.s 			page 12


 210              	.LBE51:
 211              	.LBE50:
 212              	.LBB52:
 213              	.LBB53:
 214 00a0 C032     		adds	r2, r2, #192
 215 00a2 03CB     		ldmia	r3!, {r0, r1}
 216 00a4 1060     		str	r0, [r2]	@ unaligned
 217 00a6 5160     		str	r1, [r2, #4]	@ unaligned
 218              	.LVL19:
 219              	.LBE53:
 220              	.LBE52:
 221              	.LBB54:
 222              	.LBB55:
 223 00a8 4B4C     		ldr	r4, .L19+20
 224 00aa 93E80700 		ldmia	r3, {r0, r1, r2}
 225 00ae 03C4     		stmia	r4!, {r0, r1}
 226 00b0 2280     		strh	r2, [r4]	@ movhi
 227              	.LVL20:
 228              	.LBE55:
 229              	.LBE54:
 230              	.LBB56:
 231              	.LBB57:
 232 00b2 4A4A     		ldr	r2, .L19+24
 233 00b4 0C33     		adds	r3, r3, #12
 234 00b6 03CB     		ldmia	r3!, {r0, r1}
 235 00b8 1060     		str	r0, [r2]	@ unaligned
 236 00ba 5160     		str	r1, [r2, #4]	@ unaligned
 237              	.LVL21:
 238              	.LBE57:
 239              	.LBE56:
 240              	.LBB58:
 241              	.LBB59:
 242 00bc 1032     		adds	r2, r2, #16
 243 00be 03CB     		ldmia	r3!, {r0, r1}
 244 00c0 1060     		str	r0, [r2]	@ unaligned
 245 00c2 5160     		str	r1, [r2, #4]	@ unaligned
 246              	.LVL22:
 247              	.LBE59:
 248              	.LBE58:
 249              	.LBB60:
 250              	.LBB61:
 251 00c4 1032     		adds	r2, r2, #16
 252 00c6 03CB     		ldmia	r3!, {r0, r1}
 253 00c8 1060     		str	r0, [r2]	@ unaligned
 254 00ca 5160     		str	r1, [r2, #4]	@ unaligned
 255              	.LVL23:
 256              	.LBE61:
 257              	.LBE60:
 407:Generated_Source\PSoC5/cyfitter_cfg.c **** 	}
 408:Generated_Source\PSoC5/cyfitter_cfg.c **** 
 409:Generated_Source\PSoC5/cyfitter_cfg.c **** 
 410:Generated_Source\PSoC5/cyfitter_cfg.c **** 	/* Perform second pass device configuration. These items must be configured in specific order afte
 411:Generated_Source\PSoC5/cyfitter_cfg.c **** 	CYCONFIGCPY((void CYFAR *)(CYREG_PRT0_DM0), (const void CYFAR *)(BS_IOPINS0_0_VAL), 8u);
 412:Generated_Source\PSoC5/cyfitter_cfg.c **** 	CYCONFIGCPY((void CYFAR *)(CYREG_PRT12_DM0), (const void CYFAR *)(BS_IOPINS0_7_VAL), 8u);
 413:Generated_Source\PSoC5/cyfitter_cfg.c **** 	CYCONFIGCPY((void CYFAR *)(CYREG_PRT15_DR), (const void CYFAR *)(BS_IOPINS0_8_VAL), 10u);
 414:Generated_Source\PSoC5/cyfitter_cfg.c **** 	CYCONFIGCPY((void CYFAR *)(CYREG_PRT1_DM0), (const void CYFAR *)(BS_IOPINS0_1_VAL), 8u);
 415:Generated_Source\PSoC5/cyfitter_cfg.c **** 	CYCONFIGCPY((void CYFAR *)(CYREG_PRT2_DM0), (const void CYFAR *)(BS_IOPINS0_2_VAL), 8u);
ARM GAS  C:\Users\ingan\AppData\Local\Temp\ccYjmgRi.s 			page 13


 416:Generated_Source\PSoC5/cyfitter_cfg.c **** 	CYCONFIGCPY((void CYFAR *)(CYREG_PRT3_DM0), (const void CYFAR *)(BS_IOPINS0_3_VAL), 8u);
 417:Generated_Source\PSoC5/cyfitter_cfg.c **** 	/* Switch Boost to the precision bandgap reference from its internal reference */
 418:Generated_Source\PSoC5/cyfitter_cfg.c **** 	CY_SET_REG8((void CYXDATA *)CYREG_BOOST_CR2, (CY_GET_REG8((void CYXDATA *)CYREG_BOOST_CR2) | 0x08u
 258              		.loc 1 418 0
 259 00cc A2F56162 		sub	r2, r2, #3600
 260 00d0 1378     		ldrb	r3, [r2]	@ zero_extendqisi2
 261 00d2 43F00803 		orr	r3, r3, #8
 262 00d6 1370     		strb	r3, [r2]
 419:Generated_Source\PSoC5/cyfitter_cfg.c **** 
 420:Generated_Source\PSoC5/cyfitter_cfg.c **** 	/* Set Flash Cycles based on max possible frequency in case a glitch occurs during ClockSetup(). *
 421:Generated_Source\PSoC5/cyfitter_cfg.c **** 	CY_SET_XTND_REG8((void CYFAR *)(CYREG_CACHE_CC_CTL), (((CYDEV_INSTRUCT_CACHE_ENABLED) != 0) ? 0x61
 263              		.loc 1 421 0
 264 00d8 6122     		movs	r2, #97
 265 00da 414B     		ldr	r3, .L19+28
 266 00dc 1A70     		strb	r2, [r3]
 267              	.LBB62:
 268              	.LBB63:
 237:Generated_Source\PSoC5/cyfitter_cfg.c **** 	CY_SET_XTND_REG8((void CYFAR *)(CYREG_CLKDIST_DCFG0_CFG0 + 0x2u), 0x18u);
 269              		.loc 1 237 0
 270 00de 0C22     		movs	r2, #12
 271 00e0 A3F5F063 		sub	r3, r3, #1920
 272 00e4 1A80     		strh	r2, [r3]	@ movhi
 238:Generated_Source\PSoC5/cyfitter_cfg.c **** 	CY_SET_XTND_REG16((void CYFAR *)(CYREG_CLKDIST_DCFG1_CFG0), 0x0005u);
 273              		.loc 1 238 0
 274 00e6 1825     		movs	r5, #24
 275 00e8 0233     		adds	r3, r3, #2
 276 00ea 1D70     		strb	r5, [r3]
 239:Generated_Source\PSoC5/cyfitter_cfg.c **** 	CY_SET_XTND_REG8((void CYFAR *)(CYREG_CLKDIST_DCFG1_CFG0 + 0x2u), 0x18u);
 277              		.loc 1 239 0
 278 00ec 0522     		movs	r2, #5
 279 00ee 0233     		adds	r3, r3, #2
 280 00f0 1A80     		strh	r2, [r3]	@ movhi
 240:Generated_Source\PSoC5/cyfitter_cfg.c **** 	CY_SET_XTND_REG16((void CYFAR *)(CYREG_CLKDIST_DCFG2_CFG0), 0x0412u);
 281              		.loc 1 240 0
 282 00f2 0233     		adds	r3, r3, #2
 283 00f4 1D70     		strb	r5, [r3]
 241:Generated_Source\PSoC5/cyfitter_cfg.c **** 	CY_SET_XTND_REG8((void CYFAR *)(CYREG_CLKDIST_DCFG2_CFG0 + 0x2u), 0x18u);
 284              		.loc 1 241 0
 285 00f6 40F21242 		movw	r2, #1042
 286 00fa 0233     		adds	r3, r3, #2
 287 00fc 1A80     		strh	r2, [r3]	@ movhi
 242:Generated_Source\PSoC5/cyfitter_cfg.c **** 
 288              		.loc 1 242 0
 289 00fe 0233     		adds	r3, r3, #2
 290 0100 1D70     		strb	r5, [r3]
 245:Generated_Source\PSoC5/cyfitter_cfg.c **** 
 291              		.loc 1 245 0
 292 0102 0622     		movs	r2, #6
 293 0104 03F27623 		addw	r3, r3, #630
 294 0108 1A70     		strb	r2, [r3]
 248:Generated_Source\PSoC5/cyfitter_cfg.c **** 	CY_SET_XTND_REG8((void CYFAR *)(CYREG_IMO_TR1), (CY_GET_XTND_REG8((void CYFAR *)CYREG_FLSHID_CUST_
 295              		.loc 1 248 0
 296 010a 5222     		movs	r2, #82
 297 010c A3F58073 		sub	r3, r3, #256
 298 0110 1A70     		strb	r2, [r3]
 249:Generated_Source\PSoC5/cyfitter_cfg.c **** 
 299              		.loc 1 249 0
ARM GAS  C:\Users\ingan\AppData\Local\Temp\ccYjmgRi.s 			page 14


 300 0112 344B     		ldr	r3, .L19+32
 301 0114 1B78     		ldrb	r3, [r3]	@ zero_extendqisi2
 302 0116 DBB2     		uxtb	r3, r3
 303 0118 334A     		ldr	r2, .L19+36
 304 011a 1370     		strb	r3, [r2]
 252:Generated_Source\PSoC5/cyfitter_cfg.c **** 	CY_SET_XTND_REG16((void CYFAR *)(CYREG_FASTCLK_PLL_CFG0), 0x1251u);
 305              		.loc 1 252 0
 306 011c 40F61732 		movw	r2, #2839
 307 0120 324B     		ldr	r3, .L19+40
 308 0122 1A80     		strh	r2, [r3]	@ movhi
 253:Generated_Source\PSoC5/cyfitter_cfg.c **** 	/* Wait up to 250us for the PLL to lock */
 309              		.loc 1 253 0
 310 0124 41F25122 		movw	r2, #4689
 311 0128 023B     		subs	r3, r3, #2
 312 012a 1A80     		strh	r2, [r3]	@ movhi
 313              	.LVL24:
 258:Generated_Source\PSoC5/cyfitter_cfg.c **** 		CyDelayCycles(10u * 48u); /* Delay 10us based on 48MHz clock */
 314              		.loc 1 258 0
 315 012c 0533     		adds	r3, r3, #5
 316 012e 1C78     		ldrb	r4, [r3]	@ zero_extendqisi2
 317 0130 04F00104 		and	r4, r4, #1
 318              	.LVL25:
 259:Generated_Source\PSoC5/cyfitter_cfg.c **** 	}
 319              		.loc 1 259 0
 320 0134 4FF4F070 		mov	r0, #480
 321 0138 FFF7FEFF 		bl	CyDelayCycles
 322              	.LVL26:
 258:Generated_Source\PSoC5/cyfitter_cfg.c **** 		CyDelayCycles(10u * 48u); /* Delay 10us based on 48MHz clock */
 323              		.loc 1 258 0
 324 013c 2C4F     		ldr	r7, .L19+44
 259:Generated_Source\PSoC5/cyfitter_cfg.c **** 	}
 325              		.loc 1 259 0
 326 013e 4FF4F076 		mov	r6, #480
 327 0142 0BE0     		b	.L9
 328              	.LVL27:
 329              	.L11:
 258:Generated_Source\PSoC5/cyfitter_cfg.c **** 		CyDelayCycles(10u * 48u); /* Delay 10us based on 48MHz clock */
 330              		.loc 1 258 0
 331 0144 3B78     		ldrb	r3, [r7]	@ zero_extendqisi2
 332 0146 03F00103 		and	r3, r3, #1
 333 014a 43EA4404 		orr	r4, r3, r4, lsl #1
 334              	.LVL28:
 335 014e 04F00304 		and	r4, r4, #3
 336              	.LVL29:
 259:Generated_Source\PSoC5/cyfitter_cfg.c **** 	}
 337              		.loc 1 259 0
 338 0152 3046     		mov	r0, r6
 339 0154 FFF7FEFF 		bl	CyDelayCycles
 340              	.LVL30:
 256:Generated_Source\PSoC5/cyfitter_cfg.c **** 	{ 
 341              		.loc 1 256 0
 342 0158 013D     		subs	r5, r5, #1
 343              	.LVL31:
 344 015a 02D0     		beq	.L10
 345              	.LVL32:
 346              	.L9:
 347 015c 032C     		cmp	r4, #3
ARM GAS  C:\Users\ingan\AppData\Local\Temp\ccYjmgRi.s 			page 15


 348 015e F1D1     		bne	.L11
 349 0160 00E0     		b	.L16
 350              	.L10:
 351              	.L17:
 352 0162 FEE7     		b	.L17
 353              	.L16:
 268:Generated_Source\PSoC5/cyfitter_cfg.c **** 	CY_SET_XTND_REG8((void CYFAR *)(CYREG_CLKDIST_MSTR0), 0x07u);
 354              		.loc 1 268 0
 355 0164 234A     		ldr	r2, .L19+48
 356 0166 4FF48073 		mov	r3, #256
 357 016a 1380     		strh	r3, [r2]	@ movhi
 269:Generated_Source\PSoC5/cyfitter_cfg.c **** 	CY_SET_XTND_REG8((void CYFAR *)(CYREG_CLKDIST_BCFG0), 0x00u);
 358              		.loc 1 269 0
 359 016c 0723     		movs	r3, #7
 360 016e 1370     		strb	r3, [r2]
 270:Generated_Source\PSoC5/cyfitter_cfg.c **** 	CY_SET_XTND_REG8((void CYFAR *)(CYREG_CLKDIST_BCFG2), 0x48u);
 361              		.loc 1 270 0
 362 0170 0023     		movs	r3, #0
 363 0172 2149     		ldr	r1, .L19+52
 364 0174 0B70     		strb	r3, [r1]
 271:Generated_Source\PSoC5/cyfitter_cfg.c **** 	CY_SET_XTND_REG8((void CYFAR *)(CYREG_CLKDIST_MSTR0), 0x00u);
 365              		.loc 1 271 0
 366 0176 4820     		movs	r0, #72
 367 0178 0231     		adds	r1, r1, #2
 368 017a 0870     		strb	r0, [r1]
 272:Generated_Source\PSoC5/cyfitter_cfg.c **** 
 369              		.loc 1 272 0
 370 017c 1370     		strb	r3, [r2]
 275:Generated_Source\PSoC5/cyfitter_cfg.c **** 	CY_SET_XTND_REG8((void CYFAR *)(CYREG_CLKDIST_LD), 0x02u);
 371              		.loc 1 275 0
 372 017e 0532     		adds	r2, r2, #5
 373 0180 1370     		strb	r3, [r2]
 276:Generated_Source\PSoC5/cyfitter_cfg.c **** 
 374              		.loc 1 276 0
 375 0182 0222     		movs	r2, #2
 376 0184 1D4B     		ldr	r3, .L19+56
 377 0186 1A70     		strb	r2, [r3]
 278:Generated_Source\PSoC5/cyfitter_cfg.c **** }
 378              		.loc 1 278 0
 379 0188 1D4A     		ldr	r2, .L19+60
 380 018a 1378     		ldrb	r3, [r2]	@ zero_extendqisi2
 381 018c 43F00703 		orr	r3, r3, #7
 382 0190 1370     		strb	r3, [r2]
 383              	.LVL33:
 384              	.LBE63:
 385              	.LBE62:
 422:Generated_Source\PSoC5/cyfitter_cfg.c **** 	/* Setup clocks based on selections from Clock DWR */
 423:Generated_Source\PSoC5/cyfitter_cfg.c **** 	ClockSetup();
 424:Generated_Source\PSoC5/cyfitter_cfg.c **** 	/* Set Flash Cycles based on newly configured 46.00MHz Bus Clock. */
 425:Generated_Source\PSoC5/cyfitter_cfg.c **** 	CY_SET_XTND_REG8((void CYFAR *)(CYREG_CACHE_CC_CTL), (((CYDEV_INSTRUCT_CACHE_ENABLED) != 0) ? 0xC1
 386              		.loc 1 425 0
 387 0192 C122     		movs	r2, #193
 388 0194 124B     		ldr	r3, .L19+28
 389 0196 1A70     		strb	r2, [r3]
 390              	.LBB64:
 391              	.LBB65:
 303:Generated_Source\PSoC5/cyfitter_cfg.c **** 	CY_SET_XTND_REG8((void CYFAR *)(CYREG_BG_DFT0), (bg_xover_inl_trim & 0x07u));
ARM GAS  C:\Users\ingan\AppData\Local\Temp\ccYjmgRi.s 			page 16


 392              		.loc 1 303 0
 393 0198 1A4B     		ldr	r3, .L19+64
 394 019a 1B78     		ldrb	r3, [r3]	@ zero_extendqisi2
 395 019c DBB2     		uxtb	r3, r3
 396              	.LVL34:
 304:Generated_Source\PSoC5/cyfitter_cfg.c **** 	CY_SET_XTND_REG8((void CYFAR *)(CYREG_BG_DFT1), ((bg_xover_inl_trim >> 4) & 0x0Fu));
 397              		.loc 1 304 0
 398 019e 03F00701 		and	r1, r3, #7
 399 01a2 194A     		ldr	r2, .L19+68
 400 01a4 1170     		strb	r1, [r2]
 305:Generated_Source\PSoC5/cyfitter_cfg.c **** 	CY_SET_XTND_REG8((void CYFAR *)CYREG_PUMP_CR0, 0x44u);
 401              		.loc 1 305 0
 402 01a6 1B09     		lsrs	r3, r3, #4
 403              	.LVL35:
 404 01a8 0132     		adds	r2, r2, #1
 405 01aa 1370     		strb	r3, [r2]
 306:Generated_Source\PSoC5/cyfitter_cfg.c **** }
 406              		.loc 1 306 0
 407 01ac 4422     		movs	r2, #68
 408 01ae 174B     		ldr	r3, .L19+72
 409 01b0 1A70     		strb	r2, [r3]
 410              	.LVL36:
 411              	.LBE65:
 412              	.LBE64:
 413              	.LBB66:
 414              	.LBB67:
  86:Generated_Source\PSoC5/cyfitter_cfg.c **** }
 415              		.loc 1 86 0
 416 01b2 A3F5A653 		sub	r3, r3, #5312
 417 01b6 163B     		subs	r3, r3, #22
 418 01b8 154C     		ldr	r4, .L19+76
 419 01ba 0FCB     		ldmia	r3, {r0, r1, r2, r3}
 420 01bc 07C4     		stmia	r4!, {r0, r1, r2}
 421 01be 2380     		strh	r3, [r4]	@ movhi
 422              	.LVL37:
 423 01c0 F8BD     		pop	{r3, r4, r5, r6, r7, pc}
 424              	.L20:
 425 01c2 00BF     		.align	2
 426              	.L19:
 427 01c4 E8460040 		.word	1073759976
 428 01c8 00000000 		.word	.LANCHOR0
 429 01cc FCFFFF47 		.word	1207959548
 430 01d0 00760040 		.word	1073772032
 431 01d4 88000048 		.word	1207959688
 432 01d8 F0510040 		.word	1073762800
 433 01dc 12510040 		.word	1073762578
 434 01e0 00480040 		.word	1073760256
 435 01e4 0F010049 		.word	1224737039
 436 01e8 A1460040 		.word	1073759905
 437 01ec 22420040 		.word	1073758754
 438 01f0 25420040 		.word	1073758757
 439 01f4 04400040 		.word	1073758212
 440 01f8 06400040 		.word	1073758214
 441 01fc 01400040 		.word	1073758209
 442 0200 A2430040 		.word	1073759138
 443 0204 CF010049 		.word	1224737231
 444 0208 6E580040 		.word	1073764462
ARM GAS  C:\Users\ingan\AppData\Local\Temp\ccYjmgRi.s 			page 17


 445 020c 76580040 		.word	1073764470
 446 0210 B0430040 		.word	1073759152
 447 0214 30000048 		.word	1207959600
 448              	.LBE67:
 449              	.LBE66:
 450              		.cfi_endproc
 451              	.LFE8:
 452              		.size	cyfitter_cfg, .-cyfitter_cfg
 453              		.section	.rodata
 454              		.align	2
 455              		.set	.LANCHOR0,. + 0
 456              		.type	cfg_memset_list.5017, %object
 457              		.size	cfg_memset_list.5017, 36
 458              	cfg_memset_list.5017:
 459 0000 40510040 		.word	1073762624
 460 0004 3000     		.short	48
 461 0006 00000140 		.4byte	1073807360
 462 000a 0010     		.short	4096
 463 000c 00140140 		.word	1073812480
 464 0010 0008     		.short	2048
 465 0012 00400140 		.4byte	1073823744
 466 0016 000A     		.short	2560
 467 0018 004C0140 		.word	1073826816
 468 001c 0002     		.short	512
 469 001e 00500140 		.4byte	1073827840
 470 0022 2000     		.short	32
 471              		.text
 472              	.Letext0:
 473              		.file 2 "c:\\program files (x86)\\cypress\\psoc creator\\4.2\\psoc creator\\import\\gnu\\arm\\5.4.
 474              		.file 3 "Generated_Source\\PSoC5\\cytypes.h"
 475              		.file 4 "Generated_Source\\PSoC5\\CyLib.h"