ARM GAS  C:\Users\ingan\AppData\Local\Temp\ccmdDJp3.s 			page 1


   1              		.syntax unified
   2              		.cpu cortex-m3
   3              		.fpu softvfp
   4              		.eabi_attribute 20, 1
   5              		.eabi_attribute 21, 1
   6              		.eabi_attribute 23, 3
   7              		.eabi_attribute 24, 1
   8              		.eabi_attribute 25, 1
   9              		.eabi_attribute 26, 1
  10              		.eabi_attribute 30, 1
  11              		.eabi_attribute 34, 1
  12              		.eabi_attribute 18, 4
  13              		.thumb
  14              		.syntax unified
  15              		.file	"CyFlash.c"
  16              		.text
  17              	.Ltext0:
  18              		.cfi_sections	.debug_frame
  19              		.section	.text.CyFlash_Start,"ax",%progbits
  20              		.align	2
  21              		.global	CyFlash_Start
  22              		.thumb
  23              		.thumb_func
  24              		.type	CyFlash_Start, %function
  25              	CyFlash_Start:
  26              	.LFB0:
  27              		.file 1 "Generated_Source\\PSoC5\\CyFlash.c"
   1:Generated_Source\PSoC5/CyFlash.c **** /***************************************************************************//**
   2:Generated_Source\PSoC5/CyFlash.c **** * \file CyFlash.c
   3:Generated_Source\PSoC5/CyFlash.c **** * \version 5.70
   4:Generated_Source\PSoC5/CyFlash.c **** *
   5:Generated_Source\PSoC5/CyFlash.c **** * \brief Provides an API for the FLASH/EEPROM.
   6:Generated_Source\PSoC5/CyFlash.c **** *
   7:Generated_Source\PSoC5/CyFlash.c **** * \note This code is endian agnostic.
   8:Generated_Source\PSoC5/CyFlash.c **** *
   9:Generated_Source\PSoC5/CyFlash.c **** * \note Documentation of the API's in this file is located in the System
  10:Generated_Source\PSoC5/CyFlash.c **** * Reference Guide provided with PSoC Creator.
  11:Generated_Source\PSoC5/CyFlash.c **** *
  12:Generated_Source\PSoC5/CyFlash.c **** ********************************************************************************
  13:Generated_Source\PSoC5/CyFlash.c **** * \copyright
  14:Generated_Source\PSoC5/CyFlash.c **** * Copyright 2008-2018, Cypress Semiconductor Corporation. All rights reserved.
  15:Generated_Source\PSoC5/CyFlash.c **** * You may use this file only in accordance with the license, terms, conditions,
  16:Generated_Source\PSoC5/CyFlash.c **** * disclaimers, and limitations in the end user license agreement accompanying
  17:Generated_Source\PSoC5/CyFlash.c **** * the software package with which this file was provided.
  18:Generated_Source\PSoC5/CyFlash.c **** *******************************************************************************/
  19:Generated_Source\PSoC5/CyFlash.c **** 
  20:Generated_Source\PSoC5/CyFlash.c **** #include "CyFlash.h"
  21:Generated_Source\PSoC5/CyFlash.c **** 
  22:Generated_Source\PSoC5/CyFlash.c **** /*  The number of EEPROM arrays */
  23:Generated_Source\PSoC5/CyFlash.c **** #define CY_FLASH_EEPROM_NUMBER_ARRAYS                 (1u)
  24:Generated_Source\PSoC5/CyFlash.c **** 
  25:Generated_Source\PSoC5/CyFlash.c **** 
  26:Generated_Source\PSoC5/CyFlash.c **** /*******************************************************************************
  27:Generated_Source\PSoC5/CyFlash.c **** * Holds the die temperature, updated by CySetTemp(). Used for flash writing.
  28:Generated_Source\PSoC5/CyFlash.c **** * The first byte is the sign of the temperature (0 = negative, 1 = positive).
  29:Generated_Source\PSoC5/CyFlash.c **** * The second byte is the magnitude.
  30:Generated_Source\PSoC5/CyFlash.c **** *******************************************************************************/
ARM GAS  C:\Users\ingan\AppData\Local\Temp\ccmdDJp3.s 			page 2


  31:Generated_Source\PSoC5/CyFlash.c **** uint8 dieTemperature[CY_FLASH_DIE_TEMP_DATA_SIZE];
  32:Generated_Source\PSoC5/CyFlash.c **** 
  33:Generated_Source\PSoC5/CyFlash.c **** #if(CYDEV_ECC_ENABLE == 0)
  34:Generated_Source\PSoC5/CyFlash.c ****     static uint8 * rowBuffer = 0;
  35:Generated_Source\PSoC5/CyFlash.c **** #endif  /* (CYDEV_ECC_ENABLE == 0) */
  36:Generated_Source\PSoC5/CyFlash.c **** 
  37:Generated_Source\PSoC5/CyFlash.c **** 
  38:Generated_Source\PSoC5/CyFlash.c **** static cystatus CySetTempInt(void);
  39:Generated_Source\PSoC5/CyFlash.c **** 
  40:Generated_Source\PSoC5/CyFlash.c **** 
  41:Generated_Source\PSoC5/CyFlash.c **** /*******************************************************************************
  42:Generated_Source\PSoC5/CyFlash.c **** * Function Name: CyFlash_Start
  43:Generated_Source\PSoC5/CyFlash.c **** ****************************************************************************//**
  44:Generated_Source\PSoC5/CyFlash.c **** *
  45:Generated_Source\PSoC5/CyFlash.c **** *  Enable the Flash.
  46:Generated_Source\PSoC5/CyFlash.c **** *
  47:Generated_Source\PSoC5/CyFlash.c **** *******************************************************************************/
  48:Generated_Source\PSoC5/CyFlash.c **** void CyFlash_Start(void) 
  49:Generated_Source\PSoC5/CyFlash.c **** {
  28              		.loc 1 49 0
  29              		.cfi_startproc
  30              		@ args = 0, pretend = 0, frame = 0
  31              		@ frame_needed = 0, uses_anonymous_args = 0
  32 0000 08B5     		push	{r3, lr}
  33              		.cfi_def_cfa_offset 8
  34              		.cfi_offset 3, -8
  35              		.cfi_offset 14, -4
  50:Generated_Source\PSoC5/CyFlash.c ****     uint8 interruptState;
  51:Generated_Source\PSoC5/CyFlash.c **** 
  52:Generated_Source\PSoC5/CyFlash.c ****     interruptState = CyEnterCriticalSection();
  36              		.loc 1 52 0
  37 0002 FFF7FEFF 		bl	CyEnterCriticalSection
  38              	.LVL0:
  53:Generated_Source\PSoC5/CyFlash.c **** 
  54:Generated_Source\PSoC5/CyFlash.c **** 
  55:Generated_Source\PSoC5/CyFlash.c ****     /***************************************************************************
  56:Generated_Source\PSoC5/CyFlash.c ****     * Enable SPC clock. This also internally enables the 36MHz IMO, since this
  57:Generated_Source\PSoC5/CyFlash.c ****     * is required for the SPC to function.
  58:Generated_Source\PSoC5/CyFlash.c ****     ***************************************************************************/
  59:Generated_Source\PSoC5/CyFlash.c ****     CY_FLASH_PM_ACT_CFG0_REG    |= CY_FLASH_PM_ACT_CFG0_EN_CLK_SPC;
  39              		.loc 1 59 0
  40 0006 104A     		ldr	r2, .L5
  41 0008 1378     		ldrb	r3, [r2]	@ zero_extendqisi2
  42 000a 43F00803 		orr	r3, r3, #8
  43 000e 1370     		strb	r3, [r2]
  60:Generated_Source\PSoC5/CyFlash.c ****     CY_FLASH_PM_ALTACT_CFG0_REG |= CY_FLASH_PM_ALTACT_CFG0_EN_CLK_SPC;
  44              		.loc 1 60 0
  45 0010 1032     		adds	r2, r2, #16
  46 0012 1378     		ldrb	r3, [r2]	@ zero_extendqisi2
  47 0014 43F00803 		orr	r3, r3, #8
  48 0018 1370     		strb	r3, [r2]
  61:Generated_Source\PSoC5/CyFlash.c **** 
  62:Generated_Source\PSoC5/CyFlash.c **** 
  63:Generated_Source\PSoC5/CyFlash.c ****     /***************************************************************************
  64:Generated_Source\PSoC5/CyFlash.c ****     * The wake count defines the number of Bus Clock cycles it takes for the
  65:Generated_Source\PSoC5/CyFlash.c ****     * flash or eeprom to wake up from a low power mode independent of the chip
  66:Generated_Source\PSoC5/CyFlash.c ****     * power mode. Wake up time for these blocks is 5 us.
ARM GAS  C:\Users\ingan\AppData\Local\Temp\ccmdDJp3.s 			page 3


  67:Generated_Source\PSoC5/CyFlash.c ****     * The granularity of this register is 2 Bus Clock cycles, so a value of 0x1E
  68:Generated_Source\PSoC5/CyFlash.c ****     * (30d) defines the wake up time as 60 cycles of the Bus Clock.
  69:Generated_Source\PSoC5/CyFlash.c ****     * This register needs to be written with a value dependent on the Bus Clock
  70:Generated_Source\PSoC5/CyFlash.c ****     * frequency so that the duration of the cycles is equal to or greater than
  71:Generated_Source\PSoC5/CyFlash.c ****     * the 5 us delay required.
  72:Generated_Source\PSoC5/CyFlash.c ****     ***************************************************************************/
  73:Generated_Source\PSoC5/CyFlash.c ****     CY_FLASH_SPC_FM_EE_WAKE_CNT_REG = CY_FLASH_SPC_FM_EE_WAKE_CNT_80MHZ;
  49              		.loc 1 73 0
  50 001a C822     		movs	r2, #200
  51 001c 0B4B     		ldr	r3, .L5+4
  52 001e 1A70     		strb	r2, [r3]
  74:Generated_Source\PSoC5/CyFlash.c **** 
  75:Generated_Source\PSoC5/CyFlash.c **** 
  76:Generated_Source\PSoC5/CyFlash.c ****     /***************************************************************************
  77:Generated_Source\PSoC5/CyFlash.c ****     * Enable flash. Active flash macros consume current, but re-enabling a
  78:Generated_Source\PSoC5/CyFlash.c ****     * disabled flash macro takes 5us. If the CPU attempts to fetch out of the
  79:Generated_Source\PSoC5/CyFlash.c ****     * macro during that time, it will be stalled. This bit allows the flash to
  80:Generated_Source\PSoC5/CyFlash.c ****     * be enabled even if the CPU is disabled, which allows a quicker return to
  81:Generated_Source\PSoC5/CyFlash.c ****     * code execution.
  82:Generated_Source\PSoC5/CyFlash.c ****     ***************************************************************************/
  83:Generated_Source\PSoC5/CyFlash.c ****     CY_FLASH_PM_ACT_CFG12_REG    |= CY_FLASH_PM_ACT_CFG12_EN_FM;
  53              		.loc 1 83 0
  54 0020 0B4A     		ldr	r2, .L5+8
  55 0022 1378     		ldrb	r3, [r2]	@ zero_extendqisi2
  56 0024 43F00F03 		orr	r3, r3, #15
  57 0028 1370     		strb	r3, [r2]
  84:Generated_Source\PSoC5/CyFlash.c ****     CY_FLASH_PM_ALTACT_CFG12_REG |= CY_FLASH_PM_ALTACT_CFG12_EN_FM;
  58              		.loc 1 84 0
  59 002a 1032     		adds	r2, r2, #16
  60 002c 1378     		ldrb	r3, [r2]	@ zero_extendqisi2
  61 002e 43F00F03 		orr	r3, r3, #15
  62 0032 1370     		strb	r3, [r2]
  85:Generated_Source\PSoC5/CyFlash.c **** 
  86:Generated_Source\PSoC5/CyFlash.c ****     while(0u == (CY_FLASH_SPC_FM_EE_CR_REG & CY_FLASH_EE_EE_AWAKE))
  63              		.loc 1 86 0
  64 0034 02F55172 		add	r2, r2, #836
  65              	.L2:
  66              		.loc 1 86 0 is_stmt 0 discriminator 1
  67 0038 1378     		ldrb	r3, [r2]	@ zero_extendqisi2
  68 003a 13F0200F 		tst	r3, #32
  69 003e FBD0     		beq	.L2
  87:Generated_Source\PSoC5/CyFlash.c ****     {
  88:Generated_Source\PSoC5/CyFlash.c ****         /* Non-zero status denotes that the EEPROM/Flash is awake & powered. */
  89:Generated_Source\PSoC5/CyFlash.c ****     }
  90:Generated_Source\PSoC5/CyFlash.c **** 
  91:Generated_Source\PSoC5/CyFlash.c ****     CyExitCriticalSection(interruptState);
  70              		.loc 1 91 0 is_stmt 1
  71 0040 FFF7FEFF 		bl	CyExitCriticalSection
  72              	.LVL1:
  73 0044 08BD     		pop	{r3, pc}
  74              	.L6:
  75 0046 00BF     		.align	2
  76              	.L5:
  77 0048 A0430040 		.word	1073759136
  78 004c 01470040 		.word	1073760001
  79 0050 AC430040 		.word	1073759148
  80              		.cfi_endproc
ARM GAS  C:\Users\ingan\AppData\Local\Temp\ccmdDJp3.s 			page 4


  81              	.LFE0:
  82              		.size	CyFlash_Start, .-CyFlash_Start
  83              		.section	.text.CyFlash_Stop,"ax",%progbits
  84              		.align	2
  85              		.global	CyFlash_Stop
  86              		.thumb
  87              		.thumb_func
  88              		.type	CyFlash_Stop, %function
  89              	CyFlash_Stop:
  90              	.LFB1:
  92:Generated_Source\PSoC5/CyFlash.c **** }
  93:Generated_Source\PSoC5/CyFlash.c **** 
  94:Generated_Source\PSoC5/CyFlash.c **** 
  95:Generated_Source\PSoC5/CyFlash.c **** /*******************************************************************************
  96:Generated_Source\PSoC5/CyFlash.c **** * Function Name: CyFlash_Stop
  97:Generated_Source\PSoC5/CyFlash.c **** ****************************************************************************//**
  98:Generated_Source\PSoC5/CyFlash.c **** *
  99:Generated_Source\PSoC5/CyFlash.c **** *  Disable the Flash.
 100:Generated_Source\PSoC5/CyFlash.c **** *
 101:Generated_Source\PSoC5/CyFlash.c **** * \sideeffect
 102:Generated_Source\PSoC5/CyFlash.c **** *  This setting is ignored as long as the CPU is currently running.  This will
 103:Generated_Source\PSoC5/CyFlash.c **** *  only take effect when the CPU is later disabled.
 104:Generated_Source\PSoC5/CyFlash.c **** *
 105:Generated_Source\PSoC5/CyFlash.c **** *******************************************************************************/
 106:Generated_Source\PSoC5/CyFlash.c **** void CyFlash_Stop(void) 
 107:Generated_Source\PSoC5/CyFlash.c **** {
  91              		.loc 1 107 0
  92              		.cfi_startproc
  93              		@ args = 0, pretend = 0, frame = 0
  94              		@ frame_needed = 0, uses_anonymous_args = 0
  95 0000 08B5     		push	{r3, lr}
  96              		.cfi_def_cfa_offset 8
  97              		.cfi_offset 3, -8
  98              		.cfi_offset 14, -4
 108:Generated_Source\PSoC5/CyFlash.c ****     uint8 interruptState;
 109:Generated_Source\PSoC5/CyFlash.c **** 
 110:Generated_Source\PSoC5/CyFlash.c ****     interruptState = CyEnterCriticalSection();
  99              		.loc 1 110 0
 100 0002 FFF7FEFF 		bl	CyEnterCriticalSection
 101              	.LVL2:
 111:Generated_Source\PSoC5/CyFlash.c **** 
 112:Generated_Source\PSoC5/CyFlash.c ****     CY_FLASH_PM_ACT_CFG12_REG    &= ((uint8)(~CY_FLASH_PM_ACT_CFG12_EN_FM));
 102              		.loc 1 112 0
 103 0006 064A     		ldr	r2, .L9
 104 0008 1378     		ldrb	r3, [r2]	@ zero_extendqisi2
 105 000a 03F0F003 		and	r3, r3, #240
 106 000e 1370     		strb	r3, [r2]
 113:Generated_Source\PSoC5/CyFlash.c ****     CY_FLASH_PM_ALTACT_CFG12_REG &= ((uint8)(~CY_FLASH_PM_ALTACT_CFG12_EN_FM));
 107              		.loc 1 113 0
 108 0010 1032     		adds	r2, r2, #16
 109 0012 1378     		ldrb	r3, [r2]	@ zero_extendqisi2
 110 0014 03F0F003 		and	r3, r3, #240
 111 0018 1370     		strb	r3, [r2]
 114:Generated_Source\PSoC5/CyFlash.c **** 
 115:Generated_Source\PSoC5/CyFlash.c ****     CyExitCriticalSection(interruptState);
 112              		.loc 1 115 0
 113 001a FFF7FEFF 		bl	CyExitCriticalSection
ARM GAS  C:\Users\ingan\AppData\Local\Temp\ccmdDJp3.s 			page 5


 114              	.LVL3:
 115 001e 08BD     		pop	{r3, pc}
 116              	.L10:
 117              		.align	2
 118              	.L9:
 119 0020 AC430040 		.word	1073759148
 120              		.cfi_endproc
 121              	.LFE1:
 122              		.size	CyFlash_Stop, .-CyFlash_Stop
 123              		.section	.text.CyFlash_EraseRow,"ax",%progbits
 124              		.align	2
 125              		.global	CyFlash_EraseRow
 126              		.thumb
 127              		.thumb_func
 128              		.type	CyFlash_EraseRow, %function
 129              	CyFlash_EraseRow:
 130              	.LFB2:
 116:Generated_Source\PSoC5/CyFlash.c **** }
 117:Generated_Source\PSoC5/CyFlash.c **** 
 118:Generated_Source\PSoC5/CyFlash.c **** 
 119:Generated_Source\PSoC5/CyFlash.c **** /*******************************************************************************
 120:Generated_Source\PSoC5/CyFlash.c **** * Function Name: CyFlash_EraseRow
 121:Generated_Source\PSoC5/CyFlash.c **** ****************************************************************************//**
 122:Generated_Source\PSoC5/CyFlash.c **** *
 123:Generated_Source\PSoC5/CyFlash.c **** *  Erases a single row of flash. Reports success or reason for failure. 
 124:Generated_Source\PSoC5/CyFlash.c **** *  The API does not return until the erase operation is complete.
 125:Generated_Source\PSoC5/CyFlash.c **** *
 126:Generated_Source\PSoC5/CyFlash.c **** *  \param arrayID:    ID of the array to erase.
 127:Generated_Source\PSoC5/CyFlash.c **** *   The arrays in the part are sequential starting at the first ID for the
 128:Generated_Source\PSoC5/CyFlash.c **** *   Flash memory type. 
 129:Generated_Source\PSoC5/CyFlash.c **** *  \param rowAddress: Row address within the specified arrayId.
 130:Generated_Source\PSoC5/CyFlash.c **** *
 131:Generated_Source\PSoC5/CyFlash.c **** *  \return
 132:Generated_Source\PSoC5/CyFlash.c **** *  status:
 133:Generated_Source\PSoC5/CyFlash.c **** *   CYRET_SUCCESS if successful.
 134:Generated_Source\PSoC5/CyFlash.c **** *   CYRET_LOCKED if the SPC is already in use.
 135:Generated_Source\PSoC5/CyFlash.c **** *   CYRET_CANCELED if command not accepted
 136:Generated_Source\PSoC5/CyFlash.c **** *   CYRET_UNKNOWN if there was an SPC error.
 137:Generated_Source\PSoC5/CyFlash.c **** *   CYRET_BAD_PARAM if one or more invalid parameters
 138:Generated_Source\PSoC5/CyFlash.c **** *
 139:Generated_Source\PSoC5/CyFlash.c **** *******************************************************************************/
 140:Generated_Source\PSoC5/CyFlash.c **** cystatus CyFlash_EraseRow(uint8 arrayId, uint16 rowAddress)
 141:Generated_Source\PSoC5/CyFlash.c **** {
 131              		.loc 1 141 0
 132              		.cfi_startproc
 133              		@ args = 0, pretend = 0, frame = 0
 134              		@ frame_needed = 0, uses_anonymous_args = 0
 135              	.LVL4:
 136 0000 38B5     		push	{r3, r4, r5, lr}
 137              		.cfi_def_cfa_offset 16
 138              		.cfi_offset 3, -16
 139              		.cfi_offset 4, -12
 140              		.cfi_offset 5, -8
 141              		.cfi_offset 14, -4
 142              	.LVL5:
 142:Generated_Source\PSoC5/CyFlash.c ****     cystatus status = CYRET_SUCCESS;
 143:Generated_Source\PSoC5/CyFlash.c **** 
ARM GAS  C:\Users\ingan\AppData\Local\Temp\ccmdDJp3.s 			page 6


 144:Generated_Source\PSoC5/CyFlash.c ****     if (arrayId > CY_SPC_LAST_FLASH_ARRAYID)
 143              		.loc 1 144 0
 144 0002 3F28     		cmp	r0, #63
 145 0004 32D8     		bhi	.L16
 145:Generated_Source\PSoC5/CyFlash.c ****     {
 146:Generated_Source\PSoC5/CyFlash.c ****         status = CYRET_BAD_PARAM;
 147:Generated_Source\PSoC5/CyFlash.c ****     }
 148:Generated_Source\PSoC5/CyFlash.c ****     else if(rowAddress > (CY_FLASH_NUMBER_ROWS/CY_FLASH_NUMBER_ARRAYS))
 146              		.loc 1 148 0
 147 0006 B1F5807F 		cmp	r1, #256
 148 000a 31D8     		bhi	.L17
 149 000c 0D46     		mov	r5, r1
 150 000e 0446     		mov	r4, r0
 149:Generated_Source\PSoC5/CyFlash.c ****     {
 150:Generated_Source\PSoC5/CyFlash.c ****         status = CYRET_BAD_PARAM;
 151:Generated_Source\PSoC5/CyFlash.c ****     }        
 152:Generated_Source\PSoC5/CyFlash.c ****     else
 153:Generated_Source\PSoC5/CyFlash.c ****     {
 154:Generated_Source\PSoC5/CyFlash.c ****         if(CySpcLock() == CYRET_SUCCESS)
 151              		.loc 1 154 0
 152 0010 FFF7FEFF 		bl	CySpcLock
 153              	.LVL6:
 154 0014 70BB     		cbnz	r0, .L18
 155:Generated_Source\PSoC5/CyFlash.c ****         {
 156:Generated_Source\PSoC5/CyFlash.c ****             /* Erase flash row */
 157:Generated_Source\PSoC5/CyFlash.c ****             status = CySpcEraseRow(arrayId, rowAddress, dieTemperature[0u], dieTemperature[1u]);
 155              		.loc 1 157 0
 156 0016 194A     		ldr	r2, .L24
 157 0018 5378     		ldrb	r3, [r2, #1]	@ zero_extendqisi2
 158 001a 1278     		ldrb	r2, [r2]	@ zero_extendqisi2
 159 001c 2946     		mov	r1, r5
 160 001e 2046     		mov	r0, r4
 161 0020 FFF7FEFF 		bl	CySpcEraseRow
 162              	.LVL7:
 158:Generated_Source\PSoC5/CyFlash.c ****             
 159:Generated_Source\PSoC5/CyFlash.c ****             if(CYRET_STARTED == status)
 163              		.loc 1 159 0
 164 0024 0728     		cmp	r0, #7
 165 0026 1AD1     		bne	.L19
 160:Generated_Source\PSoC5/CyFlash.c ****             {
 161:Generated_Source\PSoC5/CyFlash.c ****                 while(CY_SPC_BUSY)
 166              		.loc 1 161 0
 167 0028 154B     		ldr	r3, .L24+4
 168 002a 1B78     		ldrb	r3, [r3]	@ zero_extendqisi2
 169 002c 13F0020F 		tst	r3, #2
 170 0030 08D1     		bne	.L14
 162:Generated_Source\PSoC5/CyFlash.c ****                 {
 163:Generated_Source\PSoC5/CyFlash.c ****                     /* Wait for SPC to finish and get SPC status */
 164:Generated_Source\PSoC5/CyFlash.c ****                     CyDelayUs(1u);
 171              		.loc 1 164 0
 172 0032 0125     		movs	r5, #1
 161:Generated_Source\PSoC5/CyFlash.c ****                 {
 173              		.loc 1 161 0
 174 0034 124C     		ldr	r4, .L24+4
 175              	.LVL8:
 176              	.L21:
 177              		.loc 1 164 0
ARM GAS  C:\Users\ingan\AppData\Local\Temp\ccmdDJp3.s 			page 7


 178 0036 2846     		mov	r0, r5
 179 0038 FFF7FEFF 		bl	CyDelayUs
 180              	.LVL9:
 161:Generated_Source\PSoC5/CyFlash.c ****                 {
 181              		.loc 1 161 0
 182 003c 2378     		ldrb	r3, [r4]	@ zero_extendqisi2
 183 003e 13F0020F 		tst	r3, #2
 184 0042 F8D0     		beq	.L21
 185              	.L14:
 165:Generated_Source\PSoC5/CyFlash.c ****                 }
 166:Generated_Source\PSoC5/CyFlash.c ****                 
 167:Generated_Source\PSoC5/CyFlash.c ****                 /* Hide SPC status */
 168:Generated_Source\PSoC5/CyFlash.c ****                 if(CY_SPC_STATUS_SUCCESS == CY_SPC_READ_STATUS)
 186              		.loc 1 168 0
 187 0044 0E4B     		ldr	r3, .L24+4
 188 0046 1B78     		ldrb	r3, [r3]	@ zero_extendqisi2
 189 0048 13F0020F 		tst	r3, #2
 190 004c 09D0     		beq	.L20
 191              		.loc 1 168 0 is_stmt 0 discriminator 1
 192 004e 0C4B     		ldr	r3, .L24+4
 193 0050 1B78     		ldrb	r3, [r3]	@ zero_extendqisi2
 194 0052 9B08     		lsrs	r3, r3, #2
 195 0054 14BF     		ite	ne
 196 0056 4FF0FF34 		movne	r4, #-1
 197 005a 0024     		moveq	r4, #0
 198 005c 03E0     		b	.L13
 199              	.LVL10:
 200              	.L19:
 169:Generated_Source\PSoC5/CyFlash.c ****                 {
 170:Generated_Source\PSoC5/CyFlash.c ****                     status = CYRET_SUCCESS;
 171:Generated_Source\PSoC5/CyFlash.c ****                 }
 172:Generated_Source\PSoC5/CyFlash.c ****                 else
 173:Generated_Source\PSoC5/CyFlash.c ****                 {
 174:Generated_Source\PSoC5/CyFlash.c ****                     status = CYRET_UNKNOWN;
 175:Generated_Source\PSoC5/CyFlash.c ****                 }
 176:Generated_Source\PSoC5/CyFlash.c ****             }
 177:Generated_Source\PSoC5/CyFlash.c **** 	        else
 178:Generated_Source\PSoC5/CyFlash.c ****             {
 179:Generated_Source\PSoC5/CyFlash.c ****                 status = CYRET_CANCELED;
 201              		.loc 1 179 0 is_stmt 1
 202 005e 0924     		movs	r4, #9
 203 0060 01E0     		b	.L13
 204              	.LVL11:
 205              	.L20:
 174:Generated_Source\PSoC5/CyFlash.c ****                 }
 206              		.loc 1 174 0
 207 0062 4FF0FF34 		mov	r4, #-1
 208              	.L13:
 209              	.LVL12:
 180:Generated_Source\PSoC5/CyFlash.c ****             }
 181:Generated_Source\PSoC5/CyFlash.c ****             CySpcUnlock();
 210              		.loc 1 181 0
 211 0066 FFF7FEFF 		bl	CySpcUnlock
 212              	.LVL13:
 213 006a 04E0     		b	.L12
 214              	.LVL14:
 215              	.L16:
ARM GAS  C:\Users\ingan\AppData\Local\Temp\ccmdDJp3.s 			page 8


 146:Generated_Source\PSoC5/CyFlash.c ****     }
 216              		.loc 1 146 0
 217 006c 0124     		movs	r4, #1
 218 006e 02E0     		b	.L12
 219              	.L17:
 150:Generated_Source\PSoC5/CyFlash.c ****     }        
 220              		.loc 1 150 0
 221 0070 0124     		movs	r4, #1
 222 0072 00E0     		b	.L12
 223              	.LVL15:
 224              	.L18:
 182:Generated_Source\PSoC5/CyFlash.c ****         }
 183:Generated_Source\PSoC5/CyFlash.c ****         else 
 184:Generated_Source\PSoC5/CyFlash.c ****         {
 185:Generated_Source\PSoC5/CyFlash.c ****             status = CYRET_LOCKED;
 225              		.loc 1 185 0
 226 0074 0424     		movs	r4, #4
 227              	.LVL16:
 228              	.L12:
 186:Generated_Source\PSoC5/CyFlash.c ****         }
 187:Generated_Source\PSoC5/CyFlash.c ****     }
 188:Generated_Source\PSoC5/CyFlash.c ****     
 189:Generated_Source\PSoC5/CyFlash.c ****     return(status);
 190:Generated_Source\PSoC5/CyFlash.c **** }
 229              		.loc 1 190 0
 230 0076 2046     		mov	r0, r4
 231 0078 38BD     		pop	{r3, r4, r5, pc}
 232              	.LVL17:
 233              	.L25:
 234 007a 00BF     		.align	2
 235              	.L24:
 236 007c 00000000 		.word	dieTemperature
 237 0080 22470040 		.word	1073760034
 238              		.cfi_endproc
 239              	.LFE2:
 240              		.size	CyFlash_EraseRow, .-CyFlash_EraseRow
 241              		.section	.text.CyFlashGetSpcAlgorithm,"ax",%progbits
 242              		.align	2
 243              		.global	CyFlashGetSpcAlgorithm
 244              		.thumb
 245              		.thumb_func
 246              		.type	CyFlashGetSpcAlgorithm, %function
 247              	CyFlashGetSpcAlgorithm:
 248              	.LFB4:
 191:Generated_Source\PSoC5/CyFlash.c **** 
 192:Generated_Source\PSoC5/CyFlash.c **** 
 193:Generated_Source\PSoC5/CyFlash.c **** /*******************************************************************************
 194:Generated_Source\PSoC5/CyFlash.c **** * Function Name: CySetTempInt
 195:Generated_Source\PSoC5/CyFlash.c **** ****************************************************************************//**
 196:Generated_Source\PSoC5/CyFlash.c **** *
 197:Generated_Source\PSoC5/CyFlash.c **** *  Sends a command to the SPC to read the die temperature. Sets a global value
 198:Generated_Source\PSoC5/CyFlash.c **** *  used by the Write function. This function must be called once before
 199:Generated_Source\PSoC5/CyFlash.c **** *  executing a series of Flash writing functions.
 200:Generated_Source\PSoC5/CyFlash.c **** *
 201:Generated_Source\PSoC5/CyFlash.c **** * \return
 202:Generated_Source\PSoC5/CyFlash.c **** *  status:
 203:Generated_Source\PSoC5/CyFlash.c **** *   CYRET_SUCCESS - if successful
ARM GAS  C:\Users\ingan\AppData\Local\Temp\ccmdDJp3.s 			page 9


 204:Generated_Source\PSoC5/CyFlash.c **** *   CYRET_LOCKED  - if Flash writing already in use
 205:Generated_Source\PSoC5/CyFlash.c **** *   CYRET_UNKNOWN - if there was an SPC error
 206:Generated_Source\PSoC5/CyFlash.c **** *
 207:Generated_Source\PSoC5/CyFlash.c **** *******************************************************************************/
 208:Generated_Source\PSoC5/CyFlash.c **** static cystatus CySetTempInt(void) 
 209:Generated_Source\PSoC5/CyFlash.c **** {
 210:Generated_Source\PSoC5/CyFlash.c ****     cystatus status;
 211:Generated_Source\PSoC5/CyFlash.c **** 
 212:Generated_Source\PSoC5/CyFlash.c ****     /* Make sure SPC is powered */
 213:Generated_Source\PSoC5/CyFlash.c ****     CySpcStart();
 214:Generated_Source\PSoC5/CyFlash.c **** 
 215:Generated_Source\PSoC5/CyFlash.c ****     /* Plan for failure. */
 216:Generated_Source\PSoC5/CyFlash.c ****     status = CYRET_UNKNOWN;
 217:Generated_Source\PSoC5/CyFlash.c **** 
 218:Generated_Source\PSoC5/CyFlash.c ****     if(CySpcLock() == CYRET_SUCCESS)
 219:Generated_Source\PSoC5/CyFlash.c ****     {
 220:Generated_Source\PSoC5/CyFlash.c ****         /* Write the command. */
 221:Generated_Source\PSoC5/CyFlash.c ****         if(CYRET_STARTED == CySpcGetTemp(CY_TEMP_NUMBER_OF_SAMPLES))
 222:Generated_Source\PSoC5/CyFlash.c ****         {
 223:Generated_Source\PSoC5/CyFlash.c ****             do
 224:Generated_Source\PSoC5/CyFlash.c ****             {
 225:Generated_Source\PSoC5/CyFlash.c ****                 if(CySpcReadData(dieTemperature, CY_FLASH_DIE_TEMP_DATA_SIZE) == CY_FLASH_DIE_TEMP_
 226:Generated_Source\PSoC5/CyFlash.c ****                 {
 227:Generated_Source\PSoC5/CyFlash.c ****                     status = CYRET_SUCCESS;
 228:Generated_Source\PSoC5/CyFlash.c **** 
 229:Generated_Source\PSoC5/CyFlash.c ****                     while(CY_SPC_BUSY)
 230:Generated_Source\PSoC5/CyFlash.c ****                     {
 231:Generated_Source\PSoC5/CyFlash.c ****                         /* Spin until idle. */
 232:Generated_Source\PSoC5/CyFlash.c ****                         CyDelayUs(1u);
 233:Generated_Source\PSoC5/CyFlash.c ****                     }
 234:Generated_Source\PSoC5/CyFlash.c ****                     break;
 235:Generated_Source\PSoC5/CyFlash.c ****                 }
 236:Generated_Source\PSoC5/CyFlash.c **** 
 237:Generated_Source\PSoC5/CyFlash.c ****             } while(CY_SPC_BUSY);
 238:Generated_Source\PSoC5/CyFlash.c ****         }
 239:Generated_Source\PSoC5/CyFlash.c **** 
 240:Generated_Source\PSoC5/CyFlash.c ****         CySpcUnlock();
 241:Generated_Source\PSoC5/CyFlash.c ****     }
 242:Generated_Source\PSoC5/CyFlash.c ****     else
 243:Generated_Source\PSoC5/CyFlash.c ****     {
 244:Generated_Source\PSoC5/CyFlash.c ****         status = CYRET_LOCKED;
 245:Generated_Source\PSoC5/CyFlash.c ****     }
 246:Generated_Source\PSoC5/CyFlash.c **** 
 247:Generated_Source\PSoC5/CyFlash.c ****     return (status);
 248:Generated_Source\PSoC5/CyFlash.c **** }
 249:Generated_Source\PSoC5/CyFlash.c **** 
 250:Generated_Source\PSoC5/CyFlash.c **** 
 251:Generated_Source\PSoC5/CyFlash.c **** /*******************************************************************************
 252:Generated_Source\PSoC5/CyFlash.c **** * Function Name: CyFlashGetSpcAlgorithm
 253:Generated_Source\PSoC5/CyFlash.c **** ****************************************************************************//**
 254:Generated_Source\PSoC5/CyFlash.c **** *
 255:Generated_Source\PSoC5/CyFlash.c **** *  Sends a command to the SPC to download code into RAM.
 256:Generated_Source\PSoC5/CyFlash.c **** *
 257:Generated_Source\PSoC5/CyFlash.c **** * \return
 258:Generated_Source\PSoC5/CyFlash.c **** *  status:
 259:Generated_Source\PSoC5/CyFlash.c **** *   CYRET_SUCCESS - if successful
 260:Generated_Source\PSoC5/CyFlash.c **** *   CYRET_LOCKED  - if Flash writing already in use
ARM GAS  C:\Users\ingan\AppData\Local\Temp\ccmdDJp3.s 			page 10


 261:Generated_Source\PSoC5/CyFlash.c **** *   CYRET_UNKNOWN - if there was an SPC error
 262:Generated_Source\PSoC5/CyFlash.c **** *
 263:Generated_Source\PSoC5/CyFlash.c **** *******************************************************************************/
 264:Generated_Source\PSoC5/CyFlash.c **** cystatus CyFlashGetSpcAlgorithm(void) 
 265:Generated_Source\PSoC5/CyFlash.c **** {
 249              		.loc 1 265 0
 250              		.cfi_startproc
 251              		@ args = 0, pretend = 0, frame = 0
 252              		@ frame_needed = 0, uses_anonymous_args = 0
 253 0000 70B5     		push	{r4, r5, r6, lr}
 254              		.cfi_def_cfa_offset 16
 255              		.cfi_offset 4, -16
 256              		.cfi_offset 5, -12
 257              		.cfi_offset 6, -8
 258              		.cfi_offset 14, -4
 266:Generated_Source\PSoC5/CyFlash.c ****     cystatus status;
 267:Generated_Source\PSoC5/CyFlash.c **** 
 268:Generated_Source\PSoC5/CyFlash.c ****     /* Make sure SPC is powered */
 269:Generated_Source\PSoC5/CyFlash.c ****     CySpcStart();
 259              		.loc 1 269 0
 260 0002 FFF7FEFF 		bl	CySpcStart
 261              	.LVL18:
 270:Generated_Source\PSoC5/CyFlash.c **** 
 271:Generated_Source\PSoC5/CyFlash.c ****     if(CySpcLock() == CYRET_SUCCESS)
 262              		.loc 1 271 0
 263 0006 FFF7FEFF 		bl	CySpcLock
 264              	.LVL19:
 265 000a 00BB     		cbnz	r0, .L31
 272:Generated_Source\PSoC5/CyFlash.c ****     {
 273:Generated_Source\PSoC5/CyFlash.c ****         status = CySpcGetAlgorithm();
 266              		.loc 1 273 0
 267 000c FFF7FEFF 		bl	CySpcGetAlgorithm
 268              	.LVL20:
 269 0010 0446     		mov	r4, r0
 270              	.LVL21:
 274:Generated_Source\PSoC5/CyFlash.c **** 
 275:Generated_Source\PSoC5/CyFlash.c ****         if(CYRET_STARTED == status)
 271              		.loc 1 275 0
 272 0012 0728     		cmp	r0, #7
 273 0014 18D1     		bne	.L28
 276:Generated_Source\PSoC5/CyFlash.c ****         {
 277:Generated_Source\PSoC5/CyFlash.c ****             while(CY_SPC_BUSY)
 274              		.loc 1 277 0
 275 0016 0F4B     		ldr	r3, .L35
 276 0018 1B78     		ldrb	r3, [r3]	@ zero_extendqisi2
 277 001a 13F0020F 		tst	r3, #2
 278 001e 08D1     		bne	.L29
 278:Generated_Source\PSoC5/CyFlash.c ****             {
 279:Generated_Source\PSoC5/CyFlash.c ****                 /* Spin until idle. */
 280:Generated_Source\PSoC5/CyFlash.c ****                 CyDelayUs(1u);
 279              		.loc 1 280 0
 280 0020 0126     		movs	r6, #1
 277:Generated_Source\PSoC5/CyFlash.c ****             {
 281              		.loc 1 277 0
 282 0022 0C4D     		ldr	r5, .L35
 283              	.LVL22:
 284              	.L32:
ARM GAS  C:\Users\ingan\AppData\Local\Temp\ccmdDJp3.s 			page 11


 285              		.loc 1 280 0
 286 0024 3046     		mov	r0, r6
 287 0026 FFF7FEFF 		bl	CyDelayUs
 288              	.LVL23:
 277:Generated_Source\PSoC5/CyFlash.c ****             {
 289              		.loc 1 277 0
 290 002a 2B78     		ldrb	r3, [r5]	@ zero_extendqisi2
 291 002c 13F0020F 		tst	r3, #2
 292 0030 F8D0     		beq	.L32
 293              	.L29:
 281:Generated_Source\PSoC5/CyFlash.c ****             }
 282:Generated_Source\PSoC5/CyFlash.c **** 
 283:Generated_Source\PSoC5/CyFlash.c ****             if(CY_SPC_STATUS_SUCCESS == CY_SPC_READ_STATUS)
 294              		.loc 1 283 0
 295 0032 084B     		ldr	r3, .L35
 296 0034 1B78     		ldrb	r3, [r3]	@ zero_extendqisi2
 297 0036 13F0020F 		tst	r3, #2
 298 003a 05D0     		beq	.L28
 299              		.loc 1 283 0 is_stmt 0 discriminator 1
 300 003c 054B     		ldr	r3, .L35
 301 003e 1B78     		ldrb	r3, [r3]	@ zero_extendqisi2
 302 0040 9B08     		lsrs	r3, r3, #2
 284:Generated_Source\PSoC5/CyFlash.c ****             {
 285:Generated_Source\PSoC5/CyFlash.c ****                 status = CYRET_SUCCESS;
 303              		.loc 1 285 0 is_stmt 1 discriminator 1
 304 0042 002B     		cmp	r3, #0
 305 0044 08BF     		it	eq
 306 0046 0024     		moveq	r4, #0
 307              	.LVL24:
 308              	.L28:
 286:Generated_Source\PSoC5/CyFlash.c ****             }
 287:Generated_Source\PSoC5/CyFlash.c ****         }
 288:Generated_Source\PSoC5/CyFlash.c ****         CySpcUnlock();
 309              		.loc 1 288 0
 310 0048 FFF7FEFF 		bl	CySpcUnlock
 311              	.LVL25:
 312 004c 00E0     		b	.L27
 313              	.LVL26:
 314              	.L31:
 289:Generated_Source\PSoC5/CyFlash.c ****     }
 290:Generated_Source\PSoC5/CyFlash.c ****     else
 291:Generated_Source\PSoC5/CyFlash.c ****     {
 292:Generated_Source\PSoC5/CyFlash.c ****         status = CYRET_LOCKED;
 315              		.loc 1 292 0
 316 004e 0424     		movs	r4, #4
 317              	.L27:
 318              	.LVL27:
 293:Generated_Source\PSoC5/CyFlash.c ****     }
 294:Generated_Source\PSoC5/CyFlash.c **** 
 295:Generated_Source\PSoC5/CyFlash.c ****     return (status);
 296:Generated_Source\PSoC5/CyFlash.c **** }
 319              		.loc 1 296 0
 320 0050 2046     		mov	r0, r4
 321 0052 70BD     		pop	{r4, r5, r6, pc}
 322              	.LVL28:
 323              	.L36:
 324              		.align	2
ARM GAS  C:\Users\ingan\AppData\Local\Temp\ccmdDJp3.s 			page 12


 325              	.L35:
 326 0054 22470040 		.word	1073760034
 327              		.cfi_endproc
 328              	.LFE4:
 329              		.size	CyFlashGetSpcAlgorithm, .-CyFlashGetSpcAlgorithm
 330              		.section	.text.CySetTemp,"ax",%progbits
 331              		.align	2
 332              		.global	CySetTemp
 333              		.thumb
 334              		.thumb_func
 335              		.type	CySetTemp, %function
 336              	CySetTemp:
 337              	.LFB5:
 297:Generated_Source\PSoC5/CyFlash.c **** 
 298:Generated_Source\PSoC5/CyFlash.c **** 
 299:Generated_Source\PSoC5/CyFlash.c **** /*******************************************************************************
 300:Generated_Source\PSoC5/CyFlash.c **** * Function Name: CySetTemp
 301:Generated_Source\PSoC5/CyFlash.c **** ****************************************************************************//**
 302:Generated_Source\PSoC5/CyFlash.c **** *
 303:Generated_Source\PSoC5/CyFlash.c **** *  This is a wraparound for CySetTempInt(). It is used to return the second
 304:Generated_Source\PSoC5/CyFlash.c **** *  successful read of the temperature value.
 305:Generated_Source\PSoC5/CyFlash.c **** *
 306:Generated_Source\PSoC5/CyFlash.c **** * \return
 307:Generated_Source\PSoC5/CyFlash.c **** *  status:
 308:Generated_Source\PSoC5/CyFlash.c **** *   CYRET_SUCCESS if successful.
 309:Generated_Source\PSoC5/CyFlash.c **** *   CYRET_LOCKED  if Flash writing already in use
 310:Generated_Source\PSoC5/CyFlash.c **** *   CYRET_UNKNOWN if there was an SPC error.
 311:Generated_Source\PSoC5/CyFlash.c **** *
 312:Generated_Source\PSoC5/CyFlash.c **** *  uint8 dieTemperature[2]:
 313:Generated_Source\PSoC5/CyFlash.c **** *   Holds the die temperature for the flash writing algorithm. The first byte is
 314:Generated_Source\PSoC5/CyFlash.c **** *   the sign of the temperature (0 = negative, 1 = positive). The second byte is
 315:Generated_Source\PSoC5/CyFlash.c **** *   the magnitude.
 316:Generated_Source\PSoC5/CyFlash.c **** *
 317:Generated_Source\PSoC5/CyFlash.c **** *******************************************************************************/
 318:Generated_Source\PSoC5/CyFlash.c **** cystatus CySetTemp(void) 
 319:Generated_Source\PSoC5/CyFlash.c **** {
 338              		.loc 1 319 0
 339              		.cfi_startproc
 340              		@ args = 0, pretend = 0, frame = 0
 341              		@ frame_needed = 0, uses_anonymous_args = 0
 342 0000 F8B5     		push	{r3, r4, r5, r6, r7, lr}
 343              		.cfi_def_cfa_offset 24
 344              		.cfi_offset 3, -24
 345              		.cfi_offset 4, -20
 346              		.cfi_offset 5, -16
 347              		.cfi_offset 6, -12
 348              		.cfi_offset 7, -8
 349              		.cfi_offset 14, -4
 320:Generated_Source\PSoC5/CyFlash.c ****     cystatus status = CyFlashGetSpcAlgorithm();
 350              		.loc 1 320 0
 351 0002 FFF7FEFF 		bl	CyFlashGetSpcAlgorithm
 352              	.LVL29:
 321:Generated_Source\PSoC5/CyFlash.c **** 
 322:Generated_Source\PSoC5/CyFlash.c ****     if(status == CYRET_SUCCESS)
 353              		.loc 1 322 0
 354 0006 0446     		mov	r4, r0
 355 0008 70BB     		cbnz	r0, .L38
ARM GAS  C:\Users\ingan\AppData\Local\Temp\ccmdDJp3.s 			page 13


 356              	.LBB4:
 357              	.LBB5:
 213:Generated_Source\PSoC5/CyFlash.c **** 
 358              		.loc 1 213 0
 359 000a FFF7FEFF 		bl	CySpcStart
 360              	.LVL30:
 218:Generated_Source\PSoC5/CyFlash.c ****     {
 361              		.loc 1 218 0
 362 000e FFF7FEFF 		bl	CySpcLock
 363              	.LVL31:
 364 0012 40BB     		cbnz	r0, .L43
 221:Generated_Source\PSoC5/CyFlash.c ****         {
 365              		.loc 1 221 0
 366 0014 0120     		movs	r0, #1
 367 0016 FFF7FEFF 		bl	CySpcGetTemp
 368              	.LVL32:
 369 001a 0728     		cmp	r0, #7
 370 001c 1ED1     		bne	.L44
 225:Generated_Source\PSoC5/CyFlash.c ****                 {
 371              		.loc 1 225 0
 372 001e 134E     		ldr	r6, .L50
 373 0020 0225     		movs	r5, #2
 237:Generated_Source\PSoC5/CyFlash.c ****         }
 374              		.loc 1 237 0
 375 0022 134F     		ldr	r7, .L50+4
 376              	.L46:
 225:Generated_Source\PSoC5/CyFlash.c ****                 {
 377              		.loc 1 225 0
 378 0024 2946     		mov	r1, r5
 379 0026 3046     		mov	r0, r6
 380 0028 FFF7FEFF 		bl	CySpcReadData
 381              	.LVL33:
 382 002c 0228     		cmp	r0, #2
 383 002e 0ED1     		bne	.L40
 229:Generated_Source\PSoC5/CyFlash.c ****                     {
 384              		.loc 1 229 0
 385 0030 0F4B     		ldr	r3, .L50+4
 386 0032 1B78     		ldrb	r3, [r3]	@ zero_extendqisi2
 387 0034 13F0020F 		tst	r3, #2
 388 0038 12D1     		bne	.L39
 232:Generated_Source\PSoC5/CyFlash.c ****                     }
 389              		.loc 1 232 0
 390 003a 0126     		movs	r6, #1
 229:Generated_Source\PSoC5/CyFlash.c ****                     {
 391              		.loc 1 229 0
 392 003c 0C4D     		ldr	r5, .L50+4
 393              	.L45:
 232:Generated_Source\PSoC5/CyFlash.c ****                     }
 394              		.loc 1 232 0
 395 003e 3046     		mov	r0, r6
 396 0040 FFF7FEFF 		bl	CyDelayUs
 397              	.LVL34:
 229:Generated_Source\PSoC5/CyFlash.c ****                     {
 398              		.loc 1 229 0
 399 0044 2B78     		ldrb	r3, [r5]	@ zero_extendqisi2
 400 0046 13F0020F 		tst	r3, #2
 401 004a F8D0     		beq	.L45
ARM GAS  C:\Users\ingan\AppData\Local\Temp\ccmdDJp3.s 			page 14


 402 004c 08E0     		b	.L39
 403              	.L40:
 237:Generated_Source\PSoC5/CyFlash.c ****         }
 404              		.loc 1 237 0
 405 004e 3B78     		ldrb	r3, [r7]	@ zero_extendqisi2
 406 0050 13F0020F 		tst	r3, #2
 407 0054 E6D0     		beq	.L46
 216:Generated_Source\PSoC5/CyFlash.c **** 
 408              		.loc 1 216 0
 409 0056 4FF0FF34 		mov	r4, #-1
 410              	.LVL35:
 411 005a 01E0     		b	.L39
 412              	.LVL36:
 413              	.L44:
 414 005c 4FF0FF34 		mov	r4, #-1
 415              	.LVL37:
 416              	.L39:
 240:Generated_Source\PSoC5/CyFlash.c ****     }
 417              		.loc 1 240 0
 418 0060 FFF7FEFF 		bl	CySpcUnlock
 419              	.LVL38:
 420 0064 00E0     		b	.L38
 421              	.LVL39:
 422              	.L43:
 244:Generated_Source\PSoC5/CyFlash.c ****     }
 423              		.loc 1 244 0
 424 0066 0424     		movs	r4, #4
 425              	.LVL40:
 426              	.L38:
 427              	.LBE5:
 428              	.LBE4:
 323:Generated_Source\PSoC5/CyFlash.c ****     {
 324:Generated_Source\PSoC5/CyFlash.c ****         status = CySetTempInt();
 325:Generated_Source\PSoC5/CyFlash.c ****     }
 326:Generated_Source\PSoC5/CyFlash.c **** 
 327:Generated_Source\PSoC5/CyFlash.c ****     return (status);
 328:Generated_Source\PSoC5/CyFlash.c **** }
 429              		.loc 1 328 0
 430 0068 2046     		mov	r0, r4
 431 006a F8BD     		pop	{r3, r4, r5, r6, r7, pc}
 432              	.LVL41:
 433              	.L51:
 434              		.align	2
 435              	.L50:
 436 006c 00000000 		.word	dieTemperature
 437 0070 22470040 		.word	1073760034
 438              		.cfi_endproc
 439              	.LFE5:
 440              		.size	CySetTemp, .-CySetTemp
 441              		.section	.text.CySetFlashEEBuffer,"ax",%progbits
 442              		.align	2
 443              		.global	CySetFlashEEBuffer
 444              		.thumb
 445              		.thumb_func
 446              		.type	CySetFlashEEBuffer, %function
 447              	CySetFlashEEBuffer:
 448              	.LFB6:
ARM GAS  C:\Users\ingan\AppData\Local\Temp\ccmdDJp3.s 			page 15


 329:Generated_Source\PSoC5/CyFlash.c **** 
 330:Generated_Source\PSoC5/CyFlash.c **** 
 331:Generated_Source\PSoC5/CyFlash.c **** /*******************************************************************************
 332:Generated_Source\PSoC5/CyFlash.c **** * Function Name: CySetFlashEEBuffer
 333:Generated_Source\PSoC5/CyFlash.c **** ****************************************************************************//**
 334:Generated_Source\PSoC5/CyFlash.c **** *
 335:Generated_Source\PSoC5/CyFlash.c **** *  Sets the user supplied temporary buffer to store SPC data while performing
 336:Generated_Source\PSoC5/CyFlash.c **** *  Flash and EEPROM commands. This buffer is only necessary when the Flash ECC
 337:Generated_Source\PSoC5/CyFlash.c **** *  is disabled.
 338:Generated_Source\PSoC5/CyFlash.c **** *
 339:Generated_Source\PSoC5/CyFlash.c **** *  \param buffer:
 340:Generated_Source\PSoC5/CyFlash.c **** *   The address of a block of memory to store temporary memory. The size of the
 341:Generated_Source\PSoC5/CyFlash.c **** *   block of memory is CYDEV_FLS_ROW_SIZE + CYDEV_ECC_ROW_SIZE.
 342:Generated_Source\PSoC5/CyFlash.c **** *
 343:Generated_Source\PSoC5/CyFlash.c **** * \return
 344:Generated_Source\PSoC5/CyFlash.c **** *  status:
 345:Generated_Source\PSoC5/CyFlash.c **** *   CYRET_SUCCESS if successful.
 346:Generated_Source\PSoC5/CyFlash.c **** *   CYRET_BAD_PARAM if the buffer is NULL
 347:Generated_Source\PSoC5/CyFlash.c **** *
 348:Generated_Source\PSoC5/CyFlash.c **** *******************************************************************************/
 349:Generated_Source\PSoC5/CyFlash.c **** cystatus CySetFlashEEBuffer(uint8 * buffer) 
 350:Generated_Source\PSoC5/CyFlash.c **** {
 449              		.loc 1 350 0
 450              		.cfi_startproc
 451              		@ args = 0, pretend = 0, frame = 0
 452              		@ frame_needed = 0, uses_anonymous_args = 0
 453              	.LVL42:
 454 0000 10B5     		push	{r4, lr}
 455              		.cfi_def_cfa_offset 8
 456              		.cfi_offset 4, -8
 457              		.cfi_offset 14, -4
 458 0002 0446     		mov	r4, r0
 459              	.LVL43:
 351:Generated_Source\PSoC5/CyFlash.c ****     cystatus status = CYRET_SUCCESS;
 352:Generated_Source\PSoC5/CyFlash.c **** 
 353:Generated_Source\PSoC5/CyFlash.c ****     CySpcStart();
 460              		.loc 1 353 0
 461 0004 FFF7FEFF 		bl	CySpcStart
 462              	.LVL44:
 354:Generated_Source\PSoC5/CyFlash.c **** 
 355:Generated_Source\PSoC5/CyFlash.c ****     #if(CYDEV_ECC_ENABLE == 0)
 356:Generated_Source\PSoC5/CyFlash.c **** 
 357:Generated_Source\PSoC5/CyFlash.c ****         if(NULL == buffer)
 463              		.loc 1 357 0
 464 0008 34B1     		cbz	r4, .L54
 358:Generated_Source\PSoC5/CyFlash.c ****         {
 359:Generated_Source\PSoC5/CyFlash.c ****             rowBuffer = rowBuffer;
 360:Generated_Source\PSoC5/CyFlash.c ****             status = CYRET_BAD_PARAM;
 361:Generated_Source\PSoC5/CyFlash.c ****         }
 362:Generated_Source\PSoC5/CyFlash.c ****         else if(CySpcLock() != CYRET_SUCCESS)
 465              		.loc 1 362 0
 466 000a FFF7FEFF 		bl	CySpcLock
 467              	.LVL45:
 468 000e 28B9     		cbnz	r0, .L55
 363:Generated_Source\PSoC5/CyFlash.c ****         {
 364:Generated_Source\PSoC5/CyFlash.c ****             rowBuffer = rowBuffer;
 365:Generated_Source\PSoC5/CyFlash.c ****             status = CYRET_LOCKED;
ARM GAS  C:\Users\ingan\AppData\Local\Temp\ccmdDJp3.s 			page 16


 366:Generated_Source\PSoC5/CyFlash.c ****         }
 367:Generated_Source\PSoC5/CyFlash.c ****         else
 368:Generated_Source\PSoC5/CyFlash.c ****         {
 369:Generated_Source\PSoC5/CyFlash.c ****             rowBuffer = buffer;
 370:Generated_Source\PSoC5/CyFlash.c ****             CySpcUnlock();
 469              		.loc 1 370 0
 470 0010 FFF7FEFF 		bl	CySpcUnlock
 471              	.LVL46:
 351:Generated_Source\PSoC5/CyFlash.c **** 
 472              		.loc 1 351 0
 473 0014 0020     		movs	r0, #0
 474 0016 10BD     		pop	{r4, pc}
 475              	.LVL47:
 476              	.L54:
 360:Generated_Source\PSoC5/CyFlash.c ****         }
 477              		.loc 1 360 0
 478 0018 0120     		movs	r0, #1
 479 001a 10BD     		pop	{r4, pc}
 480              	.LVL48:
 481              	.L55:
 365:Generated_Source\PSoC5/CyFlash.c ****         }
 482              		.loc 1 365 0
 483 001c 0420     		movs	r0, #4
 484              	.LVL49:
 371:Generated_Source\PSoC5/CyFlash.c ****         }
 372:Generated_Source\PSoC5/CyFlash.c **** 
 373:Generated_Source\PSoC5/CyFlash.c ****     #else
 374:Generated_Source\PSoC5/CyFlash.c **** 
 375:Generated_Source\PSoC5/CyFlash.c ****         /* To suppress warning */
 376:Generated_Source\PSoC5/CyFlash.c ****         buffer = buffer;
 377:Generated_Source\PSoC5/CyFlash.c **** 
 378:Generated_Source\PSoC5/CyFlash.c ****     #endif  /* (CYDEV_ECC_ENABLE == 0u) */
 379:Generated_Source\PSoC5/CyFlash.c **** 
 380:Generated_Source\PSoC5/CyFlash.c ****     return(status);
 381:Generated_Source\PSoC5/CyFlash.c **** }
 485              		.loc 1 381 0
 486 001e 10BD     		pop	{r4, pc}
 487              		.cfi_endproc
 488              	.LFE6:
 489              		.size	CySetFlashEEBuffer, .-CySetFlashEEBuffer
 490              		.section	.text.CyWriteRowFull,"ax",%progbits
 491              		.align	2
 492              		.global	CyWriteRowFull
 493              		.thumb
 494              		.thumb_func
 495              		.type	CyWriteRowFull, %function
 496              	CyWriteRowFull:
 497              	.LFB8:
 382:Generated_Source\PSoC5/CyFlash.c **** 
 383:Generated_Source\PSoC5/CyFlash.c **** 
 384:Generated_Source\PSoC5/CyFlash.c **** /*******************************************************************************
 385:Generated_Source\PSoC5/CyFlash.c **** * Function Name: CyWriteRowData
 386:Generated_Source\PSoC5/CyFlash.c **** ****************************************************************************//**
 387:Generated_Source\PSoC5/CyFlash.c **** *
 388:Generated_Source\PSoC5/CyFlash.c **** *  Sends a command to the SPC to load and program a row of data in
 389:Generated_Source\PSoC5/CyFlash.c **** *  Flash or EEPROM.
 390:Generated_Source\PSoC5/CyFlash.c **** *
ARM GAS  C:\Users\ingan\AppData\Local\Temp\ccmdDJp3.s 			page 17


 391:Generated_Source\PSoC5/CyFlash.c **** *  \param arrayID:    ID of the array to write.
 392:Generated_Source\PSoC5/CyFlash.c **** *   The type of write, Flash or EEPROM, is determined from the array ID.
 393:Generated_Source\PSoC5/CyFlash.c **** *   The arrays in the part are sequential starting at the first ID for the
 394:Generated_Source\PSoC5/CyFlash.c **** *   specific memory type. The array ID for the Flash memory lasts from 0x00 to
 395:Generated_Source\PSoC5/CyFlash.c **** *   0x3F and for the EEPROM memory it lasts from 0x40 to 0x7F.
 396:Generated_Source\PSoC5/CyFlash.c **** *  \param rowAddress: rowAddress of flash row to program.
 397:Generated_Source\PSoC5/CyFlash.c **** *  \param rowData:    Array of bytes to write.
 398:Generated_Source\PSoC5/CyFlash.c **** *
 399:Generated_Source\PSoC5/CyFlash.c **** * \return
 400:Generated_Source\PSoC5/CyFlash.c **** *  status:
 401:Generated_Source\PSoC5/CyFlash.c **** *   CYRET_SUCCESS if successful.
 402:Generated_Source\PSoC5/CyFlash.c **** *   CYRET_LOCKED if the SPC is already in use.
 403:Generated_Source\PSoC5/CyFlash.c **** *   CYRET_CANCELED if command not accepted
 404:Generated_Source\PSoC5/CyFlash.c **** *   CYRET_UNKNOWN if there was an SPC error.
 405:Generated_Source\PSoC5/CyFlash.c **** *
 406:Generated_Source\PSoC5/CyFlash.c **** *******************************************************************************/
 407:Generated_Source\PSoC5/CyFlash.c **** cystatus CyWriteRowData(uint8 arrayId, uint16 rowAddress, const uint8 * rowData) 
 408:Generated_Source\PSoC5/CyFlash.c **** {
 409:Generated_Source\PSoC5/CyFlash.c ****     uint16 rowSize;
 410:Generated_Source\PSoC5/CyFlash.c ****     cystatus status;
 411:Generated_Source\PSoC5/CyFlash.c **** 
 412:Generated_Source\PSoC5/CyFlash.c ****     rowSize = (arrayId > CY_SPC_LAST_FLASH_ARRAYID) ? CYDEV_EEPROM_ROW_SIZE : CYDEV_FLS_ROW_SIZE;
 413:Generated_Source\PSoC5/CyFlash.c ****     status = CyWriteRowFull(arrayId, rowAddress, rowData, rowSize);
 414:Generated_Source\PSoC5/CyFlash.c **** 
 415:Generated_Source\PSoC5/CyFlash.c ****     return(status);
 416:Generated_Source\PSoC5/CyFlash.c **** }
 417:Generated_Source\PSoC5/CyFlash.c **** 
 418:Generated_Source\PSoC5/CyFlash.c **** 
 419:Generated_Source\PSoC5/CyFlash.c **** /*******************************************************************
 420:Generated_Source\PSoC5/CyFlash.c **** * If "Enable Error Correcting Code (ECC)" and "Store Configuration
 421:Generated_Source\PSoC5/CyFlash.c **** * Data in ECC" DWR options are disabled, ECC section is available
 422:Generated_Source\PSoC5/CyFlash.c **** * for user data.
 423:Generated_Source\PSoC5/CyFlash.c **** *******************************************************************/
 424:Generated_Source\PSoC5/CyFlash.c **** #if ((CYDEV_ECC_ENABLE == 0u) && (CYDEV_CONFIGURATION_ECC == 0u))
 425:Generated_Source\PSoC5/CyFlash.c **** 
 426:Generated_Source\PSoC5/CyFlash.c ****     /*******************************************************************************
 427:Generated_Source\PSoC5/CyFlash.c ****     * Function Name: CyWriteRowConfig
 428:Generated_Source\PSoC5/CyFlash.c ****     ****************************************************************************//**
 429:Generated_Source\PSoC5/CyFlash.c ****     *
 430:Generated_Source\PSoC5/CyFlash.c ****     *  Sends a command to the SPC to load and program a row of config data in the
 431:Generated_Source\PSoC5/CyFlash.c ****     *  Flash. This function is only valid for Flash array IDs (not for EEPROM).
 432:Generated_Source\PSoC5/CyFlash.c ****     *
 433:Generated_Source\PSoC5/CyFlash.c ****     *  \param arrayId:      ID of the array to write
 434:Generated_Source\PSoC5/CyFlash.c ****     *   The arrays in the part are sequential starting at the first ID for the
 435:Generated_Source\PSoC5/CyFlash.c ****     *   specific memory type. The array ID for the Flash memory lasts
 436:Generated_Source\PSoC5/CyFlash.c ****     *   from 0x00 to 0x3F.
 437:Generated_Source\PSoC5/CyFlash.c ****     *  \param rowAddress:   The address of the sector to erase.
 438:Generated_Source\PSoC5/CyFlash.c ****     *  \param rowECC:       The array of bytes to write.
 439:Generated_Source\PSoC5/CyFlash.c ****     *
 440:Generated_Source\PSoC5/CyFlash.c ****     * \return
 441:Generated_Source\PSoC5/CyFlash.c ****     *  status:
 442:Generated_Source\PSoC5/CyFlash.c ****     *   CYRET_SUCCESS if successful.
 443:Generated_Source\PSoC5/CyFlash.c ****     *   CYRET_LOCKED if the SPC is already in use.
 444:Generated_Source\PSoC5/CyFlash.c ****     *   CYRET_CANCELED if command not accepted
 445:Generated_Source\PSoC5/CyFlash.c ****     *   CYRET_UNKNOWN if there was an SPC error.
 446:Generated_Source\PSoC5/CyFlash.c ****     *
 447:Generated_Source\PSoC5/CyFlash.c ****     *******************************************************************************/
ARM GAS  C:\Users\ingan\AppData\Local\Temp\ccmdDJp3.s 			page 18


 448:Generated_Source\PSoC5/CyFlash.c ****     cystatus CyWriteRowConfig(uint8 arrayId, uint16 rowAddress, const uint8 * rowECC)\
 449:Generated_Source\PSoC5/CyFlash.c ****     
 450:Generated_Source\PSoC5/CyFlash.c ****     {
 451:Generated_Source\PSoC5/CyFlash.c ****         cystatus status;
 452:Generated_Source\PSoC5/CyFlash.c **** 
 453:Generated_Source\PSoC5/CyFlash.c ****         status = CyWriteRowFull(arrayId, rowAddress, rowECC, CYDEV_ECC_ROW_SIZE);
 454:Generated_Source\PSoC5/CyFlash.c **** 
 455:Generated_Source\PSoC5/CyFlash.c ****         return (status);
 456:Generated_Source\PSoC5/CyFlash.c ****     }
 457:Generated_Source\PSoC5/CyFlash.c **** 
 458:Generated_Source\PSoC5/CyFlash.c **** #endif  /* ((CYDEV_ECC_ENABLE == 0u) && (CYDEV_CONFIGURATION_ECC == 0u)) */
 459:Generated_Source\PSoC5/CyFlash.c **** 
 460:Generated_Source\PSoC5/CyFlash.c **** 
 461:Generated_Source\PSoC5/CyFlash.c **** 
 462:Generated_Source\PSoC5/CyFlash.c **** /*******************************************************************************
 463:Generated_Source\PSoC5/CyFlash.c **** * Function Name: CyWriteRowFull
 464:Generated_Source\PSoC5/CyFlash.c **** ****************************************************************************//**
 465:Generated_Source\PSoC5/CyFlash.c **** *  Sends a command to the SPC to load and program a row of data in the Flash.
 466:Generated_Source\PSoC5/CyFlash.c **** *  rowData array is expected to contain Flash and ECC data if needed.
 467:Generated_Source\PSoC5/CyFlash.c **** *
 468:Generated_Source\PSoC5/CyFlash.c **** *  \param arrayId:    FLASH or EEPROM array id.
 469:Generated_Source\PSoC5/CyFlash.c **** *  \param rowData:    Pointer to a row of data to write.
 470:Generated_Source\PSoC5/CyFlash.c **** *  \param rowNumber:  Zero based number of the row.
 471:Generated_Source\PSoC5/CyFlash.c **** *  \param rowSize:    Size of the row.
 472:Generated_Source\PSoC5/CyFlash.c **** *
 473:Generated_Source\PSoC5/CyFlash.c **** * \return
 474:Generated_Source\PSoC5/CyFlash.c **** *  CYRET_SUCCESS if successful.
 475:Generated_Source\PSoC5/CyFlash.c **** *  CYRET_LOCKED if the SPC is already in use.
 476:Generated_Source\PSoC5/CyFlash.c **** *  CYRET_CANCELED if command not accepted
 477:Generated_Source\PSoC5/CyFlash.c **** *  CYRET_UNKNOWN if there was an SPC error.
 478:Generated_Source\PSoC5/CyFlash.c **** *
 479:Generated_Source\PSoC5/CyFlash.c **** *******************************************************************************/
 480:Generated_Source\PSoC5/CyFlash.c **** cystatus CyWriteRowFull(uint8 arrayId, uint16 rowNumber, const uint8* rowData, uint16 rowSize) \
 481:Generated_Source\PSoC5/CyFlash.c ****         
 482:Generated_Source\PSoC5/CyFlash.c **** {
 498              		.loc 1 482 0
 499              		.cfi_startproc
 500              		@ args = 0, pretend = 0, frame = 0
 501              		@ frame_needed = 0, uses_anonymous_args = 0
 502              	.LVL50:
 503 0000 F8B5     		push	{r3, r4, r5, r6, r7, lr}
 504              		.cfi_def_cfa_offset 24
 505              		.cfi_offset 3, -24
 506              		.cfi_offset 4, -20
 507              		.cfi_offset 5, -16
 508              		.cfi_offset 6, -12
 509              		.cfi_offset 7, -8
 510              		.cfi_offset 14, -4
 511              	.LVL51:
 483:Generated_Source\PSoC5/CyFlash.c ****     cystatus status = CYRET_SUCCESS;
 484:Generated_Source\PSoC5/CyFlash.c **** 
 485:Generated_Source\PSoC5/CyFlash.c ****     if((arrayId <=  CY_SPC_LAST_FLASH_ARRAYID) && (arrayId > (CY_FLASH_NUMBER_ARRAYS  + CY_SPC_FIRS
 486:Generated_Source\PSoC5/CyFlash.c ****     {
 487:Generated_Source\PSoC5/CyFlash.c ****         status = CYRET_BAD_PARAM;
 488:Generated_Source\PSoC5/CyFlash.c ****     }
 489:Generated_Source\PSoC5/CyFlash.c **** 
 490:Generated_Source\PSoC5/CyFlash.c ****     if(arrayId > CY_SPC_LAST_EE_ARRAYID)
ARM GAS  C:\Users\ingan\AppData\Local\Temp\ccmdDJp3.s 			page 19


 512              		.loc 1 490 0
 513 0002 10F0800F 		tst	r0, #128
 514 0006 06D1     		bne	.L71
 483:Generated_Source\PSoC5/CyFlash.c ****     cystatus status = CYRET_SUCCESS;
 515              		.loc 1 483 0
 516 0008 441F     		subs	r4, r0, #5
 517 000a E4B2     		uxtb	r4, r4
 518 000c 3A2C     		cmp	r4, #58
 519 000e 8CBF     		ite	hi
 520 0010 0024     		movhi	r4, #0
 521 0012 0124     		movls	r4, #1
 522 0014 00E0     		b	.L58
 523              	.L71:
 491:Generated_Source\PSoC5/CyFlash.c ****     {
 492:Generated_Source\PSoC5/CyFlash.c ****         status = CYRET_BAD_PARAM;
 524              		.loc 1 492 0
 525 0016 0124     		movs	r4, #1
 526              	.L58:
 527              	.LVL52:
 493:Generated_Source\PSoC5/CyFlash.c ****     }
 494:Generated_Source\PSoC5/CyFlash.c **** 
 495:Generated_Source\PSoC5/CyFlash.c ****     if((arrayId >= CY_SPC_FIRST_EE_ARRAYID) && (arrayId > (CY_FLASH_EEPROM_NUMBER_ARRAYS + CY_SPC_F
 496:Generated_Source\PSoC5/CyFlash.c ****     {
 497:Generated_Source\PSoC5/CyFlash.c ****         status = CYRET_BAD_PARAM;
 528              		.loc 1 497 0
 529 0018 4228     		cmp	r0, #66
 530 001a 28BF     		it	cs
 531 001c 0124     		movcs	r4, #1
 532              	.LVL53:
 498:Generated_Source\PSoC5/CyFlash.c ****     }
 499:Generated_Source\PSoC5/CyFlash.c **** 
 500:Generated_Source\PSoC5/CyFlash.c ****     if(arrayId <=  CY_SPC_LAST_FLASH_ARRAYID)
 533              		.loc 1 500 0
 534 001e 3F28     		cmp	r0, #63
 535 0020 04D8     		bhi	.L60
 501:Generated_Source\PSoC5/CyFlash.c ****     {
 502:Generated_Source\PSoC5/CyFlash.c ****         /* Flash */
 503:Generated_Source\PSoC5/CyFlash.c ****         if(rowNumber > (CY_FLASH_NUMBER_ROWS/CY_FLASH_NUMBER_ARRAYS))
 504:Generated_Source\PSoC5/CyFlash.c ****         {
 505:Generated_Source\PSoC5/CyFlash.c ****             status = CYRET_BAD_PARAM;
 536              		.loc 1 505 0
 537 0022 B1F5807F 		cmp	r1, #256
 538 0026 88BF     		it	hi
 539 0028 0124     		movhi	r4, #1
 540              	.LVL54:
 541 002a 05E0     		b	.L61
 542              	.LVL55:
 543              	.L60:
 506:Generated_Source\PSoC5/CyFlash.c ****         }
 507:Generated_Source\PSoC5/CyFlash.c ****     }
 508:Generated_Source\PSoC5/CyFlash.c ****     else
 509:Generated_Source\PSoC5/CyFlash.c ****     {
 510:Generated_Source\PSoC5/CyFlash.c ****         /* EEPROM */
 511:Generated_Source\PSoC5/CyFlash.c ****         if(rowNumber > (CY_EEPROM_NUMBER_ROWS/CY_FLASH_EEPROM_NUMBER_ARRAYS))
 512:Generated_Source\PSoC5/CyFlash.c ****         {
 513:Generated_Source\PSoC5/CyFlash.c ****             status = CYRET_BAD_PARAM;
 544              		.loc 1 513 0
ARM GAS  C:\Users\ingan\AppData\Local\Temp\ccmdDJp3.s 			page 20


 545 002c 8129     		cmp	r1, #129
 546 002e 28BF     		it	cs
 547 0030 0124     		movcs	r4, #1
 548              	.LVL56:
 514:Generated_Source\PSoC5/CyFlash.c ****         }
 515:Generated_Source\PSoC5/CyFlash.c **** 
 516:Generated_Source\PSoC5/CyFlash.c ****         if(CY_EEPROM_SIZEOF_ROW != rowSize)
 517:Generated_Source\PSoC5/CyFlash.c ****         {
 518:Generated_Source\PSoC5/CyFlash.c ****             status = CYRET_BAD_PARAM;
 549              		.loc 1 518 0
 550 0032 102B     		cmp	r3, #16
 551 0034 18BF     		it	ne
 552 0036 0124     		movne	r4, #1
 553              	.LVL57:
 554              	.L61:
 519:Generated_Source\PSoC5/CyFlash.c ****         }
 520:Generated_Source\PSoC5/CyFlash.c ****     }
 521:Generated_Source\PSoC5/CyFlash.c **** 
 522:Generated_Source\PSoC5/CyFlash.c ****     if(rowData == NULL)
 555              		.loc 1 522 0
 556 0038 002A     		cmp	r2, #0
 557 003a 4FD0     		beq	.L72
 523:Generated_Source\PSoC5/CyFlash.c ****     {
 524:Generated_Source\PSoC5/CyFlash.c ****         status = CYRET_BAD_PARAM;
 525:Generated_Source\PSoC5/CyFlash.c ****     }
 526:Generated_Source\PSoC5/CyFlash.c **** 
 527:Generated_Source\PSoC5/CyFlash.c **** 
 528:Generated_Source\PSoC5/CyFlash.c ****     if(status == CYRET_SUCCESS)
 558              		.loc 1 528 0
 559 003c 002C     		cmp	r4, #0
 560 003e 5CD1     		bne	.L76
 561 0040 1F46     		mov	r7, r3
 562 0042 1446     		mov	r4, r2
 563              	.LVL58:
 564 0044 0E46     		mov	r6, r1
 565 0046 0546     		mov	r5, r0
 529:Generated_Source\PSoC5/CyFlash.c ****     {
 530:Generated_Source\PSoC5/CyFlash.c ****         if(CySpcLock() == CYRET_SUCCESS)
 566              		.loc 1 530 0
 567 0048 FFF7FEFF 		bl	CySpcLock
 568              	.LVL59:
 569 004c 0028     		cmp	r0, #0
 570 004e 47D1     		bne	.L73
 531:Generated_Source\PSoC5/CyFlash.c ****         {
 532:Generated_Source\PSoC5/CyFlash.c ****             /* Load row data into SPC internal latch */
 533:Generated_Source\PSoC5/CyFlash.c ****             status = CySpcLoadRowFull(arrayId, rowNumber, rowData, rowSize);
 571              		.loc 1 533 0
 572 0050 3B46     		mov	r3, r7
 573 0052 2246     		mov	r2, r4
 574 0054 3146     		mov	r1, r6
 575 0056 2846     		mov	r0, r5
 576 0058 FFF7FEFF 		bl	CySpcLoadRowFull
 577              	.LVL60:
 578 005c 0446     		mov	r4, r0
 579              	.LVL61:
 534:Generated_Source\PSoC5/CyFlash.c **** 
 535:Generated_Source\PSoC5/CyFlash.c ****             if(CYRET_STARTED == status)
ARM GAS  C:\Users\ingan\AppData\Local\Temp\ccmdDJp3.s 			page 21


 580              		.loc 1 535 0
 581 005e 0728     		cmp	r0, #7
 582 0060 39D1     		bne	.L64
 536:Generated_Source\PSoC5/CyFlash.c ****             {
 537:Generated_Source\PSoC5/CyFlash.c ****                 while(CY_SPC_BUSY)
 583              		.loc 1 537 0
 584 0062 274B     		ldr	r3, .L82
 585 0064 1B78     		ldrb	r3, [r3]	@ zero_extendqisi2
 586 0066 13F0020F 		tst	r3, #2
 587 006a 08D1     		bne	.L65
 538:Generated_Source\PSoC5/CyFlash.c ****                 {
 539:Generated_Source\PSoC5/CyFlash.c ****                     /* Wait for SPC to finish and get SPC status */
 540:Generated_Source\PSoC5/CyFlash.c ****                     CyDelayUs(1u);
 588              		.loc 1 540 0
 589 006c 0127     		movs	r7, #1
 537:Generated_Source\PSoC5/CyFlash.c ****                 {
 590              		.loc 1 537 0
 591 006e 244C     		ldr	r4, .L82
 592              	.LVL62:
 593              	.L78:
 594              		.loc 1 540 0
 595 0070 3846     		mov	r0, r7
 596 0072 FFF7FEFF 		bl	CyDelayUs
 597              	.LVL63:
 537:Generated_Source\PSoC5/CyFlash.c ****                 {
 598              		.loc 1 537 0
 599 0076 2378     		ldrb	r3, [r4]	@ zero_extendqisi2
 600 0078 13F0020F 		tst	r3, #2
 601 007c F8D0     		beq	.L78
 602              	.L65:
 541:Generated_Source\PSoC5/CyFlash.c ****                 }
 542:Generated_Source\PSoC5/CyFlash.c **** 
 543:Generated_Source\PSoC5/CyFlash.c ****                 /* Hide SPC status */
 544:Generated_Source\PSoC5/CyFlash.c ****                 if(CY_SPC_STATUS_SUCCESS == CY_SPC_READ_STATUS)
 603              		.loc 1 544 0
 604 007e 204B     		ldr	r3, .L82
 605 0080 1B78     		ldrb	r3, [r3]	@ zero_extendqisi2
 606 0082 13F0020F 		tst	r3, #2
 607 0086 21D0     		beq	.L74
 608              		.loc 1 544 0 is_stmt 0 discriminator 1
 609 0088 1D4B     		ldr	r3, .L82
 610 008a 1B78     		ldrb	r3, [r3]	@ zero_extendqisi2
 611 008c 9B08     		lsrs	r3, r3, #2
 612 008e 29D0     		beq	.L67
 545:Generated_Source\PSoC5/CyFlash.c ****                 {
 546:Generated_Source\PSoC5/CyFlash.c ****                     status = CYRET_SUCCESS;
 547:Generated_Source\PSoC5/CyFlash.c ****                 }
 548:Generated_Source\PSoC5/CyFlash.c ****                 else
 549:Generated_Source\PSoC5/CyFlash.c ****                 {
 550:Generated_Source\PSoC5/CyFlash.c ****                     status = CYRET_UNKNOWN;
 613              		.loc 1 550 0 is_stmt 1
 614 0090 4FF0FF34 		mov	r4, #-1
 615 0094 1FE0     		b	.L64
 616              	.LVL64:
 617              	.L70:
 551:Generated_Source\PSoC5/CyFlash.c ****                 }
 552:Generated_Source\PSoC5/CyFlash.c **** 
ARM GAS  C:\Users\ingan\AppData\Local\Temp\ccmdDJp3.s 			page 22


 553:Generated_Source\PSoC5/CyFlash.c ****                 if(CYRET_SUCCESS == status)
 554:Generated_Source\PSoC5/CyFlash.c ****                 {
 555:Generated_Source\PSoC5/CyFlash.c ****                     /* Erase and program flash with data from SPC interval latch */
 556:Generated_Source\PSoC5/CyFlash.c ****                     status = CySpcWriteRow(arrayId, rowNumber, dieTemperature[0u], dieTemperature[1
 557:Generated_Source\PSoC5/CyFlash.c **** 
 558:Generated_Source\PSoC5/CyFlash.c ****                     if(CYRET_STARTED == status)
 559:Generated_Source\PSoC5/CyFlash.c ****                     {
 560:Generated_Source\PSoC5/CyFlash.c ****                         while(CY_SPC_BUSY)
 618              		.loc 1 560 0
 619 0096 1A4B     		ldr	r3, .L82
 620 0098 1B78     		ldrb	r3, [r3]	@ zero_extendqisi2
 621 009a 13F0020F 		tst	r3, #2
 622 009e 08D1     		bne	.L68
 561:Generated_Source\PSoC5/CyFlash.c ****                         {
 562:Generated_Source\PSoC5/CyFlash.c ****                             /* Wait for SPC to finish and get SPC status */
 563:Generated_Source\PSoC5/CyFlash.c ****                             CyDelayUs(1u);
 623              		.loc 1 563 0
 624 00a0 0125     		movs	r5, #1
 560:Generated_Source\PSoC5/CyFlash.c ****                         {
 625              		.loc 1 560 0
 626 00a2 174C     		ldr	r4, .L82
 627              	.LVL65:
 628              	.L77:
 629              		.loc 1 563 0
 630 00a4 2846     		mov	r0, r5
 631 00a6 FFF7FEFF 		bl	CyDelayUs
 632              	.LVL66:
 560:Generated_Source\PSoC5/CyFlash.c ****                         {
 633              		.loc 1 560 0
 634 00aa 2378     		ldrb	r3, [r4]	@ zero_extendqisi2
 635 00ac 13F0020F 		tst	r3, #2
 636 00b0 F8D0     		beq	.L77
 637              	.L68:
 564:Generated_Source\PSoC5/CyFlash.c ****                         }
 565:Generated_Source\PSoC5/CyFlash.c **** 
 566:Generated_Source\PSoC5/CyFlash.c ****                         /* Hide SPC status */
 567:Generated_Source\PSoC5/CyFlash.c ****                         if(CY_SPC_STATUS_SUCCESS == CY_SPC_READ_STATUS)
 638              		.loc 1 567 0
 639 00b2 134B     		ldr	r3, .L82
 640 00b4 1B78     		ldrb	r3, [r3]	@ zero_extendqisi2
 641 00b6 13F0020F 		tst	r3, #2
 642 00ba 0AD0     		beq	.L75
 643              		.loc 1 567 0 is_stmt 0 discriminator 1
 644 00bc 104B     		ldr	r3, .L82
 645 00be 1B78     		ldrb	r3, [r3]	@ zero_extendqisi2
 646 00c0 9B08     		lsrs	r3, r3, #2
 647 00c2 14BF     		ite	ne
 648 00c4 4FF0FF34 		movne	r4, #-1
 649 00c8 0024     		moveq	r4, #0
 650 00ca 04E0     		b	.L64
 651              	.L74:
 550:Generated_Source\PSoC5/CyFlash.c ****                 }
 652              		.loc 1 550 0 is_stmt 1
 653 00cc 4FF0FF34 		mov	r4, #-1
 654 00d0 01E0     		b	.L64
 655              	.L75:
 568:Generated_Source\PSoC5/CyFlash.c ****                         {
ARM GAS  C:\Users\ingan\AppData\Local\Temp\ccmdDJp3.s 			page 23


 569:Generated_Source\PSoC5/CyFlash.c ****                             status = CYRET_SUCCESS;
 570:Generated_Source\PSoC5/CyFlash.c ****                         }
 571:Generated_Source\PSoC5/CyFlash.c ****                         else
 572:Generated_Source\PSoC5/CyFlash.c ****                         {
 573:Generated_Source\PSoC5/CyFlash.c ****                             status = CYRET_UNKNOWN;
 656              		.loc 1 573 0
 657 00d2 4FF0FF34 		mov	r4, #-1
 658              	.L64:
 659              	.LVL67:
 574:Generated_Source\PSoC5/CyFlash.c ****                         }
 575:Generated_Source\PSoC5/CyFlash.c ****                     }
 576:Generated_Source\PSoC5/CyFlash.c ****                 }
 577:Generated_Source\PSoC5/CyFlash.c ****             }
 578:Generated_Source\PSoC5/CyFlash.c ****             CySpcUnlock();
 660              		.loc 1 578 0
 661 00d6 FFF7FEFF 		bl	CySpcUnlock
 662              	.LVL68:
 663 00da 0EE0     		b	.L76
 664              	.LVL69:
 665              	.L72:
 524:Generated_Source\PSoC5/CyFlash.c ****     }
 666              		.loc 1 524 0
 667 00dc 0124     		movs	r4, #1
 668              	.LVL70:
 669 00de 0CE0     		b	.L76
 670              	.LVL71:
 671              	.L73:
 579:Generated_Source\PSoC5/CyFlash.c ****         }   /* if(CySpcLock() == CYRET_SUCCESS) */
 580:Generated_Source\PSoC5/CyFlash.c ****         else
 581:Generated_Source\PSoC5/CyFlash.c ****         {
 582:Generated_Source\PSoC5/CyFlash.c ****             status = CYRET_LOCKED;
 672              		.loc 1 582 0
 673 00e0 0424     		movs	r4, #4
 674              	.LVL72:
 583:Generated_Source\PSoC5/CyFlash.c ****         }
 584:Generated_Source\PSoC5/CyFlash.c ****     }
 585:Generated_Source\PSoC5/CyFlash.c **** 
 586:Generated_Source\PSoC5/CyFlash.c ****     return(status);
 675              		.loc 1 586 0
 676 00e2 0AE0     		b	.L76
 677              	.LVL73:
 678              	.L67:
 556:Generated_Source\PSoC5/CyFlash.c **** 
 679              		.loc 1 556 0
 680 00e4 074A     		ldr	r2, .L82+4
 681 00e6 5378     		ldrb	r3, [r2, #1]	@ zero_extendqisi2
 682 00e8 1278     		ldrb	r2, [r2]	@ zero_extendqisi2
 683 00ea 3146     		mov	r1, r6
 684 00ec 2846     		mov	r0, r5
 685 00ee FFF7FEFF 		bl	CySpcWriteRow
 686              	.LVL74:
 687 00f2 0446     		mov	r4, r0
 688              	.LVL75:
 558:Generated_Source\PSoC5/CyFlash.c ****                     {
 689              		.loc 1 558 0
 690 00f4 0728     		cmp	r0, #7
 691 00f6 EED1     		bne	.L64
ARM GAS  C:\Users\ingan\AppData\Local\Temp\ccmdDJp3.s 			page 24


 692 00f8 CDE7     		b	.L70
 693              	.LVL76:
 694              	.L76:
 587:Generated_Source\PSoC5/CyFlash.c **** }
 695              		.loc 1 587 0
 696 00fa 2046     		mov	r0, r4
 697 00fc F8BD     		pop	{r3, r4, r5, r6, r7, pc}
 698              	.L83:
 699 00fe 00BF     		.align	2
 700              	.L82:
 701 0100 22470040 		.word	1073760034
 702 0104 00000000 		.word	dieTemperature
 703              		.cfi_endproc
 704              	.LFE8:
 705              		.size	CyWriteRowFull, .-CyWriteRowFull
 706              		.section	.text.CyWriteRowData,"ax",%progbits
 707              		.align	2
 708              		.global	CyWriteRowData
 709              		.thumb
 710              		.thumb_func
 711              		.type	CyWriteRowData, %function
 712              	CyWriteRowData:
 713              	.LFB7:
 408:Generated_Source\PSoC5/CyFlash.c ****     uint16 rowSize;
 714              		.loc 1 408 0
 715              		.cfi_startproc
 716              		@ args = 0, pretend = 0, frame = 0
 717              		@ frame_needed = 0, uses_anonymous_args = 0
 718              	.LVL77:
 719 0000 08B5     		push	{r3, lr}
 720              		.cfi_def_cfa_offset 8
 721              		.cfi_offset 3, -8
 722              		.cfi_offset 14, -4
 412:Generated_Source\PSoC5/CyFlash.c ****     status = CyWriteRowFull(arrayId, rowAddress, rowData, rowSize);
 723              		.loc 1 412 0
 724 0002 3F28     		cmp	r0, #63
 725              	.LVL78:
 413:Generated_Source\PSoC5/CyFlash.c **** 
 726              		.loc 1 413 0
 727 0004 8CBF     		ite	hi
 728 0006 1023     		movhi	r3, #16
 729 0008 4FF48073 		movls	r3, #256
 730 000c FFF7FEFF 		bl	CyWriteRowFull
 731              	.LVL79:
 416:Generated_Source\PSoC5/CyFlash.c **** 
 732              		.loc 1 416 0
 733 0010 08BD     		pop	{r3, pc}
 734              		.cfi_endproc
 735              	.LFE7:
 736              		.size	CyWriteRowData, .-CyWriteRowData
 737 0012 00BF     		.section	.text.CyFlash_SetWaitCycles,"ax",%progbits
 738              		.align	2
 739              		.global	CyFlash_SetWaitCycles
 740              		.thumb
 741              		.thumb_func
 742              		.type	CyFlash_SetWaitCycles, %function
 743              	CyFlash_SetWaitCycles:
ARM GAS  C:\Users\ingan\AppData\Local\Temp\ccmdDJp3.s 			page 25


 744              	.LFB9:
 588:Generated_Source\PSoC5/CyFlash.c **** 
 589:Generated_Source\PSoC5/CyFlash.c **** 
 590:Generated_Source\PSoC5/CyFlash.c **** /*******************************************************************************
 591:Generated_Source\PSoC5/CyFlash.c **** * Function Name: CyFlash_SetWaitCycles
 592:Generated_Source\PSoC5/CyFlash.c **** ****************************************************************************//**
 593:Generated_Source\PSoC5/CyFlash.c **** *
 594:Generated_Source\PSoC5/CyFlash.c **** *  Sets the number of clock cycles the cache will wait before it samples data
 595:Generated_Source\PSoC5/CyFlash.c **** *  coming back from the Flash. This function must be called before increasing
 596:Generated_Source\PSoC5/CyFlash.c **** *  the CPU clock frequency. It can optionally be called after lowering the CPU
 597:Generated_Source\PSoC5/CyFlash.c **** *  clock frequency in order to improve the CPU performance.
 598:Generated_Source\PSoC5/CyFlash.c **** *
 599:Generated_Source\PSoC5/CyFlash.c **** *  \param uint8 freq:
 600:Generated_Source\PSoC5/CyFlash.c **** *   Frequency of operation in Megahertz.
 601:Generated_Source\PSoC5/CyFlash.c **** *
 602:Generated_Source\PSoC5/CyFlash.c **** *******************************************************************************/
 603:Generated_Source\PSoC5/CyFlash.c **** void CyFlash_SetWaitCycles(uint8 freq) 
 604:Generated_Source\PSoC5/CyFlash.c **** {
 745              		.loc 1 604 0
 746              		.cfi_startproc
 747              		@ args = 0, pretend = 0, frame = 0
 748              		@ frame_needed = 0, uses_anonymous_args = 0
 749              	.LVL80:
 750 0000 10B5     		push	{r4, lr}
 751              		.cfi_def_cfa_offset 8
 752              		.cfi_offset 4, -8
 753              		.cfi_offset 14, -4
 754 0002 0446     		mov	r4, r0
 605:Generated_Source\PSoC5/CyFlash.c ****     uint8 interruptState;
 606:Generated_Source\PSoC5/CyFlash.c **** 
 607:Generated_Source\PSoC5/CyFlash.c ****     /* Save current global interrupt enable and disable it */
 608:Generated_Source\PSoC5/CyFlash.c ****     interruptState = CyEnterCriticalSection();
 755              		.loc 1 608 0
 756 0004 FFF7FEFF 		bl	CyEnterCriticalSection
 757              	.LVL81:
 609:Generated_Source\PSoC5/CyFlash.c **** 
 610:Generated_Source\PSoC5/CyFlash.c ****     /***************************************************************************
 611:Generated_Source\PSoC5/CyFlash.c ****     * The number of clock cycles the cache will wait before it samples data
 612:Generated_Source\PSoC5/CyFlash.c ****     * coming back from the Flash must be equal or greater to to the CPU frequency
 613:Generated_Source\PSoC5/CyFlash.c ****     * outlined in clock cycles.
 614:Generated_Source\PSoC5/CyFlash.c ****     ***************************************************************************/
 615:Generated_Source\PSoC5/CyFlash.c **** 
 616:Generated_Source\PSoC5/CyFlash.c ****     if (freq < CY_FLASH_CACHE_WS_1_FREQ_MAX)
 758              		.loc 1 616 0
 759 0008 0F2C     		cmp	r4, #15
 760 000a 07D8     		bhi	.L89
 617:Generated_Source\PSoC5/CyFlash.c ****     {
 618:Generated_Source\PSoC5/CyFlash.c ****         CY_FLASH_CONTROL_REG = (CY_FLASH_CONTROL_REG & (uint8)(~CY_FLASH_CACHE_WS_VALUE_MASK)) |
 761              		.loc 1 618 0
 762 000c 174A     		ldr	r2, .L95
 763 000e 1378     		ldrb	r3, [r2]	@ zero_extendqisi2
 764 0010 03F01F03 		and	r3, r3, #31
 765 0014 43F04003 		orr	r3, r3, #64
 766 0018 1370     		strb	r3, [r2]
 767 001a 24E0     		b	.L90
 768              	.L89:
 619:Generated_Source\PSoC5/CyFlash.c ****                                     CY_FLASH_CACHE_WS_1_VALUE_MASK;
ARM GAS  C:\Users\ingan\AppData\Local\Temp\ccmdDJp3.s 			page 26


 620:Generated_Source\PSoC5/CyFlash.c ****     }
 621:Generated_Source\PSoC5/CyFlash.c ****     else if (freq < CY_FLASH_CACHE_WS_2_FREQ_MAX)
 769              		.loc 1 621 0
 770 001c 202C     		cmp	r4, #32
 771 001e 07D8     		bhi	.L91
 622:Generated_Source\PSoC5/CyFlash.c ****     {
 623:Generated_Source\PSoC5/CyFlash.c ****         CY_FLASH_CONTROL_REG = (CY_FLASH_CONTROL_REG & (uint8)(~CY_FLASH_CACHE_WS_VALUE_MASK)) |
 772              		.loc 1 623 0
 773 0020 124A     		ldr	r2, .L95
 774 0022 1378     		ldrb	r3, [r2]	@ zero_extendqisi2
 775 0024 03F01F03 		and	r3, r3, #31
 776 0028 43F08003 		orr	r3, r3, #128
 777 002c 1370     		strb	r3, [r2]
 778 002e 1AE0     		b	.L90
 779              	.L91:
 624:Generated_Source\PSoC5/CyFlash.c ****                                     CY_FLASH_CACHE_WS_2_VALUE_MASK;
 625:Generated_Source\PSoC5/CyFlash.c ****     }
 626:Generated_Source\PSoC5/CyFlash.c ****     else if (freq < CY_FLASH_CACHE_WS_3_FREQ_MAX)
 780              		.loc 1 626 0
 781 0030 312C     		cmp	r4, #49
 782 0032 07D8     		bhi	.L92
 627:Generated_Source\PSoC5/CyFlash.c ****     {
 628:Generated_Source\PSoC5/CyFlash.c ****         CY_FLASH_CONTROL_REG = (CY_FLASH_CONTROL_REG & (uint8)(~CY_FLASH_CACHE_WS_VALUE_MASK)) |
 783              		.loc 1 628 0
 784 0034 0D4A     		ldr	r2, .L95
 785 0036 1378     		ldrb	r3, [r2]	@ zero_extendqisi2
 786 0038 03F01F03 		and	r3, r3, #31
 787 003c 43F0C003 		orr	r3, r3, #192
 788 0040 1370     		strb	r3, [r2]
 789 0042 10E0     		b	.L90
 790              	.L92:
 629:Generated_Source\PSoC5/CyFlash.c ****                                     CY_FLASH_CACHE_WS_3_VALUE_MASK;
 630:Generated_Source\PSoC5/CyFlash.c ****     }
 631:Generated_Source\PSoC5/CyFlash.c **** #if (CY_PSOC5)
 632:Generated_Source\PSoC5/CyFlash.c ****     else if (freq < CY_FLASH_CACHE_WS_4_FREQ_MAX)
 791              		.loc 1 632 0
 792 0044 422C     		cmp	r4, #66
 793 0046 05D8     		bhi	.L93
 633:Generated_Source\PSoC5/CyFlash.c ****     {
 634:Generated_Source\PSoC5/CyFlash.c ****         CY_FLASH_CONTROL_REG = (CY_FLASH_CONTROL_REG & (uint8)(~CY_FLASH_CACHE_WS_VALUE_MASK)) |
 794              		.loc 1 634 0
 795 0048 084A     		ldr	r2, .L95
 796 004a 1378     		ldrb	r3, [r2]	@ zero_extendqisi2
 797 004c 03F01F03 		and	r3, r3, #31
 798 0050 1370     		strb	r3, [r2]
 799 0052 08E0     		b	.L90
 800              	.L93:
 635:Generated_Source\PSoC5/CyFlash.c ****                                     CY_FLASH_CACHE_WS_4_VALUE_MASK;
 636:Generated_Source\PSoC5/CyFlash.c ****     }
 637:Generated_Source\PSoC5/CyFlash.c ****     else if (freq <= CY_FLASH_CACHE_WS_5_FREQ_MAX)
 801              		.loc 1 637 0
 802 0054 532C     		cmp	r4, #83
 803 0056 06D8     		bhi	.L90
 638:Generated_Source\PSoC5/CyFlash.c ****     {
 639:Generated_Source\PSoC5/CyFlash.c ****         CY_FLASH_CONTROL_REG = (CY_FLASH_CONTROL_REG & (uint8)(~CY_FLASH_CACHE_WS_VALUE_MASK)) |
 804              		.loc 1 639 0
 805 0058 044A     		ldr	r2, .L95
ARM GAS  C:\Users\ingan\AppData\Local\Temp\ccmdDJp3.s 			page 27


 806 005a 1378     		ldrb	r3, [r2]	@ zero_extendqisi2
 807 005c 03F01F03 		and	r3, r3, #31
 808 0060 43F02003 		orr	r3, r3, #32
 809 0064 1370     		strb	r3, [r2]
 810              	.L90:
 640:Generated_Source\PSoC5/CyFlash.c ****                                     CY_FLASH_CACHE_WS_5_VALUE_MASK;
 641:Generated_Source\PSoC5/CyFlash.c ****     }
 642:Generated_Source\PSoC5/CyFlash.c **** #endif  /* (CY_PSOC5) */
 643:Generated_Source\PSoC5/CyFlash.c ****     else
 644:Generated_Source\PSoC5/CyFlash.c ****     {
 645:Generated_Source\PSoC5/CyFlash.c ****         /* Halt CPU in debug mode if frequency is invalid */
 646:Generated_Source\PSoC5/CyFlash.c ****         CYASSERT(0u != 0u);
 647:Generated_Source\PSoC5/CyFlash.c ****     }
 648:Generated_Source\PSoC5/CyFlash.c **** 
 649:Generated_Source\PSoC5/CyFlash.c ****     /* Restore global interrupt enable state */
 650:Generated_Source\PSoC5/CyFlash.c ****     CyExitCriticalSection(interruptState);
 811              		.loc 1 650 0
 812 0066 FFF7FEFF 		bl	CyExitCriticalSection
 813              	.LVL82:
 814 006a 10BD     		pop	{r4, pc}
 815              	.L96:
 816              		.align	2
 817              	.L95:
 818 006c 00480040 		.word	1073760256
 819              		.cfi_endproc
 820              	.LFE9:
 821              		.size	CyFlash_SetWaitCycles, .-CyFlash_SetWaitCycles
 822              		.section	.text.CyEEPROM_Start,"ax",%progbits
 823              		.align	2
 824              		.global	CyEEPROM_Start
 825              		.thumb
 826              		.thumb_func
 827              		.type	CyEEPROM_Start, %function
 828              	CyEEPROM_Start:
 829              	.LFB10:
 651:Generated_Source\PSoC5/CyFlash.c **** }
 652:Generated_Source\PSoC5/CyFlash.c **** 
 653:Generated_Source\PSoC5/CyFlash.c **** 
 654:Generated_Source\PSoC5/CyFlash.c **** /*******************************************************************************
 655:Generated_Source\PSoC5/CyFlash.c **** * Function Name: CyEEPROM_Start
 656:Generated_Source\PSoC5/CyFlash.c **** ****************************************************************************//**
 657:Generated_Source\PSoC5/CyFlash.c **** *
 658:Generated_Source\PSoC5/CyFlash.c **** *  Enable the EEPROM.
 659:Generated_Source\PSoC5/CyFlash.c **** *
 660:Generated_Source\PSoC5/CyFlash.c **** *******************************************************************************/
 661:Generated_Source\PSoC5/CyFlash.c **** void CyEEPROM_Start(void) 
 662:Generated_Source\PSoC5/CyFlash.c **** {
 830              		.loc 1 662 0
 831              		.cfi_startproc
 832              		@ args = 0, pretend = 0, frame = 0
 833              		@ frame_needed = 0, uses_anonymous_args = 0
 834 0000 08B5     		push	{r3, lr}
 835              		.cfi_def_cfa_offset 8
 836              		.cfi_offset 3, -8
 837              		.cfi_offset 14, -4
 663:Generated_Source\PSoC5/CyFlash.c ****     uint8 interruptState;
 664:Generated_Source\PSoC5/CyFlash.c **** 
ARM GAS  C:\Users\ingan\AppData\Local\Temp\ccmdDJp3.s 			page 28


 665:Generated_Source\PSoC5/CyFlash.c ****     interruptState = CyEnterCriticalSection();
 838              		.loc 1 665 0
 839 0002 FFF7FEFF 		bl	CyEnterCriticalSection
 840              	.LVL83:
 666:Generated_Source\PSoC5/CyFlash.c **** 
 667:Generated_Source\PSoC5/CyFlash.c **** 
 668:Generated_Source\PSoC5/CyFlash.c ****     /***************************************************************************
 669:Generated_Source\PSoC5/CyFlash.c ****     * Enable SPC clock. This also internally enables the 36MHz IMO, since this
 670:Generated_Source\PSoC5/CyFlash.c ****     * is required for the SPC to function.
 671:Generated_Source\PSoC5/CyFlash.c ****     ***************************************************************************/
 672:Generated_Source\PSoC5/CyFlash.c ****     CY_FLASH_PM_ACT_CFG0_REG    |= CY_FLASH_PM_ACT_CFG0_EN_CLK_SPC;
 841              		.loc 1 672 0
 842 0006 104A     		ldr	r2, .L101
 843 0008 1378     		ldrb	r3, [r2]	@ zero_extendqisi2
 844 000a 43F00803 		orr	r3, r3, #8
 845 000e 1370     		strb	r3, [r2]
 673:Generated_Source\PSoC5/CyFlash.c ****     CY_FLASH_PM_ALTACT_CFG0_REG |= CY_FLASH_PM_ALTACT_CFG0_EN_CLK_SPC;
 846              		.loc 1 673 0
 847 0010 1032     		adds	r2, r2, #16
 848 0012 1378     		ldrb	r3, [r2]	@ zero_extendqisi2
 849 0014 43F00803 		orr	r3, r3, #8
 850 0018 1370     		strb	r3, [r2]
 674:Generated_Source\PSoC5/CyFlash.c **** 
 675:Generated_Source\PSoC5/CyFlash.c **** 
 676:Generated_Source\PSoC5/CyFlash.c ****     /***************************************************************************
 677:Generated_Source\PSoC5/CyFlash.c ****     * The wake count defines the number of Bus Clock cycles it takes for the
 678:Generated_Source\PSoC5/CyFlash.c ****     * flash or EEPROM to wake up from a low power mode independent of the chip
 679:Generated_Source\PSoC5/CyFlash.c ****     * power mode. Wake up time for these blocks is 5 us.
 680:Generated_Source\PSoC5/CyFlash.c ****     * The granularity of this register is 2 Bus Clock cycles, so a value of 0x1E
 681:Generated_Source\PSoC5/CyFlash.c ****     * (30d) defines the wake up time as 60 cycles of the Bus Clock.
 682:Generated_Source\PSoC5/CyFlash.c ****     * This register needs to be written with a value dependent on the Bus Clock
 683:Generated_Source\PSoC5/CyFlash.c ****     * frequency so that the duration of the cycles is equal to or greater than
 684:Generated_Source\PSoC5/CyFlash.c ****     * the 5 us delay required.
 685:Generated_Source\PSoC5/CyFlash.c ****     ***************************************************************************/
 686:Generated_Source\PSoC5/CyFlash.c ****     CY_FLASH_SPC_FM_EE_WAKE_CNT_REG = CY_FLASH_SPC_FM_EE_WAKE_CNT_80MHZ;
 851              		.loc 1 686 0
 852 001a C822     		movs	r2, #200
 853 001c 0B4B     		ldr	r3, .L101+4
 854 001e 1A70     		strb	r2, [r3]
 687:Generated_Source\PSoC5/CyFlash.c **** 
 688:Generated_Source\PSoC5/CyFlash.c **** 
 689:Generated_Source\PSoC5/CyFlash.c ****     /***************************************************************************
 690:Generated_Source\PSoC5/CyFlash.c ****     * Enable EEPROM. Re-enabling an EEPROM macro takes 5us. During this time,
 691:Generated_Source\PSoC5/CyFlash.c ****     * the EE will not acknowledge a PHUB request.
 692:Generated_Source\PSoC5/CyFlash.c ****     ***************************************************************************/
 693:Generated_Source\PSoC5/CyFlash.c ****     CY_FLASH_PM_ACT_CFG12_REG    |= CY_FLASH_PM_ACT_CFG12_EN_EE;
 855              		.loc 1 693 0
 856 0020 0B4A     		ldr	r2, .L101+8
 857 0022 1378     		ldrb	r3, [r2]	@ zero_extendqisi2
 858 0024 43F01003 		orr	r3, r3, #16
 859 0028 1370     		strb	r3, [r2]
 694:Generated_Source\PSoC5/CyFlash.c ****     CY_FLASH_PM_ALTACT_CFG12_REG |= CY_FLASH_PM_ALTACT_CFG12_EN_EE;
 860              		.loc 1 694 0
 861 002a 1032     		adds	r2, r2, #16
 862 002c 1378     		ldrb	r3, [r2]	@ zero_extendqisi2
 863 002e 43F01003 		orr	r3, r3, #16
 864 0032 1370     		strb	r3, [r2]
ARM GAS  C:\Users\ingan\AppData\Local\Temp\ccmdDJp3.s 			page 29


 695:Generated_Source\PSoC5/CyFlash.c **** 
 696:Generated_Source\PSoC5/CyFlash.c ****     while(0u == (CY_FLASH_SPC_FM_EE_CR_REG & CY_FLASH_EE_EE_AWAKE))
 865              		.loc 1 696 0
 866 0034 02F55172 		add	r2, r2, #836
 867              	.L98:
 868              		.loc 1 696 0 is_stmt 0 discriminator 1
 869 0038 1378     		ldrb	r3, [r2]	@ zero_extendqisi2
 870 003a 13F0200F 		tst	r3, #32
 871 003e FBD0     		beq	.L98
 697:Generated_Source\PSoC5/CyFlash.c ****     {
 698:Generated_Source\PSoC5/CyFlash.c ****         /* Non-zero status denotes that the EEPROM/Flash is awake & powered. */
 699:Generated_Source\PSoC5/CyFlash.c ****     }
 700:Generated_Source\PSoC5/CyFlash.c **** 
 701:Generated_Source\PSoC5/CyFlash.c ****     CyExitCriticalSection(interruptState);
 872              		.loc 1 701 0 is_stmt 1
 873 0040 FFF7FEFF 		bl	CyExitCriticalSection
 874              	.LVL84:
 875 0044 08BD     		pop	{r3, pc}
 876              	.L102:
 877 0046 00BF     		.align	2
 878              	.L101:
 879 0048 A0430040 		.word	1073759136
 880 004c 01470040 		.word	1073760001
 881 0050 AC430040 		.word	1073759148
 882              		.cfi_endproc
 883              	.LFE10:
 884              		.size	CyEEPROM_Start, .-CyEEPROM_Start
 885              		.section	.text.CyEEPROM_Stop,"ax",%progbits
 886              		.align	2
 887              		.global	CyEEPROM_Stop
 888              		.thumb
 889              		.thumb_func
 890              		.type	CyEEPROM_Stop, %function
 891              	CyEEPROM_Stop:
 892              	.LFB11:
 702:Generated_Source\PSoC5/CyFlash.c **** }
 703:Generated_Source\PSoC5/CyFlash.c **** 
 704:Generated_Source\PSoC5/CyFlash.c **** 
 705:Generated_Source\PSoC5/CyFlash.c **** /*******************************************************************************
 706:Generated_Source\PSoC5/CyFlash.c **** * Function Name: CyEEPROM_Stop
 707:Generated_Source\PSoC5/CyFlash.c **** ****************************************************************************//**
 708:Generated_Source\PSoC5/CyFlash.c **** *
 709:Generated_Source\PSoC5/CyFlash.c **** *  Disable the EEPROM.
 710:Generated_Source\PSoC5/CyFlash.c **** *
 711:Generated_Source\PSoC5/CyFlash.c **** *******************************************************************************/
 712:Generated_Source\PSoC5/CyFlash.c **** void CyEEPROM_Stop (void) 
 713:Generated_Source\PSoC5/CyFlash.c **** {
 893              		.loc 1 713 0
 894              		.cfi_startproc
 895              		@ args = 0, pretend = 0, frame = 0
 896              		@ frame_needed = 0, uses_anonymous_args = 0
 897 0000 08B5     		push	{r3, lr}
 898              		.cfi_def_cfa_offset 8
 899              		.cfi_offset 3, -8
 900              		.cfi_offset 14, -4
 714:Generated_Source\PSoC5/CyFlash.c ****     uint8 interruptState;
 715:Generated_Source\PSoC5/CyFlash.c **** 
ARM GAS  C:\Users\ingan\AppData\Local\Temp\ccmdDJp3.s 			page 30


 716:Generated_Source\PSoC5/CyFlash.c ****     interruptState = CyEnterCriticalSection();
 901              		.loc 1 716 0
 902 0002 FFF7FEFF 		bl	CyEnterCriticalSection
 903              	.LVL85:
 717:Generated_Source\PSoC5/CyFlash.c **** 
 718:Generated_Source\PSoC5/CyFlash.c ****     CY_FLASH_PM_ACT_CFG12_REG    &= ((uint8)(~CY_FLASH_PM_ACT_CFG12_EN_EE));
 904              		.loc 1 718 0
 905 0006 064A     		ldr	r2, .L105
 906 0008 1378     		ldrb	r3, [r2]	@ zero_extendqisi2
 907 000a 03F0EF03 		and	r3, r3, #239
 908 000e 1370     		strb	r3, [r2]
 719:Generated_Source\PSoC5/CyFlash.c ****     CY_FLASH_PM_ALTACT_CFG12_REG &= ((uint8)(~CY_FLASH_PM_ALTACT_CFG12_EN_EE));
 909              		.loc 1 719 0
 910 0010 1032     		adds	r2, r2, #16
 911 0012 1378     		ldrb	r3, [r2]	@ zero_extendqisi2
 912 0014 03F0EF03 		and	r3, r3, #239
 913 0018 1370     		strb	r3, [r2]
 720:Generated_Source\PSoC5/CyFlash.c **** 
 721:Generated_Source\PSoC5/CyFlash.c ****     CyExitCriticalSection(interruptState);
 914              		.loc 1 721 0
 915 001a FFF7FEFF 		bl	CyExitCriticalSection
 916              	.LVL86:
 917 001e 08BD     		pop	{r3, pc}
 918              	.L106:
 919              		.align	2
 920              	.L105:
 921 0020 AC430040 		.word	1073759148
 922              		.cfi_endproc
 923              	.LFE11:
 924              		.size	CyEEPROM_Stop, .-CyEEPROM_Stop
 925              		.section	.text.CyEEPROM_ReadReserve,"ax",%progbits
 926              		.align	2
 927              		.global	CyEEPROM_ReadReserve
 928              		.thumb
 929              		.thumb_func
 930              		.type	CyEEPROM_ReadReserve, %function
 931              	CyEEPROM_ReadReserve:
 932              	.LFB12:
 722:Generated_Source\PSoC5/CyFlash.c **** }
 723:Generated_Source\PSoC5/CyFlash.c **** 
 724:Generated_Source\PSoC5/CyFlash.c **** 
 725:Generated_Source\PSoC5/CyFlash.c **** /*******************************************************************************
 726:Generated_Source\PSoC5/CyFlash.c **** * Function Name: CyEEPROM_ReadReserve
 727:Generated_Source\PSoC5/CyFlash.c **** ****************************************************************************//**
 728:Generated_Source\PSoC5/CyFlash.c **** *
 729:Generated_Source\PSoC5/CyFlash.c **** *  Request access to the EEPROM for reading and wait until access is available.
 730:Generated_Source\PSoC5/CyFlash.c **** *
 731:Generated_Source\PSoC5/CyFlash.c **** *******************************************************************************/
 732:Generated_Source\PSoC5/CyFlash.c **** void CyEEPROM_ReadReserve(void) 
 733:Generated_Source\PSoC5/CyFlash.c **** {
 933              		.loc 1 733 0
 934              		.cfi_startproc
 935              		@ args = 0, pretend = 0, frame = 0
 936              		@ frame_needed = 0, uses_anonymous_args = 0
 937              		@ link register save eliminated.
 734:Generated_Source\PSoC5/CyFlash.c ****     /* Make request for PHUB to have access */
 735:Generated_Source\PSoC5/CyFlash.c ****     CY_FLASH_EE_SCR_REG |= CY_FLASH_EE_SCR_AHB_EE_REQ;
ARM GAS  C:\Users\ingan\AppData\Local\Temp\ccmdDJp3.s 			page 31


 938              		.loc 1 735 0
 939 0000 044A     		ldr	r2, .L110
 940 0002 1378     		ldrb	r3, [r2]	@ zero_extendqisi2
 941 0004 43F00103 		orr	r3, r3, #1
 942 0008 1370     		strb	r3, [r2]
 943              	.L108:
 736:Generated_Source\PSoC5/CyFlash.c **** 
 737:Generated_Source\PSoC5/CyFlash.c ****     while (0u == (CY_FLASH_EE_SCR_REG & CY_FLASH_EE_SCR_AHB_EE_ACK))
 944              		.loc 1 737 0 discriminator 1
 945 000a 1378     		ldrb	r3, [r2]	@ zero_extendqisi2
 946 000c 13F0020F 		tst	r3, #2
 947 0010 FBD0     		beq	.L108
 738:Generated_Source\PSoC5/CyFlash.c ****     {
 739:Generated_Source\PSoC5/CyFlash.c ****         /* Wait for acknowledgment from PHUB */
 740:Generated_Source\PSoC5/CyFlash.c ****     }
 741:Generated_Source\PSoC5/CyFlash.c **** }
 948              		.loc 1 741 0
 949 0012 7047     		bx	lr
 950              	.L111:
 951              		.align	2
 952              	.L110:
 953 0014 02470040 		.word	1073760002
 954              		.cfi_endproc
 955              	.LFE12:
 956              		.size	CyEEPROM_ReadReserve, .-CyEEPROM_ReadReserve
 957              		.section	.text.CyEEPROM_ReadRelease,"ax",%progbits
 958              		.align	2
 959              		.global	CyEEPROM_ReadRelease
 960              		.thumb
 961              		.thumb_func
 962              		.type	CyEEPROM_ReadRelease, %function
 963              	CyEEPROM_ReadRelease:
 964              	.LFB13:
 742:Generated_Source\PSoC5/CyFlash.c **** 
 743:Generated_Source\PSoC5/CyFlash.c **** 
 744:Generated_Source\PSoC5/CyFlash.c **** /*******************************************************************************
 745:Generated_Source\PSoC5/CyFlash.c **** * Function Name: CyEEPROM_ReadRelease
 746:Generated_Source\PSoC5/CyFlash.c **** ****************************************************************************//**
 747:Generated_Source\PSoC5/CyFlash.c **** *
 748:Generated_Source\PSoC5/CyFlash.c **** *  Release the read reservation of the EEPROM.
 749:Generated_Source\PSoC5/CyFlash.c **** *
 750:Generated_Source\PSoC5/CyFlash.c **** *******************************************************************************/
 751:Generated_Source\PSoC5/CyFlash.c **** void CyEEPROM_ReadRelease(void) 
 752:Generated_Source\PSoC5/CyFlash.c **** {
 965              		.loc 1 752 0
 966              		.cfi_startproc
 967              		@ args = 0, pretend = 0, frame = 0
 968              		@ frame_needed = 0, uses_anonymous_args = 0
 969              		@ link register save eliminated.
 753:Generated_Source\PSoC5/CyFlash.c ****     CY_FLASH_EE_SCR_REG &= (uint8)(~CY_FLASH_EE_SCR_AHB_EE_REQ);
 970              		.loc 1 753 0
 971 0000 024A     		ldr	r2, .L113
 972 0002 1378     		ldrb	r3, [r2]	@ zero_extendqisi2
 973 0004 03F0FE03 		and	r3, r3, #254
 974 0008 1370     		strb	r3, [r2]
 975 000a 7047     		bx	lr
 976              	.L114:
ARM GAS  C:\Users\ingan\AppData\Local\Temp\ccmdDJp3.s 			page 32


 977              		.align	2
 978              	.L113:
 979 000c 02470040 		.word	1073760002
 980              		.cfi_endproc
 981              	.LFE13:
 982              		.size	CyEEPROM_ReadRelease, .-CyEEPROM_ReadRelease
 983              		.comm	dieTemperature,2,4
 984              		.text
 985              	.Letext0:
 986              		.file 2 "Generated_Source\\PSoC5\\cytypes.h"
 987              		.file 3 "Generated_Source\\PSoC5\\CyLib.h"
 988              		.file 4 "Generated_Source\\PSoC5\\CySpc.h"