ARM GAS  C:\Users\ingan\AppData\Local\Temp\ccwaQbAc.s 			page 1


   1              		.syntax unified
   2              		.cpu cortex-m3
   3              		.fpu softvfp
   4              		.eabi_attribute 20, 1
   5              		.eabi_attribute 21, 1
   6              		.eabi_attribute 23, 3
   7              		.eabi_attribute 24, 1
   8              		.eabi_attribute 25, 1
   9              		.eabi_attribute 26, 1
  10              		.eabi_attribute 30, 1
  11              		.eabi_attribute 34, 1
  12              		.eabi_attribute 18, 4
  13              		.thumb
  14              		.syntax unified
  15              		.file	"CyLib.c"
  16              		.text
  17              	.Ltext0:
  18              		.cfi_sections	.debug_frame
  19              		.section	.text.CyIMO_SetTrimValue,"ax",%progbits
  20              		.align	2
  21              		.thumb
  22              		.thumb_func
  23              		.type	CyIMO_SetTrimValue, %function
  24              	CyIMO_SetTrimValue:
  25              	.LFB7:
  26              		.file 1 "Generated_Source\\PSoC5\\CyLib.c"
   1:Generated_Source\PSoC5/CyLib.c **** /***************************************************************************//**
   2:Generated_Source\PSoC5/CyLib.c **** * \file CyLib.c
   3:Generated_Source\PSoC5/CyLib.c **** * \version 5.70
   4:Generated_Source\PSoC5/CyLib.c **** *
   5:Generated_Source\PSoC5/CyLib.c **** * \brief Provides a system API for the clocking, interrupts and watchdog timer.
   6:Generated_Source\PSoC5/CyLib.c **** *
   7:Generated_Source\PSoC5/CyLib.c **** * \note Documentation of the API's in this file is located in the System
   8:Generated_Source\PSoC5/CyLib.c **** * Reference Guide provided with PSoC Creator.
   9:Generated_Source\PSoC5/CyLib.c **** *
  10:Generated_Source\PSoC5/CyLib.c **** ********************************************************************************
  11:Generated_Source\PSoC5/CyLib.c **** * \copyright
  12:Generated_Source\PSoC5/CyLib.c **** * Copyright 2008-2018, Cypress Semiconductor Corporation.  All rights reserved.
  13:Generated_Source\PSoC5/CyLib.c **** * You may use this file only in accordance with the license, terms, conditions,
  14:Generated_Source\PSoC5/CyLib.c **** * disclaimers, and limitations in the end user license agreement accompanying
  15:Generated_Source\PSoC5/CyLib.c **** * the software package with which this file was provided.
  16:Generated_Source\PSoC5/CyLib.c **** *******************************************************************************/
  17:Generated_Source\PSoC5/CyLib.c **** 
  18:Generated_Source\PSoC5/CyLib.c **** #include "CyLib.h"
  19:Generated_Source\PSoC5/CyLib.c **** 
  20:Generated_Source\PSoC5/CyLib.c **** 
  21:Generated_Source\PSoC5/CyLib.c **** /*******************************************************************************
  22:Generated_Source\PSoC5/CyLib.c **** * The CyResetStatus variable is used to obtain value of RESET_SR0 register after
  23:Generated_Source\PSoC5/CyLib.c **** * a device reset. It is set from initialize_psoc() at the early initialization
  24:Generated_Source\PSoC5/CyLib.c **** * stage. In case of IAR EW IDE, initialize_psoc() is executed before the data
  25:Generated_Source\PSoC5/CyLib.c **** * sections are initialized. To avoid zeroing, CyResetStatus should be placed
  26:Generated_Source\PSoC5/CyLib.c **** * to the .noinit section.
  27:Generated_Source\PSoC5/CyLib.c **** *******************************************************************************/
  28:Generated_Source\PSoC5/CyLib.c **** CY_NOINIT uint8 CYXDATA CyResetStatus;
  29:Generated_Source\PSoC5/CyLib.c **** 
  30:Generated_Source\PSoC5/CyLib.c **** 
  31:Generated_Source\PSoC5/CyLib.c **** /* Variable Vdda */
ARM GAS  C:\Users\ingan\AppData\Local\Temp\ccwaQbAc.s 			page 2


  32:Generated_Source\PSoC5/CyLib.c **** #if(CYDEV_VARIABLE_VDDA == 1)
  33:Generated_Source\PSoC5/CyLib.c **** 
  34:Generated_Source\PSoC5/CyLib.c ****     uint8 CyScPumpEnabled = (uint8)(CYDEV_VDDA_MV < 2700);
  35:Generated_Source\PSoC5/CyLib.c **** 
  36:Generated_Source\PSoC5/CyLib.c **** #endif  /* (CYDEV_VARIABLE_VDDA == 1) */
  37:Generated_Source\PSoC5/CyLib.c **** 
  38:Generated_Source\PSoC5/CyLib.c **** 
  39:Generated_Source\PSoC5/CyLib.c **** /* Do not use these definitions directly in your application */
  40:Generated_Source\PSoC5/CyLib.c **** uint32 cydelay_freq_hz  = BCLK__BUS_CLK__HZ;
  41:Generated_Source\PSoC5/CyLib.c **** uint32 cydelay_freq_khz = (BCLK__BUS_CLK__HZ + 999u) / 1000u;
  42:Generated_Source\PSoC5/CyLib.c **** uint8  cydelay_freq_mhz = (uint8)((BCLK__BUS_CLK__HZ + 999999u) / 1000000u);
  43:Generated_Source\PSoC5/CyLib.c **** uint32 cydelay_32k_ms   = 32768u * ((BCLK__BUS_CLK__HZ + 999u) / 1000u);
  44:Generated_Source\PSoC5/CyLib.c **** 
  45:Generated_Source\PSoC5/CyLib.c **** 
  46:Generated_Source\PSoC5/CyLib.c **** /* Function Prototypes */
  47:Generated_Source\PSoC5/CyLib.c **** static uint8 CyUSB_PowerOnCheck(void)  ;
  48:Generated_Source\PSoC5/CyLib.c **** static void CyIMO_SetTrimValue(uint8 freq) ;
  49:Generated_Source\PSoC5/CyLib.c **** static void CyBusClk_Internal_SetDivider(uint16 divider);
  50:Generated_Source\PSoC5/CyLib.c **** 
  51:Generated_Source\PSoC5/CyLib.c **** #if(CY_PSOC5)
  52:Generated_Source\PSoC5/CyLib.c ****     static cySysTickCallback CySysTickCallbacks[CY_SYS_SYST_NUM_OF_CALLBACKS];
  53:Generated_Source\PSoC5/CyLib.c ****     static void CySysTickServiceCallbacks(void);
  54:Generated_Source\PSoC5/CyLib.c ****     uint32 CySysTickInitVar = 0u;
  55:Generated_Source\PSoC5/CyLib.c **** #endif  /* (CY_PSOC5) */
  56:Generated_Source\PSoC5/CyLib.c **** 
  57:Generated_Source\PSoC5/CyLib.c **** 
  58:Generated_Source\PSoC5/CyLib.c **** #if(CY_PSOC3)
  59:Generated_Source\PSoC5/CyLib.c ****     CY_ISR_PROTO(IntDefaultHandler);
  60:Generated_Source\PSoC5/CyLib.c **** #endif /* (CY_PSOC3) */
  61:Generated_Source\PSoC5/CyLib.c **** 
  62:Generated_Source\PSoC5/CyLib.c **** 
  63:Generated_Source\PSoC5/CyLib.c **** /*******************************************************************************
  64:Generated_Source\PSoC5/CyLib.c **** * Function Name: CyPLL_OUT_Start
  65:Generated_Source\PSoC5/CyLib.c **** ****************************************************************************//**
  66:Generated_Source\PSoC5/CyLib.c **** *
  67:Generated_Source\PSoC5/CyLib.c **** *   Enables the PLL.  Optionally waits for it to become stable.
  68:Generated_Source\PSoC5/CyLib.c **** *   Waits at least 250 us or until it is detected that the PLL is stable.
  69:Generated_Source\PSoC5/CyLib.c **** *
  70:Generated_Source\PSoC5/CyLib.c **** *   \param wait:
  71:Generated_Source\PSoC5/CyLib.c **** *    \param 0: Return immediately after configuration
  72:Generated_Source\PSoC5/CyLib.c **** *    \param 1: Wait for PLL lock or timeout.
  73:Generated_Source\PSoC5/CyLib.c **** *
  74:Generated_Source\PSoC5/CyLib.c **** * \return
  75:Generated_Source\PSoC5/CyLib.c **** *   Status
  76:Generated_Source\PSoC5/CyLib.c **** *    CYRET_SUCCESS - Completed successfully
  77:Generated_Source\PSoC5/CyLib.c **** *    CYRET_TIMEOUT - Timeout occurred without detecting a stable clock.
  78:Generated_Source\PSoC5/CyLib.c **** *     If the input source of the clock is jittery, then the lock indication
  79:Generated_Source\PSoC5/CyLib.c **** *     may not occur.  However, after the timeout has expired the generated PLL
  80:Generated_Source\PSoC5/CyLib.c **** *     clock can still be used.
  81:Generated_Source\PSoC5/CyLib.c **** *
  82:Generated_Source\PSoC5/CyLib.c **** * \sideeffect
  83:Generated_Source\PSoC5/CyLib.c **** *  If wait is enabled: This function uses the Fast Time Wheel to time the wait.
  84:Generated_Source\PSoC5/CyLib.c **** *  Any other use of the Fast Time Wheel will be stopped during the period of
  85:Generated_Source\PSoC5/CyLib.c **** *  this function and then restored. This function also uses the 100 KHz ILO.
  86:Generated_Source\PSoC5/CyLib.c **** *  If not enabled, this function will enable the 100 KHz ILO for the period of
  87:Generated_Source\PSoC5/CyLib.c **** *  this function.
  88:Generated_Source\PSoC5/CyLib.c **** *
ARM GAS  C:\Users\ingan\AppData\Local\Temp\ccwaQbAc.s 			page 3


  89:Generated_Source\PSoC5/CyLib.c **** *  No changes to the setup of the ILO, Fast Time Wheel, Central Time Wheel or
  90:Generated_Source\PSoC5/CyLib.c **** *  Once Per Second interrupt may be made by interrupt routines during the period
  91:Generated_Source\PSoC5/CyLib.c **** *  of this function execution. The current operation of the ILO, Central Time
  92:Generated_Source\PSoC5/CyLib.c **** *  Wheel and Once Per Second interrupt are maintained during the operation of
  93:Generated_Source\PSoC5/CyLib.c **** *  this function provided the reading of the Power Manager Interrupt Status
  94:Generated_Source\PSoC5/CyLib.c **** *  Register is only done using the CyPmReadStatus() function.
  95:Generated_Source\PSoC5/CyLib.c **** *
  96:Generated_Source\PSoC5/CyLib.c **** *******************************************************************************/
  97:Generated_Source\PSoC5/CyLib.c **** cystatus CyPLL_OUT_Start(uint8 wait) 
  98:Generated_Source\PSoC5/CyLib.c **** {
  99:Generated_Source\PSoC5/CyLib.c ****     cystatus status = CYRET_SUCCESS;
 100:Generated_Source\PSoC5/CyLib.c **** 
 101:Generated_Source\PSoC5/CyLib.c ****     uint8 iloEnableState;
 102:Generated_Source\PSoC5/CyLib.c ****     uint8 pmTwCfg0State;
 103:Generated_Source\PSoC5/CyLib.c ****     uint8 pmTwCfg2State;
 104:Generated_Source\PSoC5/CyLib.c **** 
 105:Generated_Source\PSoC5/CyLib.c **** 
 106:Generated_Source\PSoC5/CyLib.c ****     /* Enables PLL circuit  */
 107:Generated_Source\PSoC5/CyLib.c ****     CY_CLK_PLL_CFG0_REG |= CY_CLK_PLL_ENABLE;
 108:Generated_Source\PSoC5/CyLib.c **** 
 109:Generated_Source\PSoC5/CyLib.c ****     if(wait != 0u)
 110:Generated_Source\PSoC5/CyLib.c ****     {
 111:Generated_Source\PSoC5/CyLib.c ****         /* Save 100 KHz ILO, FTW interval, enable and interrupt enable */
 112:Generated_Source\PSoC5/CyLib.c ****         iloEnableState = CY_LIB_SLOWCLK_ILO_CR0_REG & CY_LIB_SLOWCLK_ILO_CR0_EN_100KHZ;
 113:Generated_Source\PSoC5/CyLib.c ****         pmTwCfg0State = CY_LIB_PM_TW_CFG0_REG;
 114:Generated_Source\PSoC5/CyLib.c ****         pmTwCfg2State = CY_LIB_PM_TW_CFG2_REG;
 115:Generated_Source\PSoC5/CyLib.c **** 
 116:Generated_Source\PSoC5/CyLib.c ****         CyPmFtwSetInterval(CY_CLK_PLL_FTW_INTERVAL);
 117:Generated_Source\PSoC5/CyLib.c **** 
 118:Generated_Source\PSoC5/CyLib.c ****         status = CYRET_TIMEOUT;
 119:Generated_Source\PSoC5/CyLib.c **** 
 120:Generated_Source\PSoC5/CyLib.c ****         while(0u == (CY_PM_FTW_INT & CyPmReadStatus(CY_PM_FTW_INT)))
 121:Generated_Source\PSoC5/CyLib.c ****         {
 122:Generated_Source\PSoC5/CyLib.c ****             /* Wait for interrupt status */
 123:Generated_Source\PSoC5/CyLib.c ****             if(0u != (CY_CLK_PLL_SR_REG & CY_CLK_PLL_LOCK_STATUS))
 124:Generated_Source\PSoC5/CyLib.c ****             {
 125:Generated_Source\PSoC5/CyLib.c ****                 if(0u != (CY_CLK_PLL_SR_REG & CY_CLK_PLL_LOCK_STATUS))
 126:Generated_Source\PSoC5/CyLib.c ****                 {
 127:Generated_Source\PSoC5/CyLib.c ****                     status = CYRET_SUCCESS;
 128:Generated_Source\PSoC5/CyLib.c ****                     break;
 129:Generated_Source\PSoC5/CyLib.c ****                 }
 130:Generated_Source\PSoC5/CyLib.c ****             }
 131:Generated_Source\PSoC5/CyLib.c ****         }
 132:Generated_Source\PSoC5/CyLib.c **** 
 133:Generated_Source\PSoC5/CyLib.c ****         /* Restore 100 KHz ILO, FTW interval, enable and interrupt enable */
 134:Generated_Source\PSoC5/CyLib.c ****         if(0u == iloEnableState)
 135:Generated_Source\PSoC5/CyLib.c ****         {
 136:Generated_Source\PSoC5/CyLib.c ****             CyILO_Stop100K();
 137:Generated_Source\PSoC5/CyLib.c ****         }
 138:Generated_Source\PSoC5/CyLib.c **** 
 139:Generated_Source\PSoC5/CyLib.c ****         CY_LIB_PM_TW_CFG0_REG = pmTwCfg0State;
 140:Generated_Source\PSoC5/CyLib.c ****         CY_LIB_PM_TW_CFG2_REG = pmTwCfg2State;
 141:Generated_Source\PSoC5/CyLib.c ****     }
 142:Generated_Source\PSoC5/CyLib.c **** 
 143:Generated_Source\PSoC5/CyLib.c ****     return(status);
 144:Generated_Source\PSoC5/CyLib.c **** }
 145:Generated_Source\PSoC5/CyLib.c **** 
ARM GAS  C:\Users\ingan\AppData\Local\Temp\ccwaQbAc.s 			page 4


 146:Generated_Source\PSoC5/CyLib.c **** 
 147:Generated_Source\PSoC5/CyLib.c **** /*******************************************************************************
 148:Generated_Source\PSoC5/CyLib.c **** * Function Name: CyPLL_OUT_Stop
 149:Generated_Source\PSoC5/CyLib.c **** ****************************************************************************//**
 150:Generated_Source\PSoC5/CyLib.c **** *
 151:Generated_Source\PSoC5/CyLib.c **** *  Disables the PLL.
 152:Generated_Source\PSoC5/CyLib.c **** *
 153:Generated_Source\PSoC5/CyLib.c **** *******************************************************************************/
 154:Generated_Source\PSoC5/CyLib.c **** void CyPLL_OUT_Stop(void) 
 155:Generated_Source\PSoC5/CyLib.c **** {
 156:Generated_Source\PSoC5/CyLib.c ****     CY_CLK_PLL_CFG0_REG &= ((uint8)(~CY_CLK_PLL_ENABLE));
 157:Generated_Source\PSoC5/CyLib.c **** }
 158:Generated_Source\PSoC5/CyLib.c **** 
 159:Generated_Source\PSoC5/CyLib.c **** 
 160:Generated_Source\PSoC5/CyLib.c **** /*******************************************************************************
 161:Generated_Source\PSoC5/CyLib.c **** * Function Name: CyPLL_OUT_SetPQ
 162:Generated_Source\PSoC5/CyLib.c **** ****************************************************************************//**
 163:Generated_Source\PSoC5/CyLib.c **** *
 164:Generated_Source\PSoC5/CyLib.c **** *  Sets the P and Q dividers and the charge pump current.
 165:Generated_Source\PSoC5/CyLib.c **** *  The Frequency Out will be P/Q * Frequency In.
 166:Generated_Source\PSoC5/CyLib.c **** *  The PLL must be disabled before calling this function.
 167:Generated_Source\PSoC5/CyLib.c **** *
 168:Generated_Source\PSoC5/CyLib.c **** *  \param uint8 pDiv:
 169:Generated_Source\PSoC5/CyLib.c **** *   Valid range [8 - 255].
 170:Generated_Source\PSoC5/CyLib.c **** *
 171:Generated_Source\PSoC5/CyLib.c **** *  \param uint8 qDiv:
 172:Generated_Source\PSoC5/CyLib.c **** *   Valid range [1 - 16]. Input Frequency / Q must be in range of 1 to 3 MHz.
 173:Generated_Source\PSoC5/CyLib.c **** 
 174:Generated_Source\PSoC5/CyLib.c **** *  \param uint8 current:
 175:Generated_Source\PSoC5/CyLib.c **** *   Valid range [1 - 7]. Charge pump current in uA. Refer to the device TRM and
 176:Generated_Source\PSoC5/CyLib.c **** *   datasheet for more information.
 177:Generated_Source\PSoC5/CyLib.c **** *
 178:Generated_Source\PSoC5/CyLib.c **** * \sideeffect
 179:Generated_Source\PSoC5/CyLib.c **** *  If this function execution results in the CPU clock frequency increasing,
 180:Generated_Source\PSoC5/CyLib.c **** *  then the number of clock cycles the cache will wait before it samples data
 181:Generated_Source\PSoC5/CyLib.c **** *  coming back from the Flash must be adjusted by calling
 182:Generated_Source\PSoC5/CyLib.c **** *  CyFlash_SetWaitCycles() with an appropriate parameter. It can be optionally
 183:Generated_Source\PSoC5/CyLib.c **** *  called if the CPU clock frequency is lowered in order to improve the CPU
 184:Generated_Source\PSoC5/CyLib.c **** *  performance. See CyFlash_SetWaitCycles() description for more information.
 185:Generated_Source\PSoC5/CyLib.c **** *
 186:Generated_Source\PSoC5/CyLib.c **** *******************************************************************************/
 187:Generated_Source\PSoC5/CyLib.c **** void CyPLL_OUT_SetPQ(uint8 pDiv, uint8 qDiv, uint8 current) 
 188:Generated_Source\PSoC5/CyLib.c **** {
 189:Generated_Source\PSoC5/CyLib.c ****     /* Halt CPU in debug mode if PLL is enabled */
 190:Generated_Source\PSoC5/CyLib.c ****     CYASSERT(0u == (CY_CLK_PLL_CFG0_REG & CY_CLK_PLL_ENABLE));
 191:Generated_Source\PSoC5/CyLib.c **** 
 192:Generated_Source\PSoC5/CyLib.c ****     if((pDiv    >= CY_CLK_PLL_MIN_P_VALUE  ) &&
 193:Generated_Source\PSoC5/CyLib.c ****        (qDiv    <= CY_CLK_PLL_MAX_Q_VALUE  ) && (qDiv    >= CY_CLK_PLL_MIN_Q_VALUE  ) &&
 194:Generated_Source\PSoC5/CyLib.c ****        (current >= CY_CLK_PLL_MIN_CUR_VALUE) && (current <= CY_CLK_PLL_MAX_CUR_VALUE))
 195:Generated_Source\PSoC5/CyLib.c ****     {
 196:Generated_Source\PSoC5/CyLib.c ****         /* Set new values */
 197:Generated_Source\PSoC5/CyLib.c ****         CY_CLK_PLL_P_REG = pDiv;
 198:Generated_Source\PSoC5/CyLib.c ****         CY_CLK_PLL_Q_REG = ((uint8)(qDiv - 1u));
 199:Generated_Source\PSoC5/CyLib.c ****         CY_CLK_PLL_CFG1_REG = (CY_CLK_PLL_CFG1_REG & CY_CLK_PLL_CURRENT_MASK) |
 200:Generated_Source\PSoC5/CyLib.c ****                                 ((uint8)(((uint8)(current - 1u)) << CY_CLK_PLL_CURRENT_POSITION));
 201:Generated_Source\PSoC5/CyLib.c ****     }
 202:Generated_Source\PSoC5/CyLib.c ****     else
ARM GAS  C:\Users\ingan\AppData\Local\Temp\ccwaQbAc.s 			page 5


 203:Generated_Source\PSoC5/CyLib.c ****     {
 204:Generated_Source\PSoC5/CyLib.c ****         /***********************************************************************
 205:Generated_Source\PSoC5/CyLib.c ****         * Halt CPU in debug mode if:
 206:Generated_Source\PSoC5/CyLib.c ****         * - P divider is less than required
 207:Generated_Source\PSoC5/CyLib.c ****         * - Q divider is out of range
 208:Generated_Source\PSoC5/CyLib.c ****         * - pump current is out of range
 209:Generated_Source\PSoC5/CyLib.c ****         ***********************************************************************/
 210:Generated_Source\PSoC5/CyLib.c ****         CYASSERT(0u != 0u);
 211:Generated_Source\PSoC5/CyLib.c ****     }
 212:Generated_Source\PSoC5/CyLib.c **** 
 213:Generated_Source\PSoC5/CyLib.c **** }
 214:Generated_Source\PSoC5/CyLib.c **** 
 215:Generated_Source\PSoC5/CyLib.c **** 
 216:Generated_Source\PSoC5/CyLib.c **** /*******************************************************************************
 217:Generated_Source\PSoC5/CyLib.c **** * Function Name: CyPLL_OUT_SetSource
 218:Generated_Source\PSoC5/CyLib.c **** ****************************************************************************//**
 219:Generated_Source\PSoC5/CyLib.c **** *
 220:Generated_Source\PSoC5/CyLib.c **** *  Sets the input clock source to the PLL. The PLL must be disabled before
 221:Generated_Source\PSoC5/CyLib.c **** *  calling this function.
 222:Generated_Source\PSoC5/CyLib.c **** *
 223:Generated_Source\PSoC5/CyLib.c **** *   \param source: One of the three available PLL clock sources
 224:Generated_Source\PSoC5/CyLib.c **** *    \param CY_PLL_SOURCE_IMO  :   IMO
 225:Generated_Source\PSoC5/CyLib.c **** *    \param CY_PLL_SOURCE_XTAL :   MHz Crystal
 226:Generated_Source\PSoC5/CyLib.c **** *    \param CY_PLL_SOURCE_DSI  :   DSI
 227:Generated_Source\PSoC5/CyLib.c **** *
 228:Generated_Source\PSoC5/CyLib.c **** * \sideeffect
 229:Generated_Source\PSoC5/CyLib.c **** *  If this function execution results in the CPU clock frequency increasing,
 230:Generated_Source\PSoC5/CyLib.c **** *  then the number of clock cycles the cache will wait before it samples data
 231:Generated_Source\PSoC5/CyLib.c **** *  coming back from the3 Flash must be adjusted by calling
 232:Generated_Source\PSoC5/CyLib.c **** *  CyFlash_SetWaitCycles() with an appropriate parameter. It can be optionally
 233:Generated_Source\PSoC5/CyLib.c **** *  called if the CPU clock frequency is lowered in order to improve the CPU
 234:Generated_Source\PSoC5/CyLib.c **** *  performance. See CyFlash_SetWaitCycles() description for more information.
 235:Generated_Source\PSoC5/CyLib.c **** *
 236:Generated_Source\PSoC5/CyLib.c **** *******************************************************************************/
 237:Generated_Source\PSoC5/CyLib.c **** void CyPLL_OUT_SetSource(uint8 source) 
 238:Generated_Source\PSoC5/CyLib.c **** {
 239:Generated_Source\PSoC5/CyLib.c ****     /* Halt CPU in debug mode if PLL is enabled */
 240:Generated_Source\PSoC5/CyLib.c ****     CYASSERT(0u == (CY_CLK_PLL_CFG0_REG & CY_CLK_PLL_ENABLE));
 241:Generated_Source\PSoC5/CyLib.c **** 
 242:Generated_Source\PSoC5/CyLib.c ****     switch(source)
 243:Generated_Source\PSoC5/CyLib.c ****     {
 244:Generated_Source\PSoC5/CyLib.c ****         case CY_PLL_SOURCE_IMO:
 245:Generated_Source\PSoC5/CyLib.c ****         case CY_PLL_SOURCE_XTAL:
 246:Generated_Source\PSoC5/CyLib.c ****         case CY_PLL_SOURCE_DSI:
 247:Generated_Source\PSoC5/CyLib.c ****             CY_LIB_CLKDIST_CR_REG = ((CY_LIB_CLKDIST_CR_REG & CY_LIB_CLKDIST_CR_PLL_SCR_MASK) | sou
 248:Generated_Source\PSoC5/CyLib.c ****         break;
 249:Generated_Source\PSoC5/CyLib.c **** 
 250:Generated_Source\PSoC5/CyLib.c ****         default:
 251:Generated_Source\PSoC5/CyLib.c ****             CYASSERT(0u != 0u);
 252:Generated_Source\PSoC5/CyLib.c ****         break;
 253:Generated_Source\PSoC5/CyLib.c ****     }
 254:Generated_Source\PSoC5/CyLib.c **** }
 255:Generated_Source\PSoC5/CyLib.c **** 
 256:Generated_Source\PSoC5/CyLib.c **** 
 257:Generated_Source\PSoC5/CyLib.c **** /*******************************************************************************
 258:Generated_Source\PSoC5/CyLib.c **** * Function Name: CyIMO_Start
 259:Generated_Source\PSoC5/CyLib.c **** ****************************************************************************//**
ARM GAS  C:\Users\ingan\AppData\Local\Temp\ccwaQbAc.s 			page 6


 260:Generated_Source\PSoC5/CyLib.c **** *
 261:Generated_Source\PSoC5/CyLib.c **** *  Enables the IMO. Optionally waits at least 6 us for it to settle.
 262:Generated_Source\PSoC5/CyLib.c **** *
 263:Generated_Source\PSoC5/CyLib.c **** *  \param uint8 wait:
 264:Generated_Source\PSoC5/CyLib.c **** *   \param 0: Return immediately after configuration
 265:Generated_Source\PSoC5/CyLib.c **** *   \param 1: Wait for at least 6 us for the IMO to settle.
 266:Generated_Source\PSoC5/CyLib.c **** *
 267:Generated_Source\PSoC5/CyLib.c **** * \sideeffect
 268:Generated_Source\PSoC5/CyLib.c **** *  If wait is enabled: This function uses the Fast Time Wheel to time the wait.
 269:Generated_Source\PSoC5/CyLib.c **** *  Any other use of the Fast Time Wheel will be stopped during the period of
 270:Generated_Source\PSoC5/CyLib.c **** *  this function and then restored. This function also uses the 100 KHz ILO.
 271:Generated_Source\PSoC5/CyLib.c **** *  If not enabled, this function will enable the 100 KHz ILO for the period of
 272:Generated_Source\PSoC5/CyLib.c **** *  this function.
 273:Generated_Source\PSoC5/CyLib.c **** *
 274:Generated_Source\PSoC5/CyLib.c **** *  No changes to the setup of the ILO, Fast Time Wheel, Central Time Wheel or
 275:Generated_Source\PSoC5/CyLib.c **** *  Once Per Second interrupt may be made by interrupt routines during the period
 276:Generated_Source\PSoC5/CyLib.c **** *  of this function execution. The current operation of the ILO, Central Time
 277:Generated_Source\PSoC5/CyLib.c **** *  Wheel and Once Per Second interrupt are maintained during the operation of
 278:Generated_Source\PSoC5/CyLib.c **** *  this function provided the reading of the Power Manager Interrupt Status
 279:Generated_Source\PSoC5/CyLib.c **** *  Register is only done using the CyPmReadStatus() function.
 280:Generated_Source\PSoC5/CyLib.c **** *
 281:Generated_Source\PSoC5/CyLib.c **** *******************************************************************************/
 282:Generated_Source\PSoC5/CyLib.c **** void CyIMO_Start(uint8 wait) 
 283:Generated_Source\PSoC5/CyLib.c **** {
 284:Generated_Source\PSoC5/CyLib.c ****     uint8 pmFtwCfg2Reg;
 285:Generated_Source\PSoC5/CyLib.c ****     uint8 pmFtwCfg0Reg;
 286:Generated_Source\PSoC5/CyLib.c ****     uint8 ilo100KhzEnable;
 287:Generated_Source\PSoC5/CyLib.c **** 
 288:Generated_Source\PSoC5/CyLib.c **** 
 289:Generated_Source\PSoC5/CyLib.c ****     CY_LIB_PM_ACT_CFG0_REG  |= CY_LIB_PM_ACT_CFG0_IMO_EN;
 290:Generated_Source\PSoC5/CyLib.c ****     CY_LIB_PM_STBY_CFG0_REG |= CY_LIB_PM_STBY_CFG0_IMO_EN;
 291:Generated_Source\PSoC5/CyLib.c **** 
 292:Generated_Source\PSoC5/CyLib.c ****     if(0u != wait)
 293:Generated_Source\PSoC5/CyLib.c ****     {
 294:Generated_Source\PSoC5/CyLib.c ****         /* Need to turn on 100KHz ILO if it happens to not already be running.*/
 295:Generated_Source\PSoC5/CyLib.c ****         ilo100KhzEnable = CY_LIB_SLOWCLK_ILO_CR0_REG & CY_LIB_SLOWCLK_ILO_CR0_EN_100KHZ;
 296:Generated_Source\PSoC5/CyLib.c ****         pmFtwCfg0Reg = CY_LIB_PM_TW_CFG0_REG;
 297:Generated_Source\PSoC5/CyLib.c ****         pmFtwCfg2Reg = CY_LIB_PM_TW_CFG2_REG;
 298:Generated_Source\PSoC5/CyLib.c **** 
 299:Generated_Source\PSoC5/CyLib.c ****         CyPmFtwSetInterval(CY_LIB_CLK_IMO_FTW_TIMEOUT);
 300:Generated_Source\PSoC5/CyLib.c **** 
 301:Generated_Source\PSoC5/CyLib.c ****         while (0u == (CY_PM_FTW_INT & CyPmReadStatus(CY_PM_FTW_INT)))
 302:Generated_Source\PSoC5/CyLib.c ****         {
 303:Generated_Source\PSoC5/CyLib.c ****             /* Wait for interrupt status */
 304:Generated_Source\PSoC5/CyLib.c ****         }
 305:Generated_Source\PSoC5/CyLib.c **** 
 306:Generated_Source\PSoC5/CyLib.c ****         if(0u == ilo100KhzEnable)
 307:Generated_Source\PSoC5/CyLib.c ****         {
 308:Generated_Source\PSoC5/CyLib.c ****             CyILO_Stop100K();
 309:Generated_Source\PSoC5/CyLib.c ****         }
 310:Generated_Source\PSoC5/CyLib.c **** 
 311:Generated_Source\PSoC5/CyLib.c ****         CY_LIB_PM_TW_CFG0_REG = pmFtwCfg0Reg;
 312:Generated_Source\PSoC5/CyLib.c ****         CY_LIB_PM_TW_CFG2_REG = pmFtwCfg2Reg;
 313:Generated_Source\PSoC5/CyLib.c ****     }
 314:Generated_Source\PSoC5/CyLib.c **** }
 315:Generated_Source\PSoC5/CyLib.c **** 
 316:Generated_Source\PSoC5/CyLib.c **** 
ARM GAS  C:\Users\ingan\AppData\Local\Temp\ccwaQbAc.s 			page 7


 317:Generated_Source\PSoC5/CyLib.c **** /*******************************************************************************
 318:Generated_Source\PSoC5/CyLib.c **** * Function Name: CyIMO_Stop
 319:Generated_Source\PSoC5/CyLib.c **** ****************************************************************************//**
 320:Generated_Source\PSoC5/CyLib.c **** *
 321:Generated_Source\PSoC5/CyLib.c **** *   Disables the IMO.
 322:Generated_Source\PSoC5/CyLib.c **** *
 323:Generated_Source\PSoC5/CyLib.c **** *******************************************************************************/
 324:Generated_Source\PSoC5/CyLib.c **** void CyIMO_Stop(void) 
 325:Generated_Source\PSoC5/CyLib.c **** {
 326:Generated_Source\PSoC5/CyLib.c ****     CY_LIB_PM_ACT_CFG0_REG  &= ((uint8) (~CY_LIB_PM_ACT_CFG0_IMO_EN));
 327:Generated_Source\PSoC5/CyLib.c ****     CY_LIB_PM_STBY_CFG0_REG &= ((uint8) (~CY_LIB_PM_STBY_CFG0_IMO_EN));
 328:Generated_Source\PSoC5/CyLib.c **** }
 329:Generated_Source\PSoC5/CyLib.c **** 
 330:Generated_Source\PSoC5/CyLib.c **** 
 331:Generated_Source\PSoC5/CyLib.c **** /*******************************************************************************
 332:Generated_Source\PSoC5/CyLib.c **** * Function Name: CyUSB_PowerOnCheck
 333:Generated_Source\PSoC5/CyLib.c **** ****************************************************************************//**
 334:Generated_Source\PSoC5/CyLib.c **** *
 335:Generated_Source\PSoC5/CyLib.c **** *  Returns the USB power status value. A private function to cy_boot.
 336:Generated_Source\PSoC5/CyLib.c **** *
 337:Generated_Source\PSoC5/CyLib.c **** * \return
 338:Generated_Source\PSoC5/CyLib.c **** *   uint8: one if the USB is enabled, 0 if not enabled.
 339:Generated_Source\PSoC5/CyLib.c **** *
 340:Generated_Source\PSoC5/CyLib.c **** *******************************************************************************/
 341:Generated_Source\PSoC5/CyLib.c **** static uint8 CyUSB_PowerOnCheck(void)  
 342:Generated_Source\PSoC5/CyLib.c **** {
 343:Generated_Source\PSoC5/CyLib.c ****     uint8 poweredOn = 0u;
 344:Generated_Source\PSoC5/CyLib.c **** 
 345:Generated_Source\PSoC5/CyLib.c ****     /* Check whether device is in Active or AltActive and if USB is powered on */
 346:Generated_Source\PSoC5/CyLib.c ****     if((((CY_PM_MODE_CSR_REG & CY_PM_MODE_CSR_MASK) == CY_PM_MODE_CSR_ACTIVE ) &&
 347:Generated_Source\PSoC5/CyLib.c ****        (0u != (CY_LIB_PM_ACT_CFG5_REG & CY_ACT_USB_ENABLED     )))  ||
 348:Generated_Source\PSoC5/CyLib.c ****        (((CY_PM_MODE_CSR_REG & CY_PM_MODE_CSR_MASK) == CY_PM_MODE_CSR_ALT_ACT) &&
 349:Generated_Source\PSoC5/CyLib.c ****        (0u != (CY_LIB_PM_STBY_CFG5_REG & CY_ALT_ACT_USB_ENABLED))))
 350:Generated_Source\PSoC5/CyLib.c ****     {
 351:Generated_Source\PSoC5/CyLib.c ****         poweredOn = 1u;
 352:Generated_Source\PSoC5/CyLib.c ****     }
 353:Generated_Source\PSoC5/CyLib.c **** 
 354:Generated_Source\PSoC5/CyLib.c ****     return (poweredOn);
 355:Generated_Source\PSoC5/CyLib.c **** }
 356:Generated_Source\PSoC5/CyLib.c **** 
 357:Generated_Source\PSoC5/CyLib.c **** 
 358:Generated_Source\PSoC5/CyLib.c **** /*******************************************************************************
 359:Generated_Source\PSoC5/CyLib.c **** * Function Name: CyIMO_SetTrimValue
 360:Generated_Source\PSoC5/CyLib.c **** ****************************************************************************//**
 361:Generated_Source\PSoC5/CyLib.c **** *
 362:Generated_Source\PSoC5/CyLib.c **** *  Sets the IMO factory trim values.
 363:Generated_Source\PSoC5/CyLib.c **** *
 364:Generated_Source\PSoC5/CyLib.c **** *  uint8 freq - frequency for which trims must be set
 365:Generated_Source\PSoC5/CyLib.c **** *
 366:Generated_Source\PSoC5/CyLib.c **** *******************************************************************************/
 367:Generated_Source\PSoC5/CyLib.c **** static void CyIMO_SetTrimValue(uint8 freq) 
 368:Generated_Source\PSoC5/CyLib.c **** {
  27              		.loc 1 368 0
  28              		.cfi_startproc
  29              		@ args = 0, pretend = 0, frame = 0
  30              		@ frame_needed = 0, uses_anonymous_args = 0
  31              		@ link register save eliminated.
ARM GAS  C:\Users\ingan\AppData\Local\Temp\ccwaQbAc.s 			page 8


  32              	.LVL0:
  33              	.LBB4:
  34              	.LBB5:
 346:Generated_Source\PSoC5/CyLib.c ****        (0u != (CY_LIB_PM_ACT_CFG5_REG & CY_ACT_USB_ENABLED     )))  ||
  35              		.loc 1 346 0
  36 0000 2F4B     		ldr	r3, .L16
  37 0002 1B78     		ldrb	r3, [r3]	@ zero_extendqisi2
  38 0004 13F0070F 		tst	r3, #7
  39 0008 04D1     		bne	.L2
 347:Generated_Source\PSoC5/CyLib.c ****        (((CY_PM_MODE_CSR_REG & CY_PM_MODE_CSR_MASK) == CY_PM_MODE_CSR_ALT_ACT) &&
  40              		.loc 1 347 0
  41 000a 2E4B     		ldr	r3, .L16+4
  42 000c 1B78     		ldrb	r3, [r3]	@ zero_extendqisi2
 346:Generated_Source\PSoC5/CyLib.c ****        (0u != (CY_LIB_PM_ACT_CFG5_REG & CY_ACT_USB_ENABLED     )))  ||
  43              		.loc 1 346 0
  44 000e 13F0010F 		tst	r3, #1
  45 0012 4CD1     		bne	.L3
  46              	.L2:
 348:Generated_Source\PSoC5/CyLib.c ****        (0u != (CY_LIB_PM_STBY_CFG5_REG & CY_ALT_ACT_USB_ENABLED))))
  47              		.loc 1 348 0
  48 0014 2A4B     		ldr	r3, .L16
  49 0016 1B78     		ldrb	r3, [r3]	@ zero_extendqisi2
 347:Generated_Source\PSoC5/CyLib.c ****        (((CY_PM_MODE_CSR_REG & CY_PM_MODE_CSR_MASK) == CY_PM_MODE_CSR_ALT_ACT) &&
  50              		.loc 1 347 0
  51 0018 03F00703 		and	r3, r3, #7
  52 001c 012B     		cmp	r3, #1
  53 001e 06D1     		bne	.L15
 349:Generated_Source\PSoC5/CyLib.c ****     {
  54              		.loc 1 349 0
  55 0020 294B     		ldr	r3, .L16+8
  56 0022 1B78     		ldrb	r3, [r3]	@ zero_extendqisi2
 348:Generated_Source\PSoC5/CyLib.c ****        (0u != (CY_LIB_PM_STBY_CFG5_REG & CY_ALT_ACT_USB_ENABLED))))
  57              		.loc 1 348 0
  58 0024 13F0010F 		tst	r3, #1
  59 0028 41D1     		bne	.L3
  60 002a 0023     		movs	r3, #0
  61 002c 00E0     		b	.L4
  62              	.L15:
 347:Generated_Source\PSoC5/CyLib.c ****        (((CY_PM_MODE_CSR_REG & CY_PM_MODE_CSR_MASK) == CY_PM_MODE_CSR_ALT_ACT) &&
  63              		.loc 1 347 0
  64 002e 0023     		movs	r3, #0
  65              	.LVL1:
  66              	.L4:
  67              	.LBE5:
  68              	.LBE4:
 369:Generated_Source\PSoC5/CyLib.c ****     uint8 usbPowerOn = CyUSB_PowerOnCheck();
 370:Generated_Source\PSoC5/CyLib.c **** 
 371:Generated_Source\PSoC5/CyLib.c ****     /* If USB is powered */
 372:Generated_Source\PSoC5/CyLib.c ****     if(usbPowerOn == 1u)
 373:Generated_Source\PSoC5/CyLib.c ****     {
 374:Generated_Source\PSoC5/CyLib.c ****         /* Unlock USB write */
 375:Generated_Source\PSoC5/CyLib.c ****         CY_LIB_USB_CR1_REG &= ((uint8)(~CY_LIB_USB_CLK_EN));
 376:Generated_Source\PSoC5/CyLib.c ****     }
 377:Generated_Source\PSoC5/CyLib.c ****     switch(freq)
  69              		.loc 1 377 0
  70 0030 0828     		cmp	r0, #8
  71 0032 43D8     		bhi	.L1
ARM GAS  C:\Users\ingan\AppData\Local\Temp\ccwaQbAc.s 			page 9


  72 0034 DFE800F0 		tbb	[pc, r0]
  73              	.L7:
  74 0038 05       		.byte	(.L6-.L7)/2
  75 0039 0B       		.byte	(.L8-.L7)/2
  76 003a 11       		.byte	(.L9-.L7)/2
  77 003b 17       		.byte	(.L10-.L7)/2
  78 003c 1D       		.byte	(.L11-.L7)/2
  79 003d 23       		.byte	(.L12-.L7)/2
  80 003e 29       		.byte	(.L13-.L7)/2
  81 003f 42       		.byte	(.L1-.L7)/2
  82 0040 2F       		.byte	(.L14-.L7)/2
  83 0041 00       		.p2align 1
  84              	.L6:
 378:Generated_Source\PSoC5/CyLib.c ****     {
 379:Generated_Source\PSoC5/CyLib.c ****     case CY_IMO_FREQ_3MHZ:
 380:Generated_Source\PSoC5/CyLib.c ****         CY_LIB_IMO_TR1_REG = CY_GET_XTND_REG8(CY_LIB_TRIM_IMO_3MHZ_PTR);
  85              		.loc 1 380 0
  86 0042 224B     		ldr	r3, .L16+12
  87 0044 1B78     		ldrb	r3, [r3]	@ zero_extendqisi2
  88 0046 DBB2     		uxtb	r3, r3
  89 0048 214A     		ldr	r2, .L16+16
  90 004a 1370     		strb	r3, [r2]
 381:Generated_Source\PSoC5/CyLib.c ****         break;
  91              		.loc 1 381 0
  92 004c 7047     		bx	lr
  93              	.L8:
 382:Generated_Source\PSoC5/CyLib.c **** 
 383:Generated_Source\PSoC5/CyLib.c ****     case CY_IMO_FREQ_6MHZ:
 384:Generated_Source\PSoC5/CyLib.c ****         CY_LIB_IMO_TR1_REG = CY_GET_XTND_REG8(CY_LIB_TRIM_IMO_6MHZ_PTR);
  94              		.loc 1 384 0
  95 004e 214B     		ldr	r3, .L16+20
  96 0050 1B78     		ldrb	r3, [r3]	@ zero_extendqisi2
  97 0052 DBB2     		uxtb	r3, r3
  98 0054 1E4A     		ldr	r2, .L16+16
  99 0056 1370     		strb	r3, [r2]
 385:Generated_Source\PSoC5/CyLib.c ****         break;
 100              		.loc 1 385 0
 101 0058 7047     		bx	lr
 102              	.L9:
 386:Generated_Source\PSoC5/CyLib.c **** 
 387:Generated_Source\PSoC5/CyLib.c ****     case CY_IMO_FREQ_12MHZ:
 388:Generated_Source\PSoC5/CyLib.c ****         CY_LIB_IMO_TR1_REG = CY_GET_XTND_REG8(CY_LIB_TRIM_IMO_12MHZ_PTR);
 103              		.loc 1 388 0
 104 005a 1F4B     		ldr	r3, .L16+24
 105 005c 1B78     		ldrb	r3, [r3]	@ zero_extendqisi2
 106 005e DBB2     		uxtb	r3, r3
 107 0060 1B4A     		ldr	r2, .L16+16
 108 0062 1370     		strb	r3, [r2]
 389:Generated_Source\PSoC5/CyLib.c ****         break;
 109              		.loc 1 389 0
 110 0064 7047     		bx	lr
 111              	.L10:
 390:Generated_Source\PSoC5/CyLib.c **** 
 391:Generated_Source\PSoC5/CyLib.c ****     case CY_IMO_FREQ_24MHZ:
 392:Generated_Source\PSoC5/CyLib.c ****         CY_LIB_IMO_TR1_REG = CY_GET_XTND_REG8(CY_LIB_TRIM_IMO_24MHZ_PTR);
 112              		.loc 1 392 0
 113 0066 1D4B     		ldr	r3, .L16+28
ARM GAS  C:\Users\ingan\AppData\Local\Temp\ccwaQbAc.s 			page 10


 114 0068 1B78     		ldrb	r3, [r3]	@ zero_extendqisi2
 115 006a DBB2     		uxtb	r3, r3
 116 006c 184A     		ldr	r2, .L16+16
 117 006e 1370     		strb	r3, [r2]
 393:Generated_Source\PSoC5/CyLib.c ****         break;
 118              		.loc 1 393 0
 119 0070 7047     		bx	lr
 120              	.L11:
 394:Generated_Source\PSoC5/CyLib.c **** 
 395:Generated_Source\PSoC5/CyLib.c ****     case CY_IMO_FREQ_48MHZ:
 396:Generated_Source\PSoC5/CyLib.c ****         CY_LIB_IMO_TR1_REG = CY_GET_XTND_REG8(CY_LIB_TRIM_IMO_TR1_PTR);
 121              		.loc 1 396 0
 122 0072 1B4B     		ldr	r3, .L16+32
 123 0074 1B78     		ldrb	r3, [r3]	@ zero_extendqisi2
 124 0076 DBB2     		uxtb	r3, r3
 125 0078 154A     		ldr	r2, .L16+16
 126 007a 1370     		strb	r3, [r2]
 397:Generated_Source\PSoC5/CyLib.c ****         break;
 127              		.loc 1 397 0
 128 007c 7047     		bx	lr
 129              	.L12:
 398:Generated_Source\PSoC5/CyLib.c **** 
 399:Generated_Source\PSoC5/CyLib.c ****     case CY_IMO_FREQ_62MHZ:
 400:Generated_Source\PSoC5/CyLib.c ****         CY_LIB_IMO_TR1_REG = CY_GET_XTND_REG8(CY_LIB_TRIM_IMO_67MHZ_PTR);
 130              		.loc 1 400 0
 131 007e 194B     		ldr	r3, .L16+36
 132 0080 1B78     		ldrb	r3, [r3]	@ zero_extendqisi2
 133 0082 DBB2     		uxtb	r3, r3
 134 0084 124A     		ldr	r2, .L16+16
 135 0086 1370     		strb	r3, [r2]
 401:Generated_Source\PSoC5/CyLib.c ****         break;
 136              		.loc 1 401 0
 137 0088 7047     		bx	lr
 138              	.L13:
 402:Generated_Source\PSoC5/CyLib.c **** 
 403:Generated_Source\PSoC5/CyLib.c **** #if(CY_PSOC5)
 404:Generated_Source\PSoC5/CyLib.c ****     case CY_IMO_FREQ_74MHZ:
 405:Generated_Source\PSoC5/CyLib.c ****         CY_LIB_IMO_TR1_REG = CY_GET_XTND_REG8(CY_LIB_TRIM_IMO_80MHZ_PTR);
 139              		.loc 1 405 0
 140 008a 174B     		ldr	r3, .L16+40
 141 008c 1B78     		ldrb	r3, [r3]	@ zero_extendqisi2
 142 008e DBB2     		uxtb	r3, r3
 143 0090 0F4A     		ldr	r2, .L16+16
 144 0092 1370     		strb	r3, [r2]
 406:Generated_Source\PSoC5/CyLib.c ****         break;
 145              		.loc 1 406 0
 146 0094 7047     		bx	lr
 147              	.L14:
 407:Generated_Source\PSoC5/CyLib.c **** #endif  /* (CY_PSOC5) */
 408:Generated_Source\PSoC5/CyLib.c **** 
 409:Generated_Source\PSoC5/CyLib.c ****     case CY_IMO_FREQ_USB:
 410:Generated_Source\PSoC5/CyLib.c ****         CY_LIB_IMO_TR1_REG = CY_GET_XTND_REG8(CY_LIB_TRIM_IMO_USB_PTR);
 148              		.loc 1 410 0
 149 0096 154A     		ldr	r2, .L16+44
 150 0098 1278     		ldrb	r2, [r2]	@ zero_extendqisi2
 151 009a D2B2     		uxtb	r2, r2
 152 009c 0C49     		ldr	r1, .L16+16
ARM GAS  C:\Users\ingan\AppData\Local\Temp\ccwaQbAc.s 			page 11


 153 009e 0A70     		strb	r2, [r1]
 411:Generated_Source\PSoC5/CyLib.c **** 
 412:Generated_Source\PSoC5/CyLib.c ****         /* If USB is powered */
 413:Generated_Source\PSoC5/CyLib.c ****         if(usbPowerOn == 1u)
 154              		.loc 1 413 0
 155 00a0 63B1     		cbz	r3, .L1
 414:Generated_Source\PSoC5/CyLib.c ****         {
 415:Generated_Source\PSoC5/CyLib.c ****             /* Lock USB Oscillator */
 416:Generated_Source\PSoC5/CyLib.c ****             CY_LIB_USB_CR1_REG |= CY_LIB_USB_CLK_EN;
 156              		.loc 1 416 0
 157 00a2 134A     		ldr	r2, .L16+48
 158 00a4 1378     		ldrb	r3, [r2]	@ zero_extendqisi2
 159 00a6 43F00203 		orr	r3, r3, #2
 160 00aa 1370     		strb	r3, [r2]
 417:Generated_Source\PSoC5/CyLib.c ****         }
 418:Generated_Source\PSoC5/CyLib.c ****         break;
 419:Generated_Source\PSoC5/CyLib.c **** 
 420:Generated_Source\PSoC5/CyLib.c ****     default:
 421:Generated_Source\PSoC5/CyLib.c ****             CYASSERT(0u != 0u);
 422:Generated_Source\PSoC5/CyLib.c ****         break;
 423:Generated_Source\PSoC5/CyLib.c ****     }
 424:Generated_Source\PSoC5/CyLib.c **** 
 425:Generated_Source\PSoC5/CyLib.c **** }
 161              		.loc 1 425 0
 162 00ac 7047     		bx	lr
 163              	.LVL2:
 164              	.L3:
 375:Generated_Source\PSoC5/CyLib.c ****     }
 165              		.loc 1 375 0
 166 00ae 104A     		ldr	r2, .L16+48
 167 00b0 1378     		ldrb	r3, [r2]	@ zero_extendqisi2
 168 00b2 03F0FD03 		and	r3, r3, #253
 169 00b6 1370     		strb	r3, [r2]
 170 00b8 0123     		movs	r3, #1
 171 00ba B9E7     		b	.L4
 172              	.L1:
 173 00bc 7047     		bx	lr
 174              	.L17:
 175 00be 00BF     		.align	2
 176              	.L16:
 177 00c0 93430040 		.word	1073759123
 178 00c4 A5430040 		.word	1073759141
 179 00c8 B5430040 		.word	1073759157
 180 00cc 08010049 		.word	1224737032
 181 00d0 A1460040 		.word	1073759905
 182 00d4 09010049 		.word	1224737033
 183 00d8 0A010049 		.word	1224737034
 184 00dc 0B010049 		.word	1224737035
 185 00e0 89010049 		.word	1224737161
 186 00e4 0C010049 		.word	1224737036
 187 00e8 0D010049 		.word	1224737037
 188 00ec 0F010049 		.word	1224737039
 189 00f0 09600040 		.word	1073766409
 190              		.cfi_endproc
 191              	.LFE7:
 192              		.size	CyIMO_SetTrimValue, .-CyIMO_SetTrimValue
 193              		.section	.text.CyBusClk_Internal_SetDivider,"ax",%progbits
ARM GAS  C:\Users\ingan\AppData\Local\Temp\ccwaQbAc.s 			page 12


 194              		.align	2
 195              		.thumb
 196              		.thumb_func
 197              		.type	CyBusClk_Internal_SetDivider, %function
 198              	CyBusClk_Internal_SetDivider:
 199              	.LFB14:
 426:Generated_Source\PSoC5/CyLib.c **** 
 427:Generated_Source\PSoC5/CyLib.c **** 
 428:Generated_Source\PSoC5/CyLib.c **** /*******************************************************************************
 429:Generated_Source\PSoC5/CyLib.c **** * Function Name: CyIMO_SetFreq
 430:Generated_Source\PSoC5/CyLib.c **** ****************************************************************************//**
 431:Generated_Source\PSoC5/CyLib.c **** *
 432:Generated_Source\PSoC5/CyLib.c **** *  Sets the frequency of the IMO. Changes may be made while the IMO is running.
 433:Generated_Source\PSoC5/CyLib.c **** *
 434:Generated_Source\PSoC5/CyLib.c **** *  \param freq: Frequency of IMO operation
 435:Generated_Source\PSoC5/CyLib.c **** *       CY_IMO_FREQ_3MHZ  to set  3   MHz
 436:Generated_Source\PSoC5/CyLib.c **** *       CY_IMO_FREQ_6MHZ  to set  6   MHz
 437:Generated_Source\PSoC5/CyLib.c **** *       CY_IMO_FREQ_12MHZ to set 12   MHz
 438:Generated_Source\PSoC5/CyLib.c **** *       CY_IMO_FREQ_24MHZ to set 24   MHz
 439:Generated_Source\PSoC5/CyLib.c **** *       CY_IMO_FREQ_48MHZ to set 48   MHz
 440:Generated_Source\PSoC5/CyLib.c **** *       CY_IMO_FREQ_62MHZ to set 62.6 MHz
 441:Generated_Source\PSoC5/CyLib.c **** *       CY_IMO_FREQ_74MHZ to set 74.7 MHz (not applicable for PSoC 3)
 442:Generated_Source\PSoC5/CyLib.c **** *       CY_IMO_FREQ_USB   to set 24   MHz (Trimmed for USB operation)
 443:Generated_Source\PSoC5/CyLib.c **** *
 444:Generated_Source\PSoC5/CyLib.c **** * \sideeffect
 445:Generated_Source\PSoC5/CyLib.c **** *  If this function execution results in the CPU clock frequency increasing,
 446:Generated_Source\PSoC5/CyLib.c **** *  then the number of clock cycles the cache will wait before it samples data
 447:Generated_Source\PSoC5/CyLib.c **** *  coming back from the Flash must be adjusted by calling
 448:Generated_Source\PSoC5/CyLib.c **** *  CyFlash_SetWaitCycles() with an appropriate parameter. It can be optionally
 449:Generated_Source\PSoC5/CyLib.c **** *  called if the CPU clock frequency is lowered in order to improve the CPU
 450:Generated_Source\PSoC5/CyLib.c **** *  performance. See CyFlash_SetWaitCycles() description for more information.
 451:Generated_Source\PSoC5/CyLib.c **** *
 452:Generated_Source\PSoC5/CyLib.c **** *  When the USB setting is chosen, the USB clock locking circuit is enabled.
 453:Generated_Source\PSoC5/CyLib.c **** *  Otherwise this circuit is disabled. The USB block must be powered before
 454:Generated_Source\PSoC5/CyLib.c **** *  selecting the USB setting.
 455:Generated_Source\PSoC5/CyLib.c **** *
 456:Generated_Source\PSoC5/CyLib.c **** *******************************************************************************/
 457:Generated_Source\PSoC5/CyLib.c **** void CyIMO_SetFreq(uint8 freq) 
 458:Generated_Source\PSoC5/CyLib.c **** {
 459:Generated_Source\PSoC5/CyLib.c ****     uint8 currentFreq;
 460:Generated_Source\PSoC5/CyLib.c ****     uint8 nextFreq;
 461:Generated_Source\PSoC5/CyLib.c **** 
 462:Generated_Source\PSoC5/CyLib.c ****     /***************************************************************************
 463:Generated_Source\PSoC5/CyLib.c ****     * If the IMO frequency is changed,the Trim values must also be set
 464:Generated_Source\PSoC5/CyLib.c ****     * accordingly.This requires reading the current frequency. If the new
 465:Generated_Source\PSoC5/CyLib.c ****     * frequency is faster, then set a new trim and then change the frequency,
 466:Generated_Source\PSoC5/CyLib.c ****     * otherwise change the frequency and then set new trim values.
 467:Generated_Source\PSoC5/CyLib.c ****     ***************************************************************************/
 468:Generated_Source\PSoC5/CyLib.c **** 
 469:Generated_Source\PSoC5/CyLib.c ****     currentFreq = CY_LIB_FASTCLK_IMO_CR_REG & ((uint8)(~CY_LIB_FASTCLK_IMO_CR_RANGE_MASK));
 470:Generated_Source\PSoC5/CyLib.c **** 
 471:Generated_Source\PSoC5/CyLib.c ****     /* Check if requested frequency is USB. */
 472:Generated_Source\PSoC5/CyLib.c ****     nextFreq = (freq == CY_IMO_FREQ_USB) ? CY_IMO_FREQ_24MHZ : freq;
 473:Generated_Source\PSoC5/CyLib.c **** 
 474:Generated_Source\PSoC5/CyLib.c ****     switch (currentFreq)
 475:Generated_Source\PSoC5/CyLib.c ****     {
 476:Generated_Source\PSoC5/CyLib.c ****     case 0u:
ARM GAS  C:\Users\ingan\AppData\Local\Temp\ccwaQbAc.s 			page 13


 477:Generated_Source\PSoC5/CyLib.c ****         currentFreq = CY_IMO_FREQ_12MHZ;
 478:Generated_Source\PSoC5/CyLib.c ****         break;
 479:Generated_Source\PSoC5/CyLib.c **** 
 480:Generated_Source\PSoC5/CyLib.c ****     case 1u:
 481:Generated_Source\PSoC5/CyLib.c ****         currentFreq = CY_IMO_FREQ_6MHZ;
 482:Generated_Source\PSoC5/CyLib.c ****         break;
 483:Generated_Source\PSoC5/CyLib.c **** 
 484:Generated_Source\PSoC5/CyLib.c ****     case 2u:
 485:Generated_Source\PSoC5/CyLib.c ****         currentFreq = CY_IMO_FREQ_24MHZ;
 486:Generated_Source\PSoC5/CyLib.c ****         break;
 487:Generated_Source\PSoC5/CyLib.c **** 
 488:Generated_Source\PSoC5/CyLib.c ****     case 3u:
 489:Generated_Source\PSoC5/CyLib.c ****         currentFreq = CY_IMO_FREQ_3MHZ;
 490:Generated_Source\PSoC5/CyLib.c ****         break;
 491:Generated_Source\PSoC5/CyLib.c **** 
 492:Generated_Source\PSoC5/CyLib.c ****     case 4u:
 493:Generated_Source\PSoC5/CyLib.c ****         currentFreq = CY_IMO_FREQ_48MHZ;
 494:Generated_Source\PSoC5/CyLib.c ****         break;
 495:Generated_Source\PSoC5/CyLib.c **** 
 496:Generated_Source\PSoC5/CyLib.c ****     case 5u:
 497:Generated_Source\PSoC5/CyLib.c ****         currentFreq = CY_IMO_FREQ_62MHZ;
 498:Generated_Source\PSoC5/CyLib.c ****         break;
 499:Generated_Source\PSoC5/CyLib.c **** 
 500:Generated_Source\PSoC5/CyLib.c **** #if(CY_PSOC5)
 501:Generated_Source\PSoC5/CyLib.c ****     case 6u:
 502:Generated_Source\PSoC5/CyLib.c ****         currentFreq = CY_IMO_FREQ_74MHZ;
 503:Generated_Source\PSoC5/CyLib.c ****         break;
 504:Generated_Source\PSoC5/CyLib.c **** #endif  /* (CY_PSOC5) */
 505:Generated_Source\PSoC5/CyLib.c **** 
 506:Generated_Source\PSoC5/CyLib.c ****     default:
 507:Generated_Source\PSoC5/CyLib.c ****         CYASSERT(0u != 0u);
 508:Generated_Source\PSoC5/CyLib.c ****         break;
 509:Generated_Source\PSoC5/CyLib.c ****     }
 510:Generated_Source\PSoC5/CyLib.c **** 
 511:Generated_Source\PSoC5/CyLib.c ****     if (nextFreq >= currentFreq)
 512:Generated_Source\PSoC5/CyLib.c ****     {
 513:Generated_Source\PSoC5/CyLib.c ****         /* Set new trim first */
 514:Generated_Source\PSoC5/CyLib.c ****         CyIMO_SetTrimValue(freq);
 515:Generated_Source\PSoC5/CyLib.c ****     }
 516:Generated_Source\PSoC5/CyLib.c **** 
 517:Generated_Source\PSoC5/CyLib.c ****     /* Set usbclk_on bit when using CY_IMO_FREQ_USB, if not clear it */
 518:Generated_Source\PSoC5/CyLib.c ****     switch(freq)
 519:Generated_Source\PSoC5/CyLib.c ****     {
 520:Generated_Source\PSoC5/CyLib.c ****     case CY_IMO_FREQ_3MHZ:
 521:Generated_Source\PSoC5/CyLib.c ****         CY_LIB_FASTCLK_IMO_CR_REG = ((CY_LIB_FASTCLK_IMO_CR_REG & CY_LIB_FASTCLK_IMO_CR_RANGE_MASK)
 522:Generated_Source\PSoC5/CyLib.c ****             CY_LIB_IMO_3MHZ_VALUE) & ((uint8)(~CY_LIB_IMO_USBCLK_ON_SET));
 523:Generated_Source\PSoC5/CyLib.c ****         break;
 524:Generated_Source\PSoC5/CyLib.c **** 
 525:Generated_Source\PSoC5/CyLib.c ****     case CY_IMO_FREQ_6MHZ:
 526:Generated_Source\PSoC5/CyLib.c ****         CY_LIB_FASTCLK_IMO_CR_REG = ((CY_LIB_FASTCLK_IMO_CR_REG & CY_LIB_FASTCLK_IMO_CR_RANGE_MASK)
 527:Generated_Source\PSoC5/CyLib.c ****             CY_LIB_IMO_6MHZ_VALUE) & ((uint8)(~CY_LIB_IMO_USBCLK_ON_SET));
 528:Generated_Source\PSoC5/CyLib.c ****         break;
 529:Generated_Source\PSoC5/CyLib.c **** 
 530:Generated_Source\PSoC5/CyLib.c ****     case CY_IMO_FREQ_12MHZ:
 531:Generated_Source\PSoC5/CyLib.c ****         CY_LIB_FASTCLK_IMO_CR_REG = ((CY_LIB_FASTCLK_IMO_CR_REG & CY_LIB_FASTCLK_IMO_CR_RANGE_MASK)
 532:Generated_Source\PSoC5/CyLib.c ****             CY_LIB_IMO_12MHZ_VALUE) & ((uint8)(~CY_LIB_IMO_USBCLK_ON_SET));
 533:Generated_Source\PSoC5/CyLib.c ****         break;
ARM GAS  C:\Users\ingan\AppData\Local\Temp\ccwaQbAc.s 			page 14


 534:Generated_Source\PSoC5/CyLib.c **** 
 535:Generated_Source\PSoC5/CyLib.c ****     case CY_IMO_FREQ_24MHZ:
 536:Generated_Source\PSoC5/CyLib.c ****         CY_LIB_FASTCLK_IMO_CR_REG = ((CY_LIB_FASTCLK_IMO_CR_REG & CY_LIB_FASTCLK_IMO_CR_RANGE_MASK)
 537:Generated_Source\PSoC5/CyLib.c ****             CY_LIB_IMO_24MHZ_VALUE) & ((uint8)(~CY_LIB_IMO_USBCLK_ON_SET));
 538:Generated_Source\PSoC5/CyLib.c ****         break;
 539:Generated_Source\PSoC5/CyLib.c **** 
 540:Generated_Source\PSoC5/CyLib.c ****     case CY_IMO_FREQ_48MHZ:
 541:Generated_Source\PSoC5/CyLib.c ****         CY_LIB_FASTCLK_IMO_CR_REG = ((CY_LIB_FASTCLK_IMO_CR_REG & CY_LIB_FASTCLK_IMO_CR_RANGE_MASK)
 542:Generated_Source\PSoC5/CyLib.c ****             CY_LIB_IMO_48MHZ_VALUE) & ((uint8)(~CY_LIB_IMO_USBCLK_ON_SET));
 543:Generated_Source\PSoC5/CyLib.c ****         break;
 544:Generated_Source\PSoC5/CyLib.c **** 
 545:Generated_Source\PSoC5/CyLib.c ****     case CY_IMO_FREQ_62MHZ:
 546:Generated_Source\PSoC5/CyLib.c ****         CY_LIB_FASTCLK_IMO_CR_REG = ((CY_LIB_FASTCLK_IMO_CR_REG & CY_LIB_FASTCLK_IMO_CR_RANGE_MASK)
 547:Generated_Source\PSoC5/CyLib.c ****             CY_LIB_IMO_62MHZ_VALUE) & ((uint8)(~CY_LIB_IMO_USBCLK_ON_SET));
 548:Generated_Source\PSoC5/CyLib.c ****         break;
 549:Generated_Source\PSoC5/CyLib.c **** 
 550:Generated_Source\PSoC5/CyLib.c **** #if(CY_PSOC5)
 551:Generated_Source\PSoC5/CyLib.c ****     case CY_IMO_FREQ_74MHZ:
 552:Generated_Source\PSoC5/CyLib.c ****         CY_LIB_FASTCLK_IMO_CR_REG = ((CY_LIB_FASTCLK_IMO_CR_REG & CY_LIB_FASTCLK_IMO_CR_RANGE_MASK)
 553:Generated_Source\PSoC5/CyLib.c ****             CY_LIB_IMO_74MHZ_VALUE) & ((uint8)(~CY_LIB_IMO_USBCLK_ON_SET));
 554:Generated_Source\PSoC5/CyLib.c ****         break;
 555:Generated_Source\PSoC5/CyLib.c **** #endif  /* (CY_PSOC5) */
 556:Generated_Source\PSoC5/CyLib.c **** 
 557:Generated_Source\PSoC5/CyLib.c ****     case CY_IMO_FREQ_USB:
 558:Generated_Source\PSoC5/CyLib.c ****         CY_LIB_FASTCLK_IMO_CR_REG = ((CY_LIB_FASTCLK_IMO_CR_REG & CY_LIB_FASTCLK_IMO_CR_RANGE_MASK)
 559:Generated_Source\PSoC5/CyLib.c ****             CY_LIB_IMO_24MHZ_VALUE) | CY_LIB_IMO_USBCLK_ON_SET;
 560:Generated_Source\PSoC5/CyLib.c ****         break;
 561:Generated_Source\PSoC5/CyLib.c **** 
 562:Generated_Source\PSoC5/CyLib.c ****     default:
 563:Generated_Source\PSoC5/CyLib.c ****         CYASSERT(0u != 0u);
 564:Generated_Source\PSoC5/CyLib.c ****         break;
 565:Generated_Source\PSoC5/CyLib.c ****     }
 566:Generated_Source\PSoC5/CyLib.c **** 
 567:Generated_Source\PSoC5/CyLib.c ****     /* Tu rn onIMO Doubler, if switching to CY_IMO_FREQ_USB */
 568:Generated_Source\PSoC5/CyLib.c ****     if (freq == CY_IMO_FREQ_USB)
 569:Generated_Source\PSoC5/CyLib.c ****     {
 570:Generated_Source\PSoC5/CyLib.c ****         CyIMO_EnableDoubler();
 571:Generated_Source\PSoC5/CyLib.c ****     }
 572:Generated_Source\PSoC5/CyLib.c ****     else
 573:Generated_Source\PSoC5/CyLib.c ****     {
 574:Generated_Source\PSoC5/CyLib.c ****         CyIMO_DisableDoubler();
 575:Generated_Source\PSoC5/CyLib.c ****     }
 576:Generated_Source\PSoC5/CyLib.c **** 
 577:Generated_Source\PSoC5/CyLib.c ****     if (nextFreq < currentFreq)
 578:Generated_Source\PSoC5/CyLib.c ****     {
 579:Generated_Source\PSoC5/CyLib.c ****         /* Set the trim after setting frequency */
 580:Generated_Source\PSoC5/CyLib.c ****         CyIMO_SetTrimValue(freq);
 581:Generated_Source\PSoC5/CyLib.c ****     }
 582:Generated_Source\PSoC5/CyLib.c **** }
 583:Generated_Source\PSoC5/CyLib.c **** 
 584:Generated_Source\PSoC5/CyLib.c **** 
 585:Generated_Source\PSoC5/CyLib.c **** /*******************************************************************************
 586:Generated_Source\PSoC5/CyLib.c **** * Function Name: CyIMO_SetSource
 587:Generated_Source\PSoC5/CyLib.c **** ****************************************************************************//**
 588:Generated_Source\PSoC5/CyLib.c **** *
 589:Generated_Source\PSoC5/CyLib.c **** *  Sets the source of the clock output from the IMO block.
 590:Generated_Source\PSoC5/CyLib.c **** *
ARM GAS  C:\Users\ingan\AppData\Local\Temp\ccwaQbAc.s 			page 15


 591:Generated_Source\PSoC5/CyLib.c **** *  The output from the IMO is by default the IMO itself. Optionally the MHz
 592:Generated_Source\PSoC5/CyLib.c **** *  Crystal or DSI input can be the source of the IMO output instead.
 593:Generated_Source\PSoC5/CyLib.c **** *
 594:Generated_Source\PSoC5/CyLib.c **** *   \param source: CY_IMO_SOURCE_DSI to set the DSI as source.
 595:Generated_Source\PSoC5/CyLib.c **** *           CY_IMO_SOURCE_XTAL to set the MHz as source.
 596:Generated_Source\PSoC5/CyLib.c **** *           CY_IMO_SOURCE_IMO to set the IMO itself.
 597:Generated_Source\PSoC5/CyLib.c **** *
 598:Generated_Source\PSoC5/CyLib.c **** * \sideeffect
 599:Generated_Source\PSoC5/CyLib.c **** *  If this function execution resulted in the CPU clock frequency increasing,
 600:Generated_Source\PSoC5/CyLib.c **** *  then the number of clock cycles the cache will wait before it samples data
 601:Generated_Source\PSoC5/CyLib.c **** *  coming back from the Flash must be adjusted by calling
 602:Generated_Source\PSoC5/CyLib.c **** *  CyFlash_SetWaitCycles() with an appropriate parameter. It can be optionally
 603:Generated_Source\PSoC5/CyLib.c **** *  called if the CPU clock frequency is lowered in order to improve the CPU
 604:Generated_Source\PSoC5/CyLib.c **** *  performance. See CyFlash_SetWaitCycles() description for more information.
 605:Generated_Source\PSoC5/CyLib.c **** *
 606:Generated_Source\PSoC5/CyLib.c **** *******************************************************************************/
 607:Generated_Source\PSoC5/CyLib.c **** void CyIMO_SetSource(uint8 source) 
 608:Generated_Source\PSoC5/CyLib.c **** {
 609:Generated_Source\PSoC5/CyLib.c ****     switch(source)
 610:Generated_Source\PSoC5/CyLib.c ****     {
 611:Generated_Source\PSoC5/CyLib.c ****     case CY_IMO_SOURCE_DSI:
 612:Generated_Source\PSoC5/CyLib.c ****         CY_LIB_CLKDIST_CR_REG     &= ((uint8)(~CY_LIB_CLKDIST_CR_IMO2X));
 613:Generated_Source\PSoC5/CyLib.c ****         CY_LIB_FASTCLK_IMO_CR_REG |= CY_LIB_FASTCLK_IMO_IMO;
 614:Generated_Source\PSoC5/CyLib.c ****         break;
 615:Generated_Source\PSoC5/CyLib.c **** 
 616:Generated_Source\PSoC5/CyLib.c ****     case CY_IMO_SOURCE_XTAL:
 617:Generated_Source\PSoC5/CyLib.c ****         CY_LIB_CLKDIST_CR_REG     |= CY_LIB_CLKDIST_CR_IMO2X;
 618:Generated_Source\PSoC5/CyLib.c ****         CY_LIB_FASTCLK_IMO_CR_REG |= CY_LIB_FASTCLK_IMO_IMO;
 619:Generated_Source\PSoC5/CyLib.c ****         break;
 620:Generated_Source\PSoC5/CyLib.c **** 
 621:Generated_Source\PSoC5/CyLib.c ****     case CY_IMO_SOURCE_IMO:
 622:Generated_Source\PSoC5/CyLib.c ****         CY_LIB_FASTCLK_IMO_CR_REG &= ((uint8)(~CY_LIB_FASTCLK_IMO_IMO));
 623:Generated_Source\PSoC5/CyLib.c ****         break;
 624:Generated_Source\PSoC5/CyLib.c **** 
 625:Generated_Source\PSoC5/CyLib.c ****     default:
 626:Generated_Source\PSoC5/CyLib.c ****         /* Incorrect source value */
 627:Generated_Source\PSoC5/CyLib.c ****         CYASSERT(0u != 0u);
 628:Generated_Source\PSoC5/CyLib.c ****         break;
 629:Generated_Source\PSoC5/CyLib.c ****     }
 630:Generated_Source\PSoC5/CyLib.c **** }
 631:Generated_Source\PSoC5/CyLib.c **** 
 632:Generated_Source\PSoC5/CyLib.c **** 
 633:Generated_Source\PSoC5/CyLib.c **** /*******************************************************************************
 634:Generated_Source\PSoC5/CyLib.c **** * Function Name: CyIMO_EnableDoubler
 635:Generated_Source\PSoC5/CyLib.c **** ****************************************************************************//**
 636:Generated_Source\PSoC5/CyLib.c **** *
 637:Generated_Source\PSoC5/CyLib.c **** *  Enables the IMO doubler.  The 2x frequency clock is used to convert a 24 MHz
 638:Generated_Source\PSoC5/CyLib.c **** *  input to a 48 MHz output for use by the USB block.
 639:Generated_Source\PSoC5/CyLib.c **** *
 640:Generated_Source\PSoC5/CyLib.c **** *******************************************************************************/
 641:Generated_Source\PSoC5/CyLib.c **** void CyIMO_EnableDoubler(void) 
 642:Generated_Source\PSoC5/CyLib.c **** {
 643:Generated_Source\PSoC5/CyLib.c ****     /* Set FASTCLK_IMO_CR_PTR regigster's 4th bit */
 644:Generated_Source\PSoC5/CyLib.c ****     CY_LIB_FASTCLK_IMO_CR_REG |= CY_LIB_FASTCLK_IMO_DOUBLER;
 645:Generated_Source\PSoC5/CyLib.c **** }
 646:Generated_Source\PSoC5/CyLib.c **** 
 647:Generated_Source\PSoC5/CyLib.c **** 
ARM GAS  C:\Users\ingan\AppData\Local\Temp\ccwaQbAc.s 			page 16


 648:Generated_Source\PSoC5/CyLib.c **** /*******************************************************************************
 649:Generated_Source\PSoC5/CyLib.c **** * Function Name: CyIMO_DisableDoubler
 650:Generated_Source\PSoC5/CyLib.c **** ****************************************************************************//**
 651:Generated_Source\PSoC5/CyLib.c **** *
 652:Generated_Source\PSoC5/CyLib.c **** *   Disables the IMO doubler.
 653:Generated_Source\PSoC5/CyLib.c **** *
 654:Generated_Source\PSoC5/CyLib.c **** *******************************************************************************/
 655:Generated_Source\PSoC5/CyLib.c **** void CyIMO_DisableDoubler(void) 
 656:Generated_Source\PSoC5/CyLib.c **** {
 657:Generated_Source\PSoC5/CyLib.c ****     CY_LIB_FASTCLK_IMO_CR_REG &= ((uint8)(~CY_LIB_FASTCLK_IMO_DOUBLER));
 658:Generated_Source\PSoC5/CyLib.c **** }
 659:Generated_Source\PSoC5/CyLib.c **** 
 660:Generated_Source\PSoC5/CyLib.c **** 
 661:Generated_Source\PSoC5/CyLib.c **** /*******************************************************************************
 662:Generated_Source\PSoC5/CyLib.c **** * Function Name: CyMasterClk_SetSource
 663:Generated_Source\PSoC5/CyLib.c **** ****************************************************************************//**
 664:Generated_Source\PSoC5/CyLib.c **** *
 665:Generated_Source\PSoC5/CyLib.c **** *  Sets the source of the master clock.
 666:Generated_Source\PSoC5/CyLib.c **** *
 667:Generated_Source\PSoC5/CyLib.c **** *   \param source: One of the four available Master clock sources.
 668:Generated_Source\PSoC5/CyLib.c **** *     CY_MASTER_SOURCE_IMO
 669:Generated_Source\PSoC5/CyLib.c **** *     CY_MASTER_SOURCE_PLL
 670:Generated_Source\PSoC5/CyLib.c **** *     CY_MASTER_SOURCE_XTAL
 671:Generated_Source\PSoC5/CyLib.c **** *     CY_MASTER_SOURCE_DSI
 672:Generated_Source\PSoC5/CyLib.c **** *
 673:Generated_Source\PSoC5/CyLib.c **** * \sideeffect
 674:Generated_Source\PSoC5/CyLib.c **** *  The current source and the new source must both be running and stable before
 675:Generated_Source\PSoC5/CyLib.c **** *  calling this function.
 676:Generated_Source\PSoC5/CyLib.c **** *
 677:Generated_Source\PSoC5/CyLib.c **** *  If this function execution resulted in the CPU clock frequency increasing,
 678:Generated_Source\PSoC5/CyLib.c **** *  then the number of clock cycles the cache will wait before it samples data
 679:Generated_Source\PSoC5/CyLib.c **** *  coming back from the Flash must be adjusted by calling
 680:Generated_Source\PSoC5/CyLib.c **** *  CyFlash_SetWaitCycles() with an appropriate parameter. It can be optionally
 681:Generated_Source\PSoC5/CyLib.c **** *  called if the CPU clock frequency is lowered in order to improve the CPU
 682:Generated_Source\PSoC5/CyLib.c **** *  performance. See CyFlash_SetWaitCycles() description for more information.
 683:Generated_Source\PSoC5/CyLib.c **** *
 684:Generated_Source\PSoC5/CyLib.c **** *******************************************************************************/
 685:Generated_Source\PSoC5/CyLib.c **** void CyMasterClk_SetSource(uint8 source) 
 686:Generated_Source\PSoC5/CyLib.c **** {
 687:Generated_Source\PSoC5/CyLib.c ****     CY_LIB_CLKDIST_MSTR1_REG = (CY_LIB_CLKDIST_MSTR1_REG & MASTER_CLK_SRC_CLEAR) |
 688:Generated_Source\PSoC5/CyLib.c ****                                 (source & ((uint8)(~MASTER_CLK_SRC_CLEAR)));
 689:Generated_Source\PSoC5/CyLib.c **** }
 690:Generated_Source\PSoC5/CyLib.c **** 
 691:Generated_Source\PSoC5/CyLib.c **** 
 692:Generated_Source\PSoC5/CyLib.c **** /*******************************************************************************
 693:Generated_Source\PSoC5/CyLib.c **** * Function Name: CyMasterClk_SetDivider
 694:Generated_Source\PSoC5/CyLib.c **** ****************************************************************************//**
 695:Generated_Source\PSoC5/CyLib.c **** *
 696:Generated_Source\PSoC5/CyLib.c **** *  Sets the divider value used to generate Master Clock.
 697:Generated_Source\PSoC5/CyLib.c **** *
 698:Generated_Source\PSoC5/CyLib.c **** *  \param uint8 divider:
 699:Generated_Source\PSoC5/CyLib.c **** *   The valid range is [0-255]. The clock will be divided by this value + 1.
 700:Generated_Source\PSoC5/CyLib.c **** *   For example to divide this parameter by two should be set to 1.
 701:Generated_Source\PSoC5/CyLib.c **** *
 702:Generated_Source\PSoC5/CyLib.c **** * \sideeffect
 703:Generated_Source\PSoC5/CyLib.c **** *  If this function execution resulted in the CPU clock frequency increasing,
 704:Generated_Source\PSoC5/CyLib.c **** *  then the number of clock cycles the cache will wait before it samples data
ARM GAS  C:\Users\ingan\AppData\Local\Temp\ccwaQbAc.s 			page 17


 705:Generated_Source\PSoC5/CyLib.c **** *  coming back from the Flash must be adjusted by calling
 706:Generated_Source\PSoC5/CyLib.c **** *  CyFlash_SetWaitCycles() with an appropriate parameter. It can be optionally
 707:Generated_Source\PSoC5/CyLib.c **** *  called if the CPU clock frequency is lowered in order to improve the CPU
 708:Generated_Source\PSoC5/CyLib.c **** *  performance. See CyFlash_SetWaitCycles() description for more information.
 709:Generated_Source\PSoC5/CyLib.c **** *
 710:Generated_Source\PSoC5/CyLib.c **** *  When changing the Master or Bus clock divider value from div-by-n to div-by-1
 711:Generated_Source\PSoC5/CyLib.c **** *  the first clock cycle output after the div-by-1 can be up to 4 ns shorter
 712:Generated_Source\PSoC5/CyLib.c **** *  than the final/expected div-by-1 period.
 713:Generated_Source\PSoC5/CyLib.c **** *
 714:Generated_Source\PSoC5/CyLib.c **** *******************************************************************************/
 715:Generated_Source\PSoC5/CyLib.c **** void CyMasterClk_SetDivider(uint8 divider) 
 716:Generated_Source\PSoC5/CyLib.c **** {
 717:Generated_Source\PSoC5/CyLib.c ****     CY_LIB_CLKDIST_MSTR0_REG = divider;
 718:Generated_Source\PSoC5/CyLib.c **** }
 719:Generated_Source\PSoC5/CyLib.c **** 
 720:Generated_Source\PSoC5/CyLib.c **** 
 721:Generated_Source\PSoC5/CyLib.c **** /*******************************************************************************
 722:Generated_Source\PSoC5/CyLib.c **** * Function Name: CyBusClk_Internal_SetDivider
 723:Generated_Source\PSoC5/CyLib.c **** ****************************************************************************//**
 724:Generated_Source\PSoC5/CyLib.c **** *
 725:Generated_Source\PSoC5/CyLib.c **** *  The function used by CyBusClk_SetDivider(). For internal use only.
 726:Generated_Source\PSoC5/CyLib.c **** *
 727:Generated_Source\PSoC5/CyLib.c **** *   \param divider: Valid range [0-65535].
 728:Generated_Source\PSoC5/CyLib.c **** *   The clock will be divided by this value + 1.
 729:Generated_Source\PSoC5/CyLib.c **** *   For example, to divide this parameter by two should be set to 1.
 730:Generated_Source\PSoC5/CyLib.c **** *
 731:Generated_Source\PSoC5/CyLib.c **** *******************************************************************************/
 732:Generated_Source\PSoC5/CyLib.c **** static void CyBusClk_Internal_SetDivider(uint16 divider)
 733:Generated_Source\PSoC5/CyLib.c **** {
 200              		.loc 1 733 0
 201              		.cfi_startproc
 202              		@ args = 0, pretend = 0, frame = 0
 203              		@ frame_needed = 0, uses_anonymous_args = 0
 204              		@ link register save eliminated.
 205              	.LVL3:
 734:Generated_Source\PSoC5/CyLib.c ****     /* Mask bits to enable shadow loads  */
 735:Generated_Source\PSoC5/CyLib.c ****     CY_LIB_CLKDIST_AMASK_REG &= CY_LIB_CLKDIST_AMASK_MASK;
 206              		.loc 1 735 0
 207 0000 0C4A     		ldr	r2, .L19
 208 0002 1378     		ldrb	r3, [r2]	@ zero_extendqisi2
 209 0004 03F0F003 		and	r3, r3, #240
 210 0008 1370     		strb	r3, [r2]
 736:Generated_Source\PSoC5/CyLib.c ****     CY_LIB_CLKDIST_DMASK_REG  = CY_LIB_CLKDIST_DMASK_MASK;
 211              		.loc 1 736 0
 212 000a 0022     		movs	r2, #0
 213 000c 0A4B     		ldr	r3, .L19+4
 214 000e 1A70     		strb	r2, [r3]
 737:Generated_Source\PSoC5/CyLib.c **** 
 738:Generated_Source\PSoC5/CyLib.c ****     /* Enable mask bits to enable shadow loads */
 739:Generated_Source\PSoC5/CyLib.c ****     CY_LIB_CLKDIST_BCFG2_REG |= CY_LIB_CLKDIST_BCFG2_MASK;
 215              		.loc 1 739 0
 216 0010 0A4A     		ldr	r2, .L19+8
 217 0012 1378     		ldrb	r3, [r2]	@ zero_extendqisi2
 218 0014 43F08003 		orr	r3, r3, #128
 219 0018 1370     		strb	r3, [r2]
 740:Generated_Source\PSoC5/CyLib.c **** 
 741:Generated_Source\PSoC5/CyLib.c ****     /* Update Shadow Divider Value Register with new divider */
ARM GAS  C:\Users\ingan\AppData\Local\Temp\ccwaQbAc.s 			page 18


 742:Generated_Source\PSoC5/CyLib.c ****     CY_LIB_CLKDIST_WRK_LSB_REG = LO8(divider);
 220              		.loc 1 742 0
 221 001a C2B2     		uxtb	r2, r0
 222 001c 084B     		ldr	r3, .L19+12
 223 001e 1A70     		strb	r2, [r3]
 743:Generated_Source\PSoC5/CyLib.c ****     CY_LIB_CLKDIST_WRK_MSB_REG = HI8(divider);
 224              		.loc 1 743 0
 225 0020 000A     		lsrs	r0, r0, #8
 226              	.LVL4:
 227 0022 0133     		adds	r3, r3, #1
 228 0024 1870     		strb	r0, [r3]
 744:Generated_Source\PSoC5/CyLib.c **** 
 745:Generated_Source\PSoC5/CyLib.c **** 
 746:Generated_Source\PSoC5/CyLib.c ****     /***************************************************************************
 747:Generated_Source\PSoC5/CyLib.c ****     * Copy shadow value defined in Shadow Divider Value Register
 748:Generated_Source\PSoC5/CyLib.c ****     * (CY_LIB_CLKDIST_WRK_LSB_REG and CY_LIB_CLKDIST_WRK_MSB_REG) to all
 749:Generated_Source\PSoC5/CyLib.c ****     * dividers selected in Analog and Digital Clock Mask Registers
 750:Generated_Source\PSoC5/CyLib.c ****     * (CY_LIB_CLKDIST_AMASK_REG and CY_LIB_CLKDIST_DMASK_REG).
 751:Generated_Source\PSoC5/CyLib.c ****     ***************************************************************************/
 752:Generated_Source\PSoC5/CyLib.c ****     CY_LIB_CLKDIST_LD_REG |= CY_LIB_CLKDIST_LD_LOAD;
 229              		.loc 1 752 0
 230 0026 074A     		ldr	r2, .L19+16
 231 0028 1378     		ldrb	r3, [r2]	@ zero_extendqisi2
 232 002a 43F00103 		orr	r3, r3, #1
 233 002e 1370     		strb	r3, [r2]
 234 0030 7047     		bx	lr
 235              	.L20:
 236 0032 00BF     		.align	2
 237              	.L19:
 238 0034 14400040 		.word	1073758228
 239 0038 10400040 		.word	1073758224
 240 003c 08400040 		.word	1073758216
 241 0040 02400040 		.word	1073758210
 242 0044 01400040 		.word	1073758209
 243              		.cfi_endproc
 244              	.LFE14:
 245              		.size	CyBusClk_Internal_SetDivider, .-CyBusClk_Internal_SetDivider
 246              		.section	.text.CyPLL_OUT_Stop,"ax",%progbits
 247              		.align	2
 248              		.global	CyPLL_OUT_Stop
 249              		.thumb
 250              		.thumb_func
 251              		.type	CyPLL_OUT_Stop, %function
 252              	CyPLL_OUT_Stop:
 253              	.LFB1:
 155:Generated_Source\PSoC5/CyLib.c ****     CY_CLK_PLL_CFG0_REG &= ((uint8)(~CY_CLK_PLL_ENABLE));
 254              		.loc 1 155 0
 255              		.cfi_startproc
 256              		@ args = 0, pretend = 0, frame = 0
 257              		@ frame_needed = 0, uses_anonymous_args = 0
 258              		@ link register save eliminated.
 156:Generated_Source\PSoC5/CyLib.c **** }
 259              		.loc 1 156 0
 260 0000 024A     		ldr	r2, .L22
 261 0002 1378     		ldrb	r3, [r2]	@ zero_extendqisi2
 262 0004 03F0FE03 		and	r3, r3, #254
 263 0008 1370     		strb	r3, [r2]
ARM GAS  C:\Users\ingan\AppData\Local\Temp\ccwaQbAc.s 			page 19


 264 000a 7047     		bx	lr
 265              	.L23:
 266              		.align	2
 267              	.L22:
 268 000c 20420040 		.word	1073758752
 269              		.cfi_endproc
 270              	.LFE1:
 271              		.size	CyPLL_OUT_Stop, .-CyPLL_OUT_Stop
 272              		.section	.text.CyPLL_OUT_SetPQ,"ax",%progbits
 273              		.align	2
 274              		.global	CyPLL_OUT_SetPQ
 275              		.thumb
 276              		.thumb_func
 277              		.type	CyPLL_OUT_SetPQ, %function
 278              	CyPLL_OUT_SetPQ:
 279              	.LFB2:
 188:Generated_Source\PSoC5/CyLib.c ****     /* Halt CPU in debug mode if PLL is enabled */
 280              		.loc 1 188 0
 281              		.cfi_startproc
 282              		@ args = 0, pretend = 0, frame = 0
 283              		@ frame_needed = 0, uses_anonymous_args = 0
 284              		@ link register save eliminated.
 285              	.LVL5:
 192:Generated_Source\PSoC5/CyLib.c ****        (qDiv    <= CY_CLK_PLL_MAX_Q_VALUE  ) && (qDiv    >= CY_CLK_PLL_MIN_Q_VALUE  ) &&
 286              		.loc 1 192 0
 287 0000 0728     		cmp	r0, #7
 288 0002 13D9     		bls	.L24
 193:Generated_Source\PSoC5/CyLib.c ****        (current >= CY_CLK_PLL_MIN_CUR_VALUE) && (current <= CY_CLK_PLL_MAX_CUR_VALUE))
 289              		.loc 1 193 0
 290 0004 0139     		subs	r1, r1, #1
 291              	.LVL6:
 292 0006 C9B2     		uxtb	r1, r1
 293 0008 0F29     		cmp	r1, #15
 294 000a 0FD8     		bhi	.L24
 193:Generated_Source\PSoC5/CyLib.c ****        (current >= CY_CLK_PLL_MIN_CUR_VALUE) && (current <= CY_CLK_PLL_MAX_CUR_VALUE))
 295              		.loc 1 193 0 is_stmt 0 discriminator 1
 296 000c 013A     		subs	r2, r2, #1
 297              	.LVL7:
 298 000e D2B2     		uxtb	r2, r2
 299 0010 062A     		cmp	r2, #6
 300 0012 0BD8     		bhi	.L24
 197:Generated_Source\PSoC5/CyLib.c ****         CY_CLK_PLL_Q_REG = ((uint8)(qDiv - 1u));
 301              		.loc 1 197 0 is_stmt 1
 302 0014 064B     		ldr	r3, .L26
 303 0016 1870     		strb	r0, [r3]
 198:Generated_Source\PSoC5/CyLib.c ****         CY_CLK_PLL_CFG1_REG = (CY_CLK_PLL_CFG1_REG & CY_CLK_PLL_CURRENT_MASK) |
 304              		.loc 1 198 0
 305 0018 0133     		adds	r3, r3, #1
 306 001a 1970     		strb	r1, [r3]
 199:Generated_Source\PSoC5/CyLib.c ****                                 ((uint8)(((uint8)(current - 1u)) << CY_CLK_PLL_CURRENT_POSITION));
 307              		.loc 1 199 0
 308 001c 0549     		ldr	r1, .L26+4
 309 001e 0B78     		ldrb	r3, [r1]	@ zero_extendqisi2
 310 0020 03F08F03 		and	r3, r3, #143
 311 0024 43EA0212 		orr	r2, r3, r2, lsl #4
 312 0028 D2B2     		uxtb	r2, r2
 313 002a 0A70     		strb	r2, [r1]
ARM GAS  C:\Users\ingan\AppData\Local\Temp\ccwaQbAc.s 			page 20


 314              	.L24:
 315 002c 7047     		bx	lr
 316              	.L27:
 317 002e 00BF     		.align	2
 318              	.L26:
 319 0030 22420040 		.word	1073758754
 320 0034 21420040 		.word	1073758753
 321              		.cfi_endproc
 322              	.LFE2:
 323              		.size	CyPLL_OUT_SetPQ, .-CyPLL_OUT_SetPQ
 324              		.section	.text.CyPLL_OUT_SetSource,"ax",%progbits
 325              		.align	2
 326              		.global	CyPLL_OUT_SetSource
 327              		.thumb
 328              		.thumb_func
 329              		.type	CyPLL_OUT_SetSource, %function
 330              	CyPLL_OUT_SetSource:
 331              	.LFB3:
 238:Generated_Source\PSoC5/CyLib.c ****     /* Halt CPU in debug mode if PLL is enabled */
 332              		.loc 1 238 0
 333              		.cfi_startproc
 334              		@ args = 0, pretend = 0, frame = 0
 335              		@ frame_needed = 0, uses_anonymous_args = 0
 336              		@ link register save eliminated.
 337              	.LVL8:
 242:Generated_Source\PSoC5/CyLib.c ****     {
 338              		.loc 1 242 0
 339 0000 0228     		cmp	r0, #2
 340 0002 06D8     		bhi	.L28
 247:Generated_Source\PSoC5/CyLib.c ****         break;
 341              		.loc 1 247 0
 342 0004 4FF04022 		mov	r2, #1073758208
 343 0008 1378     		ldrb	r3, [r2]	@ zero_extendqisi2
 344 000a 03F0FC03 		and	r3, r3, #252
 345 000e 1843     		orrs	r0, r0, r3
 346              	.LVL9:
 347 0010 1070     		strb	r0, [r2]
 348              	.L28:
 349 0012 7047     		bx	lr
 350              		.cfi_endproc
 351              	.LFE3:
 352              		.size	CyPLL_OUT_SetSource, .-CyPLL_OUT_SetSource
 353              		.section	.text.CyIMO_Stop,"ax",%progbits
 354              		.align	2
 355              		.global	CyIMO_Stop
 356              		.thumb
 357              		.thumb_func
 358              		.type	CyIMO_Stop, %function
 359              	CyIMO_Stop:
 360              	.LFB5:
 325:Generated_Source\PSoC5/CyLib.c ****     CY_LIB_PM_ACT_CFG0_REG  &= ((uint8) (~CY_LIB_PM_ACT_CFG0_IMO_EN));
 361              		.loc 1 325 0
 362              		.cfi_startproc
 363              		@ args = 0, pretend = 0, frame = 0
 364              		@ frame_needed = 0, uses_anonymous_args = 0
 365              		@ link register save eliminated.
 326:Generated_Source\PSoC5/CyLib.c ****     CY_LIB_PM_STBY_CFG0_REG &= ((uint8) (~CY_LIB_PM_STBY_CFG0_IMO_EN));
ARM GAS  C:\Users\ingan\AppData\Local\Temp\ccwaQbAc.s 			page 21


 366              		.loc 1 326 0
 367 0000 054A     		ldr	r2, .L32
 368 0002 1378     		ldrb	r3, [r2]	@ zero_extendqisi2
 369 0004 03F0EF03 		and	r3, r3, #239
 370 0008 1370     		strb	r3, [r2]
 327:Generated_Source\PSoC5/CyLib.c **** }
 371              		.loc 1 327 0
 372 000a 1032     		adds	r2, r2, #16
 373 000c 1378     		ldrb	r3, [r2]	@ zero_extendqisi2
 374 000e 03F0EF03 		and	r3, r3, #239
 375 0012 1370     		strb	r3, [r2]
 376 0014 7047     		bx	lr
 377              	.L33:
 378 0016 00BF     		.align	2
 379              	.L32:
 380 0018 A0430040 		.word	1073759136
 381              		.cfi_endproc
 382              	.LFE5:
 383              		.size	CyIMO_Stop, .-CyIMO_Stop
 384              		.section	.text.CyIMO_SetSource,"ax",%progbits
 385              		.align	2
 386              		.global	CyIMO_SetSource
 387              		.thumb
 388              		.thumb_func
 389              		.type	CyIMO_SetSource, %function
 390              	CyIMO_SetSource:
 391              	.LFB9:
 608:Generated_Source\PSoC5/CyLib.c ****     switch(source)
 392              		.loc 1 608 0
 393              		.cfi_startproc
 394              		@ args = 0, pretend = 0, frame = 0
 395              		@ frame_needed = 0, uses_anonymous_args = 0
 396              		@ link register save eliminated.
 397              	.LVL10:
 609:Generated_Source\PSoC5/CyLib.c ****     {
 398              		.loc 1 609 0
 399 0000 0128     		cmp	r0, #1
 400 0002 0FD0     		beq	.L36
 401 0004 D8B1     		cbz	r0, .L37
 402 0006 0228     		cmp	r0, #2
 403 0008 1ED1     		bne	.L34
 612:Generated_Source\PSoC5/CyLib.c ****         CY_LIB_FASTCLK_IMO_CR_REG |= CY_LIB_FASTCLK_IMO_IMO;
 404              		.loc 1 612 0
 405 000a 4FF04022 		mov	r2, #1073758208
 406 000e 1378     		ldrb	r3, [r2]	@ zero_extendqisi2
 407 0010 03F0BF03 		and	r3, r3, #191
 408 0014 1370     		strb	r3, [r2]
 613:Generated_Source\PSoC5/CyLib.c ****         break;
 409              		.loc 1 613 0
 410 0016 02F50072 		add	r2, r2, #512
 411 001a 1378     		ldrb	r3, [r2]	@ zero_extendqisi2
 412 001c 43F02003 		orr	r3, r3, #32
 413 0020 1370     		strb	r3, [r2]
 614:Generated_Source\PSoC5/CyLib.c **** 
 414              		.loc 1 614 0
 415 0022 7047     		bx	lr
 416              	.L36:
ARM GAS  C:\Users\ingan\AppData\Local\Temp\ccwaQbAc.s 			page 22


 617:Generated_Source\PSoC5/CyLib.c ****         CY_LIB_FASTCLK_IMO_CR_REG |= CY_LIB_FASTCLK_IMO_IMO;
 417              		.loc 1 617 0
 418 0024 4FF04022 		mov	r2, #1073758208
 419 0028 1378     		ldrb	r3, [r2]	@ zero_extendqisi2
 420 002a 43F04003 		orr	r3, r3, #64
 421 002e 1370     		strb	r3, [r2]
 618:Generated_Source\PSoC5/CyLib.c ****         break;
 422              		.loc 1 618 0
 423 0030 02F50072 		add	r2, r2, #512
 424 0034 1378     		ldrb	r3, [r2]	@ zero_extendqisi2
 425 0036 43F02003 		orr	r3, r3, #32
 426 003a 1370     		strb	r3, [r2]
 619:Generated_Source\PSoC5/CyLib.c **** 
 427              		.loc 1 619 0
 428 003c 7047     		bx	lr
 429              	.L37:
 622:Generated_Source\PSoC5/CyLib.c ****         break;
 430              		.loc 1 622 0
 431 003e 034A     		ldr	r2, .L39
 432 0040 1378     		ldrb	r3, [r2]	@ zero_extendqisi2
 433 0042 03F0DF03 		and	r3, r3, #223
 434 0046 1370     		strb	r3, [r2]
 435              	.L34:
 436 0048 7047     		bx	lr
 437              	.L40:
 438 004a 00BF     		.align	2
 439              	.L39:
 440 004c 00420040 		.word	1073758720
 441              		.cfi_endproc
 442              	.LFE9:
 443              		.size	CyIMO_SetSource, .-CyIMO_SetSource
 444              		.section	.text.CyIMO_EnableDoubler,"ax",%progbits
 445              		.align	2
 446              		.global	CyIMO_EnableDoubler
 447              		.thumb
 448              		.thumb_func
 449              		.type	CyIMO_EnableDoubler, %function
 450              	CyIMO_EnableDoubler:
 451              	.LFB10:
 642:Generated_Source\PSoC5/CyLib.c ****     /* Set FASTCLK_IMO_CR_PTR regigster's 4th bit */
 452              		.loc 1 642 0
 453              		.cfi_startproc
 454              		@ args = 0, pretend = 0, frame = 0
 455              		@ frame_needed = 0, uses_anonymous_args = 0
 456              		@ link register save eliminated.
 644:Generated_Source\PSoC5/CyLib.c **** }
 457              		.loc 1 644 0
 458 0000 024A     		ldr	r2, .L42
 459 0002 1378     		ldrb	r3, [r2]	@ zero_extendqisi2
 460 0004 43F01003 		orr	r3, r3, #16
 461 0008 1370     		strb	r3, [r2]
 462 000a 7047     		bx	lr
 463              	.L43:
 464              		.align	2
 465              	.L42:
 466 000c 00420040 		.word	1073758720
 467              		.cfi_endproc
ARM GAS  C:\Users\ingan\AppData\Local\Temp\ccwaQbAc.s 			page 23


 468              	.LFE10:
 469              		.size	CyIMO_EnableDoubler, .-CyIMO_EnableDoubler
 470              		.section	.text.CyIMO_DisableDoubler,"ax",%progbits
 471              		.align	2
 472              		.global	CyIMO_DisableDoubler
 473              		.thumb
 474              		.thumb_func
 475              		.type	CyIMO_DisableDoubler, %function
 476              	CyIMO_DisableDoubler:
 477              	.LFB11:
 656:Generated_Source\PSoC5/CyLib.c ****     CY_LIB_FASTCLK_IMO_CR_REG &= ((uint8)(~CY_LIB_FASTCLK_IMO_DOUBLER));
 478              		.loc 1 656 0
 479              		.cfi_startproc
 480              		@ args = 0, pretend = 0, frame = 0
 481              		@ frame_needed = 0, uses_anonymous_args = 0
 482              		@ link register save eliminated.
 657:Generated_Source\PSoC5/CyLib.c **** }
 483              		.loc 1 657 0
 484 0000 024A     		ldr	r2, .L45
 485 0002 1378     		ldrb	r3, [r2]	@ zero_extendqisi2
 486 0004 03F0EF03 		and	r3, r3, #239
 487 0008 1370     		strb	r3, [r2]
 488 000a 7047     		bx	lr
 489              	.L46:
 490              		.align	2
 491              	.L45:
 492 000c 00420040 		.word	1073758720
 493              		.cfi_endproc
 494              	.LFE11:
 495              		.size	CyIMO_DisableDoubler, .-CyIMO_DisableDoubler
 496              		.section	.text.CyIMO_SetFreq,"ax",%progbits
 497              		.align	2
 498              		.global	CyIMO_SetFreq
 499              		.thumb
 500              		.thumb_func
 501              		.type	CyIMO_SetFreq, %function
 502              	CyIMO_SetFreq:
 503              	.LFB8:
 458:Generated_Source\PSoC5/CyLib.c ****     uint8 currentFreq;
 504              		.loc 1 458 0
 505              		.cfi_startproc
 506              		@ args = 0, pretend = 0, frame = 0
 507              		@ frame_needed = 0, uses_anonymous_args = 0
 508              	.LVL11:
 509 0000 70B5     		push	{r4, r5, r6, lr}
 510              		.cfi_def_cfa_offset 16
 511              		.cfi_offset 4, -16
 512              		.cfi_offset 5, -12
 513              		.cfi_offset 6, -8
 514              		.cfi_offset 14, -4
 515 0002 0546     		mov	r5, r0
 469:Generated_Source\PSoC5/CyLib.c **** 
 516              		.loc 1 469 0
 517 0004 354B     		ldr	r3, .L72
 518 0006 1C78     		ldrb	r4, [r3]	@ zero_extendqisi2
 519 0008 04F00704 		and	r4, r4, #7
 520              	.LVL12:
ARM GAS  C:\Users\ingan\AppData\Local\Temp\ccwaQbAc.s 			page 24


 472:Generated_Source\PSoC5/CyLib.c **** 
 521              		.loc 1 472 0
 522 000c 0828     		cmp	r0, #8
 523 000e 14BF     		ite	ne
 524 0010 0646     		movne	r6, r0
 525 0012 0326     		moveq	r6, #3
 526              	.LVL13:
 474:Generated_Source\PSoC5/CyLib.c ****     {
 527              		.loc 1 474 0
 528 0014 022C     		cmp	r4, #2
 529 0016 05D0     		beq	.L50
 474:Generated_Source\PSoC5/CyLib.c ****     {
 530              		.loc 1 474 0 is_stmt 0 discriminator 4
 531 0018 032C     		cmp	r4, #3
 532 001a 07D0     		beq	.L70
 477:Generated_Source\PSoC5/CyLib.c ****         break;
 533              		.loc 1 477 0 is_stmt 1 discriminator 4
 534 001c 002C     		cmp	r4, #0
 535 001e 08BF     		it	eq
 536 0020 0224     		moveq	r4, #2
 537              	.LVL14:
 538 0022 00E0     		b	.L49
 539              	.LVL15:
 540              	.L50:
 485:Generated_Source\PSoC5/CyLib.c ****         break;
 541              		.loc 1 485 0
 542 0024 0324     		movs	r4, #3
 543              	.LVL16:
 544              	.L49:
 511:Generated_Source\PSoC5/CyLib.c ****     {
 545              		.loc 1 511 0
 546 0026 B442     		cmp	r4, r6
 547 0028 04D8     		bhi	.L53
 548 002a 00E0     		b	.L51
 549              	.L70:
 489:Generated_Source\PSoC5/CyLib.c ****         break;
 550              		.loc 1 489 0
 551 002c 0024     		movs	r4, #0
 552              	.LVL17:
 553              	.L51:
 514:Generated_Source\PSoC5/CyLib.c ****     }
 554              		.loc 1 514 0
 555 002e 2846     		mov	r0, r5
 556              	.LVL18:
 557 0030 FFF7FEFF 		bl	CyIMO_SetTrimValue
 558              	.LVL19:
 559              	.L53:
 518:Generated_Source\PSoC5/CyLib.c ****     {
 560              		.loc 1 518 0
 561 0034 082D     		cmp	r5, #8
 562 0036 44D8     		bhi	.L54
 563 0038 DFE805F0 		tbb	[pc, r5]
 564              	.L56:
 565 003c 05       		.byte	(.L55-.L56)/2
 566 003d 0D       		.byte	(.L57-.L56)/2
 567 003e 15       		.byte	(.L58-.L56)/2
 568 003f 1B       		.byte	(.L59-.L56)/2
ARM GAS  C:\Users\ingan\AppData\Local\Temp\ccwaQbAc.s 			page 25


 569 0040 23       		.byte	(.L60-.L56)/2
 570 0041 2B       		.byte	(.L61-.L56)/2
 571 0042 33       		.byte	(.L62-.L56)/2
 572 0043 43       		.byte	(.L54-.L56)/2
 573 0044 3B       		.byte	(.L63-.L56)/2
 574 0045 00       		.p2align 1
 575              	.L55:
 521:Generated_Source\PSoC5/CyLib.c ****             CY_LIB_IMO_3MHZ_VALUE) & ((uint8)(~CY_LIB_IMO_USBCLK_ON_SET));
 576              		.loc 1 521 0
 577 0046 254A     		ldr	r2, .L72
 578 0048 1378     		ldrb	r3, [r2]	@ zero_extendqisi2
 579 004a 03F0B803 		and	r3, r3, #184
 580 004e 43F00303 		orr	r3, r3, #3
 581 0052 1370     		strb	r3, [r2]
 523:Generated_Source\PSoC5/CyLib.c **** 
 582              		.loc 1 523 0
 583 0054 3AE0     		b	.L66
 584              	.L57:
 526:Generated_Source\PSoC5/CyLib.c ****             CY_LIB_IMO_6MHZ_VALUE) & ((uint8)(~CY_LIB_IMO_USBCLK_ON_SET));
 585              		.loc 1 526 0
 586 0056 214A     		ldr	r2, .L72
 587 0058 1378     		ldrb	r3, [r2]	@ zero_extendqisi2
 588 005a 03F0B803 		and	r3, r3, #184
 589 005e 43F00103 		orr	r3, r3, #1
 590 0062 1370     		strb	r3, [r2]
 528:Generated_Source\PSoC5/CyLib.c **** 
 591              		.loc 1 528 0
 592 0064 32E0     		b	.L66
 593              	.L58:
 531:Generated_Source\PSoC5/CyLib.c ****             CY_LIB_IMO_12MHZ_VALUE) & ((uint8)(~CY_LIB_IMO_USBCLK_ON_SET));
 594              		.loc 1 531 0
 595 0066 1D4A     		ldr	r2, .L72
 596 0068 1378     		ldrb	r3, [r2]	@ zero_extendqisi2
 597 006a 03F0B803 		and	r3, r3, #184
 598 006e 1370     		strb	r3, [r2]
 533:Generated_Source\PSoC5/CyLib.c **** 
 599              		.loc 1 533 0
 600 0070 2CE0     		b	.L66
 601              	.L59:
 536:Generated_Source\PSoC5/CyLib.c ****             CY_LIB_IMO_24MHZ_VALUE) & ((uint8)(~CY_LIB_IMO_USBCLK_ON_SET));
 602              		.loc 1 536 0
 603 0072 1A4A     		ldr	r2, .L72
 604 0074 1378     		ldrb	r3, [r2]	@ zero_extendqisi2
 605 0076 03F0B803 		and	r3, r3, #184
 606 007a 43F00203 		orr	r3, r3, #2
 607 007e 1370     		strb	r3, [r2]
 538:Generated_Source\PSoC5/CyLib.c **** 
 608              		.loc 1 538 0
 609 0080 24E0     		b	.L66
 610              	.L60:
 541:Generated_Source\PSoC5/CyLib.c ****             CY_LIB_IMO_48MHZ_VALUE) & ((uint8)(~CY_LIB_IMO_USBCLK_ON_SET));
 611              		.loc 1 541 0
 612 0082 164A     		ldr	r2, .L72
 613 0084 1378     		ldrb	r3, [r2]	@ zero_extendqisi2
 614 0086 03F0B803 		and	r3, r3, #184
 615 008a 43F00403 		orr	r3, r3, #4
 616 008e 1370     		strb	r3, [r2]
ARM GAS  C:\Users\ingan\AppData\Local\Temp\ccwaQbAc.s 			page 26


 543:Generated_Source\PSoC5/CyLib.c **** 
 617              		.loc 1 543 0
 618 0090 1CE0     		b	.L66
 619              	.L61:
 546:Generated_Source\PSoC5/CyLib.c ****             CY_LIB_IMO_62MHZ_VALUE) & ((uint8)(~CY_LIB_IMO_USBCLK_ON_SET));
 620              		.loc 1 546 0
 621 0092 124A     		ldr	r2, .L72
 622 0094 1378     		ldrb	r3, [r2]	@ zero_extendqisi2
 623 0096 03F0B803 		and	r3, r3, #184
 624 009a 43F00503 		orr	r3, r3, #5
 625 009e 1370     		strb	r3, [r2]
 548:Generated_Source\PSoC5/CyLib.c **** 
 626              		.loc 1 548 0
 627 00a0 14E0     		b	.L66
 628              	.L62:
 552:Generated_Source\PSoC5/CyLib.c ****             CY_LIB_IMO_74MHZ_VALUE) & ((uint8)(~CY_LIB_IMO_USBCLK_ON_SET));
 629              		.loc 1 552 0
 630 00a2 0E4A     		ldr	r2, .L72
 631 00a4 1378     		ldrb	r3, [r2]	@ zero_extendqisi2
 632 00a6 03F0B803 		and	r3, r3, #184
 633 00aa 43F00603 		orr	r3, r3, #6
 634 00ae 1370     		strb	r3, [r2]
 554:Generated_Source\PSoC5/CyLib.c **** #endif  /* (CY_PSOC5) */
 635              		.loc 1 554 0
 636 00b0 0CE0     		b	.L66
 637              	.L63:
 558:Generated_Source\PSoC5/CyLib.c ****             CY_LIB_IMO_24MHZ_VALUE) | CY_LIB_IMO_USBCLK_ON_SET;
 638              		.loc 1 558 0
 639 00b2 0A4A     		ldr	r2, .L72
 640 00b4 1378     		ldrb	r3, [r2]	@ zero_extendqisi2
 641 00b6 03F0B803 		and	r3, r3, #184
 642 00ba 43F04203 		orr	r3, r3, #66
 643 00be 1370     		strb	r3, [r2]
 644 00c0 01E0     		b	.L65
 645              	.L54:
 568:Generated_Source\PSoC5/CyLib.c ****     {
 646              		.loc 1 568 0
 647 00c2 082D     		cmp	r5, #8
 648 00c4 02D1     		bne	.L66
 649              	.L65:
 570:Generated_Source\PSoC5/CyLib.c ****     }
 650              		.loc 1 570 0
 651 00c6 FFF7FEFF 		bl	CyIMO_EnableDoubler
 652              	.LVL20:
 653 00ca 01E0     		b	.L67
 654              	.L66:
 574:Generated_Source\PSoC5/CyLib.c ****     }
 655              		.loc 1 574 0
 656 00cc FFF7FEFF 		bl	CyIMO_DisableDoubler
 657              	.LVL21:
 658              	.L67:
 577:Generated_Source\PSoC5/CyLib.c ****     {
 659              		.loc 1 577 0
 660 00d0 A642     		cmp	r6, r4
 661 00d2 02D2     		bcs	.L47
 580:Generated_Source\PSoC5/CyLib.c ****     }
 662              		.loc 1 580 0
ARM GAS  C:\Users\ingan\AppData\Local\Temp\ccwaQbAc.s 			page 27


 663 00d4 2846     		mov	r0, r5
 664 00d6 FFF7FEFF 		bl	CyIMO_SetTrimValue
 665              	.LVL22:
 666              	.L47:
 667 00da 70BD     		pop	{r4, r5, r6, pc}
 668              	.LVL23:
 669              	.L73:
 670              		.align	2
 671              	.L72:
 672 00dc 00420040 		.word	1073758720
 673              		.cfi_endproc
 674              	.LFE8:
 675              		.size	CyIMO_SetFreq, .-CyIMO_SetFreq
 676              		.section	.text.CyMasterClk_SetSource,"ax",%progbits
 677              		.align	2
 678              		.global	CyMasterClk_SetSource
 679              		.thumb
 680              		.thumb_func
 681              		.type	CyMasterClk_SetSource, %function
 682              	CyMasterClk_SetSource:
 683              	.LFB12:
 686:Generated_Source\PSoC5/CyLib.c ****     CY_LIB_CLKDIST_MSTR1_REG = (CY_LIB_CLKDIST_MSTR1_REG & MASTER_CLK_SRC_CLEAR) |
 684              		.loc 1 686 0
 685              		.cfi_startproc
 686              		@ args = 0, pretend = 0, frame = 0
 687              		@ frame_needed = 0, uses_anonymous_args = 0
 688              		@ link register save eliminated.
 689              	.LVL24:
 687:Generated_Source\PSoC5/CyLib.c ****                                 (source & ((uint8)(~MASTER_CLK_SRC_CLEAR)));
 690              		.loc 1 687 0
 691 0000 044A     		ldr	r2, .L75
 692 0002 1378     		ldrb	r3, [r2]	@ zero_extendqisi2
 693 0004 03F0FC03 		and	r3, r3, #252
 694 0008 00F00300 		and	r0, r0, #3
 695              	.LVL25:
 696 000c 1843     		orrs	r0, r0, r3
 697 000e 1070     		strb	r0, [r2]
 698 0010 7047     		bx	lr
 699              	.L76:
 700 0012 00BF     		.align	2
 701              	.L75:
 702 0014 05400040 		.word	1073758213
 703              		.cfi_endproc
 704              	.LFE12:
 705              		.size	CyMasterClk_SetSource, .-CyMasterClk_SetSource
 706              		.section	.text.CyMasterClk_SetDivider,"ax",%progbits
 707              		.align	2
 708              		.global	CyMasterClk_SetDivider
 709              		.thumb
 710              		.thumb_func
 711              		.type	CyMasterClk_SetDivider, %function
 712              	CyMasterClk_SetDivider:
 713              	.LFB13:
 716:Generated_Source\PSoC5/CyLib.c ****     CY_LIB_CLKDIST_MSTR0_REG = divider;
 714              		.loc 1 716 0
 715              		.cfi_startproc
 716              		@ args = 0, pretend = 0, frame = 0
ARM GAS  C:\Users\ingan\AppData\Local\Temp\ccwaQbAc.s 			page 28


 717              		@ frame_needed = 0, uses_anonymous_args = 0
 718              		@ link register save eliminated.
 719              	.LVL26:
 717:Generated_Source\PSoC5/CyLib.c **** }
 720              		.loc 1 717 0
 721 0000 014B     		ldr	r3, .L78
 722 0002 1870     		strb	r0, [r3]
 723 0004 7047     		bx	lr
 724              	.L79:
 725 0006 00BF     		.align	2
 726              	.L78:
 727 0008 04400040 		.word	1073758212
 728              		.cfi_endproc
 729              	.LFE13:
 730              		.size	CyMasterClk_SetDivider, .-CyMasterClk_SetDivider
 731              		.section	.text.CyBusClk_SetDivider,"ax",%progbits
 732              		.align	2
 733              		.global	CyBusClk_SetDivider
 734              		.thumb
 735              		.thumb_func
 736              		.type	CyBusClk_SetDivider, %function
 737              	CyBusClk_SetDivider:
 738              	.LFB15:
 753:Generated_Source\PSoC5/CyLib.c **** }
 754:Generated_Source\PSoC5/CyLib.c **** 
 755:Generated_Source\PSoC5/CyLib.c **** 
 756:Generated_Source\PSoC5/CyLib.c **** /*******************************************************************************
 757:Generated_Source\PSoC5/CyLib.c **** * Function Name: CyBusClk_SetDivider
 758:Generated_Source\PSoC5/CyLib.c **** ****************************************************************************//**
 759:Generated_Source\PSoC5/CyLib.c **** *
 760:Generated_Source\PSoC5/CyLib.c **** *  Sets the divider value used to generate the Bus Clock.
 761:Generated_Source\PSoC5/CyLib.c **** *
 762:Generated_Source\PSoC5/CyLib.c **** *  \param divider: Valid range [0-65535]. The clock will be divided by this value + 1.
 763:Generated_Source\PSoC5/CyLib.c **** *  For example, to divide this parameter by two should be set to 1.
 764:Generated_Source\PSoC5/CyLib.c **** *
 765:Generated_Source\PSoC5/CyLib.c **** * \sideeffect
 766:Generated_Source\PSoC5/CyLib.c **** *  If this function execution resulted in the CPU clock frequency increasing,
 767:Generated_Source\PSoC5/CyLib.c **** *  then the number of clock cycles the cache will wait before it samples data
 768:Generated_Source\PSoC5/CyLib.c **** *  coming back from the Flash must be adjusted by calling
 769:Generated_Source\PSoC5/CyLib.c **** *  CyFlash_SetWaitCycles() with an appropriate parameter. It can be optionally
 770:Generated_Source\PSoC5/CyLib.c **** *  called if the CPU clock frequency is lowered in order to improve the CPU
 771:Generated_Source\PSoC5/CyLib.c **** *  performance. See CyFlash_SetWaitCycles() description for more information.
 772:Generated_Source\PSoC5/CyLib.c **** *
 773:Generated_Source\PSoC5/CyLib.c **** *******************************************************************************/
 774:Generated_Source\PSoC5/CyLib.c **** void CyBusClk_SetDivider(uint16 divider) 
 775:Generated_Source\PSoC5/CyLib.c **** {
 739              		.loc 1 775 0
 740              		.cfi_startproc
 741              		@ args = 0, pretend = 0, frame = 0
 742              		@ frame_needed = 0, uses_anonymous_args = 0
 743              	.LVL27:
 744 0000 70B5     		push	{r4, r5, r6, lr}
 745              		.cfi_def_cfa_offset 16
 746              		.cfi_offset 4, -16
 747              		.cfi_offset 5, -12
 748              		.cfi_offset 6, -8
 749              		.cfi_offset 14, -4
ARM GAS  C:\Users\ingan\AppData\Local\Temp\ccwaQbAc.s 			page 29


 750 0002 0546     		mov	r5, r0
 776:Generated_Source\PSoC5/CyLib.c ****     uint8  masterClkDiv;
 777:Generated_Source\PSoC5/CyLib.c ****     uint16 busClkDiv;
 778:Generated_Source\PSoC5/CyLib.c ****     uint8 interruptState;
 779:Generated_Source\PSoC5/CyLib.c **** 
 780:Generated_Source\PSoC5/CyLib.c ****     interruptState = CyEnterCriticalSection();
 751              		.loc 1 780 0
 752 0004 FFF7FEFF 		bl	CyEnterCriticalSection
 753              	.LVL28:
 754 0008 0646     		mov	r6, r0
 755              	.LVL29:
 781:Generated_Source\PSoC5/CyLib.c **** 
 782:Generated_Source\PSoC5/CyLib.c ****     /* Work around to set bus clock divider value */
 783:Generated_Source\PSoC5/CyLib.c ****     busClkDiv = (uint16)((uint16)CY_LIB_CLKDIST_BCFG_MSB_REG << 8u);
 756              		.loc 1 783 0
 757 000a 1D4B     		ldr	r3, .L93
 758 000c 1B78     		ldrb	r3, [r3]	@ zero_extendqisi2
 759 000e DAB2     		uxtb	r2, r3
 760              	.LVL30:
 784:Generated_Source\PSoC5/CyLib.c ****     busClkDiv |= CY_LIB_CLKDIST_BCFG_LSB_REG;
 761              		.loc 1 784 0
 762 0010 1C4B     		ldr	r3, .L93+4
 763 0012 1B78     		ldrb	r3, [r3]	@ zero_extendqisi2
 764              	.LVL31:
 785:Generated_Source\PSoC5/CyLib.c **** 
 786:Generated_Source\PSoC5/CyLib.c ****     if ((divider == 0u) || (busClkDiv == 0u))
 765              		.loc 1 786 0
 766 0014 FDB1     		cbz	r5, .L81
 767 0016 DBB2     		uxtb	r3, r3
 768              		.loc 1 786 0 is_stmt 0 discriminator 1
 769 0018 53EA0223 		orrs	r3, r3, r2, lsl #8
 770              	.LVL32:
 771 001c 21D0     		beq	.L82
 772 001e 13E0     		b	.L90
 773              	.LVL33:
 774              	.L87:
 787:Generated_Source\PSoC5/CyLib.c ****     {
 788:Generated_Source\PSoC5/CyLib.c ****         /* Save away master clock divider value */
 789:Generated_Source\PSoC5/CyLib.c ****         masterClkDiv = CY_LIB_CLKDIST_MSTR0_REG;
 790:Generated_Source\PSoC5/CyLib.c **** 
 791:Generated_Source\PSoC5/CyLib.c ****         if (masterClkDiv < CY_LIB_CLKDIST_MASTERCLK_DIV)
 792:Generated_Source\PSoC5/CyLib.c ****         {
 793:Generated_Source\PSoC5/CyLib.c ****             /* Set master clock divider to 7 */
 794:Generated_Source\PSoC5/CyLib.c ****             CyMasterClk_SetDivider(CY_LIB_CLKDIST_MASTERCLK_DIV);
 795:Generated_Source\PSoC5/CyLib.c ****         }
 796:Generated_Source\PSoC5/CyLib.c **** 
 797:Generated_Source\PSoC5/CyLib.c ****         if (divider == 0u)
 798:Generated_Source\PSoC5/CyLib.c ****         {
 799:Generated_Source\PSoC5/CyLib.c ****             /* Set SSS bit and divider register desired value */
 800:Generated_Source\PSoC5/CyLib.c ****             CY_LIB_CLKDIST_BCFG2_REG |= CY_LIB_CLKDIST_BCFG2_SSS;
 775              		.loc 1 800 0 is_stmt 1
 776 0020 194A     		ldr	r2, .L93+8
 777 0022 1378     		ldrb	r3, [r2]	@ zero_extendqisi2
 778 0024 43F04003 		orr	r3, r3, #64
 779 0028 1370     		strb	r3, [r2]
 801:Generated_Source\PSoC5/CyLib.c ****             CyBusClk_Internal_SetDivider(divider);
 780              		.loc 1 801 0
ARM GAS  C:\Users\ingan\AppData\Local\Temp\ccwaQbAc.s 			page 30


 781 002a 0020     		movs	r0, #0
 782 002c FFF7FEFF 		bl	CyBusClk_Internal_SetDivider
 783              	.LVL34:
 784 0030 07E0     		b	.L84
 785              	.L89:
 802:Generated_Source\PSoC5/CyLib.c ****         }
 803:Generated_Source\PSoC5/CyLib.c ****         else
 804:Generated_Source\PSoC5/CyLib.c ****         {
 805:Generated_Source\PSoC5/CyLib.c ****             CyBusClk_Internal_SetDivider(divider);
 786              		.loc 1 805 0
 787 0032 2846     		mov	r0, r5
 788 0034 FFF7FEFF 		bl	CyBusClk_Internal_SetDivider
 789              	.LVL35:
 806:Generated_Source\PSoC5/CyLib.c ****             CY_LIB_CLKDIST_BCFG2_REG &= ((uint8)(~CY_LIB_CLKDIST_BCFG2_SSS));
 790              		.loc 1 806 0
 791 0038 134A     		ldr	r2, .L93+8
 792 003a 1378     		ldrb	r3, [r2]	@ zero_extendqisi2
 793 003c 03F0BF03 		and	r3, r3, #191
 794 0040 1370     		strb	r3, [r2]
 795              	.L84:
 796              	.LVL36:
 797              	.LBB10:
 798              	.LBB11:
 717:Generated_Source\PSoC5/CyLib.c **** }
 799              		.loc 1 717 0
 800 0042 124B     		ldr	r3, .L93+12
 801 0044 1C70     		strb	r4, [r3]
 802 0046 02E0     		b	.L85
 803              	.LVL37:
 804              	.L90:
 805              	.LBE11:
 806              	.LBE10:
 807:Generated_Source\PSoC5/CyLib.c ****         }
 808:Generated_Source\PSoC5/CyLib.c **** 
 809:Generated_Source\PSoC5/CyLib.c ****         /* Restore master clock */
 810:Generated_Source\PSoC5/CyLib.c ****         CyMasterClk_SetDivider(masterClkDiv);
 811:Generated_Source\PSoC5/CyLib.c ****     }
 812:Generated_Source\PSoC5/CyLib.c ****     else
 813:Generated_Source\PSoC5/CyLib.c ****     {
 814:Generated_Source\PSoC5/CyLib.c ****         CyBusClk_Internal_SetDivider(divider);
 807              		.loc 1 814 0
 808 0048 2846     		mov	r0, r5
 809 004a FFF7FEFF 		bl	CyBusClk_Internal_SetDivider
 810              	.LVL38:
 811              	.L85:
 815:Generated_Source\PSoC5/CyLib.c ****     }
 816:Generated_Source\PSoC5/CyLib.c **** 
 817:Generated_Source\PSoC5/CyLib.c ****     CyExitCriticalSection(interruptState);
 812              		.loc 1 817 0
 813 004e 3046     		mov	r0, r6
 814 0050 FFF7FEFF 		bl	CyExitCriticalSection
 815              	.LVL39:
 818:Generated_Source\PSoC5/CyLib.c **** }
 816              		.loc 1 818 0
 817 0054 70BD     		pop	{r4, r5, r6, pc}
 818              	.LVL40:
 819              	.L81:
ARM GAS  C:\Users\ingan\AppData\Local\Temp\ccwaQbAc.s 			page 31


 789:Generated_Source\PSoC5/CyLib.c **** 
 820              		.loc 1 789 0
 821 0056 0D4B     		ldr	r3, .L93+12
 822              	.LVL41:
 823 0058 1C78     		ldrb	r4, [r3]	@ zero_extendqisi2
 824 005a E4B2     		uxtb	r4, r4
 825              	.LVL42:
 791:Generated_Source\PSoC5/CyLib.c ****         {
 826              		.loc 1 791 0
 827 005c 062C     		cmp	r4, #6
 828 005e DFD8     		bhi	.L87
 829 0060 05E0     		b	.L86
 830              	.LVL43:
 831              	.L82:
 789:Generated_Source\PSoC5/CyLib.c **** 
 832              		.loc 1 789 0
 833 0062 0A4B     		ldr	r3, .L93+12
 834 0064 1C78     		ldrb	r4, [r3]	@ zero_extendqisi2
 835 0066 E4B2     		uxtb	r4, r4
 836              	.LVL44:
 791:Generated_Source\PSoC5/CyLib.c ****         {
 837              		.loc 1 791 0
 838 0068 062C     		cmp	r4, #6
 839 006a E2D8     		bhi	.L89
 840 006c 03E0     		b	.L88
 841              	.L86:
 842              	.LVL45:
 843              	.LBB12:
 844              	.LBB13:
 717:Generated_Source\PSoC5/CyLib.c **** }
 845              		.loc 1 717 0
 846 006e 0722     		movs	r2, #7
 847 0070 064B     		ldr	r3, .L93+12
 848 0072 1A70     		strb	r2, [r3]
 849 0074 D4E7     		b	.L87
 850              	.LVL46:
 851              	.L88:
 852 0076 0722     		movs	r2, #7
 853 0078 044B     		ldr	r3, .L93+12
 854 007a 1A70     		strb	r2, [r3]
 855 007c D9E7     		b	.L89
 856              	.L94:
 857 007e 00BF     		.align	2
 858              	.L93:
 859 0080 07400040 		.word	1073758215
 860 0084 06400040 		.word	1073758214
 861 0088 08400040 		.word	1073758216
 862 008c 04400040 		.word	1073758212
 863              	.LBE13:
 864              	.LBE12:
 865              		.cfi_endproc
 866              	.LFE15:
 867              		.size	CyBusClk_SetDivider, .-CyBusClk_SetDivider
 868              		.section	.text.CyUsbClk_SetSource,"ax",%progbits
 869              		.align	2
 870              		.global	CyUsbClk_SetSource
 871              		.thumb
ARM GAS  C:\Users\ingan\AppData\Local\Temp\ccwaQbAc.s 			page 32


 872              		.thumb_func
 873              		.type	CyUsbClk_SetSource, %function
 874              	CyUsbClk_SetSource:
 875              	.LFB16:
 819:Generated_Source\PSoC5/CyLib.c **** 
 820:Generated_Source\PSoC5/CyLib.c **** 
 821:Generated_Source\PSoC5/CyLib.c **** #if(CY_PSOC3)
 822:Generated_Source\PSoC5/CyLib.c **** 
 823:Generated_Source\PSoC5/CyLib.c ****     /*******************************************************************************
 824:Generated_Source\PSoC5/CyLib.c ****     * Function Name: CyCpuClk_SetDivider
 825:Generated_Source\PSoC5/CyLib.c ****     ****************************************************************************//**
 826:Generated_Source\PSoC5/CyLib.c ****     *
 827:Generated_Source\PSoC5/CyLib.c ****     *  Sets the divider value used to generate the CPU Clock. Only applicable for
 828:Generated_Source\PSoC5/CyLib.c ****     *  PSoC 3 parts.
 829:Generated_Source\PSoC5/CyLib.c ****     *
 830:Generated_Source\PSoC5/CyLib.c ****     *  \param divider: Valid range [0-15]. The clock will be divided by this value + 1.
 831:Generated_Source\PSoC5/CyLib.c ****     *  For example, to divide this parameter by two should be set to 1.
 832:Generated_Source\PSoC5/CyLib.c ****     *
 833:Generated_Source\PSoC5/CyLib.c ****     * \sideeffect
 834:Generated_Source\PSoC5/CyLib.c ****     *  If this function execution resulted in the CPU clock frequency increasing,
 835:Generated_Source\PSoC5/CyLib.c ****     *  then the number of clock cycles the cache will wait before it samples data
 836:Generated_Source\PSoC5/CyLib.c ****     *  coming back from the Flash must be adjusted by calling
 837:Generated_Source\PSoC5/CyLib.c ****     *  CyFlash_SetWaitCycles() with an appropriate parameter. It can be optionally
 838:Generated_Source\PSoC5/CyLib.c ****     *  called if the CPU clock frequency is lowered in order to improve the CPU
 839:Generated_Source\PSoC5/CyLib.c ****     *  performance. See CyFlash_SetWaitCycles() description for more information.
 840:Generated_Source\PSoC5/CyLib.c ****     *
 841:Generated_Source\PSoC5/CyLib.c ****     *******************************************************************************/
 842:Generated_Source\PSoC5/CyLib.c ****     void CyCpuClk_SetDivider(uint8 divider) 
 843:Generated_Source\PSoC5/CyLib.c ****     {
 844:Generated_Source\PSoC5/CyLib.c ****             CY_LIB_CLKDIST_MSTR1_REG = (CY_LIB_CLKDIST_MSTR1_REG & CY_LIB_CLKDIST_MSTR1_DIV_MASK) |
 845:Generated_Source\PSoC5/CyLib.c ****                                 ((uint8)(divider << CY_LIB_CLKDIST_DIV_POSITION));
 846:Generated_Source\PSoC5/CyLib.c ****     }
 847:Generated_Source\PSoC5/CyLib.c **** 
 848:Generated_Source\PSoC5/CyLib.c **** #endif /* (CY_PSOC3) */
 849:Generated_Source\PSoC5/CyLib.c **** 
 850:Generated_Source\PSoC5/CyLib.c **** 
 851:Generated_Source\PSoC5/CyLib.c **** /*******************************************************************************
 852:Generated_Source\PSoC5/CyLib.c **** * Function Name: CyUsbClk_SetSource
 853:Generated_Source\PSoC5/CyLib.c **** ****************************************************************************//**
 854:Generated_Source\PSoC5/CyLib.c **** *
 855:Generated_Source\PSoC5/CyLib.c **** *  Sets the source of the USB clock.
 856:Generated_Source\PSoC5/CyLib.c **** *
 857:Generated_Source\PSoC5/CyLib.c **** *  \param source: One of the four available USB clock sources
 858:Generated_Source\PSoC5/CyLib.c **** *    CY_LIB_USB_CLK_IMO2X     - IMO 2x
 859:Generated_Source\PSoC5/CyLib.c **** *    CY_LIB_USB_CLK_IMO       - IMO
 860:Generated_Source\PSoC5/CyLib.c **** *    CY_LIB_USB_CLK_PLL       - PLL
 861:Generated_Source\PSoC5/CyLib.c **** *    CY_LIB_USB_CLK_DSI       - DSI
 862:Generated_Source\PSoC5/CyLib.c **** *
 863:Generated_Source\PSoC5/CyLib.c **** *******************************************************************************/
 864:Generated_Source\PSoC5/CyLib.c **** void CyUsbClk_SetSource(uint8 source) 
 865:Generated_Source\PSoC5/CyLib.c **** {
 876              		.loc 1 865 0
 877              		.cfi_startproc
 878              		@ args = 0, pretend = 0, frame = 0
 879              		@ frame_needed = 0, uses_anonymous_args = 0
 880              		@ link register save eliminated.
 881              	.LVL47:
ARM GAS  C:\Users\ingan\AppData\Local\Temp\ccwaQbAc.s 			page 33


 866:Generated_Source\PSoC5/CyLib.c ****     CY_LIB_CLKDIST_UCFG_REG = (CY_LIB_CLKDIST_UCFG_REG & ((uint8)(~CY_LIB_CLKDIST_UCFG_SRC_SEL_MASK
 882              		.loc 1 866 0
 883 0000 044A     		ldr	r2, .L96
 884 0002 1378     		ldrb	r3, [r2]	@ zero_extendqisi2
 885 0004 03F0FC03 		and	r3, r3, #252
 886 0008 00F00300 		and	r0, r0, #3
 887              	.LVL48:
 888 000c 1843     		orrs	r0, r0, r3
 889 000e 1070     		strb	r0, [r2]
 890 0010 7047     		bx	lr
 891              	.L97:
 892 0012 00BF     		.align	2
 893              	.L96:
 894 0014 09400040 		.word	1073758217
 895              		.cfi_endproc
 896              	.LFE16:
 897              		.size	CyUsbClk_SetSource, .-CyUsbClk_SetSource
 898              		.section	.text.CyILO_Start1K,"ax",%progbits
 899              		.align	2
 900              		.global	CyILO_Start1K
 901              		.thumb
 902              		.thumb_func
 903              		.type	CyILO_Start1K, %function
 904              	CyILO_Start1K:
 905              	.LFB17:
 867:Generated_Source\PSoC5/CyLib.c ****                         (CY_LIB_CLKDIST_UCFG_SRC_SEL_MASK & source);
 868:Generated_Source\PSoC5/CyLib.c **** }
 869:Generated_Source\PSoC5/CyLib.c **** 
 870:Generated_Source\PSoC5/CyLib.c **** 
 871:Generated_Source\PSoC5/CyLib.c **** /*******************************************************************************
 872:Generated_Source\PSoC5/CyLib.c **** * Function Name: CyILO_Start1K
 873:Generated_Source\PSoC5/CyLib.c **** ****************************************************************************//**
 874:Generated_Source\PSoC5/CyLib.c **** *
 875:Generated_Source\PSoC5/CyLib.c **** *  Enables the ILO 1 KHz oscillator.
 876:Generated_Source\PSoC5/CyLib.c **** *
 877:Generated_Source\PSoC5/CyLib.c **** *  Note The ILO 1 KHz oscillator is always enabled by default, regardless of the
 878:Generated_Source\PSoC5/CyLib.c **** *  selection in the Clock Editor. Therefore, this API is only needed if the
 879:Generated_Source\PSoC5/CyLib.c **** *  oscillator was turned off manually.
 880:Generated_Source\PSoC5/CyLib.c **** *
 881:Generated_Source\PSoC5/CyLib.c **** *******************************************************************************/
 882:Generated_Source\PSoC5/CyLib.c **** void CyILO_Start1K(void) 
 883:Generated_Source\PSoC5/CyLib.c **** {
 906              		.loc 1 883 0
 907              		.cfi_startproc
 908              		@ args = 0, pretend = 0, frame = 0
 909              		@ frame_needed = 0, uses_anonymous_args = 0
 910              		@ link register save eliminated.
 884:Generated_Source\PSoC5/CyLib.c ****     /* Set bit 1 of ILO RS */
 885:Generated_Source\PSoC5/CyLib.c ****     CY_LIB_SLOWCLK_ILO_CR0_REG |= CY_LIB_SLOWCLK_ILO_CR0_EN_1KHZ;
 911              		.loc 1 885 0
 912 0000 024A     		ldr	r2, .L99
 913 0002 1378     		ldrb	r3, [r2]	@ zero_extendqisi2
 914 0004 43F00203 		orr	r3, r3, #2
 915 0008 1370     		strb	r3, [r2]
 916 000a 7047     		bx	lr
 917              	.L100:
 918              		.align	2
ARM GAS  C:\Users\ingan\AppData\Local\Temp\ccwaQbAc.s 			page 34


 919              	.L99:
 920 000c 00430040 		.word	1073758976
 921              		.cfi_endproc
 922              	.LFE17:
 923              		.size	CyILO_Start1K, .-CyILO_Start1K
 924              		.section	.text.CyILO_Stop1K,"ax",%progbits
 925              		.align	2
 926              		.global	CyILO_Stop1K
 927              		.thumb
 928              		.thumb_func
 929              		.type	CyILO_Stop1K, %function
 930              	CyILO_Stop1K:
 931              	.LFB18:
 886:Generated_Source\PSoC5/CyLib.c **** }
 887:Generated_Source\PSoC5/CyLib.c **** 
 888:Generated_Source\PSoC5/CyLib.c **** 
 889:Generated_Source\PSoC5/CyLib.c **** /*******************************************************************************
 890:Generated_Source\PSoC5/CyLib.c **** * Function Name: CyILO_Stop1K
 891:Generated_Source\PSoC5/CyLib.c **** ****************************************************************************//**
 892:Generated_Source\PSoC5/CyLib.c **** *
 893:Generated_Source\PSoC5/CyLib.c **** *  Disables the ILO 1 KHz oscillator.
 894:Generated_Source\PSoC5/CyLib.c **** *
 895:Generated_Source\PSoC5/CyLib.c **** *  Note The ILO 1 KHz oscillator must be enabled if the Sleep or Hibernate low
 896:Generated_Source\PSoC5/CyLib.c **** *  power mode APIs are expected to be used. For more information, refer to the
 897:Generated_Source\PSoC5/CyLib.c **** *  Power Management section of this document.
 898:Generated_Source\PSoC5/CyLib.c **** *
 899:Generated_Source\PSoC5/CyLib.c **** * \sideeffect
 900:Generated_Source\PSoC5/CyLib.c **** *  PSoC5: Stopping the ILO 1 kHz could break the active WDT functionality.
 901:Generated_Source\PSoC5/CyLib.c **** *
 902:Generated_Source\PSoC5/CyLib.c **** *******************************************************************************/
 903:Generated_Source\PSoC5/CyLib.c **** void CyILO_Stop1K(void) 
 904:Generated_Source\PSoC5/CyLib.c **** {
 932              		.loc 1 904 0
 933              		.cfi_startproc
 934              		@ args = 0, pretend = 0, frame = 0
 935              		@ frame_needed = 0, uses_anonymous_args = 0
 936              		@ link register save eliminated.
 905:Generated_Source\PSoC5/CyLib.c ****     /* Clear bit 1 of ILO RS */
 906:Generated_Source\PSoC5/CyLib.c ****     CY_LIB_SLOWCLK_ILO_CR0_REG &= ((uint8)(~CY_LIB_SLOWCLK_ILO_CR0_EN_1KHZ));
 937              		.loc 1 906 0
 938 0000 024A     		ldr	r2, .L102
 939 0002 1378     		ldrb	r3, [r2]	@ zero_extendqisi2
 940 0004 03F0FD03 		and	r3, r3, #253
 941 0008 1370     		strb	r3, [r2]
 942 000a 7047     		bx	lr
 943              	.L103:
 944              		.align	2
 945              	.L102:
 946 000c 00430040 		.word	1073758976
 947              		.cfi_endproc
 948              	.LFE18:
 949              		.size	CyILO_Stop1K, .-CyILO_Stop1K
 950              		.section	.text.CyILO_Start100K,"ax",%progbits
 951              		.align	2
 952              		.global	CyILO_Start100K
 953              		.thumb
 954              		.thumb_func
ARM GAS  C:\Users\ingan\AppData\Local\Temp\ccwaQbAc.s 			page 35


 955              		.type	CyILO_Start100K, %function
 956              	CyILO_Start100K:
 957              	.LFB19:
 907:Generated_Source\PSoC5/CyLib.c **** }
 908:Generated_Source\PSoC5/CyLib.c **** 
 909:Generated_Source\PSoC5/CyLib.c **** 
 910:Generated_Source\PSoC5/CyLib.c **** /*******************************************************************************
 911:Generated_Source\PSoC5/CyLib.c **** * Function Name: CyILO_Start100K
 912:Generated_Source\PSoC5/CyLib.c **** ****************************************************************************//**
 913:Generated_Source\PSoC5/CyLib.c **** *
 914:Generated_Source\PSoC5/CyLib.c **** *  Enables the ILO 100 KHz oscillator.
 915:Generated_Source\PSoC5/CyLib.c **** *
 916:Generated_Source\PSoC5/CyLib.c **** *******************************************************************************/
 917:Generated_Source\PSoC5/CyLib.c **** void CyILO_Start100K(void) 
 918:Generated_Source\PSoC5/CyLib.c **** {
 958              		.loc 1 918 0
 959              		.cfi_startproc
 960              		@ args = 0, pretend = 0, frame = 0
 961              		@ frame_needed = 0, uses_anonymous_args = 0
 962              		@ link register save eliminated.
 919:Generated_Source\PSoC5/CyLib.c ****     CY_LIB_SLOWCLK_ILO_CR0_REG |= CY_LIB_SLOWCLK_ILO_CR0_EN_100KHZ;
 963              		.loc 1 919 0
 964 0000 024A     		ldr	r2, .L105
 965 0002 1378     		ldrb	r3, [r2]	@ zero_extendqisi2
 966 0004 43F00403 		orr	r3, r3, #4
 967 0008 1370     		strb	r3, [r2]
 968 000a 7047     		bx	lr
 969              	.L106:
 970              		.align	2
 971              	.L105:
 972 000c 00430040 		.word	1073758976
 973              		.cfi_endproc
 974              	.LFE19:
 975              		.size	CyILO_Start100K, .-CyILO_Start100K
 976              		.section	.text.CyILO_Stop100K,"ax",%progbits
 977              		.align	2
 978              		.global	CyILO_Stop100K
 979              		.thumb
 980              		.thumb_func
 981              		.type	CyILO_Stop100K, %function
 982              	CyILO_Stop100K:
 983              	.LFB20:
 920:Generated_Source\PSoC5/CyLib.c **** }
 921:Generated_Source\PSoC5/CyLib.c **** 
 922:Generated_Source\PSoC5/CyLib.c **** 
 923:Generated_Source\PSoC5/CyLib.c **** /*******************************************************************************
 924:Generated_Source\PSoC5/CyLib.c **** * Function Name: CyILO_Stop100K
 925:Generated_Source\PSoC5/CyLib.c **** ****************************************************************************//**
 926:Generated_Source\PSoC5/CyLib.c **** *
 927:Generated_Source\PSoC5/CyLib.c **** *  Disables the ILO 100 KHz oscillator.
 928:Generated_Source\PSoC5/CyLib.c **** *
 929:Generated_Source\PSoC5/CyLib.c **** *******************************************************************************/
 930:Generated_Source\PSoC5/CyLib.c **** void CyILO_Stop100K(void) 
 931:Generated_Source\PSoC5/CyLib.c **** {
 984              		.loc 1 931 0
 985              		.cfi_startproc
 986              		@ args = 0, pretend = 0, frame = 0
ARM GAS  C:\Users\ingan\AppData\Local\Temp\ccwaQbAc.s 			page 36


 987              		@ frame_needed = 0, uses_anonymous_args = 0
 988              		@ link register save eliminated.
 932:Generated_Source\PSoC5/CyLib.c ****     CY_LIB_SLOWCLK_ILO_CR0_REG &= ((uint8)(~CY_LIB_SLOWCLK_ILO_CR0_EN_100KHZ));
 989              		.loc 1 932 0
 990 0000 024A     		ldr	r2, .L108
 991 0002 1378     		ldrb	r3, [r2]	@ zero_extendqisi2
 992 0004 03F0FB03 		and	r3, r3, #251
 993 0008 1370     		strb	r3, [r2]
 994 000a 7047     		bx	lr
 995              	.L109:
 996              		.align	2
 997              	.L108:
 998 000c 00430040 		.word	1073758976
 999              		.cfi_endproc
 1000              	.LFE20:
 1001              		.size	CyILO_Stop100K, .-CyILO_Stop100K
 1002              		.section	.text.CyPLL_OUT_Start,"ax",%progbits
 1003              		.align	2
 1004              		.global	CyPLL_OUT_Start
 1005              		.thumb
 1006              		.thumb_func
 1007              		.type	CyPLL_OUT_Start, %function
 1008              	CyPLL_OUT_Start:
 1009              	.LFB0:
  98:Generated_Source\PSoC5/CyLib.c ****     cystatus status = CYRET_SUCCESS;
 1010              		.loc 1 98 0
 1011              		.cfi_startproc
 1012              		@ args = 0, pretend = 0, frame = 0
 1013              		@ frame_needed = 0, uses_anonymous_args = 0
 1014              	.LVL49:
 1015 0000 2DE9F041 		push	{r4, r5, r6, r7, r8, lr}
 1016              		.cfi_def_cfa_offset 24
 1017              		.cfi_offset 4, -24
 1018              		.cfi_offset 5, -20
 1019              		.cfi_offset 6, -16
 1020              		.cfi_offset 7, -12
 1021              		.cfi_offset 8, -8
 1022              		.cfi_offset 14, -4
 1023              	.LVL50:
 107:Generated_Source\PSoC5/CyLib.c **** 
 1024              		.loc 1 107 0
 1025 0004 1B4A     		ldr	r2, .L120
 1026 0006 1378     		ldrb	r3, [r2]	@ zero_extendqisi2
 1027 0008 43F00103 		orr	r3, r3, #1
 1028 000c 1370     		strb	r3, [r2]
 109:Generated_Source\PSoC5/CyLib.c ****     {
 1029              		.loc 1 109 0
 1030 000e 60B3     		cbz	r0, .L116
 112:Generated_Source\PSoC5/CyLib.c ****         pmTwCfg0State = CY_LIB_PM_TW_CFG0_REG;
 1031              		.loc 1 112 0
 1032 0010 194B     		ldr	r3, .L120+4
 1033 0012 1E78     		ldrb	r6, [r3]	@ zero_extendqisi2
 1034 0014 06F00406 		and	r6, r6, #4
 1035 0018 F6B2     		uxtb	r6, r6
 1036              	.LVL51:
 113:Generated_Source\PSoC5/CyLib.c ****         pmTwCfg2State = CY_LIB_PM_TW_CFG2_REG;
 1037              		.loc 1 113 0
ARM GAS  C:\Users\ingan\AppData\Local\Temp\ccwaQbAc.s 			page 37


 1038 001a 8033     		adds	r3, r3, #128
 1039 001c 93F80080 		ldrb	r8, [r3]	@ zero_extendqisi2
 1040 0020 5FFA88F8 		uxtb	r8, r8
 1041              	.LVL52:
 114:Generated_Source\PSoC5/CyLib.c **** 
 1042              		.loc 1 114 0
 1043 0024 0233     		adds	r3, r3, #2
 1044 0026 1F78     		ldrb	r7, [r3]	@ zero_extendqisi2
 1045 0028 FFB2     		uxtb	r7, r7
 1046              	.LVL53:
 116:Generated_Source\PSoC5/CyLib.c **** 
 1047              		.loc 1 116 0
 1048 002a 1820     		movs	r0, #24
 1049              	.LVL54:
 1050 002c FFF7FEFF 		bl	CyPmFtwSetInterval
 1051              	.LVL55:
 120:Generated_Source\PSoC5/CyLib.c ****         {
 1052              		.loc 1 120 0
 1053 0030 0125     		movs	r5, #1
 123:Generated_Source\PSoC5/CyLib.c ****             {
 1054              		.loc 1 123 0
 1055 0032 124C     		ldr	r4, .L120+8
 120:Generated_Source\PSoC5/CyLib.c ****         {
 1056              		.loc 1 120 0
 1057 0034 07E0     		b	.L118
 1058              	.L114:
 123:Generated_Source\PSoC5/CyLib.c ****             {
 1059              		.loc 1 123 0
 1060 0036 2378     		ldrb	r3, [r4]	@ zero_extendqisi2
 1061 0038 13F0010F 		tst	r3, #1
 1062 003c 03D0     		beq	.L118
 125:Generated_Source\PSoC5/CyLib.c ****                 {
 1063              		.loc 1 125 0
 1064 003e 2378     		ldrb	r3, [r4]	@ zero_extendqisi2
 1065 0040 13F0010F 		tst	r3, #1
 1066 0044 07D1     		bne	.L117
 1067              	.L118:
 120:Generated_Source\PSoC5/CyLib.c ****         {
 1068              		.loc 1 120 0
 1069 0046 2846     		mov	r0, r5
 1070 0048 FFF7FEFF 		bl	CyPmReadStatus
 1071              	.LVL56:
 1072 004c 10F0010F 		tst	r0, #1
 1073 0050 F1D0     		beq	.L114
 118:Generated_Source\PSoC5/CyLib.c **** 
 1074              		.loc 1 118 0
 1075 0052 1024     		movs	r4, #16
 1076 0054 00E0     		b	.L113
 1077              	.L117:
 127:Generated_Source\PSoC5/CyLib.c ****                     break;
 1078              		.loc 1 127 0
 1079 0056 0024     		movs	r4, #0
 1080              	.L113:
 1081              	.LVL57:
 134:Generated_Source\PSoC5/CyLib.c ****         {
 1082              		.loc 1 134 0
 1083 0058 0EB9     		cbnz	r6, .L115
ARM GAS  C:\Users\ingan\AppData\Local\Temp\ccwaQbAc.s 			page 38


 136:Generated_Source\PSoC5/CyLib.c ****         }
 1084              		.loc 1 136 0
 1085 005a FFF7FEFF 		bl	CyILO_Stop100K
 1086              	.LVL58:
 1087              	.L115:
 139:Generated_Source\PSoC5/CyLib.c ****         CY_LIB_PM_TW_CFG2_REG = pmTwCfg2State;
 1088              		.loc 1 139 0
 1089 005e 084B     		ldr	r3, .L120+12
 1090 0060 83F80080 		strb	r8, [r3]
 140:Generated_Source\PSoC5/CyLib.c ****     }
 1091              		.loc 1 140 0
 1092 0064 0233     		adds	r3, r3, #2
 1093 0066 1F70     		strb	r7, [r3]
 1094 0068 00E0     		b	.L111
 1095              	.LVL59:
 1096              	.L116:
  99:Generated_Source\PSoC5/CyLib.c **** 
 1097              		.loc 1 99 0
 1098 006a 0024     		movs	r4, #0
 1099              	.LVL60:
 1100              	.L111:
 144:Generated_Source\PSoC5/CyLib.c **** 
 1101              		.loc 1 144 0
 1102 006c 2046     		mov	r0, r4
 1103 006e BDE8F081 		pop	{r4, r5, r6, r7, r8, pc}
 1104              	.LVL61:
 1105              	.L121:
 1106 0072 00BF     		.align	2
 1107              	.L120:
 1108 0074 20420040 		.word	1073758752
 1109 0078 00430040 		.word	1073758976
 1110 007c 25420040 		.word	1073758757
 1111 0080 80430040 		.word	1073759104
 1112              		.cfi_endproc
 1113              	.LFE0:
 1114              		.size	CyPLL_OUT_Start, .-CyPLL_OUT_Start
 1115              		.section	.text.CyIMO_Start,"ax",%progbits
 1116              		.align	2
 1117              		.global	CyIMO_Start
 1118              		.thumb
 1119              		.thumb_func
 1120              		.type	CyIMO_Start, %function
 1121              	CyIMO_Start:
 1122              	.LFB4:
 283:Generated_Source\PSoC5/CyLib.c ****     uint8 pmFtwCfg2Reg;
 1123              		.loc 1 283 0
 1124              		.cfi_startproc
 1125              		@ args = 0, pretend = 0, frame = 0
 1126              		@ frame_needed = 0, uses_anonymous_args = 0
 1127              	.LVL62:
 1128 0000 F8B5     		push	{r3, r4, r5, r6, r7, lr}
 1129              		.cfi_def_cfa_offset 24
 1130              		.cfi_offset 3, -24
 1131              		.cfi_offset 4, -20
 1132              		.cfi_offset 5, -16
 1133              		.cfi_offset 6, -12
 1134              		.cfi_offset 7, -8
ARM GAS  C:\Users\ingan\AppData\Local\Temp\ccwaQbAc.s 			page 39


 1135              		.cfi_offset 14, -4
 289:Generated_Source\PSoC5/CyLib.c ****     CY_LIB_PM_STBY_CFG0_REG |= CY_LIB_PM_STBY_CFG0_IMO_EN;
 1136              		.loc 1 289 0
 1137 0002 144A     		ldr	r2, .L128
 1138 0004 1378     		ldrb	r3, [r2]	@ zero_extendqisi2
 1139 0006 43F01003 		orr	r3, r3, #16
 1140 000a 1370     		strb	r3, [r2]
 290:Generated_Source\PSoC5/CyLib.c **** 
 1141              		.loc 1 290 0
 1142 000c 1032     		adds	r2, r2, #16
 1143 000e 1378     		ldrb	r3, [r2]	@ zero_extendqisi2
 1144 0010 43F01003 		orr	r3, r3, #16
 1145 0014 1370     		strb	r3, [r2]
 292:Generated_Source\PSoC5/CyLib.c ****     {
 1146              		.loc 1 292 0
 1147 0016 D8B1     		cbz	r0, .L122
 295:Generated_Source\PSoC5/CyLib.c ****         pmFtwCfg0Reg = CY_LIB_PM_TW_CFG0_REG;
 1148              		.loc 1 295 0
 1149 0018 0F4B     		ldr	r3, .L128+4
 1150 001a 1D78     		ldrb	r5, [r3]	@ zero_extendqisi2
 1151 001c 05F00405 		and	r5, r5, #4
 1152 0020 EDB2     		uxtb	r5, r5
 1153              	.LVL63:
 296:Generated_Source\PSoC5/CyLib.c ****         pmFtwCfg2Reg = CY_LIB_PM_TW_CFG2_REG;
 1154              		.loc 1 296 0
 1155 0022 8033     		adds	r3, r3, #128
 1156 0024 1F78     		ldrb	r7, [r3]	@ zero_extendqisi2
 1157 0026 FFB2     		uxtb	r7, r7
 1158              	.LVL64:
 297:Generated_Source\PSoC5/CyLib.c **** 
 1159              		.loc 1 297 0
 1160 0028 0233     		adds	r3, r3, #2
 1161 002a 1E78     		ldrb	r6, [r3]	@ zero_extendqisi2
 1162 002c F6B2     		uxtb	r6, r6
 1163              	.LVL65:
 299:Generated_Source\PSoC5/CyLib.c **** 
 1164              		.loc 1 299 0
 1165 002e 0020     		movs	r0, #0
 1166              	.LVL66:
 1167 0030 FFF7FEFF 		bl	CyPmFtwSetInterval
 1168              	.LVL67:
 301:Generated_Source\PSoC5/CyLib.c ****         {
 1169              		.loc 1 301 0
 1170 0034 0124     		movs	r4, #1
 1171              	.L124:
 301:Generated_Source\PSoC5/CyLib.c ****         {
 1172              		.loc 1 301 0 is_stmt 0 discriminator 1
 1173 0036 2046     		mov	r0, r4
 1174 0038 FFF7FEFF 		bl	CyPmReadStatus
 1175              	.LVL68:
 1176 003c 10F0010F 		tst	r0, #1
 1177 0040 F9D0     		beq	.L124
 306:Generated_Source\PSoC5/CyLib.c ****         {
 1178              		.loc 1 306 0 is_stmt 1
 1179 0042 0DB9     		cbnz	r5, .L125
 308:Generated_Source\PSoC5/CyLib.c ****         }
 1180              		.loc 1 308 0
ARM GAS  C:\Users\ingan\AppData\Local\Temp\ccwaQbAc.s 			page 40


 1181 0044 FFF7FEFF 		bl	CyILO_Stop100K
 1182              	.LVL69:
 1183              	.L125:
 311:Generated_Source\PSoC5/CyLib.c ****         CY_LIB_PM_TW_CFG2_REG = pmFtwCfg2Reg;
 1184              		.loc 1 311 0
 1185 0048 044B     		ldr	r3, .L128+8
 1186 004a 1F70     		strb	r7, [r3]
 312:Generated_Source\PSoC5/CyLib.c ****     }
 1187              		.loc 1 312 0
 1188 004c 0233     		adds	r3, r3, #2
 1189 004e 1E70     		strb	r6, [r3]
 1190              	.LVL70:
 1191              	.L122:
 1192 0050 F8BD     		pop	{r3, r4, r5, r6, r7, pc}
 1193              	.L129:
 1194 0052 00BF     		.align	2
 1195              	.L128:
 1196 0054 A0430040 		.word	1073759136
 1197 0058 00430040 		.word	1073758976
 1198 005c 80430040 		.word	1073759104
 1199              		.cfi_endproc
 1200              	.LFE4:
 1201              		.size	CyIMO_Start, .-CyIMO_Start
 1202              		.section	.text.CyILO_Enable33K,"ax",%progbits
 1203              		.align	2
 1204              		.global	CyILO_Enable33K
 1205              		.thumb
 1206              		.thumb_func
 1207              		.type	CyILO_Enable33K, %function
 1208              	CyILO_Enable33K:
 1209              	.LFB21:
 933:Generated_Source\PSoC5/CyLib.c **** }
 934:Generated_Source\PSoC5/CyLib.c **** 
 935:Generated_Source\PSoC5/CyLib.c **** 
 936:Generated_Source\PSoC5/CyLib.c **** /*******************************************************************************
 937:Generated_Source\PSoC5/CyLib.c **** * Function Name: CyILO_Enable33K
 938:Generated_Source\PSoC5/CyLib.c **** ****************************************************************************//**
 939:Generated_Source\PSoC5/CyLib.c **** *
 940:Generated_Source\PSoC5/CyLib.c **** *  Enables the ILO 33 KHz divider.
 941:Generated_Source\PSoC5/CyLib.c **** *
 942:Generated_Source\PSoC5/CyLib.c **** *  Note that the 33 KHz clock is generated from the 100 KHz oscillator,
 943:Generated_Source\PSoC5/CyLib.c **** *  so it must also be running in order to generate the 33 KHz output.
 944:Generated_Source\PSoC5/CyLib.c **** *
 945:Generated_Source\PSoC5/CyLib.c **** *******************************************************************************/
 946:Generated_Source\PSoC5/CyLib.c **** void CyILO_Enable33K(void) 
 947:Generated_Source\PSoC5/CyLib.c **** {
 1210              		.loc 1 947 0
 1211              		.cfi_startproc
 1212              		@ args = 0, pretend = 0, frame = 0
 1213              		@ frame_needed = 0, uses_anonymous_args = 0
 1214              		@ link register save eliminated.
 948:Generated_Source\PSoC5/CyLib.c ****     /* Set bit 5 of ILO RS */
 949:Generated_Source\PSoC5/CyLib.c ****     CY_LIB_SLOWCLK_ILO_CR0_REG |= CY_LIB_SLOWCLK_ILO_CR0_EN_33KHZ;
 1215              		.loc 1 949 0
 1216 0000 024A     		ldr	r2, .L131
 1217 0002 1378     		ldrb	r3, [r2]	@ zero_extendqisi2
 1218 0004 43F02003 		orr	r3, r3, #32
ARM GAS  C:\Users\ingan\AppData\Local\Temp\ccwaQbAc.s 			page 41


 1219 0008 1370     		strb	r3, [r2]
 1220 000a 7047     		bx	lr
 1221              	.L132:
 1222              		.align	2
 1223              	.L131:
 1224 000c 00430040 		.word	1073758976
 1225              		.cfi_endproc
 1226              	.LFE21:
 1227              		.size	CyILO_Enable33K, .-CyILO_Enable33K
 1228              		.section	.text.CyILO_Disable33K,"ax",%progbits
 1229              		.align	2
 1230              		.global	CyILO_Disable33K
 1231              		.thumb
 1232              		.thumb_func
 1233              		.type	CyILO_Disable33K, %function
 1234              	CyILO_Disable33K:
 1235              	.LFB22:
 950:Generated_Source\PSoC5/CyLib.c **** }
 951:Generated_Source\PSoC5/CyLib.c **** 
 952:Generated_Source\PSoC5/CyLib.c **** 
 953:Generated_Source\PSoC5/CyLib.c **** /*******************************************************************************
 954:Generated_Source\PSoC5/CyLib.c **** * Function Name: CyILO_Disable33K
 955:Generated_Source\PSoC5/CyLib.c **** ****************************************************************************//**
 956:Generated_Source\PSoC5/CyLib.c **** *
 957:Generated_Source\PSoC5/CyLib.c **** *  Disables the ILO 33 KHz divider.
 958:Generated_Source\PSoC5/CyLib.c **** *
 959:Generated_Source\PSoC5/CyLib.c **** *  Note that the 33 KHz clock is generated from the 100 KHz oscillator, but this
 960:Generated_Source\PSoC5/CyLib.c **** *  API does not disable the 100 KHz clock.
 961:Generated_Source\PSoC5/CyLib.c **** *
 962:Generated_Source\PSoC5/CyLib.c **** *******************************************************************************/
 963:Generated_Source\PSoC5/CyLib.c **** void CyILO_Disable33K(void) 
 964:Generated_Source\PSoC5/CyLib.c **** {
 1236              		.loc 1 964 0
 1237              		.cfi_startproc
 1238              		@ args = 0, pretend = 0, frame = 0
 1239              		@ frame_needed = 0, uses_anonymous_args = 0
 1240              		@ link register save eliminated.
 965:Generated_Source\PSoC5/CyLib.c ****     CY_LIB_SLOWCLK_ILO_CR0_REG &= ((uint8)(~CY_LIB_SLOWCLK_ILO_CR0_EN_33KHZ));
 1241              		.loc 1 965 0
 1242 0000 024A     		ldr	r2, .L134
 1243 0002 1378     		ldrb	r3, [r2]	@ zero_extendqisi2
 1244 0004 03F0DF03 		and	r3, r3, #223
 1245 0008 1370     		strb	r3, [r2]
 1246 000a 7047     		bx	lr
 1247              	.L135:
 1248              		.align	2
 1249              	.L134:
 1250 000c 00430040 		.word	1073758976
 1251              		.cfi_endproc
 1252              	.LFE22:
 1253              		.size	CyILO_Disable33K, .-CyILO_Disable33K
 1254              		.section	.text.CyILO_SetSource,"ax",%progbits
 1255              		.align	2
 1256              		.global	CyILO_SetSource
 1257              		.thumb
 1258              		.thumb_func
 1259              		.type	CyILO_SetSource, %function
ARM GAS  C:\Users\ingan\AppData\Local\Temp\ccwaQbAc.s 			page 42


 1260              	CyILO_SetSource:
 1261              	.LFB23:
 966:Generated_Source\PSoC5/CyLib.c **** }
 967:Generated_Source\PSoC5/CyLib.c **** 
 968:Generated_Source\PSoC5/CyLib.c **** 
 969:Generated_Source\PSoC5/CyLib.c **** /*******************************************************************************
 970:Generated_Source\PSoC5/CyLib.c **** * Function Name: CyILO_SetSource
 971:Generated_Source\PSoC5/CyLib.c **** ****************************************************************************//**
 972:Generated_Source\PSoC5/CyLib.c **** *
 973:Generated_Source\PSoC5/CyLib.c **** *  Sets the source of the clock output from the ILO block.
 974:Generated_Source\PSoC5/CyLib.c **** *
 975:Generated_Source\PSoC5/CyLib.c **** *  \param source: One of the three available ILO output sources
 976:Generated_Source\PSoC5/CyLib.c **** *       Value        Define                Source
 977:Generated_Source\PSoC5/CyLib.c **** *       0            CY_ILO_SOURCE_100K    ILO 100 KHz
 978:Generated_Source\PSoC5/CyLib.c **** *       1            CY_ILO_SOURCE_33K     ILO 33 KHz
 979:Generated_Source\PSoC5/CyLib.c **** *       2            CY_ILO_SOURCE_1K      ILO 1 KHz
 980:Generated_Source\PSoC5/CyLib.c **** *
 981:Generated_Source\PSoC5/CyLib.c **** *******************************************************************************/
 982:Generated_Source\PSoC5/CyLib.c **** void CyILO_SetSource(uint8 source) 
 983:Generated_Source\PSoC5/CyLib.c **** {
 1262              		.loc 1 983 0
 1263              		.cfi_startproc
 1264              		@ args = 0, pretend = 0, frame = 0
 1265              		@ frame_needed = 0, uses_anonymous_args = 0
 1266              		@ link register save eliminated.
 1267              	.LVL71:
 984:Generated_Source\PSoC5/CyLib.c ****     CY_LIB_CLKDIST_CR_REG = (CY_LIB_CLKDIST_CR_REG & CY_ILO_SOURCE_BITS_CLEAR) |
 1268              		.loc 1 984 0
 1269 0000 4FF04022 		mov	r2, #1073758208
 1270 0004 1378     		ldrb	r3, [r2]	@ zero_extendqisi2
 1271 0006 8000     		lsls	r0, r0, #2
 1272              	.LVL72:
 1273 0008 00F00C00 		and	r0, r0, #12
 1274 000c 03F0F303 		and	r3, r3, #243
 1275 0010 0343     		orrs	r3, r3, r0
 1276 0012 1370     		strb	r3, [r2]
 1277 0014 7047     		bx	lr
 1278              		.cfi_endproc
 1279              	.LFE23:
 1280              		.size	CyILO_SetSource, .-CyILO_SetSource
 1281 0016 00BF     		.section	.text.CyILO_SetPowerMode,"ax",%progbits
 1282              		.align	2
 1283              		.global	CyILO_SetPowerMode
 1284              		.thumb
 1285              		.thumb_func
 1286              		.type	CyILO_SetPowerMode, %function
 1287              	CyILO_SetPowerMode:
 1288              	.LFB24:
 985:Generated_Source\PSoC5/CyLib.c ****                     (((uint8) (source << 2u)) & ((uint8)(~CY_ILO_SOURCE_BITS_CLEAR)));
 986:Generated_Source\PSoC5/CyLib.c **** }
 987:Generated_Source\PSoC5/CyLib.c **** 
 988:Generated_Source\PSoC5/CyLib.c **** 
 989:Generated_Source\PSoC5/CyLib.c **** /*******************************************************************************
 990:Generated_Source\PSoC5/CyLib.c **** * Function Name: CyILO_SetPowerMode
 991:Generated_Source\PSoC5/CyLib.c **** ****************************************************************************//**
 992:Generated_Source\PSoC5/CyLib.c **** *
 993:Generated_Source\PSoC5/CyLib.c **** * Sets the power mode used by the ILO during power down. Allows for lower power
ARM GAS  C:\Users\ingan\AppData\Local\Temp\ccwaQbAc.s 			page 43


 994:Generated_Source\PSoC5/CyLib.c **** * down power usage resulting in a slower startup time.
 995:Generated_Source\PSoC5/CyLib.c **** *
 996:Generated_Source\PSoC5/CyLib.c **** * \param mode
 997:Generated_Source\PSoC5/CyLib.c **** * CY_ILO_FAST_START - Faster start-up, internal bias left on when powered down
 998:Generated_Source\PSoC5/CyLib.c **** * CY_ILO_SLOW_START - Slower start-up, internal bias off when powered down
 999:Generated_Source\PSoC5/CyLib.c **** *
1000:Generated_Source\PSoC5/CyLib.c **** * \return Prevous power mode state.
1001:Generated_Source\PSoC5/CyLib.c **** *
1002:Generated_Source\PSoC5/CyLib.c **** *******************************************************************************/
1003:Generated_Source\PSoC5/CyLib.c **** uint8 CyILO_SetPowerMode(uint8 mode) 
1004:Generated_Source\PSoC5/CyLib.c **** {
 1289              		.loc 1 1004 0
 1290              		.cfi_startproc
 1291              		@ args = 0, pretend = 0, frame = 0
 1292              		@ frame_needed = 0, uses_anonymous_args = 0
 1293              		@ link register save eliminated.
 1294              	.LVL73:
1005:Generated_Source\PSoC5/CyLib.c ****     uint8 state;
1006:Generated_Source\PSoC5/CyLib.c **** 
1007:Generated_Source\PSoC5/CyLib.c ****     /* Get current state. */
1008:Generated_Source\PSoC5/CyLib.c ****     state = CY_LIB_SLOWCLK_ILO_CR0_REG;
 1295              		.loc 1 1008 0
 1296 0000 074B     		ldr	r3, .L140
 1297 0002 1B78     		ldrb	r3, [r3]	@ zero_extendqisi2
 1298 0004 DBB2     		uxtb	r3, r3
 1299              	.LVL74:
1009:Generated_Source\PSoC5/CyLib.c **** 
1010:Generated_Source\PSoC5/CyLib.c ****     /* Set the oscillator power mode. */
1011:Generated_Source\PSoC5/CyLib.c ****     if(mode != CY_ILO_FAST_START)
 1300              		.loc 1 1011 0
 1301 0006 20B1     		cbz	r0, .L138
1012:Generated_Source\PSoC5/CyLib.c ****     {
1013:Generated_Source\PSoC5/CyLib.c ****         CY_LIB_SLOWCLK_ILO_CR0_REG = (state | CY_ILO_CONTROL_PD_MODE);
 1302              		.loc 1 1013 0
 1303 0008 43F01002 		orr	r2, r3, #16
 1304 000c 0449     		ldr	r1, .L140
 1305 000e 0A70     		strb	r2, [r1]
 1306 0010 03E0     		b	.L139
 1307              	.L138:
1014:Generated_Source\PSoC5/CyLib.c ****     }
1015:Generated_Source\PSoC5/CyLib.c ****     else
1016:Generated_Source\PSoC5/CyLib.c ****     {
1017:Generated_Source\PSoC5/CyLib.c ****         CY_LIB_SLOWCLK_ILO_CR0_REG = (state & ((uint8)(~CY_ILO_CONTROL_PD_MODE)));
 1308              		.loc 1 1017 0
 1309 0012 03F0EF02 		and	r2, r3, #239
 1310 0016 0249     		ldr	r1, .L140
 1311 0018 0A70     		strb	r2, [r1]
 1312              	.L139:
1018:Generated_Source\PSoC5/CyLib.c ****     }
1019:Generated_Source\PSoC5/CyLib.c **** 
1020:Generated_Source\PSoC5/CyLib.c ****     /* Return old mode. */
1021:Generated_Source\PSoC5/CyLib.c ****     return ((state & CY_ILO_CONTROL_PD_MODE) >> CY_ILO_CONTROL_PD_POSITION);
1022:Generated_Source\PSoC5/CyLib.c **** }
 1313              		.loc 1 1022 0
 1314 001a C3F30010 		ubfx	r0, r3, #4, #1
 1315              	.LVL75:
 1316 001e 7047     		bx	lr
ARM GAS  C:\Users\ingan\AppData\Local\Temp\ccwaQbAc.s 			page 44


 1317              	.L141:
 1318              		.align	2
 1319              	.L140:
 1320 0020 00430040 		.word	1073758976
 1321              		.cfi_endproc
 1322              	.LFE24:
 1323              		.size	CyILO_SetPowerMode, .-CyILO_SetPowerMode
 1324              		.section	.text.CyXTAL_32KHZ_Stop,"ax",%progbits
 1325              		.align	2
 1326              		.global	CyXTAL_32KHZ_Stop
 1327              		.thumb
 1328              		.thumb_func
 1329              		.type	CyXTAL_32KHZ_Stop, %function
 1330              	CyXTAL_32KHZ_Stop:
 1331              	.LFB26:
1023:Generated_Source\PSoC5/CyLib.c **** 
1024:Generated_Source\PSoC5/CyLib.c **** 
1025:Generated_Source\PSoC5/CyLib.c **** /*******************************************************************************
1026:Generated_Source\PSoC5/CyLib.c **** * Function Name: CyXTAL_32KHZ_Start
1027:Generated_Source\PSoC5/CyLib.c **** ****************************************************************************//**
1028:Generated_Source\PSoC5/CyLib.c **** *
1029:Generated_Source\PSoC5/CyLib.c **** *  Enables the 32 KHz Crystal Oscillator.
1030:Generated_Source\PSoC5/CyLib.c **** *
1031:Generated_Source\PSoC5/CyLib.c **** *******************************************************************************/
1032:Generated_Source\PSoC5/CyLib.c **** void CyXTAL_32KHZ_Start(void) 
1033:Generated_Source\PSoC5/CyLib.c **** {
1034:Generated_Source\PSoC5/CyLib.c ****     volatile uint16 i;
1035:Generated_Source\PSoC5/CyLib.c **** 
1036:Generated_Source\PSoC5/CyLib.c ****     CY_CLK_XTAL32_TST_REG = CY_CLK_XTAL32_TST_DEFAULT;
1037:Generated_Source\PSoC5/CyLib.c ****     CY_CLK_XTAL32_TR_REG  = CY_CLK_XTAL32_TR_STARTUP;
1038:Generated_Source\PSoC5/CyLib.c ****     CY_CLK_XTAL32_CFG_REG = (CY_CLK_XTAL32_CFG_REG & ((uint8)(~CY_CLK_XTAL32_CFG_LP_MASK))) |
1039:Generated_Source\PSoC5/CyLib.c ****                                 CY_CLK_XTAL32_CFG_LP_DEFAULT;
1040:Generated_Source\PSoC5/CyLib.c **** 
1041:Generated_Source\PSoC5/CyLib.c ****     #if(CY_PSOC3)
1042:Generated_Source\PSoC5/CyLib.c ****         CY_CLK_XTAL32_CR_REG |= CY_CLK_XTAL32_CR_PDBEN;
1043:Generated_Source\PSoC5/CyLib.c ****     #endif  /* (CY_PSOC3) */
1044:Generated_Source\PSoC5/CyLib.c **** 
1045:Generated_Source\PSoC5/CyLib.c ****     /* Enable operation of 32K Crystal Oscillator */
1046:Generated_Source\PSoC5/CyLib.c ****     CY_CLK_XTAL32_CR_REG |= CY_CLK_XTAL32_CR_EN;
1047:Generated_Source\PSoC5/CyLib.c **** 
1048:Generated_Source\PSoC5/CyLib.c ****     for (i = 1000u; i > 0u; i--)
1049:Generated_Source\PSoC5/CyLib.c ****     {
1050:Generated_Source\PSoC5/CyLib.c ****         if(0u != (CyXTAL_32KHZ_ReadStatus() & CY_XTAL32K_ANA_STAT))
1051:Generated_Source\PSoC5/CyLib.c ****         {
1052:Generated_Source\PSoC5/CyLib.c ****             /* Ready - switch to high power mode */
1053:Generated_Source\PSoC5/CyLib.c ****             (void) CyXTAL_32KHZ_SetPowerMode(0u);
1054:Generated_Source\PSoC5/CyLib.c **** 
1055:Generated_Source\PSoC5/CyLib.c ****             break;
1056:Generated_Source\PSoC5/CyLib.c ****         }
1057:Generated_Source\PSoC5/CyLib.c ****         CyDelayUs(1u);
1058:Generated_Source\PSoC5/CyLib.c ****     }
1059:Generated_Source\PSoC5/CyLib.c **** }
1060:Generated_Source\PSoC5/CyLib.c **** 
1061:Generated_Source\PSoC5/CyLib.c **** 
1062:Generated_Source\PSoC5/CyLib.c **** /*******************************************************************************
1063:Generated_Source\PSoC5/CyLib.c **** * Function Name: CyXTAL_32KHZ_Stop
1064:Generated_Source\PSoC5/CyLib.c **** ****************************************************************************//**
ARM GAS  C:\Users\ingan\AppData\Local\Temp\ccwaQbAc.s 			page 45


1065:Generated_Source\PSoC5/CyLib.c **** *
1066:Generated_Source\PSoC5/CyLib.c **** *  Disables the 32KHz Crystal Oscillator.
1067:Generated_Source\PSoC5/CyLib.c **** *
1068:Generated_Source\PSoC5/CyLib.c **** *******************************************************************************/
1069:Generated_Source\PSoC5/CyLib.c **** void CyXTAL_32KHZ_Stop(void) 
1070:Generated_Source\PSoC5/CyLib.c **** {
 1332              		.loc 1 1070 0
 1333              		.cfi_startproc
 1334              		@ args = 0, pretend = 0, frame = 0
 1335              		@ frame_needed = 0, uses_anonymous_args = 0
 1336              		@ link register save eliminated.
1071:Generated_Source\PSoC5/CyLib.c ****     CY_CLK_XTAL32_TST_REG  = CY_CLK_XTAL32_TST_DEFAULT;
 1337              		.loc 1 1071 0
 1338 0000 F322     		movs	r2, #243
 1339 0002 094B     		ldr	r3, .L143
 1340 0004 1A70     		strb	r2, [r3]
1072:Generated_Source\PSoC5/CyLib.c ****     CY_CLK_XTAL32_TR_REG   = CY_CLK_XTAL32_TR_POWERDOWN;
 1341              		.loc 1 1072 0
 1342 0006 0022     		movs	r2, #0
 1343 0008 03F28E33 		addw	r3, r3, #910
 1344 000c 1A70     		strb	r2, [r3]
1073:Generated_Source\PSoC5/CyLib.c ****     CY_CLK_XTAL32_CFG_REG = (CY_CLK_XTAL32_CFG_REG & ((uint8)(~CY_CLK_XTAL32_CFG_LP_MASK))) |
 1345              		.loc 1 1073 0
 1346 000e 074A     		ldr	r2, .L143+4
 1347 0010 1378     		ldrb	r3, [r2]	@ zero_extendqisi2
 1348 0012 03F0F303 		and	r3, r3, #243
 1349 0016 43F00403 		orr	r3, r3, #4
 1350 001a 1370     		strb	r3, [r2]
1074:Generated_Source\PSoC5/CyLib.c ****                              CY_CLK_XTAL32_CFG_LP_DEFAULT;
1075:Generated_Source\PSoC5/CyLib.c ****     CY_CLK_XTAL32_CR_REG &= ((uint8)(~(CY_CLK_XTAL32_CR_EN | CY_CLK_XTAL32_CR_LPM)));
 1351              		.loc 1 1075 0
 1352 001c 013A     		subs	r2, r2, #1
 1353 001e 1378     		ldrb	r3, [r2]	@ zero_extendqisi2
 1354 0020 03F0FC03 		and	r3, r3, #252
 1355 0024 1370     		strb	r3, [r2]
 1356 0026 7047     		bx	lr
 1357              	.L144:
 1358              		.align	2
 1359              	.L143:
 1360 0028 0A430040 		.word	1073758986
 1361 002c 09430040 		.word	1073758985
 1362              		.cfi_endproc
 1363              	.LFE26:
 1364              		.size	CyXTAL_32KHZ_Stop, .-CyXTAL_32KHZ_Stop
 1365              		.section	.text.CyXTAL_32KHZ_ReadStatus,"ax",%progbits
 1366              		.align	2
 1367              		.global	CyXTAL_32KHZ_ReadStatus
 1368              		.thumb
 1369              		.thumb_func
 1370              		.type	CyXTAL_32KHZ_ReadStatus, %function
 1371              	CyXTAL_32KHZ_ReadStatus:
 1372              	.LFB27:
1076:Generated_Source\PSoC5/CyLib.c **** 
1077:Generated_Source\PSoC5/CyLib.c ****     #if(CY_PSOC3)
1078:Generated_Source\PSoC5/CyLib.c ****         CY_CLK_XTAL32_CR_REG &= ((uint8)(~CY_CLK_XTAL32_CR_PDBEN));
1079:Generated_Source\PSoC5/CyLib.c ****     #endif  /* (CY_PSOC3) */
1080:Generated_Source\PSoC5/CyLib.c **** }
ARM GAS  C:\Users\ingan\AppData\Local\Temp\ccwaQbAc.s 			page 46


1081:Generated_Source\PSoC5/CyLib.c **** 
1082:Generated_Source\PSoC5/CyLib.c **** 
1083:Generated_Source\PSoC5/CyLib.c **** /*******************************************************************************
1084:Generated_Source\PSoC5/CyLib.c **** * Function Name: CyXTAL_32KHZ_ReadStatus
1085:Generated_Source\PSoC5/CyLib.c **** ****************************************************************************//**
1086:Generated_Source\PSoC5/CyLib.c **** *
1087:Generated_Source\PSoC5/CyLib.c **** *  Returns status of the 32 KHz oscillator.
1088:Generated_Source\PSoC5/CyLib.c **** *
1089:Generated_Source\PSoC5/CyLib.c **** * \return
1090:Generated_Source\PSoC5/CyLib.c **** *  Value     Define                    Source
1091:Generated_Source\PSoC5/CyLib.c **** *  20        CY_XTAL32K_ANA_STAT       Analog measurement
1092:Generated_Source\PSoC5/CyLib.c **** *                                       1: Stable
1093:Generated_Source\PSoC5/CyLib.c **** *                                       0: Not stable
1094:Generated_Source\PSoC5/CyLib.c **** *
1095:Generated_Source\PSoC5/CyLib.c **** *******************************************************************************/
1096:Generated_Source\PSoC5/CyLib.c **** uint8 CyXTAL_32KHZ_ReadStatus(void) 
1097:Generated_Source\PSoC5/CyLib.c **** {
 1373              		.loc 1 1097 0
 1374              		.cfi_startproc
 1375              		@ args = 0, pretend = 0, frame = 0
 1376              		@ frame_needed = 0, uses_anonymous_args = 0
 1377              		@ link register save eliminated.
1098:Generated_Source\PSoC5/CyLib.c ****     return(CY_CLK_XTAL32_CR_REG & CY_XTAL32K_ANA_STAT);
 1378              		.loc 1 1098 0
 1379 0000 024B     		ldr	r3, .L146
 1380 0002 1878     		ldrb	r0, [r3]	@ zero_extendqisi2
1099:Generated_Source\PSoC5/CyLib.c **** }
 1381              		.loc 1 1099 0
 1382 0004 00F02000 		and	r0, r0, #32
 1383 0008 7047     		bx	lr
 1384              	.L147:
 1385 000a 00BF     		.align	2
 1386              	.L146:
 1387 000c 08430040 		.word	1073758984
 1388              		.cfi_endproc
 1389              	.LFE27:
 1390              		.size	CyXTAL_32KHZ_ReadStatus, .-CyXTAL_32KHZ_ReadStatus
 1391              		.section	.text.CyXTAL_Start,"ax",%progbits
 1392              		.align	2
 1393              		.global	CyXTAL_Start
 1394              		.thumb
 1395              		.thumb_func
 1396              		.type	CyXTAL_Start, %function
 1397              	CyXTAL_Start:
 1398              	.LFB29:
1100:Generated_Source\PSoC5/CyLib.c **** 
1101:Generated_Source\PSoC5/CyLib.c **** 
1102:Generated_Source\PSoC5/CyLib.c **** /*******************************************************************************
1103:Generated_Source\PSoC5/CyLib.c **** * Function Name: CyXTAL_32KHZ_SetPowerMode
1104:Generated_Source\PSoC5/CyLib.c **** ****************************************************************************//**
1105:Generated_Source\PSoC5/CyLib.c **** *
1106:Generated_Source\PSoC5/CyLib.c **** *  Sets the power mode for the 32 KHz oscillator used during the sleep mode.
1107:Generated_Source\PSoC5/CyLib.c **** *  Allows for lower power during sleep when there are fewer sources of noise.
1108:Generated_Source\PSoC5/CyLib.c **** *  During the active mode the oscillator is always run in the high power mode.
1109:Generated_Source\PSoC5/CyLib.c **** *
1110:Generated_Source\PSoC5/CyLib.c **** *  uint8 mode
1111:Generated_Source\PSoC5/CyLib.c **** *       \param 0: High power mode
ARM GAS  C:\Users\ingan\AppData\Local\Temp\ccwaQbAc.s 			page 47


1112:Generated_Source\PSoC5/CyLib.c **** *       \param 1: Low power mode during sleep
1113:Generated_Source\PSoC5/CyLib.c **** *
1114:Generated_Source\PSoC5/CyLib.c **** * \return
1115:Generated_Source\PSoC5/CyLib.c **** *  Previous power mode.
1116:Generated_Source\PSoC5/CyLib.c **** *
1117:Generated_Source\PSoC5/CyLib.c **** *******************************************************************************/
1118:Generated_Source\PSoC5/CyLib.c **** uint8 CyXTAL_32KHZ_SetPowerMode(uint8 mode) 
1119:Generated_Source\PSoC5/CyLib.c **** {
1120:Generated_Source\PSoC5/CyLib.c ****     uint8 state = (0u != (CY_CLK_XTAL32_CR_REG & CY_CLK_XTAL32_CR_LPM)) ? 1u : 0u;
1121:Generated_Source\PSoC5/CyLib.c **** 
1122:Generated_Source\PSoC5/CyLib.c ****     CY_CLK_XTAL32_TST_REG = CY_CLK_XTAL32_TST_DEFAULT;
1123:Generated_Source\PSoC5/CyLib.c **** 
1124:Generated_Source\PSoC5/CyLib.c ****     if(1u == mode)
1125:Generated_Source\PSoC5/CyLib.c ****     {
1126:Generated_Source\PSoC5/CyLib.c ****         /* Low power mode during Sleep */
1127:Generated_Source\PSoC5/CyLib.c ****         CY_CLK_XTAL32_TR_REG  = CY_CLK_XTAL32_TR_LOW_POWER;
1128:Generated_Source\PSoC5/CyLib.c ****         CyDelayUs(10u);
1129:Generated_Source\PSoC5/CyLib.c ****         CY_CLK_XTAL32_CFG_REG = (CY_CLK_XTAL32_CFG_REG & ((uint8)(~CY_CLK_XTAL32_CFG_LP_MASK))) |
1130:Generated_Source\PSoC5/CyLib.c ****                                 CY_CLK_XTAL32_CFG_LP_LOWPOWER;
1131:Generated_Source\PSoC5/CyLib.c ****         CyDelayUs(20u);
1132:Generated_Source\PSoC5/CyLib.c ****         CY_CLK_XTAL32_CR_REG |= CY_CLK_XTAL32_CR_LPM;
1133:Generated_Source\PSoC5/CyLib.c ****     }
1134:Generated_Source\PSoC5/CyLib.c ****     else
1135:Generated_Source\PSoC5/CyLib.c ****     {
1136:Generated_Source\PSoC5/CyLib.c ****         /* High power mode */
1137:Generated_Source\PSoC5/CyLib.c ****         CY_CLK_XTAL32_TR_REG  = CY_CLK_XTAL32_TR_HIGH_POWER;
1138:Generated_Source\PSoC5/CyLib.c ****         CyDelayUs(10u);
1139:Generated_Source\PSoC5/CyLib.c ****         CY_CLK_XTAL32_CFG_REG = (CY_CLK_XTAL32_CFG_REG & ((uint8)(~CY_CLK_XTAL32_CFG_LP_MASK))) |
1140:Generated_Source\PSoC5/CyLib.c ****                                 CY_CLK_XTAL32_CFG_LP_DEFAULT;
1141:Generated_Source\PSoC5/CyLib.c ****         CY_CLK_XTAL32_CR_REG &= ((uint8)(~CY_CLK_XTAL32_CR_LPM));
1142:Generated_Source\PSoC5/CyLib.c ****     }
1143:Generated_Source\PSoC5/CyLib.c **** 
1144:Generated_Source\PSoC5/CyLib.c ****     return(state);
1145:Generated_Source\PSoC5/CyLib.c **** }
1146:Generated_Source\PSoC5/CyLib.c **** 
1147:Generated_Source\PSoC5/CyLib.c **** 
1148:Generated_Source\PSoC5/CyLib.c **** /*******************************************************************************
1149:Generated_Source\PSoC5/CyLib.c **** * Function Name: CyXTAL_Start
1150:Generated_Source\PSoC5/CyLib.c **** ****************************************************************************//**
1151:Generated_Source\PSoC5/CyLib.c **** *
1152:Generated_Source\PSoC5/CyLib.c **** *  Enables the megahertz crystal.
1153:Generated_Source\PSoC5/CyLib.c **** *
1154:Generated_Source\PSoC5/CyLib.c **** *  PSoC 3:
1155:Generated_Source\PSoC5/CyLib.c **** *  Waits until the XERR bit is low (no error) for a millisecond or until the
1156:Generated_Source\PSoC5/CyLib.c **** *  number of milliseconds specified by the wait parameter has expired.
1157:Generated_Source\PSoC5/CyLib.c **** *
1158:Generated_Source\PSoC5/CyLib.c **** *   \param wait: Valid range [0-255].
1159:Generated_Source\PSoC5/CyLib.c **** *   This is the timeout value in milliseconds.
1160:Generated_Source\PSoC5/CyLib.c **** *   The appropriate value is crystal specific.
1161:Generated_Source\PSoC5/CyLib.c **** *
1162:Generated_Source\PSoC5/CyLib.c **** * \return
1163:Generated_Source\PSoC5/CyLib.c **** *   CYRET_SUCCESS - Completed successfully
1164:Generated_Source\PSoC5/CyLib.c **** *   CYRET_TIMEOUT - Timeout occurred without detecting a low value on XERR.
1165:Generated_Source\PSoC5/CyLib.c **** *
1166:Generated_Source\PSoC5/CyLib.c **** * Side Effects and Restrictions:
1167:Generated_Source\PSoC5/CyLib.c **** *  If wait is enabled (non-zero wait). Uses the Fast Timewheel to time the wait.
1168:Generated_Source\PSoC5/CyLib.c **** *  Any other use of the Fast Timewheel (FTW) will be stopped during the period
ARM GAS  C:\Users\ingan\AppData\Local\Temp\ccwaQbAc.s 			page 48


1169:Generated_Source\PSoC5/CyLib.c **** *  of this function and then restored.
1170:Generated_Source\PSoC5/CyLib.c **** *
1171:Generated_Source\PSoC5/CyLib.c **** *  Uses the 100KHz ILO.  If not enabled, this function will enable the 100KHz
1172:Generated_Source\PSoC5/CyLib.c **** *  ILO for the period of this function. No changes to the setup of the ILO,
1173:Generated_Source\PSoC5/CyLib.c **** *  Fast Timewheel, Central Timewheel or Once Per Second interrupt may be made
1174:Generated_Source\PSoC5/CyLib.c **** *  by interrupt routines during the period of this function.
1175:Generated_Source\PSoC5/CyLib.c **** *
1176:Generated_Source\PSoC5/CyLib.c **** *  The current operation of the ILO, Central Timewheel and Once Per Second
1177:Generated_Source\PSoC5/CyLib.c **** *  interrupt are maintained during the operation of this function provided the
1178:Generated_Source\PSoC5/CyLib.c **** *  reading of the Power Manager Interrupt Status Register is only done using the
1179:Generated_Source\PSoC5/CyLib.c **** *  CyPmReadStatus() function.
1180:Generated_Source\PSoC5/CyLib.c **** *
1181:Generated_Source\PSoC5/CyLib.c **** *******************************************************************************/
1182:Generated_Source\PSoC5/CyLib.c **** cystatus CyXTAL_Start(uint8 wait) 
1183:Generated_Source\PSoC5/CyLib.c **** {
 1399              		.loc 1 1183 0
 1400              		.cfi_startproc
 1401              		@ args = 0, pretend = 0, frame = 8
 1402              		@ frame_needed = 0, uses_anonymous_args = 0
 1403              	.LVL76:
 1404 0000 2DE9F041 		push	{r4, r5, r6, r7, r8, lr}
 1405              		.cfi_def_cfa_offset 24
 1406              		.cfi_offset 4, -24
 1407              		.cfi_offset 5, -20
 1408              		.cfi_offset 6, -16
 1409              		.cfi_offset 7, -12
 1410              		.cfi_offset 8, -8
 1411              		.cfi_offset 14, -4
 1412 0004 82B0     		sub	sp, sp, #8
 1413              		.cfi_def_cfa_offset 32
 1414              	.LVL77:
1184:Generated_Source\PSoC5/CyLib.c ****     cystatus status = CYRET_SUCCESS;
1185:Generated_Source\PSoC5/CyLib.c ****     volatile uint8  timeout = wait;
 1415              		.loc 1 1185 0
 1416 0006 8DF80700 		strb	r0, [sp, #7]
1186:Generated_Source\PSoC5/CyLib.c ****     volatile uint8 count;
1187:Generated_Source\PSoC5/CyLib.c ****     uint8 iloEnableState;
1188:Generated_Source\PSoC5/CyLib.c ****     uint8 pmTwCfg0Tmp;
1189:Generated_Source\PSoC5/CyLib.c ****     uint8 pmTwCfg2Tmp;
1190:Generated_Source\PSoC5/CyLib.c **** 
1191:Generated_Source\PSoC5/CyLib.c **** 
1192:Generated_Source\PSoC5/CyLib.c ****     /* Enables MHz crystal oscillator circuit  */
1193:Generated_Source\PSoC5/CyLib.c ****     CY_CLK_XMHZ_CSR_REG |= CY_CLK_XMHZ_CSR_ENABLE;
 1417              		.loc 1 1193 0
 1418 000a 2C4A     		ldr	r2, .L164
 1419 000c 1378     		ldrb	r3, [r2]	@ zero_extendqisi2
 1420 000e 43F00103 		orr	r3, r3, #1
 1421 0012 1370     		strb	r3, [r2]
1194:Generated_Source\PSoC5/CyLib.c **** 
1195:Generated_Source\PSoC5/CyLib.c **** 
1196:Generated_Source\PSoC5/CyLib.c ****     if(wait > 0u)
 1422              		.loc 1 1196 0
 1423 0014 0028     		cmp	r0, #0
 1424 0016 4CD0     		beq	.L156
1197:Generated_Source\PSoC5/CyLib.c ****     {
1198:Generated_Source\PSoC5/CyLib.c ****         /* Save 100 KHz ILO, FTW interval, enable and interrupt enable */
1199:Generated_Source\PSoC5/CyLib.c ****         iloEnableState = CY_LIB_SLOWCLK_ILO_CR0_REG;
ARM GAS  C:\Users\ingan\AppData\Local\Temp\ccwaQbAc.s 			page 49


 1425              		.loc 1 1199 0
 1426 0018 294B     		ldr	r3, .L164+4
 1427 001a 93F80080 		ldrb	r8, [r3]	@ zero_extendqisi2
 1428 001e 5FFA88F8 		uxtb	r8, r8
 1429              	.LVL78:
1200:Generated_Source\PSoC5/CyLib.c ****         pmTwCfg0Tmp = CY_LIB_PM_TW_CFG0_REG;
 1430              		.loc 1 1200 0
 1431 0022 8033     		adds	r3, r3, #128
 1432 0024 1F78     		ldrb	r7, [r3]	@ zero_extendqisi2
 1433 0026 FFB2     		uxtb	r7, r7
 1434              	.LVL79:
1201:Generated_Source\PSoC5/CyLib.c ****         pmTwCfg2Tmp = CY_LIB_PM_TW_CFG2_REG;
 1435              		.loc 1 1201 0
 1436 0028 0233     		adds	r3, r3, #2
 1437 002a 1E78     		ldrb	r6, [r3]	@ zero_extendqisi2
 1438 002c F6B2     		uxtb	r6, r6
 1439              	.LVL80:
1202:Generated_Source\PSoC5/CyLib.c **** 
1203:Generated_Source\PSoC5/CyLib.c ****         /* Set 250 us interval */
1204:Generated_Source\PSoC5/CyLib.c ****         CyPmFtwSetInterval(CY_CLK_XMHZ_FTW_INTERVAL);
 1440              		.loc 1 1204 0
 1441 002e 1820     		movs	r0, #24
 1442              	.LVL81:
 1443 0030 FFF7FEFF 		bl	CyPmFtwSetInterval
 1444              	.LVL82:
1205:Generated_Source\PSoC5/CyLib.c ****         status = CYRET_TIMEOUT;
1206:Generated_Source\PSoC5/CyLib.c **** 
1207:Generated_Source\PSoC5/CyLib.c **** 
1208:Generated_Source\PSoC5/CyLib.c ****         for( ; timeout > 0u; timeout--)
 1445              		.loc 1 1208 0
 1446 0034 9DF80730 		ldrb	r3, [sp, #7]	@ zero_extendqisi2
 1447 0038 13F0FF0F 		tst	r3, #255
 1448 003c 2CD0     		beq	.L157
1209:Generated_Source\PSoC5/CyLib.c ****         {
1210:Generated_Source\PSoC5/CyLib.c ****             /* Read XERR bit to clear it */
1211:Generated_Source\PSoC5/CyLib.c ****             (void) CY_CLK_XMHZ_CSR_REG;
 1449              		.loc 1 1211 0
 1450 003e 1F4D     		ldr	r5, .L164
1212:Generated_Source\PSoC5/CyLib.c **** 
1213:Generated_Source\PSoC5/CyLib.c ****             /* Wait for 1 millisecond - 4 x 250 us */
1214:Generated_Source\PSoC5/CyLib.c ****             for(count = 4u; count > 0u; count--)
1215:Generated_Source\PSoC5/CyLib.c ****             {
1216:Generated_Source\PSoC5/CyLib.c ****                 while(0u == (CY_PM_FTW_INT & CyPmReadStatus(CY_PM_FTW_INT)))
 1451              		.loc 1 1216 0
 1452 0040 0124     		movs	r4, #1
 1453              	.L159:
1211:Generated_Source\PSoC5/CyLib.c **** 
 1454              		.loc 1 1211 0
 1455 0042 2B78     		ldrb	r3, [r5]	@ zero_extendqisi2
1214:Generated_Source\PSoC5/CyLib.c ****             {
 1456              		.loc 1 1214 0
 1457 0044 0423     		movs	r3, #4
 1458 0046 8DF80630 		strb	r3, [sp, #6]
 1459 004a 9DF80630 		ldrb	r3, [sp, #6]	@ zero_extendqisi2
 1460 004e 13F0FF0F 		tst	r3, #255
 1461 0052 10D0     		beq	.L152
 1462              	.L153:
ARM GAS  C:\Users\ingan\AppData\Local\Temp\ccwaQbAc.s 			page 50


 1463              		.loc 1 1216 0 discriminator 1
 1464 0054 2046     		mov	r0, r4
 1465 0056 FFF7FEFF 		bl	CyPmReadStatus
 1466              	.LVL83:
 1467 005a 10F0010F 		tst	r0, #1
 1468 005e F9D0     		beq	.L153
1214:Generated_Source\PSoC5/CyLib.c ****             {
 1469              		.loc 1 1214 0 discriminator 2
 1470 0060 9DF80630 		ldrb	r3, [sp, #6]	@ zero_extendqisi2
 1471 0064 013B     		subs	r3, r3, #1
 1472 0066 DBB2     		uxtb	r3, r3
 1473 0068 8DF80630 		strb	r3, [sp, #6]
 1474 006c 9DF80630 		ldrb	r3, [sp, #6]	@ zero_extendqisi2
 1475 0070 13F0FF0F 		tst	r3, #255
 1476 0074 EED1     		bne	.L153
 1477              	.L152:
1217:Generated_Source\PSoC5/CyLib.c ****                 {
1218:Generated_Source\PSoC5/CyLib.c ****                     /* Wait for FTW interrupt event */
1219:Generated_Source\PSoC5/CyLib.c ****                 }
1220:Generated_Source\PSoC5/CyLib.c ****             }
1221:Generated_Source\PSoC5/CyLib.c **** 
1222:Generated_Source\PSoC5/CyLib.c **** 
1223:Generated_Source\PSoC5/CyLib.c ****             /*******************************************************************
1224:Generated_Source\PSoC5/CyLib.c ****             * High output indicates an oscillator failure.
1225:Generated_Source\PSoC5/CyLib.c ****             * Only can be used after a start-up interval (1 ms) is completed.
1226:Generated_Source\PSoC5/CyLib.c ****             *******************************************************************/
1227:Generated_Source\PSoC5/CyLib.c ****             if(0u == (CY_CLK_XMHZ_CSR_REG & CY_CLK_XMHZ_CSR_XERR))
 1478              		.loc 1 1227 0
 1479 0076 2B78     		ldrb	r3, [r5]	@ zero_extendqisi2
 1480 0078 13F0800F 		tst	r3, #128
 1481 007c 0ED0     		beq	.L158
1208:Generated_Source\PSoC5/CyLib.c ****         {
 1482              		.loc 1 1208 0
 1483 007e 9DF80730 		ldrb	r3, [sp, #7]	@ zero_extendqisi2
 1484 0082 013B     		subs	r3, r3, #1
 1485 0084 DBB2     		uxtb	r3, r3
 1486 0086 8DF80730 		strb	r3, [sp, #7]
 1487 008a 9DF80730 		ldrb	r3, [sp, #7]	@ zero_extendqisi2
 1488 008e 13F0FF0F 		tst	r3, #255
 1489 0092 D6D1     		bne	.L159
1205:Generated_Source\PSoC5/CyLib.c **** 
 1490              		.loc 1 1205 0
 1491 0094 1024     		movs	r4, #16
 1492 0096 02E0     		b	.L150
 1493              	.L157:
 1494 0098 1024     		movs	r4, #16
 1495 009a 00E0     		b	.L150
 1496              	.L158:
1228:Generated_Source\PSoC5/CyLib.c ****             {
1229:Generated_Source\PSoC5/CyLib.c ****                 status = CYRET_SUCCESS;
 1497              		.loc 1 1229 0
 1498 009c 0024     		movs	r4, #0
 1499              	.L150:
 1500              	.LVL84:
1230:Generated_Source\PSoC5/CyLib.c ****                 break;
1231:Generated_Source\PSoC5/CyLib.c ****             }
1232:Generated_Source\PSoC5/CyLib.c ****         }
ARM GAS  C:\Users\ingan\AppData\Local\Temp\ccwaQbAc.s 			page 51


1233:Generated_Source\PSoC5/CyLib.c **** 
1234:Generated_Source\PSoC5/CyLib.c **** 
1235:Generated_Source\PSoC5/CyLib.c ****         /* Restore 100 KHz ILO, FTW interval, enable and interrupt enable */
1236:Generated_Source\PSoC5/CyLib.c ****         if(0u == (iloEnableState & CY_LIB_SLOWCLK_ILO_CR0_EN_100KHZ))
 1501              		.loc 1 1236 0
 1502 009e 18F0040F 		tst	r8, #4
 1503 00a2 01D1     		bne	.L155
1237:Generated_Source\PSoC5/CyLib.c ****         {
1238:Generated_Source\PSoC5/CyLib.c ****             CyILO_Stop100K();
 1504              		.loc 1 1238 0
 1505 00a4 FFF7FEFF 		bl	CyILO_Stop100K
 1506              	.LVL85:
 1507              	.L155:
1239:Generated_Source\PSoC5/CyLib.c ****         }
1240:Generated_Source\PSoC5/CyLib.c ****         CY_LIB_PM_TW_CFG0_REG = pmTwCfg0Tmp;
 1508              		.loc 1 1240 0
 1509 00a8 064B     		ldr	r3, .L164+8
 1510 00aa 1F70     		strb	r7, [r3]
1241:Generated_Source\PSoC5/CyLib.c ****         CY_LIB_PM_TW_CFG2_REG = pmTwCfg2Tmp;
 1511              		.loc 1 1241 0
 1512 00ac 0233     		adds	r3, r3, #2
 1513 00ae 1E70     		strb	r6, [r3]
 1514 00b0 00E0     		b	.L149
 1515              	.LVL86:
 1516              	.L156:
1184:Generated_Source\PSoC5/CyLib.c ****     volatile uint8  timeout = wait;
 1517              		.loc 1 1184 0
 1518 00b2 0024     		movs	r4, #0
 1519              	.LVL87:
 1520              	.L149:
1242:Generated_Source\PSoC5/CyLib.c ****     }
1243:Generated_Source\PSoC5/CyLib.c **** 
1244:Generated_Source\PSoC5/CyLib.c ****     return(status);
1245:Generated_Source\PSoC5/CyLib.c **** }
 1521              		.loc 1 1245 0
 1522 00b4 2046     		mov	r0, r4
 1523 00b6 02B0     		add	sp, sp, #8
 1524              		.cfi_def_cfa_offset 24
 1525              		@ sp needed
 1526 00b8 BDE8F081 		pop	{r4, r5, r6, r7, r8, pc}
 1527              	.LVL88:
 1528              	.L165:
 1529              		.align	2
 1530              	.L164:
 1531 00bc 10420040 		.word	1073758736
 1532 00c0 00430040 		.word	1073758976
 1533 00c4 80430040 		.word	1073759104
 1534              		.cfi_endproc
 1535              	.LFE29:
 1536              		.size	CyXTAL_Start, .-CyXTAL_Start
 1537              		.section	.text.CyXTAL_Stop,"ax",%progbits
 1538              		.align	2
 1539              		.global	CyXTAL_Stop
 1540              		.thumb
 1541              		.thumb_func
 1542              		.type	CyXTAL_Stop, %function
 1543              	CyXTAL_Stop:
ARM GAS  C:\Users\ingan\AppData\Local\Temp\ccwaQbAc.s 			page 52


 1544              	.LFB30:
1246:Generated_Source\PSoC5/CyLib.c **** 
1247:Generated_Source\PSoC5/CyLib.c **** 
1248:Generated_Source\PSoC5/CyLib.c **** /*******************************************************************************
1249:Generated_Source\PSoC5/CyLib.c **** * Function Name: CyXTAL_Stop
1250:Generated_Source\PSoC5/CyLib.c **** ****************************************************************************//**
1251:Generated_Source\PSoC5/CyLib.c **** *
1252:Generated_Source\PSoC5/CyLib.c **** *  Disables the megahertz crystal oscillator.
1253:Generated_Source\PSoC5/CyLib.c **** *
1254:Generated_Source\PSoC5/CyLib.c **** *******************************************************************************/
1255:Generated_Source\PSoC5/CyLib.c **** void CyXTAL_Stop(void) 
1256:Generated_Source\PSoC5/CyLib.c **** {
 1545              		.loc 1 1256 0
 1546              		.cfi_startproc
 1547              		@ args = 0, pretend = 0, frame = 0
 1548              		@ frame_needed = 0, uses_anonymous_args = 0
 1549              		@ link register save eliminated.
1257:Generated_Source\PSoC5/CyLib.c ****     /* Disable oscillator. */
1258:Generated_Source\PSoC5/CyLib.c ****     FASTCLK_XMHZ_CSR &= ((uint8)(~XMHZ_CONTROL_ENABLE));
 1550              		.loc 1 1258 0
 1551 0000 024A     		ldr	r2, .L167
 1552 0002 1378     		ldrb	r3, [r2]	@ zero_extendqisi2
 1553 0004 03F0FE03 		and	r3, r3, #254
 1554 0008 1370     		strb	r3, [r2]
 1555 000a 7047     		bx	lr
 1556              	.L168:
 1557              		.align	2
 1558              	.L167:
 1559 000c 10420040 		.word	1073758736
 1560              		.cfi_endproc
 1561              	.LFE30:
 1562              		.size	CyXTAL_Stop, .-CyXTAL_Stop
 1563              		.section	.text.CyXTAL_EnableErrStatus,"ax",%progbits
 1564              		.align	2
 1565              		.global	CyXTAL_EnableErrStatus
 1566              		.thumb
 1567              		.thumb_func
 1568              		.type	CyXTAL_EnableErrStatus, %function
 1569              	CyXTAL_EnableErrStatus:
 1570              	.LFB31:
1259:Generated_Source\PSoC5/CyLib.c **** }
1260:Generated_Source\PSoC5/CyLib.c **** 
1261:Generated_Source\PSoC5/CyLib.c **** 
1262:Generated_Source\PSoC5/CyLib.c **** /*******************************************************************************
1263:Generated_Source\PSoC5/CyLib.c **** * Function Name: CyXTAL_EnableErrStatus
1264:Generated_Source\PSoC5/CyLib.c **** ****************************************************************************//**
1265:Generated_Source\PSoC5/CyLib.c **** *
1266:Generated_Source\PSoC5/CyLib.c **** *  Enables the generation of the XERR status bit for the megahertz crystal.
1267:Generated_Source\PSoC5/CyLib.c **** *  This function is not available for PSoC5.
1268:Generated_Source\PSoC5/CyLib.c **** *
1269:Generated_Source\PSoC5/CyLib.c **** *******************************************************************************/
1270:Generated_Source\PSoC5/CyLib.c **** void CyXTAL_EnableErrStatus(void) 
1271:Generated_Source\PSoC5/CyLib.c **** {
 1571              		.loc 1 1271 0
 1572              		.cfi_startproc
 1573              		@ args = 0, pretend = 0, frame = 0
 1574              		@ frame_needed = 0, uses_anonymous_args = 0
ARM GAS  C:\Users\ingan\AppData\Local\Temp\ccwaQbAc.s 			page 53


 1575              		@ link register save eliminated.
1272:Generated_Source\PSoC5/CyLib.c ****     /* If oscillator has insufficient amplitude, XERR bit will be high. */
1273:Generated_Source\PSoC5/CyLib.c ****     CY_CLK_XMHZ_CSR_REG &= ((uint8)(~CY_CLK_XMHZ_CSR_XFB));
 1576              		.loc 1 1273 0
 1577 0000 024A     		ldr	r2, .L170
 1578 0002 1378     		ldrb	r3, [r2]	@ zero_extendqisi2
 1579 0004 03F0FB03 		and	r3, r3, #251
 1580 0008 1370     		strb	r3, [r2]
 1581 000a 7047     		bx	lr
 1582              	.L171:
 1583              		.align	2
 1584              	.L170:
 1585 000c 10420040 		.word	1073758736
 1586              		.cfi_endproc
 1587              	.LFE31:
 1588              		.size	CyXTAL_EnableErrStatus, .-CyXTAL_EnableErrStatus
 1589              		.section	.text.CyXTAL_DisableErrStatus,"ax",%progbits
 1590              		.align	2
 1591              		.global	CyXTAL_DisableErrStatus
 1592              		.thumb
 1593              		.thumb_func
 1594              		.type	CyXTAL_DisableErrStatus, %function
 1595              	CyXTAL_DisableErrStatus:
 1596              	.LFB32:
1274:Generated_Source\PSoC5/CyLib.c **** }
1275:Generated_Source\PSoC5/CyLib.c **** 
1276:Generated_Source\PSoC5/CyLib.c **** 
1277:Generated_Source\PSoC5/CyLib.c **** /*******************************************************************************
1278:Generated_Source\PSoC5/CyLib.c **** * Function Name: CyXTAL_DisableErrStatus
1279:Generated_Source\PSoC5/CyLib.c **** ****************************************************************************//**
1280:Generated_Source\PSoC5/CyLib.c **** *
1281:Generated_Source\PSoC5/CyLib.c **** *  Disables the generation of the XERR status bit for the megahertz crystal.
1282:Generated_Source\PSoC5/CyLib.c **** *  This function is not available for PSoC5.
1283:Generated_Source\PSoC5/CyLib.c **** *
1284:Generated_Source\PSoC5/CyLib.c **** *******************************************************************************/
1285:Generated_Source\PSoC5/CyLib.c **** void CyXTAL_DisableErrStatus(void) 
1286:Generated_Source\PSoC5/CyLib.c **** {
 1597              		.loc 1 1286 0
 1598              		.cfi_startproc
 1599              		@ args = 0, pretend = 0, frame = 0
 1600              		@ frame_needed = 0, uses_anonymous_args = 0
 1601              		@ link register save eliminated.
1287:Generated_Source\PSoC5/CyLib.c ****     /* If oscillator has insufficient amplitude, XERR bit will be high. */
1288:Generated_Source\PSoC5/CyLib.c ****     CY_CLK_XMHZ_CSR_REG |= CY_CLK_XMHZ_CSR_XFB;
 1602              		.loc 1 1288 0
 1603 0000 024A     		ldr	r2, .L173
 1604 0002 1378     		ldrb	r3, [r2]	@ zero_extendqisi2
 1605 0004 43F00403 		orr	r3, r3, #4
 1606 0008 1370     		strb	r3, [r2]
 1607 000a 7047     		bx	lr
 1608              	.L174:
 1609              		.align	2
 1610              	.L173:
 1611 000c 10420040 		.word	1073758736
 1612              		.cfi_endproc
 1613              	.LFE32:
 1614              		.size	CyXTAL_DisableErrStatus, .-CyXTAL_DisableErrStatus
ARM GAS  C:\Users\ingan\AppData\Local\Temp\ccwaQbAc.s 			page 54


 1615              		.section	.text.CyXTAL_ReadStatus,"ax",%progbits
 1616              		.align	2
 1617              		.global	CyXTAL_ReadStatus
 1618              		.thumb
 1619              		.thumb_func
 1620              		.type	CyXTAL_ReadStatus, %function
 1621              	CyXTAL_ReadStatus:
 1622              	.LFB33:
1289:Generated_Source\PSoC5/CyLib.c **** }
1290:Generated_Source\PSoC5/CyLib.c **** 
1291:Generated_Source\PSoC5/CyLib.c **** 
1292:Generated_Source\PSoC5/CyLib.c **** /*******************************************************************************
1293:Generated_Source\PSoC5/CyLib.c **** * Function Name: CyXTAL_ReadStatus
1294:Generated_Source\PSoC5/CyLib.c **** ****************************************************************************//**
1295:Generated_Source\PSoC5/CyLib.c **** *
1296:Generated_Source\PSoC5/CyLib.c **** *  Reads the XERR status bit for the megahertz crystal. This status bit is a
1297:Generated_Source\PSoC5/CyLib.c **** *  sticky, clear on read. This function is not available for PSoC5.
1298:Generated_Source\PSoC5/CyLib.c **** *
1299:Generated_Source\PSoC5/CyLib.c **** * \return
1300:Generated_Source\PSoC5/CyLib.c **** *   Status
1301:Generated_Source\PSoC5/CyLib.c **** *    0: No error
1302:Generated_Source\PSoC5/CyLib.c **** *    1: Error
1303:Generated_Source\PSoC5/CyLib.c **** *
1304:Generated_Source\PSoC5/CyLib.c **** *******************************************************************************/
1305:Generated_Source\PSoC5/CyLib.c **** uint8 CyXTAL_ReadStatus(void) 
1306:Generated_Source\PSoC5/CyLib.c **** {
 1623              		.loc 1 1306 0
 1624              		.cfi_startproc
 1625              		@ args = 0, pretend = 0, frame = 0
 1626              		@ frame_needed = 0, uses_anonymous_args = 0
 1627              		@ link register save eliminated.
1307:Generated_Source\PSoC5/CyLib.c ****     /***************************************************************************
1308:Generated_Source\PSoC5/CyLib.c ****     * High output indicates an oscillator failure. Only use this after a start-up
1309:Generated_Source\PSoC5/CyLib.c ****     * interval is completed. This can be used for the status and failure recovery.
1310:Generated_Source\PSoC5/CyLib.c ****     ***************************************************************************/
1311:Generated_Source\PSoC5/CyLib.c ****     return((0u != (CY_CLK_XMHZ_CSR_REG & CY_CLK_XMHZ_CSR_XERR)) ? 1u : 0u);
 1628              		.loc 1 1311 0
 1629 0000 014B     		ldr	r3, .L176
 1630 0002 1878     		ldrb	r0, [r3]	@ zero_extendqisi2
1312:Generated_Source\PSoC5/CyLib.c **** }
 1631              		.loc 1 1312 0
 1632 0004 C009     		lsrs	r0, r0, #7
 1633 0006 7047     		bx	lr
 1634              	.L177:
 1635              		.align	2
 1636              	.L176:
 1637 0008 10420040 		.word	1073758736
 1638              		.cfi_endproc
 1639              	.LFE33:
 1640              		.size	CyXTAL_ReadStatus, .-CyXTAL_ReadStatus
 1641              		.section	.text.CyXTAL_EnableFaultRecovery,"ax",%progbits
 1642              		.align	2
 1643              		.global	CyXTAL_EnableFaultRecovery
 1644              		.thumb
 1645              		.thumb_func
 1646              		.type	CyXTAL_EnableFaultRecovery, %function
 1647              	CyXTAL_EnableFaultRecovery:
ARM GAS  C:\Users\ingan\AppData\Local\Temp\ccwaQbAc.s 			page 55


 1648              	.LFB34:
1313:Generated_Source\PSoC5/CyLib.c **** 
1314:Generated_Source\PSoC5/CyLib.c **** 
1315:Generated_Source\PSoC5/CyLib.c **** /*******************************************************************************
1316:Generated_Source\PSoC5/CyLib.c **** * Function Name: CyXTAL_EnableFaultRecovery
1317:Generated_Source\PSoC5/CyLib.c **** ****************************************************************************//**
1318:Generated_Source\PSoC5/CyLib.c **** *
1319:Generated_Source\PSoC5/CyLib.c **** *  Enables the fault recovery circuit which will switch to the IMO in the case
1320:Generated_Source\PSoC5/CyLib.c **** *  of a fault in the megahertz crystal circuit. The crystal must be up and
1321:Generated_Source\PSoC5/CyLib.c **** *  running with the XERR bit at 0, before calling this function to prevent
1322:Generated_Source\PSoC5/CyLib.c **** *  an immediate fault switchover. This function is not available for PSoC5.
1323:Generated_Source\PSoC5/CyLib.c **** *
1324:Generated_Source\PSoC5/CyLib.c **** *******************************************************************************/
1325:Generated_Source\PSoC5/CyLib.c **** void CyXTAL_EnableFaultRecovery(void) 
1326:Generated_Source\PSoC5/CyLib.c **** {
 1649              		.loc 1 1326 0
 1650              		.cfi_startproc
 1651              		@ args = 0, pretend = 0, frame = 0
 1652              		@ frame_needed = 0, uses_anonymous_args = 0
 1653              		@ link register save eliminated.
1327:Generated_Source\PSoC5/CyLib.c ****     CY_CLK_XMHZ_CSR_REG |= CY_CLK_XMHZ_CSR_XPROT;
 1654              		.loc 1 1327 0
 1655 0000 024A     		ldr	r2, .L179
 1656 0002 1378     		ldrb	r3, [r2]	@ zero_extendqisi2
 1657 0004 43F04003 		orr	r3, r3, #64
 1658 0008 1370     		strb	r3, [r2]
 1659 000a 7047     		bx	lr
 1660              	.L180:
 1661              		.align	2
 1662              	.L179:
 1663 000c 10420040 		.word	1073758736
 1664              		.cfi_endproc
 1665              	.LFE34:
 1666              		.size	CyXTAL_EnableFaultRecovery, .-CyXTAL_EnableFaultRecovery
 1667              		.section	.text.CyXTAL_DisableFaultRecovery,"ax",%progbits
 1668              		.align	2
 1669              		.global	CyXTAL_DisableFaultRecovery
 1670              		.thumb
 1671              		.thumb_func
 1672              		.type	CyXTAL_DisableFaultRecovery, %function
 1673              	CyXTAL_DisableFaultRecovery:
 1674              	.LFB35:
1328:Generated_Source\PSoC5/CyLib.c **** }
1329:Generated_Source\PSoC5/CyLib.c **** 
1330:Generated_Source\PSoC5/CyLib.c **** 
1331:Generated_Source\PSoC5/CyLib.c **** /*******************************************************************************
1332:Generated_Source\PSoC5/CyLib.c **** * Function Name: CyXTAL_DisableFaultRecovery
1333:Generated_Source\PSoC5/CyLib.c **** ****************************************************************************//**
1334:Generated_Source\PSoC5/CyLib.c **** *
1335:Generated_Source\PSoC5/CyLib.c **** *  Disables the fault recovery circuit which will switch to the IMO in the case
1336:Generated_Source\PSoC5/CyLib.c **** *  of a fault in the megahertz crystal circuit. This function is not available
1337:Generated_Source\PSoC5/CyLib.c **** *  for PSoC5.
1338:Generated_Source\PSoC5/CyLib.c **** *
1339:Generated_Source\PSoC5/CyLib.c **** *******************************************************************************/
1340:Generated_Source\PSoC5/CyLib.c **** void CyXTAL_DisableFaultRecovery(void) 
1341:Generated_Source\PSoC5/CyLib.c **** {
 1675              		.loc 1 1341 0
ARM GAS  C:\Users\ingan\AppData\Local\Temp\ccwaQbAc.s 			page 56


 1676              		.cfi_startproc
 1677              		@ args = 0, pretend = 0, frame = 0
 1678              		@ frame_needed = 0, uses_anonymous_args = 0
 1679              		@ link register save eliminated.
1342:Generated_Source\PSoC5/CyLib.c ****     CY_CLK_XMHZ_CSR_REG &= ((uint8)(~CY_CLK_XMHZ_CSR_XPROT));
 1680              		.loc 1 1342 0
 1681 0000 024A     		ldr	r2, .L182
 1682 0002 1378     		ldrb	r3, [r2]	@ zero_extendqisi2
 1683 0004 03F0BF03 		and	r3, r3, #191
 1684 0008 1370     		strb	r3, [r2]
 1685 000a 7047     		bx	lr
 1686              	.L183:
 1687              		.align	2
 1688              	.L182:
 1689 000c 10420040 		.word	1073758736
 1690              		.cfi_endproc
 1691              	.LFE35:
 1692              		.size	CyXTAL_DisableFaultRecovery, .-CyXTAL_DisableFaultRecovery
 1693              		.section	.text.CyXTAL_SetStartup,"ax",%progbits
 1694              		.align	2
 1695              		.global	CyXTAL_SetStartup
 1696              		.thumb
 1697              		.thumb_func
 1698              		.type	CyXTAL_SetStartup, %function
 1699              	CyXTAL_SetStartup:
 1700              	.LFB36:
1343:Generated_Source\PSoC5/CyLib.c **** }
1344:Generated_Source\PSoC5/CyLib.c **** 
1345:Generated_Source\PSoC5/CyLib.c **** 
1346:Generated_Source\PSoC5/CyLib.c **** /*******************************************************************************
1347:Generated_Source\PSoC5/CyLib.c **** * Function Name: CyXTAL_SetStartup
1348:Generated_Source\PSoC5/CyLib.c **** ****************************************************************************//**
1349:Generated_Source\PSoC5/CyLib.c **** *
1350:Generated_Source\PSoC5/CyLib.c **** *  Sets the startup settings for the crystal. The logic model outputs a
1351:Generated_Source\PSoC5/CyLib.c **** *  frequency (setting + 4) MHz when enabled.
1352:Generated_Source\PSoC5/CyLib.c **** *
1353:Generated_Source\PSoC5/CyLib.c **** *  This is artificial as the actual frequency is determined by an attached
1354:Generated_Source\PSoC5/CyLib.c **** *  external crystal.
1355:Generated_Source\PSoC5/CyLib.c **** *
1356:Generated_Source\PSoC5/CyLib.c **** *  \param setting: Valid range [0-31].
1357:Generated_Source\PSoC5/CyLib.c **** *   The value is dependent on the frequency and quality of the crystal being
1358:Generated_Source\PSoC5/CyLib.c **** *   used. Refer to the device TRM and datasheet for more information.
1359:Generated_Source\PSoC5/CyLib.c **** *
1360:Generated_Source\PSoC5/CyLib.c **** *******************************************************************************/
1361:Generated_Source\PSoC5/CyLib.c **** void CyXTAL_SetStartup(uint8 setting) 
1362:Generated_Source\PSoC5/CyLib.c **** {
 1701              		.loc 1 1362 0
 1702              		.cfi_startproc
 1703              		@ args = 0, pretend = 0, frame = 0
 1704              		@ frame_needed = 0, uses_anonymous_args = 0
 1705              		@ link register save eliminated.
 1706              	.LVL89:
1363:Generated_Source\PSoC5/CyLib.c ****     CY_CLK_XMHZ_CFG0_REG = (CY_CLK_XMHZ_CFG0_REG & ((uint8)(~CY_CLK_XMHZ_CFG0_XCFG_MASK))) |
 1707              		.loc 1 1363 0
 1708 0000 044A     		ldr	r2, .L185
 1709 0002 1378     		ldrb	r3, [r2]	@ zero_extendqisi2
 1710 0004 03F0E003 		and	r3, r3, #224
ARM GAS  C:\Users\ingan\AppData\Local\Temp\ccwaQbAc.s 			page 57


 1711 0008 00F01F00 		and	r0, r0, #31
 1712              	.LVL90:
 1713 000c 1843     		orrs	r0, r0, r3
 1714 000e 1070     		strb	r0, [r2]
 1715 0010 7047     		bx	lr
 1716              	.L186:
 1717 0012 00BF     		.align	2
 1718              	.L185:
 1719 0014 12420040 		.word	1073758738
 1720              		.cfi_endproc
 1721              	.LFE36:
 1722              		.size	CyXTAL_SetStartup, .-CyXTAL_SetStartup
 1723              		.section	.text.CyXTAL_SetFbVoltage,"ax",%progbits
 1724              		.align	2
 1725              		.global	CyXTAL_SetFbVoltage
 1726              		.thumb
 1727              		.thumb_func
 1728              		.type	CyXTAL_SetFbVoltage, %function
 1729              	CyXTAL_SetFbVoltage:
 1730              	.LFB37:
1364:Generated_Source\PSoC5/CyLib.c ****                            (setting & CY_CLK_XMHZ_CFG0_XCFG_MASK);
1365:Generated_Source\PSoC5/CyLib.c **** }
1366:Generated_Source\PSoC5/CyLib.c **** 
1367:Generated_Source\PSoC5/CyLib.c **** 
1368:Generated_Source\PSoC5/CyLib.c **** 
1369:Generated_Source\PSoC5/CyLib.c **** /*******************************************************************************
1370:Generated_Source\PSoC5/CyLib.c **** * Function Name: CyXTAL_SetFbVoltage
1371:Generated_Source\PSoC5/CyLib.c **** ****************************************************************************//**
1372:Generated_Source\PSoC5/CyLib.c **** *
1373:Generated_Source\PSoC5/CyLib.c **** *  Sets the feedback reference voltage to use for the crystal circuit.
1374:Generated_Source\PSoC5/CyLib.c **** *  This function is only available for PSoC3 and PSoC 5LP.
1375:Generated_Source\PSoC5/CyLib.c **** *
1376:Generated_Source\PSoC5/CyLib.c **** *  \param setting: Valid range [0-15].
1377:Generated_Source\PSoC5/CyLib.c **** *  Refer to the device TRM and datasheet for more information.
1378:Generated_Source\PSoC5/CyLib.c **** *
1379:Generated_Source\PSoC5/CyLib.c **** *******************************************************************************/
1380:Generated_Source\PSoC5/CyLib.c **** void CyXTAL_SetFbVoltage(uint8 setting) 
1381:Generated_Source\PSoC5/CyLib.c **** {
 1731              		.loc 1 1381 0
 1732              		.cfi_startproc
 1733              		@ args = 0, pretend = 0, frame = 0
 1734              		@ frame_needed = 0, uses_anonymous_args = 0
 1735              		@ link register save eliminated.
 1736              	.LVL91:
1382:Generated_Source\PSoC5/CyLib.c ****     CY_CLK_XMHZ_CFG1_REG = ((CY_CLK_XMHZ_CFG1_REG & ((uint8)(~CY_CLK_XMHZ_CFG1_VREF_FB_MASK))) |
 1737              		.loc 1 1382 0
 1738 0000 044A     		ldr	r2, .L188
 1739 0002 1378     		ldrb	r3, [r2]	@ zero_extendqisi2
 1740 0004 03F0F003 		and	r3, r3, #240
 1741 0008 00F00F00 		and	r0, r0, #15
 1742              	.LVL92:
 1743 000c 1843     		orrs	r0, r0, r3
 1744 000e 1070     		strb	r0, [r2]
 1745 0010 7047     		bx	lr
 1746              	.L189:
 1747 0012 00BF     		.align	2
 1748              	.L188:
ARM GAS  C:\Users\ingan\AppData\Local\Temp\ccwaQbAc.s 			page 58


 1749 0014 13420040 		.word	1073758739
 1750              		.cfi_endproc
 1751              	.LFE37:
 1752              		.size	CyXTAL_SetFbVoltage, .-CyXTAL_SetFbVoltage
 1753              		.section	.text.CyXTAL_SetWdVoltage,"ax",%progbits
 1754              		.align	2
 1755              		.global	CyXTAL_SetWdVoltage
 1756              		.thumb
 1757              		.thumb_func
 1758              		.type	CyXTAL_SetWdVoltage, %function
 1759              	CyXTAL_SetWdVoltage:
 1760              	.LFB38:
1383:Generated_Source\PSoC5/CyLib.c ****                             (setting & CY_CLK_XMHZ_CFG1_VREF_FB_MASK));
1384:Generated_Source\PSoC5/CyLib.c **** }
1385:Generated_Source\PSoC5/CyLib.c **** 
1386:Generated_Source\PSoC5/CyLib.c **** 
1387:Generated_Source\PSoC5/CyLib.c **** /*******************************************************************************
1388:Generated_Source\PSoC5/CyLib.c **** * Function Name: CyXTAL_SetWdVoltage
1389:Generated_Source\PSoC5/CyLib.c **** ****************************************************************************//**
1390:Generated_Source\PSoC5/CyLib.c **** *
1391:Generated_Source\PSoC5/CyLib.c **** *  Sets the reference voltage used by the watchdog to detect a failure in the
1392:Generated_Source\PSoC5/CyLib.c **** *  crystal circuit. This function is only available for PSoC3 and PSoC 5LP.
1393:Generated_Source\PSoC5/CyLib.c **** *
1394:Generated_Source\PSoC5/CyLib.c **** *  \param setting: Valid range [0-7].
1395:Generated_Source\PSoC5/CyLib.c **** *  Refer to the device TRM and datasheet for more information.
1396:Generated_Source\PSoC5/CyLib.c **** *
1397:Generated_Source\PSoC5/CyLib.c **** *******************************************************************************/
1398:Generated_Source\PSoC5/CyLib.c **** void CyXTAL_SetWdVoltage(uint8 setting) 
1399:Generated_Source\PSoC5/CyLib.c **** {
 1761              		.loc 1 1399 0
 1762              		.cfi_startproc
 1763              		@ args = 0, pretend = 0, frame = 0
 1764              		@ frame_needed = 0, uses_anonymous_args = 0
 1765              		@ link register save eliminated.
 1766              	.LVL93:
1400:Generated_Source\PSoC5/CyLib.c ****     CY_CLK_XMHZ_CFG1_REG = ((CY_CLK_XMHZ_CFG1_REG & ((uint8)(~CY_CLK_XMHZ_CFG1_VREF_WD_MASK))) |
 1767              		.loc 1 1400 0
 1768 0000 044A     		ldr	r2, .L191
 1769 0002 1378     		ldrb	r3, [r2]	@ zero_extendqisi2
 1770 0004 0001     		lsls	r0, r0, #4
 1771              	.LVL94:
 1772 0006 00F07000 		and	r0, r0, #112
 1773 000a 03F08F03 		and	r3, r3, #143
 1774 000e 0343     		orrs	r3, r3, r0
 1775 0010 1370     		strb	r3, [r2]
 1776 0012 7047     		bx	lr
 1777              	.L192:
 1778              		.align	2
 1779              	.L191:
 1780 0014 13420040 		.word	1073758739
 1781              		.cfi_endproc
 1782              	.LFE38:
 1783              		.size	CyXTAL_SetWdVoltage, .-CyXTAL_SetWdVoltage
 1784              		.section	.text.CyHalt,"ax",%progbits
 1785              		.align	2
 1786              		.global	CyHalt
 1787              		.thumb
ARM GAS  C:\Users\ingan\AppData\Local\Temp\ccwaQbAc.s 			page 59


 1788              		.thumb_func
 1789              		.type	CyHalt, %function
 1790              	CyHalt:
 1791              	.LFB39:
1401:Generated_Source\PSoC5/CyLib.c ****                             (((uint8)(setting << 4u)) & CY_CLK_XMHZ_CFG1_VREF_WD_MASK));
1402:Generated_Source\PSoC5/CyLib.c **** }
1403:Generated_Source\PSoC5/CyLib.c **** 
1404:Generated_Source\PSoC5/CyLib.c **** 
1405:Generated_Source\PSoC5/CyLib.c **** /*******************************************************************************
1406:Generated_Source\PSoC5/CyLib.c **** * Function Name: CyHalt
1407:Generated_Source\PSoC5/CyLib.c **** ****************************************************************************//**
1408:Generated_Source\PSoC5/CyLib.c **** *
1409:Generated_Source\PSoC5/CyLib.c **** *  Halts the CPU.
1410:Generated_Source\PSoC5/CyLib.c **** *
1411:Generated_Source\PSoC5/CyLib.c **** *  \param uint8 reason: Value to be used during debugging.
1412:Generated_Source\PSoC5/CyLib.c **** *
1413:Generated_Source\PSoC5/CyLib.c **** *******************************************************************************/
1414:Generated_Source\PSoC5/CyLib.c **** void CyHalt(uint8 reason) CYREENTRANT
1415:Generated_Source\PSoC5/CyLib.c **** {
 1792              		.loc 1 1415 0
 1793              		.cfi_startproc
 1794              		@ args = 0, pretend = 0, frame = 0
 1795              		@ frame_needed = 0, uses_anonymous_args = 0
 1796              		@ link register save eliminated.
 1797              	.LVL95:
1416:Generated_Source\PSoC5/CyLib.c ****     if(0u != reason)
1417:Generated_Source\PSoC5/CyLib.c ****     {
1418:Generated_Source\PSoC5/CyLib.c ****         /* To remove unreferenced local variable warning */
1419:Generated_Source\PSoC5/CyLib.c ****     }
1420:Generated_Source\PSoC5/CyLib.c **** 
1421:Generated_Source\PSoC5/CyLib.c ****     #if defined (__ARMCC_VERSION)
1422:Generated_Source\PSoC5/CyLib.c ****         __breakpoint(0x0);
1423:Generated_Source\PSoC5/CyLib.c ****     #elif defined(__GNUC__) || defined (__ICCARM__)
1424:Generated_Source\PSoC5/CyLib.c ****         __asm("    bkpt    1");
 1798              		.loc 1 1424 0
 1799              		.syntax unified
 1800              	@ 1424 "Generated_Source\PSoC5\CyLib.c" 1
 1801 0000 01BE     		    bkpt    1
 1802              	@ 0 "" 2
 1803              		.thumb
 1804              		.syntax unified
 1805 0002 7047     		bx	lr
 1806              		.cfi_endproc
 1807              	.LFE39:
 1808              		.size	CyHalt, .-CyHalt
 1809              		.section	.text.CySoftwareReset,"ax",%progbits
 1810              		.align	2
 1811              		.global	CySoftwareReset
 1812              		.thumb
 1813              		.thumb_func
 1814              		.type	CySoftwareReset, %function
 1815              	CySoftwareReset:
 1816              	.LFB40:
1425:Generated_Source\PSoC5/CyLib.c ****     #elif defined(__C51__)
1426:Generated_Source\PSoC5/CyLib.c ****         CYDEV_HALT_CPU;
1427:Generated_Source\PSoC5/CyLib.c ****     #endif  /* (__ARMCC_VERSION) */
1428:Generated_Source\PSoC5/CyLib.c **** }
ARM GAS  C:\Users\ingan\AppData\Local\Temp\ccwaQbAc.s 			page 60


1429:Generated_Source\PSoC5/CyLib.c **** 
1430:Generated_Source\PSoC5/CyLib.c **** 
1431:Generated_Source\PSoC5/CyLib.c **** /*******************************************************************************
1432:Generated_Source\PSoC5/CyLib.c **** * Function Name: CySoftwareReset
1433:Generated_Source\PSoC5/CyLib.c **** ****************************************************************************//**
1434:Generated_Source\PSoC5/CyLib.c **** *
1435:Generated_Source\PSoC5/CyLib.c **** *  Forces a device software reset.
1436:Generated_Source\PSoC5/CyLib.c **** *
1437:Generated_Source\PSoC5/CyLib.c **** *******************************************************************************/
1438:Generated_Source\PSoC5/CyLib.c **** void CySoftwareReset(void) 
1439:Generated_Source\PSoC5/CyLib.c **** {
 1817              		.loc 1 1439 0
 1818              		.cfi_startproc
 1819              		@ args = 0, pretend = 0, frame = 0
 1820              		@ frame_needed = 0, uses_anonymous_args = 0
 1821              		@ link register save eliminated.
1440:Generated_Source\PSoC5/CyLib.c ****     CY_LIB_RESET_CR2_REG |= CY_LIB_RESET_CR2_RESET;
 1822              		.loc 1 1440 0
 1823 0000 024A     		ldr	r2, .L195
 1824 0002 1378     		ldrb	r3, [r2]	@ zero_extendqisi2
 1825 0004 43F00103 		orr	r3, r3, #1
 1826 0008 1370     		strb	r3, [r2]
 1827 000a 7047     		bx	lr
 1828              	.L196:
 1829              		.align	2
 1830              	.L195:
 1831 000c F6460040 		.word	1073759990
 1832              		.cfi_endproc
 1833              	.LFE40:
 1834              		.size	CySoftwareReset, .-CySoftwareReset
 1835              		.section	.text.CyDelay,"ax",%progbits
 1836              		.align	2
 1837              		.global	CyDelay
 1838              		.thumb
 1839              		.thumb_func
 1840              		.type	CyDelay, %function
 1841              	CyDelay:
 1842              	.LFB41:
1441:Generated_Source\PSoC5/CyLib.c **** }
1442:Generated_Source\PSoC5/CyLib.c **** 
1443:Generated_Source\PSoC5/CyLib.c **** 
1444:Generated_Source\PSoC5/CyLib.c **** /*******************************************************************************
1445:Generated_Source\PSoC5/CyLib.c **** * Function Name: CyDelay
1446:Generated_Source\PSoC5/CyLib.c **** ****************************************************************************//**
1447:Generated_Source\PSoC5/CyLib.c **** *
1448:Generated_Source\PSoC5/CyLib.c **** *  Blocks for milliseconds.
1449:Generated_Source\PSoC5/CyLib.c **** *
1450:Generated_Source\PSoC5/CyLib.c **** *  Note:
1451:Generated_Source\PSoC5/CyLib.c **** *  CyDelay has been implemented with the instruction cache assumed enabled. When
1452:Generated_Source\PSoC5/CyLib.c **** *  the instruction cache is disabled on PSoC5, CyDelay will be two times larger.
1453:Generated_Source\PSoC5/CyLib.c **** *  For example, with instruction cache disabled CyDelay(100) would result in
1454:Generated_Source\PSoC5/CyLib.c **** *  about 200 ms delay instead of 100 ms.
1455:Generated_Source\PSoC5/CyLib.c **** *
1456:Generated_Source\PSoC5/CyLib.c **** *  \param milliseconds: number of milliseconds to delay.
1457:Generated_Source\PSoC5/CyLib.c **** *
1458:Generated_Source\PSoC5/CyLib.c **** *******************************************************************************/
1459:Generated_Source\PSoC5/CyLib.c **** void CyDelay(uint32 milliseconds) CYREENTRANT
ARM GAS  C:\Users\ingan\AppData\Local\Temp\ccwaQbAc.s 			page 61


1460:Generated_Source\PSoC5/CyLib.c **** {
 1843              		.loc 1 1460 0
 1844              		.cfi_startproc
 1845              		@ args = 0, pretend = 0, frame = 0
 1846              		@ frame_needed = 0, uses_anonymous_args = 0
 1847              	.LVL96:
 1848 0000 70B5     		push	{r4, r5, r6, lr}
 1849              		.cfi_def_cfa_offset 16
 1850              		.cfi_offset 4, -16
 1851              		.cfi_offset 5, -12
 1852              		.cfi_offset 6, -8
 1853              		.cfi_offset 14, -4
 1854 0002 0646     		mov	r6, r0
1461:Generated_Source\PSoC5/CyLib.c ****     while (milliseconds > 32768u)
 1855              		.loc 1 1461 0
 1856 0004 B0F5004F 		cmp	r0, #32768
 1857 0008 13D9     		bls	.L198
 1858 000a 0446     		mov	r4, r0
1462:Generated_Source\PSoC5/CyLib.c ****     {
1463:Generated_Source\PSoC5/CyLib.c ****         /***********************************************************************
1464:Generated_Source\PSoC5/CyLib.c ****         * This loop prevents overflow.At 100MHz, milliseconds * delay_freq_khz
1465:Generated_Source\PSoC5/CyLib.c ****         * overflows at about 42 seconds.
1466:Generated_Source\PSoC5/CyLib.c ****         ***********************************************************************/
1467:Generated_Source\PSoC5/CyLib.c ****         CyDelayCycles(cydelay_32k_ms);
 1859              		.loc 1 1467 0
 1860 000c 0C4D     		ldr	r5, .L202
 1861              	.LVL97:
 1862              	.L199:
 1863 000e 2868     		ldr	r0, [r5]
 1864 0010 FFF7FEFF 		bl	CyDelayCycles
 1865              	.LVL98:
1468:Generated_Source\PSoC5/CyLib.c ****         milliseconds = ((uint32)(milliseconds - 32768u));
 1866              		.loc 1 1468 0
 1867 0014 A4F50044 		sub	r4, r4, #32768
 1868              	.LVL99:
1461:Generated_Source\PSoC5/CyLib.c ****     while (milliseconds > 32768u)
 1869              		.loc 1 1461 0
 1870 0018 B4F5004F 		cmp	r4, #32768
 1871 001c F7D8     		bhi	.L199
 1872 001e A6F50043 		sub	r3, r6, #32768
 1873 0022 013B     		subs	r3, r3, #1
 1874 0024 23F4FF43 		bic	r3, r3, #32640
 1875 0028 23F07F03 		bic	r3, r3, #127
 1876 002c A6F50046 		sub	r6, r6, #32768
 1877 0030 F61A     		subs	r6, r6, r3
 1878              	.LVL100:
 1879              	.L198:
1469:Generated_Source\PSoC5/CyLib.c ****     }
1470:Generated_Source\PSoC5/CyLib.c **** 
1471:Generated_Source\PSoC5/CyLib.c ****     CyDelayCycles(milliseconds * cydelay_freq_khz);
 1880              		.loc 1 1471 0
 1881 0032 034B     		ldr	r3, .L202
 1882 0034 5868     		ldr	r0, [r3, #4]
 1883 0036 00FB06F0 		mul	r0, r0, r6
 1884 003a FFF7FEFF 		bl	CyDelayCycles
 1885              	.LVL101:
 1886 003e 70BD     		pop	{r4, r5, r6, pc}
ARM GAS  C:\Users\ingan\AppData\Local\Temp\ccwaQbAc.s 			page 62


 1887              	.L203:
 1888              		.align	2
 1889              	.L202:
 1890 0040 00000000 		.word	.LANCHOR0
 1891              		.cfi_endproc
 1892              	.LFE41:
 1893              		.size	CyDelay, .-CyDelay
 1894              		.section	.text.CyDelayUs,"ax",%progbits
 1895              		.align	2
 1896              		.global	CyDelayUs
 1897              		.thumb
 1898              		.thumb_func
 1899              		.type	CyDelayUs, %function
 1900              	CyDelayUs:
 1901              	.LFB42:
1472:Generated_Source\PSoC5/CyLib.c **** }
1473:Generated_Source\PSoC5/CyLib.c **** 
1474:Generated_Source\PSoC5/CyLib.c **** 
1475:Generated_Source\PSoC5/CyLib.c **** #if(!CY_PSOC3)
1476:Generated_Source\PSoC5/CyLib.c **** 
1477:Generated_Source\PSoC5/CyLib.c ****     /* For PSoC3 devices function is defined in CyBootAsmKeil.a51 file */
1478:Generated_Source\PSoC5/CyLib.c **** 
1479:Generated_Source\PSoC5/CyLib.c ****     /*******************************************************************************
1480:Generated_Source\PSoC5/CyLib.c ****     * Function Name: CyDelayUs
1481:Generated_Source\PSoC5/CyLib.c ****     ****************************************************************************//**
1482:Generated_Source\PSoC5/CyLib.c ****     *
1483:Generated_Source\PSoC5/CyLib.c ****     *  Blocks for microseconds.
1484:Generated_Source\PSoC5/CyLib.c ****     *
1485:Generated_Source\PSoC5/CyLib.c ****     *  Note:
1486:Generated_Source\PSoC5/CyLib.c ****     *   CyDelay has been implemented with the instruction cache assumed enabled.
1487:Generated_Source\PSoC5/CyLib.c ****     *   When instruction cache is disabled on PSoC5, CyDelayUs will be two times
1488:Generated_Source\PSoC5/CyLib.c ****     *   larger. Ex: With instruction cache disabled CyDelayUs(100) would result
1489:Generated_Source\PSoC5/CyLib.c ****     *   in about 200us delay instead of 100us.
1490:Generated_Source\PSoC5/CyLib.c ****     *
1491:Generated_Source\PSoC5/CyLib.c ****     *  \param uint16 microseconds: number of microseconds to delay.
1492:Generated_Source\PSoC5/CyLib.c ****     *
1493:Generated_Source\PSoC5/CyLib.c ****     * \sideeffect
1494:Generated_Source\PSoC5/CyLib.c ****     *  CyDelayUS has been implemented with the instruction cache assumed enabled.
1495:Generated_Source\PSoC5/CyLib.c ****     *  When the instruction cache is disabled on PSoC 5, CyDelayUs will be two times
1496:Generated_Source\PSoC5/CyLib.c ****     *  larger. For example, with the instruction cache disabled CyDelayUs(100) would
1497:Generated_Source\PSoC5/CyLib.c ****     *  result in about 200 us delay instead of 100 us.
1498:Generated_Source\PSoC5/CyLib.c ****     *
1499:Generated_Source\PSoC5/CyLib.c ****     *  If the bus clock frequency is a small non-integer number, the actual delay
1500:Generated_Source\PSoC5/CyLib.c ****     *  can be up to twice as long as the nominal value. The actual delay cannot be
1501:Generated_Source\PSoC5/CyLib.c ****     *  shorter than the nominal one.
1502:Generated_Source\PSoC5/CyLib.c ****     *******************************************************************************/
1503:Generated_Source\PSoC5/CyLib.c ****     void CyDelayUs(uint16 microseconds) CYREENTRANT
1504:Generated_Source\PSoC5/CyLib.c ****     {
 1902              		.loc 1 1504 0
 1903              		.cfi_startproc
 1904              		@ args = 0, pretend = 0, frame = 0
 1905              		@ frame_needed = 0, uses_anonymous_args = 0
 1906              	.LVL102:
 1907 0000 08B5     		push	{r3, lr}
 1908              		.cfi_def_cfa_offset 8
 1909              		.cfi_offset 3, -8
 1910              		.cfi_offset 14, -4
ARM GAS  C:\Users\ingan\AppData\Local\Temp\ccwaQbAc.s 			page 63


1505:Generated_Source\PSoC5/CyLib.c ****         CyDelayCycles((uint32)microseconds * cydelay_freq_mhz);
 1911              		.loc 1 1505 0
 1912 0002 034B     		ldr	r3, .L206
 1913 0004 1B7A     		ldrb	r3, [r3, #8]	@ zero_extendqisi2
 1914 0006 00FB03F0 		mul	r0, r0, r3
 1915              	.LVL103:
 1916 000a FFF7FEFF 		bl	CyDelayCycles
 1917              	.LVL104:
 1918 000e 08BD     		pop	{r3, pc}
 1919              	.L207:
 1920              		.align	2
 1921              	.L206:
 1922 0010 00000000 		.word	.LANCHOR0
 1923              		.cfi_endproc
 1924              	.LFE42:
 1925              		.size	CyDelayUs, .-CyDelayUs
 1926              		.section	.text.CyXTAL_32KHZ_SetPowerMode,"ax",%progbits
 1927              		.align	2
 1928              		.global	CyXTAL_32KHZ_SetPowerMode
 1929              		.thumb
 1930              		.thumb_func
 1931              		.type	CyXTAL_32KHZ_SetPowerMode, %function
 1932              	CyXTAL_32KHZ_SetPowerMode:
 1933              	.LFB28:
1119:Generated_Source\PSoC5/CyLib.c ****     uint8 state = (0u != (CY_CLK_XTAL32_CR_REG & CY_CLK_XTAL32_CR_LPM)) ? 1u : 0u;
 1934              		.loc 1 1119 0
 1935              		.cfi_startproc
 1936              		@ args = 0, pretend = 0, frame = 0
 1937              		@ frame_needed = 0, uses_anonymous_args = 0
 1938              	.LVL105:
 1939 0000 10B5     		push	{r4, lr}
 1940              		.cfi_def_cfa_offset 8
 1941              		.cfi_offset 4, -8
 1942              		.cfi_offset 14, -4
1120:Generated_Source\PSoC5/CyLib.c **** 
 1943              		.loc 1 1120 0
 1944 0002 1A4B     		ldr	r3, .L212
 1945 0004 1C78     		ldrb	r4, [r3]	@ zero_extendqisi2
 1946 0006 C4F34004 		ubfx	r4, r4, #1, #1
 1947              	.LVL106:
1122:Generated_Source\PSoC5/CyLib.c **** 
 1948              		.loc 1 1122 0
 1949 000a F322     		movs	r2, #243
 1950 000c 0233     		adds	r3, r3, #2
 1951 000e 1A70     		strb	r2, [r3]
1124:Generated_Source\PSoC5/CyLib.c ****     {
 1952              		.loc 1 1124 0
 1953 0010 0128     		cmp	r0, #1
 1954 0012 16D1     		bne	.L209
1127:Generated_Source\PSoC5/CyLib.c ****         CyDelayUs(10u);
 1955              		.loc 1 1127 0
 1956 0014 0122     		movs	r2, #1
 1957 0016 03F28E33 		addw	r3, r3, #910
 1958 001a 1A70     		strb	r2, [r3]
1128:Generated_Source\PSoC5/CyLib.c ****         CY_CLK_XTAL32_CFG_REG = (CY_CLK_XTAL32_CFG_REG & ((uint8)(~CY_CLK_XTAL32_CFG_LP_MASK))) |
 1959              		.loc 1 1128 0
 1960 001c 0A20     		movs	r0, #10
ARM GAS  C:\Users\ingan\AppData\Local\Temp\ccwaQbAc.s 			page 64


 1961              	.LVL107:
 1962 001e FFF7FEFF 		bl	CyDelayUs
 1963              	.LVL108:
1129:Generated_Source\PSoC5/CyLib.c ****                                 CY_CLK_XTAL32_CFG_LP_LOWPOWER;
 1964              		.loc 1 1129 0
 1965 0022 134A     		ldr	r2, .L212+4
 1966 0024 1378     		ldrb	r3, [r2]	@ zero_extendqisi2
 1967 0026 03F0F303 		and	r3, r3, #243
 1968 002a 43F00803 		orr	r3, r3, #8
 1969 002e 1370     		strb	r3, [r2]
1131:Generated_Source\PSoC5/CyLib.c ****         CY_CLK_XTAL32_CR_REG |= CY_CLK_XTAL32_CR_LPM;
 1970              		.loc 1 1131 0
 1971 0030 1420     		movs	r0, #20
 1972 0032 FFF7FEFF 		bl	CyDelayUs
 1973              	.LVL109:
1132:Generated_Source\PSoC5/CyLib.c ****     }
 1974              		.loc 1 1132 0
 1975 0036 0D4A     		ldr	r2, .L212
 1976 0038 1378     		ldrb	r3, [r2]	@ zero_extendqisi2
 1977 003a 43F00203 		orr	r3, r3, #2
 1978 003e 1370     		strb	r3, [r2]
 1979 0040 11E0     		b	.L210
 1980              	.LVL110:
 1981              	.L209:
1137:Generated_Source\PSoC5/CyLib.c ****         CyDelayUs(10u);
 1982              		.loc 1 1137 0
 1983 0042 0622     		movs	r2, #6
 1984 0044 0B4B     		ldr	r3, .L212+8
 1985 0046 1A70     		strb	r2, [r3]
1138:Generated_Source\PSoC5/CyLib.c ****         CY_CLK_XTAL32_CFG_REG = (CY_CLK_XTAL32_CFG_REG & ((uint8)(~CY_CLK_XTAL32_CFG_LP_MASK))) |
 1986              		.loc 1 1138 0
 1987 0048 0A20     		movs	r0, #10
 1988              	.LVL111:
 1989 004a FFF7FEFF 		bl	CyDelayUs
 1990              	.LVL112:
1139:Generated_Source\PSoC5/CyLib.c ****                                 CY_CLK_XTAL32_CFG_LP_DEFAULT;
 1991              		.loc 1 1139 0
 1992 004e 084A     		ldr	r2, .L212+4
 1993 0050 1378     		ldrb	r3, [r2]	@ zero_extendqisi2
 1994 0052 03F0F303 		and	r3, r3, #243
 1995 0056 43F00403 		orr	r3, r3, #4
 1996 005a 1370     		strb	r3, [r2]
1141:Generated_Source\PSoC5/CyLib.c ****     }
 1997              		.loc 1 1141 0
 1998 005c 013A     		subs	r2, r2, #1
 1999 005e 1378     		ldrb	r3, [r2]	@ zero_extendqisi2
 2000 0060 03F0FD03 		and	r3, r3, #253
 2001 0064 1370     		strb	r3, [r2]
 2002              	.L210:
1145:Generated_Source\PSoC5/CyLib.c **** 
 2003              		.loc 1 1145 0
 2004 0066 2046     		mov	r0, r4
 2005 0068 10BD     		pop	{r4, pc}
 2006              	.LVL113:
 2007              	.L213:
 2008 006a 00BF     		.align	2
 2009              	.L212:
ARM GAS  C:\Users\ingan\AppData\Local\Temp\ccwaQbAc.s 			page 65


 2010 006c 08430040 		.word	1073758984
 2011 0070 09430040 		.word	1073758985
 2012 0074 98460040 		.word	1073759896
 2013              		.cfi_endproc
 2014              	.LFE28:
 2015              		.size	CyXTAL_32KHZ_SetPowerMode, .-CyXTAL_32KHZ_SetPowerMode
 2016              		.section	.text.CyXTAL_32KHZ_Start,"ax",%progbits
 2017              		.align	2
 2018              		.global	CyXTAL_32KHZ_Start
 2019              		.thumb
 2020              		.thumb_func
 2021              		.type	CyXTAL_32KHZ_Start, %function
 2022              	CyXTAL_32KHZ_Start:
 2023              	.LFB25:
1033:Generated_Source\PSoC5/CyLib.c ****     volatile uint16 i;
 2024              		.loc 1 1033 0
 2025              		.cfi_startproc
 2026              		@ args = 0, pretend = 0, frame = 8
 2027              		@ frame_needed = 0, uses_anonymous_args = 0
 2028 0000 30B5     		push	{r4, r5, lr}
 2029              		.cfi_def_cfa_offset 12
 2030              		.cfi_offset 4, -12
 2031              		.cfi_offset 5, -8
 2032              		.cfi_offset 14, -4
 2033 0002 83B0     		sub	sp, sp, #12
 2034              		.cfi_def_cfa_offset 24
1036:Generated_Source\PSoC5/CyLib.c ****     CY_CLK_XTAL32_TR_REG  = CY_CLK_XTAL32_TR_STARTUP;
 2035              		.loc 1 1036 0
 2036 0004 F322     		movs	r2, #243
 2037 0006 1C4B     		ldr	r3, .L221
 2038 0008 1A70     		strb	r2, [r3]
1037:Generated_Source\PSoC5/CyLib.c ****     CY_CLK_XTAL32_CFG_REG = (CY_CLK_XTAL32_CFG_REG & ((uint8)(~CY_CLK_XTAL32_CFG_LP_MASK))) |
 2039              		.loc 1 1037 0
 2040 000a 0322     		movs	r2, #3
 2041 000c 03F28E33 		addw	r3, r3, #910
 2042 0010 1A70     		strb	r2, [r3]
1038:Generated_Source\PSoC5/CyLib.c ****                                 CY_CLK_XTAL32_CFG_LP_DEFAULT;
 2043              		.loc 1 1038 0
 2044 0012 1A4A     		ldr	r2, .L221+4
 2045 0014 1378     		ldrb	r3, [r2]	@ zero_extendqisi2
 2046 0016 03F0F303 		and	r3, r3, #243
 2047 001a 43F00403 		orr	r3, r3, #4
 2048 001e 1370     		strb	r3, [r2]
1046:Generated_Source\PSoC5/CyLib.c **** 
 2049              		.loc 1 1046 0
 2050 0020 013A     		subs	r2, r2, #1
 2051 0022 1378     		ldrb	r3, [r2]	@ zero_extendqisi2
 2052 0024 43F00103 		orr	r3, r3, #1
 2053 0028 1370     		strb	r3, [r2]
1048:Generated_Source\PSoC5/CyLib.c ****     {
 2054              		.loc 1 1048 0
 2055 002a 4FF47A73 		mov	r3, #1000
 2056 002e ADF80630 		strh	r3, [sp, #6]	@ movhi
 2057 0032 BDF80630 		ldrh	r3, [sp, #6]
 2058 0036 9BB2     		uxth	r3, r3
 2059 0038 E3B1     		cbz	r3, .L214
 2060              	.LBB16:
ARM GAS  C:\Users\ingan\AppData\Local\Temp\ccwaQbAc.s 			page 66


 2061              	.LBB17:
1098:Generated_Source\PSoC5/CyLib.c **** }
 2062              		.loc 1 1098 0
 2063 003a 1378     		ldrb	r3, [r2]	@ zero_extendqisi2
 2064              	.LBE17:
 2065              	.LBE16:
1050:Generated_Source\PSoC5/CyLib.c ****         {
 2066              		.loc 1 1050 0
 2067 003c 13F0200F 		tst	r3, #32
 2068 0040 06D1     		bne	.L216
1057:Generated_Source\PSoC5/CyLib.c ****     }
 2069              		.loc 1 1057 0
 2070 0042 0124     		movs	r4, #1
 2071              	.LBB19:
 2072              	.LBB18:
1098:Generated_Source\PSoC5/CyLib.c **** }
 2073              		.loc 1 1098 0
 2074 0044 1546     		mov	r5, r2
 2075 0046 07E0     		b	.L217
 2076              	.L218:
 2077 0048 2B78     		ldrb	r3, [r5]	@ zero_extendqisi2
 2078              	.LBE18:
 2079              	.LBE19:
1050:Generated_Source\PSoC5/CyLib.c ****         {
 2080              		.loc 1 1050 0
 2081 004a 13F0200F 		tst	r3, #32
 2082 004e 03D0     		beq	.L217
 2083              	.L216:
1053:Generated_Source\PSoC5/CyLib.c **** 
 2084              		.loc 1 1053 0
 2085 0050 0020     		movs	r0, #0
 2086 0052 FFF7FEFF 		bl	CyXTAL_32KHZ_SetPowerMode
 2087              	.LVL114:
1055:Generated_Source\PSoC5/CyLib.c ****         }
 2088              		.loc 1 1055 0
 2089 0056 0DE0     		b	.L214
 2090              	.L217:
1057:Generated_Source\PSoC5/CyLib.c ****     }
 2091              		.loc 1 1057 0 discriminator 2
 2092 0058 2046     		mov	r0, r4
 2093 005a FFF7FEFF 		bl	CyDelayUs
 2094              	.LVL115:
1048:Generated_Source\PSoC5/CyLib.c ****     {
 2095              		.loc 1 1048 0 discriminator 2
 2096 005e BDF80630 		ldrh	r3, [sp, #6]
 2097 0062 013B     		subs	r3, r3, #1
 2098 0064 9BB2     		uxth	r3, r3
 2099 0066 ADF80630 		strh	r3, [sp, #6]	@ movhi
 2100 006a BDF80630 		ldrh	r3, [sp, #6]
 2101 006e 9BB2     		uxth	r3, r3
 2102 0070 002B     		cmp	r3, #0
 2103 0072 E9D1     		bne	.L218
 2104              	.L214:
1059:Generated_Source\PSoC5/CyLib.c **** 
 2105              		.loc 1 1059 0
 2106 0074 03B0     		add	sp, sp, #12
 2107              		.cfi_def_cfa_offset 12
ARM GAS  C:\Users\ingan\AppData\Local\Temp\ccwaQbAc.s 			page 67


 2108              		@ sp needed
 2109 0076 30BD     		pop	{r4, r5, pc}
 2110              	.L222:
 2111              		.align	2
 2112              	.L221:
 2113 0078 0A430040 		.word	1073758986
 2114 007c 09430040 		.word	1073758985
 2115              		.cfi_endproc
 2116              	.LFE25:
 2117              		.size	CyXTAL_32KHZ_Start, .-CyXTAL_32KHZ_Start
 2118              		.section	.text.CyDelayFreq,"ax",%progbits
 2119              		.align	2
 2120              		.global	CyDelayFreq
 2121              		.thumb
 2122              		.thumb_func
 2123              		.type	CyDelayFreq, %function
 2124              	CyDelayFreq:
 2125              	.LFB43:
1506:Generated_Source\PSoC5/CyLib.c ****     }
1507:Generated_Source\PSoC5/CyLib.c **** 
1508:Generated_Source\PSoC5/CyLib.c **** #endif  /* (!CY_PSOC3) */
1509:Generated_Source\PSoC5/CyLib.c **** 
1510:Generated_Source\PSoC5/CyLib.c **** 
1511:Generated_Source\PSoC5/CyLib.c **** /*******************************************************************************
1512:Generated_Source\PSoC5/CyLib.c **** * Function Name: CyDelayFreq
1513:Generated_Source\PSoC5/CyLib.c **** ****************************************************************************//**
1514:Generated_Source\PSoC5/CyLib.c **** *
1515:Generated_Source\PSoC5/CyLib.c **** *  Sets the clock frequency for CyDelay.
1516:Generated_Source\PSoC5/CyLib.c **** *
1517:Generated_Source\PSoC5/CyLib.c **** *  \param freq: The frequency of the bus clock in Hertz.
1518:Generated_Source\PSoC5/CyLib.c **** *
1519:Generated_Source\PSoC5/CyLib.c **** *******************************************************************************/
1520:Generated_Source\PSoC5/CyLib.c **** void CyDelayFreq(uint32 freq) CYREENTRANT
1521:Generated_Source\PSoC5/CyLib.c **** {
 2126              		.loc 1 1521 0
 2127              		.cfi_startproc
 2128              		@ args = 0, pretend = 0, frame = 0
 2129              		@ frame_needed = 0, uses_anonymous_args = 0
 2130              		@ link register save eliminated.
 2131              	.LVL116:
1522:Generated_Source\PSoC5/CyLib.c ****     if (freq != 0u)
 2132              		.loc 1 1522 0
 2133 0000 10B1     		cbz	r0, .L224
1523:Generated_Source\PSoC5/CyLib.c ****     {
1524:Generated_Source\PSoC5/CyLib.c ****         cydelay_freq_hz = freq;
 2134              		.loc 1 1524 0
 2135 0002 0D4A     		ldr	r2, .L226
 2136 0004 D060     		str	r0, [r2, #12]
 2137 0006 02E0     		b	.L225
 2138              	.L224:
1525:Generated_Source\PSoC5/CyLib.c ****     }
1526:Generated_Source\PSoC5/CyLib.c ****     else
1527:Generated_Source\PSoC5/CyLib.c ****     {
1528:Generated_Source\PSoC5/CyLib.c ****         cydelay_freq_hz = BCLK__BUS_CLK__HZ;
 2139              		.loc 1 1528 0
 2140 0008 0C4A     		ldr	r2, .L226+4
 2141 000a 0B4B     		ldr	r3, .L226
ARM GAS  C:\Users\ingan\AppData\Local\Temp\ccwaQbAc.s 			page 68


 2142 000c DA60     		str	r2, [r3, #12]
 2143              	.L225:
1529:Generated_Source\PSoC5/CyLib.c ****     }
1530:Generated_Source\PSoC5/CyLib.c **** 
1531:Generated_Source\PSoC5/CyLib.c ****     cydelay_freq_mhz = (uint8)((cydelay_freq_hz + 999999u) / 1000000u);
 2144              		.loc 1 1531 0
 2145 000e 0A49     		ldr	r1, .L226
 2146 0010 CB68     		ldr	r3, [r1, #12]
 2147 0012 03F57422 		add	r2, r3, #999424
 2148 0016 02F23F22 		addw	r2, r2, #575
 2149 001a 0948     		ldr	r0, .L226+8
 2150              	.LVL117:
 2151 001c A0FB0202 		umull	r0, r2, r0, r2
 2152 0020 920C     		lsrs	r2, r2, #18
 2153 0022 0A72     		strb	r2, [r1, #8]
1532:Generated_Source\PSoC5/CyLib.c ****     cydelay_freq_khz = (cydelay_freq_hz + 999u) / 1000u;
 2154              		.loc 1 1532 0
 2155 0024 03F2E733 		addw	r3, r3, #999
 2156 0028 064A     		ldr	r2, .L226+12
 2157 002a A2FB0323 		umull	r2, r3, r2, r3
 2158 002e 9B09     		lsrs	r3, r3, #6
 2159 0030 4B60     		str	r3, [r1, #4]
1533:Generated_Source\PSoC5/CyLib.c ****     cydelay_32k_ms   = 32768u * cydelay_freq_khz;
 2160              		.loc 1 1533 0
 2161 0032 DB03     		lsls	r3, r3, #15
 2162 0034 0B60     		str	r3, [r1]
 2163 0036 7047     		bx	lr
 2164              	.L227:
 2165              		.align	2
 2166              	.L226:
 2167 0038 00000000 		.word	.LANCHOR0
 2168 003c 80E7BD02 		.word	46000000
 2169 0040 83DE1B43 		.word	1125899907
 2170 0044 D34D6210 		.word	274877907
 2171              		.cfi_endproc
 2172              	.LFE43:
 2173              		.size	CyDelayFreq, .-CyDelayFreq
 2174              		.section	.text.CyWdtStart,"ax",%progbits
 2175              		.align	2
 2176              		.global	CyWdtStart
 2177              		.thumb
 2178              		.thumb_func
 2179              		.type	CyWdtStart, %function
 2180              	CyWdtStart:
 2181              	.LFB44:
1534:Generated_Source\PSoC5/CyLib.c **** }
1535:Generated_Source\PSoC5/CyLib.c **** 
1536:Generated_Source\PSoC5/CyLib.c **** 
1537:Generated_Source\PSoC5/CyLib.c **** /*******************************************************************************
1538:Generated_Source\PSoC5/CyLib.c **** * Function Name: CyWdtStart
1539:Generated_Source\PSoC5/CyLib.c **** ****************************************************************************//**
1540:Generated_Source\PSoC5/CyLib.c **** *
1541:Generated_Source\PSoC5/CyLib.c **** *  Enables the watchdog timer.
1542:Generated_Source\PSoC5/CyLib.c **** *
1543:Generated_Source\PSoC5/CyLib.c **** *  The timer is configured for the specified count interval, the central
1544:Generated_Source\PSoC5/CyLib.c **** *  timewheel is cleared, the setting for the low power mode is configured and
1545:Generated_Source\PSoC5/CyLib.c **** *  the watchdog timer is enabled.
ARM GAS  C:\Users\ingan\AppData\Local\Temp\ccwaQbAc.s 			page 69


1546:Generated_Source\PSoC5/CyLib.c **** *
1547:Generated_Source\PSoC5/CyLib.c **** *  Once enabled the watchdog cannot be disabled. The watchdog counts each time
1548:Generated_Source\PSoC5/CyLib.c **** *  the Central Time Wheel (CTW) reaches the period specified. The watchdog must
1549:Generated_Source\PSoC5/CyLib.c **** *  be cleared using the CyWdtClear() function before three ticks of the watchdog
1550:Generated_Source\PSoC5/CyLib.c **** *  timer occur. The CTW is free running, so this will occur after between 2 and
1551:Generated_Source\PSoC5/CyLib.c **** *  3 timer periods elapse.
1552:Generated_Source\PSoC5/CyLib.c **** *
1553:Generated_Source\PSoC5/CyLib.c **** *  PSoC5: The watchdog timer should not be used during sleep modes. Since the
1554:Generated_Source\PSoC5/CyLib.c **** *  WDT cannot be disabled after it is enabled, the WDT timeout period can be
1555:Generated_Source\PSoC5/CyLib.c **** *  set to be greater than the sleep wakeup period, then feed the dog on each
1556:Generated_Source\PSoC5/CyLib.c **** *  wakeup from Sleep.
1557:Generated_Source\PSoC5/CyLib.c **** *
1558:Generated_Source\PSoC5/CyLib.c **** *  \param ticks: One of the four available timer periods. Once WDT enabled, the
1559:Generated_Source\PSoC5/CyLib.c ****    interval cannot be changed.
1560:Generated_Source\PSoC5/CyLib.c **** *         CYWDT_2_TICKS     -     4 - 6     ms
1561:Generated_Source\PSoC5/CyLib.c **** *         CYWDT_16_TICKS    -    32 - 48    ms
1562:Generated_Source\PSoC5/CyLib.c **** *         CYWDT_128_TICKS   -   256 - 384   ms
1563:Generated_Source\PSoC5/CyLib.c **** *         CYWDT_1024_TICKS  - 2.048 - 3.072 s
1564:Generated_Source\PSoC5/CyLib.c **** *
1565:Generated_Source\PSoC5/CyLib.c **** *  \param lpMode: Low power mode configuration. This parameter is ignored for PSoC 5.
1566:Generated_Source\PSoC5/CyLib.c **** *          The WDT always acts as if CYWDT_LPMODE_NOCHANGE is passed.
1567:Generated_Source\PSoC5/CyLib.c **** *
1568:Generated_Source\PSoC5/CyLib.c **** *          CYWDT_LPMODE_NOCHANGE - No Change
1569:Generated_Source\PSoC5/CyLib.c **** *          CYWDT_LPMODE_MAXINTER - Switch to longest timer mode during low power
1570:Generated_Source\PSoC5/CyLib.c **** *                                 mode
1571:Generated_Source\PSoC5/CyLib.c **** *          CYWDT_LPMODE_DISABLED - Disable WDT during low power mode
1572:Generated_Source\PSoC5/CyLib.c **** *
1573:Generated_Source\PSoC5/CyLib.c **** * \sideeffect
1574:Generated_Source\PSoC5/CyLib.c **** *  PSoC5: The ILO 1 KHz must be enabled for proper WDT operation. Stopping the
1575:Generated_Source\PSoC5/CyLib.c **** *  ILO 1 kHz could break the active WDT functionality.
1576:Generated_Source\PSoC5/CyLib.c **** *
1577:Generated_Source\PSoC5/CyLib.c **** *******************************************************************************/
1578:Generated_Source\PSoC5/CyLib.c **** void CyWdtStart(uint8 ticks, uint8 lpMode) 
1579:Generated_Source\PSoC5/CyLib.c **** {
 2182              		.loc 1 1579 0
 2183              		.cfi_startproc
 2184              		@ args = 0, pretend = 0, frame = 0
 2185              		@ frame_needed = 0, uses_anonymous_args = 0
 2186              		@ link register save eliminated.
 2187              	.LVL118:
1580:Generated_Source\PSoC5/CyLib.c ****     /* Set WDT interval */
1581:Generated_Source\PSoC5/CyLib.c ****     CY_WDT_CFG_REG = (CY_WDT_CFG_REG & ((uint8)(~CY_WDT_CFG_INTERVAL_MASK))) | (ticks & CY_WDT_CFG_
 2188              		.loc 1 1581 0
 2189 0000 0E4B     		ldr	r3, .L229
 2190 0002 1A78     		ldrb	r2, [r3]	@ zero_extendqisi2
 2191 0004 02F0FC02 		and	r2, r2, #252
 2192 0008 00F00300 		and	r0, r0, #3
 2193              	.LVL119:
 2194 000c 1043     		orrs	r0, r0, r2
 2195 000e 1870     		strb	r0, [r3]
1582:Generated_Source\PSoC5/CyLib.c **** 
1583:Generated_Source\PSoC5/CyLib.c ****     /* Reset CTW to ensure that first watchdog period is full */
1584:Generated_Source\PSoC5/CyLib.c ****     CY_WDT_CFG_REG |= CY_WDT_CFG_CTW_RESET;
 2196              		.loc 1 1584 0
 2197 0010 1A78     		ldrb	r2, [r3]	@ zero_extendqisi2
 2198 0012 42F08002 		orr	r2, r2, #128
 2199 0016 1A70     		strb	r2, [r3]
ARM GAS  C:\Users\ingan\AppData\Local\Temp\ccwaQbAc.s 			page 70


1585:Generated_Source\PSoC5/CyLib.c ****     CY_WDT_CFG_REG &= ((uint8)(~CY_WDT_CFG_CTW_RESET));
 2200              		.loc 1 1585 0
 2201 0018 1A78     		ldrb	r2, [r3]	@ zero_extendqisi2
 2202 001a 02F07F02 		and	r2, r2, #127
 2203 001e 1A70     		strb	r2, [r3]
1586:Generated_Source\PSoC5/CyLib.c **** 
1587:Generated_Source\PSoC5/CyLib.c ****     /* Setting low power mode */
1588:Generated_Source\PSoC5/CyLib.c ****     CY_WDT_CFG_REG = (((uint8)(lpMode << CY_WDT_CFG_LPMODE_SHIFT)) & CY_WDT_CFG_LPMODE_MASK) |
1589:Generated_Source\PSoC5/CyLib.c ****                        (CY_WDT_CFG_REG & ((uint8)(~CY_WDT_CFG_LPMODE_MASK)));
 2204              		.loc 1 1589 0
 2205 0020 1A78     		ldrb	r2, [r3]	@ zero_extendqisi2
1588:Generated_Source\PSoC5/CyLib.c ****                        (CY_WDT_CFG_REG & ((uint8)(~CY_WDT_CFG_LPMODE_MASK)));
 2206              		.loc 1 1588 0
 2207 0022 4901     		lsls	r1, r1, #5
 2208              	.LVL120:
 2209 0024 01F06001 		and	r1, r1, #96
 2210 0028 02F09F02 		and	r2, r2, #159
 2211 002c 0A43     		orrs	r2, r2, r1
 2212 002e 1A70     		strb	r2, [r3]
1590:Generated_Source\PSoC5/CyLib.c **** 
1591:Generated_Source\PSoC5/CyLib.c ****     /* Enables watchdog reset */
1592:Generated_Source\PSoC5/CyLib.c ****     CY_WDT_CFG_REG |= CY_WDT_CFG_WDR_EN;
 2213              		.loc 1 1592 0
 2214 0030 1A78     		ldrb	r2, [r3]	@ zero_extendqisi2
 2215 0032 42F01002 		orr	r2, r2, #16
 2216 0036 1A70     		strb	r2, [r3]
 2217 0038 7047     		bx	lr
 2218              	.L230:
 2219 003a 00BF     		.align	2
 2220              	.L229:
 2221 003c 83430040 		.word	1073759107
 2222              		.cfi_endproc
 2223              	.LFE44:
 2224              		.size	CyWdtStart, .-CyWdtStart
 2225              		.section	.text.CyWdtClear,"ax",%progbits
 2226              		.align	2
 2227              		.global	CyWdtClear
 2228              		.thumb
 2229              		.thumb_func
 2230              		.type	CyWdtClear, %function
 2231              	CyWdtClear:
 2232              	.LFB45:
1593:Generated_Source\PSoC5/CyLib.c **** }
1594:Generated_Source\PSoC5/CyLib.c **** 
1595:Generated_Source\PSoC5/CyLib.c **** 
1596:Generated_Source\PSoC5/CyLib.c **** /*******************************************************************************
1597:Generated_Source\PSoC5/CyLib.c **** * Function Name: CyWdtClear
1598:Generated_Source\PSoC5/CyLib.c **** ****************************************************************************//**
1599:Generated_Source\PSoC5/CyLib.c **** *
1600:Generated_Source\PSoC5/CyLib.c **** *  Clears (feeds) the watchdog timer.
1601:Generated_Source\PSoC5/CyLib.c **** *
1602:Generated_Source\PSoC5/CyLib.c **** *******************************************************************************/
1603:Generated_Source\PSoC5/CyLib.c **** void CyWdtClear(void) 
1604:Generated_Source\PSoC5/CyLib.c **** {
 2233              		.loc 1 1604 0
 2234              		.cfi_startproc
 2235              		@ args = 0, pretend = 0, frame = 0
ARM GAS  C:\Users\ingan\AppData\Local\Temp\ccwaQbAc.s 			page 71


 2236              		@ frame_needed = 0, uses_anonymous_args = 0
 2237              		@ link register save eliminated.
1605:Generated_Source\PSoC5/CyLib.c ****     CY_WDT_CR_REG = CY_WDT_CR_FEED;
 2238              		.loc 1 1605 0
 2239 0000 0122     		movs	r2, #1
 2240 0002 014B     		ldr	r3, .L232
 2241 0004 1A70     		strb	r2, [r3]
 2242 0006 7047     		bx	lr
 2243              	.L233:
 2244              		.align	2
 2245              	.L232:
 2246 0008 84430040 		.word	1073759108
 2247              		.cfi_endproc
 2248              	.LFE45:
 2249              		.size	CyWdtClear, .-CyWdtClear
 2250              		.section	.text.CyVdStickyStatus,"ax",%progbits
 2251              		.align	2
 2252              		.global	CyVdStickyStatus
 2253              		.thumb
 2254              		.thumb_func
 2255              		.type	CyVdStickyStatus, %function
 2256              	CyVdStickyStatus:
 2257              	.LFB52:
1606:Generated_Source\PSoC5/CyLib.c **** }
1607:Generated_Source\PSoC5/CyLib.c **** 
1608:Generated_Source\PSoC5/CyLib.c **** 
1609:Generated_Source\PSoC5/CyLib.c **** 
1610:Generated_Source\PSoC5/CyLib.c **** /*******************************************************************************
1611:Generated_Source\PSoC5/CyLib.c **** * Function Name: CyVdLvDigitEnable
1612:Generated_Source\PSoC5/CyLib.c **** ****************************************************************************//**
1613:Generated_Source\PSoC5/CyLib.c **** *
1614:Generated_Source\PSoC5/CyLib.c **** *  Sets the voltage trip level, enables the output of the digital low-voltage
1615:Generated_Source\PSoC5/CyLib.c **** *  monitor, and optionally configures voltage monitor to reset device upon the
1616:Generated_Source\PSoC5/CyLib.c **** *  low-voltage event instead of generating an interrupt.
1617:Generated_Source\PSoC5/CyLib.c **** *
1618:Generated_Source\PSoC5/CyLib.c **** *  Note The associated interrupt enable/disable state is not changed by the
1619:Generated_Source\PSoC5/CyLib.c **** *  function. The Interrupt component API should be used to register the
1620:Generated_Source\PSoC5/CyLib.c **** *  interrupt service routine and to enable/disable associated interrupt.
1621:Generated_Source\PSoC5/CyLib.c **** *
1622:Generated_Source\PSoC5/CyLib.c **** *  \param reset: Enables device reset on digital low-voltage event:
1623:Generated_Source\PSoC5/CyLib.c **** *   Zero - Interrupt on digital low-voltage event
1624:Generated_Source\PSoC5/CyLib.c **** *   Non-zero - Reset on digital low-voltage event
1625:Generated_Source\PSoC5/CyLib.c **** *
1626:Generated_Source\PSoC5/CyLib.c **** *  \param threshold: Sets the trip point of the digital low-voltage monitoring circuit
1627:Generated_Source\PSoC5/CyLib.c **** *   in steps of approximately 250 mV in range from 1.70 V (0x00) to 5.45 V
1628:Generated_Source\PSoC5/CyLib.c **** *   (0x0F). For example, the trip point is set to 1.80 V when the threshold
1629:Generated_Source\PSoC5/CyLib.c **** *   parameter value is 0x04. Refer to the device TRM for the exact trip voltage
1630:Generated_Source\PSoC5/CyLib.c **** *   values.
1631:Generated_Source\PSoC5/CyLib.c **** *
1632:Generated_Source\PSoC5/CyLib.c **** * Side Effects and Restrictions:
1633:Generated_Source\PSoC5/CyLib.c **** *  The voltage resets are momentary. When a voltage reset (analog/digital
1634:Generated_Source\PSoC5/CyLib.c **** *  low-voltage and analog high-voltage) occurs, the RESET_CR1 and RESET_CR3
1635:Generated_Source\PSoC5/CyLib.c **** *  registers are restored to their default values. This means that the voltage
1636:Generated_Source\PSoC5/CyLib.c **** *  monitor circuit is no longer enabled and the device exits reset. If the
1637:Generated_Source\PSoC5/CyLib.c **** *  supply is below the trip level and firmware enables the voltage reset
1638:Generated_Source\PSoC5/CyLib.c **** *  functionality, the device will reset again. This will continue as long as the
1639:Generated_Source\PSoC5/CyLib.c **** *  supply is below the trip level or as long as the user enables the reset
ARM GAS  C:\Users\ingan\AppData\Local\Temp\ccwaQbAc.s 			page 72


1640:Generated_Source\PSoC5/CyLib.c **** *  functionality of the voltage monitor functionality.
1641:Generated_Source\PSoC5/CyLib.c **** *
1642:Generated_Source\PSoC5/CyLib.c **** *  When any voltage reset occurs, the RESET_SR0 and RESET_SR2 status registers
1643:Generated_Source\PSoC5/CyLib.c **** *  are cleared. This means that analog low-voltage, digital low-voltage and
1644:Generated_Source\PSoC5/CyLib.c **** *  analog high-voltage status bits are not persistent across any voltage reset.
1645:Generated_Source\PSoC5/CyLib.c **** *
1646:Generated_Source\PSoC5/CyLib.c **** *******************************************************************************/
1647:Generated_Source\PSoC5/CyLib.c **** void CyVdLvDigitEnable(uint8 reset, uint8 threshold) 
1648:Generated_Source\PSoC5/CyLib.c **** {
1649:Generated_Source\PSoC5/CyLib.c ****     uint32 intRegTmp;
1650:Generated_Source\PSoC5/CyLib.c ****     uint8 interruptState;
1651:Generated_Source\PSoC5/CyLib.c **** 
1652:Generated_Source\PSoC5/CyLib.c ****     interruptState = CyEnterCriticalSection();
1653:Generated_Source\PSoC5/CyLib.c **** 
1654:Generated_Source\PSoC5/CyLib.c ****     /* Store interrupt enable state */
1655:Generated_Source\PSoC5/CyLib.c ****     intRegTmp = CY_INT_ENABLE_REG & CY_VD_INT_MASK;
1656:Generated_Source\PSoC5/CyLib.c **** 
1657:Generated_Source\PSoC5/CyLib.c ****     /* Disable VD interrupt (write 1) to protect against glitches */
1658:Generated_Source\PSoC5/CyLib.c ****     CY_INT_CLEAR_REG = CY_VD_INT_MASK;
1659:Generated_Source\PSoC5/CyLib.c **** 
1660:Generated_Source\PSoC5/CyLib.c ****     CY_VD_PRES_CONTROL_REG &= ((uint8)(~CY_VD_PRESD_EN));
1661:Generated_Source\PSoC5/CyLib.c **** 
1662:Generated_Source\PSoC5/CyLib.c ****     CY_VD_LVI_TRIP_REG = (threshold & CY_VD_LVI_TRIP_LVID_MASK) |
1663:Generated_Source\PSoC5/CyLib.c ****                             (CY_VD_LVI_TRIP_REG & ((uint8)(~CY_VD_LVI_TRIP_LVID_MASK)));
1664:Generated_Source\PSoC5/CyLib.c ****     CY_VD_LVI_HVI_CONTROL_REG |= CY_VD_LVID_EN;
1665:Generated_Source\PSoC5/CyLib.c **** 
1666:Generated_Source\PSoC5/CyLib.c ****     /* Timeout to eliminate glitches on LVI/HVI when enabling (ID # 127412) */
1667:Generated_Source\PSoC5/CyLib.c ****     CyDelayUs(1u);
1668:Generated_Source\PSoC5/CyLib.c **** 
1669:Generated_Source\PSoC5/CyLib.c ****     (void) CyVdStickyStatus(CY_VD_LVID);
1670:Generated_Source\PSoC5/CyLib.c **** 
1671:Generated_Source\PSoC5/CyLib.c ****     if(0u != reset)
1672:Generated_Source\PSoC5/CyLib.c ****     {
1673:Generated_Source\PSoC5/CyLib.c ****         CY_VD_PRES_CONTROL_REG |= CY_VD_PRESD_EN;
1674:Generated_Source\PSoC5/CyLib.c ****     }
1675:Generated_Source\PSoC5/CyLib.c ****     else
1676:Generated_Source\PSoC5/CyLib.c ****     {
1677:Generated_Source\PSoC5/CyLib.c ****         CY_VD_PRES_CONTROL_REG &= ((uint8)(~CY_VD_PRESD_EN));
1678:Generated_Source\PSoC5/CyLib.c ****     }
1679:Generated_Source\PSoC5/CyLib.c **** 
1680:Generated_Source\PSoC5/CyLib.c ****     /* Clear pending interrupt */
1681:Generated_Source\PSoC5/CyLib.c ****     CY_INT_CLR_PEND_REG = CY_VD_INT_MASK;
1682:Generated_Source\PSoC5/CyLib.c **** 
1683:Generated_Source\PSoC5/CyLib.c ****     /* Restore interrupt enable state */
1684:Generated_Source\PSoC5/CyLib.c ****     CY_INT_ENABLE_REG = intRegTmp;
1685:Generated_Source\PSoC5/CyLib.c **** 
1686:Generated_Source\PSoC5/CyLib.c ****     CyExitCriticalSection(interruptState);
1687:Generated_Source\PSoC5/CyLib.c **** }
1688:Generated_Source\PSoC5/CyLib.c **** 
1689:Generated_Source\PSoC5/CyLib.c **** 
1690:Generated_Source\PSoC5/CyLib.c **** /*******************************************************************************
1691:Generated_Source\PSoC5/CyLib.c **** * Function Name: CyVdLvAnalogEnable
1692:Generated_Source\PSoC5/CyLib.c **** ****************************************************************************//**
1693:Generated_Source\PSoC5/CyLib.c **** *
1694:Generated_Source\PSoC5/CyLib.c **** *  Sets the voltage trip level, enables the output of the analog low-voltage
1695:Generated_Source\PSoC5/CyLib.c **** *  monitor, and optionally configures voltage monitor to reset device upon the
1696:Generated_Source\PSoC5/CyLib.c **** *  low-voltage event instead of generating an interrupt.
ARM GAS  C:\Users\ingan\AppData\Local\Temp\ccwaQbAc.s 			page 73


1697:Generated_Source\PSoC5/CyLib.c **** *
1698:Generated_Source\PSoC5/CyLib.c **** *  Note The associated interrupt enable/disable state is not changed by the
1699:Generated_Source\PSoC5/CyLib.c **** *  function. The Interrupt component API should be used to register the
1700:Generated_Source\PSoC5/CyLib.c **** *  interrupt service routine and to enable/disable associated interrupt.
1701:Generated_Source\PSoC5/CyLib.c **** *
1702:Generated_Source\PSoC5/CyLib.c **** *  \param reset: Enables device reset on analog low-voltage event:
1703:Generated_Source\PSoC5/CyLib.c **** *  Zero - Interrupt on analog low-voltage event
1704:Generated_Source\PSoC5/CyLib.c **** *  Non-zero - Reset on analog low-voltage event
1705:Generated_Source\PSoC5/CyLib.c **** *
1706:Generated_Source\PSoC5/CyLib.c **** *  \param threshold: Sets the trip point of the analog low-voltage monitoring circuit
1707:Generated_Source\PSoC5/CyLib.c **** *  in steps of approximately 250 mV in range from 1.70 V (0x00) to 5.45 V
1708:Generated_Source\PSoC5/CyLib.c **** *  (0x0F). For example, the trip point is set to 1.80 V when value of the
1709:Generated_Source\PSoC5/CyLib.c **** *  threshold parameter is 0x04. Please refer to the device TRM for the exact
1710:Generated_Source\PSoC5/CyLib.c **** *  trip voltage values.
1711:Generated_Source\PSoC5/CyLib.c **** *
1712:Generated_Source\PSoC5/CyLib.c **** * Side Effects and Restrictions:
1713:Generated_Source\PSoC5/CyLib.c **** *  The voltage resets are momentary. When a voltage reset (analog/digital
1714:Generated_Source\PSoC5/CyLib.c **** *  low-voltage and analog high-voltage) occurs, the RESET_CR1 and RESET_CR3
1715:Generated_Source\PSoC5/CyLib.c **** *  registers are restored to their default values. This means that the voltage
1716:Generated_Source\PSoC5/CyLib.c **** *  monitor circuit is no longer enabled and the device exits reset. If the
1717:Generated_Source\PSoC5/CyLib.c **** *  supply is below the trip level and firmware enables the voltage reset
1718:Generated_Source\PSoC5/CyLib.c **** *  functionality, the device will reset again. This will continue as long as
1719:Generated_Source\PSoC5/CyLib.c **** *  the supply is below the trip level or as long as the user enables the reset
1720:Generated_Source\PSoC5/CyLib.c **** *  functionality of the voltage monitor functionality.
1721:Generated_Source\PSoC5/CyLib.c **** *
1722:Generated_Source\PSoC5/CyLib.c **** *  When any voltage reset occurs, the RESET_SR0 and RESET_SR2 status registers
1723:Generated_Source\PSoC5/CyLib.c **** *  are cleared. This means that analog low-voltage, digital low-voltage and
1724:Generated_Source\PSoC5/CyLib.c **** *  analog high-voltage status bits are not persistent across any voltage reset.
1725:Generated_Source\PSoC5/CyLib.c **** *
1726:Generated_Source\PSoC5/CyLib.c **** *******************************************************************************/
1727:Generated_Source\PSoC5/CyLib.c **** void CyVdLvAnalogEnable(uint8 reset, uint8 threshold) 
1728:Generated_Source\PSoC5/CyLib.c **** {
1729:Generated_Source\PSoC5/CyLib.c ****     uint32 intRegTmp;
1730:Generated_Source\PSoC5/CyLib.c ****     uint8 interruptState;
1731:Generated_Source\PSoC5/CyLib.c **** 
1732:Generated_Source\PSoC5/CyLib.c ****     interruptState = CyEnterCriticalSection();
1733:Generated_Source\PSoC5/CyLib.c **** 
1734:Generated_Source\PSoC5/CyLib.c ****     /* Store interrupt enable state */
1735:Generated_Source\PSoC5/CyLib.c ****     intRegTmp = CY_INT_ENABLE_REG & CY_VD_INT_MASK;
1736:Generated_Source\PSoC5/CyLib.c **** 
1737:Generated_Source\PSoC5/CyLib.c ****     /* Disable VD interrupt (write 1) to protect against glitches */
1738:Generated_Source\PSoC5/CyLib.c ****     CY_INT_CLEAR_REG = CY_VD_INT_MASK;
1739:Generated_Source\PSoC5/CyLib.c **** 
1740:Generated_Source\PSoC5/CyLib.c ****     CY_VD_PRES_CONTROL_REG &= ((uint8)(~CY_VD_PRESA_EN));
1741:Generated_Source\PSoC5/CyLib.c **** 
1742:Generated_Source\PSoC5/CyLib.c ****     CY_VD_LVI_TRIP_REG = ((uint8)(threshold << 4u)) | (CY_VD_LVI_TRIP_REG & 0x0Fu);
1743:Generated_Source\PSoC5/CyLib.c ****     CY_VD_LVI_HVI_CONTROL_REG |= CY_VD_LVIA_EN;
1744:Generated_Source\PSoC5/CyLib.c **** 
1745:Generated_Source\PSoC5/CyLib.c ****     /* Timeout to eliminate glitches on LVI/HVI when enabling (ID # 127412) */
1746:Generated_Source\PSoC5/CyLib.c ****     CyDelayUs(1u);
1747:Generated_Source\PSoC5/CyLib.c **** 
1748:Generated_Source\PSoC5/CyLib.c ****     (void) CyVdStickyStatus(CY_VD_LVIA);
1749:Generated_Source\PSoC5/CyLib.c **** 
1750:Generated_Source\PSoC5/CyLib.c ****     if(0u != reset)
1751:Generated_Source\PSoC5/CyLib.c ****     {
1752:Generated_Source\PSoC5/CyLib.c ****         CY_VD_PRES_CONTROL_REG |= CY_VD_PRESA_EN;
1753:Generated_Source\PSoC5/CyLib.c ****     }
ARM GAS  C:\Users\ingan\AppData\Local\Temp\ccwaQbAc.s 			page 74


1754:Generated_Source\PSoC5/CyLib.c ****     else
1755:Generated_Source\PSoC5/CyLib.c ****     {
1756:Generated_Source\PSoC5/CyLib.c ****         CY_VD_PRES_CONTROL_REG &= ((uint8)(~CY_VD_PRESA_EN));
1757:Generated_Source\PSoC5/CyLib.c ****     }
1758:Generated_Source\PSoC5/CyLib.c **** 
1759:Generated_Source\PSoC5/CyLib.c ****     /* Clear pending interrupt */
1760:Generated_Source\PSoC5/CyLib.c ****     CY_INT_CLR_PEND_REG = CY_VD_INT_MASK;
1761:Generated_Source\PSoC5/CyLib.c **** 
1762:Generated_Source\PSoC5/CyLib.c ****     /* Restore interrupt enable state */
1763:Generated_Source\PSoC5/CyLib.c ****     CY_INT_ENABLE_REG = intRegTmp;
1764:Generated_Source\PSoC5/CyLib.c **** 
1765:Generated_Source\PSoC5/CyLib.c ****     CyExitCriticalSection(interruptState);
1766:Generated_Source\PSoC5/CyLib.c **** }
1767:Generated_Source\PSoC5/CyLib.c **** 
1768:Generated_Source\PSoC5/CyLib.c **** 
1769:Generated_Source\PSoC5/CyLib.c **** /*******************************************************************************
1770:Generated_Source\PSoC5/CyLib.c **** * Function Name: CyVdLvDigitDisable
1771:Generated_Source\PSoC5/CyLib.c **** ****************************************************************************//**
1772:Generated_Source\PSoC5/CyLib.c **** *
1773:Generated_Source\PSoC5/CyLib.c **** *  Disables the digital low-voltage monitor, turns off device reset upon the
1774:Generated_Source\PSoC5/CyLib.c **** *  digital low-voltage event, and clears the associated persistent status bit.
1775:Generated_Source\PSoC5/CyLib.c **** *
1776:Generated_Source\PSoC5/CyLib.c **** *  Note The associated interrupt enable/disable state is not changed by the
1777:Generated_Source\PSoC5/CyLib.c **** *  function. The pending interrupt status is not cleared. The Interrupt
1778:Generated_Source\PSoC5/CyLib.c **** *  component API should be used to manipulate with the associated interrupts.
1779:Generated_Source\PSoC5/CyLib.c **** *
1780:Generated_Source\PSoC5/CyLib.c **** *******************************************************************************/
1781:Generated_Source\PSoC5/CyLib.c **** void CyVdLvDigitDisable(void) 
1782:Generated_Source\PSoC5/CyLib.c **** {
1783:Generated_Source\PSoC5/CyLib.c ****     CY_VD_LVI_HVI_CONTROL_REG &= ((uint8)(~CY_VD_LVID_EN));
1784:Generated_Source\PSoC5/CyLib.c ****     CY_VD_PRES_CONTROL_REG &= ((uint8)(~CY_VD_PRESD_EN));
1785:Generated_Source\PSoC5/CyLib.c ****     (void) CyVdStickyStatus(CY_VD_LVID);
1786:Generated_Source\PSoC5/CyLib.c **** 
1787:Generated_Source\PSoC5/CyLib.c ****     while(0u != (CyVdStickyStatus(CY_VD_LVID) & CY_VD_LVID))
1788:Generated_Source\PSoC5/CyLib.c ****     {
1789:Generated_Source\PSoC5/CyLib.c **** 
1790:Generated_Source\PSoC5/CyLib.c ****     }
1791:Generated_Source\PSoC5/CyLib.c **** }
1792:Generated_Source\PSoC5/CyLib.c **** 
1793:Generated_Source\PSoC5/CyLib.c **** 
1794:Generated_Source\PSoC5/CyLib.c **** /*******************************************************************************
1795:Generated_Source\PSoC5/CyLib.c **** * Function Name: CyVdLvAnalogDisable
1796:Generated_Source\PSoC5/CyLib.c **** ****************************************************************************//**
1797:Generated_Source\PSoC5/CyLib.c **** *
1798:Generated_Source\PSoC5/CyLib.c **** *  Disables the analog low-voltage monitor, turns off device reset upon the
1799:Generated_Source\PSoC5/CyLib.c **** *  analog low-voltage event, and clears the associated persistent status bit.
1800:Generated_Source\PSoC5/CyLib.c **** *
1801:Generated_Source\PSoC5/CyLib.c **** *  Note The associated interrupt enable/disable state is not changed by the
1802:Generated_Source\PSoC5/CyLib.c **** *  function. The pending interrupt status is not cleared. The Interrupt
1803:Generated_Source\PSoC5/CyLib.c **** *  component API should be used to manipulate with the associated interrupts.
1804:Generated_Source\PSoC5/CyLib.c **** *
1805:Generated_Source\PSoC5/CyLib.c **** *******************************************************************************/
1806:Generated_Source\PSoC5/CyLib.c **** void CyVdLvAnalogDisable(void) 
1807:Generated_Source\PSoC5/CyLib.c **** {
1808:Generated_Source\PSoC5/CyLib.c ****     CY_VD_LVI_HVI_CONTROL_REG &= ((uint8)(~CY_VD_LVIA_EN));
1809:Generated_Source\PSoC5/CyLib.c ****     CY_VD_PRES_CONTROL_REG &= ((uint8)(~CY_VD_PRESA_EN));
1810:Generated_Source\PSoC5/CyLib.c ****     while(0u != (CyVdStickyStatus(CY_VD_LVIA) & CY_VD_LVIA))
ARM GAS  C:\Users\ingan\AppData\Local\Temp\ccwaQbAc.s 			page 75


1811:Generated_Source\PSoC5/CyLib.c ****     {
1812:Generated_Source\PSoC5/CyLib.c **** 
1813:Generated_Source\PSoC5/CyLib.c ****     }
1814:Generated_Source\PSoC5/CyLib.c **** }
1815:Generated_Source\PSoC5/CyLib.c **** 
1816:Generated_Source\PSoC5/CyLib.c **** 
1817:Generated_Source\PSoC5/CyLib.c **** /*******************************************************************************
1818:Generated_Source\PSoC5/CyLib.c **** * Function Name: CyVdHvAnalogEnable
1819:Generated_Source\PSoC5/CyLib.c **** ****************************************************************************//**
1820:Generated_Source\PSoC5/CyLib.c **** *
1821:Generated_Source\PSoC5/CyLib.c **** *  Enables the output of the analog high-voltage monitor and sets 5.75 V
1822:Generated_Source\PSoC5/CyLib.c **** *  threshold detection for Vdda.
1823:Generated_Source\PSoC5/CyLib.c **** *
1824:Generated_Source\PSoC5/CyLib.c **** *  Note The associated interrupt enable/disable state is not changed by the
1825:Generated_Source\PSoC5/CyLib.c **** *  function. The Interrupt component API should be used to register the
1826:Generated_Source\PSoC5/CyLib.c **** *  interrupt service routine and to enable/disable associated interrupt.
1827:Generated_Source\PSoC5/CyLib.c **** *
1828:Generated_Source\PSoC5/CyLib.c **** *******************************************************************************/
1829:Generated_Source\PSoC5/CyLib.c **** void CyVdHvAnalogEnable(void) 
1830:Generated_Source\PSoC5/CyLib.c **** {
1831:Generated_Source\PSoC5/CyLib.c ****     uint32 intRegTmp;
1832:Generated_Source\PSoC5/CyLib.c ****     uint8 interruptState;
1833:Generated_Source\PSoC5/CyLib.c **** 
1834:Generated_Source\PSoC5/CyLib.c ****     interruptState = CyEnterCriticalSection();
1835:Generated_Source\PSoC5/CyLib.c **** 
1836:Generated_Source\PSoC5/CyLib.c ****     /* Store interrupt enable state */
1837:Generated_Source\PSoC5/CyLib.c ****     intRegTmp = CY_INT_ENABLE_REG & CY_VD_INT_MASK;
1838:Generated_Source\PSoC5/CyLib.c **** 
1839:Generated_Source\PSoC5/CyLib.c ****     /* Disable VD interrupt (write 1) to protect against glitches */
1840:Generated_Source\PSoC5/CyLib.c ****     CY_INT_CLEAR_REG = CY_VD_INT_MASK;
1841:Generated_Source\PSoC5/CyLib.c **** 
1842:Generated_Source\PSoC5/CyLib.c ****     CY_VD_PRES_CONTROL_REG &= ((uint8)(~CY_VD_PRESA_EN));
1843:Generated_Source\PSoC5/CyLib.c **** 
1844:Generated_Source\PSoC5/CyLib.c ****     CY_VD_LVI_HVI_CONTROL_REG |= CY_VD_HVIA_EN;
1845:Generated_Source\PSoC5/CyLib.c **** 
1846:Generated_Source\PSoC5/CyLib.c ****     /* Timeout to eliminate glitches on the LVI/HVI when enabling (ID # 127412)  */
1847:Generated_Source\PSoC5/CyLib.c ****     CyDelayUs(1u);
1848:Generated_Source\PSoC5/CyLib.c **** 
1849:Generated_Source\PSoC5/CyLib.c ****     (void) CyVdStickyStatus(CY_VD_HVIA);
1850:Generated_Source\PSoC5/CyLib.c **** 
1851:Generated_Source\PSoC5/CyLib.c ****     /* Clear pending interrupt */
1852:Generated_Source\PSoC5/CyLib.c ****     CY_INT_CLR_PEND_REG = CY_VD_INT_MASK;
1853:Generated_Source\PSoC5/CyLib.c **** 
1854:Generated_Source\PSoC5/CyLib.c ****     /* Restore interrupt enable state */
1855:Generated_Source\PSoC5/CyLib.c ****     CY_INT_ENABLE_REG = intRegTmp;
1856:Generated_Source\PSoC5/CyLib.c **** 
1857:Generated_Source\PSoC5/CyLib.c ****     CyExitCriticalSection(interruptState);
1858:Generated_Source\PSoC5/CyLib.c **** }
1859:Generated_Source\PSoC5/CyLib.c **** 
1860:Generated_Source\PSoC5/CyLib.c **** 
1861:Generated_Source\PSoC5/CyLib.c **** /*******************************************************************************
1862:Generated_Source\PSoC5/CyLib.c **** * Function Name: CyVdHvAnalogDisable
1863:Generated_Source\PSoC5/CyLib.c **** ****************************************************************************//**
1864:Generated_Source\PSoC5/CyLib.c **** *
1865:Generated_Source\PSoC5/CyLib.c **** *  Disables the analog high-voltage monitor and clears the associated persistent
1866:Generated_Source\PSoC5/CyLib.c **** *  status bit.
1867:Generated_Source\PSoC5/CyLib.c **** *
ARM GAS  C:\Users\ingan\AppData\Local\Temp\ccwaQbAc.s 			page 76


1868:Generated_Source\PSoC5/CyLib.c **** *  Note The associated interrupt enable/disable state is not changed by the
1869:Generated_Source\PSoC5/CyLib.c **** *  function. The pending interrupt status is not cleared. The Interrupt
1870:Generated_Source\PSoC5/CyLib.c **** *  component API should be used to manipulate with the associated interrupts.
1871:Generated_Source\PSoC5/CyLib.c **** *
1872:Generated_Source\PSoC5/CyLib.c **** *******************************************************************************/
1873:Generated_Source\PSoC5/CyLib.c **** void CyVdHvAnalogDisable(void) 
1874:Generated_Source\PSoC5/CyLib.c **** {
1875:Generated_Source\PSoC5/CyLib.c ****     CY_VD_LVI_HVI_CONTROL_REG &= ((uint8)(~CY_VD_HVIA_EN));
1876:Generated_Source\PSoC5/CyLib.c ****     while(0u != (CyVdStickyStatus(CY_VD_HVIA) & CY_VD_HVIA))
1877:Generated_Source\PSoC5/CyLib.c ****     {
1878:Generated_Source\PSoC5/CyLib.c **** 
1879:Generated_Source\PSoC5/CyLib.c ****     }
1880:Generated_Source\PSoC5/CyLib.c **** }
1881:Generated_Source\PSoC5/CyLib.c **** 
1882:Generated_Source\PSoC5/CyLib.c **** 
1883:Generated_Source\PSoC5/CyLib.c **** /*******************************************************************************
1884:Generated_Source\PSoC5/CyLib.c **** * Function Name: CyVdStickyStatus
1885:Generated_Source\PSoC5/CyLib.c **** ****************************************************************************//**
1886:Generated_Source\PSoC5/CyLib.c **** *
1887:Generated_Source\PSoC5/CyLib.c **** *  Reads and clears the voltage detection status bits in the RESET_SR0 register.
1888:Generated_Source\PSoC5/CyLib.c **** *  The bits are set to 1 by the voltage monitor circuit when the supply is
1889:Generated_Source\PSoC5/CyLib.c **** *  outside the detector trip point. They stay set to 1 until they are read or
1890:Generated_Source\PSoC5/CyLib.c **** *  a POR / LVI / PRES reset occurs. This function uses a shadow register, so
1891:Generated_Source\PSoC5/CyLib.c **** *  only the bits passed in the parameter will be cleared in the shadow register.
1892:Generated_Source\PSoC5/CyLib.c **** *
1893:Generated_Source\PSoC5/CyLib.c **** *  \param mask: Bits in the RESET_SR0 shadow register to clear and return.
1894:Generated_Source\PSoC5/CyLib.c **** *   Define                  Definition
1895:Generated_Source\PSoC5/CyLib.c **** *   CY_VD_LVID            Persistent status of digital LVI.
1896:Generated_Source\PSoC5/CyLib.c **** *   CY_VD_LVIA            Persistent status of analog LVI.
1897:Generated_Source\PSoC5/CyLib.c **** *   CY_VD_HVIA            Persistent status of analog HVI.
1898:Generated_Source\PSoC5/CyLib.c **** *
1899:Generated_Source\PSoC5/CyLib.c **** * \return
1900:Generated_Source\PSoC5/CyLib.c **** *  Status. Same enumerated bit values as used for the mask parameter. A zero is
1901:Generated_Source\PSoC5/CyLib.c **** *  returned for bits not used in the mask parameter.
1902:Generated_Source\PSoC5/CyLib.c **** *
1903:Generated_Source\PSoC5/CyLib.c **** * Side Effects and Restrictions:
1904:Generated_Source\PSoC5/CyLib.c **** *  When an LVI reset occurs, the RESET_SR0 status registers are cleared. This
1905:Generated_Source\PSoC5/CyLib.c **** *  means that the voltage detection status bits are not persistent across an LVI
1906:Generated_Source\PSoC5/CyLib.c **** *  reset and cannot be used to determine a reset source.
1907:Generated_Source\PSoC5/CyLib.c **** *
1908:Generated_Source\PSoC5/CyLib.c **** *******************************************************************************/
1909:Generated_Source\PSoC5/CyLib.c **** uint8 CyVdStickyStatus(uint8 mask) 
1910:Generated_Source\PSoC5/CyLib.c **** {
 2258              		.loc 1 1910 0
 2259              		.cfi_startproc
 2260              		@ args = 0, pretend = 0, frame = 0
 2261              		@ frame_needed = 0, uses_anonymous_args = 0
 2262              	.LVL121:
 2263 0000 38B5     		push	{r3, r4, r5, lr}
 2264              		.cfi_def_cfa_offset 16
 2265              		.cfi_offset 3, -16
 2266              		.cfi_offset 4, -12
 2267              		.cfi_offset 5, -8
 2268              		.cfi_offset 14, -4
 2269 0002 0546     		mov	r5, r0
1911:Generated_Source\PSoC5/CyLib.c ****     static uint8 interruptStatus;
1912:Generated_Source\PSoC5/CyLib.c ****     uint8 interruptState;
ARM GAS  C:\Users\ingan\AppData\Local\Temp\ccwaQbAc.s 			page 77


1913:Generated_Source\PSoC5/CyLib.c ****     uint8 tmpStatus;
1914:Generated_Source\PSoC5/CyLib.c **** 
1915:Generated_Source\PSoC5/CyLib.c ****     interruptState = CyEnterCriticalSection();
 2270              		.loc 1 1915 0
 2271 0004 FFF7FEFF 		bl	CyEnterCriticalSection
 2272              	.LVL122:
1916:Generated_Source\PSoC5/CyLib.c **** 
1917:Generated_Source\PSoC5/CyLib.c ****     interruptStatus |= CY_VD_PERSISTENT_STATUS_REG;
 2273              		.loc 1 1917 0
 2274 0008 064B     		ldr	r3, .L236
 2275 000a 1C78     		ldrb	r4, [r3]	@ zero_extendqisi2
 2276 000c 064A     		ldr	r2, .L236+4
 2277 000e 1378     		ldrb	r3, [r2]	@ zero_extendqisi2
 2278 0010 1C43     		orrs	r4, r4, r3
 2279              	.LVL123:
1918:Generated_Source\PSoC5/CyLib.c ****     tmpStatus = interruptStatus & (uint8)(CY_VD_LVID | CY_VD_LVIA | CY_VD_HVIA);
1919:Generated_Source\PSoC5/CyLib.c ****     interruptStatus &= ((uint8)(~mask));
 2280              		.loc 1 1919 0
 2281 0012 24EA0505 		bic	r5, r4, r5
 2282 0016 1570     		strb	r5, [r2]
1920:Generated_Source\PSoC5/CyLib.c **** 
1921:Generated_Source\PSoC5/CyLib.c ****     CyExitCriticalSection(interruptState);
 2283              		.loc 1 1921 0
 2284 0018 FFF7FEFF 		bl	CyExitCriticalSection
 2285              	.LVL124:
1922:Generated_Source\PSoC5/CyLib.c **** 
1923:Generated_Source\PSoC5/CyLib.c ****     return(tmpStatus);
1924:Generated_Source\PSoC5/CyLib.c **** }
 2286              		.loc 1 1924 0
 2287 001c 04F00700 		and	r0, r4, #7
 2288 0020 38BD     		pop	{r3, r4, r5, pc}
 2289              	.LVL125:
 2290              	.L237:
 2291 0022 00BF     		.align	2
 2292              	.L236:
 2293 0024 FA460040 		.word	1073759994
 2294 0028 00000000 		.word	.LANCHOR1
 2295              		.cfi_endproc
 2296              	.LFE52:
 2297              		.size	CyVdStickyStatus, .-CyVdStickyStatus
 2298              		.section	.text.CyVdLvDigitEnable,"ax",%progbits
 2299              		.align	2
 2300              		.global	CyVdLvDigitEnable
 2301              		.thumb
 2302              		.thumb_func
 2303              		.type	CyVdLvDigitEnable, %function
 2304              	CyVdLvDigitEnable:
 2305              	.LFB46:
1648:Generated_Source\PSoC5/CyLib.c ****     uint32 intRegTmp;
 2306              		.loc 1 1648 0
 2307              		.cfi_startproc
 2308              		@ args = 0, pretend = 0, frame = 0
 2309              		@ frame_needed = 0, uses_anonymous_args = 0
 2310              	.LVL126:
 2311 0000 2DE9F041 		push	{r4, r5, r6, r7, r8, lr}
 2312              		.cfi_def_cfa_offset 24
 2313              		.cfi_offset 4, -24
ARM GAS  C:\Users\ingan\AppData\Local\Temp\ccwaQbAc.s 			page 78


 2314              		.cfi_offset 5, -20
 2315              		.cfi_offset 6, -16
 2316              		.cfi_offset 7, -12
 2317              		.cfi_offset 8, -8
 2318              		.cfi_offset 14, -4
 2319 0004 0746     		mov	r7, r0
 2320 0006 8846     		mov	r8, r1
1652:Generated_Source\PSoC5/CyLib.c **** 
 2321              		.loc 1 1652 0
 2322 0008 FFF7FEFF 		bl	CyEnterCriticalSection
 2323              	.LVL127:
 2324 000c 0646     		mov	r6, r0
 2325              	.LVL128:
1655:Generated_Source\PSoC5/CyLib.c **** 
 2326              		.loc 1 1655 0
 2327 000e 1A4B     		ldr	r3, .L242
 2328 0010 1C68     		ldr	r4, [r3]
 2329 0012 04F00104 		and	r4, r4, #1
 2330              	.LVL129:
1658:Generated_Source\PSoC5/CyLib.c **** 
 2331              		.loc 1 1658 0
 2332 0016 0125     		movs	r5, #1
 2333 0018 8033     		adds	r3, r3, #128
 2334 001a 1D60     		str	r5, [r3]
1660:Generated_Source\PSoC5/CyLib.c **** 
 2335              		.loc 1 1660 0
 2336 001c 174A     		ldr	r2, .L242+4
 2337 001e 1378     		ldrb	r3, [r2]	@ zero_extendqisi2
 2338 0020 03F0BF03 		and	r3, r3, #191
 2339 0024 1370     		strb	r3, [r2]
1663:Generated_Source\PSoC5/CyLib.c ****     CY_VD_LVI_HVI_CONTROL_REG |= CY_VD_LVID_EN;
 2340              		.loc 1 1663 0
 2341 0026 033A     		subs	r2, r2, #3
 2342 0028 1378     		ldrb	r3, [r2]	@ zero_extendqisi2
1662:Generated_Source\PSoC5/CyLib.c ****                             (CY_VD_LVI_TRIP_REG & ((uint8)(~CY_VD_LVI_TRIP_LVID_MASK)));
 2343              		.loc 1 1662 0
 2344 002a 08F00F01 		and	r1, r8, #15
 2345 002e 03F0F003 		and	r3, r3, #240
 2346 0032 1943     		orrs	r1, r1, r3
 2347 0034 1170     		strb	r1, [r2]
1664:Generated_Source\PSoC5/CyLib.c **** 
 2348              		.loc 1 1664 0
 2349 0036 0132     		adds	r2, r2, #1
 2350 0038 1378     		ldrb	r3, [r2]	@ zero_extendqisi2
 2351 003a 2B43     		orrs	r3, r3, r5
 2352 003c 1370     		strb	r3, [r2]
1667:Generated_Source\PSoC5/CyLib.c **** 
 2353              		.loc 1 1667 0
 2354 003e 2846     		mov	r0, r5
 2355 0040 FFF7FEFF 		bl	CyDelayUs
 2356              	.LVL130:
1669:Generated_Source\PSoC5/CyLib.c **** 
 2357              		.loc 1 1669 0
 2358 0044 2846     		mov	r0, r5
 2359 0046 FFF7FEFF 		bl	CyVdStickyStatus
 2360              	.LVL131:
1671:Generated_Source\PSoC5/CyLib.c ****     {
ARM GAS  C:\Users\ingan\AppData\Local\Temp\ccwaQbAc.s 			page 79


 2361              		.loc 1 1671 0
 2362 004a 2FB1     		cbz	r7, .L239
1673:Generated_Source\PSoC5/CyLib.c ****     }
 2363              		.loc 1 1673 0
 2364 004c 0B4A     		ldr	r2, .L242+4
 2365 004e 1378     		ldrb	r3, [r2]	@ zero_extendqisi2
 2366 0050 43F04003 		orr	r3, r3, #64
 2367 0054 1370     		strb	r3, [r2]
 2368 0056 04E0     		b	.L240
 2369              	.L239:
1677:Generated_Source\PSoC5/CyLib.c ****     }
 2370              		.loc 1 1677 0
 2371 0058 084A     		ldr	r2, .L242+4
 2372 005a 1378     		ldrb	r3, [r2]	@ zero_extendqisi2
 2373 005c 03F0BF03 		and	r3, r3, #191
 2374 0060 1370     		strb	r3, [r2]
 2375              	.L240:
1681:Generated_Source\PSoC5/CyLib.c **** 
 2376              		.loc 1 1681 0
 2377 0062 0122     		movs	r2, #1
 2378 0064 064B     		ldr	r3, .L242+8
 2379 0066 1A60     		str	r2, [r3]
1684:Generated_Source\PSoC5/CyLib.c **** 
 2380              		.loc 1 1684 0
 2381 0068 A3F5C073 		sub	r3, r3, #384
 2382 006c 1C60     		str	r4, [r3]
1686:Generated_Source\PSoC5/CyLib.c **** }
 2383              		.loc 1 1686 0
 2384 006e 3046     		mov	r0, r6
 2385 0070 FFF7FEFF 		bl	CyExitCriticalSection
 2386              	.LVL132:
 2387 0074 BDE8F081 		pop	{r4, r5, r6, r7, r8, pc}
 2388              	.LVL133:
 2389              	.L243:
 2390              		.align	2
 2391              	.L242:
 2392 0078 00E100E0 		.word	-536813312
 2393 007c F7460040 		.word	1073759991
 2394 0080 80E200E0 		.word	-536812928
 2395              		.cfi_endproc
 2396              	.LFE46:
 2397              		.size	CyVdLvDigitEnable, .-CyVdLvDigitEnable
 2398              		.section	.text.CyVdLvAnalogEnable,"ax",%progbits
 2399              		.align	2
 2400              		.global	CyVdLvAnalogEnable
 2401              		.thumb
 2402              		.thumb_func
 2403              		.type	CyVdLvAnalogEnable, %function
 2404              	CyVdLvAnalogEnable:
 2405              	.LFB47:
1728:Generated_Source\PSoC5/CyLib.c ****     uint32 intRegTmp;
 2406              		.loc 1 1728 0
 2407              		.cfi_startproc
 2408              		@ args = 0, pretend = 0, frame = 0
 2409              		@ frame_needed = 0, uses_anonymous_args = 0
 2410              	.LVL134:
 2411 0000 F8B5     		push	{r3, r4, r5, r6, r7, lr}
ARM GAS  C:\Users\ingan\AppData\Local\Temp\ccwaQbAc.s 			page 80


 2412              		.cfi_def_cfa_offset 24
 2413              		.cfi_offset 3, -24
 2414              		.cfi_offset 4, -20
 2415              		.cfi_offset 5, -16
 2416              		.cfi_offset 6, -12
 2417              		.cfi_offset 7, -8
 2418              		.cfi_offset 14, -4
 2419 0002 0646     		mov	r6, r0
 2420 0004 0F46     		mov	r7, r1
1732:Generated_Source\PSoC5/CyLib.c **** 
 2421              		.loc 1 1732 0
 2422 0006 FFF7FEFF 		bl	CyEnterCriticalSection
 2423              	.LVL135:
 2424 000a 0546     		mov	r5, r0
 2425              	.LVL136:
1735:Generated_Source\PSoC5/CyLib.c **** 
 2426              		.loc 1 1735 0
 2427 000c 194B     		ldr	r3, .L248
 2428 000e 1C68     		ldr	r4, [r3]
 2429 0010 04F00104 		and	r4, r4, #1
 2430              	.LVL137:
1738:Generated_Source\PSoC5/CyLib.c **** 
 2431              		.loc 1 1738 0
 2432 0014 0120     		movs	r0, #1
 2433 0016 8033     		adds	r3, r3, #128
 2434 0018 1860     		str	r0, [r3]
1740:Generated_Source\PSoC5/CyLib.c **** 
 2435              		.loc 1 1740 0
 2436 001a 174A     		ldr	r2, .L248+4
 2437 001c 1378     		ldrb	r3, [r2]	@ zero_extendqisi2
 2438 001e 03F07F03 		and	r3, r3, #127
 2439 0022 1370     		strb	r3, [r2]
1742:Generated_Source\PSoC5/CyLib.c ****     CY_VD_LVI_HVI_CONTROL_REG |= CY_VD_LVIA_EN;
 2440              		.loc 1 1742 0
 2441 0024 154B     		ldr	r3, .L248+8
 2442 0026 1978     		ldrb	r1, [r3]	@ zero_extendqisi2
 2443 0028 01F00F01 		and	r1, r1, #15
 2444 002c 41EA0711 		orr	r1, r1, r7, lsl #4
 2445 0030 C9B2     		uxtb	r1, r1
 2446 0032 1970     		strb	r1, [r3]
1743:Generated_Source\PSoC5/CyLib.c **** 
 2447              		.loc 1 1743 0
 2448 0034 023A     		subs	r2, r2, #2
 2449 0036 1378     		ldrb	r3, [r2]	@ zero_extendqisi2
 2450 0038 43F00203 		orr	r3, r3, #2
 2451 003c 1370     		strb	r3, [r2]
1746:Generated_Source\PSoC5/CyLib.c **** 
 2452              		.loc 1 1746 0
 2453 003e FFF7FEFF 		bl	CyDelayUs
 2454              	.LVL138:
1748:Generated_Source\PSoC5/CyLib.c **** 
 2455              		.loc 1 1748 0
 2456 0042 0220     		movs	r0, #2
 2457 0044 FFF7FEFF 		bl	CyVdStickyStatus
 2458              	.LVL139:
1750:Generated_Source\PSoC5/CyLib.c ****     {
 2459              		.loc 1 1750 0
ARM GAS  C:\Users\ingan\AppData\Local\Temp\ccwaQbAc.s 			page 81


 2460 0048 2EB1     		cbz	r6, .L245
1752:Generated_Source\PSoC5/CyLib.c ****     }
 2461              		.loc 1 1752 0
 2462 004a 0B4A     		ldr	r2, .L248+4
 2463 004c 1378     		ldrb	r3, [r2]	@ zero_extendqisi2
 2464 004e 43F08003 		orr	r3, r3, #128
 2465 0052 1370     		strb	r3, [r2]
 2466 0054 04E0     		b	.L246
 2467              	.L245:
1756:Generated_Source\PSoC5/CyLib.c ****     }
 2468              		.loc 1 1756 0
 2469 0056 084A     		ldr	r2, .L248+4
 2470 0058 1378     		ldrb	r3, [r2]	@ zero_extendqisi2
 2471 005a 03F07F03 		and	r3, r3, #127
 2472 005e 1370     		strb	r3, [r2]
 2473              	.L246:
1760:Generated_Source\PSoC5/CyLib.c **** 
 2474              		.loc 1 1760 0
 2475 0060 0122     		movs	r2, #1
 2476 0062 074B     		ldr	r3, .L248+12
 2477 0064 1A60     		str	r2, [r3]
1763:Generated_Source\PSoC5/CyLib.c **** 
 2478              		.loc 1 1763 0
 2479 0066 A3F5C073 		sub	r3, r3, #384
 2480 006a 1C60     		str	r4, [r3]
1765:Generated_Source\PSoC5/CyLib.c **** }
 2481              		.loc 1 1765 0
 2482 006c 2846     		mov	r0, r5
 2483 006e FFF7FEFF 		bl	CyExitCriticalSection
 2484              	.LVL140:
 2485 0072 F8BD     		pop	{r3, r4, r5, r6, r7, pc}
 2486              	.LVL141:
 2487              	.L249:
 2488              		.align	2
 2489              	.L248:
 2490 0074 00E100E0 		.word	-536813312
 2491 0078 F7460040 		.word	1073759991
 2492 007c F4460040 		.word	1073759988
 2493 0080 80E200E0 		.word	-536812928
 2494              		.cfi_endproc
 2495              	.LFE47:
 2496              		.size	CyVdLvAnalogEnable, .-CyVdLvAnalogEnable
 2497              		.section	.text.CyVdLvDigitDisable,"ax",%progbits
 2498              		.align	2
 2499              		.global	CyVdLvDigitDisable
 2500              		.thumb
 2501              		.thumb_func
 2502              		.type	CyVdLvDigitDisable, %function
 2503              	CyVdLvDigitDisable:
 2504              	.LFB48:
1782:Generated_Source\PSoC5/CyLib.c ****     CY_VD_LVI_HVI_CONTROL_REG &= ((uint8)(~CY_VD_LVID_EN));
 2505              		.loc 1 1782 0
 2506              		.cfi_startproc
 2507              		@ args = 0, pretend = 0, frame = 0
 2508              		@ frame_needed = 0, uses_anonymous_args = 0
 2509 0000 10B5     		push	{r4, lr}
 2510              		.cfi_def_cfa_offset 8
ARM GAS  C:\Users\ingan\AppData\Local\Temp\ccwaQbAc.s 			page 82


 2511              		.cfi_offset 4, -8
 2512              		.cfi_offset 14, -4
1783:Generated_Source\PSoC5/CyLib.c ****     CY_VD_PRES_CONTROL_REG &= ((uint8)(~CY_VD_PRESD_EN));
 2513              		.loc 1 1783 0
 2514 0002 0A4A     		ldr	r2, .L254
 2515 0004 1378     		ldrb	r3, [r2]	@ zero_extendqisi2
 2516 0006 03F0FE03 		and	r3, r3, #254
 2517 000a 1370     		strb	r3, [r2]
1784:Generated_Source\PSoC5/CyLib.c ****     (void) CyVdStickyStatus(CY_VD_LVID);
 2518              		.loc 1 1784 0
 2519 000c 0232     		adds	r2, r2, #2
 2520 000e 1378     		ldrb	r3, [r2]	@ zero_extendqisi2
 2521 0010 03F0BF03 		and	r3, r3, #191
 2522 0014 1370     		strb	r3, [r2]
1785:Generated_Source\PSoC5/CyLib.c **** 
 2523              		.loc 1 1785 0
 2524 0016 0120     		movs	r0, #1
 2525 0018 FFF7FEFF 		bl	CyVdStickyStatus
 2526              	.LVL142:
1787:Generated_Source\PSoC5/CyLib.c ****     {
 2527              		.loc 1 1787 0
 2528 001c 0124     		movs	r4, #1
 2529              	.L251:
1787:Generated_Source\PSoC5/CyLib.c ****     {
 2530              		.loc 1 1787 0 is_stmt 0 discriminator 1
 2531 001e 2046     		mov	r0, r4
 2532 0020 FFF7FEFF 		bl	CyVdStickyStatus
 2533              	.LVL143:
 2534 0024 10F0010F 		tst	r0, #1
 2535 0028 F9D1     		bne	.L251
1791:Generated_Source\PSoC5/CyLib.c **** 
 2536              		.loc 1 1791 0 is_stmt 1
 2537 002a 10BD     		pop	{r4, pc}
 2538              	.L255:
 2539              		.align	2
 2540              	.L254:
 2541 002c F5460040 		.word	1073759989
 2542              		.cfi_endproc
 2543              	.LFE48:
 2544              		.size	CyVdLvDigitDisable, .-CyVdLvDigitDisable
 2545              		.section	.text.CyVdLvAnalogDisable,"ax",%progbits
 2546              		.align	2
 2547              		.global	CyVdLvAnalogDisable
 2548              		.thumb
 2549              		.thumb_func
 2550              		.type	CyVdLvAnalogDisable, %function
 2551              	CyVdLvAnalogDisable:
 2552              	.LFB49:
1807:Generated_Source\PSoC5/CyLib.c ****     CY_VD_LVI_HVI_CONTROL_REG &= ((uint8)(~CY_VD_LVIA_EN));
 2553              		.loc 1 1807 0
 2554              		.cfi_startproc
 2555              		@ args = 0, pretend = 0, frame = 0
 2556              		@ frame_needed = 0, uses_anonymous_args = 0
 2557 0000 10B5     		push	{r4, lr}
 2558              		.cfi_def_cfa_offset 8
 2559              		.cfi_offset 4, -8
 2560              		.cfi_offset 14, -4
ARM GAS  C:\Users\ingan\AppData\Local\Temp\ccwaQbAc.s 			page 83


1808:Generated_Source\PSoC5/CyLib.c ****     CY_VD_PRES_CONTROL_REG &= ((uint8)(~CY_VD_PRESA_EN));
 2561              		.loc 1 1808 0
 2562 0002 094A     		ldr	r2, .L260
 2563 0004 1378     		ldrb	r3, [r2]	@ zero_extendqisi2
 2564 0006 03F0FD03 		and	r3, r3, #253
 2565 000a 1370     		strb	r3, [r2]
1809:Generated_Source\PSoC5/CyLib.c ****     while(0u != (CyVdStickyStatus(CY_VD_LVIA) & CY_VD_LVIA))
 2566              		.loc 1 1809 0
 2567 000c 0232     		adds	r2, r2, #2
 2568 000e 1378     		ldrb	r3, [r2]	@ zero_extendqisi2
 2569 0010 03F07F03 		and	r3, r3, #127
 2570 0014 1370     		strb	r3, [r2]
1810:Generated_Source\PSoC5/CyLib.c ****     {
 2571              		.loc 1 1810 0
 2572 0016 0224     		movs	r4, #2
 2573              	.L257:
1810:Generated_Source\PSoC5/CyLib.c ****     {
 2574              		.loc 1 1810 0 is_stmt 0 discriminator 1
 2575 0018 2046     		mov	r0, r4
 2576 001a FFF7FEFF 		bl	CyVdStickyStatus
 2577              	.LVL144:
 2578 001e 10F0020F 		tst	r0, #2
 2579 0022 F9D1     		bne	.L257
1814:Generated_Source\PSoC5/CyLib.c **** 
 2580              		.loc 1 1814 0 is_stmt 1
 2581 0024 10BD     		pop	{r4, pc}
 2582              	.L261:
 2583 0026 00BF     		.align	2
 2584              	.L260:
 2585 0028 F5460040 		.word	1073759989
 2586              		.cfi_endproc
 2587              	.LFE49:
 2588              		.size	CyVdLvAnalogDisable, .-CyVdLvAnalogDisable
 2589              		.section	.text.CyVdHvAnalogEnable,"ax",%progbits
 2590              		.align	2
 2591              		.global	CyVdHvAnalogEnable
 2592              		.thumb
 2593              		.thumb_func
 2594              		.type	CyVdHvAnalogEnable, %function
 2595              	CyVdHvAnalogEnable:
 2596              	.LFB50:
1830:Generated_Source\PSoC5/CyLib.c ****     uint32 intRegTmp;
 2597              		.loc 1 1830 0
 2598              		.cfi_startproc
 2599              		@ args = 0, pretend = 0, frame = 0
 2600              		@ frame_needed = 0, uses_anonymous_args = 0
 2601 0000 F8B5     		push	{r3, r4, r5, r6, r7, lr}
 2602              		.cfi_def_cfa_offset 24
 2603              		.cfi_offset 3, -24
 2604              		.cfi_offset 4, -20
 2605              		.cfi_offset 5, -16
 2606              		.cfi_offset 6, -12
 2607              		.cfi_offset 7, -8
 2608              		.cfi_offset 14, -4
1834:Generated_Source\PSoC5/CyLib.c **** 
 2609              		.loc 1 1834 0
 2610 0002 FFF7FEFF 		bl	CyEnterCriticalSection
ARM GAS  C:\Users\ingan\AppData\Local\Temp\ccwaQbAc.s 			page 84


 2611              	.LVL145:
 2612 0006 0746     		mov	r7, r0
 2613              	.LVL146:
1837:Generated_Source\PSoC5/CyLib.c **** 
 2614              		.loc 1 1837 0
 2615 0008 0E4E     		ldr	r6, .L264
 2616 000a 3468     		ldr	r4, [r6]
 2617 000c 04F00104 		and	r4, r4, #1
 2618              	.LVL147:
1840:Generated_Source\PSoC5/CyLib.c **** 
 2619              		.loc 1 1840 0
 2620 0010 0125     		movs	r5, #1
 2621 0012 0D4B     		ldr	r3, .L264+4
 2622 0014 1D60     		str	r5, [r3]
1842:Generated_Source\PSoC5/CyLib.c **** 
 2623              		.loc 1 1842 0
 2624 0016 0D4A     		ldr	r2, .L264+8
 2625 0018 1378     		ldrb	r3, [r2]	@ zero_extendqisi2
 2626 001a 03F07F03 		and	r3, r3, #127
 2627 001e 1370     		strb	r3, [r2]
1844:Generated_Source\PSoC5/CyLib.c **** 
 2628              		.loc 1 1844 0
 2629 0020 023A     		subs	r2, r2, #2
 2630 0022 1378     		ldrb	r3, [r2]	@ zero_extendqisi2
 2631 0024 43F00403 		orr	r3, r3, #4
 2632 0028 1370     		strb	r3, [r2]
1847:Generated_Source\PSoC5/CyLib.c **** 
 2633              		.loc 1 1847 0
 2634 002a 2846     		mov	r0, r5
 2635 002c FFF7FEFF 		bl	CyDelayUs
 2636              	.LVL148:
1849:Generated_Source\PSoC5/CyLib.c **** 
 2637              		.loc 1 1849 0
 2638 0030 0420     		movs	r0, #4
 2639 0032 FFF7FEFF 		bl	CyVdStickyStatus
 2640              	.LVL149:
1852:Generated_Source\PSoC5/CyLib.c **** 
 2641              		.loc 1 1852 0
 2642 0036 064B     		ldr	r3, .L264+12
 2643 0038 1D60     		str	r5, [r3]
1855:Generated_Source\PSoC5/CyLib.c **** 
 2644              		.loc 1 1855 0
 2645 003a 3460     		str	r4, [r6]
1857:Generated_Source\PSoC5/CyLib.c **** }
 2646              		.loc 1 1857 0
 2647 003c 3846     		mov	r0, r7
 2648 003e FFF7FEFF 		bl	CyExitCriticalSection
 2649              	.LVL150:
 2650 0042 F8BD     		pop	{r3, r4, r5, r6, r7, pc}
 2651              	.LVL151:
 2652              	.L265:
 2653              		.align	2
 2654              	.L264:
 2655 0044 00E100E0 		.word	-536813312
 2656 0048 80E100E0 		.word	-536813184
 2657 004c F7460040 		.word	1073759991
 2658 0050 80E200E0 		.word	-536812928
ARM GAS  C:\Users\ingan\AppData\Local\Temp\ccwaQbAc.s 			page 85


 2659              		.cfi_endproc
 2660              	.LFE50:
 2661              		.size	CyVdHvAnalogEnable, .-CyVdHvAnalogEnable
 2662              		.section	.text.CyVdHvAnalogDisable,"ax",%progbits
 2663              		.align	2
 2664              		.global	CyVdHvAnalogDisable
 2665              		.thumb
 2666              		.thumb_func
 2667              		.type	CyVdHvAnalogDisable, %function
 2668              	CyVdHvAnalogDisable:
 2669              	.LFB51:
1874:Generated_Source\PSoC5/CyLib.c ****     CY_VD_LVI_HVI_CONTROL_REG &= ((uint8)(~CY_VD_HVIA_EN));
 2670              		.loc 1 1874 0
 2671              		.cfi_startproc
 2672              		@ args = 0, pretend = 0, frame = 0
 2673              		@ frame_needed = 0, uses_anonymous_args = 0
 2674 0000 10B5     		push	{r4, lr}
 2675              		.cfi_def_cfa_offset 8
 2676              		.cfi_offset 4, -8
 2677              		.cfi_offset 14, -4
1875:Generated_Source\PSoC5/CyLib.c ****     while(0u != (CyVdStickyStatus(CY_VD_HVIA) & CY_VD_HVIA))
 2678              		.loc 1 1875 0
 2679 0002 064A     		ldr	r2, .L270
 2680 0004 1378     		ldrb	r3, [r2]	@ zero_extendqisi2
 2681 0006 03F0FB03 		and	r3, r3, #251
 2682 000a 1370     		strb	r3, [r2]
1876:Generated_Source\PSoC5/CyLib.c ****     {
 2683              		.loc 1 1876 0
 2684 000c 0424     		movs	r4, #4
 2685              	.L267:
1876:Generated_Source\PSoC5/CyLib.c ****     {
 2686              		.loc 1 1876 0 is_stmt 0 discriminator 1
 2687 000e 2046     		mov	r0, r4
 2688 0010 FFF7FEFF 		bl	CyVdStickyStatus
 2689              	.LVL152:
 2690 0014 10F0040F 		tst	r0, #4
 2691 0018 F9D1     		bne	.L267
1880:Generated_Source\PSoC5/CyLib.c **** 
 2692              		.loc 1 1880 0 is_stmt 1
 2693 001a 10BD     		pop	{r4, pc}
 2694              	.L271:
 2695              		.align	2
 2696              	.L270:
 2697 001c F5460040 		.word	1073759989
 2698              		.cfi_endproc
 2699              	.LFE51:
 2700              		.size	CyVdHvAnalogDisable, .-CyVdHvAnalogDisable
 2701              		.section	.text.CyVdRealTimeStatus,"ax",%progbits
 2702              		.align	2
 2703              		.global	CyVdRealTimeStatus
 2704              		.thumb
 2705              		.thumb_func
 2706              		.type	CyVdRealTimeStatus, %function
 2707              	CyVdRealTimeStatus:
 2708              	.LFB53:
1925:Generated_Source\PSoC5/CyLib.c **** 
1926:Generated_Source\PSoC5/CyLib.c **** 
ARM GAS  C:\Users\ingan\AppData\Local\Temp\ccwaQbAc.s 			page 86


1927:Generated_Source\PSoC5/CyLib.c **** /*******************************************************************************
1928:Generated_Source\PSoC5/CyLib.c **** * Function Name: CyVdRealTimeStatus
1929:Generated_Source\PSoC5/CyLib.c **** ****************************************************************************//**
1930:Generated_Source\PSoC5/CyLib.c **** *
1931:Generated_Source\PSoC5/CyLib.c **** *  Reads the real-time voltage detection status bits in the RESET_SR2 register.
1932:Generated_Source\PSoC5/CyLib.c **** *  The bits are set to 1 by the voltage monitor circuit when the supply is
1933:Generated_Source\PSoC5/CyLib.c **** *  outside the detectors trip point, and set to 0 when the supply is inside the
1934:Generated_Source\PSoC5/CyLib.c **** *  trip point.
1935:Generated_Source\PSoC5/CyLib.c **** *
1936:Generated_Source\PSoC5/CyLib.c **** * \return
1937:Generated_Source\PSoC5/CyLib.c **** *  Status of the LVID, LVIA, and HVIA bits in the RESET_SR2 register.
1938:Generated_Source\PSoC5/CyLib.c **** *   Define                  Definition
1939:Generated_Source\PSoC5/CyLib.c **** *   CY_VD_LVID            Real-time status of digital LVI.
1940:Generated_Source\PSoC5/CyLib.c **** *   CY_VD_LVIA            Real-time status of analog LVI.
1941:Generated_Source\PSoC5/CyLib.c **** *   CY_VD_HVIA            Real-time status of analog HVI.
1942:Generated_Source\PSoC5/CyLib.c **** *
1943:Generated_Source\PSoC5/CyLib.c **** * Side Effects and Restrictions:
1944:Generated_Source\PSoC5/CyLib.c **** *  When an LVI reset occurs, the RESET_SR2 status registers are cleared. This
1945:Generated_Source\PSoC5/CyLib.c **** *  means that the voltage detection status bits are not persistent across an LVI
1946:Generated_Source\PSoC5/CyLib.c **** *  reset and cannot be used to determine a reset source.
1947:Generated_Source\PSoC5/CyLib.c **** *
1948:Generated_Source\PSoC5/CyLib.c **** *******************************************************************************/
1949:Generated_Source\PSoC5/CyLib.c **** uint8 CyVdRealTimeStatus(void) 
1950:Generated_Source\PSoC5/CyLib.c **** {
 2709              		.loc 1 1950 0
 2710              		.cfi_startproc
 2711              		@ args = 0, pretend = 0, frame = 0
 2712              		@ frame_needed = 0, uses_anonymous_args = 0
 2713 0000 10B5     		push	{r4, lr}
 2714              		.cfi_def_cfa_offset 8
 2715              		.cfi_offset 4, -8
 2716              		.cfi_offset 14, -4
1951:Generated_Source\PSoC5/CyLib.c ****     uint8 interruptState;
1952:Generated_Source\PSoC5/CyLib.c ****     uint8 vdFlagsState;
1953:Generated_Source\PSoC5/CyLib.c **** 
1954:Generated_Source\PSoC5/CyLib.c ****     interruptState = CyEnterCriticalSection();
 2717              		.loc 1 1954 0
 2718 0002 FFF7FEFF 		bl	CyEnterCriticalSection
 2719              	.LVL153:
1955:Generated_Source\PSoC5/CyLib.c ****     vdFlagsState = CY_VD_RT_STATUS_REG & (CY_VD_LVID | CY_VD_LVIA | CY_VD_HVIA);
 2720              		.loc 1 1955 0
 2721 0006 044B     		ldr	r3, .L274
 2722 0008 1C78     		ldrb	r4, [r3]	@ zero_extendqisi2
 2723 000a E4B2     		uxtb	r4, r4
 2724              	.LVL154:
1956:Generated_Source\PSoC5/CyLib.c ****     CyExitCriticalSection(interruptState);
 2725              		.loc 1 1956 0
 2726 000c FFF7FEFF 		bl	CyExitCriticalSection
 2727              	.LVL155:
1957:Generated_Source\PSoC5/CyLib.c **** 
1958:Generated_Source\PSoC5/CyLib.c ****     return(vdFlagsState);
1959:Generated_Source\PSoC5/CyLib.c **** }
 2728              		.loc 1 1959 0
 2729 0010 04F00700 		and	r0, r4, #7
 2730 0014 10BD     		pop	{r4, pc}
 2731              	.LVL156:
 2732              	.L275:
ARM GAS  C:\Users\ingan\AppData\Local\Temp\ccwaQbAc.s 			page 87


 2733 0016 00BF     		.align	2
 2734              	.L274:
 2735 0018 FC460040 		.word	1073759996
 2736              		.cfi_endproc
 2737              	.LFE53:
 2738              		.size	CyVdRealTimeStatus, .-CyVdRealTimeStatus
 2739              		.section	.text.CyDisableInts,"ax",%progbits
 2740              		.align	2
 2741              		.global	CyDisableInts
 2742              		.thumb
 2743              		.thumb_func
 2744              		.type	CyDisableInts, %function
 2745              	CyDisableInts:
 2746              	.LFB54:
1960:Generated_Source\PSoC5/CyLib.c **** 
1961:Generated_Source\PSoC5/CyLib.c **** 
1962:Generated_Source\PSoC5/CyLib.c **** /*******************************************************************************
1963:Generated_Source\PSoC5/CyLib.c **** * Function Name: CyDisableInts
1964:Generated_Source\PSoC5/CyLib.c **** ****************************************************************************//**
1965:Generated_Source\PSoC5/CyLib.c **** *
1966:Generated_Source\PSoC5/CyLib.c **** *  Disables the interrupt enable for each interrupt.
1967:Generated_Source\PSoC5/CyLib.c **** *
1968:Generated_Source\PSoC5/CyLib.c **** * \return
1969:Generated_Source\PSoC5/CyLib.c **** *  32 bit mask of previously enabled interrupts.
1970:Generated_Source\PSoC5/CyLib.c **** *
1971:Generated_Source\PSoC5/CyLib.c **** *******************************************************************************/
1972:Generated_Source\PSoC5/CyLib.c **** uint32 CyDisableInts(void) 
1973:Generated_Source\PSoC5/CyLib.c **** {
 2747              		.loc 1 1973 0
 2748              		.cfi_startproc
 2749              		@ args = 0, pretend = 0, frame = 0
 2750              		@ frame_needed = 0, uses_anonymous_args = 0
 2751 0000 10B5     		push	{r4, lr}
 2752              		.cfi_def_cfa_offset 8
 2753              		.cfi_offset 4, -8
 2754              		.cfi_offset 14, -4
1974:Generated_Source\PSoC5/CyLib.c ****     uint32 intState;
1975:Generated_Source\PSoC5/CyLib.c ****     uint8 interruptState;
1976:Generated_Source\PSoC5/CyLib.c **** 
1977:Generated_Source\PSoC5/CyLib.c ****     interruptState = CyEnterCriticalSection();
 2755              		.loc 1 1977 0
 2756 0002 FFF7FEFF 		bl	CyEnterCriticalSection
 2757              	.LVL157:
1978:Generated_Source\PSoC5/CyLib.c **** 
1979:Generated_Source\PSoC5/CyLib.c ****     #if(CY_PSOC3)
1980:Generated_Source\PSoC5/CyLib.c **** 
1981:Generated_Source\PSoC5/CyLib.c ****         /* Get the current interrupt state. */
1982:Generated_Source\PSoC5/CyLib.c ****         intState  = ((uint32) CY_GET_REG8(CY_INT_CLR_EN0_PTR));
1983:Generated_Source\PSoC5/CyLib.c ****         intState |= ((uint32) (((uint32) CY_GET_REG8(CY_INT_CLR_EN1_PTR)) << 8u));
1984:Generated_Source\PSoC5/CyLib.c ****         intState |= ((uint32) (((uint32) CY_GET_REG8(CY_INT_CLR_EN2_PTR)) << 16u));
1985:Generated_Source\PSoC5/CyLib.c ****         intState |= ((uint32) (((uint32) CY_GET_REG8(CY_INT_CLR_EN3_PTR)) << 24u));
1986:Generated_Source\PSoC5/CyLib.c **** 
1987:Generated_Source\PSoC5/CyLib.c **** 
1988:Generated_Source\PSoC5/CyLib.c ****         /* Disable all of the interrupts. */
1989:Generated_Source\PSoC5/CyLib.c ****         CY_SET_REG8(CY_INT_CLR_EN0_PTR, 0xFFu);
1990:Generated_Source\PSoC5/CyLib.c ****         CY_SET_REG8(CY_INT_CLR_EN1_PTR, 0xFFu);
1991:Generated_Source\PSoC5/CyLib.c ****         CY_SET_REG8(CY_INT_CLR_EN2_PTR, 0xFFu);
ARM GAS  C:\Users\ingan\AppData\Local\Temp\ccwaQbAc.s 			page 88


1992:Generated_Source\PSoC5/CyLib.c ****         CY_SET_REG8(CY_INT_CLR_EN3_PTR, 0xFFu);
1993:Generated_Source\PSoC5/CyLib.c **** 
1994:Generated_Source\PSoC5/CyLib.c ****     #else
1995:Generated_Source\PSoC5/CyLib.c **** 
1996:Generated_Source\PSoC5/CyLib.c ****         /* Get the current interrupt state. */
1997:Generated_Source\PSoC5/CyLib.c ****         intState = CY_GET_REG32(CY_INT_CLEAR_PTR);
 2758              		.loc 1 1997 0
 2759 0006 044B     		ldr	r3, .L278
 2760 0008 1C68     		ldr	r4, [r3]
 2761              	.LVL158:
1998:Generated_Source\PSoC5/CyLib.c **** 
1999:Generated_Source\PSoC5/CyLib.c ****         /* Disable all of the interrupts. */
2000:Generated_Source\PSoC5/CyLib.c ****         CY_SET_REG32(CY_INT_CLEAR_PTR, 0xFFFFFFFFu);
 2762              		.loc 1 2000 0
 2763 000a 4FF0FF32 		mov	r2, #-1
 2764 000e 1A60     		str	r2, [r3]
2001:Generated_Source\PSoC5/CyLib.c **** 
2002:Generated_Source\PSoC5/CyLib.c ****     #endif /* (CY_PSOC3) */
2003:Generated_Source\PSoC5/CyLib.c **** 
2004:Generated_Source\PSoC5/CyLib.c ****     CyExitCriticalSection(interruptState);
 2765              		.loc 1 2004 0
 2766 0010 FFF7FEFF 		bl	CyExitCriticalSection
 2767              	.LVL159:
2005:Generated_Source\PSoC5/CyLib.c **** 
2006:Generated_Source\PSoC5/CyLib.c ****     return (intState);
2007:Generated_Source\PSoC5/CyLib.c **** }
 2768              		.loc 1 2007 0
 2769 0014 2046     		mov	r0, r4
 2770 0016 10BD     		pop	{r4, pc}
 2771              	.LVL160:
 2772              	.L279:
 2773              		.align	2
 2774              	.L278:
 2775 0018 80E100E0 		.word	-536813184
 2776              		.cfi_endproc
 2777              	.LFE54:
 2778              		.size	CyDisableInts, .-CyDisableInts
 2779              		.section	.text.CyEnableInts,"ax",%progbits
 2780              		.align	2
 2781              		.global	CyEnableInts
 2782              		.thumb
 2783              		.thumb_func
 2784              		.type	CyEnableInts, %function
 2785              	CyEnableInts:
 2786              	.LFB55:
2008:Generated_Source\PSoC5/CyLib.c **** 
2009:Generated_Source\PSoC5/CyLib.c **** 
2010:Generated_Source\PSoC5/CyLib.c **** /*******************************************************************************
2011:Generated_Source\PSoC5/CyLib.c **** * Function Name: CyEnableInts
2012:Generated_Source\PSoC5/CyLib.c **** ****************************************************************************//**
2013:Generated_Source\PSoC5/CyLib.c **** *
2014:Generated_Source\PSoC5/CyLib.c **** *  Enables interrupts to a given state.
2015:Generated_Source\PSoC5/CyLib.c **** *
2016:Generated_Source\PSoC5/CyLib.c **** *  \param uint32 mask: 32 bit mask of interrupts to enable.
2017:Generated_Source\PSoC5/CyLib.c **** *
2018:Generated_Source\PSoC5/CyLib.c **** *******************************************************************************/
2019:Generated_Source\PSoC5/CyLib.c **** void CyEnableInts(uint32 mask) 
ARM GAS  C:\Users\ingan\AppData\Local\Temp\ccwaQbAc.s 			page 89


2020:Generated_Source\PSoC5/CyLib.c **** {
 2787              		.loc 1 2020 0
 2788              		.cfi_startproc
 2789              		@ args = 0, pretend = 0, frame = 0
 2790              		@ frame_needed = 0, uses_anonymous_args = 0
 2791              	.LVL161:
 2792 0000 10B5     		push	{r4, lr}
 2793              		.cfi_def_cfa_offset 8
 2794              		.cfi_offset 4, -8
 2795              		.cfi_offset 14, -4
 2796 0002 0446     		mov	r4, r0
2021:Generated_Source\PSoC5/CyLib.c **** 
2022:Generated_Source\PSoC5/CyLib.c ****     uint8 interruptState;
2023:Generated_Source\PSoC5/CyLib.c **** 
2024:Generated_Source\PSoC5/CyLib.c ****     interruptState = CyEnterCriticalSection();
 2797              		.loc 1 2024 0
 2798 0004 FFF7FEFF 		bl	CyEnterCriticalSection
 2799              	.LVL162:
2025:Generated_Source\PSoC5/CyLib.c **** 
2026:Generated_Source\PSoC5/CyLib.c ****     #if(CY_PSOC3)
2027:Generated_Source\PSoC5/CyLib.c **** 
2028:Generated_Source\PSoC5/CyLib.c ****         /* Set interrupts as enabled. */
2029:Generated_Source\PSoC5/CyLib.c ****         CY_SET_REG8(CY_INT_SET_EN3_PTR, ((uint8) (mask >> 24u)));
2030:Generated_Source\PSoC5/CyLib.c ****         CY_SET_REG8(CY_INT_SET_EN2_PTR, ((uint8) (mask >> 16u)));
2031:Generated_Source\PSoC5/CyLib.c ****         CY_SET_REG8(CY_INT_SET_EN1_PTR, ((uint8) (mask >> 8u )));
2032:Generated_Source\PSoC5/CyLib.c ****         CY_SET_REG8(CY_INT_SET_EN0_PTR, ((uint8) (mask )));
2033:Generated_Source\PSoC5/CyLib.c **** 
2034:Generated_Source\PSoC5/CyLib.c ****     #else
2035:Generated_Source\PSoC5/CyLib.c **** 
2036:Generated_Source\PSoC5/CyLib.c ****         CY_SET_REG32(CY_INT_ENABLE_PTR, mask);
 2800              		.loc 1 2036 0
 2801 0008 024B     		ldr	r3, .L282
 2802 000a 1C60     		str	r4, [r3]
2037:Generated_Source\PSoC5/CyLib.c **** 
2038:Generated_Source\PSoC5/CyLib.c ****     #endif /* (CY_PSOC3) */
2039:Generated_Source\PSoC5/CyLib.c **** 
2040:Generated_Source\PSoC5/CyLib.c ****     CyExitCriticalSection(interruptState);
 2803              		.loc 1 2040 0
 2804 000c FFF7FEFF 		bl	CyExitCriticalSection
 2805              	.LVL163:
 2806 0010 10BD     		pop	{r4, pc}
 2807              	.LVL164:
 2808              	.L283:
 2809 0012 00BF     		.align	2
 2810              	.L282:
 2811 0014 00E100E0 		.word	-536813312
 2812              		.cfi_endproc
 2813              	.LFE55:
 2814              		.size	CyEnableInts, .-CyEnableInts
 2815              		.section	.text.CyFlushCache,"ax",%progbits
 2816              		.align	2
 2817              		.global	CyFlushCache
 2818              		.thumb
 2819              		.thumb_func
 2820              		.type	CyFlushCache, %function
 2821              	CyFlushCache:
 2822              	.LFB56:
ARM GAS  C:\Users\ingan\AppData\Local\Temp\ccwaQbAc.s 			page 90


2041:Generated_Source\PSoC5/CyLib.c **** 
2042:Generated_Source\PSoC5/CyLib.c **** }
2043:Generated_Source\PSoC5/CyLib.c **** 
2044:Generated_Source\PSoC5/CyLib.c **** #if(CY_PSOC5)
2045:Generated_Source\PSoC5/CyLib.c **** 
2046:Generated_Source\PSoC5/CyLib.c ****     /*******************************************************************************
2047:Generated_Source\PSoC5/CyLib.c ****     * Function Name: CyFlushCache
2048:Generated_Source\PSoC5/CyLib.c ****     ****************************************************************************//**
2049:Generated_Source\PSoC5/CyLib.c ****     *  Call this API after a flash row erase/write operation to invalidate or flush
2050:Generated_Source\PSoC5/CyLib.c ****     *  any of that particular flash region content already present in the cache.
2051:Generated_Source\PSoC5/CyLib.c ****     *  After a cache flush operation, any access to that flash region after the
2052:Generated_Source\PSoC5/CyLib.c ****     *  erase/write operation would reload the cache with the modified data from the
2053:Generated_Source\PSoC5/CyLib.c ****     *  flash region. If the flash region update involves multiple flash row write
2054:Generated_Source\PSoC5/CyLib.c ****     *  operations, then the flushing of the cache can be done once at the end of
2055:Generated_Source\PSoC5/CyLib.c ****     *  the operation as long as the flash data would not be accessed in the middle
2056:Generated_Source\PSoC5/CyLib.c ****     *  of the multiple row update process. Else, flush the cache after every flash
2057:Generated_Source\PSoC5/CyLib.c ****     *  row write.
2058:Generated_Source\PSoC5/CyLib.c ****     *
2059:Generated_Source\PSoC5/CyLib.c ****     *******************************************************************************/
2060:Generated_Source\PSoC5/CyLib.c ****     void CyFlushCache(void)
2061:Generated_Source\PSoC5/CyLib.c ****     {
 2823              		.loc 1 2061 0
 2824              		.cfi_startproc
 2825              		@ args = 0, pretend = 0, frame = 0
 2826              		@ frame_needed = 0, uses_anonymous_args = 0
 2827 0000 08B5     		push	{r3, lr}
 2828              		.cfi_def_cfa_offset 8
 2829              		.cfi_offset 3, -8
 2830              		.cfi_offset 14, -4
2062:Generated_Source\PSoC5/CyLib.c ****         uint8 interruptState;
2063:Generated_Source\PSoC5/CyLib.c **** 
2064:Generated_Source\PSoC5/CyLib.c ****         /* Save current global interrupt enable and disable it */
2065:Generated_Source\PSoC5/CyLib.c ****         interruptState = CyEnterCriticalSection();
 2831              		.loc 1 2065 0
 2832 0002 FFF7FEFF 		bl	CyEnterCriticalSection
 2833              	.LVL165:
2066:Generated_Source\PSoC5/CyLib.c **** 
2067:Generated_Source\PSoC5/CyLib.c ****         /* Fill instruction prefectch unit to insure data integrity */
2068:Generated_Source\PSoC5/CyLib.c ****         CY_NOP;
 2834              		.loc 1 2068 0
 2835              		.syntax unified
 2836              	@ 2068 "Generated_Source\PSoC5\CyLib.c" 1
 2837 0006 00BF     		NOP
 2838              	
 2839              	@ 0 "" 2
2069:Generated_Source\PSoC5/CyLib.c ****         CY_NOP;
 2840              		.loc 1 2069 0
 2841              	@ 2069 "Generated_Source\PSoC5\CyLib.c" 1
 2842 0008 00BF     		NOP
 2843              	
 2844              	@ 0 "" 2
2070:Generated_Source\PSoC5/CyLib.c ****         CY_NOP;
 2845              		.loc 1 2070 0
 2846              	@ 2070 "Generated_Source\PSoC5\CyLib.c" 1
 2847 000a 00BF     		NOP
 2848              	
 2849              	@ 0 "" 2
ARM GAS  C:\Users\ingan\AppData\Local\Temp\ccwaQbAc.s 			page 91


2071:Generated_Source\PSoC5/CyLib.c ****         CY_NOP;
 2850              		.loc 1 2071 0
 2851              	@ 2071 "Generated_Source\PSoC5\CyLib.c" 1
 2852 000c 00BF     		NOP
 2853              	
 2854              	@ 0 "" 2
2072:Generated_Source\PSoC5/CyLib.c ****         CY_NOP;
 2855              		.loc 1 2072 0
 2856              	@ 2072 "Generated_Source\PSoC5\CyLib.c" 1
 2857 000e 00BF     		NOP
 2858              	
 2859              	@ 0 "" 2
2073:Generated_Source\PSoC5/CyLib.c ****         CY_NOP;
 2860              		.loc 1 2073 0
 2861              	@ 2073 "Generated_Source\PSoC5\CyLib.c" 1
 2862 0010 00BF     		NOP
 2863              	
 2864              	@ 0 "" 2
2074:Generated_Source\PSoC5/CyLib.c ****         CY_NOP;
 2865              		.loc 1 2074 0
 2866              	@ 2074 "Generated_Source\PSoC5\CyLib.c" 1
 2867 0012 00BF     		NOP
 2868              	
 2869              	@ 0 "" 2
2075:Generated_Source\PSoC5/CyLib.c ****         CY_NOP;
 2870              		.loc 1 2075 0
 2871              	@ 2075 "Generated_Source\PSoC5\CyLib.c" 1
 2872 0014 00BF     		NOP
 2873              	
 2874              	@ 0 "" 2
2076:Generated_Source\PSoC5/CyLib.c ****         CY_NOP;
 2875              		.loc 1 2076 0
 2876              	@ 2076 "Generated_Source\PSoC5\CyLib.c" 1
 2877 0016 00BF     		NOP
 2878              	
 2879              	@ 0 "" 2
2077:Generated_Source\PSoC5/CyLib.c ****         CY_NOP;
 2880              		.loc 1 2077 0
 2881              	@ 2077 "Generated_Source\PSoC5\CyLib.c" 1
 2882 0018 00BF     		NOP
 2883              	
 2884              	@ 0 "" 2
2078:Generated_Source\PSoC5/CyLib.c ****         CY_NOP;
 2885              		.loc 1 2078 0
 2886              	@ 2078 "Generated_Source\PSoC5\CyLib.c" 1
 2887 001a 00BF     		NOP
 2888              	
 2889              	@ 0 "" 2
2079:Generated_Source\PSoC5/CyLib.c ****         CY_NOP;
 2890              		.loc 1 2079 0
 2891              	@ 2079 "Generated_Source\PSoC5\CyLib.c" 1
 2892 001c 00BF     		NOP
 2893              	
 2894              	@ 0 "" 2
2080:Generated_Source\PSoC5/CyLib.c ****         CY_NOP;
 2895              		.loc 1 2080 0
 2896              	@ 2080 "Generated_Source\PSoC5\CyLib.c" 1
ARM GAS  C:\Users\ingan\AppData\Local\Temp\ccwaQbAc.s 			page 92


 2897 001e 00BF     		NOP
 2898              	
 2899              	@ 0 "" 2
2081:Generated_Source\PSoC5/CyLib.c ****         CY_NOP;
 2900              		.loc 1 2081 0
 2901              	@ 2081 "Generated_Source\PSoC5\CyLib.c" 1
 2902 0020 00BF     		NOP
 2903              	
 2904              	@ 0 "" 2
2082:Generated_Source\PSoC5/CyLib.c ****         CY_NOP;
 2905              		.loc 1 2082 0
 2906              	@ 2082 "Generated_Source\PSoC5\CyLib.c" 1
 2907 0022 00BF     		NOP
 2908              	
 2909              	@ 0 "" 2
2083:Generated_Source\PSoC5/CyLib.c ****         CY_NOP;
 2910              		.loc 1 2083 0
 2911              	@ 2083 "Generated_Source\PSoC5\CyLib.c" 1
 2912 0024 00BF     		NOP
 2913              	
 2914              	@ 0 "" 2
2084:Generated_Source\PSoC5/CyLib.c **** 
2085:Generated_Source\PSoC5/CyLib.c ****         /* All entries in cache are invalidated on next clock cycle. */
2086:Generated_Source\PSoC5/CyLib.c ****         CY_CACHE_CONTROL_REG |= CY_CACHE_CONTROL_FLUSH;
 2915              		.loc 1 2086 0
 2916              		.thumb
 2917              		.syntax unified
 2918 0026 064A     		ldr	r2, .L286
 2919 0028 1388     		ldrh	r3, [r2]
 2920 002a 9BB2     		uxth	r3, r3
 2921 002c 43F00403 		orr	r3, r3, #4
 2922 0030 1380     		strh	r3, [r2]	@ movhi
2087:Generated_Source\PSoC5/CyLib.c **** 
2088:Generated_Source\PSoC5/CyLib.c ****         /* Once this is executed it's guaranteed the cache has been flushed */
2089:Generated_Source\PSoC5/CyLib.c ****         (void) CY_CACHE_CONTROL_REG;
 2923              		.loc 1 2089 0
 2924 0032 1388     		ldrh	r3, [r2]
2090:Generated_Source\PSoC5/CyLib.c **** 
2091:Generated_Source\PSoC5/CyLib.c ****         /* Flush the pipeline */
2092:Generated_Source\PSoC5/CyLib.c ****         CY_SYS_ISB;
 2925              		.loc 1 2092 0
 2926              		.syntax unified
 2927              	@ 2092 "Generated_Source\PSoC5\CyLib.c" 1
 2928 0034 BFF36F8F 		isb 
 2929              	
 2930              	@ 0 "" 2
2093:Generated_Source\PSoC5/CyLib.c **** 
2094:Generated_Source\PSoC5/CyLib.c ****         /* Restore global interrupt enable state */
2095:Generated_Source\PSoC5/CyLib.c ****         CyExitCriticalSection(interruptState);
 2931              		.loc 1 2095 0
 2932              		.thumb
 2933              		.syntax unified
 2934 0038 FFF7FEFF 		bl	CyExitCriticalSection
 2935              	.LVL166:
 2936 003c 08BD     		pop	{r3, pc}
 2937              	.L287:
 2938 003e 00BF     		.align	2
ARM GAS  C:\Users\ingan\AppData\Local\Temp\ccwaQbAc.s 			page 93


 2939              	.L286:
 2940 0040 00480040 		.word	1073760256
 2941              		.cfi_endproc
 2942              	.LFE56:
 2943              		.size	CyFlushCache, .-CyFlushCache
 2944              		.section	.text.CyIntSetSysVector,"ax",%progbits
 2945              		.align	2
 2946              		.global	CyIntSetSysVector
 2947              		.thumb
 2948              		.thumb_func
 2949              		.type	CyIntSetSysVector, %function
 2950              	CyIntSetSysVector:
 2951              	.LFB57:
2096:Generated_Source\PSoC5/CyLib.c ****     }
2097:Generated_Source\PSoC5/CyLib.c **** 
2098:Generated_Source\PSoC5/CyLib.c **** 
2099:Generated_Source\PSoC5/CyLib.c ****     /*******************************************************************************
2100:Generated_Source\PSoC5/CyLib.c ****     * Function Name: CyIntSetSysVector
2101:Generated_Source\PSoC5/CyLib.c ****     ****************************************************************************//**
2102:Generated_Source\PSoC5/CyLib.c ****     *  Sets the interrupt vector of the specified system interrupt number. System
2103:Generated_Source\PSoC5/CyLib.c ****     *  interrupts are present only for the ARM platform. These interrupts are for
2104:Generated_Source\PSoC5/CyLib.c ****     *  SysTick, PendSV and others.
2105:Generated_Source\PSoC5/CyLib.c ****     *
2106:Generated_Source\PSoC5/CyLib.c ****     *  \param number: System interrupt number:
2107:Generated_Source\PSoC5/CyLib.c ****     *    CY_INT_NMI_IRQN                - Non Maskable Interrupt
2108:Generated_Source\PSoC5/CyLib.c ****     *    CY_INT_HARD_FAULT_IRQN         - Hard Fault Interrupt
2109:Generated_Source\PSoC5/CyLib.c ****     *    CY_INT_MEM_MANAGE_IRQN         - Memory Management Interrupt
2110:Generated_Source\PSoC5/CyLib.c ****     *    CY_INT_BUS_FAULT_IRQN          - Bus Fault Interrupt
2111:Generated_Source\PSoC5/CyLib.c ****     *    CY_INT_USAGE_FAULT_IRQN        - Usage Fault Interrupt
2112:Generated_Source\PSoC5/CyLib.c ****     *    CY_INT_SVCALL_IRQN             - SV Call Interrupt
2113:Generated_Source\PSoC5/CyLib.c ****     *    CY_INT_DEBUG_MONITOR_IRQN      - Debug Monitor Interrupt
2114:Generated_Source\PSoC5/CyLib.c ****     *    CY_INT_PEND_SV_IRQN            - Pend SV Interrupt
2115:Generated_Source\PSoC5/CyLib.c ****     *    CY_INT_SYSTICK_IRQN            - System Tick Interrupt
2116:Generated_Source\PSoC5/CyLib.c ****     *
2117:Generated_Source\PSoC5/CyLib.c ****     *  \param address: Pointer to an interrupt service routine.
2118:Generated_Source\PSoC5/CyLib.c ****     *
2119:Generated_Source\PSoC5/CyLib.c ****     * \return
2120:Generated_Source\PSoC5/CyLib.c ****     *   The old ISR vector at this location.
2121:Generated_Source\PSoC5/CyLib.c ****     *
2122:Generated_Source\PSoC5/CyLib.c ****     *******************************************************************************/
2123:Generated_Source\PSoC5/CyLib.c ****     cyisraddress CyIntSetSysVector(uint8 number, cyisraddress address)
2124:Generated_Source\PSoC5/CyLib.c ****     {
 2952              		.loc 1 2124 0
 2953              		.cfi_startproc
 2954              		@ args = 0, pretend = 0, frame = 0
 2955              		@ frame_needed = 0, uses_anonymous_args = 0
 2956              		@ link register save eliminated.
 2957              	.LVL167:
2125:Generated_Source\PSoC5/CyLib.c ****         cyisraddress oldIsr;
2126:Generated_Source\PSoC5/CyLib.c ****         cyisraddress *ramVectorTable = *CY_INT_VECT_TABLE;
2127:Generated_Source\PSoC5/CyLib.c **** 
2128:Generated_Source\PSoC5/CyLib.c ****         CYASSERT(number <= CY_INT_SYS_NUMBER_MAX);
2129:Generated_Source\PSoC5/CyLib.c **** 
2130:Generated_Source\PSoC5/CyLib.c ****         /* Save old Interrupt service routine. */
2131:Generated_Source\PSoC5/CyLib.c ****         oldIsr = ramVectorTable[number & CY_INT_SYS_NUMBER_MASK];
 2958              		.loc 1 2131 0
 2959 0000 00F00F02 		and	r2, r0, #15
ARM GAS  C:\Users\ingan\AppData\Local\Temp\ccwaQbAc.s 			page 94


 2960 0004 034B     		ldr	r3, .L289
 2961              	.LVL168:
 2962 0006 1B68     		ldr	r3, [r3]
 2963              	.LVL169:
 2964 0008 53F82200 		ldr	r0, [r3, r2, lsl #2]
 2965              	.LVL170:
2132:Generated_Source\PSoC5/CyLib.c **** 
2133:Generated_Source\PSoC5/CyLib.c ****         /* Set new Interrupt service routine. */
2134:Generated_Source\PSoC5/CyLib.c ****         ramVectorTable[number & CY_INT_SYS_NUMBER_MASK] = address;
 2966              		.loc 1 2134 0
 2967 000c 43F82210 		str	r1, [r3, r2, lsl #2]
2135:Generated_Source\PSoC5/CyLib.c **** 
2136:Generated_Source\PSoC5/CyLib.c ****         return (oldIsr);
2137:Generated_Source\PSoC5/CyLib.c ****     }
 2968              		.loc 1 2137 0
 2969 0010 7047     		bx	lr
 2970              	.L290:
 2971 0012 00BF     		.align	2
 2972              	.L289:
 2973 0014 08ED00E0 		.word	-536810232
 2974              		.cfi_endproc
 2975              	.LFE57:
 2976              		.size	CyIntSetSysVector, .-CyIntSetSysVector
 2977              		.section	.text.CyIntGetSysVector,"ax",%progbits
 2978              		.align	2
 2979              		.global	CyIntGetSysVector
 2980              		.thumb
 2981              		.thumb_func
 2982              		.type	CyIntGetSysVector, %function
 2983              	CyIntGetSysVector:
 2984              	.LFB58:
2138:Generated_Source\PSoC5/CyLib.c **** 
2139:Generated_Source\PSoC5/CyLib.c **** 
2140:Generated_Source\PSoC5/CyLib.c ****     /*******************************************************************************
2141:Generated_Source\PSoC5/CyLib.c ****     * Function Name: CyIntGetSysVector
2142:Generated_Source\PSoC5/CyLib.c ****     ****************************************************************************//**
2143:Generated_Source\PSoC5/CyLib.c ****     *
2144:Generated_Source\PSoC5/CyLib.c ****     *  Gets the interrupt vector of the specified system interrupt number. System
2145:Generated_Source\PSoC5/CyLib.c ****     *  interrupts are present only for the ARM platform. These interrupts are for
2146:Generated_Source\PSoC5/CyLib.c ****     *  SysTick, PendSV and others.
2147:Generated_Source\PSoC5/CyLib.c ****     *
2148:Generated_Source\PSoC5/CyLib.c ****     *  \param number: System interrupt number:
2149:Generated_Source\PSoC5/CyLib.c ****     *    CY_INT_NMI_IRQN                - Non Maskable Interrupt
2150:Generated_Source\PSoC5/CyLib.c ****     *    CY_INT_HARD_FAULT_IRQN         - Hard Fault Interrupt
2151:Generated_Source\PSoC5/CyLib.c ****     *    CY_INT_MEMORY_MANAGEMENT_IRQN  - Memory Management Interrupt
2152:Generated_Source\PSoC5/CyLib.c ****     *    CY_INT_BUS_FAULT_IRQN          - Bus Fault Interrupt
2153:Generated_Source\PSoC5/CyLib.c ****     *    CY_INT_USAGE_FAULT_IRQN        - Usage Fault Interrupt
2154:Generated_Source\PSoC5/CyLib.c ****     *    CY_INT_SVCALL_IRQN             - SV Call Interrupt
2155:Generated_Source\PSoC5/CyLib.c ****     *    CY_INT_DEBUG_MONITOR_IRQN      - Debug Monitor Interrupt
2156:Generated_Source\PSoC5/CyLib.c ****     *    CY_INT_PEND_SV_IRQN            - Pend SV Interrupt
2157:Generated_Source\PSoC5/CyLib.c ****     *    CY_INT_SYSTICK_IRQN            - System Tick Interrupt
2158:Generated_Source\PSoC5/CyLib.c ****     *
2159:Generated_Source\PSoC5/CyLib.c ****     * \return
2160:Generated_Source\PSoC5/CyLib.c ****     *   Address of the ISR in the interrupt vector table.
2161:Generated_Source\PSoC5/CyLib.c ****     *
2162:Generated_Source\PSoC5/CyLib.c ****     *******************************************************************************/
2163:Generated_Source\PSoC5/CyLib.c ****     cyisraddress CyIntGetSysVector(uint8 number)
ARM GAS  C:\Users\ingan\AppData\Local\Temp\ccwaQbAc.s 			page 95


2164:Generated_Source\PSoC5/CyLib.c ****     {
 2985              		.loc 1 2164 0
 2986              		.cfi_startproc
 2987              		@ args = 0, pretend = 0, frame = 0
 2988              		@ frame_needed = 0, uses_anonymous_args = 0
 2989              		@ link register save eliminated.
 2990              	.LVL171:
2165:Generated_Source\PSoC5/CyLib.c ****         cyisraddress *ramVectorTable = *CY_INT_VECT_TABLE;
2166:Generated_Source\PSoC5/CyLib.c ****         CYASSERT(number <= CY_INT_SYS_NUMBER_MAX);
2167:Generated_Source\PSoC5/CyLib.c **** 
2168:Generated_Source\PSoC5/CyLib.c ****         return ramVectorTable[number & CY_INT_SYS_NUMBER_MASK];
 2991              		.loc 1 2168 0
 2992 0000 00F00F00 		and	r0, r0, #15
 2993              	.LVL172:
 2994 0004 024B     		ldr	r3, .L292
 2995              	.LVL173:
 2996 0006 1B68     		ldr	r3, [r3]
 2997              	.LVL174:
2169:Generated_Source\PSoC5/CyLib.c ****     }
 2998              		.loc 1 2169 0
 2999 0008 53F82000 		ldr	r0, [r3, r0, lsl #2]
 3000 000c 7047     		bx	lr
 3001              	.L293:
 3002 000e 00BF     		.align	2
 3003              	.L292:
 3004 0010 08ED00E0 		.word	-536810232
 3005              		.cfi_endproc
 3006              	.LFE58:
 3007              		.size	CyIntGetSysVector, .-CyIntGetSysVector
 3008              		.section	.text.CyIntSetVector,"ax",%progbits
 3009              		.align	2
 3010              		.global	CyIntSetVector
 3011              		.thumb
 3012              		.thumb_func
 3013              		.type	CyIntSetVector, %function
 3014              	CyIntSetVector:
 3015              	.LFB59:
2170:Generated_Source\PSoC5/CyLib.c **** 
2171:Generated_Source\PSoC5/CyLib.c **** 
2172:Generated_Source\PSoC5/CyLib.c ****     /*******************************************************************************
2173:Generated_Source\PSoC5/CyLib.c ****     * Function Name: CyIntSetVector
2174:Generated_Source\PSoC5/CyLib.c ****     ****************************************************************************//**
2175:Generated_Source\PSoC5/CyLib.c ****     *
2176:Generated_Source\PSoC5/CyLib.c ****     *  Sets the interrupt vector of the specified interrupt number.
2177:Generated_Source\PSoC5/CyLib.c ****     *
2178:Generated_Source\PSoC5/CyLib.c ****     *  \param number: Valid range [0-31].  Interrupt number
2179:Generated_Source\PSoC5/CyLib.c ****     *  \param address: Pointer to an interrupt service routine
2180:Generated_Source\PSoC5/CyLib.c ****     *
2181:Generated_Source\PSoC5/CyLib.c ****     * \return
2182:Generated_Source\PSoC5/CyLib.c ****     *   Previous interrupt vector value.
2183:Generated_Source\PSoC5/CyLib.c ****     *
2184:Generated_Source\PSoC5/CyLib.c ****     *******************************************************************************/
2185:Generated_Source\PSoC5/CyLib.c ****     cyisraddress CyIntSetVector(uint8 number, cyisraddress address)
2186:Generated_Source\PSoC5/CyLib.c ****     {
 3016              		.loc 1 2186 0
 3017              		.cfi_startproc
 3018              		@ args = 0, pretend = 0, frame = 0
ARM GAS  C:\Users\ingan\AppData\Local\Temp\ccwaQbAc.s 			page 96


 3019              		@ frame_needed = 0, uses_anonymous_args = 0
 3020              		@ link register save eliminated.
 3021              	.LVL175:
2187:Generated_Source\PSoC5/CyLib.c ****         cyisraddress oldIsr;
2188:Generated_Source\PSoC5/CyLib.c ****         cyisraddress *ramVectorTable = *CY_INT_VECT_TABLE;
2189:Generated_Source\PSoC5/CyLib.c **** 
2190:Generated_Source\PSoC5/CyLib.c ****         CYASSERT(number <= CY_INT_NUMBER_MAX);
2191:Generated_Source\PSoC5/CyLib.c **** 
2192:Generated_Source\PSoC5/CyLib.c ****         /* Save old Interrupt service routine. */
2193:Generated_Source\PSoC5/CyLib.c ****         oldIsr = ramVectorTable[CY_INT_IRQ_BASE + (number & CY_INT_NUMBER_MASK)];
 3022              		.loc 1 2193 0
 3023 0000 00F01F00 		and	r0, r0, #31
 3024              	.LVL176:
 3025 0004 00F11003 		add	r3, r0, #16
 3026 0008 034A     		ldr	r2, .L295
 3027              	.LVL177:
 3028 000a 1268     		ldr	r2, [r2]
 3029              	.LVL178:
 3030 000c 52F82300 		ldr	r0, [r2, r3, lsl #2]
 3031              	.LVL179:
2194:Generated_Source\PSoC5/CyLib.c **** 
2195:Generated_Source\PSoC5/CyLib.c ****         /* Set new Interrupt service routine. */
2196:Generated_Source\PSoC5/CyLib.c ****         ramVectorTable[CY_INT_IRQ_BASE + (number & CY_INT_NUMBER_MASK)] = address;
 3032              		.loc 1 2196 0
 3033 0010 42F82310 		str	r1, [r2, r3, lsl #2]
2197:Generated_Source\PSoC5/CyLib.c **** 
2198:Generated_Source\PSoC5/CyLib.c ****         return (oldIsr);
2199:Generated_Source\PSoC5/CyLib.c ****     }
 3034              		.loc 1 2199 0
 3035 0014 7047     		bx	lr
 3036              	.L296:
 3037 0016 00BF     		.align	2
 3038              	.L295:
 3039 0018 08ED00E0 		.word	-536810232
 3040              		.cfi_endproc
 3041              	.LFE59:
 3042              		.size	CyIntSetVector, .-CyIntSetVector
 3043              		.section	.text.CyIntGetVector,"ax",%progbits
 3044              		.align	2
 3045              		.global	CyIntGetVector
 3046              		.thumb
 3047              		.thumb_func
 3048              		.type	CyIntGetVector, %function
 3049              	CyIntGetVector:
 3050              	.LFB60:
2200:Generated_Source\PSoC5/CyLib.c **** 
2201:Generated_Source\PSoC5/CyLib.c **** 
2202:Generated_Source\PSoC5/CyLib.c ****     /*******************************************************************************
2203:Generated_Source\PSoC5/CyLib.c ****     * Function Name: CyIntGetVector
2204:Generated_Source\PSoC5/CyLib.c ****     ****************************************************************************//**
2205:Generated_Source\PSoC5/CyLib.c ****     *
2206:Generated_Source\PSoC5/CyLib.c ****     *  Gets the interrupt vector of the specified interrupt number.
2207:Generated_Source\PSoC5/CyLib.c ****     *
2208:Generated_Source\PSoC5/CyLib.c ****     *  \param number: Valid range [0-31].  Interrupt number
2209:Generated_Source\PSoC5/CyLib.c ****     *
2210:Generated_Source\PSoC5/CyLib.c ****     * \return
2211:Generated_Source\PSoC5/CyLib.c ****     *  The address of the ISR in the interrupt vector table.
ARM GAS  C:\Users\ingan\AppData\Local\Temp\ccwaQbAc.s 			page 97


2212:Generated_Source\PSoC5/CyLib.c ****     *
2213:Generated_Source\PSoC5/CyLib.c ****     *******************************************************************************/
2214:Generated_Source\PSoC5/CyLib.c ****     cyisraddress CyIntGetVector(uint8 number)
2215:Generated_Source\PSoC5/CyLib.c ****     {
 3051              		.loc 1 2215 0
 3052              		.cfi_startproc
 3053              		@ args = 0, pretend = 0, frame = 0
 3054              		@ frame_needed = 0, uses_anonymous_args = 0
 3055              		@ link register save eliminated.
 3056              	.LVL180:
2216:Generated_Source\PSoC5/CyLib.c ****         cyisraddress *ramVectorTable = *CY_INT_VECT_TABLE;
2217:Generated_Source\PSoC5/CyLib.c ****         CYASSERT(number <= CY_INT_NUMBER_MAX);
2218:Generated_Source\PSoC5/CyLib.c **** 
2219:Generated_Source\PSoC5/CyLib.c ****         return (ramVectorTable[CY_INT_IRQ_BASE + (number & CY_INT_NUMBER_MASK)]);
 3057              		.loc 1 2219 0
 3058 0000 00F01F00 		and	r0, r0, #31
 3059              	.LVL181:
 3060 0004 1030     		adds	r0, r0, #16
 3061 0006 024B     		ldr	r3, .L298
 3062              	.LVL182:
 3063 0008 1B68     		ldr	r3, [r3]
 3064              	.LVL183:
2220:Generated_Source\PSoC5/CyLib.c ****     }
 3065              		.loc 1 2220 0
 3066 000a 53F82000 		ldr	r0, [r3, r0, lsl #2]
 3067 000e 7047     		bx	lr
 3068              	.L299:
 3069              		.align	2
 3070              	.L298:
 3071 0010 08ED00E0 		.word	-536810232
 3072              		.cfi_endproc
 3073              	.LFE60:
 3074              		.size	CyIntGetVector, .-CyIntGetVector
 3075              		.section	.text.CyIntSetPriority,"ax",%progbits
 3076              		.align	2
 3077              		.global	CyIntSetPriority
 3078              		.thumb
 3079              		.thumb_func
 3080              		.type	CyIntSetPriority, %function
 3081              	CyIntSetPriority:
 3082              	.LFB61:
2221:Generated_Source\PSoC5/CyLib.c **** 
2222:Generated_Source\PSoC5/CyLib.c **** 
2223:Generated_Source\PSoC5/CyLib.c ****     /*******************************************************************************
2224:Generated_Source\PSoC5/CyLib.c ****     * Function Name: CyIntSetPriority
2225:Generated_Source\PSoC5/CyLib.c ****     ****************************************************************************//**
2226:Generated_Source\PSoC5/CyLib.c ****     *
2227:Generated_Source\PSoC5/CyLib.c ****     *  Sets the Priority of the Interrupt.
2228:Generated_Source\PSoC5/CyLib.c ****     *
2229:Generated_Source\PSoC5/CyLib.c ****     *  \param priority: Priority of the interrupt. 0 - 7, 0 being the highest.
2230:Generated_Source\PSoC5/CyLib.c ****     *  \param number: The number of the interrupt, 0 - 31.
2231:Generated_Source\PSoC5/CyLib.c ****     *
2232:Generated_Source\PSoC5/CyLib.c ****     *******************************************************************************/
2233:Generated_Source\PSoC5/CyLib.c ****     void CyIntSetPriority(uint8 number, uint8 priority)
2234:Generated_Source\PSoC5/CyLib.c ****     {
 3083              		.loc 1 2234 0
 3084              		.cfi_startproc
ARM GAS  C:\Users\ingan\AppData\Local\Temp\ccwaQbAc.s 			page 98


 3085              		@ args = 0, pretend = 0, frame = 0
 3086              		@ frame_needed = 0, uses_anonymous_args = 0
 3087              		@ link register save eliminated.
 3088              	.LVL184:
2235:Generated_Source\PSoC5/CyLib.c ****         CYASSERT(priority <= CY_INT_PRIORITY_MAX);
2236:Generated_Source\PSoC5/CyLib.c ****         CYASSERT(number <= CY_INT_NUMBER_MAX);
2237:Generated_Source\PSoC5/CyLib.c ****         CY_INT_PRIORITY_PTR[number & CY_INT_NUMBER_MASK] = (priority & CY_INT_PRIORITY_MASK)<< 5;
 3089              		.loc 1 2237 0
 3090 0000 00F01F00 		and	r0, r0, #31
 3091              	.LVL185:
 3092 0004 00F16040 		add	r0, r0, #-536870912
 3093 0008 00F56440 		add	r0, r0, #58368
 3094 000c 4901     		lsls	r1, r1, #5
 3095              	.LVL186:
 3096 000e C9B2     		uxtb	r1, r1
 3097 0010 0170     		strb	r1, [r0]
 3098 0012 7047     		bx	lr
 3099              		.cfi_endproc
 3100              	.LFE61:
 3101              		.size	CyIntSetPriority, .-CyIntSetPriority
 3102              		.section	.text.CyIntGetPriority,"ax",%progbits
 3103              		.align	2
 3104              		.global	CyIntGetPriority
 3105              		.thumb
 3106              		.thumb_func
 3107              		.type	CyIntGetPriority, %function
 3108              	CyIntGetPriority:
 3109              	.LFB62:
2238:Generated_Source\PSoC5/CyLib.c ****     }
2239:Generated_Source\PSoC5/CyLib.c **** 
2240:Generated_Source\PSoC5/CyLib.c **** 
2241:Generated_Source\PSoC5/CyLib.c ****     /*******************************************************************************
2242:Generated_Source\PSoC5/CyLib.c ****     * Function Name: CyIntGetPriority
2243:Generated_Source\PSoC5/CyLib.c ****     ****************************************************************************//**
2244:Generated_Source\PSoC5/CyLib.c ****     *
2245:Generated_Source\PSoC5/CyLib.c ****     *  Gets the Priority of the Interrupt.
2246:Generated_Source\PSoC5/CyLib.c ****     *
2247:Generated_Source\PSoC5/CyLib.c ****     *  \param number: The number of the interrupt, 0 - 31.
2248:Generated_Source\PSoC5/CyLib.c ****     *
2249:Generated_Source\PSoC5/CyLib.c ****     * \return
2250:Generated_Source\PSoC5/CyLib.c ****     *  Priority of the interrupt. 0 - 7, 0 being the highest.
2251:Generated_Source\PSoC5/CyLib.c ****     *
2252:Generated_Source\PSoC5/CyLib.c ****     *******************************************************************************/
2253:Generated_Source\PSoC5/CyLib.c ****     uint8 CyIntGetPriority(uint8 number)
2254:Generated_Source\PSoC5/CyLib.c ****     {
 3110              		.loc 1 2254 0
 3111              		.cfi_startproc
 3112              		@ args = 0, pretend = 0, frame = 0
 3113              		@ frame_needed = 0, uses_anonymous_args = 0
 3114              		@ link register save eliminated.
 3115              	.LVL187:
2255:Generated_Source\PSoC5/CyLib.c ****         uint8 priority;
2256:Generated_Source\PSoC5/CyLib.c **** 
2257:Generated_Source\PSoC5/CyLib.c ****         CYASSERT(number <= CY_INT_NUMBER_MAX);
2258:Generated_Source\PSoC5/CyLib.c **** 
2259:Generated_Source\PSoC5/CyLib.c ****         priority = CY_INT_PRIORITY_PTR[number & CY_INT_NUMBER_MASK] >> 5;
 3116              		.loc 1 2259 0
ARM GAS  C:\Users\ingan\AppData\Local\Temp\ccwaQbAc.s 			page 99


 3117 0000 00F01F00 		and	r0, r0, #31
 3118              	.LVL188:
 3119 0004 00F16040 		add	r0, r0, #-536870912
 3120 0008 00F56440 		add	r0, r0, #58368
 3121 000c 0078     		ldrb	r0, [r0]	@ zero_extendqisi2
 3122              	.LVL189:
2260:Generated_Source\PSoC5/CyLib.c **** 
2261:Generated_Source\PSoC5/CyLib.c ****         return (priority);
2262:Generated_Source\PSoC5/CyLib.c ****     }
 3123              		.loc 1 2262 0
 3124 000e 4009     		lsrs	r0, r0, #5
 3125              	.LVL190:
 3126 0010 7047     		bx	lr
 3127              		.cfi_endproc
 3128              	.LFE62:
 3129              		.size	CyIntGetPriority, .-CyIntGetPriority
 3130 0012 00BF     		.section	.text.CyIntGetState,"ax",%progbits
 3131              		.align	2
 3132              		.global	CyIntGetState
 3133              		.thumb
 3134              		.thumb_func
 3135              		.type	CyIntGetState, %function
 3136              	CyIntGetState:
 3137              	.LFB63:
2263:Generated_Source\PSoC5/CyLib.c **** 
2264:Generated_Source\PSoC5/CyLib.c **** 
2265:Generated_Source\PSoC5/CyLib.c ****     /*******************************************************************************
2266:Generated_Source\PSoC5/CyLib.c ****     * Function Name: CyIntGetState
2267:Generated_Source\PSoC5/CyLib.c ****     ****************************************************************************//**
2268:Generated_Source\PSoC5/CyLib.c ****     *
2269:Generated_Source\PSoC5/CyLib.c ****     *   Gets the enable state of the specified interrupt number.
2270:Generated_Source\PSoC5/CyLib.c ****     *
2271:Generated_Source\PSoC5/CyLib.c ****     *   \param number: Valid range [0-31].  Interrupt number.
2272:Generated_Source\PSoC5/CyLib.c ****     *
2273:Generated_Source\PSoC5/CyLib.c ****     * \return
2274:Generated_Source\PSoC5/CyLib.c ****     *   Enable status: 1 if enabled, 0 if disabled
2275:Generated_Source\PSoC5/CyLib.c ****     *
2276:Generated_Source\PSoC5/CyLib.c ****     *******************************************************************************/
2277:Generated_Source\PSoC5/CyLib.c ****     uint8 CyIntGetState(uint8 number)
2278:Generated_Source\PSoC5/CyLib.c ****     {
 3138              		.loc 1 2278 0
 3139              		.cfi_startproc
 3140              		@ args = 0, pretend = 0, frame = 0
 3141              		@ frame_needed = 0, uses_anonymous_args = 0
 3142              		@ link register save eliminated.
 3143              	.LVL191:
2279:Generated_Source\PSoC5/CyLib.c ****         reg32 * stateReg;
2280:Generated_Source\PSoC5/CyLib.c **** 
2281:Generated_Source\PSoC5/CyLib.c ****         CYASSERT(number <= CY_INT_NUMBER_MAX);
2282:Generated_Source\PSoC5/CyLib.c **** 
2283:Generated_Source\PSoC5/CyLib.c ****         /* Get pointer to Interrupt enable register. */
2284:Generated_Source\PSoC5/CyLib.c ****         stateReg = CY_INT_ENABLE_PTR;
2285:Generated_Source\PSoC5/CyLib.c **** 
2286:Generated_Source\PSoC5/CyLib.c ****         /* Get state of interrupt. */
2287:Generated_Source\PSoC5/CyLib.c ****         return (0u != (*stateReg & (((uint32) 1u) << (0x1Fu & number)))) ? ((uint8)(1u)) : ((uint8)
 3144              		.loc 1 2287 0
 3145 0000 044B     		ldr	r3, .L303
ARM GAS  C:\Users\ingan\AppData\Local\Temp\ccwaQbAc.s 			page 100


 3146 0002 1B68     		ldr	r3, [r3]
 3147 0004 00F01F00 		and	r0, r0, #31
 3148              	.LVL192:
 3149 0008 23FA00F0 		lsr	r0, r3, r0
2288:Generated_Source\PSoC5/CyLib.c ****     }
 3150              		.loc 1 2288 0
 3151 000c 00F00100 		and	r0, r0, #1
 3152 0010 7047     		bx	lr
 3153              	.L304:
 3154 0012 00BF     		.align	2
 3155              	.L303:
 3156 0014 00E100E0 		.word	-536813312
 3157              		.cfi_endproc
 3158              	.LFE63:
 3159              		.size	CyIntGetState, .-CyIntGetState
 3160              		.section	.text.CySysTickStop,"ax",%progbits
 3161              		.align	2
 3162              		.global	CySysTickStop
 3163              		.thumb
 3164              		.thumb_func
 3165              		.type	CySysTickStop, %function
 3166              	CySysTickStop:
 3167              	.LFB67:
2289:Generated_Source\PSoC5/CyLib.c **** 
2290:Generated_Source\PSoC5/CyLib.c **** 
2291:Generated_Source\PSoC5/CyLib.c **** #else   /* PSoC3 */
2292:Generated_Source\PSoC5/CyLib.c **** 
2293:Generated_Source\PSoC5/CyLib.c ****     /*******************************************************************************
2294:Generated_Source\PSoC5/CyLib.c ****     * Function Name: IntDefaultHandler
2295:Generated_Source\PSoC5/CyLib.c ****     ****************************************************************************//**
2296:Generated_Source\PSoC5/CyLib.c ****     *
2297:Generated_Source\PSoC5/CyLib.c ****     *  This function is called for all interrupts, other than a reset that gets
2298:Generated_Source\PSoC5/CyLib.c ****     *  called before the system is setup.
2299:Generated_Source\PSoC5/CyLib.c ****     *
2300:Generated_Source\PSoC5/CyLib.c ****     * Theory:
2301:Generated_Source\PSoC5/CyLib.c ****     *  Any value other than zero is acceptable.
2302:Generated_Source\PSoC5/CyLib.c ****     *
2303:Generated_Source\PSoC5/CyLib.c ****     *******************************************************************************/
2304:Generated_Source\PSoC5/CyLib.c ****     CY_ISR(IntDefaultHandler)
2305:Generated_Source\PSoC5/CyLib.c ****     {
2306:Generated_Source\PSoC5/CyLib.c ****         #ifdef CY_BOOT_INT_DEFAULT_HANDLER_EXCEPTION_ENTRY_CALLBACK
2307:Generated_Source\PSoC5/CyLib.c ****             CyBoot_IntDefaultHandler_Exception_EntryCallback();
2308:Generated_Source\PSoC5/CyLib.c ****         #endif /* CY_BOOT_INT_DEFAULT_HANDLER_EXCEPTION_ENTRY_CALLBACK */
2309:Generated_Source\PSoC5/CyLib.c **** 
2310:Generated_Source\PSoC5/CyLib.c ****         while(1)
2311:Generated_Source\PSoC5/CyLib.c ****         {
2312:Generated_Source\PSoC5/CyLib.c ****             /***********************************************************************
2313:Generated_Source\PSoC5/CyLib.c ****             * We must not get here. If we do, a serious problem occurs, so go
2314:Generated_Source\PSoC5/CyLib.c ****             * into an infinite loop.
2315:Generated_Source\PSoC5/CyLib.c ****             ***********************************************************************/
2316:Generated_Source\PSoC5/CyLib.c ****         }
2317:Generated_Source\PSoC5/CyLib.c ****     }
2318:Generated_Source\PSoC5/CyLib.c **** 
2319:Generated_Source\PSoC5/CyLib.c **** 
2320:Generated_Source\PSoC5/CyLib.c ****     /*******************************************************************************
2321:Generated_Source\PSoC5/CyLib.c ****     * Function Name: IntDefaultHandler
2322:Generated_Source\PSoC5/CyLib.c ****     ****************************************************************************//**
ARM GAS  C:\Users\ingan\AppData\Local\Temp\ccwaQbAc.s 			page 101


2323:Generated_Source\PSoC5/CyLib.c ****     *
2324:Generated_Source\PSoC5/CyLib.c ****     *  This function is called during startup to initialize interrupt address vector
2325:Generated_Source\PSoC5/CyLib.c ****     *  registers with the address of the IntDefaultHandler().
2326:Generated_Source\PSoC5/CyLib.c ****     *
2327:Generated_Source\PSoC5/CyLib.c ****     *******************************************************************************/
2328:Generated_Source\PSoC5/CyLib.c ****     void CyIntInitVectors(void) 
2329:Generated_Source\PSoC5/CyLib.c ****     {
2330:Generated_Source\PSoC5/CyLib.c ****         uint8 i;
2331:Generated_Source\PSoC5/CyLib.c **** 
2332:Generated_Source\PSoC5/CyLib.c ****         for (i = 0; i <= CY_INT_NUMBER_MAX; i++)
2333:Generated_Source\PSoC5/CyLib.c ****         {
2334:Generated_Source\PSoC5/CyLib.c ****             CY_SET_REG16(&CY_INT_VECT_TABLE[i], (uint16) &IntDefaultHandler);
2335:Generated_Source\PSoC5/CyLib.c ****         }
2336:Generated_Source\PSoC5/CyLib.c ****     }
2337:Generated_Source\PSoC5/CyLib.c **** 
2338:Generated_Source\PSoC5/CyLib.c **** 
2339:Generated_Source\PSoC5/CyLib.c ****     /*******************************************************************************
2340:Generated_Source\PSoC5/CyLib.c ****     * Function Name: CyIntSetVector
2341:Generated_Source\PSoC5/CyLib.c ****     ****************************************************************************//**
2342:Generated_Source\PSoC5/CyLib.c ****     *
2343:Generated_Source\PSoC5/CyLib.c ****     *  Sets the interrupt vector of the specified interrupt number.
2344:Generated_Source\PSoC5/CyLib.c ****     *
2345:Generated_Source\PSoC5/CyLib.c ****     *  \param number:  Valid range [0-31].  Interrupt number
2346:Generated_Source\PSoC5/CyLib.c ****     *  \param address: Pointer to an interrupt service routine
2347:Generated_Source\PSoC5/CyLib.c ****     *
2348:Generated_Source\PSoC5/CyLib.c ****     * \return
2349:Generated_Source\PSoC5/CyLib.c ****     *  Previous interrupt vector value.
2350:Generated_Source\PSoC5/CyLib.c ****     *
2351:Generated_Source\PSoC5/CyLib.c ****     *******************************************************************************/
2352:Generated_Source\PSoC5/CyLib.c ****     cyisraddress CyIntSetVector(uint8 number, cyisraddress address) 
2353:Generated_Source\PSoC5/CyLib.c ****     {
2354:Generated_Source\PSoC5/CyLib.c ****         cyisraddress oldIsr;
2355:Generated_Source\PSoC5/CyLib.c **** 
2356:Generated_Source\PSoC5/CyLib.c ****         CYASSERT(number <= CY_INT_NUMBER_MAX);
2357:Generated_Source\PSoC5/CyLib.c **** 
2358:Generated_Source\PSoC5/CyLib.c ****         /* Save old Interrupt service routine. */
2359:Generated_Source\PSoC5/CyLib.c ****         oldIsr = (cyisraddress) \
2360:Generated_Source\PSoC5/CyLib.c ****                     CY_GET_REG16(&CY_INT_VECT_TABLE[number & CY_INT_NUMBER_MASK]);
2361:Generated_Source\PSoC5/CyLib.c **** 
2362:Generated_Source\PSoC5/CyLib.c ****         /* Set new Interrupt service routine. */
2363:Generated_Source\PSoC5/CyLib.c ****         CY_SET_REG16(&CY_INT_VECT_TABLE[number], (uint16) address);
2364:Generated_Source\PSoC5/CyLib.c **** 
2365:Generated_Source\PSoC5/CyLib.c ****         return (oldIsr);
2366:Generated_Source\PSoC5/CyLib.c ****     }
2367:Generated_Source\PSoC5/CyLib.c **** 
2368:Generated_Source\PSoC5/CyLib.c **** 
2369:Generated_Source\PSoC5/CyLib.c ****     /*******************************************************************************
2370:Generated_Source\PSoC5/CyLib.c ****     * Function Name: CyIntGetVector
2371:Generated_Source\PSoC5/CyLib.c ****     ****************************************************************************//**
2372:Generated_Source\PSoC5/CyLib.c ****     *
2373:Generated_Source\PSoC5/CyLib.c ****     *  Gets the interrupt vector of the specified interrupt number.
2374:Generated_Source\PSoC5/CyLib.c ****     *
2375:Generated_Source\PSoC5/CyLib.c ****     *  \param number: Valid range [0-31].  Interrupt number
2376:Generated_Source\PSoC5/CyLib.c ****     *
2377:Generated_Source\PSoC5/CyLib.c ****     * \return
2378:Generated_Source\PSoC5/CyLib.c ****     *  Address of the ISR in the interrupt vector table.
2379:Generated_Source\PSoC5/CyLib.c ****     *
ARM GAS  C:\Users\ingan\AppData\Local\Temp\ccwaQbAc.s 			page 102


2380:Generated_Source\PSoC5/CyLib.c ****     *******************************************************************************/
2381:Generated_Source\PSoC5/CyLib.c ****     cyisraddress CyIntGetVector(uint8 number) 
2382:Generated_Source\PSoC5/CyLib.c ****     {
2383:Generated_Source\PSoC5/CyLib.c ****         CYASSERT(number <= CY_INT_NUMBER_MAX);
2384:Generated_Source\PSoC5/CyLib.c **** 
2385:Generated_Source\PSoC5/CyLib.c ****         return ((cyisraddress) \
2386:Generated_Source\PSoC5/CyLib.c ****                 CY_GET_REG16(&CY_INT_VECT_TABLE[number & CY_INT_NUMBER_MASK]));
2387:Generated_Source\PSoC5/CyLib.c ****     }
2388:Generated_Source\PSoC5/CyLib.c **** 
2389:Generated_Source\PSoC5/CyLib.c **** 
2390:Generated_Source\PSoC5/CyLib.c ****     /*******************************************************************************
2391:Generated_Source\PSoC5/CyLib.c ****     * Function Name: CyIntSetPriority
2392:Generated_Source\PSoC5/CyLib.c ****     ****************************************************************************//**
2393:Generated_Source\PSoC5/CyLib.c ****     *
2394:Generated_Source\PSoC5/CyLib.c ****     *  Sets the Priority of the Interrupt.
2395:Generated_Source\PSoC5/CyLib.c ****     *
2396:Generated_Source\PSoC5/CyLib.c ****     *  \param priority: Priority of the interrupt. 0 - 7, 0 being the highest.
2397:Generated_Source\PSoC5/CyLib.c ****     *  \param number:   The number of the interrupt, 0 - 31.
2398:Generated_Source\PSoC5/CyLib.c ****     *
2399:Generated_Source\PSoC5/CyLib.c ****     *******************************************************************************/
2400:Generated_Source\PSoC5/CyLib.c ****     void CyIntSetPriority(uint8 number, uint8 priority) 
2401:Generated_Source\PSoC5/CyLib.c ****     {
2402:Generated_Source\PSoC5/CyLib.c ****         CYASSERT(priority <= CY_INT_PRIORITY_MAX);
2403:Generated_Source\PSoC5/CyLib.c **** 
2404:Generated_Source\PSoC5/CyLib.c ****         CYASSERT(number <= CY_INT_NUMBER_MAX);
2405:Generated_Source\PSoC5/CyLib.c **** 
2406:Generated_Source\PSoC5/CyLib.c ****         CY_INT_PRIORITY_PTR[number & CY_INT_NUMBER_MASK] =
2407:Generated_Source\PSoC5/CyLib.c ****                     (priority & CY_INT_PRIORITY_MASK) << 5;
2408:Generated_Source\PSoC5/CyLib.c ****     }
2409:Generated_Source\PSoC5/CyLib.c **** 
2410:Generated_Source\PSoC5/CyLib.c **** 
2411:Generated_Source\PSoC5/CyLib.c ****     /*******************************************************************************
2412:Generated_Source\PSoC5/CyLib.c ****     * Function Name: CyIntGetPriority
2413:Generated_Source\PSoC5/CyLib.c ****     ****************************************************************************//**
2414:Generated_Source\PSoC5/CyLib.c ****     *
2415:Generated_Source\PSoC5/CyLib.c ****     *  Gets the Priority of the Interrupt.
2416:Generated_Source\PSoC5/CyLib.c ****     *
2417:Generated_Source\PSoC5/CyLib.c ****     *  \param number: The number of the interrupt, 0 - 31.
2418:Generated_Source\PSoC5/CyLib.c ****     *
2419:Generated_Source\PSoC5/CyLib.c ****     * \return
2420:Generated_Source\PSoC5/CyLib.c ****     *  Priority of the interrupt. 0 - 7, 0 being the highest.
2421:Generated_Source\PSoC5/CyLib.c ****     *
2422:Generated_Source\PSoC5/CyLib.c ****     *******************************************************************************/
2423:Generated_Source\PSoC5/CyLib.c ****     uint8 CyIntGetPriority(uint8 number) 
2424:Generated_Source\PSoC5/CyLib.c ****     {
2425:Generated_Source\PSoC5/CyLib.c ****         uint8 priority;
2426:Generated_Source\PSoC5/CyLib.c **** 
2427:Generated_Source\PSoC5/CyLib.c ****         CYASSERT(number <= CY_INT_NUMBER_MAX);
2428:Generated_Source\PSoC5/CyLib.c **** 
2429:Generated_Source\PSoC5/CyLib.c ****         priority = CY_INT_PRIORITY_PTR[number & CY_INT_NUMBER_MASK] >> 5;
2430:Generated_Source\PSoC5/CyLib.c **** 
2431:Generated_Source\PSoC5/CyLib.c ****         return (priority);
2432:Generated_Source\PSoC5/CyLib.c ****     }
2433:Generated_Source\PSoC5/CyLib.c **** 
2434:Generated_Source\PSoC5/CyLib.c **** 
2435:Generated_Source\PSoC5/CyLib.c ****     /*******************************************************************************
2436:Generated_Source\PSoC5/CyLib.c ****     * Function Name: CyIntGetState
ARM GAS  C:\Users\ingan\AppData\Local\Temp\ccwaQbAc.s 			page 103


2437:Generated_Source\PSoC5/CyLib.c ****     ****************************************************************************//**
2438:Generated_Source\PSoC5/CyLib.c ****     *
2439:Generated_Source\PSoC5/CyLib.c ****     *   Gets the enable state of the specified interrupt number.
2440:Generated_Source\PSoC5/CyLib.c ****     *
2441:Generated_Source\PSoC5/CyLib.c ****     *   \param number: Valid range [0-31].  Interrupt number.
2442:Generated_Source\PSoC5/CyLib.c ****     *
2443:Generated_Source\PSoC5/CyLib.c ****     * \return
2444:Generated_Source\PSoC5/CyLib.c ****     *   Enable status: 1 if enabled, 0 if disabled
2445:Generated_Source\PSoC5/CyLib.c ****     *
2446:Generated_Source\PSoC5/CyLib.c ****     *******************************************************************************/
2447:Generated_Source\PSoC5/CyLib.c ****     uint8 CyIntGetState(uint8 number) 
2448:Generated_Source\PSoC5/CyLib.c ****     {
2449:Generated_Source\PSoC5/CyLib.c ****         reg8 * stateReg;
2450:Generated_Source\PSoC5/CyLib.c **** 
2451:Generated_Source\PSoC5/CyLib.c ****         CYASSERT(number <= CY_INT_NUMBER_MAX);
2452:Generated_Source\PSoC5/CyLib.c **** 
2453:Generated_Source\PSoC5/CyLib.c ****         /* Get pointer to Interrupt enable register. */
2454:Generated_Source\PSoC5/CyLib.c ****         stateReg = CY_INT_ENABLE_PTR + ((number & CY_INT_NUMBER_MASK) >> 3u);
2455:Generated_Source\PSoC5/CyLib.c **** 
2456:Generated_Source\PSoC5/CyLib.c ****         /* Get state of interrupt. */
2457:Generated_Source\PSoC5/CyLib.c ****         return ((0u != (*stateReg & ((uint8)(1u << (0x07u & number))))) ? ((uint8)(1u)) : ((uint8)(
2458:Generated_Source\PSoC5/CyLib.c ****     }
2459:Generated_Source\PSoC5/CyLib.c **** 
2460:Generated_Source\PSoC5/CyLib.c **** #endif  /* (CY_PSOC5) */
2461:Generated_Source\PSoC5/CyLib.c **** 
2462:Generated_Source\PSoC5/CyLib.c **** 
2463:Generated_Source\PSoC5/CyLib.c **** #if(CYDEV_VARIABLE_VDDA == 1)
2464:Generated_Source\PSoC5/CyLib.c **** 
2465:Generated_Source\PSoC5/CyLib.c ****     /*******************************************************************************
2466:Generated_Source\PSoC5/CyLib.c ****     * Function Name: CySetScPumps
2467:Generated_Source\PSoC5/CyLib.c ****     ****************************************************************************//**
2468:Generated_Source\PSoC5/CyLib.c ****     *
2469:Generated_Source\PSoC5/CyLib.c ****     *  If 1 is passed as a parameter:
2470:Generated_Source\PSoC5/CyLib.c ****     *   - if any of the SC blocks are used - enable pumps for the SC blocks and
2471:Generated_Source\PSoC5/CyLib.c ****     *     start boost clock.
2472:Generated_Source\PSoC5/CyLib.c ****     *   - For each enabled SC block set a boost clock index and enable the boost
2473:Generated_Source\PSoC5/CyLib.c ****     *     clock.
2474:Generated_Source\PSoC5/CyLib.c ****     *
2475:Generated_Source\PSoC5/CyLib.c ****     *  If non-1 value is passed as a parameter:
2476:Generated_Source\PSoC5/CyLib.c ****     *   - If all SC blocks are not used - disable pumps for the SC blocks and
2477:Generated_Source\PSoC5/CyLib.c ****     *     stop the boost clock.
2478:Generated_Source\PSoC5/CyLib.c ****     *   - For each enabled SC block clear the boost clock index and disable the
2479:Generated_Source\PSoC5/CyLib.c ****     *     boost clock.
2480:Generated_Source\PSoC5/CyLib.c ****     *
2481:Generated_Source\PSoC5/CyLib.c ****     *  The global variable CyScPumpEnabled is updated to be equal to passed the
2482:Generated_Source\PSoC5/CyLib.c ****     *  parameter.
2483:Generated_Source\PSoC5/CyLib.c ****     *
2484:Generated_Source\PSoC5/CyLib.c ****     *   \param uint8 enable: Enable/disable SC pumps and the boost clock for the enabled
2485:Generated_Source\PSoC5/CyLib.c ****     *                 \param SC block:
2486:Generated_Source\PSoC5/CyLib.c ****     *                 1 - Enable
2487:Generated_Source\PSoC5/CyLib.c ****     *                 0 - Disable
2488:Generated_Source\PSoC5/CyLib.c ****     *
2489:Generated_Source\PSoC5/CyLib.c ****     *******************************************************************************/
2490:Generated_Source\PSoC5/CyLib.c ****     void CySetScPumps(uint8 enable) 
2491:Generated_Source\PSoC5/CyLib.c ****     {
2492:Generated_Source\PSoC5/CyLib.c ****         if(1u == enable)
2493:Generated_Source\PSoC5/CyLib.c ****         {
ARM GAS  C:\Users\ingan\AppData\Local\Temp\ccwaQbAc.s 			page 104


2494:Generated_Source\PSoC5/CyLib.c ****             /* The SC pumps should be enabled */
2495:Generated_Source\PSoC5/CyLib.c ****             CyScPumpEnabled = 1u;
2496:Generated_Source\PSoC5/CyLib.c ****             /* Enable pumps if any of SC blocks are used */
2497:Generated_Source\PSoC5/CyLib.c ****             if(0u != (CY_LIB_ACT_CFG9_REG & CY_LIB_ACT_CFG9_SWCAPS_MASK))
2498:Generated_Source\PSoC5/CyLib.c ****             {
2499:Generated_Source\PSoC5/CyLib.c ****                 CY_LIB_SC_MISC_REG |= CY_LIB_SC_MISC_PUMP_FORCE;
2500:Generated_Source\PSoC5/CyLib.c ****                 CyScBoostClk_Start();
2501:Generated_Source\PSoC5/CyLib.c ****             }
2502:Generated_Source\PSoC5/CyLib.c ****             /* Set positive pump for each enabled SC block: set clock index and enable it */
2503:Generated_Source\PSoC5/CyLib.c ****             if(0u != (CY_LIB_ACT_CFG9_REG & CY_LIB_ACT_CFG9_SWCAP0_EN))
2504:Generated_Source\PSoC5/CyLib.c ****             {
2505:Generated_Source\PSoC5/CyLib.c ****                 CY_LIB_SC0_BST_REG = (CY_LIB_SC0_BST_REG & CY_LIB_SC_BST_CLK_INDEX_MASK) | CyScBoos
2506:Generated_Source\PSoC5/CyLib.c ****                 CY_LIB_SC0_BST_REG |= CY_LIB_SC_BST_CLK_EN;
2507:Generated_Source\PSoC5/CyLib.c ****             }
2508:Generated_Source\PSoC5/CyLib.c ****             if(0u != (CY_LIB_ACT_CFG9_REG & CY_LIB_ACT_CFG9_SWCAP1_EN))
2509:Generated_Source\PSoC5/CyLib.c ****             {
2510:Generated_Source\PSoC5/CyLib.c ****                 CY_LIB_SC1_BST_REG = (CY_LIB_SC1_BST_REG & CY_LIB_SC_BST_CLK_INDEX_MASK) | CyScBoos
2511:Generated_Source\PSoC5/CyLib.c ****                 CY_LIB_SC1_BST_REG |= CY_LIB_SC_BST_CLK_EN;
2512:Generated_Source\PSoC5/CyLib.c ****             }
2513:Generated_Source\PSoC5/CyLib.c ****             if(0u != (CY_LIB_ACT_CFG9_REG & CY_LIB_ACT_CFG9_SWCAP2_EN))
2514:Generated_Source\PSoC5/CyLib.c ****             {
2515:Generated_Source\PSoC5/CyLib.c ****                 CY_LIB_SC2_BST_REG = (CY_LIB_SC2_BST_REG & CY_LIB_SC_BST_CLK_INDEX_MASK) | CyScBoos
2516:Generated_Source\PSoC5/CyLib.c ****                 CY_LIB_SC2_BST_REG |= CY_LIB_SC_BST_CLK_EN;
2517:Generated_Source\PSoC5/CyLib.c ****             }
2518:Generated_Source\PSoC5/CyLib.c ****             if(0u != (CY_LIB_ACT_CFG9_REG & CY_LIB_ACT_CFG9_SWCAP3_EN))
2519:Generated_Source\PSoC5/CyLib.c ****             {
2520:Generated_Source\PSoC5/CyLib.c ****                 CY_LIB_SC3_BST_REG = (CY_LIB_SC3_BST_REG & CY_LIB_SC_BST_CLK_INDEX_MASK) | CyScBoos
2521:Generated_Source\PSoC5/CyLib.c ****                 CY_LIB_SC3_BST_REG |= CY_LIB_SC_BST_CLK_EN;
2522:Generated_Source\PSoC5/CyLib.c ****             }
2523:Generated_Source\PSoC5/CyLib.c ****         }
2524:Generated_Source\PSoC5/CyLib.c ****         else
2525:Generated_Source\PSoC5/CyLib.c ****         {
2526:Generated_Source\PSoC5/CyLib.c ****             /* The SC pumps should be disabled */
2527:Generated_Source\PSoC5/CyLib.c ****             CyScPumpEnabled = 0u;
2528:Generated_Source\PSoC5/CyLib.c ****             /* Disable pumps for all SC blocks and stop boost clock */
2529:Generated_Source\PSoC5/CyLib.c ****             CY_LIB_SC_MISC_REG &= ((uint8)(~CY_LIB_SC_MISC_PUMP_FORCE));
2530:Generated_Source\PSoC5/CyLib.c ****             CyScBoostClk_Stop();
2531:Generated_Source\PSoC5/CyLib.c ****             /* Disable boost clock and clear clock index for each SC block */
2532:Generated_Source\PSoC5/CyLib.c ****             CY_LIB_SC0_BST_REG &= ((uint8)(~CY_LIB_SC_BST_CLK_EN));
2533:Generated_Source\PSoC5/CyLib.c ****             CY_LIB_SC0_BST_REG = CY_LIB_SC0_BST_REG & CY_LIB_SC_BST_CLK_INDEX_MASK;
2534:Generated_Source\PSoC5/CyLib.c ****             CY_LIB_SC1_BST_REG &= ((uint8)(~CY_LIB_SC_BST_CLK_EN));
2535:Generated_Source\PSoC5/CyLib.c ****             CY_LIB_SC1_BST_REG = CY_LIB_SC1_BST_REG & CY_LIB_SC_BST_CLK_INDEX_MASK;
2536:Generated_Source\PSoC5/CyLib.c ****             CY_LIB_SC2_BST_REG &= ((uint8)(~CY_LIB_SC_BST_CLK_EN));
2537:Generated_Source\PSoC5/CyLib.c ****             CY_LIB_SC2_BST_REG = CY_LIB_SC2_BST_REG & CY_LIB_SC_BST_CLK_INDEX_MASK;
2538:Generated_Source\PSoC5/CyLib.c ****             CY_LIB_SC3_BST_REG &= ((uint8)(~CY_LIB_SC_BST_CLK_EN));
2539:Generated_Source\PSoC5/CyLib.c ****             CY_LIB_SC3_BST_REG = CY_LIB_SC3_BST_REG & CY_LIB_SC_BST_CLK_INDEX_MASK;
2540:Generated_Source\PSoC5/CyLib.c ****         }
2541:Generated_Source\PSoC5/CyLib.c ****     }
2542:Generated_Source\PSoC5/CyLib.c **** 
2543:Generated_Source\PSoC5/CyLib.c **** #endif  /* (CYDEV_VARIABLE_VDDA == 1) */
2544:Generated_Source\PSoC5/CyLib.c **** 
2545:Generated_Source\PSoC5/CyLib.c **** 
2546:Generated_Source\PSoC5/CyLib.c **** #if(CY_PSOC5)
2547:Generated_Source\PSoC5/CyLib.c ****     /*******************************************************************************
2548:Generated_Source\PSoC5/CyLib.c ****     * Function Name: CySysTickStart
2549:Generated_Source\PSoC5/CyLib.c ****     ****************************************************************************//**
2550:Generated_Source\PSoC5/CyLib.c ****     *
ARM GAS  C:\Users\ingan\AppData\Local\Temp\ccwaQbAc.s 			page 105


2551:Generated_Source\PSoC5/CyLib.c ****     *  Configures the SysTick timer to generate interrupt every 1 ms by call to the
2552:Generated_Source\PSoC5/CyLib.c ****     *  CySysTickInit() function and starts it by calling CySysTickEnable() function.
2553:Generated_Source\PSoC5/CyLib.c ****     *  Refer to the corresponding function description for the details.
2554:Generated_Source\PSoC5/CyLib.c **** 
2555:Generated_Source\PSoC5/CyLib.c ****     * \sideeffect
2556:Generated_Source\PSoC5/CyLib.c ****     *  Clears SysTick count flag if it was set
2557:Generated_Source\PSoC5/CyLib.c ****     *
2558:Generated_Source\PSoC5/CyLib.c ****     *******************************************************************************/
2559:Generated_Source\PSoC5/CyLib.c ****     void CySysTickStart(void)
2560:Generated_Source\PSoC5/CyLib.c ****     {
2561:Generated_Source\PSoC5/CyLib.c ****         if (0u == CySysTickInitVar)
2562:Generated_Source\PSoC5/CyLib.c ****         {
2563:Generated_Source\PSoC5/CyLib.c ****             CySysTickInit();
2564:Generated_Source\PSoC5/CyLib.c ****             CySysTickInitVar = 1u;
2565:Generated_Source\PSoC5/CyLib.c ****         }
2566:Generated_Source\PSoC5/CyLib.c **** 
2567:Generated_Source\PSoC5/CyLib.c ****         CySysTickEnable();
2568:Generated_Source\PSoC5/CyLib.c ****     }
2569:Generated_Source\PSoC5/CyLib.c **** 
2570:Generated_Source\PSoC5/CyLib.c **** 
2571:Generated_Source\PSoC5/CyLib.c ****     /*******************************************************************************
2572:Generated_Source\PSoC5/CyLib.c ****     * Function Name: CySysTickInit
2573:Generated_Source\PSoC5/CyLib.c ****     ****************************************************************************//**
2574:Generated_Source\PSoC5/CyLib.c ****     *
2575:Generated_Source\PSoC5/CyLib.c ****     *  Initializes the callback addresses with pointers to NULL, associates the
2576:Generated_Source\PSoC5/CyLib.c ****     *  SysTick system vector with the function that is responsible for calling
2577:Generated_Source\PSoC5/CyLib.c ****     *  registered callback functions, configures SysTick timer to generate interrupt
2578:Generated_Source\PSoC5/CyLib.c ****     * every 1 ms.
2579:Generated_Source\PSoC5/CyLib.c ****     *
2580:Generated_Source\PSoC5/CyLib.c ****     * \sideeffect
2581:Generated_Source\PSoC5/CyLib.c ****     *  Clears SysTick count flag if it was set.
2582:Generated_Source\PSoC5/CyLib.c ****     *
2583:Generated_Source\PSoC5/CyLib.c ****     *  The 1 ms interrupt interval is configured based on the frequency determined
2584:Generated_Source\PSoC5/CyLib.c ****     *  by PSoC Creator at build time. If System clock frequency is changed in
2585:Generated_Source\PSoC5/CyLib.c ****     *  runtime, the CyDelayFreq() with the appropriate parameter should be called.
2586:Generated_Source\PSoC5/CyLib.c ****     *
2587:Generated_Source\PSoC5/CyLib.c ****     *******************************************************************************/
2588:Generated_Source\PSoC5/CyLib.c ****     void CySysTickInit(void)
2589:Generated_Source\PSoC5/CyLib.c ****     {
2590:Generated_Source\PSoC5/CyLib.c ****         uint32 i;
2591:Generated_Source\PSoC5/CyLib.c **** 
2592:Generated_Source\PSoC5/CyLib.c ****         for (i = 0u; i<CY_SYS_SYST_NUM_OF_CALLBACKS; i++)
2593:Generated_Source\PSoC5/CyLib.c ****         {
2594:Generated_Source\PSoC5/CyLib.c ****             CySysTickCallbacks[i] = (void *) 0;
2595:Generated_Source\PSoC5/CyLib.c ****         }
2596:Generated_Source\PSoC5/CyLib.c **** 
2597:Generated_Source\PSoC5/CyLib.c ****         (void) CyIntSetSysVector(CY_INT_SYSTICK_IRQN, &CySysTickServiceCallbacks);
2598:Generated_Source\PSoC5/CyLib.c ****         CySysTickSetClockSource(CY_SYS_SYST_CSR_CLK_SRC_SYSCLK);
2599:Generated_Source\PSoC5/CyLib.c ****         CySysTickSetReload(cydelay_freq_hz/1000u);
2600:Generated_Source\PSoC5/CyLib.c ****         CySysTickClear();
2601:Generated_Source\PSoC5/CyLib.c ****         CyIntEnable(CY_INT_SYSTICK_IRQN);
2602:Generated_Source\PSoC5/CyLib.c ****     }
2603:Generated_Source\PSoC5/CyLib.c **** 
2604:Generated_Source\PSoC5/CyLib.c **** 
2605:Generated_Source\PSoC5/CyLib.c ****     /*******************************************************************************
2606:Generated_Source\PSoC5/CyLib.c ****     * Function Name: CySysTickEnable
2607:Generated_Source\PSoC5/CyLib.c ****     ****************************************************************************//**
ARM GAS  C:\Users\ingan\AppData\Local\Temp\ccwaQbAc.s 			page 106


2608:Generated_Source\PSoC5/CyLib.c ****     *
2609:Generated_Source\PSoC5/CyLib.c ****     *  Enables the SysTick timer and its interrupt.
2610:Generated_Source\PSoC5/CyLib.c ****     *
2611:Generated_Source\PSoC5/CyLib.c ****     * \sideeffect
2612:Generated_Source\PSoC5/CyLib.c ****     *  Clears SysTick count flag if it was set
2613:Generated_Source\PSoC5/CyLib.c ****     *
2614:Generated_Source\PSoC5/CyLib.c ****     *******************************************************************************/
2615:Generated_Source\PSoC5/CyLib.c ****     void CySysTickEnable(void)
2616:Generated_Source\PSoC5/CyLib.c ****     {
2617:Generated_Source\PSoC5/CyLib.c ****         CySysTickEnableInterrupt();
2618:Generated_Source\PSoC5/CyLib.c ****         CY_SYS_SYST_CSR_REG |= CY_SYS_SYST_CSR_ENABLE;
2619:Generated_Source\PSoC5/CyLib.c ****     }
2620:Generated_Source\PSoC5/CyLib.c **** 
2621:Generated_Source\PSoC5/CyLib.c **** 
2622:Generated_Source\PSoC5/CyLib.c ****     /*******************************************************************************
2623:Generated_Source\PSoC5/CyLib.c ****     * Function Name: CySysTickStop
2624:Generated_Source\PSoC5/CyLib.c ****     ****************************************************************************//**
2625:Generated_Source\PSoC5/CyLib.c ****     *
2626:Generated_Source\PSoC5/CyLib.c ****     *  Stops the system timer (SysTick).
2627:Generated_Source\PSoC5/CyLib.c ****     *
2628:Generated_Source\PSoC5/CyLib.c ****     * \sideeffect
2629:Generated_Source\PSoC5/CyLib.c ****     *  Clears SysTick count flag if it was set
2630:Generated_Source\PSoC5/CyLib.c ****     *
2631:Generated_Source\PSoC5/CyLib.c ****     *******************************************************************************/
2632:Generated_Source\PSoC5/CyLib.c ****     void CySysTickStop(void)
2633:Generated_Source\PSoC5/CyLib.c ****     {
 3168              		.loc 1 2633 0
 3169              		.cfi_startproc
 3170              		@ args = 0, pretend = 0, frame = 0
 3171              		@ frame_needed = 0, uses_anonymous_args = 0
 3172              		@ link register save eliminated.
2634:Generated_Source\PSoC5/CyLib.c ****         CY_SYS_SYST_CSR_REG &= ((uint32) ~(CY_SYS_SYST_CSR_ENABLE));
 3173              		.loc 1 2634 0
 3174 0000 024A     		ldr	r2, .L306
 3175 0002 1368     		ldr	r3, [r2]
 3176 0004 23F00103 		bic	r3, r3, #1
 3177 0008 1360     		str	r3, [r2]
 3178 000a 7047     		bx	lr
 3179              	.L307:
 3180              		.align	2
 3181              	.L306:
 3182 000c 10E000E0 		.word	-536813552
 3183              		.cfi_endproc
 3184              	.LFE67:
 3185              		.size	CySysTickStop, .-CySysTickStop
 3186              		.section	.text.CySysTickEnableInterrupt,"ax",%progbits
 3187              		.align	2
 3188              		.global	CySysTickEnableInterrupt
 3189              		.thumb
 3190              		.thumb_func
 3191              		.type	CySysTickEnableInterrupt, %function
 3192              	CySysTickEnableInterrupt:
 3193              	.LFB68:
2635:Generated_Source\PSoC5/CyLib.c ****     }
2636:Generated_Source\PSoC5/CyLib.c **** 
2637:Generated_Source\PSoC5/CyLib.c **** 
2638:Generated_Source\PSoC5/CyLib.c ****     /*******************************************************************************
ARM GAS  C:\Users\ingan\AppData\Local\Temp\ccwaQbAc.s 			page 107


2639:Generated_Source\PSoC5/CyLib.c ****     * Function Name: CySysTickEnableInterrupt
2640:Generated_Source\PSoC5/CyLib.c ****     ****************************************************************************//**
2641:Generated_Source\PSoC5/CyLib.c ****     *
2642:Generated_Source\PSoC5/CyLib.c ****     *  Enables the SysTick interrupt.
2643:Generated_Source\PSoC5/CyLib.c ****     *
2644:Generated_Source\PSoC5/CyLib.c ****     * \sideeffect
2645:Generated_Source\PSoC5/CyLib.c ****     *  Clears SysTick count flag if it was set
2646:Generated_Source\PSoC5/CyLib.c ****     *
2647:Generated_Source\PSoC5/CyLib.c ****     *******************************************************************************/
2648:Generated_Source\PSoC5/CyLib.c ****     void CySysTickEnableInterrupt(void)
2649:Generated_Source\PSoC5/CyLib.c ****     {
 3194              		.loc 1 2649 0
 3195              		.cfi_startproc
 3196              		@ args = 0, pretend = 0, frame = 0
 3197              		@ frame_needed = 0, uses_anonymous_args = 0
 3198              		@ link register save eliminated.
2650:Generated_Source\PSoC5/CyLib.c ****         CY_SYS_SYST_CSR_REG |= CY_SYS_SYST_CSR_ENABLE_INT;
 3199              		.loc 1 2650 0
 3200 0000 024A     		ldr	r2, .L309
 3201 0002 1368     		ldr	r3, [r2]
 3202 0004 43F00203 		orr	r3, r3, #2
 3203 0008 1360     		str	r3, [r2]
 3204 000a 7047     		bx	lr
 3205              	.L310:
 3206              		.align	2
 3207              	.L309:
 3208 000c 10E000E0 		.word	-536813552
 3209              		.cfi_endproc
 3210              	.LFE68:
 3211              		.size	CySysTickEnableInterrupt, .-CySysTickEnableInterrupt
 3212              		.section	.text.CySysTickEnable,"ax",%progbits
 3213              		.align	2
 3214              		.global	CySysTickEnable
 3215              		.thumb
 3216              		.thumb_func
 3217              		.type	CySysTickEnable, %function
 3218              	CySysTickEnable:
 3219              	.LFB66:
2616:Generated_Source\PSoC5/CyLib.c ****         CySysTickEnableInterrupt();
 3220              		.loc 1 2616 0
 3221              		.cfi_startproc
 3222              		@ args = 0, pretend = 0, frame = 0
 3223              		@ frame_needed = 0, uses_anonymous_args = 0
 3224 0000 08B5     		push	{r3, lr}
 3225              		.cfi_def_cfa_offset 8
 3226              		.cfi_offset 3, -8
 3227              		.cfi_offset 14, -4
2617:Generated_Source\PSoC5/CyLib.c ****         CY_SYS_SYST_CSR_REG |= CY_SYS_SYST_CSR_ENABLE;
 3228              		.loc 1 2617 0
 3229 0002 FFF7FEFF 		bl	CySysTickEnableInterrupt
 3230              	.LVL193:
2618:Generated_Source\PSoC5/CyLib.c ****     }
 3231              		.loc 1 2618 0
 3232 0006 034A     		ldr	r2, .L313
 3233 0008 1368     		ldr	r3, [r2]
 3234 000a 43F00103 		orr	r3, r3, #1
 3235 000e 1360     		str	r3, [r2]
ARM GAS  C:\Users\ingan\AppData\Local\Temp\ccwaQbAc.s 			page 108


 3236 0010 08BD     		pop	{r3, pc}
 3237              	.L314:
 3238 0012 00BF     		.align	2
 3239              	.L313:
 3240 0014 10E000E0 		.word	-536813552
 3241              		.cfi_endproc
 3242              	.LFE66:
 3243              		.size	CySysTickEnable, .-CySysTickEnable
 3244              		.section	.text.CySysTickDisableInterrupt,"ax",%progbits
 3245              		.align	2
 3246              		.global	CySysTickDisableInterrupt
 3247              		.thumb
 3248              		.thumb_func
 3249              		.type	CySysTickDisableInterrupt, %function
 3250              	CySysTickDisableInterrupt:
 3251              	.LFB69:
2651:Generated_Source\PSoC5/CyLib.c ****     }
2652:Generated_Source\PSoC5/CyLib.c **** 
2653:Generated_Source\PSoC5/CyLib.c **** 
2654:Generated_Source\PSoC5/CyLib.c ****     /*******************************************************************************
2655:Generated_Source\PSoC5/CyLib.c ****     * Function Name: CySysTickDisableInterrupt
2656:Generated_Source\PSoC5/CyLib.c ****     ****************************************************************************//**
2657:Generated_Source\PSoC5/CyLib.c ****     *
2658:Generated_Source\PSoC5/CyLib.c ****     *  Disables the SysTick interrupt.
2659:Generated_Source\PSoC5/CyLib.c ****     *
2660:Generated_Source\PSoC5/CyLib.c ****     * \sideeffect
2661:Generated_Source\PSoC5/CyLib.c ****     *  Clears SysTick count flag if it was set
2662:Generated_Source\PSoC5/CyLib.c ****     *
2663:Generated_Source\PSoC5/CyLib.c ****     *******************************************************************************/
2664:Generated_Source\PSoC5/CyLib.c ****     void CySysTickDisableInterrupt(void)
2665:Generated_Source\PSoC5/CyLib.c ****     {
 3252              		.loc 1 2665 0
 3253              		.cfi_startproc
 3254              		@ args = 0, pretend = 0, frame = 0
 3255              		@ frame_needed = 0, uses_anonymous_args = 0
 3256              		@ link register save eliminated.
2666:Generated_Source\PSoC5/CyLib.c ****         CY_SYS_SYST_CSR_REG &= ((uint32) ~(CY_SYS_SYST_CSR_ENABLE_INT));
 3257              		.loc 1 2666 0
 3258 0000 024A     		ldr	r2, .L316
 3259 0002 1368     		ldr	r3, [r2]
 3260 0004 23F00203 		bic	r3, r3, #2
 3261 0008 1360     		str	r3, [r2]
 3262 000a 7047     		bx	lr
 3263              	.L317:
 3264              		.align	2
 3265              	.L316:
 3266 000c 10E000E0 		.word	-536813552
 3267              		.cfi_endproc
 3268              	.LFE69:
 3269              		.size	CySysTickDisableInterrupt, .-CySysTickDisableInterrupt
 3270              		.section	.text.CySysTickSetReload,"ax",%progbits
 3271              		.align	2
 3272              		.global	CySysTickSetReload
 3273              		.thumb
 3274              		.thumb_func
 3275              		.type	CySysTickSetReload, %function
 3276              	CySysTickSetReload:
ARM GAS  C:\Users\ingan\AppData\Local\Temp\ccwaQbAc.s 			page 109


 3277              	.LFB70:
2667:Generated_Source\PSoC5/CyLib.c ****     }
2668:Generated_Source\PSoC5/CyLib.c **** 
2669:Generated_Source\PSoC5/CyLib.c **** 
2670:Generated_Source\PSoC5/CyLib.c ****     /*******************************************************************************
2671:Generated_Source\PSoC5/CyLib.c ****     * Function Name: CySysTickSetReload
2672:Generated_Source\PSoC5/CyLib.c ****     ****************************************************************************//**
2673:Generated_Source\PSoC5/CyLib.c ****     *
2674:Generated_Source\PSoC5/CyLib.c ****     *  Sets value the counter is set to on startup and after it reaches zero. This
2675:Generated_Source\PSoC5/CyLib.c ****     *  function do not change or reset current sysTick counter value, so it should
2676:Generated_Source\PSoC5/CyLib.c ****     *  be cleared using CySysTickClear() API.
2677:Generated_Source\PSoC5/CyLib.c ****     *
2678:Generated_Source\PSoC5/CyLib.c ****     *  \param value: Valid range [0x0-0x00FFFFFF]. Counter reset value.
2679:Generated_Source\PSoC5/CyLib.c ****     *
2680:Generated_Source\PSoC5/CyLib.c ****     *******************************************************************************/
2681:Generated_Source\PSoC5/CyLib.c ****     void CySysTickSetReload(uint32 value)
2682:Generated_Source\PSoC5/CyLib.c ****     {
 3278              		.loc 1 2682 0
 3279              		.cfi_startproc
 3280              		@ args = 0, pretend = 0, frame = 0
 3281              		@ frame_needed = 0, uses_anonymous_args = 0
 3282              		@ link register save eliminated.
 3283              	.LVL194:
2683:Generated_Source\PSoC5/CyLib.c ****         CY_SYS_SYST_RVR_REG = (value & CY_SYS_SYST_RVR_CNT_MASK);
 3284              		.loc 1 2683 0
 3285 0000 20F07F40 		bic	r0, r0, #-16777216
 3286              	.LVL195:
 3287 0004 014B     		ldr	r3, .L319
 3288 0006 1860     		str	r0, [r3]
 3289 0008 7047     		bx	lr
 3290              	.L320:
 3291 000a 00BF     		.align	2
 3292              	.L319:
 3293 000c 14E000E0 		.word	-536813548
 3294              		.cfi_endproc
 3295              	.LFE70:
 3296              		.size	CySysTickSetReload, .-CySysTickSetReload
 3297              		.section	.text.CySysTickGetReload,"ax",%progbits
 3298              		.align	2
 3299              		.global	CySysTickGetReload
 3300              		.thumb
 3301              		.thumb_func
 3302              		.type	CySysTickGetReload, %function
 3303              	CySysTickGetReload:
 3304              	.LFB71:
2684:Generated_Source\PSoC5/CyLib.c ****     }
2685:Generated_Source\PSoC5/CyLib.c **** 
2686:Generated_Source\PSoC5/CyLib.c **** 
2687:Generated_Source\PSoC5/CyLib.c ****     /*******************************************************************************
2688:Generated_Source\PSoC5/CyLib.c ****     * Function Name: CySysTickGetReload
2689:Generated_Source\PSoC5/CyLib.c ****     ****************************************************************************//**
2690:Generated_Source\PSoC5/CyLib.c ****     *
2691:Generated_Source\PSoC5/CyLib.c ****     *  Sets value the counter is set to on startup and after it reaches zero.
2692:Generated_Source\PSoC5/CyLib.c ****     *
2693:Generated_Source\PSoC5/CyLib.c ****     * \return
2694:Generated_Source\PSoC5/CyLib.c ****     *  Counter reset value
2695:Generated_Source\PSoC5/CyLib.c ****     *
ARM GAS  C:\Users\ingan\AppData\Local\Temp\ccwaQbAc.s 			page 110


2696:Generated_Source\PSoC5/CyLib.c ****     *******************************************************************************/
2697:Generated_Source\PSoC5/CyLib.c ****     uint32 CySysTickGetReload(void)
2698:Generated_Source\PSoC5/CyLib.c ****     {
 3305              		.loc 1 2698 0
 3306              		.cfi_startproc
 3307              		@ args = 0, pretend = 0, frame = 0
 3308              		@ frame_needed = 0, uses_anonymous_args = 0
 3309              		@ link register save eliminated.
2699:Generated_Source\PSoC5/CyLib.c ****         return(CY_SYS_SYST_RVR_REG & CY_SYS_SYST_RVR_CNT_MASK);
 3310              		.loc 1 2699 0
 3311 0000 024B     		ldr	r3, .L322
 3312 0002 1868     		ldr	r0, [r3]
2700:Generated_Source\PSoC5/CyLib.c ****     }
 3313              		.loc 1 2700 0
 3314 0004 20F07F40 		bic	r0, r0, #-16777216
 3315 0008 7047     		bx	lr
 3316              	.L323:
 3317 000a 00BF     		.align	2
 3318              	.L322:
 3319 000c 14E000E0 		.word	-536813548
 3320              		.cfi_endproc
 3321              	.LFE71:
 3322              		.size	CySysTickGetReload, .-CySysTickGetReload
 3323              		.section	.text.CySysTickGetValue,"ax",%progbits
 3324              		.align	2
 3325              		.global	CySysTickGetValue
 3326              		.thumb
 3327              		.thumb_func
 3328              		.type	CySysTickGetValue, %function
 3329              	CySysTickGetValue:
 3330              	.LFB72:
2701:Generated_Source\PSoC5/CyLib.c **** 
2702:Generated_Source\PSoC5/CyLib.c **** 
2703:Generated_Source\PSoC5/CyLib.c ****     /*******************************************************************************
2704:Generated_Source\PSoC5/CyLib.c ****     * Function Name: CySysTickGetValue
2705:Generated_Source\PSoC5/CyLib.c ****     ****************************************************************************//**
2706:Generated_Source\PSoC5/CyLib.c ****     *
2707:Generated_Source\PSoC5/CyLib.c ****     *  Gets current SysTick counter value.
2708:Generated_Source\PSoC5/CyLib.c ****     *
2709:Generated_Source\PSoC5/CyLib.c ****     * \return
2710:Generated_Source\PSoC5/CyLib.c ****     *  Current SysTick counter value
2711:Generated_Source\PSoC5/CyLib.c ****     *
2712:Generated_Source\PSoC5/CyLib.c ****     *******************************************************************************/
2713:Generated_Source\PSoC5/CyLib.c ****     uint32 CySysTickGetValue(void)
2714:Generated_Source\PSoC5/CyLib.c ****     {
 3331              		.loc 1 2714 0
 3332              		.cfi_startproc
 3333              		@ args = 0, pretend = 0, frame = 0
 3334              		@ frame_needed = 0, uses_anonymous_args = 0
 3335              		@ link register save eliminated.
2715:Generated_Source\PSoC5/CyLib.c ****         return(CY_SYS_SYST_CVR_REG & CY_SYS_SYST_CVR_CNT_MASK);
 3336              		.loc 1 2715 0
 3337 0000 024B     		ldr	r3, .L325
 3338 0002 1868     		ldr	r0, [r3]
2716:Generated_Source\PSoC5/CyLib.c ****     }
 3339              		.loc 1 2716 0
 3340 0004 20F07F40 		bic	r0, r0, #-16777216
ARM GAS  C:\Users\ingan\AppData\Local\Temp\ccwaQbAc.s 			page 111


 3341 0008 7047     		bx	lr
 3342              	.L326:
 3343 000a 00BF     		.align	2
 3344              	.L325:
 3345 000c 18E000E0 		.word	-536813544
 3346              		.cfi_endproc
 3347              	.LFE72:
 3348              		.size	CySysTickGetValue, .-CySysTickGetValue
 3349              		.section	.text.CySysTickSetClockSource,"ax",%progbits
 3350              		.align	2
 3351              		.global	CySysTickSetClockSource
 3352              		.thumb
 3353              		.thumb_func
 3354              		.type	CySysTickSetClockSource, %function
 3355              	CySysTickSetClockSource:
 3356              	.LFB73:
2717:Generated_Source\PSoC5/CyLib.c **** 
2718:Generated_Source\PSoC5/CyLib.c **** 
2719:Generated_Source\PSoC5/CyLib.c ****     /*******************************************************************************
2720:Generated_Source\PSoC5/CyLib.c ****     * Function Name: CySysTickSetClockSource
2721:Generated_Source\PSoC5/CyLib.c ****     ****************************************************************************//**
2722:Generated_Source\PSoC5/CyLib.c ****     *
2723:Generated_Source\PSoC5/CyLib.c ****     *  Sets the clock source for the SysTick counter.
2724:Generated_Source\PSoC5/CyLib.c ****     *
2725:Generated_Source\PSoC5/CyLib.c ****     *  \param clockSource: Clock source for SysTick counter
2726:Generated_Source\PSoC5/CyLib.c ****     *         Define                     Clock Source
2727:Generated_Source\PSoC5/CyLib.c ****     *   CY_SYS_SYST_CSR_CLK_SRC_SYSCLK     SysTick is clocked by CPU clock.
2728:Generated_Source\PSoC5/CyLib.c ****     *   CY_SYS_SYST_CSR_CLK_SRC_LFCLK      SysTick is clocked by the low frequency
2729:Generated_Source\PSoC5/CyLib.c ****     *                                      clock (ILO 100 KHz for PSoC 5LP, and
2730:Generated_Source\PSoC5/CyLib.c ****     *                                      LFCLK for PSoC 4).
2731:Generated_Source\PSoC5/CyLib.c ****     *
2732:Generated_Source\PSoC5/CyLib.c ****     * \sideeffect
2733:Generated_Source\PSoC5/CyLib.c ****     *  Clears SysTick count flag if it was set. If clock source is not ready this
2734:Generated_Source\PSoC5/CyLib.c ****     *  function call will have no effect. After changing clock source to the low
2735:Generated_Source\PSoC5/CyLib.c ****     *  frequency clock the counter and reload register values will remain unchanged
2736:Generated_Source\PSoC5/CyLib.c ****     *  so time to the interrupt will be significantly bigger and vice versa.
2737:Generated_Source\PSoC5/CyLib.c ****     *
2738:Generated_Source\PSoC5/CyLib.c ****     *******************************************************************************/
2739:Generated_Source\PSoC5/CyLib.c ****     void CySysTickSetClockSource(uint32 clockSource)
2740:Generated_Source\PSoC5/CyLib.c ****     {
 3357              		.loc 1 2740 0
 3358              		.cfi_startproc
 3359              		@ args = 0, pretend = 0, frame = 0
 3360              		@ frame_needed = 0, uses_anonymous_args = 0
 3361              		@ link register save eliminated.
 3362              	.LVL196:
2741:Generated_Source\PSoC5/CyLib.c ****         if (clockSource == CY_SYS_SYST_CSR_CLK_SRC_SYSCLK)
 3363              		.loc 1 2741 0
 3364 0000 0128     		cmp	r0, #1
2742:Generated_Source\PSoC5/CyLib.c ****         {
2743:Generated_Source\PSoC5/CyLib.c ****             CY_SYS_SYST_CSR_REG |= (uint32)(CY_SYS_SYST_CSR_CLK_SRC_SYSCLK << CY_SYS_SYST_CSR_CLK_S
 3365              		.loc 1 2743 0
 3366 0002 044A     		ldr	r2, .L330
 3367 0004 1368     		ldr	r3, [r2]
 3368 0006 0CBF     		ite	eq
 3369 0008 43F00403 		orreq	r3, r3, #4
2744:Generated_Source\PSoC5/CyLib.c ****         }
ARM GAS  C:\Users\ingan\AppData\Local\Temp\ccwaQbAc.s 			page 112


2745:Generated_Source\PSoC5/CyLib.c ****         else
2746:Generated_Source\PSoC5/CyLib.c ****         {
2747:Generated_Source\PSoC5/CyLib.c ****             CY_SYS_SYST_CSR_REG &= ((uint32) ~((uint32)(CY_SYS_SYST_CSR_CLK_SRC_SYSCLK << CY_SYS_SY
 3370              		.loc 1 2747 0
 3371 000c 23F00403 		bicne	r3, r3, #4
 3372 0010 1360     		str	r3, [r2]
 3373 0012 7047     		bx	lr
 3374              	.L331:
 3375              		.align	2
 3376              	.L330:
 3377 0014 10E000E0 		.word	-536813552
 3378              		.cfi_endproc
 3379              	.LFE73:
 3380              		.size	CySysTickSetClockSource, .-CySysTickSetClockSource
 3381              		.section	.text.CySysTickInit,"ax",%progbits
 3382              		.align	2
 3383              		.global	CySysTickInit
 3384              		.thumb
 3385              		.thumb_func
 3386              		.type	CySysTickInit, %function
 3387              	CySysTickInit:
 3388              	.LFB65:
2589:Generated_Source\PSoC5/CyLib.c ****         uint32 i;
 3389              		.loc 1 2589 0
 3390              		.cfi_startproc
 3391              		@ args = 0, pretend = 0, frame = 0
 3392              		@ frame_needed = 0, uses_anonymous_args = 0
 3393 0000 10B5     		push	{r4, lr}
 3394              		.cfi_def_cfa_offset 8
 3395              		.cfi_offset 4, -8
 3396              		.cfi_offset 14, -4
 3397              	.LVL197:
2594:Generated_Source\PSoC5/CyLib.c ****         }
 3398              		.loc 1 2594 0
 3399 0002 0E4B     		ldr	r3, .L334
 3400 0004 0024     		movs	r4, #0
 3401 0006 5C60     		str	r4, [r3, #4]
 3402              	.LVL198:
 3403 0008 9C60     		str	r4, [r3, #8]
 3404              	.LVL199:
 3405 000a DC60     		str	r4, [r3, #12]
 3406              	.LVL200:
 3407 000c 1C61     		str	r4, [r3, #16]
 3408              	.LVL201:
 3409 000e 5C61     		str	r4, [r3, #20]
 3410              	.LVL202:
2597:Generated_Source\PSoC5/CyLib.c ****         CySysTickSetClockSource(CY_SYS_SYST_CSR_CLK_SRC_SYSCLK);
 3411              		.loc 1 2597 0
 3412 0010 0B49     		ldr	r1, .L334+4
 3413 0012 0F20     		movs	r0, #15
 3414 0014 FFF7FEFF 		bl	CyIntSetSysVector
 3415              	.LVL203:
2598:Generated_Source\PSoC5/CyLib.c ****         CySysTickSetReload(cydelay_freq_hz/1000u);
 3416              		.loc 1 2598 0
 3417 0018 0120     		movs	r0, #1
 3418 001a FFF7FEFF 		bl	CySysTickSetClockSource
 3419              	.LVL204:
ARM GAS  C:\Users\ingan\AppData\Local\Temp\ccwaQbAc.s 			page 113


2599:Generated_Source\PSoC5/CyLib.c ****         CySysTickClear();
 3420              		.loc 1 2599 0
 3421 001e 094B     		ldr	r3, .L334+8
 3422              	.LBB24:
 3423              	.LBB25:
2683:Generated_Source\PSoC5/CyLib.c ****     }
 3424              		.loc 1 2683 0
 3425 0020 DB68     		ldr	r3, [r3, #12]
 3426 0022 094A     		ldr	r2, .L334+12
 3427 0024 A2FB0323 		umull	r2, r3, r2, r3
 3428 0028 9B09     		lsrs	r3, r3, #6
 3429 002a 084A     		ldr	r2, .L334+16
 3430 002c 1360     		str	r3, [r2]
 3431              	.LVL205:
 3432              	.LBE25:
 3433              	.LBE24:
 3434              	.LBB26:
 3435              	.LBB27:
2748:Generated_Source\PSoC5/CyLib.c ****         }
2749:Generated_Source\PSoC5/CyLib.c ****     }
2750:Generated_Source\PSoC5/CyLib.c **** 
2751:Generated_Source\PSoC5/CyLib.c ****     
2752:Generated_Source\PSoC5/CyLib.c ****     /*******************************************************************************
2753:Generated_Source\PSoC5/CyLib.c ****     * Function Name: CySysTickGetClockSource
2754:Generated_Source\PSoC5/CyLib.c ****     ****************************************************************************//**
2755:Generated_Source\PSoC5/CyLib.c ****     *
2756:Generated_Source\PSoC5/CyLib.c ****     *  Returns the current clock source of the SysTick counter.
2757:Generated_Source\PSoC5/CyLib.c ****     *
2758:Generated_Source\PSoC5/CyLib.c ****     *  \return 
2759:Generated_Source\PSoC5/CyLib.c ****     *   CY_SYS_SYST_CSR_CLK_SRC_SYSCLK     SysTick is clocked by CPU clock.
2760:Generated_Source\PSoC5/CyLib.c ****     *   CY_SYS_SYST_CSR_CLK_SRC_LFCLK      SysTick is clocked by the low frequency
2761:Generated_Source\PSoC5/CyLib.c ****     *                                      clock. (ILO 100 KHz for PSoC 5LP, and
2762:Generated_Source\PSoC5/CyLib.c ****     *                                      LFCLK for PSoC 4).
2763:Generated_Source\PSoC5/CyLib.c ****     *******************************************************************************/
2764:Generated_Source\PSoC5/CyLib.c ****     uint32 CySysTickGetClockSource(void)
2765:Generated_Source\PSoC5/CyLib.c ****     {
2766:Generated_Source\PSoC5/CyLib.c ****         return ((CY_SYS_SYST_CSR_REG >> CY_SYS_SYST_CSR_CLK_SOURCE_SHIFT) & CY_SYS_SYST_CSR_CLK_SRC
2767:Generated_Source\PSoC5/CyLib.c ****     }
2768:Generated_Source\PSoC5/CyLib.c **** 
2769:Generated_Source\PSoC5/CyLib.c ****     
2770:Generated_Source\PSoC5/CyLib.c ****     /*******************************************************************************
2771:Generated_Source\PSoC5/CyLib.c ****     * Function Name: CySysTickGetCountFlag
2772:Generated_Source\PSoC5/CyLib.c ****     ****************************************************************************//**
2773:Generated_Source\PSoC5/CyLib.c ****     *
2774:Generated_Source\PSoC5/CyLib.c ****     *  The count flag is set once SysTick counter reaches zero.
2775:Generated_Source\PSoC5/CyLib.c ****     *   The flag cleared on read.
2776:Generated_Source\PSoC5/CyLib.c ****     *
2777:Generated_Source\PSoC5/CyLib.c ****     * \return
2778:Generated_Source\PSoC5/CyLib.c ****     *  Returns non-zero value if flag is set, otherwise zero is returned.
2779:Generated_Source\PSoC5/CyLib.c ****     *
2780:Generated_Source\PSoC5/CyLib.c ****     *
2781:Generated_Source\PSoC5/CyLib.c ****     * \sideeffect
2782:Generated_Source\PSoC5/CyLib.c ****     *  Clears SysTick count flag if it was set.
2783:Generated_Source\PSoC5/CyLib.c ****     *
2784:Generated_Source\PSoC5/CyLib.c ****     *******************************************************************************/
2785:Generated_Source\PSoC5/CyLib.c ****     uint32 CySysTickGetCountFlag(void)
2786:Generated_Source\PSoC5/CyLib.c ****     {
ARM GAS  C:\Users\ingan\AppData\Local\Temp\ccwaQbAc.s 			page 114


2787:Generated_Source\PSoC5/CyLib.c ****         return ((CY_SYS_SYST_CSR_REG >> CY_SYS_SYST_CSR_COUNTFLAG_SHIFT) & 0x01u);
2788:Generated_Source\PSoC5/CyLib.c ****     }
2789:Generated_Source\PSoC5/CyLib.c **** 
2790:Generated_Source\PSoC5/CyLib.c **** 
2791:Generated_Source\PSoC5/CyLib.c ****     /*******************************************************************************
2792:Generated_Source\PSoC5/CyLib.c ****     * Function Name: CySysTickClear
2793:Generated_Source\PSoC5/CyLib.c ****     ****************************************************************************//**
2794:Generated_Source\PSoC5/CyLib.c ****     *
2795:Generated_Source\PSoC5/CyLib.c ****     *  Clears the SysTick counter for well-defined startup.
2796:Generated_Source\PSoC5/CyLib.c ****     *
2797:Generated_Source\PSoC5/CyLib.c ****     *******************************************************************************/
2798:Generated_Source\PSoC5/CyLib.c ****     void CySysTickClear(void)
2799:Generated_Source\PSoC5/CyLib.c ****     {
2800:Generated_Source\PSoC5/CyLib.c ****         CY_SYS_SYST_CVR_REG = 0u;
 3436              		.loc 1 2800 0
 3437 002e 084B     		ldr	r3, .L334+20
 3438 0030 1C60     		str	r4, [r3]
 3439              	.LBE27:
 3440              	.LBE26:
2601:Generated_Source\PSoC5/CyLib.c ****     }
 3441              		.loc 1 2601 0
 3442 0032 4FF40042 		mov	r2, #32768
 3443 0036 E833     		adds	r3, r3, #232
 3444 0038 1A60     		str	r2, [r3]
 3445 003a 10BD     		pop	{r4, pc}
 3446              	.L335:
 3447              		.align	2
 3448              	.L334:
 3449 003c 00000000 		.word	.LANCHOR1
 3450 0040 00000000 		.word	CySysTickServiceCallbacks
 3451 0044 00000000 		.word	.LANCHOR0
 3452 0048 D34D6210 		.word	274877907
 3453 004c 14E000E0 		.word	-536813548
 3454 0050 18E000E0 		.word	-536813544
 3455              		.cfi_endproc
 3456              	.LFE65:
 3457              		.size	CySysTickInit, .-CySysTickInit
 3458              		.section	.text.CySysTickStart,"ax",%progbits
 3459              		.align	2
 3460              		.global	CySysTickStart
 3461              		.thumb
 3462              		.thumb_func
 3463              		.type	CySysTickStart, %function
 3464              	CySysTickStart:
 3465              	.LFB64:
2560:Generated_Source\PSoC5/CyLib.c ****         if (0u == CySysTickInitVar)
 3466              		.loc 1 2560 0
 3467              		.cfi_startproc
 3468              		@ args = 0, pretend = 0, frame = 0
 3469              		@ frame_needed = 0, uses_anonymous_args = 0
 3470 0000 08B5     		push	{r3, lr}
 3471              		.cfi_def_cfa_offset 8
 3472              		.cfi_offset 3, -8
 3473              		.cfi_offset 14, -4
2561:Generated_Source\PSoC5/CyLib.c ****         {
 3474              		.loc 1 2561 0
 3475 0002 054B     		ldr	r3, .L339
ARM GAS  C:\Users\ingan\AppData\Local\Temp\ccwaQbAc.s 			page 115


 3476 0004 9B69     		ldr	r3, [r3, #24]
 3477 0006 23B9     		cbnz	r3, .L337
2563:Generated_Source\PSoC5/CyLib.c ****             CySysTickInitVar = 1u;
 3478              		.loc 1 2563 0
 3479 0008 FFF7FEFF 		bl	CySysTickInit
 3480              	.LVL206:
2564:Generated_Source\PSoC5/CyLib.c ****         }
 3481              		.loc 1 2564 0
 3482 000c 0122     		movs	r2, #1
 3483 000e 024B     		ldr	r3, .L339
 3484 0010 9A61     		str	r2, [r3, #24]
 3485              	.L337:
2567:Generated_Source\PSoC5/CyLib.c ****     }
 3486              		.loc 1 2567 0
 3487 0012 FFF7FEFF 		bl	CySysTickEnable
 3488              	.LVL207:
 3489 0016 08BD     		pop	{r3, pc}
 3490              	.L340:
 3491              		.align	2
 3492              	.L339:
 3493 0018 00000000 		.word	.LANCHOR1
 3494              		.cfi_endproc
 3495              	.LFE64:
 3496              		.size	CySysTickStart, .-CySysTickStart
 3497              		.section	.text.CySysTickGetClockSource,"ax",%progbits
 3498              		.align	2
 3499              		.global	CySysTickGetClockSource
 3500              		.thumb
 3501              		.thumb_func
 3502              		.type	CySysTickGetClockSource, %function
 3503              	CySysTickGetClockSource:
 3504              	.LFB74:
2765:Generated_Source\PSoC5/CyLib.c ****         return ((CY_SYS_SYST_CSR_REG >> CY_SYS_SYST_CSR_CLK_SOURCE_SHIFT) & CY_SYS_SYST_CSR_CLK_SRC
 3505              		.loc 1 2765 0
 3506              		.cfi_startproc
 3507              		@ args = 0, pretend = 0, frame = 0
 3508              		@ frame_needed = 0, uses_anonymous_args = 0
 3509              		@ link register save eliminated.
2766:Generated_Source\PSoC5/CyLib.c ****     }
 3510              		.loc 1 2766 0
 3511 0000 024B     		ldr	r3, .L342
 3512 0002 1868     		ldr	r0, [r3]
2767:Generated_Source\PSoC5/CyLib.c **** 
 3513              		.loc 1 2767 0
 3514 0004 C0F38000 		ubfx	r0, r0, #2, #1
 3515 0008 7047     		bx	lr
 3516              	.L343:
 3517 000a 00BF     		.align	2
 3518              	.L342:
 3519 000c 10E000E0 		.word	-536813552
 3520              		.cfi_endproc
 3521              	.LFE74:
 3522              		.size	CySysTickGetClockSource, .-CySysTickGetClockSource
 3523              		.section	.text.CySysTickGetCountFlag,"ax",%progbits
 3524              		.align	2
 3525              		.global	CySysTickGetCountFlag
 3526              		.thumb
ARM GAS  C:\Users\ingan\AppData\Local\Temp\ccwaQbAc.s 			page 116


 3527              		.thumb_func
 3528              		.type	CySysTickGetCountFlag, %function
 3529              	CySysTickGetCountFlag:
 3530              	.LFB75:
2786:Generated_Source\PSoC5/CyLib.c ****         return ((CY_SYS_SYST_CSR_REG >> CY_SYS_SYST_CSR_COUNTFLAG_SHIFT) & 0x01u);
 3531              		.loc 1 2786 0
 3532              		.cfi_startproc
 3533              		@ args = 0, pretend = 0, frame = 0
 3534              		@ frame_needed = 0, uses_anonymous_args = 0
 3535              		@ link register save eliminated.
2787:Generated_Source\PSoC5/CyLib.c ****     }
 3536              		.loc 1 2787 0
 3537 0000 024B     		ldr	r3, .L345
 3538 0002 1868     		ldr	r0, [r3]
2788:Generated_Source\PSoC5/CyLib.c **** 
 3539              		.loc 1 2788 0
 3540 0004 C0F30040 		ubfx	r0, r0, #16, #1
 3541 0008 7047     		bx	lr
 3542              	.L346:
 3543 000a 00BF     		.align	2
 3544              	.L345:
 3545 000c 10E000E0 		.word	-536813552
 3546              		.cfi_endproc
 3547              	.LFE75:
 3548              		.size	CySysTickGetCountFlag, .-CySysTickGetCountFlag
 3549              		.section	.text.CySysTickServiceCallbacks,"ax",%progbits
 3550              		.align	2
 3551              		.thumb
 3552              		.thumb_func
 3553              		.type	CySysTickServiceCallbacks, %function
 3554              	CySysTickServiceCallbacks:
 3555              	.LFB79:
2801:Generated_Source\PSoC5/CyLib.c ****     }
2802:Generated_Source\PSoC5/CyLib.c **** 
2803:Generated_Source\PSoC5/CyLib.c **** 
2804:Generated_Source\PSoC5/CyLib.c ****     /*******************************************************************************
2805:Generated_Source\PSoC5/CyLib.c ****     * Function Name: CySysTickSetCallback
2806:Generated_Source\PSoC5/CyLib.c ****     ****************************************************************************//**
2807:Generated_Source\PSoC5/CyLib.c ****     *
2808:Generated_Source\PSoC5/CyLib.c ****     *  This function allows up to five user-defined interrupt service routine
2809:Generated_Source\PSoC5/CyLib.c ****     *  functions to be associated with the SysTick interrupt. These are specified
2810:Generated_Source\PSoC5/CyLib.c ****     *  through the use of pointers to the function.
2811:Generated_Source\PSoC5/CyLib.c ****     *
2812:Generated_Source\PSoC5/CyLib.c ****     *  To set a custom callback function without the overhead of the system provided
2813:Generated_Source\PSoC5/CyLib.c ****     *  one, use CyIntSetSysVector(CY_INT_SYSTICK_IRQN, cyisraddress <address>),
2814:Generated_Source\PSoC5/CyLib.c ****     *  where <address> is address of the custom defined interrupt service routine.
2815:Generated_Source\PSoC5/CyLib.c ****     *  Note: a custom callback function overrides the system defined callback
2816:Generated_Source\PSoC5/CyLib.c ****     *  functions.
2817:Generated_Source\PSoC5/CyLib.c ****     *
2818:Generated_Source\PSoC5/CyLib.c ****     *  \param number: The number of the callback function addresses to be set. The valid
2819:Generated_Source\PSoC5/CyLib.c ****     *          range is from 0 to 4.
2820:Generated_Source\PSoC5/CyLib.c ****     *
2821:Generated_Source\PSoC5/CyLib.c ****     *  void(*CallbackFunction(void): A pointer to the function that will be
2822:Generated_Source\PSoC5/CyLib.c ****     *                                associated with the SysTick ISR for the
2823:Generated_Source\PSoC5/CyLib.c ****     *                                specified number.
2824:Generated_Source\PSoC5/CyLib.c ****     *
2825:Generated_Source\PSoC5/CyLib.c ****     * \return
ARM GAS  C:\Users\ingan\AppData\Local\Temp\ccwaQbAc.s 			page 117


2826:Generated_Source\PSoC5/CyLib.c ****     *  Returns the address of the previous callback function.
2827:Generated_Source\PSoC5/CyLib.c ****     *  The NULL is returned if the specified address in not set.
2828:Generated_Source\PSoC5/CyLib.c ****     *
2829:Generated_Source\PSoC5/CyLib.c ****     * \sideeffect
2830:Generated_Source\PSoC5/CyLib.c ****     *  The registered callback functions will be executed in the interrupt.
2831:Generated_Source\PSoC5/CyLib.c ****     *
2832:Generated_Source\PSoC5/CyLib.c ****     *******************************************************************************/
2833:Generated_Source\PSoC5/CyLib.c ****     cySysTickCallback CySysTickSetCallback(uint32 number, cySysTickCallback function)
2834:Generated_Source\PSoC5/CyLib.c ****     {
2835:Generated_Source\PSoC5/CyLib.c ****         cySysTickCallback retVal;
2836:Generated_Source\PSoC5/CyLib.c **** 
2837:Generated_Source\PSoC5/CyLib.c ****         retVal = CySysTickCallbacks[number];
2838:Generated_Source\PSoC5/CyLib.c ****         CySysTickCallbacks[number] = function;
2839:Generated_Source\PSoC5/CyLib.c ****         return (retVal);
2840:Generated_Source\PSoC5/CyLib.c ****     }
2841:Generated_Source\PSoC5/CyLib.c **** 
2842:Generated_Source\PSoC5/CyLib.c **** 
2843:Generated_Source\PSoC5/CyLib.c ****     /*******************************************************************************
2844:Generated_Source\PSoC5/CyLib.c ****     * Function Name: CySysTickGetCallback
2845:Generated_Source\PSoC5/CyLib.c ****     ****************************************************************************//**
2846:Generated_Source\PSoC5/CyLib.c ****     *
2847:Generated_Source\PSoC5/CyLib.c ****     *  The function get the specified callback pointer.
2848:Generated_Source\PSoC5/CyLib.c ****     *
2849:Generated_Source\PSoC5/CyLib.c ****     *  \param number: The number of callback function address to get. The valid
2850:Generated_Source\PSoC5/CyLib.c ****     *          range is from 0 to 4.
2851:Generated_Source\PSoC5/CyLib.c ****     *
2852:Generated_Source\PSoC5/CyLib.c ****     * \return
2853:Generated_Source\PSoC5/CyLib.c ****     *  Returns the address of the specified callback function.
2854:Generated_Source\PSoC5/CyLib.c ****     *  The NULL is returned if the specified address in not initialized.
2855:Generated_Source\PSoC5/CyLib.c ****     *
2856:Generated_Source\PSoC5/CyLib.c ****     *******************************************************************************/
2857:Generated_Source\PSoC5/CyLib.c ****     cySysTickCallback CySysTickGetCallback(uint32 number)
2858:Generated_Source\PSoC5/CyLib.c ****     {
2859:Generated_Source\PSoC5/CyLib.c ****         return ((cySysTickCallback) CySysTickCallbacks[number]);
2860:Generated_Source\PSoC5/CyLib.c ****     }
2861:Generated_Source\PSoC5/CyLib.c **** 
2862:Generated_Source\PSoC5/CyLib.c **** 
2863:Generated_Source\PSoC5/CyLib.c ****     /*******************************************************************************
2864:Generated_Source\PSoC5/CyLib.c ****     * Function Name: CySysTickServiceCallbacks
2865:Generated_Source\PSoC5/CyLib.c ****     ****************************************************************************//**
2866:Generated_Source\PSoC5/CyLib.c ****     *
2867:Generated_Source\PSoC5/CyLib.c ****     *  System Tick timer interrupt routine
2868:Generated_Source\PSoC5/CyLib.c ****     *
2869:Generated_Source\PSoC5/CyLib.c ****     *******************************************************************************/
2870:Generated_Source\PSoC5/CyLib.c ****     static void CySysTickServiceCallbacks(void)
2871:Generated_Source\PSoC5/CyLib.c ****     {
 3556              		.loc 1 2871 0
 3557              		.cfi_startproc
 3558              		@ args = 0, pretend = 0, frame = 0
 3559              		@ frame_needed = 0, uses_anonymous_args = 0
 3560 0000 38B5     		push	{r3, r4, r5, lr}
 3561              		.cfi_def_cfa_offset 16
 3562              		.cfi_offset 3, -16
 3563              		.cfi_offset 4, -12
 3564              		.cfi_offset 5, -8
 3565              		.cfi_offset 14, -4
2872:Generated_Source\PSoC5/CyLib.c ****         uint32 i;
ARM GAS  C:\Users\ingan\AppData\Local\Temp\ccwaQbAc.s 			page 118


2873:Generated_Source\PSoC5/CyLib.c **** 
2874:Generated_Source\PSoC5/CyLib.c ****         /* Verify that tick timer flag was set */
2875:Generated_Source\PSoC5/CyLib.c ****         if (1u == CySysTickGetCountFlag())
 3566              		.loc 1 2875 0
 3567 0002 FFF7FEFF 		bl	CySysTickGetCountFlag
 3568              	.LVL208:
 3569 0006 0128     		cmp	r0, #1
 3570 0008 08D1     		bne	.L347
 3571 000a 054D     		ldr	r5, .L353
 3572 000c 2C1D     		adds	r4, r5, #4
 3573 000e 1835     		adds	r5, r5, #24
 3574              	.L350:
2876:Generated_Source\PSoC5/CyLib.c ****         {
2877:Generated_Source\PSoC5/CyLib.c ****             for (i=0u; i < CY_SYS_SYST_NUM_OF_CALLBACKS; i++)
2878:Generated_Source\PSoC5/CyLib.c ****             {
2879:Generated_Source\PSoC5/CyLib.c ****                 if (CySysTickCallbacks[i] != (void *) 0)
 3575              		.loc 1 2879 0
 3576 0010 54F8043B 		ldr	r3, [r4], #4
 3577 0014 03B1     		cbz	r3, .L349
2880:Generated_Source\PSoC5/CyLib.c ****                 {
2881:Generated_Source\PSoC5/CyLib.c ****                     (void)(CySysTickCallbacks[i])();
 3578              		.loc 1 2881 0
 3579 0016 9847     		blx	r3
 3580              	.LVL209:
 3581              	.L349:
2877:Generated_Source\PSoC5/CyLib.c ****             {
 3582              		.loc 1 2877 0 discriminator 2
 3583 0018 AC42     		cmp	r4, r5
 3584 001a F9D1     		bne	.L350
 3585              	.L347:
 3586 001c 38BD     		pop	{r3, r4, r5, pc}
 3587              	.L354:
 3588 001e 00BF     		.align	2
 3589              	.L353:
 3590 0020 00000000 		.word	.LANCHOR1
 3591              		.cfi_endproc
 3592              	.LFE79:
 3593              		.size	CySysTickServiceCallbacks, .-CySysTickServiceCallbacks
 3594              		.section	.text.CySysTickClear,"ax",%progbits
 3595              		.align	2
 3596              		.global	CySysTickClear
 3597              		.thumb
 3598              		.thumb_func
 3599              		.type	CySysTickClear, %function
 3600              	CySysTickClear:
 3601              	.LFB76:
2799:Generated_Source\PSoC5/CyLib.c ****         CY_SYS_SYST_CVR_REG = 0u;
 3602              		.loc 1 2799 0
 3603              		.cfi_startproc
 3604              		@ args = 0, pretend = 0, frame = 0
 3605              		@ frame_needed = 0, uses_anonymous_args = 0
 3606              		@ link register save eliminated.
2800:Generated_Source\PSoC5/CyLib.c ****     }
 3607              		.loc 1 2800 0
 3608 0000 0022     		movs	r2, #0
 3609 0002 014B     		ldr	r3, .L356
 3610 0004 1A60     		str	r2, [r3]
ARM GAS  C:\Users\ingan\AppData\Local\Temp\ccwaQbAc.s 			page 119


 3611 0006 7047     		bx	lr
 3612              	.L357:
 3613              		.align	2
 3614              	.L356:
 3615 0008 18E000E0 		.word	-536813544
 3616              		.cfi_endproc
 3617              	.LFE76:
 3618              		.size	CySysTickClear, .-CySysTickClear
 3619              		.section	.text.CySysTickSetCallback,"ax",%progbits
 3620              		.align	2
 3621              		.global	CySysTickSetCallback
 3622              		.thumb
 3623              		.thumb_func
 3624              		.type	CySysTickSetCallback, %function
 3625              	CySysTickSetCallback:
 3626              	.LFB77:
2834:Generated_Source\PSoC5/CyLib.c ****         cySysTickCallback retVal;
 3627              		.loc 1 2834 0
 3628              		.cfi_startproc
 3629              		@ args = 0, pretend = 0, frame = 0
 3630              		@ frame_needed = 0, uses_anonymous_args = 0
 3631              		@ link register save eliminated.
 3632              	.LVL210:
2837:Generated_Source\PSoC5/CyLib.c ****         CySysTickCallbacks[number] = function;
 3633              		.loc 1 2837 0
 3634 0000 024B     		ldr	r3, .L359
 3635 0002 03EB8003 		add	r3, r3, r0, lsl #2
 3636 0006 5868     		ldr	r0, [r3, #4]
 3637              	.LVL211:
2838:Generated_Source\PSoC5/CyLib.c ****         return (retVal);
 3638              		.loc 1 2838 0
 3639 0008 5960     		str	r1, [r3, #4]
2840:Generated_Source\PSoC5/CyLib.c **** 
 3640              		.loc 1 2840 0
 3641 000a 7047     		bx	lr
 3642              	.L360:
 3643              		.align	2
 3644              	.L359:
 3645 000c 00000000 		.word	.LANCHOR1
 3646              		.cfi_endproc
 3647              	.LFE77:
 3648              		.size	CySysTickSetCallback, .-CySysTickSetCallback
 3649              		.section	.text.CySysTickGetCallback,"ax",%progbits
 3650              		.align	2
 3651              		.global	CySysTickGetCallback
 3652              		.thumb
 3653              		.thumb_func
 3654              		.type	CySysTickGetCallback, %function
 3655              	CySysTickGetCallback:
 3656              	.LFB78:
2858:Generated_Source\PSoC5/CyLib.c ****         return ((cySysTickCallback) CySysTickCallbacks[number]);
 3657              		.loc 1 2858 0
 3658              		.cfi_startproc
 3659              		@ args = 0, pretend = 0, frame = 0
 3660              		@ frame_needed = 0, uses_anonymous_args = 0
 3661              		@ link register save eliminated.
 3662              	.LVL212:
ARM GAS  C:\Users\ingan\AppData\Local\Temp\ccwaQbAc.s 			page 120


2859:Generated_Source\PSoC5/CyLib.c ****     }
 3663              		.loc 1 2859 0
 3664 0000 024B     		ldr	r3, .L362
 3665 0002 03EB8000 		add	r0, r3, r0, lsl #2
 3666              	.LVL213:
2860:Generated_Source\PSoC5/CyLib.c **** 
 3667              		.loc 1 2860 0
 3668 0006 4068     		ldr	r0, [r0, #4]
 3669 0008 7047     		bx	lr
 3670              	.L363:
 3671 000a 00BF     		.align	2
 3672              	.L362:
 3673 000c 00000000 		.word	.LANCHOR1
 3674              		.cfi_endproc
 3675              	.LFE78:
 3676              		.size	CySysTickGetCallback, .-CySysTickGetCallback
 3677              		.section	.text.CyGetUniqueId,"ax",%progbits
 3678              		.align	2
 3679              		.global	CyGetUniqueId
 3680              		.thumb
 3681              		.thumb_func
 3682              		.type	CyGetUniqueId, %function
 3683              	CyGetUniqueId:
 3684              	.LFB80:
2882:Generated_Source\PSoC5/CyLib.c ****                 }
2883:Generated_Source\PSoC5/CyLib.c ****             }
2884:Generated_Source\PSoC5/CyLib.c ****         }
2885:Generated_Source\PSoC5/CyLib.c ****     }
2886:Generated_Source\PSoC5/CyLib.c **** #endif /* (CY_PSOC5) */
2887:Generated_Source\PSoC5/CyLib.c **** 
2888:Generated_Source\PSoC5/CyLib.c **** 
2889:Generated_Source\PSoC5/CyLib.c **** /*******************************************************************************
2890:Generated_Source\PSoC5/CyLib.c **** * Function Name: CyGetUniqueId
2891:Generated_Source\PSoC5/CyLib.c **** ****************************************************************************//**
2892:Generated_Source\PSoC5/CyLib.c **** *
2893:Generated_Source\PSoC5/CyLib.c **** *  Returns the 64-bit unique ID of the device. The uniqueness of the number is
2894:Generated_Source\PSoC5/CyLib.c **** *  guaranteed for 10 years due to the die lot number having a cycle life of 10
2895:Generated_Source\PSoC5/CyLib.c **** *  years and even after 10 years, the probability of getting two identical
2896:Generated_Source\PSoC5/CyLib.c **** *  numbers is very small.
2897:Generated_Source\PSoC5/CyLib.c **** *
2898:Generated_Source\PSoC5/CyLib.c **** *  \param uniqueId: The pointer to a two element 32-bit unsigned integer array. Returns
2899:Generated_Source\PSoC5/CyLib.c **** *  the 64-bit unique ID of the device by loading them into the integer array
2900:Generated_Source\PSoC5/CyLib.c **** *  pointed to by uniqueId.
2901:Generated_Source\PSoC5/CyLib.c **** *
2902:Generated_Source\PSoC5/CyLib.c **** *******************************************************************************/
2903:Generated_Source\PSoC5/CyLib.c **** void CyGetUniqueId(uint32* uniqueId)
2904:Generated_Source\PSoC5/CyLib.c **** {
 3685              		.loc 1 2904 0
 3686              		.cfi_startproc
 3687              		@ args = 0, pretend = 0, frame = 0
 3688              		@ frame_needed = 0, uses_anonymous_args = 0
 3689              		@ link register save eliminated.
 3690              	.LVL214:
2905:Generated_Source\PSoC5/CyLib.c **** #if(CY_PSOC4)
2906:Generated_Source\PSoC5/CyLib.c ****     uniqueId[0u]  =  (uint32)(* (reg8 *) CYREG_SFLASH_DIE_LOT0  );
2907:Generated_Source\PSoC5/CyLib.c ****     uniqueId[0u] |= ((uint32)(* (reg8 *) CYREG_SFLASH_DIE_LOT1  ) <<  8u);
2908:Generated_Source\PSoC5/CyLib.c ****     uniqueId[0u] |= ((uint32)(* (reg8 *) CYREG_SFLASH_DIE_LOT2  ) << 16u);
ARM GAS  C:\Users\ingan\AppData\Local\Temp\ccwaQbAc.s 			page 121


2909:Generated_Source\PSoC5/CyLib.c ****     uniqueId[0u] |= ((uint32)(* (reg8 *) CYREG_SFLASH_DIE_WAFER ) << 24u);
2910:Generated_Source\PSoC5/CyLib.c **** 
2911:Generated_Source\PSoC5/CyLib.c ****     uniqueId[1u]  =  (uint32)(* (reg8 *) CYREG_SFLASH_DIE_X     );
2912:Generated_Source\PSoC5/CyLib.c ****     uniqueId[1u] |= ((uint32)(* (reg8 *) CYREG_SFLASH_DIE_Y     ) <<  8u);
2913:Generated_Source\PSoC5/CyLib.c ****     uniqueId[1u] |= ((uint32)(* (reg8 *) CYREG_SFLASH_DIE_SORT  ) << 16u);
2914:Generated_Source\PSoC5/CyLib.c ****     uniqueId[1u] |= ((uint32)(* (reg8 *) CYREG_SFLASH_DIE_MINOR ) << 24u);
2915:Generated_Source\PSoC5/CyLib.c **** #else
2916:Generated_Source\PSoC5/CyLib.c ****     uniqueId[0u]  =  (uint32) CY_GET_XTND_REG8((void CYFAR *) (CYREG_FLSHID_CUST_TABLES_LOT_LSB   )
 3691              		.loc 1 2916 0
 3692 0000 134B     		ldr	r3, .L365
 3693 0002 1B78     		ldrb	r3, [r3]	@ zero_extendqisi2
 3694 0004 DBB2     		uxtb	r3, r3
 3695 0006 0360     		str	r3, [r0]
2917:Generated_Source\PSoC5/CyLib.c ****     uniqueId[0u] |= ((uint32) CY_GET_XTND_REG8((void CYFAR *) (CYREG_FLSHID_CUST_TABLES_LOT_MSB   )
 3696              		.loc 1 2917 0
 3697 0008 124A     		ldr	r2, .L365+4
 3698 000a 1278     		ldrb	r2, [r2]	@ zero_extendqisi2
 3699 000c 43EA0223 		orr	r3, r3, r2, lsl #8
 3700 0010 0360     		str	r3, [r0]
2918:Generated_Source\PSoC5/CyLib.c ****     uniqueId[0u] |= ((uint32) CY_GET_XTND_REG8((void CYFAR *) (CYREG_MLOGIC_REV_ID                )
 3701              		.loc 1 2918 0
 3702 0012 114A     		ldr	r2, .L365+8
 3703 0014 1278     		ldrb	r2, [r2]	@ zero_extendqisi2
 3704 0016 43EA0243 		orr	r3, r3, r2, lsl #16
 3705 001a 0360     		str	r3, [r0]
2919:Generated_Source\PSoC5/CyLib.c ****     uniqueId[0u] |= ((uint32) CY_GET_XTND_REG8((void CYFAR *) (CYREG_FLSHID_CUST_TABLES_WAFER_NUM )
 3706              		.loc 1 2919 0
 3707 001c 0F4A     		ldr	r2, .L365+12
 3708 001e 1278     		ldrb	r2, [r2]	@ zero_extendqisi2
 3709 0020 43EA0263 		orr	r3, r3, r2, lsl #24
 3710 0024 0360     		str	r3, [r0]
2920:Generated_Source\PSoC5/CyLib.c **** 
2921:Generated_Source\PSoC5/CyLib.c ****     uniqueId[1u]  =  (uint32) CY_GET_XTND_REG8((void CYFAR *) (CYREG_FLSHID_CUST_TABLES_X_LOC     )
 3711              		.loc 1 2921 0
 3712 0026 0E4B     		ldr	r3, .L365+16
 3713 0028 1B78     		ldrb	r3, [r3]	@ zero_extendqisi2
 3714 002a DBB2     		uxtb	r3, r3
 3715 002c 4360     		str	r3, [r0, #4]
2922:Generated_Source\PSoC5/CyLib.c ****     uniqueId[1u] |= ((uint32) CY_GET_XTND_REG8((void CYFAR *) (CYREG_FLSHID_CUST_TABLES_Y_LOC     )
 3716              		.loc 1 2922 0
 3717 002e 0D4A     		ldr	r2, .L365+20
 3718 0030 1278     		ldrb	r2, [r2]	@ zero_extendqisi2
 3719 0032 43EA0223 		orr	r3, r3, r2, lsl #8
 3720 0036 4360     		str	r3, [r0, #4]
2923:Generated_Source\PSoC5/CyLib.c ****     uniqueId[1u] |= ((uint32) CY_GET_XTND_REG8((void CYFAR *) (CYREG_FLSHID_CUST_TABLES_WRK_WK    )
 3721              		.loc 1 2923 0
 3722 0038 0B4A     		ldr	r2, .L365+24
 3723 003a 1278     		ldrb	r2, [r2]	@ zero_extendqisi2
 3724 003c 43EA0243 		orr	r3, r3, r2, lsl #16
 3725 0040 4360     		str	r3, [r0, #4]
2924:Generated_Source\PSoC5/CyLib.c ****     uniqueId[1u] |= ((uint32) CY_GET_XTND_REG8((void CYFAR *) (CYREG_FLSHID_CUST_TABLES_FAB_YR    )
 3726              		.loc 1 2924 0
 3727 0042 0A4A     		ldr	r2, .L365+28
 3728 0044 1278     		ldrb	r2, [r2]	@ zero_extendqisi2
 3729 0046 43EA0263 		orr	r3, r3, r2, lsl #24
 3730 004a 4360     		str	r3, [r0, #4]
 3731 004c 7047     		bx	lr
ARM GAS  C:\Users\ingan\AppData\Local\Temp\ccwaQbAc.s 			page 122


 3732              	.L366:
 3733 004e 00BF     		.align	2
 3734              	.L365:
 3735 0050 03010049 		.word	1224737027
 3736 0054 04010049 		.word	1224737028
 3737 0058 EC460040 		.word	1073759980
 3738 005c 02010049 		.word	1224737026
 3739 0060 01010049 		.word	1224737025
 3740 0064 00010049 		.word	1224737024
 3741 0068 05010049 		.word	1224737029
 3742 006c 06010049 		.word	1224737030
 3743              		.cfi_endproc
 3744              	.LFE80:
 3745              		.size	CyGetUniqueId, .-CyGetUniqueId
 3746              		.global	CySysTickInitVar
 3747              		.global	cydelay_32k_ms
 3748              		.global	cydelay_freq_mhz
 3749              		.global	cydelay_freq_khz
 3750              		.global	cydelay_freq_hz
 3751              		.global	CyResetStatus
 3752              		.data
 3753              		.align	2
 3754              		.set	.LANCHOR0,. + 0
 3755              		.type	cydelay_32k_ms, %object
 3756              		.size	cydelay_32k_ms, 4
 3757              	cydelay_32k_ms:
 3758 0000 0000D859 		.word	1507328000
 3759              		.type	cydelay_freq_khz, %object
 3760              		.size	cydelay_freq_khz, 4
 3761              	cydelay_freq_khz:
 3762 0004 B0B30000 		.word	46000
 3763              		.type	cydelay_freq_mhz, %object
 3764              		.size	cydelay_freq_mhz, 1
 3765              	cydelay_freq_mhz:
 3766 0008 2E       		.byte	46
 3767 0009 000000   		.space	3
 3768              		.type	cydelay_freq_hz, %object
 3769              		.size	cydelay_freq_hz, 4
 3770              	cydelay_freq_hz:
 3771 000c 80E7BD02 		.word	46000000
 3772              		.section	.noinit,"aw",%progbits
 3773              		.type	CyResetStatus, %object
 3774              		.size	CyResetStatus, 1
 3775              	CyResetStatus:
 3776 0000 00       		.space	1
 3777              		.bss
 3778              		.align	2
 3779              		.set	.LANCHOR1,. + 0
 3780              		.type	interruptStatus.5207, %object
 3781              		.size	interruptStatus.5207, 1
 3782              	interruptStatus.5207:
 3783 0000 00       		.space	1
 3784 0001 000000   		.space	3
 3785              		.type	CySysTickCallbacks, %object
 3786              		.size	CySysTickCallbacks, 20
 3787              	CySysTickCallbacks:
 3788 0004 00000000 		.space	20
ARM GAS  C:\Users\ingan\AppData\Local\Temp\ccwaQbAc.s 			page 123


 3788      00000000 
 3788      00000000 
 3788      00000000 
 3788      00000000 
 3789              		.type	CySysTickInitVar, %object
 3790              		.size	CySysTickInitVar, 4
 3791              	CySysTickInitVar:
 3792 0018 00000000 		.space	4
 3793              		.text
 3794              	.Letext0:
 3795              		.file 2 "Generated_Source\\PSoC5\\cytypes.h"
 3796              		.file 3 "Generated_Source\\PSoC5\\CyLib.h"
 3797              		.file 4 "Generated_Source\\PSoC5\\cyPm.h"
 3798              		.section	.debug_info,"",%progbits
 3799              	.Ldebug_info0:
 3800 0000 CB120000 		.4byte	0x12cb
 3801 0004 0400     		.2byte	0x4
 3802 0006 00000000 		.4byte	.Ldebug_abbrev0
 3803 000a 04       		.byte	0x4
 3804 000b 01       		.uleb128 0x1
 3805 000c 42080000 		.4byte	.LASF165
 3806 0010 0C       		.byte	0xc
 3807 0011 78000000 		.4byte	.LASF166
 3808 0015 91090000 		.4byte	.LASF167
 3809 0019 18000000 		.4byte	.Ldebug_ranges0+0x18
 3810 001d 00000000 		.4byte	0
 3811 0021 00000000 		.4byte	.Ldebug_line0
 3812 0025 02       		.uleb128 0x2
 3813 0026 04       		.byte	0x4
 3814 0027 07       		.byte	0x7
 3815 0028 0D010000 		.4byte	.LASF0
 3816 002c 03       		.uleb128 0x3
 3817 002d 04       		.byte	0x4
 3818 002e 05       		.byte	0x5
 3819 002f 696E7400 		.ascii	"int\000"
 3820 0033 02       		.uleb128 0x2
 3821 0034 08       		.byte	0x8
 3822 0035 05       		.byte	0x5
 3823 0036 DA040000 		.4byte	.LASF1
 3824 003a 02       		.uleb128 0x2
 3825 003b 08       		.byte	0x8
 3826 003c 04       		.byte	0x4
 3827 003d 42060000 		.4byte	.LASF2
 3828 0041 02       		.uleb128 0x2
 3829 0042 01       		.byte	0x1
 3830 0043 06       		.byte	0x6
 3831 0044 65090000 		.4byte	.LASF3
 3832 0048 02       		.uleb128 0x2
 3833 0049 01       		.byte	0x1
 3834 004a 08       		.byte	0x8
 3835 004b F9070000 		.4byte	.LASF4
 3836 004f 02       		.uleb128 0x2
 3837 0050 02       		.byte	0x2
 3838 0051 05       		.byte	0x5
 3839 0052 AD060000 		.4byte	.LASF5
 3840 0056 02       		.uleb128 0x2
 3841 0057 02       		.byte	0x2
ARM GAS  C:\Users\ingan\AppData\Local\Temp\ccwaQbAc.s 			page 124


 3842 0058 07       		.byte	0x7
 3843 0059 71090000 		.4byte	.LASF6
 3844 005d 02       		.uleb128 0x2
 3845 005e 04       		.byte	0x4
 3846 005f 05       		.byte	0x5
 3847 0060 BF060000 		.4byte	.LASF7
 3848 0064 02       		.uleb128 0x2
 3849 0065 04       		.byte	0x4
 3850 0066 07       		.byte	0x7
 3851 0067 72070000 		.4byte	.LASF8
 3852 006b 02       		.uleb128 0x2
 3853 006c 08       		.byte	0x8
 3854 006d 07       		.byte	0x7
 3855 006e B9020000 		.4byte	.LASF9
 3856 0072 02       		.uleb128 0x2
 3857 0073 04       		.byte	0x4
 3858 0074 07       		.byte	0x7
 3859 0075 69070000 		.4byte	.LASF10
 3860 0079 02       		.uleb128 0x2
 3861 007a 01       		.byte	0x1
 3862 007b 08       		.byte	0x8
 3863 007c 1D040000 		.4byte	.LASF11
 3864 0080 04       		.uleb128 0x4
 3865 0081 04       		.byte	0x4
 3866 0082 86000000 		.4byte	0x86
 3867 0086 05       		.uleb128 0x5
 3868 0087 06       		.uleb128 0x6
 3869 0088 0E0A0000 		.4byte	.LASF12
 3870 008c 02       		.byte	0x2
 3871 008d E401     		.2byte	0x1e4
 3872 008f 48000000 		.4byte	0x48
 3873 0093 06       		.uleb128 0x6
 3874 0094 6E040000 		.4byte	.LASF13
 3875 0098 02       		.byte	0x2
 3876 0099 E501     		.2byte	0x1e5
 3877 009b 56000000 		.4byte	0x56
 3878 009f 06       		.uleb128 0x6
 3879 00a0 88050000 		.4byte	.LASF14
 3880 00a4 02       		.byte	0x2
 3881 00a5 E601     		.2byte	0x1e6
 3882 00a7 64000000 		.4byte	0x64
 3883 00ab 02       		.uleb128 0x2
 3884 00ac 04       		.byte	0x4
 3885 00ad 04       		.byte	0x4
 3886 00ae 56020000 		.4byte	.LASF15
 3887 00b2 02       		.uleb128 0x2
 3888 00b3 08       		.byte	0x8
 3889 00b4 04       		.byte	0x4
 3890 00b5 140A0000 		.4byte	.LASF16
 3891 00b9 06       		.uleb128 0x6
 3892 00ba DC070000 		.4byte	.LASF17
 3893 00be 02       		.byte	0x2
 3894 00bf 8602     		.2byte	0x286
 3895 00c1 64000000 		.4byte	0x64
 3896 00c5 06       		.uleb128 0x6
 3897 00c6 61010000 		.4byte	.LASF18
 3898 00ca 02       		.byte	0x2
ARM GAS  C:\Users\ingan\AppData\Local\Temp\ccwaQbAc.s 			page 125


 3899 00cb 8E02     		.2byte	0x28e
 3900 00cd D1000000 		.4byte	0xd1
 3901 00d1 07       		.uleb128 0x7
 3902 00d2 87000000 		.4byte	0x87
 3903 00d6 06       		.uleb128 0x6
 3904 00d7 E8040000 		.4byte	.LASF19
 3905 00db 02       		.byte	0x2
 3906 00dc 8F02     		.2byte	0x28f
 3907 00de E2000000 		.4byte	0xe2
 3908 00e2 07       		.uleb128 0x7
 3909 00e3 93000000 		.4byte	0x93
 3910 00e7 06       		.uleb128 0x6
 3911 00e8 69060000 		.4byte	.LASF20
 3912 00ec 02       		.byte	0x2
 3913 00ed 9002     		.2byte	0x290
 3914 00ef F3000000 		.4byte	0xf3
 3915 00f3 07       		.uleb128 0x7
 3916 00f4 9F000000 		.4byte	0x9f
 3917 00f8 06       		.uleb128 0x6
 3918 00f9 64050000 		.4byte	.LASF21
 3919 00fd 02       		.byte	0x2
 3920 00fe A002     		.2byte	0x2a0
 3921 0100 80000000 		.4byte	0x80
 3922 0104 08       		.uleb128 0x8
 3923 0105 0B040000 		.4byte	.LASF22
 3924 0109 03       		.byte	0x3
 3925 010a AC       		.byte	0xac
 3926 010b 80000000 		.4byte	0x80
 3927 010f 09       		.uleb128 0x9
 3928 0110 D3030000 		.4byte	.LASF168
 3929 0114 01       		.byte	0x1
 3930 0115 5501     		.2byte	0x155
 3931 0117 87000000 		.4byte	0x87
 3932 011b 01       		.byte	0x1
 3933 011c 2D010000 		.4byte	0x12d
 3934 0120 0A       		.uleb128 0xa
 3935 0121 75040000 		.4byte	.LASF146
 3936 0125 01       		.byte	0x1
 3937 0126 5701     		.2byte	0x157
 3938 0128 87000000 		.4byte	0x87
 3939 012c 00       		.byte	0
 3940 012d 0B       		.uleb128 0xb
 3941 012e 37000000 		.4byte	.LASF23
 3942 0132 01       		.byte	0x1
 3943 0133 6F01     		.2byte	0x16f
 3944 0135 00000000 		.4byte	.LFB7
 3945 0139 F4000000 		.4byte	.LFE7-.LFB7
 3946 013d 01       		.uleb128 0x1
 3947 013e 9C       		.byte	0x9c
 3948 013f 84010000 		.4byte	0x184
 3949 0143 0C       		.uleb128 0xc
 3950 0144 CE030000 		.4byte	.LASF25
 3951 0148 01       		.byte	0x1
 3952 0149 6F01     		.2byte	0x16f
 3953 014b 87000000 		.4byte	0x87
 3954 014f 01       		.uleb128 0x1
 3955 0150 50       		.byte	0x50
ARM GAS  C:\Users\ingan\AppData\Local\Temp\ccwaQbAc.s 			page 126


 3956 0151 0D       		.uleb128 0xd
 3957 0152 7B060000 		.4byte	.LASF39
 3958 0156 01       		.byte	0x1
 3959 0157 7101     		.2byte	0x171
 3960 0159 87000000 		.4byte	0x87
 3961 015d 01       		.uleb128 0x1
 3962 015e 53       		.byte	0x53
 3963 015f 0E       		.uleb128 0xe
 3964 0160 0F010000 		.4byte	0x10f
 3965 0164 00000000 		.4byte	.LBB4
 3966 0168 30000000 		.4byte	.LBE4-.LBB4
 3967 016c 01       		.byte	0x1
 3968 016d 7101     		.2byte	0x171
 3969 016f 0F       		.uleb128 0xf
 3970 0170 00000000 		.4byte	.LBB5
 3971 0174 30000000 		.4byte	.LBE5-.LBB5
 3972 0178 10       		.uleb128 0x10
 3973 0179 20010000 		.4byte	0x120
 3974 017d 00000000 		.4byte	.LLST0
 3975 0181 00       		.byte	0
 3976 0182 00       		.byte	0
 3977 0183 00       		.byte	0
 3978 0184 0B       		.uleb128 0xb
 3979 0185 2A030000 		.4byte	.LASF24
 3980 0189 01       		.byte	0x1
 3981 018a DC02     		.2byte	0x2dc
 3982 018c 00000000 		.4byte	.LFB14
 3983 0190 48000000 		.4byte	.LFE14-.LFB14
 3984 0194 01       		.uleb128 0x1
 3985 0195 9C       		.byte	0x9c
 3986 0196 AB010000 		.4byte	0x1ab
 3987 019a 11       		.uleb128 0x11
 3988 019b B7060000 		.4byte	.LASF26
 3989 019f 01       		.byte	0x1
 3990 01a0 DC02     		.2byte	0x2dc
 3991 01a2 93000000 		.4byte	0x93
 3992 01a6 14000000 		.4byte	.LLST1
 3993 01aa 00       		.byte	0
 3994 01ab 12       		.uleb128 0x12
 3995 01ac 73020000 		.4byte	.LASF33
 3996 01b0 01       		.byte	0x1
 3997 01b1 9A       		.byte	0x9a
 3998 01b2 00000000 		.4byte	.LFB1
 3999 01b6 10000000 		.4byte	.LFE1-.LFB1
 4000 01ba 01       		.uleb128 0x1
 4001 01bb 9C       		.byte	0x9c
 4002 01bc 13       		.uleb128 0x13
 4003 01bd C6000000 		.4byte	.LASF30
 4004 01c1 01       		.byte	0x1
 4005 01c2 BB       		.byte	0xbb
 4006 01c3 00000000 		.4byte	.LFB2
 4007 01c7 38000000 		.4byte	.LFE2-.LFB2
 4008 01cb 01       		.uleb128 0x1
 4009 01cc 9C       		.byte	0x9c
 4010 01cd FD010000 		.4byte	0x1fd
 4011 01d1 14       		.uleb128 0x14
 4012 01d2 C8010000 		.4byte	.LASF27
ARM GAS  C:\Users\ingan\AppData\Local\Temp\ccwaQbAc.s 			page 127


 4013 01d6 01       		.byte	0x1
 4014 01d7 BB       		.byte	0xbb
 4015 01d8 87000000 		.4byte	0x87
 4016 01dc 01       		.uleb128 0x1
 4017 01dd 50       		.byte	0x50
 4018 01de 15       		.uleb128 0x15
 4019 01df 42070000 		.4byte	.LASF28
 4020 01e3 01       		.byte	0x1
 4021 01e4 BB       		.byte	0xbb
 4022 01e5 87000000 		.4byte	0x87
 4023 01e9 35000000 		.4byte	.LLST2
 4024 01ed 15       		.uleb128 0x15
 4025 01ee F6090000 		.4byte	.LASF29
 4026 01f2 01       		.byte	0x1
 4027 01f3 BB       		.byte	0xbb
 4028 01f4 87000000 		.4byte	0x87
 4029 01f8 56000000 		.4byte	.LLST3
 4030 01fc 00       		.byte	0
 4031 01fd 13       		.uleb128 0x13
 4032 01fe 86060000 		.4byte	.LASF31
 4033 0202 01       		.byte	0x1
 4034 0203 ED       		.byte	0xed
 4035 0204 00000000 		.4byte	.LFB3
 4036 0208 14000000 		.4byte	.LFE3-.LFB3
 4037 020c 01       		.uleb128 0x1
 4038 020d 9C       		.byte	0x9c
 4039 020e 22020000 		.4byte	0x222
 4040 0212 15       		.uleb128 0x15
 4041 0213 4D070000 		.4byte	.LASF32
 4042 0217 01       		.byte	0x1
 4043 0218 ED       		.byte	0xed
 4044 0219 87000000 		.4byte	0x87
 4045 021d 77000000 		.4byte	.LLST4
 4046 0221 00       		.byte	0
 4047 0222 16       		.uleb128 0x16
 4048 0223 63030000 		.4byte	.LASF34
 4049 0227 01       		.byte	0x1
 4050 0228 4401     		.2byte	0x144
 4051 022a 00000000 		.4byte	.LFB5
 4052 022e 1C000000 		.4byte	.LFE5-.LFB5
 4053 0232 01       		.uleb128 0x1
 4054 0233 9C       		.byte	0x9c
 4055 0234 17       		.uleb128 0x17
 4056 0235 DD090000 		.4byte	.LASF35
 4057 0239 01       		.byte	0x1
 4058 023a 5F02     		.2byte	0x25f
 4059 023c 00000000 		.4byte	.LFB9
 4060 0240 50000000 		.4byte	.LFE9-.LFB9
 4061 0244 01       		.uleb128 0x1
 4062 0245 9C       		.byte	0x9c
 4063 0246 59020000 		.4byte	0x259
 4064 024a 0C       		.uleb128 0xc
 4065 024b 4D070000 		.4byte	.LASF32
 4066 024f 01       		.byte	0x1
 4067 0250 5F02     		.2byte	0x25f
 4068 0252 87000000 		.4byte	0x87
 4069 0256 01       		.uleb128 0x1
ARM GAS  C:\Users\ingan\AppData\Local\Temp\ccwaQbAc.s 			page 128


 4070 0257 50       		.byte	0x50
 4071 0258 00       		.byte	0
 4072 0259 16       		.uleb128 0x16
 4073 025a B4010000 		.4byte	.LASF36
 4074 025e 01       		.byte	0x1
 4075 025f 8102     		.2byte	0x281
 4076 0261 00000000 		.4byte	.LFB10
 4077 0265 10000000 		.4byte	.LFE10-.LFB10
 4078 0269 01       		.uleb128 0x1
 4079 026a 9C       		.byte	0x9c
 4080 026b 16       		.uleb128 0x16
 4081 026c F8000000 		.4byte	.LASF37
 4082 0270 01       		.byte	0x1
 4083 0271 8F02     		.2byte	0x28f
 4084 0273 00000000 		.4byte	.LFB11
 4085 0277 10000000 		.4byte	.LFE11-.LFB11
 4086 027b 01       		.uleb128 0x1
 4087 027c 9C       		.byte	0x9c
 4088 027d 17       		.uleb128 0x17
 4089 027e 34020000 		.4byte	.LASF38
 4090 0282 01       		.byte	0x1
 4091 0283 C901     		.2byte	0x1c9
 4092 0285 00000000 		.4byte	.LFB8
 4093 0289 E0000000 		.4byte	.LFE8-.LFB8
 4094 028d 01       		.uleb128 0x1
 4095 028e 9C       		.byte	0x9c
 4096 028f FA020000 		.4byte	0x2fa
 4097 0293 11       		.uleb128 0x11
 4098 0294 CE030000 		.4byte	.LASF25
 4099 0298 01       		.byte	0x1
 4100 0299 C901     		.2byte	0x1c9
 4101 029b 87000000 		.4byte	0x87
 4102 029f 98000000 		.4byte	.LLST5
 4103 02a3 18       		.uleb128 0x18
 4104 02a4 A7030000 		.4byte	.LASF40
 4105 02a8 01       		.byte	0x1
 4106 02a9 CB01     		.2byte	0x1cb
 4107 02ab 87000000 		.4byte	0x87
 4108 02af B9000000 		.4byte	.LLST6
 4109 02b3 18       		.uleb128 0x18
 4110 02b4 95020000 		.4byte	.LASF41
 4111 02b8 01       		.byte	0x1
 4112 02b9 CC01     		.2byte	0x1cc
 4113 02bb 87000000 		.4byte	0x87
 4114 02bf E3000000 		.4byte	.LLST7
 4115 02c3 19       		.uleb128 0x19
 4116 02c4 34000000 		.4byte	.LVL19
 4117 02c8 2D010000 		.4byte	0x12d
 4118 02cc D7020000 		.4byte	0x2d7
 4119 02d0 1A       		.uleb128 0x1a
 4120 02d1 01       		.uleb128 0x1
 4121 02d2 50       		.byte	0x50
 4122 02d3 02       		.uleb128 0x2
 4123 02d4 75       		.byte	0x75
 4124 02d5 00       		.sleb128 0
 4125 02d6 00       		.byte	0
 4126 02d7 1B       		.uleb128 0x1b
ARM GAS  C:\Users\ingan\AppData\Local\Temp\ccwaQbAc.s 			page 129


 4127 02d8 CA000000 		.4byte	.LVL20
 4128 02dc 59020000 		.4byte	0x259
 4129 02e0 1B       		.uleb128 0x1b
 4130 02e1 D0000000 		.4byte	.LVL21
 4131 02e5 6B020000 		.4byte	0x26b
 4132 02e9 1C       		.uleb128 0x1c
 4133 02ea DA000000 		.4byte	.LVL22
 4134 02ee 2D010000 		.4byte	0x12d
 4135 02f2 1A       		.uleb128 0x1a
 4136 02f3 01       		.uleb128 0x1
 4137 02f4 50       		.byte	0x50
 4138 02f5 02       		.uleb128 0x2
 4139 02f6 75       		.byte	0x75
 4140 02f7 00       		.sleb128 0
 4141 02f8 00       		.byte	0
 4142 02f9 00       		.byte	0
 4143 02fa 17       		.uleb128 0x17
 4144 02fb 1C060000 		.4byte	.LASF42
 4145 02ff 01       		.byte	0x1
 4146 0300 AD02     		.2byte	0x2ad
 4147 0302 00000000 		.4byte	.LFB12
 4148 0306 18000000 		.4byte	.LFE12-.LFB12
 4149 030a 01       		.uleb128 0x1
 4150 030b 9C       		.byte	0x9c
 4151 030c 21030000 		.4byte	0x321
 4152 0310 11       		.uleb128 0x11
 4153 0311 4D070000 		.4byte	.LASF32
 4154 0315 01       		.byte	0x1
 4155 0316 AD02     		.2byte	0x2ad
 4156 0318 87000000 		.4byte	0x87
 4157 031c F6000000 		.4byte	.LLST8
 4158 0320 00       		.byte	0
 4159 0321 1D       		.uleb128 0x1d
 4160 0322 5C020000 		.4byte	.LASF133
 4161 0326 01       		.byte	0x1
 4162 0327 CB02     		.2byte	0x2cb
 4163 0329 01       		.byte	0x1
 4164 032a 3B030000 		.4byte	0x33b
 4165 032e 1E       		.uleb128 0x1e
 4166 032f B7060000 		.4byte	.LASF26
 4167 0333 01       		.byte	0x1
 4168 0334 CB02     		.2byte	0x2cb
 4169 0336 87000000 		.4byte	0x87
 4170 033a 00       		.byte	0
 4171 033b 1F       		.uleb128 0x1f
 4172 033c 21030000 		.4byte	0x321
 4173 0340 00000000 		.4byte	.LFB13
 4174 0344 0C000000 		.4byte	.LFE13-.LFB13
 4175 0348 01       		.uleb128 0x1
 4176 0349 9C       		.byte	0x9c
 4177 034a 56030000 		.4byte	0x356
 4178 034e 20       		.uleb128 0x20
 4179 034f 2E030000 		.4byte	0x32e
 4180 0353 01       		.uleb128 0x1
 4181 0354 50       		.byte	0x50
 4182 0355 00       		.byte	0
 4183 0356 17       		.uleb128 0x17
ARM GAS  C:\Users\ingan\AppData\Local\Temp\ccwaQbAc.s 			page 130


 4184 0357 E5070000 		.4byte	.LASF43
 4185 035b 01       		.byte	0x1
 4186 035c 0603     		.2byte	0x306
 4187 035e 00000000 		.4byte	.LFB15
 4188 0362 90000000 		.4byte	.LFE15-.LFB15
 4189 0366 01       		.uleb128 0x1
 4190 0367 9C       		.byte	0x9c
 4191 0368 38040000 		.4byte	0x438
 4192 036c 11       		.uleb128 0x11
 4193 036d B7060000 		.4byte	.LASF26
 4194 0371 01       		.byte	0x1
 4195 0372 0603     		.2byte	0x306
 4196 0374 93000000 		.4byte	0x93
 4197 0378 17010000 		.4byte	.LLST9
 4198 037c 18       		.uleb128 0x18
 4199 037d 1A010000 		.4byte	.LASF44
 4200 0381 01       		.byte	0x1
 4201 0382 0803     		.2byte	0x308
 4202 0384 87000000 		.4byte	0x87
 4203 0388 38010000 		.4byte	.LLST10
 4204 038c 18       		.uleb128 0x18
 4205 038d 9D030000 		.4byte	.LASF45
 4206 0391 01       		.byte	0x1
 4207 0392 0903     		.2byte	0x309
 4208 0394 93000000 		.4byte	0x93
 4209 0398 61010000 		.4byte	.LLST11
 4210 039c 0D       		.uleb128 0xd
 4211 039d 52010000 		.4byte	.LASF46
 4212 03a1 01       		.byte	0x1
 4213 03a2 0A03     		.2byte	0x30a
 4214 03a4 87000000 		.4byte	0x87
 4215 03a8 01       		.uleb128 0x1
 4216 03a9 56       		.byte	0x56
 4217 03aa 21       		.uleb128 0x21
 4218 03ab 21030000 		.4byte	0x321
 4219 03af 42000000 		.4byte	.LBB10
 4220 03b3 06000000 		.4byte	.LBE10-.LBB10
 4221 03b7 01       		.byte	0x1
 4222 03b8 2A03     		.2byte	0x32a
 4223 03ba C8030000 		.4byte	0x3c8
 4224 03be 22       		.uleb128 0x22
 4225 03bf 2E030000 		.4byte	0x32e
 4226 03c3 AB010000 		.4byte	.LLST12
 4227 03c7 00       		.byte	0
 4228 03c8 21       		.uleb128 0x21
 4229 03c9 21030000 		.4byte	0x321
 4230 03cd 6E000000 		.4byte	.LBB12
 4231 03d1 22000000 		.4byte	.LBE12-.LBB12
 4232 03d5 01       		.byte	0x1
 4233 03d6 1A03     		.2byte	0x31a
 4234 03d8 E3030000 		.4byte	0x3e3
 4235 03dc 23       		.uleb128 0x23
 4236 03dd 2E030000 		.4byte	0x32e
 4237 03e1 07       		.byte	0x7
 4238 03e2 00       		.byte	0
 4239 03e3 1B       		.uleb128 0x1b
 4240 03e4 08000000 		.4byte	.LVL28
ARM GAS  C:\Users\ingan\AppData\Local\Temp\ccwaQbAc.s 			page 131


 4241 03e8 97120000 		.4byte	0x1297
 4242 03ec 19       		.uleb128 0x19
 4243 03ed 30000000 		.4byte	.LVL34
 4244 03f1 84010000 		.4byte	0x184
 4245 03f5 FF030000 		.4byte	0x3ff
 4246 03f9 1A       		.uleb128 0x1a
 4247 03fa 01       		.uleb128 0x1
 4248 03fb 50       		.byte	0x50
 4249 03fc 01       		.uleb128 0x1
 4250 03fd 30       		.byte	0x30
 4251 03fe 00       		.byte	0
 4252 03ff 19       		.uleb128 0x19
 4253 0400 38000000 		.4byte	.LVL35
 4254 0404 84010000 		.4byte	0x184
 4255 0408 13040000 		.4byte	0x413
 4256 040c 1A       		.uleb128 0x1a
 4257 040d 01       		.uleb128 0x1
 4258 040e 50       		.byte	0x50
 4259 040f 02       		.uleb128 0x2
 4260 0410 75       		.byte	0x75
 4261 0411 00       		.sleb128 0
 4262 0412 00       		.byte	0
 4263 0413 19       		.uleb128 0x19
 4264 0414 4E000000 		.4byte	.LVL38
 4265 0418 84010000 		.4byte	0x184
 4266 041c 27040000 		.4byte	0x427
 4267 0420 1A       		.uleb128 0x1a
 4268 0421 01       		.uleb128 0x1
 4269 0422 50       		.byte	0x50
 4270 0423 02       		.uleb128 0x2
 4271 0424 75       		.byte	0x75
 4272 0425 00       		.sleb128 0
 4273 0426 00       		.byte	0
 4274 0427 1C       		.uleb128 0x1c
 4275 0428 54000000 		.4byte	.LVL39
 4276 042c A2120000 		.4byte	0x12a2
 4277 0430 1A       		.uleb128 0x1a
 4278 0431 01       		.uleb128 0x1
 4279 0432 50       		.byte	0x50
 4280 0433 02       		.uleb128 0x2
 4281 0434 76       		.byte	0x76
 4282 0435 00       		.sleb128 0
 4283 0436 00       		.byte	0
 4284 0437 00       		.byte	0
 4285 0438 17       		.uleb128 0x17
 4286 0439 D0080000 		.4byte	.LASF47
 4287 043d 01       		.byte	0x1
 4288 043e 6003     		.2byte	0x360
 4289 0440 00000000 		.4byte	.LFB16
 4290 0444 18000000 		.4byte	.LFE16-.LFB16
 4291 0448 01       		.uleb128 0x1
 4292 0449 9C       		.byte	0x9c
 4293 044a 5F040000 		.4byte	0x45f
 4294 044e 11       		.uleb128 0x11
 4295 044f 4D070000 		.4byte	.LASF32
 4296 0453 01       		.byte	0x1
 4297 0454 6003     		.2byte	0x360
ARM GAS  C:\Users\ingan\AppData\Local\Temp\ccwaQbAc.s 			page 132


 4298 0456 87000000 		.4byte	0x87
 4299 045a BE010000 		.4byte	.LLST13
 4300 045e 00       		.byte	0
 4301 045f 16       		.uleb128 0x16
 4302 0460 C0030000 		.4byte	.LASF48
 4303 0464 01       		.byte	0x1
 4304 0465 7203     		.2byte	0x372
 4305 0467 00000000 		.4byte	.LFB17
 4306 046b 10000000 		.4byte	.LFE17-.LFB17
 4307 046f 01       		.uleb128 0x1
 4308 0470 9C       		.byte	0x9c
 4309 0471 16       		.uleb128 0x16
 4310 0472 7E010000 		.4byte	.LASF49
 4311 0476 01       		.byte	0x1
 4312 0477 8703     		.2byte	0x387
 4313 0479 00000000 		.4byte	.LFB18
 4314 047d 10000000 		.4byte	.LFE18-.LFB18
 4315 0481 01       		.uleb128 0x1
 4316 0482 9C       		.byte	0x9c
 4317 0483 16       		.uleb128 0x16
 4318 0484 32060000 		.4byte	.LASF50
 4319 0488 01       		.byte	0x1
 4320 0489 9503     		.2byte	0x395
 4321 048b 00000000 		.4byte	.LFB19
 4322 048f 10000000 		.4byte	.LFE19-.LFB19
 4323 0493 01       		.uleb128 0x1
 4324 0494 9C       		.byte	0x9c
 4325 0495 16       		.uleb128 0x16
 4326 0496 06090000 		.4byte	.LASF51
 4327 049a 01       		.byte	0x1
 4328 049b A203     		.2byte	0x3a2
 4329 049d 00000000 		.4byte	.LFB20
 4330 04a1 10000000 		.4byte	.LFE20-.LFB20
 4331 04a5 01       		.uleb128 0x1
 4332 04a6 9C       		.byte	0x9c
 4333 04a7 24       		.uleb128 0x24
 4334 04a8 46040000 		.4byte	.LASF64
 4335 04ac 01       		.byte	0x1
 4336 04ad 61       		.byte	0x61
 4337 04ae B9000000 		.4byte	0xb9
 4338 04b2 00000000 		.4byte	.LFB0
 4339 04b6 84000000 		.4byte	.LFE0-.LFB0
 4340 04ba 01       		.uleb128 0x1
 4341 04bb 9C       		.byte	0x9c
 4342 04bc 3C050000 		.4byte	0x53c
 4343 04c0 15       		.uleb128 0x15
 4344 04c1 05060000 		.4byte	.LASF52
 4345 04c5 01       		.byte	0x1
 4346 04c6 61       		.byte	0x61
 4347 04c7 87000000 		.4byte	0x87
 4348 04cb DF010000 		.4byte	.LLST14
 4349 04cf 25       		.uleb128 0x25
 4350 04d0 8E040000 		.4byte	.LASF53
 4351 04d4 01       		.byte	0x1
 4352 04d5 63       		.byte	0x63
 4353 04d6 B9000000 		.4byte	0xb9
 4354 04da 19020000 		.4byte	.LLST15
ARM GAS  C:\Users\ingan\AppData\Local\Temp\ccwaQbAc.s 			page 133


 4355 04de 25       		.uleb128 0x25
 4356 04df 1B0A0000 		.4byte	.LASF54
 4357 04e3 01       		.byte	0x1
 4358 04e4 65       		.byte	0x65
 4359 04e5 87000000 		.4byte	0x87
 4360 04e9 66020000 		.4byte	.LLST16
 4361 04ed 25       		.uleb128 0x25
 4362 04ee 56050000 		.4byte	.LASF55
 4363 04f2 01       		.byte	0x1
 4364 04f3 66       		.byte	0x66
 4365 04f4 87000000 		.4byte	0x87
 4366 04f8 79020000 		.4byte	.LLST17
 4367 04fc 25       		.uleb128 0x25
 4368 04fd 20070000 		.4byte	.LASF56
 4369 0501 01       		.byte	0x1
 4370 0502 67       		.byte	0x67
 4371 0503 87000000 		.4byte	0x87
 4372 0507 8C020000 		.4byte	.LLST18
 4373 050b 19       		.uleb128 0x19
 4374 050c 30000000 		.4byte	.LVL55
 4375 0510 AD120000 		.4byte	0x12ad
 4376 0514 1E050000 		.4byte	0x51e
 4377 0518 1A       		.uleb128 0x1a
 4378 0519 01       		.uleb128 0x1
 4379 051a 50       		.byte	0x50
 4380 051b 01       		.uleb128 0x1
 4381 051c 48       		.byte	0x48
 4382 051d 00       		.byte	0
 4383 051e 19       		.uleb128 0x19
 4384 051f 4C000000 		.4byte	.LVL56
 4385 0523 B8120000 		.4byte	0x12b8
 4386 0527 32050000 		.4byte	0x532
 4387 052b 1A       		.uleb128 0x1a
 4388 052c 01       		.uleb128 0x1
 4389 052d 50       		.byte	0x50
 4390 052e 02       		.uleb128 0x2
 4391 052f 75       		.byte	0x75
 4392 0530 00       		.sleb128 0
 4393 0531 00       		.byte	0
 4394 0532 1B       		.uleb128 0x1b
 4395 0533 5E000000 		.4byte	.LVL58
 4396 0537 95040000 		.4byte	0x495
 4397 053b 00       		.byte	0
 4398 053c 17       		.uleb128 0x17
 4399 053d 12050000 		.4byte	.LASF57
 4400 0541 01       		.byte	0x1
 4401 0542 1A01     		.2byte	0x11a
 4402 0544 00000000 		.4byte	.LFB4
 4403 0548 60000000 		.4byte	.LFE4-.LFB4
 4404 054c 01       		.uleb128 0x1
 4405 054d 9C       		.byte	0x9c
 4406 054e C3050000 		.4byte	0x5c3
 4407 0552 11       		.uleb128 0x11
 4408 0553 05060000 		.4byte	.LASF52
 4409 0557 01       		.byte	0x1
 4410 0558 1A01     		.2byte	0x11a
 4411 055a 87000000 		.4byte	0x87
ARM GAS  C:\Users\ingan\AppData\Local\Temp\ccwaQbAc.s 			page 134


 4412 055e 9F020000 		.4byte	.LLST19
 4413 0562 18       		.uleb128 0x18
 4414 0563 440A0000 		.4byte	.LASF58
 4415 0567 01       		.byte	0x1
 4416 0568 1C01     		.2byte	0x11c
 4417 056a 87000000 		.4byte	0x87
 4418 056e C0020000 		.4byte	.LLST20
 4419 0572 18       		.uleb128 0x18
 4420 0573 84090000 		.4byte	.LASF59
 4421 0577 01       		.byte	0x1
 4422 0578 1D01     		.2byte	0x11d
 4423 057a 87000000 		.4byte	0x87
 4424 057e D3020000 		.4byte	.LLST21
 4425 0582 18       		.uleb128 0x18
 4426 0583 A4070000 		.4byte	.LASF60
 4427 0587 01       		.byte	0x1
 4428 0588 1E01     		.2byte	0x11e
 4429 058a 87000000 		.4byte	0x87
 4430 058e E6020000 		.4byte	.LLST22
 4431 0592 19       		.uleb128 0x19
 4432 0593 34000000 		.4byte	.LVL67
 4433 0597 AD120000 		.4byte	0x12ad
 4434 059b A5050000 		.4byte	0x5a5
 4435 059f 1A       		.uleb128 0x1a
 4436 05a0 01       		.uleb128 0x1
 4437 05a1 50       		.byte	0x50
 4438 05a2 01       		.uleb128 0x1
 4439 05a3 30       		.byte	0x30
 4440 05a4 00       		.byte	0
 4441 05a5 19       		.uleb128 0x19
 4442 05a6 3C000000 		.4byte	.LVL68
 4443 05aa B8120000 		.4byte	0x12b8
 4444 05ae B9050000 		.4byte	0x5b9
 4445 05b2 1A       		.uleb128 0x1a
 4446 05b3 01       		.uleb128 0x1
 4447 05b4 50       		.byte	0x50
 4448 05b5 02       		.uleb128 0x2
 4449 05b6 74       		.byte	0x74
 4450 05b7 00       		.sleb128 0
 4451 05b8 00       		.byte	0
 4452 05b9 1B       		.uleb128 0x1b
 4453 05ba 48000000 		.4byte	.LVL69
 4454 05be 95040000 		.4byte	0x495
 4455 05c2 00       		.byte	0
 4456 05c3 16       		.uleb128 0x16
 4457 05c4 FE090000 		.4byte	.LASF61
 4458 05c8 01       		.byte	0x1
 4459 05c9 B203     		.2byte	0x3b2
 4460 05cb 00000000 		.4byte	.LFB21
 4461 05cf 10000000 		.4byte	.LFE21-.LFB21
 4462 05d3 01       		.uleb128 0x1
 4463 05d4 9C       		.byte	0x9c
 4464 05d5 16       		.uleb128 0x16
 4465 05d6 B5000000 		.4byte	.LASF62
 4466 05da 01       		.byte	0x1
 4467 05db C303     		.2byte	0x3c3
 4468 05dd 00000000 		.4byte	.LFB22
ARM GAS  C:\Users\ingan\AppData\Local\Temp\ccwaQbAc.s 			page 135


 4469 05e1 10000000 		.4byte	.LFE22-.LFB22
 4470 05e5 01       		.uleb128 0x1
 4471 05e6 9C       		.byte	0x9c
 4472 05e7 17       		.uleb128 0x17
 4473 05e8 CA040000 		.4byte	.LASF63
 4474 05ec 01       		.byte	0x1
 4475 05ed D603     		.2byte	0x3d6
 4476 05ef 00000000 		.4byte	.LFB23
 4477 05f3 16000000 		.4byte	.LFE23-.LFB23
 4478 05f7 01       		.uleb128 0x1
 4479 05f8 9C       		.byte	0x9c
 4480 05f9 0E060000 		.4byte	0x60e
 4481 05fd 11       		.uleb128 0x11
 4482 05fe 4D070000 		.4byte	.LASF32
 4483 0602 01       		.byte	0x1
 4484 0603 D603     		.2byte	0x3d6
 4485 0605 87000000 		.4byte	0x87
 4486 0609 F9020000 		.4byte	.LLST23
 4487 060d 00       		.byte	0
 4488 060e 26       		.uleb128 0x26
 4489 060f 1E050000 		.4byte	.LASF65
 4490 0613 01       		.byte	0x1
 4491 0614 EB03     		.2byte	0x3eb
 4492 0616 87000000 		.4byte	0x87
 4493 061a 00000000 		.4byte	.LFB24
 4494 061e 24000000 		.4byte	.LFE24-.LFB24
 4495 0622 01       		.uleb128 0x1
 4496 0623 9C       		.byte	0x9c
 4497 0624 47060000 		.4byte	0x647
 4498 0628 11       		.uleb128 0x11
 4499 0629 9E010000 		.4byte	.LASF66
 4500 062d 01       		.byte	0x1
 4501 062e EB03     		.2byte	0x3eb
 4502 0630 87000000 		.4byte	0x87
 4503 0634 1A030000 		.4byte	.LLST24
 4504 0638 0D       		.uleb128 0xd
 4505 0639 E3080000 		.4byte	.LASF67
 4506 063d 01       		.byte	0x1
 4507 063e ED03     		.2byte	0x3ed
 4508 0640 87000000 		.4byte	0x87
 4509 0644 01       		.uleb128 0x1
 4510 0645 53       		.byte	0x53
 4511 0646 00       		.byte	0
 4512 0647 16       		.uleb128 0x16
 4513 0648 0A060000 		.4byte	.LASF68
 4514 064c 01       		.byte	0x1
 4515 064d 2D04     		.2byte	0x42d
 4516 064f 00000000 		.4byte	.LFB26
 4517 0653 30000000 		.4byte	.LFE26-.LFB26
 4518 0657 01       		.uleb128 0x1
 4519 0658 9C       		.byte	0x9c
 4520 0659 27       		.uleb128 0x27
 4521 065a CA050000 		.4byte	.LASF169
 4522 065e 01       		.byte	0x1
 4523 065f 4804     		.2byte	0x448
 4524 0661 87000000 		.4byte	0x87
 4525 0665 01       		.byte	0x1
ARM GAS  C:\Users\ingan\AppData\Local\Temp\ccwaQbAc.s 			page 136


 4526 0666 28       		.uleb128 0x28
 4527 0667 59060000 		.4byte	0x659
 4528 066b 00000000 		.4byte	.LFB27
 4529 066f 10000000 		.4byte	.LFE27-.LFB27
 4530 0673 01       		.uleb128 0x1
 4531 0674 9C       		.byte	0x9c
 4532 0675 26       		.uleb128 0x26
 4533 0676 EA020000 		.4byte	.LASF69
 4534 067a 01       		.byte	0x1
 4535 067b 9E04     		.2byte	0x49e
 4536 067d B9000000 		.4byte	0xb9
 4537 0681 00000000 		.4byte	.LFB29
 4538 0685 C8000000 		.4byte	.LFE29-.LFB29
 4539 0689 01       		.uleb128 0x1
 4540 068a 9C       		.byte	0x9c
 4541 068b 2E070000 		.4byte	0x72e
 4542 068f 11       		.uleb128 0x11
 4543 0690 05060000 		.4byte	.LASF52
 4544 0694 01       		.byte	0x1
 4545 0695 9E04     		.2byte	0x49e
 4546 0697 87000000 		.4byte	0x87
 4547 069b 3B030000 		.4byte	.LLST25
 4548 069f 18       		.uleb128 0x18
 4549 06a0 8E040000 		.4byte	.LASF53
 4550 06a4 01       		.byte	0x1
 4551 06a5 A004     		.2byte	0x4a0
 4552 06a7 B9000000 		.4byte	0xb9
 4553 06ab 75030000 		.4byte	.LLST26
 4554 06af 0D       		.uleb128 0xd
 4555 06b0 2D080000 		.4byte	.LASF70
 4556 06b4 01       		.byte	0x1
 4557 06b5 A104     		.2byte	0x4a1
 4558 06b7 D1000000 		.4byte	0xd1
 4559 06bb 02       		.uleb128 0x2
 4560 06bc 91       		.byte	0x91
 4561 06bd 67       		.sleb128 -25
 4562 06be 0D       		.uleb128 0xd
 4563 06bf 05040000 		.4byte	.LASF71
 4564 06c3 01       		.byte	0x1
 4565 06c4 A204     		.2byte	0x4a2
 4566 06c6 D1000000 		.4byte	0xd1
 4567 06ca 02       		.uleb128 0x2
 4568 06cb 91       		.byte	0x91
 4569 06cc 66       		.sleb128 -26
 4570 06cd 18       		.uleb128 0x18
 4571 06ce 1B0A0000 		.4byte	.LASF54
 4572 06d2 01       		.byte	0x1
 4573 06d3 A304     		.2byte	0x4a3
 4574 06d5 87000000 		.4byte	0x87
 4575 06d9 C2030000 		.4byte	.LLST27
 4576 06dd 18       		.uleb128 0x18
 4577 06de D6000000 		.4byte	.LASF72
 4578 06e2 01       		.byte	0x1
 4579 06e3 A404     		.2byte	0x4a4
 4580 06e5 87000000 		.4byte	0x87
 4581 06e9 D5030000 		.4byte	.LLST28
 4582 06ed 18       		.uleb128 0x18
ARM GAS  C:\Users\ingan\AppData\Local\Temp\ccwaQbAc.s 			page 137


 4583 06ee 4A020000 		.4byte	.LASF73
 4584 06f2 01       		.byte	0x1
 4585 06f3 A504     		.2byte	0x4a5
 4586 06f5 87000000 		.4byte	0x87
 4587 06f9 E8030000 		.4byte	.LLST29
 4588 06fd 19       		.uleb128 0x19
 4589 06fe 34000000 		.4byte	.LVL82
 4590 0702 AD120000 		.4byte	0x12ad
 4591 0706 10070000 		.4byte	0x710
 4592 070a 1A       		.uleb128 0x1a
 4593 070b 01       		.uleb128 0x1
 4594 070c 50       		.byte	0x50
 4595 070d 01       		.uleb128 0x1
 4596 070e 48       		.byte	0x48
 4597 070f 00       		.byte	0
 4598 0710 19       		.uleb128 0x19
 4599 0711 5A000000 		.4byte	.LVL83
 4600 0715 B8120000 		.4byte	0x12b8
 4601 0719 24070000 		.4byte	0x724
 4602 071d 1A       		.uleb128 0x1a
 4603 071e 01       		.uleb128 0x1
 4604 071f 50       		.byte	0x50
 4605 0720 02       		.uleb128 0x2
 4606 0721 74       		.byte	0x74
 4607 0722 00       		.sleb128 0
 4608 0723 00       		.byte	0
 4609 0724 1B       		.uleb128 0x1b
 4610 0725 A8000000 		.4byte	.LVL85
 4611 0729 95040000 		.4byte	0x495
 4612 072d 00       		.byte	0
 4613 072e 16       		.uleb128 0x16
 4614 072f F5010000 		.4byte	.LASF74
 4615 0733 01       		.byte	0x1
 4616 0734 E704     		.2byte	0x4e7
 4617 0736 00000000 		.4byte	.LFB30
 4618 073a 10000000 		.4byte	.LFE30-.LFB30
 4619 073e 01       		.uleb128 0x1
 4620 073f 9C       		.byte	0x9c
 4621 0740 16       		.uleb128 0x16
 4622 0741 71050000 		.4byte	.LASF75
 4623 0745 01       		.byte	0x1
 4624 0746 F604     		.2byte	0x4f6
 4625 0748 00000000 		.4byte	.LFB31
 4626 074c 10000000 		.4byte	.LFE31-.LFB31
 4627 0750 01       		.uleb128 0x1
 4628 0751 9C       		.byte	0x9c
 4629 0752 16       		.uleb128 0x16
 4630 0753 27010000 		.4byte	.LASF76
 4631 0757 01       		.byte	0x1
 4632 0758 0505     		.2byte	0x505
 4633 075a 00000000 		.4byte	.LFB32
 4634 075e 10000000 		.4byte	.LFE32-.LFB32
 4635 0762 01       		.uleb128 0x1
 4636 0763 9C       		.byte	0x9c
 4637 0764 29       		.uleb128 0x29
 4638 0765 4A000000 		.4byte	.LASF136
 4639 0769 01       		.byte	0x1
ARM GAS  C:\Users\ingan\AppData\Local\Temp\ccwaQbAc.s 			page 138


 4640 076a 1905     		.2byte	0x519
 4641 076c 87000000 		.4byte	0x87
 4642 0770 00000000 		.4byte	.LFB33
 4643 0774 0C000000 		.4byte	.LFE33-.LFB33
 4644 0778 01       		.uleb128 0x1
 4645 0779 9C       		.byte	0x9c
 4646 077a 16       		.uleb128 0x16
 4647 077b 15090000 		.4byte	.LASF77
 4648 077f 01       		.byte	0x1
 4649 0780 2D05     		.2byte	0x52d
 4650 0782 00000000 		.4byte	.LFB34
 4651 0786 10000000 		.4byte	.LFE34-.LFB34
 4652 078a 01       		.uleb128 0x1
 4653 078b 9C       		.byte	0x9c
 4654 078c 16       		.uleb128 0x16
 4655 078d 0E020000 		.4byte	.LASF78
 4656 0791 01       		.byte	0x1
 4657 0792 3C05     		.2byte	0x53c
 4658 0794 00000000 		.4byte	.LFB35
 4659 0798 10000000 		.4byte	.LFE35-.LFB35
 4660 079c 01       		.uleb128 0x1
 4661 079d 9C       		.byte	0x9c
 4662 079e 17       		.uleb128 0x17
 4663 079f 6C010000 		.4byte	.LASF79
 4664 07a3 01       		.byte	0x1
 4665 07a4 5105     		.2byte	0x551
 4666 07a6 00000000 		.4byte	.LFB36
 4667 07aa 18000000 		.4byte	.LFE36-.LFB36
 4668 07ae 01       		.uleb128 0x1
 4669 07af 9C       		.byte	0x9c
 4670 07b0 C5070000 		.4byte	0x7c5
 4671 07b4 11       		.uleb128 0x11
 4672 07b5 42020000 		.4byte	.LASF80
 4673 07b9 01       		.byte	0x1
 4674 07ba 5105     		.2byte	0x551
 4675 07bc 87000000 		.4byte	0x87
 4676 07c0 FB030000 		.4byte	.LLST30
 4677 07c4 00       		.byte	0
 4678 07c5 17       		.uleb128 0x17
 4679 07c6 30090000 		.4byte	.LASF81
 4680 07ca 01       		.byte	0x1
 4681 07cb 6405     		.2byte	0x564
 4682 07cd 00000000 		.4byte	.LFB37
 4683 07d1 18000000 		.4byte	.LFE37-.LFB37
 4684 07d5 01       		.uleb128 0x1
 4685 07d6 9C       		.byte	0x9c
 4686 07d7 EC070000 		.4byte	0x7ec
 4687 07db 11       		.uleb128 0x11
 4688 07dc 42020000 		.4byte	.LASF80
 4689 07e0 01       		.byte	0x1
 4690 07e1 6405     		.2byte	0x564
 4691 07e3 87000000 		.4byte	0x87
 4692 07e7 1C040000 		.4byte	.LLST31
 4693 07eb 00       		.byte	0
 4694 07ec 17       		.uleb128 0x17
 4695 07ed FE040000 		.4byte	.LASF82
 4696 07f1 01       		.byte	0x1
ARM GAS  C:\Users\ingan\AppData\Local\Temp\ccwaQbAc.s 			page 139


 4697 07f2 7605     		.2byte	0x576
 4698 07f4 00000000 		.4byte	.LFB38
 4699 07f8 18000000 		.4byte	.LFE38-.LFB38
 4700 07fc 01       		.uleb128 0x1
 4701 07fd 9C       		.byte	0x9c
 4702 07fe 13080000 		.4byte	0x813
 4703 0802 11       		.uleb128 0x11
 4704 0803 42020000 		.4byte	.LASF80
 4705 0807 01       		.byte	0x1
 4706 0808 7605     		.2byte	0x576
 4707 080a 87000000 		.4byte	0x87
 4708 080e 3D040000 		.4byte	.LLST32
 4709 0812 00       		.byte	0
 4710 0813 17       		.uleb128 0x17
 4711 0814 4B010000 		.4byte	.LASF83
 4712 0818 01       		.byte	0x1
 4713 0819 8605     		.2byte	0x586
 4714 081b 00000000 		.4byte	.LFB39
 4715 081f 04000000 		.4byte	.LFE39-.LFB39
 4716 0823 01       		.uleb128 0x1
 4717 0824 9C       		.byte	0x9c
 4718 0825 38080000 		.4byte	0x838
 4719 0829 0C       		.uleb128 0xc
 4720 082a D0020000 		.4byte	.LASF84
 4721 082e 01       		.byte	0x1
 4722 082f 8605     		.2byte	0x586
 4723 0831 87000000 		.4byte	0x87
 4724 0835 01       		.uleb128 0x1
 4725 0836 50       		.byte	0x50
 4726 0837 00       		.byte	0
 4727 0838 16       		.uleb128 0x16
 4728 0839 CC070000 		.4byte	.LASF85
 4729 083d 01       		.byte	0x1
 4730 083e 9E05     		.2byte	0x59e
 4731 0840 00000000 		.4byte	.LFB40
 4732 0844 10000000 		.4byte	.LFE40-.LFB40
 4733 0848 01       		.uleb128 0x1
 4734 0849 9C       		.byte	0x9c
 4735 084a 17       		.uleb128 0x17
 4736 084b 1E000000 		.4byte	.LASF86
 4737 084f 01       		.byte	0x1
 4738 0850 B305     		.2byte	0x5b3
 4739 0852 00000000 		.4byte	.LFB41
 4740 0856 44000000 		.4byte	.LFE41-.LFB41
 4741 085a 01       		.uleb128 0x1
 4742 085b 9C       		.byte	0x9c
 4743 085c 83080000 		.4byte	0x883
 4744 0860 11       		.uleb128 0x11
 4745 0861 A8000000 		.4byte	.LASF87
 4746 0865 01       		.byte	0x1
 4747 0866 B305     		.2byte	0x5b3
 4748 0868 9F000000 		.4byte	0x9f
 4749 086c 5E040000 		.4byte	.LLST33
 4750 0870 1B       		.uleb128 0x1b
 4751 0871 14000000 		.4byte	.LVL98
 4752 0875 C3120000 		.4byte	0x12c3
 4753 0879 1B       		.uleb128 0x1b
ARM GAS  C:\Users\ingan\AppData\Local\Temp\ccwaQbAc.s 			page 140


 4754 087a 3E000000 		.4byte	.LVL101
 4755 087e C3120000 		.4byte	0x12c3
 4756 0882 00       		.byte	0
 4757 0883 17       		.uleb128 0x17
 4758 0884 AF020000 		.4byte	.LASF88
 4759 0888 01       		.byte	0x1
 4760 0889 DF05     		.2byte	0x5df
 4761 088b 00000000 		.4byte	.LFB42
 4762 088f 14000000 		.4byte	.LFE42-.LFB42
 4763 0893 01       		.uleb128 0x1
 4764 0894 9C       		.byte	0x9c
 4765 0895 B3080000 		.4byte	0x8b3
 4766 0899 11       		.uleb128 0x11
 4767 089a 35080000 		.4byte	.LASF89
 4768 089e 01       		.byte	0x1
 4769 089f DF05     		.2byte	0x5df
 4770 08a1 93000000 		.4byte	0x93
 4771 08a5 7C040000 		.4byte	.LLST34
 4772 08a9 1B       		.uleb128 0x1b
 4773 08aa 0E000000 		.4byte	.LVL104
 4774 08ae C3120000 		.4byte	0x12c3
 4775 08b2 00       		.byte	0
 4776 08b3 26       		.uleb128 0x26
 4777 08b4 F7020000 		.4byte	.LASF90
 4778 08b8 01       		.byte	0x1
 4779 08b9 5E04     		.2byte	0x45e
 4780 08bb 87000000 		.4byte	0x87
 4781 08bf 00000000 		.4byte	.LFB28
 4782 08c3 78000000 		.4byte	.LFE28-.LFB28
 4783 08c7 01       		.uleb128 0x1
 4784 08c8 9C       		.byte	0x9c
 4785 08c9 23090000 		.4byte	0x923
 4786 08cd 11       		.uleb128 0x11
 4787 08ce 9E010000 		.4byte	.LASF66
 4788 08d2 01       		.byte	0x1
 4789 08d3 5E04     		.2byte	0x45e
 4790 08d5 87000000 		.4byte	0x87
 4791 08d9 9D040000 		.4byte	.LLST35
 4792 08dd 18       		.uleb128 0x18
 4793 08de E3080000 		.4byte	.LASF67
 4794 08e2 01       		.byte	0x1
 4795 08e3 6004     		.2byte	0x460
 4796 08e5 87000000 		.4byte	0x87
 4797 08e9 D7040000 		.4byte	.LLST36
 4798 08ed 19       		.uleb128 0x19
 4799 08ee 22000000 		.4byte	.LVL108
 4800 08f2 83080000 		.4byte	0x883
 4801 08f6 00090000 		.4byte	0x900
 4802 08fa 1A       		.uleb128 0x1a
 4803 08fb 01       		.uleb128 0x1
 4804 08fc 50       		.byte	0x50
 4805 08fd 01       		.uleb128 0x1
 4806 08fe 3A       		.byte	0x3a
 4807 08ff 00       		.byte	0
 4808 0900 19       		.uleb128 0x19
 4809 0901 36000000 		.4byte	.LVL109
 4810 0905 83080000 		.4byte	0x883
ARM GAS  C:\Users\ingan\AppData\Local\Temp\ccwaQbAc.s 			page 141


 4811 0909 13090000 		.4byte	0x913
 4812 090d 1A       		.uleb128 0x1a
 4813 090e 01       		.uleb128 0x1
 4814 090f 50       		.byte	0x50
 4815 0910 01       		.uleb128 0x1
 4816 0911 44       		.byte	0x44
 4817 0912 00       		.byte	0
 4818 0913 1C       		.uleb128 0x1c
 4819 0914 4E000000 		.4byte	.LVL112
 4820 0918 83080000 		.4byte	0x883
 4821 091c 1A       		.uleb128 0x1a
 4822 091d 01       		.uleb128 0x1
 4823 091e 50       		.byte	0x50
 4824 091f 01       		.uleb128 0x1
 4825 0920 3A       		.byte	0x3a
 4826 0921 00       		.byte	0
 4827 0922 00       		.byte	0
 4828 0923 17       		.uleb128 0x17
 4829 0924 D7020000 		.4byte	.LASF91
 4830 0928 01       		.byte	0x1
 4831 0929 0804     		.2byte	0x408
 4832 092b 00000000 		.4byte	.LFB25
 4833 092f 80000000 		.4byte	.LFE25-.LFB25
 4834 0933 01       		.uleb128 0x1
 4835 0934 9C       		.byte	0x9c
 4836 0935 7A090000 		.4byte	0x97a
 4837 0939 2A       		.uleb128 0x2a
 4838 093a 6900     		.ascii	"i\000"
 4839 093c 01       		.byte	0x1
 4840 093d 0A04     		.2byte	0x40a
 4841 093f E2000000 		.4byte	0xe2
 4842 0943 02       		.uleb128 0x2
 4843 0944 91       		.byte	0x91
 4844 0945 6E       		.sleb128 -18
 4845 0946 2B       		.uleb128 0x2b
 4846 0947 59060000 		.4byte	0x659
 4847 094b 3A000000 		.4byte	.LBB16
 4848 094f 00000000 		.4byte	.Ldebug_ranges0+0
 4849 0953 01       		.byte	0x1
 4850 0954 1A04     		.2byte	0x41a
 4851 0956 19       		.uleb128 0x19
 4852 0957 56000000 		.4byte	.LVL114
 4853 095b B3080000 		.4byte	0x8b3
 4854 095f 69090000 		.4byte	0x969
 4855 0963 1A       		.uleb128 0x1a
 4856 0964 01       		.uleb128 0x1
 4857 0965 50       		.byte	0x50
 4858 0966 01       		.uleb128 0x1
 4859 0967 30       		.byte	0x30
 4860 0968 00       		.byte	0
 4861 0969 1C       		.uleb128 0x1c
 4862 096a 5E000000 		.4byte	.LVL115
 4863 096e 83080000 		.4byte	0x883
 4864 0972 1A       		.uleb128 0x1a
 4865 0973 01       		.uleb128 0x1
 4866 0974 50       		.byte	0x50
 4867 0975 02       		.uleb128 0x2
ARM GAS  C:\Users\ingan\AppData\Local\Temp\ccwaQbAc.s 			page 142


 4868 0976 74       		.byte	0x74
 4869 0977 00       		.sleb128 0
 4870 0978 00       		.byte	0
 4871 0979 00       		.byte	0
 4872 097a 17       		.uleb128 0x17
 4873 097b C8060000 		.4byte	.LASF92
 4874 097f 01       		.byte	0x1
 4875 0980 F005     		.2byte	0x5f0
 4876 0982 00000000 		.4byte	.LFB43
 4877 0986 48000000 		.4byte	.LFE43-.LFB43
 4878 098a 01       		.uleb128 0x1
 4879 098b 9C       		.byte	0x9c
 4880 098c A1090000 		.4byte	0x9a1
 4881 0990 11       		.uleb128 0x11
 4882 0991 CE030000 		.4byte	.LASF25
 4883 0995 01       		.byte	0x1
 4884 0996 F005     		.2byte	0x5f0
 4885 0998 9F000000 		.4byte	0x9f
 4886 099c F5040000 		.4byte	.LLST37
 4887 09a0 00       		.byte	0
 4888 09a1 17       		.uleb128 0x17
 4889 09a2 FA050000 		.4byte	.LASF93
 4890 09a6 01       		.byte	0x1
 4891 09a7 2A06     		.2byte	0x62a
 4892 09a9 00000000 		.4byte	.LFB44
 4893 09ad 40000000 		.4byte	.LFE44-.LFB44
 4894 09b1 01       		.uleb128 0x1
 4895 09b2 9C       		.byte	0x9c
 4896 09b3 D8090000 		.4byte	0x9d8
 4897 09b7 11       		.uleb128 0x11
 4898 09b8 66010000 		.4byte	.LASF94
 4899 09bc 01       		.byte	0x1
 4900 09bd 2A06     		.2byte	0x62a
 4901 09bf 87000000 		.4byte	0x87
 4902 09c3 16050000 		.4byte	.LLST38
 4903 09c7 11       		.uleb128 0x11
 4904 09c8 44010000 		.4byte	.LASF95
 4905 09cc 01       		.byte	0x1
 4906 09cd 2A06     		.2byte	0x62a
 4907 09cf 87000000 		.4byte	0x87
 4908 09d3 37050000 		.4byte	.LLST39
 4909 09d7 00       		.byte	0
 4910 09d8 16       		.uleb128 0x16
 4911 09d9 6D000000 		.4byte	.LASF96
 4912 09dd 01       		.byte	0x1
 4913 09de 4306     		.2byte	0x643
 4914 09e0 00000000 		.4byte	.LFB45
 4915 09e4 0C000000 		.4byte	.LFE45-.LFB45
 4916 09e8 01       		.uleb128 0x1
 4917 09e9 9C       		.byte	0x9c
 4918 09ea 26       		.uleb128 0x26
 4919 09eb 93070000 		.4byte	.LASF97
 4920 09ef 01       		.byte	0x1
 4921 09f0 7507     		.2byte	0x775
 4922 09f2 87000000 		.4byte	0x87
 4923 09f6 00000000 		.4byte	.LFB52
 4924 09fa 2C000000 		.4byte	.LFE52-.LFB52
ARM GAS  C:\Users\ingan\AppData\Local\Temp\ccwaQbAc.s 			page 143


 4925 09fe 01       		.uleb128 0x1
 4926 09ff 9C       		.byte	0x9c
 4927 0a00 590A0000 		.4byte	0xa59
 4928 0a04 11       		.uleb128 0x11
 4929 0a05 3F010000 		.4byte	.LASF98
 4930 0a09 01       		.byte	0x1
 4931 0a0a 7507     		.2byte	0x775
 4932 0a0c 87000000 		.4byte	0x87
 4933 0a10 58050000 		.4byte	.LLST40
 4934 0a14 0D       		.uleb128 0xd
 4935 0a15 E6030000 		.4byte	.LASF99
 4936 0a19 01       		.byte	0x1
 4937 0a1a 7707     		.2byte	0x777
 4938 0a1c 87000000 		.4byte	0x87
 4939 0a20 05       		.uleb128 0x5
 4940 0a21 03       		.byte	0x3
 4941 0a22 00000000 		.4byte	interruptStatus.5207
 4942 0a26 18       		.uleb128 0x18
 4943 0a27 52010000 		.4byte	.LASF46
 4944 0a2b 01       		.byte	0x1
 4945 0a2c 7807     		.2byte	0x778
 4946 0a2e 87000000 		.4byte	0x87
 4947 0a32 79050000 		.4byte	.LLST41
 4948 0a36 18       		.uleb128 0x18
 4949 0a37 FC080000 		.4byte	.LASF100
 4950 0a3b 01       		.byte	0x1
 4951 0a3c 7907     		.2byte	0x779
 4952 0a3e 87000000 		.4byte	0x87
 4953 0a42 8C050000 		.4byte	.LLST42
 4954 0a46 1B       		.uleb128 0x1b
 4955 0a47 08000000 		.4byte	.LVL122
 4956 0a4b 97120000 		.4byte	0x1297
 4957 0a4f 1B       		.uleb128 0x1b
 4958 0a50 1C000000 		.4byte	.LVL124
 4959 0a54 A2120000 		.4byte	0x12a2
 4960 0a58 00       		.byte	0
 4961 0a59 17       		.uleb128 0x17
 4962 0a5a 95040000 		.4byte	.LASF101
 4963 0a5e 01       		.byte	0x1
 4964 0a5f 6F06     		.2byte	0x66f
 4965 0a61 00000000 		.4byte	.LFB46
 4966 0a65 84000000 		.4byte	.LFE46-.LFB46
 4967 0a69 01       		.uleb128 0x1
 4968 0a6a 9C       		.byte	0x9c
 4969 0a6b F10A0000 		.4byte	0xaf1
 4970 0a6f 11       		.uleb128 0x11
 4971 0a70 47070000 		.4byte	.LASF102
 4972 0a74 01       		.byte	0x1
 4973 0a75 6F06     		.2byte	0x66f
 4974 0a77 87000000 		.4byte	0x87
 4975 0a7b A3050000 		.4byte	.LLST43
 4976 0a7f 11       		.uleb128 0x11
 4977 0a80 44090000 		.4byte	.LASF103
 4978 0a84 01       		.byte	0x1
 4979 0a85 6F06     		.2byte	0x66f
 4980 0a87 87000000 		.4byte	0x87
 4981 0a8b C4050000 		.4byte	.LLST44
ARM GAS  C:\Users\ingan\AppData\Local\Temp\ccwaQbAc.s 			page 144


 4982 0a8f 18       		.uleb128 0x18
 4983 0a90 2A020000 		.4byte	.LASF104
 4984 0a94 01       		.byte	0x1
 4985 0a95 7106     		.2byte	0x671
 4986 0a97 9F000000 		.4byte	0x9f
 4987 0a9b E5050000 		.4byte	.LLST45
 4988 0a9f 18       		.uleb128 0x18
 4989 0aa0 52010000 		.4byte	.LASF46
 4990 0aa4 01       		.byte	0x1
 4991 0aa5 7206     		.2byte	0x672
 4992 0aa7 87000000 		.4byte	0x87
 4993 0aab F8050000 		.4byte	.LLST46
 4994 0aaf 1B       		.uleb128 0x1b
 4995 0ab0 0C000000 		.4byte	.LVL127
 4996 0ab4 97120000 		.4byte	0x1297
 4997 0ab8 19       		.uleb128 0x19
 4998 0ab9 44000000 		.4byte	.LVL130
 4999 0abd 83080000 		.4byte	0x883
 5000 0ac1 CC0A0000 		.4byte	0xacc
 5001 0ac5 1A       		.uleb128 0x1a
 5002 0ac6 01       		.uleb128 0x1
 5003 0ac7 50       		.byte	0x50
 5004 0ac8 02       		.uleb128 0x2
 5005 0ac9 75       		.byte	0x75
 5006 0aca 00       		.sleb128 0
 5007 0acb 00       		.byte	0
 5008 0acc 19       		.uleb128 0x19
 5009 0acd 4A000000 		.4byte	.LVL131
 5010 0ad1 EA090000 		.4byte	0x9ea
 5011 0ad5 E00A0000 		.4byte	0xae0
 5012 0ad9 1A       		.uleb128 0x1a
 5013 0ada 01       		.uleb128 0x1
 5014 0adb 50       		.byte	0x50
 5015 0adc 02       		.uleb128 0x2
 5016 0add 75       		.byte	0x75
 5017 0ade 00       		.sleb128 0
 5018 0adf 00       		.byte	0
 5019 0ae0 1C       		.uleb128 0x1c
 5020 0ae1 74000000 		.4byte	.LVL132
 5021 0ae5 A2120000 		.4byte	0x12a2
 5022 0ae9 1A       		.uleb128 0x1a
 5023 0aea 01       		.uleb128 0x1
 5024 0aeb 50       		.byte	0x50
 5025 0aec 02       		.uleb128 0x2
 5026 0aed 76       		.byte	0x76
 5027 0aee 00       		.sleb128 0
 5028 0aef 00       		.byte	0
 5029 0af0 00       		.byte	0
 5030 0af1 17       		.uleb128 0x17
 5031 0af2 83030000 		.4byte	.LASF105
 5032 0af6 01       		.byte	0x1
 5033 0af7 BF06     		.2byte	0x6bf
 5034 0af9 00000000 		.4byte	.LFB47
 5035 0afd 84000000 		.4byte	.LFE47-.LFB47
 5036 0b01 01       		.uleb128 0x1
 5037 0b02 9C       		.byte	0x9c
 5038 0b03 870B0000 		.4byte	0xb87
ARM GAS  C:\Users\ingan\AppData\Local\Temp\ccwaQbAc.s 			page 145


 5039 0b07 11       		.uleb128 0x11
 5040 0b08 47070000 		.4byte	.LASF102
 5041 0b0c 01       		.byte	0x1
 5042 0b0d BF06     		.2byte	0x6bf
 5043 0b0f 87000000 		.4byte	0x87
 5044 0b13 0B060000 		.4byte	.LLST47
 5045 0b17 11       		.uleb128 0x11
 5046 0b18 44090000 		.4byte	.LASF103
 5047 0b1c 01       		.byte	0x1
 5048 0b1d BF06     		.2byte	0x6bf
 5049 0b1f 87000000 		.4byte	0x87
 5050 0b23 2C060000 		.4byte	.LLST48
 5051 0b27 18       		.uleb128 0x18
 5052 0b28 2A020000 		.4byte	.LASF104
 5053 0b2c 01       		.byte	0x1
 5054 0b2d C106     		.2byte	0x6c1
 5055 0b2f 9F000000 		.4byte	0x9f
 5056 0b33 4D060000 		.4byte	.LLST49
 5057 0b37 18       		.uleb128 0x18
 5058 0b38 52010000 		.4byte	.LASF46
 5059 0b3c 01       		.byte	0x1
 5060 0b3d C206     		.2byte	0x6c2
 5061 0b3f 87000000 		.4byte	0x87
 5062 0b43 60060000 		.4byte	.LLST50
 5063 0b47 1B       		.uleb128 0x1b
 5064 0b48 0A000000 		.4byte	.LVL135
 5065 0b4c 97120000 		.4byte	0x1297
 5066 0b50 19       		.uleb128 0x19
 5067 0b51 42000000 		.4byte	.LVL138
 5068 0b55 83080000 		.4byte	0x883
 5069 0b59 630B0000 		.4byte	0xb63
 5070 0b5d 1A       		.uleb128 0x1a
 5071 0b5e 01       		.uleb128 0x1
 5072 0b5f 50       		.byte	0x50
 5073 0b60 01       		.uleb128 0x1
 5074 0b61 31       		.byte	0x31
 5075 0b62 00       		.byte	0
 5076 0b63 19       		.uleb128 0x19
 5077 0b64 48000000 		.4byte	.LVL139
 5078 0b68 EA090000 		.4byte	0x9ea
 5079 0b6c 760B0000 		.4byte	0xb76
 5080 0b70 1A       		.uleb128 0x1a
 5081 0b71 01       		.uleb128 0x1
 5082 0b72 50       		.byte	0x50
 5083 0b73 01       		.uleb128 0x1
 5084 0b74 32       		.byte	0x32
 5085 0b75 00       		.byte	0
 5086 0b76 1C       		.uleb128 0x1c
 5087 0b77 72000000 		.4byte	.LVL140
 5088 0b7b A2120000 		.4byte	0x12a2
 5089 0b7f 1A       		.uleb128 0x1a
 5090 0b80 01       		.uleb128 0x1
 5091 0b81 50       		.byte	0x50
 5092 0b82 02       		.uleb128 0x2
 5093 0b83 75       		.byte	0x75
 5094 0b84 00       		.sleb128 0
 5095 0b85 00       		.byte	0
ARM GAS  C:\Users\ingan\AppData\Local\Temp\ccwaQbAc.s 			page 146


 5096 0b86 00       		.byte	0
 5097 0b87 17       		.uleb128 0x17
 5098 0b88 E2010000 		.4byte	.LASF106
 5099 0b8c 01       		.byte	0x1
 5100 0b8d F506     		.2byte	0x6f5
 5101 0b8f 00000000 		.4byte	.LFB48
 5102 0b93 30000000 		.4byte	.LFE48-.LFB48
 5103 0b97 01       		.uleb128 0x1
 5104 0b98 9C       		.byte	0x9c
 5105 0b99 C10B0000 		.4byte	0xbc1
 5106 0b9d 19       		.uleb128 0x19
 5107 0b9e 1C000000 		.4byte	.LVL142
 5108 0ba2 EA090000 		.4byte	0x9ea
 5109 0ba6 B00B0000 		.4byte	0xbb0
 5110 0baa 1A       		.uleb128 0x1a
 5111 0bab 01       		.uleb128 0x1
 5112 0bac 50       		.byte	0x50
 5113 0bad 01       		.uleb128 0x1
 5114 0bae 31       		.byte	0x31
 5115 0baf 00       		.byte	0
 5116 0bb0 1C       		.uleb128 0x1c
 5117 0bb1 24000000 		.4byte	.LVL143
 5118 0bb5 EA090000 		.4byte	0x9ea
 5119 0bb9 1A       		.uleb128 0x1a
 5120 0bba 01       		.uleb128 0x1
 5121 0bbb 50       		.byte	0x50
 5122 0bbc 02       		.uleb128 0x2
 5123 0bbd 74       		.byte	0x74
 5124 0bbe 00       		.sleb128 0
 5125 0bbf 00       		.byte	0
 5126 0bc0 00       		.byte	0
 5127 0bc1 17       		.uleb128 0x17
 5128 0bc2 2E070000 		.4byte	.LASF107
 5129 0bc6 01       		.byte	0x1
 5130 0bc7 0E07     		.2byte	0x70e
 5131 0bc9 00000000 		.4byte	.LFB49
 5132 0bcd 2C000000 		.4byte	.LFE49-.LFB49
 5133 0bd1 01       		.uleb128 0x1
 5134 0bd2 9C       		.byte	0x9c
 5135 0bd3 E80B0000 		.4byte	0xbe8
 5136 0bd7 1C       		.uleb128 0x1c
 5137 0bd8 1E000000 		.4byte	.LVL144
 5138 0bdc EA090000 		.4byte	0x9ea
 5139 0be0 1A       		.uleb128 0x1a
 5140 0be1 01       		.uleb128 0x1
 5141 0be2 50       		.byte	0x50
 5142 0be3 02       		.uleb128 0x2
 5143 0be4 74       		.byte	0x74
 5144 0be5 00       		.sleb128 0
 5145 0be6 00       		.byte	0
 5146 0be7 00       		.byte	0
 5147 0be8 17       		.uleb128 0x17
 5148 0be9 B7040000 		.4byte	.LASF108
 5149 0bed 01       		.byte	0x1
 5150 0bee 2507     		.2byte	0x725
 5151 0bf0 00000000 		.4byte	.LFB50
 5152 0bf4 54000000 		.4byte	.LFE50-.LFB50
ARM GAS  C:\Users\ingan\AppData\Local\Temp\ccwaQbAc.s 			page 147


 5153 0bf8 01       		.uleb128 0x1
 5154 0bf9 9C       		.byte	0x9c
 5155 0bfa 5F0C0000 		.4byte	0xc5f
 5156 0bfe 18       		.uleb128 0x18
 5157 0bff 2A020000 		.4byte	.LASF104
 5158 0c03 01       		.byte	0x1
 5159 0c04 2707     		.2byte	0x727
 5160 0c06 9F000000 		.4byte	0x9f
 5161 0c0a 73060000 		.4byte	.LLST51
 5162 0c0e 18       		.uleb128 0x18
 5163 0c0f 52010000 		.4byte	.LASF46
 5164 0c13 01       		.byte	0x1
 5165 0c14 2807     		.2byte	0x728
 5166 0c16 87000000 		.4byte	0x87
 5167 0c1a 86060000 		.4byte	.LLST52
 5168 0c1e 1B       		.uleb128 0x1b
 5169 0c1f 06000000 		.4byte	.LVL145
 5170 0c23 97120000 		.4byte	0x1297
 5171 0c27 19       		.uleb128 0x19
 5172 0c28 30000000 		.4byte	.LVL148
 5173 0c2c 83080000 		.4byte	0x883
 5174 0c30 3B0C0000 		.4byte	0xc3b
 5175 0c34 1A       		.uleb128 0x1a
 5176 0c35 01       		.uleb128 0x1
 5177 0c36 50       		.byte	0x50
 5178 0c37 02       		.uleb128 0x2
 5179 0c38 75       		.byte	0x75
 5180 0c39 00       		.sleb128 0
 5181 0c3a 00       		.byte	0
 5182 0c3b 19       		.uleb128 0x19
 5183 0c3c 36000000 		.4byte	.LVL149
 5184 0c40 EA090000 		.4byte	0x9ea
 5185 0c44 4E0C0000 		.4byte	0xc4e
 5186 0c48 1A       		.uleb128 0x1a
 5187 0c49 01       		.uleb128 0x1
 5188 0c4a 50       		.byte	0x50
 5189 0c4b 01       		.uleb128 0x1
 5190 0c4c 34       		.byte	0x34
 5191 0c4d 00       		.byte	0
 5192 0c4e 1C       		.uleb128 0x1c
 5193 0c4f 42000000 		.4byte	.LVL150
 5194 0c53 A2120000 		.4byte	0x12a2
 5195 0c57 1A       		.uleb128 0x1a
 5196 0c58 01       		.uleb128 0x1
 5197 0c59 50       		.byte	0x50
 5198 0c5a 02       		.uleb128 0x2
 5199 0c5b 77       		.byte	0x77
 5200 0c5c 00       		.sleb128 0
 5201 0c5d 00       		.byte	0
 5202 0c5e 00       		.byte	0
 5203 0c5f 17       		.uleb128 0x17
 5204 0c60 300A0000 		.4byte	.LASF109
 5205 0c64 01       		.byte	0x1
 5206 0c65 5107     		.2byte	0x751
 5207 0c67 00000000 		.4byte	.LFB51
 5208 0c6b 20000000 		.4byte	.LFE51-.LFB51
 5209 0c6f 01       		.uleb128 0x1
ARM GAS  C:\Users\ingan\AppData\Local\Temp\ccwaQbAc.s 			page 148


 5210 0c70 9C       		.byte	0x9c
 5211 0c71 860C0000 		.4byte	0xc86
 5212 0c75 1C       		.uleb128 0x1c
 5213 0c76 14000000 		.4byte	.LVL152
 5214 0c7a EA090000 		.4byte	0x9ea
 5215 0c7e 1A       		.uleb128 0x1a
 5216 0c7f 01       		.uleb128 0x1
 5217 0c80 50       		.byte	0x50
 5218 0c81 02       		.uleb128 0x2
 5219 0c82 74       		.byte	0x74
 5220 0c83 00       		.sleb128 0
 5221 0c84 00       		.byte	0
 5222 0c85 00       		.byte	0
 5223 0c86 26       		.uleb128 0x26
 5224 0c87 E9080000 		.4byte	.LASF110
 5225 0c8b 01       		.byte	0x1
 5226 0c8c 9D07     		.2byte	0x79d
 5227 0c8e 87000000 		.4byte	0x87
 5228 0c92 00000000 		.4byte	.LFB53
 5229 0c96 1C000000 		.4byte	.LFE53-.LFB53
 5230 0c9a 01       		.uleb128 0x1
 5231 0c9b 9C       		.byte	0x9c
 5232 0c9c D30C0000 		.4byte	0xcd3
 5233 0ca0 18       		.uleb128 0x18
 5234 0ca1 52010000 		.4byte	.LASF46
 5235 0ca5 01       		.byte	0x1
 5236 0ca6 9F07     		.2byte	0x79f
 5237 0ca8 87000000 		.4byte	0x87
 5238 0cac 99060000 		.4byte	.LLST53
 5239 0cb0 18       		.uleb128 0x18
 5240 0cb1 B3030000 		.4byte	.LASF111
 5241 0cb5 01       		.byte	0x1
 5242 0cb6 A007     		.2byte	0x7a0
 5243 0cb8 87000000 		.4byte	0x87
 5244 0cbc AC060000 		.4byte	.LLST54
 5245 0cc0 1B       		.uleb128 0x1b
 5246 0cc1 06000000 		.4byte	.LVL153
 5247 0cc5 97120000 		.4byte	0x1297
 5248 0cc9 1B       		.uleb128 0x1b
 5249 0cca 10000000 		.4byte	.LVL155
 5250 0cce A2120000 		.4byte	0x12a2
 5251 0cd2 00       		.byte	0
 5252 0cd3 26       		.uleb128 0x26
 5253 0cd4 5B060000 		.4byte	.LASF112
 5254 0cd8 01       		.byte	0x1
 5255 0cd9 B407     		.2byte	0x7b4
 5256 0cdb 9F000000 		.4byte	0x9f
 5257 0cdf 00000000 		.4byte	.LFB54
 5258 0ce3 1C000000 		.4byte	.LFE54-.LFB54
 5259 0ce7 01       		.uleb128 0x1
 5260 0ce8 9C       		.byte	0x9c
 5261 0ce9 200D0000 		.4byte	0xd20
 5262 0ced 18       		.uleb128 0x18
 5263 0cee 65040000 		.4byte	.LASF113
 5264 0cf2 01       		.byte	0x1
 5265 0cf3 B607     		.2byte	0x7b6
 5266 0cf5 9F000000 		.4byte	0x9f
ARM GAS  C:\Users\ingan\AppData\Local\Temp\ccwaQbAc.s 			page 149


 5267 0cf9 C3060000 		.4byte	.LLST55
 5268 0cfd 18       		.uleb128 0x18
 5269 0cfe 52010000 		.4byte	.LASF46
 5270 0d02 01       		.byte	0x1
 5271 0d03 B707     		.2byte	0x7b7
 5272 0d05 87000000 		.4byte	0x87
 5273 0d09 E1060000 		.4byte	.LLST56
 5274 0d0d 1B       		.uleb128 0x1b
 5275 0d0e 06000000 		.4byte	.LVL157
 5276 0d12 97120000 		.4byte	0x1297
 5277 0d16 1B       		.uleb128 0x1b
 5278 0d17 14000000 		.4byte	.LVL159
 5279 0d1b A2120000 		.4byte	0x12a2
 5280 0d1f 00       		.byte	0
 5281 0d20 17       		.uleb128 0x17
 5282 0d21 01020000 		.4byte	.LASF114
 5283 0d25 01       		.byte	0x1
 5284 0d26 E307     		.2byte	0x7e3
 5285 0d28 00000000 		.4byte	.LFB55
 5286 0d2c 18000000 		.4byte	.LFE55-.LFB55
 5287 0d30 01       		.uleb128 0x1
 5288 0d31 9C       		.byte	0x9c
 5289 0d32 690D0000 		.4byte	0xd69
 5290 0d36 11       		.uleb128 0x11
 5291 0d37 3F010000 		.4byte	.LASF98
 5292 0d3b 01       		.byte	0x1
 5293 0d3c E307     		.2byte	0x7e3
 5294 0d3e 9F000000 		.4byte	0x9f
 5295 0d42 F4060000 		.4byte	.LLST57
 5296 0d46 18       		.uleb128 0x18
 5297 0d47 52010000 		.4byte	.LASF46
 5298 0d4b 01       		.byte	0x1
 5299 0d4c E607     		.2byte	0x7e6
 5300 0d4e 87000000 		.4byte	0x87
 5301 0d52 20070000 		.4byte	.LLST58
 5302 0d56 1B       		.uleb128 0x1b
 5303 0d57 08000000 		.4byte	.LVL162
 5304 0d5b 97120000 		.4byte	0x1297
 5305 0d5f 1B       		.uleb128 0x1b
 5306 0d60 10000000 		.4byte	.LVL163
 5307 0d64 A2120000 		.4byte	0x12a2
 5308 0d68 00       		.byte	0
 5309 0d69 17       		.uleb128 0x17
 5310 0d6a 4E060000 		.4byte	.LASF115
 5311 0d6e 01       		.byte	0x1
 5312 0d6f 0C08     		.2byte	0x80c
 5313 0d71 00000000 		.4byte	.LFB56
 5314 0d75 44000000 		.4byte	.LFE56-.LFB56
 5315 0d79 01       		.uleb128 0x1
 5316 0d7a 9C       		.byte	0x9c
 5317 0d7b A20D0000 		.4byte	0xda2
 5318 0d7f 18       		.uleb128 0x18
 5319 0d80 52010000 		.4byte	.LASF46
 5320 0d84 01       		.byte	0x1
 5321 0d85 0E08     		.2byte	0x80e
 5322 0d87 87000000 		.4byte	0x87
 5323 0d8b 33070000 		.4byte	.LLST59
ARM GAS  C:\Users\ingan\AppData\Local\Temp\ccwaQbAc.s 			page 150


 5324 0d8f 1B       		.uleb128 0x1b
 5325 0d90 06000000 		.4byte	.LVL165
 5326 0d94 97120000 		.4byte	0x1297
 5327 0d98 1B       		.uleb128 0x1b
 5328 0d99 3C000000 		.4byte	.LVL166
 5329 0d9d A2120000 		.4byte	0x12a2
 5330 0da1 00       		.byte	0
 5331 0da2 26       		.uleb128 0x26
 5332 0da3 DD060000 		.4byte	.LASF116
 5333 0da7 01       		.byte	0x1
 5334 0da8 4B08     		.2byte	0x84b
 5335 0daa F8000000 		.4byte	0xf8
 5336 0dae 00000000 		.4byte	.LFB57
 5337 0db2 18000000 		.4byte	.LFE57-.LFB57
 5338 0db6 01       		.uleb128 0x1
 5339 0db7 9C       		.byte	0x9c
 5340 0db8 F90D0000 		.4byte	0xdf9
 5341 0dbc 11       		.uleb128 0x11
 5342 0dbd 54070000 		.4byte	.LASF117
 5343 0dc1 01       		.byte	0x1
 5344 0dc2 4B08     		.2byte	0x84b
 5345 0dc4 87000000 		.4byte	0x87
 5346 0dc8 46070000 		.4byte	.LLST60
 5347 0dcc 0C       		.uleb128 0xc
 5348 0dcd 8B070000 		.4byte	.LASF118
 5349 0dd1 01       		.byte	0x1
 5350 0dd2 4B08     		.2byte	0x84b
 5351 0dd4 F8000000 		.4byte	0xf8
 5352 0dd8 01       		.uleb128 0x1
 5353 0dd9 51       		.byte	0x51
 5354 0dda 0D       		.uleb128 0xd
 5355 0ddb 96030000 		.4byte	.LASF119
 5356 0ddf 01       		.byte	0x1
 5357 0de0 4D08     		.2byte	0x84d
 5358 0de2 F8000000 		.4byte	0xf8
 5359 0de6 01       		.uleb128 0x1
 5360 0de7 50       		.byte	0x50
 5361 0de8 18       		.uleb128 0x18
 5362 0de9 07080000 		.4byte	.LASF120
 5363 0ded 01       		.byte	0x1
 5364 0dee 4E08     		.2byte	0x84e
 5365 0df0 F90D0000 		.4byte	0xdf9
 5366 0df4 67070000 		.4byte	.LLST61
 5367 0df8 00       		.byte	0
 5368 0df9 04       		.uleb128 0x4
 5369 0dfa 04       		.byte	0x4
 5370 0dfb F8000000 		.4byte	0xf8
 5371 0dff 26       		.uleb128 0x26
 5372 0e00 31050000 		.4byte	.LASF121
 5373 0e04 01       		.byte	0x1
 5374 0e05 7308     		.2byte	0x873
 5375 0e07 F8000000 		.4byte	0xf8
 5376 0e0b 00000000 		.4byte	.LFB58
 5377 0e0f 14000000 		.4byte	.LFE58-.LFB58
 5378 0e13 01       		.uleb128 0x1
 5379 0e14 9C       		.byte	0x9c
 5380 0e15 3A0E0000 		.4byte	0xe3a
ARM GAS  C:\Users\ingan\AppData\Local\Temp\ccwaQbAc.s 			page 151


 5381 0e19 11       		.uleb128 0x11
 5382 0e1a 54070000 		.4byte	.LASF117
 5383 0e1e 01       		.byte	0x1
 5384 0e1f 7308     		.2byte	0x873
 5385 0e21 87000000 		.4byte	0x87
 5386 0e25 96070000 		.4byte	.LLST62
 5387 0e29 18       		.uleb128 0x18
 5388 0e2a 07080000 		.4byte	.LASF120
 5389 0e2e 01       		.byte	0x1
 5390 0e2f 7508     		.2byte	0x875
 5391 0e31 F90D0000 		.4byte	0xdf9
 5392 0e35 B7070000 		.4byte	.LLST63
 5393 0e39 00       		.byte	0
 5394 0e3a 26       		.uleb128 0x26
 5395 0e3b 7F040000 		.4byte	.LASF122
 5396 0e3f 01       		.byte	0x1
 5397 0e40 8908     		.2byte	0x889
 5398 0e42 F8000000 		.4byte	0xf8
 5399 0e46 00000000 		.4byte	.LFB59
 5400 0e4a 1C000000 		.4byte	.LFE59-.LFB59
 5401 0e4e 01       		.uleb128 0x1
 5402 0e4f 9C       		.byte	0x9c
 5403 0e50 910E0000 		.4byte	0xe91
 5404 0e54 11       		.uleb128 0x11
 5405 0e55 54070000 		.4byte	.LASF117
 5406 0e59 01       		.byte	0x1
 5407 0e5a 8908     		.2byte	0x889
 5408 0e5c 87000000 		.4byte	0x87
 5409 0e60 E6070000 		.4byte	.LLST64
 5410 0e64 0C       		.uleb128 0xc
 5411 0e65 8B070000 		.4byte	.LASF118
 5412 0e69 01       		.byte	0x1
 5413 0e6a 8908     		.2byte	0x889
 5414 0e6c F8000000 		.4byte	0xf8
 5415 0e70 01       		.uleb128 0x1
 5416 0e71 51       		.byte	0x51
 5417 0e72 0D       		.uleb128 0xd
 5418 0e73 96030000 		.4byte	.LASF119
 5419 0e77 01       		.byte	0x1
 5420 0e78 8B08     		.2byte	0x88b
 5421 0e7a F8000000 		.4byte	0xf8
 5422 0e7e 01       		.uleb128 0x1
 5423 0e7f 50       		.byte	0x50
 5424 0e80 18       		.uleb128 0x18
 5425 0e81 07080000 		.4byte	.LASF120
 5426 0e85 01       		.byte	0x1
 5427 0e86 8C08     		.2byte	0x88c
 5428 0e88 F90D0000 		.4byte	0xdf9
 5429 0e8c 07080000 		.4byte	.LLST65
 5430 0e90 00       		.byte	0
 5431 0e91 26       		.uleb128 0x26
 5432 0e92 00000000 		.4byte	.LASF123
 5433 0e96 01       		.byte	0x1
 5434 0e97 A608     		.2byte	0x8a6
 5435 0e99 F8000000 		.4byte	0xf8
 5436 0e9d 00000000 		.4byte	.LFB60
 5437 0ea1 14000000 		.4byte	.LFE60-.LFB60
ARM GAS  C:\Users\ingan\AppData\Local\Temp\ccwaQbAc.s 			page 152


 5438 0ea5 01       		.uleb128 0x1
 5439 0ea6 9C       		.byte	0x9c
 5440 0ea7 CC0E0000 		.4byte	0xecc
 5441 0eab 11       		.uleb128 0x11
 5442 0eac 54070000 		.4byte	.LASF117
 5443 0eb0 01       		.byte	0x1
 5444 0eb1 A608     		.2byte	0x8a6
 5445 0eb3 87000000 		.4byte	0x87
 5446 0eb7 36080000 		.4byte	.LLST66
 5447 0ebb 18       		.uleb128 0x18
 5448 0ebc 07080000 		.4byte	.LASF120
 5449 0ec0 01       		.byte	0x1
 5450 0ec1 A808     		.2byte	0x8a8
 5451 0ec3 F90D0000 		.4byte	0xdf9
 5452 0ec7 57080000 		.4byte	.LLST67
 5453 0ecb 00       		.byte	0
 5454 0ecc 17       		.uleb128 0x17
 5455 0ecd 26000000 		.4byte	.LASF124
 5456 0ed1 01       		.byte	0x1
 5457 0ed2 B908     		.2byte	0x8b9
 5458 0ed4 00000000 		.4byte	.LFB61
 5459 0ed8 14000000 		.4byte	.LFE61-.LFB61
 5460 0edc 01       		.uleb128 0x1
 5461 0edd 9C       		.byte	0x9c
 5462 0ede 030F0000 		.4byte	0xf03
 5463 0ee2 11       		.uleb128 0x11
 5464 0ee3 54070000 		.4byte	.LASF117
 5465 0ee7 01       		.byte	0x1
 5466 0ee8 B908     		.2byte	0x8b9
 5467 0eea 87000000 		.4byte	0x87
 5468 0eee 86080000 		.4byte	.LLST68
 5469 0ef2 11       		.uleb128 0x11
 5470 0ef3 EF060000 		.4byte	.LASF125
 5471 0ef7 01       		.byte	0x1
 5472 0ef8 B908     		.2byte	0x8b9
 5473 0efa 87000000 		.4byte	0x87
 5474 0efe A7080000 		.4byte	.LLST69
 5475 0f02 00       		.byte	0
 5476 0f03 26       		.uleb128 0x26
 5477 0f04 5C000000 		.4byte	.LASF126
 5478 0f08 01       		.byte	0x1
 5479 0f09 CD08     		.2byte	0x8cd
 5480 0f0b 87000000 		.4byte	0x87
 5481 0f0f 00000000 		.4byte	.LFB62
 5482 0f13 12000000 		.4byte	.LFE62-.LFB62
 5483 0f17 01       		.uleb128 0x1
 5484 0f18 9C       		.byte	0x9c
 5485 0f19 3E0F0000 		.4byte	0xf3e
 5486 0f1d 11       		.uleb128 0x11
 5487 0f1e 54070000 		.4byte	.LASF117
 5488 0f22 01       		.byte	0x1
 5489 0f23 CD08     		.2byte	0x8cd
 5490 0f25 87000000 		.4byte	0x87
 5491 0f29 C8080000 		.4byte	.LLST70
 5492 0f2d 18       		.uleb128 0x18
 5493 0f2e EF060000 		.4byte	.LASF125
 5494 0f32 01       		.byte	0x1
ARM GAS  C:\Users\ingan\AppData\Local\Temp\ccwaQbAc.s 			page 153


 5495 0f33 CF08     		.2byte	0x8cf
 5496 0f35 87000000 		.4byte	0x87
 5497 0f39 E9080000 		.4byte	.LLST71
 5498 0f3d 00       		.byte	0
 5499 0f3e 26       		.uleb128 0x26
 5500 0f3f 55030000 		.4byte	.LASF127
 5501 0f43 01       		.byte	0x1
 5502 0f44 E508     		.2byte	0x8e5
 5503 0f46 87000000 		.4byte	0x87
 5504 0f4a 00000000 		.4byte	.LFB63
 5505 0f4e 18000000 		.4byte	.LFE63-.LFB63
 5506 0f52 01       		.uleb128 0x1
 5507 0f53 9C       		.byte	0x9c
 5508 0f54 7A0F0000 		.4byte	0xf7a
 5509 0f58 11       		.uleb128 0x11
 5510 0f59 54070000 		.4byte	.LASF117
 5511 0f5d 01       		.byte	0x1
 5512 0f5e E508     		.2byte	0x8e5
 5513 0f60 87000000 		.4byte	0x87
 5514 0f64 00090000 		.4byte	.LLST72
 5515 0f68 2C       		.uleb128 0x2c
 5516 0f69 D4060000 		.4byte	.LASF128
 5517 0f6d 01       		.byte	0x1
 5518 0f6e E708     		.2byte	0x8e7
 5519 0f70 7A0F0000 		.4byte	0xf7a
 5520 0f74 80C28380 		.sleb128 -536813312
 5520      7E
 5521 0f79 00       		.byte	0
 5522 0f7a 04       		.uleb128 0x4
 5523 0f7b 04       		.byte	0x4
 5524 0f7c E7000000 		.4byte	0xe7
 5525 0f80 16       		.uleb128 0x16
 5526 0f81 47030000 		.4byte	.LASF129
 5527 0f85 01       		.byte	0x1
 5528 0f86 480A     		.2byte	0xa48
 5529 0f88 00000000 		.4byte	.LFB67
 5530 0f8c 10000000 		.4byte	.LFE67-.LFB67
 5531 0f90 01       		.uleb128 0x1
 5532 0f91 9C       		.byte	0x9c
 5533 0f92 16       		.uleb128 0x16
 5534 0f93 11030000 		.4byte	.LASF130
 5535 0f97 01       		.byte	0x1
 5536 0f98 580A     		.2byte	0xa58
 5537 0f9a 00000000 		.4byte	.LFB68
 5538 0f9e 10000000 		.4byte	.LFE68-.LFB68
 5539 0fa2 01       		.uleb128 0x1
 5540 0fa3 9C       		.byte	0x9c
 5541 0fa4 17       		.uleb128 0x17
 5542 0fa5 EE040000 		.4byte	.LASF131
 5543 0fa9 01       		.byte	0x1
 5544 0faa 370A     		.2byte	0xa37
 5545 0fac 00000000 		.4byte	.LFB66
 5546 0fb0 18000000 		.4byte	.LFE66-.LFB66
 5547 0fb4 01       		.uleb128 0x1
 5548 0fb5 9C       		.byte	0x9c
 5549 0fb6 C40F0000 		.4byte	0xfc4
 5550 0fba 1B       		.uleb128 0x1b
ARM GAS  C:\Users\ingan\AppData\Local\Temp\ccwaQbAc.s 			page 154


 5551 0fbb 06000000 		.4byte	.LVL193
 5552 0fbf 920F0000 		.4byte	0xf92
 5553 0fc3 00       		.byte	0
 5554 0fc4 16       		.uleb128 0x16
 5555 0fc5 06070000 		.4byte	.LASF132
 5556 0fc9 01       		.byte	0x1
 5557 0fca 680A     		.2byte	0xa68
 5558 0fcc 00000000 		.4byte	.LFB69
 5559 0fd0 10000000 		.4byte	.LFE69-.LFB69
 5560 0fd4 01       		.uleb128 0x1
 5561 0fd5 9C       		.byte	0x9c
 5562 0fd6 1D       		.uleb128 0x1d
 5563 0fd7 9A060000 		.4byte	.LASF134
 5564 0fdb 01       		.byte	0x1
 5565 0fdc 790A     		.2byte	0xa79
 5566 0fde 01       		.byte	0x1
 5567 0fdf F00F0000 		.4byte	0xff0
 5568 0fe3 1E       		.uleb128 0x1e
 5569 0fe4 2A0A0000 		.4byte	.LASF135
 5570 0fe8 01       		.byte	0x1
 5571 0fe9 790A     		.2byte	0xa79
 5572 0feb 9F000000 		.4byte	0x9f
 5573 0fef 00       		.byte	0
 5574 0ff0 1F       		.uleb128 0x1f
 5575 0ff1 D60F0000 		.4byte	0xfd6
 5576 0ff5 00000000 		.4byte	.LFB70
 5577 0ff9 10000000 		.4byte	.LFE70-.LFB70
 5578 0ffd 01       		.uleb128 0x1
 5579 0ffe 9C       		.byte	0x9c
 5580 0fff 0D100000 		.4byte	0x100d
 5581 1003 22       		.uleb128 0x22
 5582 1004 E30F0000 		.4byte	0xfe3
 5583 1008 21090000 		.4byte	.LLST73
 5584 100c 00       		.byte	0
 5585 100d 29       		.uleb128 0x29
 5586 100e 82020000 		.4byte	.LASF137
 5587 1012 01       		.byte	0x1
 5588 1013 890A     		.2byte	0xa89
 5589 1015 9F000000 		.4byte	0x9f
 5590 1019 00000000 		.4byte	.LFB71
 5591 101d 10000000 		.4byte	.LFE71-.LFB71
 5592 1021 01       		.uleb128 0x1
 5593 1022 9C       		.byte	0x9c
 5594 1023 29       		.uleb128 0x29
 5595 1024 8F050000 		.4byte	.LASF138
 5596 1028 01       		.byte	0x1
 5597 1029 990A     		.2byte	0xa99
 5598 102b 9F000000 		.4byte	0x9f
 5599 102f 00000000 		.4byte	.LFB72
 5600 1033 10000000 		.4byte	.LFE72-.LFB72
 5601 1037 01       		.uleb128 0x1
 5602 1038 9C       		.byte	0x9c
 5603 1039 17       		.uleb128 0x17
 5604 103a E2050000 		.4byte	.LASF139
 5605 103e 01       		.byte	0x1
 5606 103f B30A     		.2byte	0xab3
 5607 1041 00000000 		.4byte	.LFB73
ARM GAS  C:\Users\ingan\AppData\Local\Temp\ccwaQbAc.s 			page 155


 5608 1045 18000000 		.4byte	.LFE73-.LFB73
 5609 1049 01       		.uleb128 0x1
 5610 104a 9C       		.byte	0x9c
 5611 104b 5E100000 		.4byte	0x105e
 5612 104f 0C       		.uleb128 0xc
 5613 1050 6F060000 		.4byte	.LASF140
 5614 1054 01       		.byte	0x1
 5615 1055 B30A     		.2byte	0xab3
 5616 1057 9F000000 		.4byte	0x9f
 5617 105b 01       		.uleb128 0x1
 5618 105c 50       		.byte	0x50
 5619 105d 00       		.byte	0
 5620 105e 2D       		.uleb128 0x2d
 5621 105f 0F000000 		.4byte	.LASF170
 5622 1063 01       		.byte	0x1
 5623 1064 EE0A     		.2byte	0xaee
 5624 1066 01       		.byte	0x1
 5625 1067 17       		.uleb128 0x17
 5626 1068 5B070000 		.4byte	.LASF141
 5627 106c 01       		.byte	0x1
 5628 106d 1C0A     		.2byte	0xa1c
 5629 106f 00000000 		.4byte	.LFB65
 5630 1073 54000000 		.4byte	.LFE65-.LFB65
 5631 1077 01       		.uleb128 0x1
 5632 1078 9C       		.byte	0x9c
 5633 1079 E5100000 		.4byte	0x10e5
 5634 107d 2E       		.uleb128 0x2e
 5635 107e 6900     		.ascii	"i\000"
 5636 1080 01       		.byte	0x1
 5637 1081 1E0A     		.2byte	0xa1e
 5638 1083 9F000000 		.4byte	0x9f
 5639 1087 42090000 		.4byte	.LLST74
 5640 108b 21       		.uleb128 0x21
 5641 108c D60F0000 		.4byte	0xfd6
 5642 1090 20000000 		.4byte	.LBB24
 5643 1094 0E000000 		.4byte	.LBE24-.LBB24
 5644 1098 01       		.byte	0x1
 5645 1099 270A     		.2byte	0xa27
 5646 109b A9100000 		.4byte	0x10a9
 5647 109f 22       		.uleb128 0x22
 5648 10a0 E30F0000 		.4byte	0xfe3
 5649 10a4 92090000 		.4byte	.LLST75
 5650 10a8 00       		.byte	0
 5651 10a9 2F       		.uleb128 0x2f
 5652 10aa 5E100000 		.4byte	0x105e
 5653 10ae 2E000000 		.4byte	.LBB26
 5654 10b2 04000000 		.4byte	.LBE26-.LBB26
 5655 10b6 01       		.byte	0x1
 5656 10b7 280A     		.2byte	0xa28
 5657 10b9 19       		.uleb128 0x19
 5658 10ba 18000000 		.4byte	.LVL203
 5659 10be A20D0000 		.4byte	0xda2
 5660 10c2 D5100000 		.4byte	0x10d5
 5661 10c6 1A       		.uleb128 0x1a
 5662 10c7 01       		.uleb128 0x1
 5663 10c8 50       		.byte	0x50
 5664 10c9 01       		.uleb128 0x1
ARM GAS  C:\Users\ingan\AppData\Local\Temp\ccwaQbAc.s 			page 156


 5665 10ca 3F       		.byte	0x3f
 5666 10cb 1A       		.uleb128 0x1a
 5667 10cc 01       		.uleb128 0x1
 5668 10cd 51       		.byte	0x51
 5669 10ce 05       		.uleb128 0x5
 5670 10cf 03       		.byte	0x3
 5671 10d0 00000000 		.4byte	CySysTickServiceCallbacks
 5672 10d4 00       		.byte	0
 5673 10d5 1C       		.uleb128 0x1c
 5674 10d6 1E000000 		.4byte	.LVL204
 5675 10da 39100000 		.4byte	0x1039
 5676 10de 1A       		.uleb128 0x1a
 5677 10df 01       		.uleb128 0x1
 5678 10e0 50       		.byte	0x50
 5679 10e1 01       		.uleb128 0x1
 5680 10e2 31       		.byte	0x31
 5681 10e3 00       		.byte	0
 5682 10e4 00       		.byte	0
 5683 10e5 17       		.uleb128 0x17
 5684 10e6 A1050000 		.4byte	.LASF142
 5685 10ea 01       		.byte	0x1
 5686 10eb FF09     		.2byte	0x9ff
 5687 10ed 00000000 		.4byte	.LFB64
 5688 10f1 1C000000 		.4byte	.LFE64-.LFB64
 5689 10f5 01       		.uleb128 0x1
 5690 10f6 9C       		.byte	0x9c
 5691 10f7 0E110000 		.4byte	0x110e
 5692 10fb 1B       		.uleb128 0x1b
 5693 10fc 0C000000 		.4byte	.LVL206
 5694 1100 67100000 		.4byte	0x1067
 5695 1104 1B       		.uleb128 0x1b
 5696 1105 16000000 		.4byte	.LVL207
 5697 1109 A40F0000 		.4byte	0xfa4
 5698 110d 00       		.byte	0
 5699 110e 29       		.uleb128 0x29
 5700 110f B4070000 		.4byte	.LASF143
 5701 1113 01       		.byte	0x1
 5702 1114 CC0A     		.2byte	0xacc
 5703 1116 9F000000 		.4byte	0x9f
 5704 111a 00000000 		.4byte	.LFB74
 5705 111e 10000000 		.4byte	.LFE74-.LFB74
 5706 1122 01       		.uleb128 0x1
 5707 1123 9C       		.byte	0x9c
 5708 1124 29       		.uleb128 0x29
 5709 1125 22040000 		.4byte	.LASF144
 5710 1129 01       		.byte	0x1
 5711 112a E10A     		.2byte	0xae1
 5712 112c 9F000000 		.4byte	0x9f
 5713 1130 00000000 		.4byte	.LFB75
 5714 1134 10000000 		.4byte	.LFE75-.LFB75
 5715 1138 01       		.uleb128 0x1
 5716 1139 9C       		.byte	0x9c
 5717 113a 30       		.uleb128 0x30
 5718 113b B0050000 		.4byte	.LASF145
 5719 113f 01       		.byte	0x1
 5720 1140 360B     		.2byte	0xb36
 5721 1142 00000000 		.4byte	.LFB79
ARM GAS  C:\Users\ingan\AppData\Local\Temp\ccwaQbAc.s 			page 157


 5722 1146 24000000 		.4byte	.LFE79-.LFB79
 5723 114a 01       		.uleb128 0x1
 5724 114b 9C       		.byte	0x9c
 5725 114c 64110000 		.4byte	0x1164
 5726 1150 31       		.uleb128 0x31
 5727 1151 6900     		.ascii	"i\000"
 5728 1153 01       		.byte	0x1
 5729 1154 380B     		.2byte	0xb38
 5730 1156 9F000000 		.4byte	0x9f
 5731 115a 1B       		.uleb128 0x1b
 5732 115b 06000000 		.4byte	.LVL208
 5733 115f 24110000 		.4byte	0x1124
 5734 1163 00       		.byte	0
 5735 1164 28       		.uleb128 0x28
 5736 1165 5E100000 		.4byte	0x105e
 5737 1169 00000000 		.4byte	.LFB76
 5738 116d 0C000000 		.4byte	.LFE76-.LFB76
 5739 1171 01       		.uleb128 0x1
 5740 1172 9C       		.byte	0x9c
 5741 1173 26       		.uleb128 0x26
 5742 1174 CD010000 		.4byte	.LASF147
 5743 1178 01       		.byte	0x1
 5744 1179 110B     		.2byte	0xb11
 5745 117b 04010000 		.4byte	0x104
 5746 117f 00000000 		.4byte	.LFB77
 5747 1183 10000000 		.4byte	.LFE77-.LFB77
 5748 1187 01       		.uleb128 0x1
 5749 1188 9C       		.byte	0x9c
 5750 1189 BA110000 		.4byte	0x11ba
 5751 118d 11       		.uleb128 0x11
 5752 118e 54070000 		.4byte	.LASF117
 5753 1192 01       		.byte	0x1
 5754 1193 110B     		.2byte	0xb11
 5755 1195 9F000000 		.4byte	0x9f
 5756 1199 B5090000 		.4byte	.LLST76
 5757 119d 0C       		.uleb128 0xc
 5758 119e 24080000 		.4byte	.LASF148
 5759 11a2 01       		.byte	0x1
 5760 11a3 110B     		.2byte	0xb11
 5761 11a5 04010000 		.4byte	0x104
 5762 11a9 01       		.uleb128 0x1
 5763 11aa 51       		.byte	0x51
 5764 11ab 0D       		.uleb128 0xd
 5765 11ac 84070000 		.4byte	.LASF149
 5766 11b0 01       		.byte	0x1
 5767 11b1 130B     		.2byte	0xb13
 5768 11b3 04010000 		.4byte	0x104
 5769 11b7 01       		.uleb128 0x1
 5770 11b8 50       		.byte	0x50
 5771 11b9 00       		.byte	0
 5772 11ba 26       		.uleb128 0x26
 5773 11bb 6E030000 		.4byte	.LASF150
 5774 11bf 01       		.byte	0x1
 5775 11c0 290B     		.2byte	0xb29
 5776 11c2 04010000 		.4byte	0x104
 5777 11c6 00000000 		.4byte	.LFB78
 5778 11ca 10000000 		.4byte	.LFE78-.LFB78
ARM GAS  C:\Users\ingan\AppData\Local\Temp\ccwaQbAc.s 			page 158


 5779 11ce 01       		.uleb128 0x1
 5780 11cf 9C       		.byte	0x9c
 5781 11d0 E5110000 		.4byte	0x11e5
 5782 11d4 11       		.uleb128 0x11
 5783 11d5 54070000 		.4byte	.LASF117
 5784 11d9 01       		.byte	0x1
 5785 11da 290B     		.2byte	0xb29
 5786 11dc 9F000000 		.4byte	0x9f
 5787 11e0 D6090000 		.4byte	.LLST77
 5788 11e4 00       		.byte	0
 5789 11e5 17       		.uleb128 0x17
 5790 11e6 16080000 		.4byte	.LASF151
 5791 11ea 01       		.byte	0x1
 5792 11eb 570B     		.2byte	0xb57
 5793 11ed 00000000 		.4byte	.LFB80
 5794 11f1 70000000 		.4byte	.LFE80-.LFB80
 5795 11f5 01       		.uleb128 0x1
 5796 11f6 9C       		.byte	0x9c
 5797 11f7 0A120000 		.4byte	0x120a
 5798 11fb 0C       		.uleb128 0xc
 5799 11fc ED090000 		.4byte	.LASF152
 5800 1200 01       		.byte	0x1
 5801 1201 570B     		.2byte	0xb57
 5802 1203 0A120000 		.4byte	0x120a
 5803 1207 01       		.uleb128 0x1
 5804 1208 50       		.byte	0x50
 5805 1209 00       		.byte	0
 5806 120a 04       		.uleb128 0x4
 5807 120b 04       		.byte	0x4
 5808 120c 9F000000 		.4byte	0x9f
 5809 1210 32       		.uleb128 0x32
 5810 1211 04010000 		.4byte	0x104
 5811 1215 20120000 		.4byte	0x1220
 5812 1219 33       		.uleb128 0x33
 5813 121a 72000000 		.4byte	0x72
 5814 121e 04       		.byte	0x4
 5815 121f 00       		.byte	0
 5816 1220 34       		.uleb128 0x34
 5817 1221 43050000 		.4byte	.LASF153
 5818 1225 01       		.byte	0x1
 5819 1226 34       		.byte	0x34
 5820 1227 10120000 		.4byte	0x1210
 5821 122b 05       		.uleb128 0x5
 5822 122c 03       		.byte	0x3
 5823 122d 04000000 		.4byte	CySysTickCallbacks
 5824 1231 35       		.uleb128 0x35
 5825 1232 F8060000 		.4byte	.LASF154
 5826 1236 01       		.byte	0x1
 5827 1237 1C       		.byte	0x1c
 5828 1238 87000000 		.4byte	0x87
 5829 123c 05       		.uleb128 0x5
 5830 123d 03       		.byte	0x3
 5831 123e 00000000 		.4byte	CyResetStatus
 5832 1242 35       		.uleb128 0x35
 5833 1243 A7040000 		.4byte	.LASF155
 5834 1247 01       		.byte	0x1
 5835 1248 28       		.byte	0x28
ARM GAS  C:\Users\ingan\AppData\Local\Temp\ccwaQbAc.s 			page 159


 5836 1249 9F000000 		.4byte	0x9f
 5837 124d 05       		.uleb128 0x5
 5838 124e 03       		.byte	0x3
 5839 124f 00000000 		.4byte	cydelay_freq_hz
 5840 1253 35       		.uleb128 0x35
 5841 1254 9E020000 		.4byte	.LASF156
 5842 1258 01       		.byte	0x1
 5843 1259 29       		.byte	0x29
 5844 125a 9F000000 		.4byte	0x9f
 5845 125e 05       		.uleb128 0x5
 5846 125f 03       		.byte	0x3
 5847 1260 00000000 		.4byte	cydelay_freq_khz
 5848 1264 35       		.uleb128 0x35
 5849 1265 97000000 		.4byte	.LASF157
 5850 1269 01       		.byte	0x1
 5851 126a 2A       		.byte	0x2a
 5852 126b 87000000 		.4byte	0x87
 5853 126f 05       		.uleb128 0x5
 5854 1270 03       		.byte	0x3
 5855 1271 00000000 		.4byte	cydelay_freq_mhz
 5856 1275 35       		.uleb128 0x35
 5857 1276 F6030000 		.4byte	.LASF158
 5858 127a 01       		.byte	0x1
 5859 127b 2B       		.byte	0x2b
 5860 127c 9F000000 		.4byte	0x9f
 5861 1280 05       		.uleb128 0x5
 5862 1281 03       		.byte	0x3
 5863 1282 00000000 		.4byte	cydelay_32k_ms
 5864 1286 35       		.uleb128 0x35
 5865 1287 A3010000 		.4byte	.LASF159
 5866 128b 01       		.byte	0x1
 5867 128c 36       		.byte	0x36
 5868 128d 9F000000 		.4byte	0x9f
 5869 1291 05       		.uleb128 0x5
 5870 1292 03       		.byte	0x3
 5871 1293 00000000 		.4byte	CySysTickInitVar
 5872 1297 36       		.uleb128 0x36
 5873 1298 4E090000 		.4byte	.LASF160
 5874 129c 4E090000 		.4byte	.LASF160
 5875 12a0 03       		.byte	0x3
 5876 12a1 7D       		.byte	0x7d
 5877 12a2 36       		.uleb128 0x36
 5878 12a3 E2000000 		.4byte	.LASF161
 5879 12a7 E2000000 		.4byte	.LASF161
 5880 12ab 03       		.byte	0x3
 5881 12ac 7E       		.byte	0x7e
 5882 12ad 36       		.uleb128 0x36
 5883 12ae 8B010000 		.4byte	.LASF162
 5884 12b2 8B010000 		.4byte	.LASF162
 5885 12b6 04       		.byte	0x4
 5886 12b7 2A       		.byte	0x2a
 5887 12b8 36       		.uleb128 0x36
 5888 12b9 56040000 		.4byte	.LASF163
 5889 12bd 56040000 		.4byte	.LASF163
 5890 12c1 04       		.byte	0x4
 5891 12c2 26       		.byte	0x26
 5892 12c3 36       		.uleb128 0x36
ARM GAS  C:\Users\ingan\AppData\Local\Temp\ccwaQbAc.s 			page 160


 5893 12c4 38040000 		.4byte	.LASF164
 5894 12c8 38040000 		.4byte	.LASF164
 5895 12cc 03       		.byte	0x3
 5896 12cd 79       		.byte	0x79
 5897 12ce 00       		.byte	0
 5898              		.section	.debug_abbrev,"",%progbits
 5899              	.Ldebug_abbrev0:
 5900 0000 01       		.uleb128 0x1
 5901 0001 11       		.uleb128 0x11
 5902 0002 01       		.byte	0x1
 5903 0003 25       		.uleb128 0x25
 5904 0004 0E       		.uleb128 0xe
 5905 0005 13       		.uleb128 0x13
 5906 0006 0B       		.uleb128 0xb
 5907 0007 03       		.uleb128 0x3
 5908 0008 0E       		.uleb128 0xe
 5909 0009 1B       		.uleb128 0x1b
 5910 000a 0E       		.uleb128 0xe
 5911 000b 55       		.uleb128 0x55
 5912 000c 17       		.uleb128 0x17
 5913 000d 11       		.uleb128 0x11
 5914 000e 01       		.uleb128 0x1
 5915 000f 10       		.uleb128 0x10
 5916 0010 17       		.uleb128 0x17
 5917 0011 00       		.byte	0
 5918 0012 00       		.byte	0
 5919 0013 02       		.uleb128 0x2
 5920 0014 24       		.uleb128 0x24
 5921 0015 00       		.byte	0
 5922 0016 0B       		.uleb128 0xb
 5923 0017 0B       		.uleb128 0xb
 5924 0018 3E       		.uleb128 0x3e
 5925 0019 0B       		.uleb128 0xb
 5926 001a 03       		.uleb128 0x3
 5927 001b 0E       		.uleb128 0xe
 5928 001c 00       		.byte	0
 5929 001d 00       		.byte	0
 5930 001e 03       		.uleb128 0x3
 5931 001f 24       		.uleb128 0x24
 5932 0020 00       		.byte	0
 5933 0021 0B       		.uleb128 0xb
 5934 0022 0B       		.uleb128 0xb
 5935 0023 3E       		.uleb128 0x3e
 5936 0024 0B       		.uleb128 0xb
 5937 0025 03       		.uleb128 0x3
 5938 0026 08       		.uleb128 0x8
 5939 0027 00       		.byte	0
 5940 0028 00       		.byte	0
 5941 0029 04       		.uleb128 0x4
 5942 002a 0F       		.uleb128 0xf
 5943 002b 00       		.byte	0
 5944 002c 0B       		.uleb128 0xb
 5945 002d 0B       		.uleb128 0xb
 5946 002e 49       		.uleb128 0x49
 5947 002f 13       		.uleb128 0x13
 5948 0030 00       		.byte	0
 5949 0031 00       		.byte	0
ARM GAS  C:\Users\ingan\AppData\Local\Temp\ccwaQbAc.s 			page 161


 5950 0032 05       		.uleb128 0x5
 5951 0033 15       		.uleb128 0x15
 5952 0034 00       		.byte	0
 5953 0035 27       		.uleb128 0x27
 5954 0036 19       		.uleb128 0x19
 5955 0037 00       		.byte	0
 5956 0038 00       		.byte	0
 5957 0039 06       		.uleb128 0x6
 5958 003a 16       		.uleb128 0x16
 5959 003b 00       		.byte	0
 5960 003c 03       		.uleb128 0x3
 5961 003d 0E       		.uleb128 0xe
 5962 003e 3A       		.uleb128 0x3a
 5963 003f 0B       		.uleb128 0xb
 5964 0040 3B       		.uleb128 0x3b
 5965 0041 05       		.uleb128 0x5
 5966 0042 49       		.uleb128 0x49
 5967 0043 13       		.uleb128 0x13
 5968 0044 00       		.byte	0
 5969 0045 00       		.byte	0
 5970 0046 07       		.uleb128 0x7
 5971 0047 35       		.uleb128 0x35
 5972 0048 00       		.byte	0
 5973 0049 49       		.uleb128 0x49
 5974 004a 13       		.uleb128 0x13
 5975 004b 00       		.byte	0
 5976 004c 00       		.byte	0
 5977 004d 08       		.uleb128 0x8
 5978 004e 16       		.uleb128 0x16
 5979 004f 00       		.byte	0
 5980 0050 03       		.uleb128 0x3
 5981 0051 0E       		.uleb128 0xe
 5982 0052 3A       		.uleb128 0x3a
 5983 0053 0B       		.uleb128 0xb
 5984 0054 3B       		.uleb128 0x3b
 5985 0055 0B       		.uleb128 0xb
 5986 0056 49       		.uleb128 0x49
 5987 0057 13       		.uleb128 0x13
 5988 0058 00       		.byte	0
 5989 0059 00       		.byte	0
 5990 005a 09       		.uleb128 0x9
 5991 005b 2E       		.uleb128 0x2e
 5992 005c 01       		.byte	0x1
 5993 005d 03       		.uleb128 0x3
 5994 005e 0E       		.uleb128 0xe
 5995 005f 3A       		.uleb128 0x3a
 5996 0060 0B       		.uleb128 0xb
 5997 0061 3B       		.uleb128 0x3b
 5998 0062 05       		.uleb128 0x5
 5999 0063 27       		.uleb128 0x27
 6000 0064 19       		.uleb128 0x19
 6001 0065 49       		.uleb128 0x49
 6002 0066 13       		.uleb128 0x13
 6003 0067 20       		.uleb128 0x20
 6004 0068 0B       		.uleb128 0xb
 6005 0069 01       		.uleb128 0x1
 6006 006a 13       		.uleb128 0x13
ARM GAS  C:\Users\ingan\AppData\Local\Temp\ccwaQbAc.s 			page 162


 6007 006b 00       		.byte	0
 6008 006c 00       		.byte	0
 6009 006d 0A       		.uleb128 0xa
 6010 006e 34       		.uleb128 0x34
 6011 006f 00       		.byte	0
 6012 0070 03       		.uleb128 0x3
 6013 0071 0E       		.uleb128 0xe
 6014 0072 3A       		.uleb128 0x3a
 6015 0073 0B       		.uleb128 0xb
 6016 0074 3B       		.uleb128 0x3b
 6017 0075 05       		.uleb128 0x5
 6018 0076 49       		.uleb128 0x49
 6019 0077 13       		.uleb128 0x13
 6020 0078 00       		.byte	0
 6021 0079 00       		.byte	0
 6022 007a 0B       		.uleb128 0xb
 6023 007b 2E       		.uleb128 0x2e
 6024 007c 01       		.byte	0x1
 6025 007d 03       		.uleb128 0x3
 6026 007e 0E       		.uleb128 0xe
 6027 007f 3A       		.uleb128 0x3a
 6028 0080 0B       		.uleb128 0xb
 6029 0081 3B       		.uleb128 0x3b
 6030 0082 05       		.uleb128 0x5
 6031 0083 27       		.uleb128 0x27
 6032 0084 19       		.uleb128 0x19
 6033 0085 11       		.uleb128 0x11
 6034 0086 01       		.uleb128 0x1
 6035 0087 12       		.uleb128 0x12
 6036 0088 06       		.uleb128 0x6
 6037 0089 40       		.uleb128 0x40
 6038 008a 18       		.uleb128 0x18
 6039 008b 9742     		.uleb128 0x2117
 6040 008d 19       		.uleb128 0x19
 6041 008e 01       		.uleb128 0x1
 6042 008f 13       		.uleb128 0x13
 6043 0090 00       		.byte	0
 6044 0091 00       		.byte	0
 6045 0092 0C       		.uleb128 0xc
 6046 0093 05       		.uleb128 0x5
 6047 0094 00       		.byte	0
 6048 0095 03       		.uleb128 0x3
 6049 0096 0E       		.uleb128 0xe
 6050 0097 3A       		.uleb128 0x3a
 6051 0098 0B       		.uleb128 0xb
 6052 0099 3B       		.uleb128 0x3b
 6053 009a 05       		.uleb128 0x5
 6054 009b 49       		.uleb128 0x49
 6055 009c 13       		.uleb128 0x13
 6056 009d 02       		.uleb128 0x2
 6057 009e 18       		.uleb128 0x18
 6058 009f 00       		.byte	0
 6059 00a0 00       		.byte	0
 6060 00a1 0D       		.uleb128 0xd
 6061 00a2 34       		.uleb128 0x34
 6062 00a3 00       		.byte	0
 6063 00a4 03       		.uleb128 0x3
ARM GAS  C:\Users\ingan\AppData\Local\Temp\ccwaQbAc.s 			page 163


 6064 00a5 0E       		.uleb128 0xe
 6065 00a6 3A       		.uleb128 0x3a
 6066 00a7 0B       		.uleb128 0xb
 6067 00a8 3B       		.uleb128 0x3b
 6068 00a9 05       		.uleb128 0x5
 6069 00aa 49       		.uleb128 0x49
 6070 00ab 13       		.uleb128 0x13
 6071 00ac 02       		.uleb128 0x2
 6072 00ad 18       		.uleb128 0x18
 6073 00ae 00       		.byte	0
 6074 00af 00       		.byte	0
 6075 00b0 0E       		.uleb128 0xe
 6076 00b1 1D       		.uleb128 0x1d
 6077 00b2 01       		.byte	0x1
 6078 00b3 31       		.uleb128 0x31
 6079 00b4 13       		.uleb128 0x13
 6080 00b5 11       		.uleb128 0x11
 6081 00b6 01       		.uleb128 0x1
 6082 00b7 12       		.uleb128 0x12
 6083 00b8 06       		.uleb128 0x6
 6084 00b9 58       		.uleb128 0x58
 6085 00ba 0B       		.uleb128 0xb
 6086 00bb 59       		.uleb128 0x59
 6087 00bc 05       		.uleb128 0x5
 6088 00bd 00       		.byte	0
 6089 00be 00       		.byte	0
 6090 00bf 0F       		.uleb128 0xf
 6091 00c0 0B       		.uleb128 0xb
 6092 00c1 01       		.byte	0x1
 6093 00c2 11       		.uleb128 0x11
 6094 00c3 01       		.uleb128 0x1
 6095 00c4 12       		.uleb128 0x12
 6096 00c5 06       		.uleb128 0x6
 6097 00c6 00       		.byte	0
 6098 00c7 00       		.byte	0
 6099 00c8 10       		.uleb128 0x10
 6100 00c9 34       		.uleb128 0x34
 6101 00ca 00       		.byte	0
 6102 00cb 31       		.uleb128 0x31
 6103 00cc 13       		.uleb128 0x13
 6104 00cd 02       		.uleb128 0x2
 6105 00ce 17       		.uleb128 0x17
 6106 00cf 00       		.byte	0
 6107 00d0 00       		.byte	0
 6108 00d1 11       		.uleb128 0x11
 6109 00d2 05       		.uleb128 0x5
 6110 00d3 00       		.byte	0
 6111 00d4 03       		.uleb128 0x3
 6112 00d5 0E       		.uleb128 0xe
 6113 00d6 3A       		.uleb128 0x3a
 6114 00d7 0B       		.uleb128 0xb
 6115 00d8 3B       		.uleb128 0x3b
 6116 00d9 05       		.uleb128 0x5
 6117 00da 49       		.uleb128 0x49
 6118 00db 13       		.uleb128 0x13
 6119 00dc 02       		.uleb128 0x2
 6120 00dd 17       		.uleb128 0x17
ARM GAS  C:\Users\ingan\AppData\Local\Temp\ccwaQbAc.s 			page 164


 6121 00de 00       		.byte	0
 6122 00df 00       		.byte	0
 6123 00e0 12       		.uleb128 0x12
 6124 00e1 2E       		.uleb128 0x2e
 6125 00e2 00       		.byte	0
 6126 00e3 3F       		.uleb128 0x3f
 6127 00e4 19       		.uleb128 0x19
 6128 00e5 03       		.uleb128 0x3
 6129 00e6 0E       		.uleb128 0xe
 6130 00e7 3A       		.uleb128 0x3a
 6131 00e8 0B       		.uleb128 0xb
 6132 00e9 3B       		.uleb128 0x3b
 6133 00ea 0B       		.uleb128 0xb
 6134 00eb 27       		.uleb128 0x27
 6135 00ec 19       		.uleb128 0x19
 6136 00ed 11       		.uleb128 0x11
 6137 00ee 01       		.uleb128 0x1
 6138 00ef 12       		.uleb128 0x12
 6139 00f0 06       		.uleb128 0x6
 6140 00f1 40       		.uleb128 0x40
 6141 00f2 18       		.uleb128 0x18
 6142 00f3 9742     		.uleb128 0x2117
 6143 00f5 19       		.uleb128 0x19
 6144 00f6 00       		.byte	0
 6145 00f7 00       		.byte	0
 6146 00f8 13       		.uleb128 0x13
 6147 00f9 2E       		.uleb128 0x2e
 6148 00fa 01       		.byte	0x1
 6149 00fb 3F       		.uleb128 0x3f
 6150 00fc 19       		.uleb128 0x19
 6151 00fd 03       		.uleb128 0x3
 6152 00fe 0E       		.uleb128 0xe
 6153 00ff 3A       		.uleb128 0x3a
 6154 0100 0B       		.uleb128 0xb
 6155 0101 3B       		.uleb128 0x3b
 6156 0102 0B       		.uleb128 0xb
 6157 0103 27       		.uleb128 0x27
 6158 0104 19       		.uleb128 0x19
 6159 0105 11       		.uleb128 0x11
 6160 0106 01       		.uleb128 0x1
 6161 0107 12       		.uleb128 0x12
 6162 0108 06       		.uleb128 0x6
 6163 0109 40       		.uleb128 0x40
 6164 010a 18       		.uleb128 0x18
 6165 010b 9742     		.uleb128 0x2117
 6166 010d 19       		.uleb128 0x19
 6167 010e 01       		.uleb128 0x1
 6168 010f 13       		.uleb128 0x13
 6169 0110 00       		.byte	0
 6170 0111 00       		.byte	0
 6171 0112 14       		.uleb128 0x14
 6172 0113 05       		.uleb128 0x5
 6173 0114 00       		.byte	0
 6174 0115 03       		.uleb128 0x3
 6175 0116 0E       		.uleb128 0xe
 6176 0117 3A       		.uleb128 0x3a
 6177 0118 0B       		.uleb128 0xb
ARM GAS  C:\Users\ingan\AppData\Local\Temp\ccwaQbAc.s 			page 165


 6178 0119 3B       		.uleb128 0x3b
 6179 011a 0B       		.uleb128 0xb
 6180 011b 49       		.uleb128 0x49
 6181 011c 13       		.uleb128 0x13
 6182 011d 02       		.uleb128 0x2
 6183 011e 18       		.uleb128 0x18
 6184 011f 00       		.byte	0
 6185 0120 00       		.byte	0
 6186 0121 15       		.uleb128 0x15
 6187 0122 05       		.uleb128 0x5
 6188 0123 00       		.byte	0
 6189 0124 03       		.uleb128 0x3
 6190 0125 0E       		.uleb128 0xe
 6191 0126 3A       		.uleb128 0x3a
 6192 0127 0B       		.uleb128 0xb
 6193 0128 3B       		.uleb128 0x3b
 6194 0129 0B       		.uleb128 0xb
 6195 012a 49       		.uleb128 0x49
 6196 012b 13       		.uleb128 0x13
 6197 012c 02       		.uleb128 0x2
 6198 012d 17       		.uleb128 0x17
 6199 012e 00       		.byte	0
 6200 012f 00       		.byte	0
 6201 0130 16       		.uleb128 0x16
 6202 0131 2E       		.uleb128 0x2e
 6203 0132 00       		.byte	0
 6204 0133 3F       		.uleb128 0x3f
 6205 0134 19       		.uleb128 0x19
 6206 0135 03       		.uleb128 0x3
 6207 0136 0E       		.uleb128 0xe
 6208 0137 3A       		.uleb128 0x3a
 6209 0138 0B       		.uleb128 0xb
 6210 0139 3B       		.uleb128 0x3b
 6211 013a 05       		.uleb128 0x5
 6212 013b 27       		.uleb128 0x27
 6213 013c 19       		.uleb128 0x19
 6214 013d 11       		.uleb128 0x11
 6215 013e 01       		.uleb128 0x1
 6216 013f 12       		.uleb128 0x12
 6217 0140 06       		.uleb128 0x6
 6218 0141 40       		.uleb128 0x40
 6219 0142 18       		.uleb128 0x18
 6220 0143 9742     		.uleb128 0x2117
 6221 0145 19       		.uleb128 0x19
 6222 0146 00       		.byte	0
 6223 0147 00       		.byte	0
 6224 0148 17       		.uleb128 0x17
 6225 0149 2E       		.uleb128 0x2e
 6226 014a 01       		.byte	0x1
 6227 014b 3F       		.uleb128 0x3f
 6228 014c 19       		.uleb128 0x19
 6229 014d 03       		.uleb128 0x3
 6230 014e 0E       		.uleb128 0xe
 6231 014f 3A       		.uleb128 0x3a
 6232 0150 0B       		.uleb128 0xb
 6233 0151 3B       		.uleb128 0x3b
 6234 0152 05       		.uleb128 0x5
ARM GAS  C:\Users\ingan\AppData\Local\Temp\ccwaQbAc.s 			page 166


 6235 0153 27       		.uleb128 0x27
 6236 0154 19       		.uleb128 0x19
 6237 0155 11       		.uleb128 0x11
 6238 0156 01       		.uleb128 0x1
 6239 0157 12       		.uleb128 0x12
 6240 0158 06       		.uleb128 0x6
 6241 0159 40       		.uleb128 0x40
 6242 015a 18       		.uleb128 0x18
 6243 015b 9742     		.uleb128 0x2117
 6244 015d 19       		.uleb128 0x19
 6245 015e 01       		.uleb128 0x1
 6246 015f 13       		.uleb128 0x13
 6247 0160 00       		.byte	0
 6248 0161 00       		.byte	0
 6249 0162 18       		.uleb128 0x18
 6250 0163 34       		.uleb128 0x34
 6251 0164 00       		.byte	0
 6252 0165 03       		.uleb128 0x3
 6253 0166 0E       		.uleb128 0xe
 6254 0167 3A       		.uleb128 0x3a
 6255 0168 0B       		.uleb128 0xb
 6256 0169 3B       		.uleb128 0x3b
 6257 016a 05       		.uleb128 0x5
 6258 016b 49       		.uleb128 0x49
 6259 016c 13       		.uleb128 0x13
 6260 016d 02       		.uleb128 0x2
 6261 016e 17       		.uleb128 0x17
 6262 016f 00       		.byte	0
 6263 0170 00       		.byte	0
 6264 0171 19       		.uleb128 0x19
 6265 0172 898201   		.uleb128 0x4109
 6266 0175 01       		.byte	0x1
 6267 0176 11       		.uleb128 0x11
 6268 0177 01       		.uleb128 0x1
 6269 0178 31       		.uleb128 0x31
 6270 0179 13       		.uleb128 0x13
 6271 017a 01       		.uleb128 0x1
 6272 017b 13       		.uleb128 0x13
 6273 017c 00       		.byte	0
 6274 017d 00       		.byte	0
 6275 017e 1A       		.uleb128 0x1a
 6276 017f 8A8201   		.uleb128 0x410a
 6277 0182 00       		.byte	0
 6278 0183 02       		.uleb128 0x2
 6279 0184 18       		.uleb128 0x18
 6280 0185 9142     		.uleb128 0x2111
 6281 0187 18       		.uleb128 0x18
 6282 0188 00       		.byte	0
 6283 0189 00       		.byte	0
 6284 018a 1B       		.uleb128 0x1b
 6285 018b 898201   		.uleb128 0x4109
 6286 018e 00       		.byte	0
 6287 018f 11       		.uleb128 0x11
 6288 0190 01       		.uleb128 0x1
 6289 0191 31       		.uleb128 0x31
 6290 0192 13       		.uleb128 0x13
 6291 0193 00       		.byte	0
ARM GAS  C:\Users\ingan\AppData\Local\Temp\ccwaQbAc.s 			page 167


 6292 0194 00       		.byte	0
 6293 0195 1C       		.uleb128 0x1c
 6294 0196 898201   		.uleb128 0x4109
 6295 0199 01       		.byte	0x1
 6296 019a 11       		.uleb128 0x11
 6297 019b 01       		.uleb128 0x1
 6298 019c 31       		.uleb128 0x31
 6299 019d 13       		.uleb128 0x13
 6300 019e 00       		.byte	0
 6301 019f 00       		.byte	0
 6302 01a0 1D       		.uleb128 0x1d
 6303 01a1 2E       		.uleb128 0x2e
 6304 01a2 01       		.byte	0x1
 6305 01a3 3F       		.uleb128 0x3f
 6306 01a4 19       		.uleb128 0x19
 6307 01a5 03       		.uleb128 0x3
 6308 01a6 0E       		.uleb128 0xe
 6309 01a7 3A       		.uleb128 0x3a
 6310 01a8 0B       		.uleb128 0xb
 6311 01a9 3B       		.uleb128 0x3b
 6312 01aa 05       		.uleb128 0x5
 6313 01ab 27       		.uleb128 0x27
 6314 01ac 19       		.uleb128 0x19
 6315 01ad 20       		.uleb128 0x20
 6316 01ae 0B       		.uleb128 0xb
 6317 01af 01       		.uleb128 0x1
 6318 01b0 13       		.uleb128 0x13
 6319 01b1 00       		.byte	0
 6320 01b2 00       		.byte	0
 6321 01b3 1E       		.uleb128 0x1e
 6322 01b4 05       		.uleb128 0x5
 6323 01b5 00       		.byte	0
 6324 01b6 03       		.uleb128 0x3
 6325 01b7 0E       		.uleb128 0xe
 6326 01b8 3A       		.uleb128 0x3a
 6327 01b9 0B       		.uleb128 0xb
 6328 01ba 3B       		.uleb128 0x3b
 6329 01bb 05       		.uleb128 0x5
 6330 01bc 49       		.uleb128 0x49
 6331 01bd 13       		.uleb128 0x13
 6332 01be 00       		.byte	0
 6333 01bf 00       		.byte	0
 6334 01c0 1F       		.uleb128 0x1f
 6335 01c1 2E       		.uleb128 0x2e
 6336 01c2 01       		.byte	0x1
 6337 01c3 31       		.uleb128 0x31
 6338 01c4 13       		.uleb128 0x13
 6339 01c5 11       		.uleb128 0x11
 6340 01c6 01       		.uleb128 0x1
 6341 01c7 12       		.uleb128 0x12
 6342 01c8 06       		.uleb128 0x6
 6343 01c9 40       		.uleb128 0x40
 6344 01ca 18       		.uleb128 0x18
 6345 01cb 9742     		.uleb128 0x2117
 6346 01cd 19       		.uleb128 0x19
 6347 01ce 01       		.uleb128 0x1
 6348 01cf 13       		.uleb128 0x13
ARM GAS  C:\Users\ingan\AppData\Local\Temp\ccwaQbAc.s 			page 168


 6349 01d0 00       		.byte	0
 6350 01d1 00       		.byte	0
 6351 01d2 20       		.uleb128 0x20
 6352 01d3 05       		.uleb128 0x5
 6353 01d4 00       		.byte	0
 6354 01d5 31       		.uleb128 0x31
 6355 01d6 13       		.uleb128 0x13
 6356 01d7 02       		.uleb128 0x2
 6357 01d8 18       		.uleb128 0x18
 6358 01d9 00       		.byte	0
 6359 01da 00       		.byte	0
 6360 01db 21       		.uleb128 0x21
 6361 01dc 1D       		.uleb128 0x1d
 6362 01dd 01       		.byte	0x1
 6363 01de 31       		.uleb128 0x31
 6364 01df 13       		.uleb128 0x13
 6365 01e0 11       		.uleb128 0x11
 6366 01e1 01       		.uleb128 0x1
 6367 01e2 12       		.uleb128 0x12
 6368 01e3 06       		.uleb128 0x6
 6369 01e4 58       		.uleb128 0x58
 6370 01e5 0B       		.uleb128 0xb
 6371 01e6 59       		.uleb128 0x59
 6372 01e7 05       		.uleb128 0x5
 6373 01e8 01       		.uleb128 0x1
 6374 01e9 13       		.uleb128 0x13
 6375 01ea 00       		.byte	0
 6376 01eb 00       		.byte	0
 6377 01ec 22       		.uleb128 0x22
 6378 01ed 05       		.uleb128 0x5
 6379 01ee 00       		.byte	0
 6380 01ef 31       		.uleb128 0x31
 6381 01f0 13       		.uleb128 0x13
 6382 01f1 02       		.uleb128 0x2
 6383 01f2 17       		.uleb128 0x17
 6384 01f3 00       		.byte	0
 6385 01f4 00       		.byte	0
 6386 01f5 23       		.uleb128 0x23
 6387 01f6 05       		.uleb128 0x5
 6388 01f7 00       		.byte	0
 6389 01f8 31       		.uleb128 0x31
 6390 01f9 13       		.uleb128 0x13
 6391 01fa 1C       		.uleb128 0x1c
 6392 01fb 0B       		.uleb128 0xb
 6393 01fc 00       		.byte	0
 6394 01fd 00       		.byte	0
 6395 01fe 24       		.uleb128 0x24
 6396 01ff 2E       		.uleb128 0x2e
 6397 0200 01       		.byte	0x1
 6398 0201 3F       		.uleb128 0x3f
 6399 0202 19       		.uleb128 0x19
 6400 0203 03       		.uleb128 0x3
 6401 0204 0E       		.uleb128 0xe
 6402 0205 3A       		.uleb128 0x3a
 6403 0206 0B       		.uleb128 0xb
 6404 0207 3B       		.uleb128 0x3b
 6405 0208 0B       		.uleb128 0xb
ARM GAS  C:\Users\ingan\AppData\Local\Temp\ccwaQbAc.s 			page 169


 6406 0209 27       		.uleb128 0x27
 6407 020a 19       		.uleb128 0x19
 6408 020b 49       		.uleb128 0x49
 6409 020c 13       		.uleb128 0x13
 6410 020d 11       		.uleb128 0x11
 6411 020e 01       		.uleb128 0x1
 6412 020f 12       		.uleb128 0x12
 6413 0210 06       		.uleb128 0x6
 6414 0211 40       		.uleb128 0x40
 6415 0212 18       		.uleb128 0x18
 6416 0213 9742     		.uleb128 0x2117
 6417 0215 19       		.uleb128 0x19
 6418 0216 01       		.uleb128 0x1
 6419 0217 13       		.uleb128 0x13
 6420 0218 00       		.byte	0
 6421 0219 00       		.byte	0
 6422 021a 25       		.uleb128 0x25
 6423 021b 34       		.uleb128 0x34
 6424 021c 00       		.byte	0
 6425 021d 03       		.uleb128 0x3
 6426 021e 0E       		.uleb128 0xe
 6427 021f 3A       		.uleb128 0x3a
 6428 0220 0B       		.uleb128 0xb
 6429 0221 3B       		.uleb128 0x3b
 6430 0222 0B       		.uleb128 0xb
 6431 0223 49       		.uleb128 0x49
 6432 0224 13       		.uleb128 0x13
 6433 0225 02       		.uleb128 0x2
 6434 0226 17       		.uleb128 0x17
 6435 0227 00       		.byte	0
 6436 0228 00       		.byte	0
 6437 0229 26       		.uleb128 0x26
 6438 022a 2E       		.uleb128 0x2e
 6439 022b 01       		.byte	0x1
 6440 022c 3F       		.uleb128 0x3f
 6441 022d 19       		.uleb128 0x19
 6442 022e 03       		.uleb128 0x3
 6443 022f 0E       		.uleb128 0xe
 6444 0230 3A       		.uleb128 0x3a
 6445 0231 0B       		.uleb128 0xb
 6446 0232 3B       		.uleb128 0x3b
 6447 0233 05       		.uleb128 0x5
 6448 0234 27       		.uleb128 0x27
 6449 0235 19       		.uleb128 0x19
 6450 0236 49       		.uleb128 0x49
 6451 0237 13       		.uleb128 0x13
 6452 0238 11       		.uleb128 0x11
 6453 0239 01       		.uleb128 0x1
 6454 023a 12       		.uleb128 0x12
 6455 023b 06       		.uleb128 0x6
 6456 023c 40       		.uleb128 0x40
 6457 023d 18       		.uleb128 0x18
 6458 023e 9742     		.uleb128 0x2117
 6459 0240 19       		.uleb128 0x19
 6460 0241 01       		.uleb128 0x1
 6461 0242 13       		.uleb128 0x13
 6462 0243 00       		.byte	0
ARM GAS  C:\Users\ingan\AppData\Local\Temp\ccwaQbAc.s 			page 170


 6463 0244 00       		.byte	0
 6464 0245 27       		.uleb128 0x27
 6465 0246 2E       		.uleb128 0x2e
 6466 0247 00       		.byte	0
 6467 0248 3F       		.uleb128 0x3f
 6468 0249 19       		.uleb128 0x19
 6469 024a 03       		.uleb128 0x3
 6470 024b 0E       		.uleb128 0xe
 6471 024c 3A       		.uleb128 0x3a
 6472 024d 0B       		.uleb128 0xb
 6473 024e 3B       		.uleb128 0x3b
 6474 024f 05       		.uleb128 0x5
 6475 0250 27       		.uleb128 0x27
 6476 0251 19       		.uleb128 0x19
 6477 0252 49       		.uleb128 0x49
 6478 0253 13       		.uleb128 0x13
 6479 0254 20       		.uleb128 0x20
 6480 0255 0B       		.uleb128 0xb
 6481 0256 00       		.byte	0
 6482 0257 00       		.byte	0
 6483 0258 28       		.uleb128 0x28
 6484 0259 2E       		.uleb128 0x2e
 6485 025a 00       		.byte	0
 6486 025b 31       		.uleb128 0x31
 6487 025c 13       		.uleb128 0x13
 6488 025d 11       		.uleb128 0x11
 6489 025e 01       		.uleb128 0x1
 6490 025f 12       		.uleb128 0x12
 6491 0260 06       		.uleb128 0x6
 6492 0261 40       		.uleb128 0x40
 6493 0262 18       		.uleb128 0x18
 6494 0263 9742     		.uleb128 0x2117
 6495 0265 19       		.uleb128 0x19
 6496 0266 00       		.byte	0
 6497 0267 00       		.byte	0
 6498 0268 29       		.uleb128 0x29
 6499 0269 2E       		.uleb128 0x2e
 6500 026a 00       		.byte	0
 6501 026b 3F       		.uleb128 0x3f
 6502 026c 19       		.uleb128 0x19
 6503 026d 03       		.uleb128 0x3
 6504 026e 0E       		.uleb128 0xe
 6505 026f 3A       		.uleb128 0x3a
 6506 0270 0B       		.uleb128 0xb
 6507 0271 3B       		.uleb128 0x3b
 6508 0272 05       		.uleb128 0x5
 6509 0273 27       		.uleb128 0x27
 6510 0274 19       		.uleb128 0x19
 6511 0275 49       		.uleb128 0x49
 6512 0276 13       		.uleb128 0x13
 6513 0277 11       		.uleb128 0x11
 6514 0278 01       		.uleb128 0x1
 6515 0279 12       		.uleb128 0x12
 6516 027a 06       		.uleb128 0x6
 6517 027b 40       		.uleb128 0x40
 6518 027c 18       		.uleb128 0x18
 6519 027d 9742     		.uleb128 0x2117
ARM GAS  C:\Users\ingan\AppData\Local\Temp\ccwaQbAc.s 			page 171


 6520 027f 19       		.uleb128 0x19
 6521 0280 00       		.byte	0
 6522 0281 00       		.byte	0
 6523 0282 2A       		.uleb128 0x2a
 6524 0283 34       		.uleb128 0x34
 6525 0284 00       		.byte	0
 6526 0285 03       		.uleb128 0x3
 6527 0286 08       		.uleb128 0x8
 6528 0287 3A       		.uleb128 0x3a
 6529 0288 0B       		.uleb128 0xb
 6530 0289 3B       		.uleb128 0x3b
 6531 028a 05       		.uleb128 0x5
 6532 028b 49       		.uleb128 0x49
 6533 028c 13       		.uleb128 0x13
 6534 028d 02       		.uleb128 0x2
 6535 028e 18       		.uleb128 0x18
 6536 028f 00       		.byte	0
 6537 0290 00       		.byte	0
 6538 0291 2B       		.uleb128 0x2b
 6539 0292 1D       		.uleb128 0x1d
 6540 0293 00       		.byte	0
 6541 0294 31       		.uleb128 0x31
 6542 0295 13       		.uleb128 0x13
 6543 0296 52       		.uleb128 0x52
 6544 0297 01       		.uleb128 0x1
 6545 0298 55       		.uleb128 0x55
 6546 0299 17       		.uleb128 0x17
 6547 029a 58       		.uleb128 0x58
 6548 029b 0B       		.uleb128 0xb
 6549 029c 59       		.uleb128 0x59
 6550 029d 05       		.uleb128 0x5
 6551 029e 00       		.byte	0
 6552 029f 00       		.byte	0
 6553 02a0 2C       		.uleb128 0x2c
 6554 02a1 34       		.uleb128 0x34
 6555 02a2 00       		.byte	0
 6556 02a3 03       		.uleb128 0x3
 6557 02a4 0E       		.uleb128 0xe
 6558 02a5 3A       		.uleb128 0x3a
 6559 02a6 0B       		.uleb128 0xb
 6560 02a7 3B       		.uleb128 0x3b
 6561 02a8 05       		.uleb128 0x5
 6562 02a9 49       		.uleb128 0x49
 6563 02aa 13       		.uleb128 0x13
 6564 02ab 1C       		.uleb128 0x1c
 6565 02ac 0D       		.uleb128 0xd
 6566 02ad 00       		.byte	0
 6567 02ae 00       		.byte	0
 6568 02af 2D       		.uleb128 0x2d
 6569 02b0 2E       		.uleb128 0x2e
 6570 02b1 00       		.byte	0
 6571 02b2 3F       		.uleb128 0x3f
 6572 02b3 19       		.uleb128 0x19
 6573 02b4 03       		.uleb128 0x3
 6574 02b5 0E       		.uleb128 0xe
 6575 02b6 3A       		.uleb128 0x3a
 6576 02b7 0B       		.uleb128 0xb
ARM GAS  C:\Users\ingan\AppData\Local\Temp\ccwaQbAc.s 			page 172


 6577 02b8 3B       		.uleb128 0x3b
 6578 02b9 05       		.uleb128 0x5
 6579 02ba 27       		.uleb128 0x27
 6580 02bb 19       		.uleb128 0x19
 6581 02bc 20       		.uleb128 0x20
 6582 02bd 0B       		.uleb128 0xb
 6583 02be 00       		.byte	0
 6584 02bf 00       		.byte	0
 6585 02c0 2E       		.uleb128 0x2e
 6586 02c1 34       		.uleb128 0x34
 6587 02c2 00       		.byte	0
 6588 02c3 03       		.uleb128 0x3
 6589 02c4 08       		.uleb128 0x8
 6590 02c5 3A       		.uleb128 0x3a
 6591 02c6 0B       		.uleb128 0xb
 6592 02c7 3B       		.uleb128 0x3b
 6593 02c8 05       		.uleb128 0x5
 6594 02c9 49       		.uleb128 0x49
 6595 02ca 13       		.uleb128 0x13
 6596 02cb 02       		.uleb128 0x2
 6597 02cc 17       		.uleb128 0x17
 6598 02cd 00       		.byte	0
 6599 02ce 00       		.byte	0
 6600 02cf 2F       		.uleb128 0x2f
 6601 02d0 1D       		.uleb128 0x1d
 6602 02d1 00       		.byte	0
 6603 02d2 31       		.uleb128 0x31
 6604 02d3 13       		.uleb128 0x13
 6605 02d4 11       		.uleb128 0x11
 6606 02d5 01       		.uleb128 0x1
 6607 02d6 12       		.uleb128 0x12
 6608 02d7 06       		.uleb128 0x6
 6609 02d8 58       		.uleb128 0x58
 6610 02d9 0B       		.uleb128 0xb
 6611 02da 59       		.uleb128 0x59
 6612 02db 05       		.uleb128 0x5
 6613 02dc 00       		.byte	0
 6614 02dd 00       		.byte	0
 6615 02de 30       		.uleb128 0x30
 6616 02df 2E       		.uleb128 0x2e
 6617 02e0 01       		.byte	0x1
 6618 02e1 03       		.uleb128 0x3
 6619 02e2 0E       		.uleb128 0xe
 6620 02e3 3A       		.uleb128 0x3a
 6621 02e4 0B       		.uleb128 0xb
 6622 02e5 3B       		.uleb128 0x3b
 6623 02e6 05       		.uleb128 0x5
 6624 02e7 27       		.uleb128 0x27
 6625 02e8 19       		.uleb128 0x19
 6626 02e9 11       		.uleb128 0x11
 6627 02ea 01       		.uleb128 0x1
 6628 02eb 12       		.uleb128 0x12
 6629 02ec 06       		.uleb128 0x6
 6630 02ed 40       		.uleb128 0x40
 6631 02ee 18       		.uleb128 0x18
 6632 02ef 9642     		.uleb128 0x2116
 6633 02f1 19       		.uleb128 0x19
ARM GAS  C:\Users\ingan\AppData\Local\Temp\ccwaQbAc.s 			page 173


 6634 02f2 01       		.uleb128 0x1
 6635 02f3 13       		.uleb128 0x13
 6636 02f4 00       		.byte	0
 6637 02f5 00       		.byte	0
 6638 02f6 31       		.uleb128 0x31
 6639 02f7 34       		.uleb128 0x34
 6640 02f8 00       		.byte	0
 6641 02f9 03       		.uleb128 0x3
 6642 02fa 08       		.uleb128 0x8
 6643 02fb 3A       		.uleb128 0x3a
 6644 02fc 0B       		.uleb128 0xb
 6645 02fd 3B       		.uleb128 0x3b
 6646 02fe 05       		.uleb128 0x5
 6647 02ff 49       		.uleb128 0x49
 6648 0300 13       		.uleb128 0x13
 6649 0301 00       		.byte	0
 6650 0302 00       		.byte	0
 6651 0303 32       		.uleb128 0x32
 6652 0304 01       		.uleb128 0x1
 6653 0305 01       		.byte	0x1
 6654 0306 49       		.uleb128 0x49
 6655 0307 13       		.uleb128 0x13
 6656 0308 01       		.uleb128 0x1
 6657 0309 13       		.uleb128 0x13
 6658 030a 00       		.byte	0
 6659 030b 00       		.byte	0
 6660 030c 33       		.uleb128 0x33
 6661 030d 21       		.uleb128 0x21
 6662 030e 00       		.byte	0
 6663 030f 49       		.uleb128 0x49
 6664 0310 13       		.uleb128 0x13
 6665 0311 2F       		.uleb128 0x2f
 6666 0312 0B       		.uleb128 0xb
 6667 0313 00       		.byte	0
 6668 0314 00       		.byte	0
 6669 0315 34       		.uleb128 0x34
 6670 0316 34       		.uleb128 0x34
 6671 0317 00       		.byte	0
 6672 0318 03       		.uleb128 0x3
 6673 0319 0E       		.uleb128 0xe
 6674 031a 3A       		.uleb128 0x3a
 6675 031b 0B       		.uleb128 0xb
 6676 031c 3B       		.uleb128 0x3b
 6677 031d 0B       		.uleb128 0xb
 6678 031e 49       		.uleb128 0x49
 6679 031f 13       		.uleb128 0x13
 6680 0320 02       		.uleb128 0x2
 6681 0321 18       		.uleb128 0x18
 6682 0322 00       		.byte	0
 6683 0323 00       		.byte	0
 6684 0324 35       		.uleb128 0x35
 6685 0325 34       		.uleb128 0x34
 6686 0326 00       		.byte	0
 6687 0327 03       		.uleb128 0x3
 6688 0328 0E       		.uleb128 0xe
 6689 0329 3A       		.uleb128 0x3a
 6690 032a 0B       		.uleb128 0xb
ARM GAS  C:\Users\ingan\AppData\Local\Temp\ccwaQbAc.s 			page 174


 6691 032b 3B       		.uleb128 0x3b
 6692 032c 0B       		.uleb128 0xb
 6693 032d 49       		.uleb128 0x49
 6694 032e 13       		.uleb128 0x13
 6695 032f 3F       		.uleb128 0x3f
 6696 0330 19       		.uleb128 0x19
 6697 0331 02       		.uleb128 0x2
 6698 0332 18       		.uleb128 0x18
 6699 0333 00       		.byte	0
 6700 0334 00       		.byte	0
 6701 0335 36       		.uleb128 0x36
 6702 0336 2E       		.uleb128 0x2e
 6703 0337 00       		.byte	0
 6704 0338 3F       		.uleb128 0x3f
 6705 0339 19       		.uleb128 0x19
 6706 033a 3C       		.uleb128 0x3c
 6707 033b 19       		.uleb128 0x19
 6708 033c 6E       		.uleb128 0x6e
 6709 033d 0E       		.uleb128 0xe
 6710 033e 03       		.uleb128 0x3
 6711 033f 0E       		.uleb128 0xe
 6712 0340 3A       		.uleb128 0x3a
 6713 0341 0B       		.uleb128 0xb
 6714 0342 3B       		.uleb128 0x3b
 6715 0343 0B       		.uleb128 0xb
 6716 0344 00       		.byte	0
 6717 0345 00       		.byte	0
 6718 0346 00       		.byte	0
 6719              		.section	.debug_loc,"",%progbits
 6720              	.Ldebug_loc0:
 6721              	.LLST0:
 6722 0000 00000000 		.4byte	.LVL0
 6723 0004 30000000 		.4byte	.LVL1
 6724 0008 0200     		.2byte	0x2
 6725 000a 30       		.byte	0x30
 6726 000b 9F       		.byte	0x9f
 6727 000c 00000000 		.4byte	0
 6728 0010 00000000 		.4byte	0
 6729              	.LLST1:
 6730 0014 00000000 		.4byte	.LVL3
 6731 0018 22000000 		.4byte	.LVL4
 6732 001c 0100     		.2byte	0x1
 6733 001e 50       		.byte	0x50
 6734 001f 22000000 		.4byte	.LVL4
 6735 0023 48000000 		.4byte	.LFE14
 6736 0027 0400     		.2byte	0x4
 6737 0029 F3       		.byte	0xf3
 6738 002a 01       		.uleb128 0x1
 6739 002b 50       		.byte	0x50
 6740 002c 9F       		.byte	0x9f
 6741 002d 00000000 		.4byte	0
 6742 0031 00000000 		.4byte	0
 6743              	.LLST2:
 6744 0035 00000000 		.4byte	.LVL5
 6745 0039 06000000 		.4byte	.LVL6
 6746 003d 0100     		.2byte	0x1
 6747 003f 51       		.byte	0x51
ARM GAS  C:\Users\ingan\AppData\Local\Temp\ccwaQbAc.s 			page 175


 6748 0040 06000000 		.4byte	.LVL6
 6749 0044 38000000 		.4byte	.LFE2
 6750 0048 0400     		.2byte	0x4
 6751 004a F3       		.byte	0xf3
 6752 004b 01       		.uleb128 0x1
 6753 004c 51       		.byte	0x51
 6754 004d 9F       		.byte	0x9f
 6755 004e 00000000 		.4byte	0
 6756 0052 00000000 		.4byte	0
 6757              	.LLST3:
 6758 0056 00000000 		.4byte	.LVL5
 6759 005a 0E000000 		.4byte	.LVL7
 6760 005e 0100     		.2byte	0x1
 6761 0060 52       		.byte	0x52
 6762 0061 0E000000 		.4byte	.LVL7
 6763 0065 38000000 		.4byte	.LFE2
 6764 0069 0400     		.2byte	0x4
 6765 006b F3       		.byte	0xf3
 6766 006c 01       		.uleb128 0x1
 6767 006d 52       		.byte	0x52
 6768 006e 9F       		.byte	0x9f
 6769 006f 00000000 		.4byte	0
 6770 0073 00000000 		.4byte	0
 6771              	.LLST4:
 6772 0077 00000000 		.4byte	.LVL8
 6773 007b 10000000 		.4byte	.LVL9
 6774 007f 0100     		.2byte	0x1
 6775 0081 50       		.byte	0x50
 6776 0082 10000000 		.4byte	.LVL9
 6777 0086 14000000 		.4byte	.LFE3
 6778 008a 0400     		.2byte	0x4
 6779 008c F3       		.byte	0xf3
 6780 008d 01       		.uleb128 0x1
 6781 008e 50       		.byte	0x50
 6782 008f 9F       		.byte	0x9f
 6783 0090 00000000 		.4byte	0
 6784 0094 00000000 		.4byte	0
 6785              	.LLST5:
 6786 0098 00000000 		.4byte	.LVL11
 6787 009c 30000000 		.4byte	.LVL18
 6788 00a0 0100     		.2byte	0x1
 6789 00a2 50       		.byte	0x50
 6790 00a3 30000000 		.4byte	.LVL18
 6791 00a7 E0000000 		.4byte	.LFE8
 6792 00ab 0400     		.2byte	0x4
 6793 00ad F3       		.byte	0xf3
 6794 00ae 01       		.uleb128 0x1
 6795 00af 50       		.byte	0x50
 6796 00b0 9F       		.byte	0x9f
 6797 00b1 00000000 		.4byte	0
 6798 00b5 00000000 		.4byte	0
 6799              	.LLST6:
 6800 00b9 0C000000 		.4byte	.LVL12
 6801 00bd 22000000 		.4byte	.LVL14
 6802 00c1 0100     		.2byte	0x1
 6803 00c3 54       		.byte	0x54
 6804 00c4 24000000 		.4byte	.LVL15
ARM GAS  C:\Users\ingan\AppData\Local\Temp\ccwaQbAc.s 			page 176


 6805 00c8 26000000 		.4byte	.LVL16
 6806 00cc 0200     		.2byte	0x2
 6807 00ce 33       		.byte	0x33
 6808 00cf 9F       		.byte	0x9f
 6809 00d0 26000000 		.4byte	.LVL16
 6810 00d4 DC000000 		.4byte	.LVL23
 6811 00d8 0100     		.2byte	0x1
 6812 00da 54       		.byte	0x54
 6813 00db 00000000 		.4byte	0
 6814 00df 00000000 		.4byte	0
 6815              	.LLST7:
 6816 00e3 14000000 		.4byte	.LVL13
 6817 00e7 DC000000 		.4byte	.LVL23
 6818 00eb 0100     		.2byte	0x1
 6819 00ed 56       		.byte	0x56
 6820 00ee 00000000 		.4byte	0
 6821 00f2 00000000 		.4byte	0
 6822              	.LLST8:
 6823 00f6 00000000 		.4byte	.LVL24
 6824 00fa 0C000000 		.4byte	.LVL25
 6825 00fe 0100     		.2byte	0x1
 6826 0100 50       		.byte	0x50
 6827 0101 0C000000 		.4byte	.LVL25
 6828 0105 18000000 		.4byte	.LFE12
 6829 0109 0400     		.2byte	0x4
 6830 010b F3       		.byte	0xf3
 6831 010c 01       		.uleb128 0x1
 6832 010d 50       		.byte	0x50
 6833 010e 9F       		.byte	0x9f
 6834 010f 00000000 		.4byte	0
 6835 0113 00000000 		.4byte	0
 6836              	.LLST9:
 6837 0117 00000000 		.4byte	.LVL27
 6838 011b 07000000 		.4byte	.LVL28-1
 6839 011f 0100     		.2byte	0x1
 6840 0121 50       		.byte	0x50
 6841 0122 07000000 		.4byte	.LVL28-1
 6842 0126 90000000 		.4byte	.LFE15
 6843 012a 0400     		.2byte	0x4
 6844 012c F3       		.byte	0xf3
 6845 012d 01       		.uleb128 0x1
 6846 012e 50       		.byte	0x50
 6847 012f 9F       		.byte	0x9f
 6848 0130 00000000 		.4byte	0
 6849 0134 00000000 		.4byte	0
 6850              	.LLST10:
 6851 0138 20000000 		.4byte	.LVL33
 6852 013c 48000000 		.4byte	.LVL37
 6853 0140 0100     		.2byte	0x1
 6854 0142 54       		.byte	0x54
 6855 0143 5C000000 		.4byte	.LVL42
 6856 0147 62000000 		.4byte	.LVL43
 6857 014b 0100     		.2byte	0x1
 6858 014d 54       		.byte	0x54
 6859 014e 68000000 		.4byte	.LVL44
 6860 0152 90000000 		.4byte	.LFE15
 6861 0156 0100     		.2byte	0x1
ARM GAS  C:\Users\ingan\AppData\Local\Temp\ccwaQbAc.s 			page 177


 6862 0158 54       		.byte	0x54
 6863 0159 00000000 		.4byte	0
 6864 015d 00000000 		.4byte	0
 6865              	.LLST11:
 6866 0161 10000000 		.4byte	.LVL30
 6867 0165 14000000 		.4byte	.LVL31
 6868 0169 0800     		.2byte	0x8
 6869 016b 72       		.byte	0x72
 6870 016c 00       		.sleb128 0
 6871 016d 08       		.byte	0x8
 6872 016e FF       		.byte	0xff
 6873 016f 1A       		.byte	0x1a
 6874 0170 38       		.byte	0x38
 6875 0171 24       		.byte	0x24
 6876 0172 9F       		.byte	0x9f
 6877 0173 14000000 		.4byte	.LVL31
 6878 0177 1C000000 		.4byte	.LVL32
 6879 017b 0E00     		.2byte	0xe
 6880 017d 72       		.byte	0x72
 6881 017e 00       		.sleb128 0
 6882 017f 08       		.byte	0x8
 6883 0180 FF       		.byte	0xff
 6884 0181 1A       		.byte	0x1a
 6885 0182 38       		.byte	0x38
 6886 0183 24       		.byte	0x24
 6887 0184 73       		.byte	0x73
 6888 0185 00       		.sleb128 0
 6889 0186 08       		.byte	0x8
 6890 0187 FF       		.byte	0xff
 6891 0188 1A       		.byte	0x1a
 6892 0189 21       		.byte	0x21
 6893 018a 9F       		.byte	0x9f
 6894 018b 56000000 		.4byte	.LVL40
 6895 018f 58000000 		.4byte	.LVL41
 6896 0193 0E00     		.2byte	0xe
 6897 0195 72       		.byte	0x72
 6898 0196 00       		.sleb128 0
 6899 0197 08       		.byte	0x8
 6900 0198 FF       		.byte	0xff
 6901 0199 1A       		.byte	0x1a
 6902 019a 38       		.byte	0x38
 6903 019b 24       		.byte	0x24
 6904 019c 73       		.byte	0x73
 6905 019d 00       		.sleb128 0
 6906 019e 08       		.byte	0x8
 6907 019f FF       		.byte	0xff
 6908 01a0 1A       		.byte	0x1a
 6909 01a1 21       		.byte	0x21
 6910 01a2 9F       		.byte	0x9f
 6911 01a3 00000000 		.4byte	0
 6912 01a7 00000000 		.4byte	0
 6913              	.LLST12:
 6914 01ab 42000000 		.4byte	.LVL36
 6915 01af 48000000 		.4byte	.LVL37
 6916 01b3 0100     		.2byte	0x1
 6917 01b5 54       		.byte	0x54
 6918 01b6 00000000 		.4byte	0
ARM GAS  C:\Users\ingan\AppData\Local\Temp\ccwaQbAc.s 			page 178


 6919 01ba 00000000 		.4byte	0
 6920              	.LLST13:
 6921 01be 00000000 		.4byte	.LVL47
 6922 01c2 0C000000 		.4byte	.LVL48
 6923 01c6 0100     		.2byte	0x1
 6924 01c8 50       		.byte	0x50
 6925 01c9 0C000000 		.4byte	.LVL48
 6926 01cd 18000000 		.4byte	.LFE16
 6927 01d1 0400     		.2byte	0x4
 6928 01d3 F3       		.byte	0xf3
 6929 01d4 01       		.uleb128 0x1
 6930 01d5 50       		.byte	0x50
 6931 01d6 9F       		.byte	0x9f
 6932 01d7 00000000 		.4byte	0
 6933 01db 00000000 		.4byte	0
 6934              	.LLST14:
 6935 01df 00000000 		.4byte	.LVL49
 6936 01e3 2C000000 		.4byte	.LVL54
 6937 01e7 0100     		.2byte	0x1
 6938 01e9 50       		.byte	0x50
 6939 01ea 2C000000 		.4byte	.LVL54
 6940 01ee 6A000000 		.4byte	.LVL59
 6941 01f2 0400     		.2byte	0x4
 6942 01f4 F3       		.byte	0xf3
 6943 01f5 01       		.uleb128 0x1
 6944 01f6 50       		.byte	0x50
 6945 01f7 9F       		.byte	0x9f
 6946 01f8 6A000000 		.4byte	.LVL59
 6947 01fc 6C000000 		.4byte	.LVL60
 6948 0200 0100     		.2byte	0x1
 6949 0202 50       		.byte	0x50
 6950 0203 6C000000 		.4byte	.LVL60
 6951 0207 84000000 		.4byte	.LFE0
 6952 020b 0400     		.2byte	0x4
 6953 020d F3       		.byte	0xf3
 6954 020e 01       		.uleb128 0x1
 6955 020f 50       		.byte	0x50
 6956 0210 9F       		.byte	0x9f
 6957 0211 00000000 		.4byte	0
 6958 0215 00000000 		.4byte	0
 6959              	.LLST15:
 6960 0219 04000000 		.4byte	.LVL50
 6961 021d 30000000 		.4byte	.LVL55
 6962 0221 0200     		.2byte	0x2
 6963 0223 30       		.byte	0x30
 6964 0224 9F       		.byte	0x9f
 6965 0225 30000000 		.4byte	.LVL55
 6966 0229 58000000 		.4byte	.LVL57
 6967 022d 0200     		.2byte	0x2
 6968 022f 40       		.byte	0x40
 6969 0230 9F       		.byte	0x9f
 6970 0231 58000000 		.4byte	.LVL57
 6971 0235 6A000000 		.4byte	.LVL59
 6972 0239 0100     		.2byte	0x1
 6973 023b 54       		.byte	0x54
 6974 023c 6A000000 		.4byte	.LVL59
 6975 0240 6C000000 		.4byte	.LVL60
ARM GAS  C:\Users\ingan\AppData\Local\Temp\ccwaQbAc.s 			page 179


 6976 0244 0200     		.2byte	0x2
 6977 0246 30       		.byte	0x30
 6978 0247 9F       		.byte	0x9f
 6979 0248 6C000000 		.4byte	.LVL60
 6980 024c 72000000 		.4byte	.LVL61
 6981 0250 0100     		.2byte	0x1
 6982 0252 54       		.byte	0x54
 6983 0253 72000000 		.4byte	.LVL61
 6984 0257 84000000 		.4byte	.LFE0
 6985 025b 0100     		.2byte	0x1
 6986 025d 50       		.byte	0x50
 6987 025e 00000000 		.4byte	0
 6988 0262 00000000 		.4byte	0
 6989              	.LLST16:
 6990 0266 1A000000 		.4byte	.LVL51
 6991 026a 6A000000 		.4byte	.LVL59
 6992 026e 0100     		.2byte	0x1
 6993 0270 56       		.byte	0x56
 6994 0271 00000000 		.4byte	0
 6995 0275 00000000 		.4byte	0
 6996              	.LLST17:
 6997 0279 24000000 		.4byte	.LVL52
 6998 027d 6A000000 		.4byte	.LVL59
 6999 0281 0100     		.2byte	0x1
 7000 0283 58       		.byte	0x58
 7001 0284 00000000 		.4byte	0
 7002 0288 00000000 		.4byte	0
 7003              	.LLST18:
 7004 028c 2A000000 		.4byte	.LVL53
 7005 0290 6A000000 		.4byte	.LVL59
 7006 0294 0100     		.2byte	0x1
 7007 0296 57       		.byte	0x57
 7008 0297 00000000 		.4byte	0
 7009 029b 00000000 		.4byte	0
 7010              	.LLST19:
 7011 029f 00000000 		.4byte	.LVL62
 7012 02a3 30000000 		.4byte	.LVL66
 7013 02a7 0100     		.2byte	0x1
 7014 02a9 50       		.byte	0x50
 7015 02aa 30000000 		.4byte	.LVL66
 7016 02ae 60000000 		.4byte	.LFE4
 7017 02b2 0400     		.2byte	0x4
 7018 02b4 F3       		.byte	0xf3
 7019 02b5 01       		.uleb128 0x1
 7020 02b6 50       		.byte	0x50
 7021 02b7 9F       		.byte	0x9f
 7022 02b8 00000000 		.4byte	0
 7023 02bc 00000000 		.4byte	0
 7024              	.LLST20:
 7025 02c0 2E000000 		.4byte	.LVL65
 7026 02c4 50000000 		.4byte	.LVL70
 7027 02c8 0100     		.2byte	0x1
 7028 02ca 56       		.byte	0x56
 7029 02cb 00000000 		.4byte	0
 7030 02cf 00000000 		.4byte	0
 7031              	.LLST21:
 7032 02d3 28000000 		.4byte	.LVL64
ARM GAS  C:\Users\ingan\AppData\Local\Temp\ccwaQbAc.s 			page 180


 7033 02d7 50000000 		.4byte	.LVL70
 7034 02db 0100     		.2byte	0x1
 7035 02dd 57       		.byte	0x57
 7036 02de 00000000 		.4byte	0
 7037 02e2 00000000 		.4byte	0
 7038              	.LLST22:
 7039 02e6 22000000 		.4byte	.LVL63
 7040 02ea 50000000 		.4byte	.LVL70
 7041 02ee 0100     		.2byte	0x1
 7042 02f0 55       		.byte	0x55
 7043 02f1 00000000 		.4byte	0
 7044 02f5 00000000 		.4byte	0
 7045              	.LLST23:
 7046 02f9 00000000 		.4byte	.LVL71
 7047 02fd 08000000 		.4byte	.LVL72
 7048 0301 0100     		.2byte	0x1
 7049 0303 50       		.byte	0x50
 7050 0304 08000000 		.4byte	.LVL72
 7051 0308 16000000 		.4byte	.LFE23
 7052 030c 0400     		.2byte	0x4
 7053 030e F3       		.byte	0xf3
 7054 030f 01       		.uleb128 0x1
 7055 0310 50       		.byte	0x50
 7056 0311 9F       		.byte	0x9f
 7057 0312 00000000 		.4byte	0
 7058 0316 00000000 		.4byte	0
 7059              	.LLST24:
 7060 031a 00000000 		.4byte	.LVL73
 7061 031e 1E000000 		.4byte	.LVL75
 7062 0322 0100     		.2byte	0x1
 7063 0324 50       		.byte	0x50
 7064 0325 1E000000 		.4byte	.LVL75
 7065 0329 24000000 		.4byte	.LFE24
 7066 032d 0400     		.2byte	0x4
 7067 032f F3       		.byte	0xf3
 7068 0330 01       		.uleb128 0x1
 7069 0331 50       		.byte	0x50
 7070 0332 9F       		.byte	0x9f
 7071 0333 00000000 		.4byte	0
 7072 0337 00000000 		.4byte	0
 7073              	.LLST25:
 7074 033b 00000000 		.4byte	.LVL76
 7075 033f 30000000 		.4byte	.LVL81
 7076 0343 0100     		.2byte	0x1
 7077 0345 50       		.byte	0x50
 7078 0346 30000000 		.4byte	.LVL81
 7079 034a B2000000 		.4byte	.LVL86
 7080 034e 0400     		.2byte	0x4
 7081 0350 F3       		.byte	0xf3
 7082 0351 01       		.uleb128 0x1
 7083 0352 50       		.byte	0x50
 7084 0353 9F       		.byte	0x9f
 7085 0354 B2000000 		.4byte	.LVL86
 7086 0358 B4000000 		.4byte	.LVL87
 7087 035c 0100     		.2byte	0x1
 7088 035e 50       		.byte	0x50
 7089 035f B4000000 		.4byte	.LVL87
ARM GAS  C:\Users\ingan\AppData\Local\Temp\ccwaQbAc.s 			page 181


 7090 0363 C8000000 		.4byte	.LFE29
 7091 0367 0400     		.2byte	0x4
 7092 0369 F3       		.byte	0xf3
 7093 036a 01       		.uleb128 0x1
 7094 036b 50       		.byte	0x50
 7095 036c 9F       		.byte	0x9f
 7096 036d 00000000 		.4byte	0
 7097 0371 00000000 		.4byte	0
 7098              	.LLST26:
 7099 0375 06000000 		.4byte	.LVL77
 7100 0379 34000000 		.4byte	.LVL82
 7101 037d 0200     		.2byte	0x2
 7102 037f 30       		.byte	0x30
 7103 0380 9F       		.byte	0x9f
 7104 0381 34000000 		.4byte	.LVL82
 7105 0385 9E000000 		.4byte	.LVL84
 7106 0389 0200     		.2byte	0x2
 7107 038b 40       		.byte	0x40
 7108 038c 9F       		.byte	0x9f
 7109 038d 9E000000 		.4byte	.LVL84
 7110 0391 B2000000 		.4byte	.LVL86
 7111 0395 0100     		.2byte	0x1
 7112 0397 54       		.byte	0x54
 7113 0398 B2000000 		.4byte	.LVL86
 7114 039c B4000000 		.4byte	.LVL87
 7115 03a0 0200     		.2byte	0x2
 7116 03a2 30       		.byte	0x30
 7117 03a3 9F       		.byte	0x9f
 7118 03a4 B4000000 		.4byte	.LVL87
 7119 03a8 BC000000 		.4byte	.LVL88
 7120 03ac 0100     		.2byte	0x1
 7121 03ae 54       		.byte	0x54
 7122 03af BC000000 		.4byte	.LVL88
 7123 03b3 C8000000 		.4byte	.LFE29
 7124 03b7 0100     		.2byte	0x1
 7125 03b9 50       		.byte	0x50
 7126 03ba 00000000 		.4byte	0
 7127 03be 00000000 		.4byte	0
 7128              	.LLST27:
 7129 03c2 22000000 		.4byte	.LVL78
 7130 03c6 B2000000 		.4byte	.LVL86
 7131 03ca 0100     		.2byte	0x1
 7132 03cc 58       		.byte	0x58
 7133 03cd 00000000 		.4byte	0
 7134 03d1 00000000 		.4byte	0
 7135              	.LLST28:
 7136 03d5 28000000 		.4byte	.LVL79
 7137 03d9 B2000000 		.4byte	.LVL86
 7138 03dd 0100     		.2byte	0x1
 7139 03df 57       		.byte	0x57
 7140 03e0 00000000 		.4byte	0
 7141 03e4 00000000 		.4byte	0
 7142              	.LLST29:
 7143 03e8 2E000000 		.4byte	.LVL80
 7144 03ec B2000000 		.4byte	.LVL86
 7145 03f0 0100     		.2byte	0x1
 7146 03f2 56       		.byte	0x56
ARM GAS  C:\Users\ingan\AppData\Local\Temp\ccwaQbAc.s 			page 182


 7147 03f3 00000000 		.4byte	0
 7148 03f7 00000000 		.4byte	0
 7149              	.LLST30:
 7150 03fb 00000000 		.4byte	.LVL89
 7151 03ff 0C000000 		.4byte	.LVL90
 7152 0403 0100     		.2byte	0x1
 7153 0405 50       		.byte	0x50
 7154 0406 0C000000 		.4byte	.LVL90
 7155 040a 18000000 		.4byte	.LFE36
 7156 040e 0400     		.2byte	0x4
 7157 0410 F3       		.byte	0xf3
 7158 0411 01       		.uleb128 0x1
 7159 0412 50       		.byte	0x50
 7160 0413 9F       		.byte	0x9f
 7161 0414 00000000 		.4byte	0
 7162 0418 00000000 		.4byte	0
 7163              	.LLST31:
 7164 041c 00000000 		.4byte	.LVL91
 7165 0420 0C000000 		.4byte	.LVL92
 7166 0424 0100     		.2byte	0x1
 7167 0426 50       		.byte	0x50
 7168 0427 0C000000 		.4byte	.LVL92
 7169 042b 18000000 		.4byte	.LFE37
 7170 042f 0400     		.2byte	0x4
 7171 0431 F3       		.byte	0xf3
 7172 0432 01       		.uleb128 0x1
 7173 0433 50       		.byte	0x50
 7174 0434 9F       		.byte	0x9f
 7175 0435 00000000 		.4byte	0
 7176 0439 00000000 		.4byte	0
 7177              	.LLST32:
 7178 043d 00000000 		.4byte	.LVL93
 7179 0441 06000000 		.4byte	.LVL94
 7180 0445 0100     		.2byte	0x1
 7181 0447 50       		.byte	0x50
 7182 0448 06000000 		.4byte	.LVL94
 7183 044c 18000000 		.4byte	.LFE38
 7184 0450 0400     		.2byte	0x4
 7185 0452 F3       		.byte	0xf3
 7186 0453 01       		.uleb128 0x1
 7187 0454 50       		.byte	0x50
 7188 0455 9F       		.byte	0x9f
 7189 0456 00000000 		.4byte	0
 7190 045a 00000000 		.4byte	0
 7191              	.LLST33:
 7192 045e 00000000 		.4byte	.LVL96
 7193 0462 0E000000 		.4byte	.LVL97
 7194 0466 0100     		.2byte	0x1
 7195 0468 50       		.byte	0x50
 7196 0469 0E000000 		.4byte	.LVL97
 7197 046d 32000000 		.4byte	.LVL100
 7198 0471 0100     		.2byte	0x1
 7199 0473 54       		.byte	0x54
 7200 0474 00000000 		.4byte	0
 7201 0478 00000000 		.4byte	0
 7202              	.LLST34:
 7203 047c 00000000 		.4byte	.LVL102
ARM GAS  C:\Users\ingan\AppData\Local\Temp\ccwaQbAc.s 			page 183


 7204 0480 0A000000 		.4byte	.LVL103
 7205 0484 0100     		.2byte	0x1
 7206 0486 50       		.byte	0x50
 7207 0487 0A000000 		.4byte	.LVL103
 7208 048b 14000000 		.4byte	.LFE42
 7209 048f 0400     		.2byte	0x4
 7210 0491 F3       		.byte	0xf3
 7211 0492 01       		.uleb128 0x1
 7212 0493 50       		.byte	0x50
 7213 0494 9F       		.byte	0x9f
 7214 0495 00000000 		.4byte	0
 7215 0499 00000000 		.4byte	0
 7216              	.LLST35:
 7217 049d 00000000 		.4byte	.LVL105
 7218 04a1 1E000000 		.4byte	.LVL107
 7219 04a5 0100     		.2byte	0x1
 7220 04a7 50       		.byte	0x50
 7221 04a8 1E000000 		.4byte	.LVL107
 7222 04ac 42000000 		.4byte	.LVL110
 7223 04b0 0400     		.2byte	0x4
 7224 04b2 F3       		.byte	0xf3
 7225 04b3 01       		.uleb128 0x1
 7226 04b4 50       		.byte	0x50
 7227 04b5 9F       		.byte	0x9f
 7228 04b6 42000000 		.4byte	.LVL110
 7229 04ba 4A000000 		.4byte	.LVL111
 7230 04be 0100     		.2byte	0x1
 7231 04c0 50       		.byte	0x50
 7232 04c1 4A000000 		.4byte	.LVL111
 7233 04c5 78000000 		.4byte	.LFE28
 7234 04c9 0400     		.2byte	0x4
 7235 04cb F3       		.byte	0xf3
 7236 04cc 01       		.uleb128 0x1
 7237 04cd 50       		.byte	0x50
 7238 04ce 9F       		.byte	0x9f
 7239 04cf 00000000 		.4byte	0
 7240 04d3 00000000 		.4byte	0
 7241              	.LLST36:
 7242 04d7 0A000000 		.4byte	.LVL106
 7243 04db 6A000000 		.4byte	.LVL113
 7244 04df 0100     		.2byte	0x1
 7245 04e1 54       		.byte	0x54
 7246 04e2 6A000000 		.4byte	.LVL113
 7247 04e6 78000000 		.4byte	.LFE28
 7248 04ea 0100     		.2byte	0x1
 7249 04ec 50       		.byte	0x50
 7250 04ed 00000000 		.4byte	0
 7251 04f1 00000000 		.4byte	0
 7252              	.LLST37:
 7253 04f5 00000000 		.4byte	.LVL116
 7254 04f9 1C000000 		.4byte	.LVL117
 7255 04fd 0100     		.2byte	0x1
 7256 04ff 50       		.byte	0x50
 7257 0500 1C000000 		.4byte	.LVL117
 7258 0504 48000000 		.4byte	.LFE43
 7259 0508 0400     		.2byte	0x4
 7260 050a F3       		.byte	0xf3
ARM GAS  C:\Users\ingan\AppData\Local\Temp\ccwaQbAc.s 			page 184


 7261 050b 01       		.uleb128 0x1
 7262 050c 50       		.byte	0x50
 7263 050d 9F       		.byte	0x9f
 7264 050e 00000000 		.4byte	0
 7265 0512 00000000 		.4byte	0
 7266              	.LLST38:
 7267 0516 00000000 		.4byte	.LVL118
 7268 051a 0C000000 		.4byte	.LVL119
 7269 051e 0100     		.2byte	0x1
 7270 0520 50       		.byte	0x50
 7271 0521 0C000000 		.4byte	.LVL119
 7272 0525 40000000 		.4byte	.LFE44
 7273 0529 0400     		.2byte	0x4
 7274 052b F3       		.byte	0xf3
 7275 052c 01       		.uleb128 0x1
 7276 052d 50       		.byte	0x50
 7277 052e 9F       		.byte	0x9f
 7278 052f 00000000 		.4byte	0
 7279 0533 00000000 		.4byte	0
 7280              	.LLST39:
 7281 0537 00000000 		.4byte	.LVL118
 7282 053b 24000000 		.4byte	.LVL120
 7283 053f 0100     		.2byte	0x1
 7284 0541 51       		.byte	0x51
 7285 0542 24000000 		.4byte	.LVL120
 7286 0546 40000000 		.4byte	.LFE44
 7287 054a 0400     		.2byte	0x4
 7288 054c F3       		.byte	0xf3
 7289 054d 01       		.uleb128 0x1
 7290 054e 51       		.byte	0x51
 7291 054f 9F       		.byte	0x9f
 7292 0550 00000000 		.4byte	0
 7293 0554 00000000 		.4byte	0
 7294              	.LLST40:
 7295 0558 00000000 		.4byte	.LVL121
 7296 055c 07000000 		.4byte	.LVL122-1
 7297 0560 0100     		.2byte	0x1
 7298 0562 50       		.byte	0x50
 7299 0563 07000000 		.4byte	.LVL122-1
 7300 0567 2C000000 		.4byte	.LFE52
 7301 056b 0400     		.2byte	0x4
 7302 056d F3       		.byte	0xf3
 7303 056e 01       		.uleb128 0x1
 7304 056f 50       		.byte	0x50
 7305 0570 9F       		.byte	0x9f
 7306 0571 00000000 		.4byte	0
 7307 0575 00000000 		.4byte	0
 7308              	.LLST41:
 7309 0579 08000000 		.4byte	.LVL122
 7310 057d 1B000000 		.4byte	.LVL124-1
 7311 0581 0100     		.2byte	0x1
 7312 0583 50       		.byte	0x50
 7313 0584 00000000 		.4byte	0
 7314 0588 00000000 		.4byte	0
 7315              	.LLST42:
 7316 058c 12000000 		.4byte	.LVL123
 7317 0590 22000000 		.4byte	.LVL125
ARM GAS  C:\Users\ingan\AppData\Local\Temp\ccwaQbAc.s 			page 185


 7318 0594 0500     		.2byte	0x5
 7319 0596 74       		.byte	0x74
 7320 0597 00       		.sleb128 0
 7321 0598 37       		.byte	0x37
 7322 0599 1A       		.byte	0x1a
 7323 059a 9F       		.byte	0x9f
 7324 059b 00000000 		.4byte	0
 7325 059f 00000000 		.4byte	0
 7326              	.LLST43:
 7327 05a3 00000000 		.4byte	.LVL126
 7328 05a7 0B000000 		.4byte	.LVL127-1
 7329 05ab 0100     		.2byte	0x1
 7330 05ad 50       		.byte	0x50
 7331 05ae 0B000000 		.4byte	.LVL127-1
 7332 05b2 84000000 		.4byte	.LFE46
 7333 05b6 0400     		.2byte	0x4
 7334 05b8 F3       		.byte	0xf3
 7335 05b9 01       		.uleb128 0x1
 7336 05ba 50       		.byte	0x50
 7337 05bb 9F       		.byte	0x9f
 7338 05bc 00000000 		.4byte	0
 7339 05c0 00000000 		.4byte	0
 7340              	.LLST44:
 7341 05c4 00000000 		.4byte	.LVL126
 7342 05c8 0B000000 		.4byte	.LVL127-1
 7343 05cc 0100     		.2byte	0x1
 7344 05ce 51       		.byte	0x51
 7345 05cf 0B000000 		.4byte	.LVL127-1
 7346 05d3 84000000 		.4byte	.LFE46
 7347 05d7 0400     		.2byte	0x4
 7348 05d9 F3       		.byte	0xf3
 7349 05da 01       		.uleb128 0x1
 7350 05db 51       		.byte	0x51
 7351 05dc 9F       		.byte	0x9f
 7352 05dd 00000000 		.4byte	0
 7353 05e1 00000000 		.4byte	0
 7354              	.LLST45:
 7355 05e5 16000000 		.4byte	.LVL129
 7356 05e9 78000000 		.4byte	.LVL133
 7357 05ed 0100     		.2byte	0x1
 7358 05ef 54       		.byte	0x54
 7359 05f0 00000000 		.4byte	0
 7360 05f4 00000000 		.4byte	0
 7361              	.LLST46:
 7362 05f8 0E000000 		.4byte	.LVL128
 7363 05fc 78000000 		.4byte	.LVL133
 7364 0600 0100     		.2byte	0x1
 7365 0602 56       		.byte	0x56
 7366 0603 00000000 		.4byte	0
 7367 0607 00000000 		.4byte	0
 7368              	.LLST47:
 7369 060b 00000000 		.4byte	.LVL134
 7370 060f 09000000 		.4byte	.LVL135-1
 7371 0613 0100     		.2byte	0x1
 7372 0615 50       		.byte	0x50
 7373 0616 09000000 		.4byte	.LVL135-1
 7374 061a 84000000 		.4byte	.LFE47
ARM GAS  C:\Users\ingan\AppData\Local\Temp\ccwaQbAc.s 			page 186


 7375 061e 0400     		.2byte	0x4
 7376 0620 F3       		.byte	0xf3
 7377 0621 01       		.uleb128 0x1
 7378 0622 50       		.byte	0x50
 7379 0623 9F       		.byte	0x9f
 7380 0624 00000000 		.4byte	0
 7381 0628 00000000 		.4byte	0
 7382              	.LLST48:
 7383 062c 00000000 		.4byte	.LVL134
 7384 0630 09000000 		.4byte	.LVL135-1
 7385 0634 0100     		.2byte	0x1
 7386 0636 51       		.byte	0x51
 7387 0637 09000000 		.4byte	.LVL135-1
 7388 063b 84000000 		.4byte	.LFE47
 7389 063f 0400     		.2byte	0x4
 7390 0641 F3       		.byte	0xf3
 7391 0642 01       		.uleb128 0x1
 7392 0643 51       		.byte	0x51
 7393 0644 9F       		.byte	0x9f
 7394 0645 00000000 		.4byte	0
 7395 0649 00000000 		.4byte	0
 7396              	.LLST49:
 7397 064d 14000000 		.4byte	.LVL137
 7398 0651 74000000 		.4byte	.LVL141
 7399 0655 0100     		.2byte	0x1
 7400 0657 54       		.byte	0x54
 7401 0658 00000000 		.4byte	0
 7402 065c 00000000 		.4byte	0
 7403              	.LLST50:
 7404 0660 0C000000 		.4byte	.LVL136
 7405 0664 74000000 		.4byte	.LVL141
 7406 0668 0100     		.2byte	0x1
 7407 066a 55       		.byte	0x55
 7408 066b 00000000 		.4byte	0
 7409 066f 00000000 		.4byte	0
 7410              	.LLST51:
 7411 0673 10000000 		.4byte	.LVL147
 7412 0677 44000000 		.4byte	.LVL151
 7413 067b 0100     		.2byte	0x1
 7414 067d 54       		.byte	0x54
 7415 067e 00000000 		.4byte	0
 7416 0682 00000000 		.4byte	0
 7417              	.LLST52:
 7418 0686 08000000 		.4byte	.LVL146
 7419 068a 44000000 		.4byte	.LVL151
 7420 068e 0100     		.2byte	0x1
 7421 0690 57       		.byte	0x57
 7422 0691 00000000 		.4byte	0
 7423 0695 00000000 		.4byte	0
 7424              	.LLST53:
 7425 0699 06000000 		.4byte	.LVL153
 7426 069d 0F000000 		.4byte	.LVL155-1
 7427 06a1 0100     		.2byte	0x1
 7428 06a3 50       		.byte	0x50
 7429 06a4 00000000 		.4byte	0
 7430 06a8 00000000 		.4byte	0
 7431              	.LLST54:
ARM GAS  C:\Users\ingan\AppData\Local\Temp\ccwaQbAc.s 			page 187


 7432 06ac 0C000000 		.4byte	.LVL154
 7433 06b0 16000000 		.4byte	.LVL156
 7434 06b4 0500     		.2byte	0x5
 7435 06b6 74       		.byte	0x74
 7436 06b7 00       		.sleb128 0
 7437 06b8 37       		.byte	0x37
 7438 06b9 1A       		.byte	0x1a
 7439 06ba 9F       		.byte	0x9f
 7440 06bb 00000000 		.4byte	0
 7441 06bf 00000000 		.4byte	0
 7442              	.LLST55:
 7443 06c3 0A000000 		.4byte	.LVL158
 7444 06c7 18000000 		.4byte	.LVL160
 7445 06cb 0100     		.2byte	0x1
 7446 06cd 54       		.byte	0x54
 7447 06ce 18000000 		.4byte	.LVL160
 7448 06d2 1C000000 		.4byte	.LFE54
 7449 06d6 0100     		.2byte	0x1
 7450 06d8 50       		.byte	0x50
 7451 06d9 00000000 		.4byte	0
 7452 06dd 00000000 		.4byte	0
 7453              	.LLST56:
 7454 06e1 06000000 		.4byte	.LVL157
 7455 06e5 13000000 		.4byte	.LVL159-1
 7456 06e9 0100     		.2byte	0x1
 7457 06eb 50       		.byte	0x50
 7458 06ec 00000000 		.4byte	0
 7459 06f0 00000000 		.4byte	0
 7460              	.LLST57:
 7461 06f4 00000000 		.4byte	.LVL161
 7462 06f8 07000000 		.4byte	.LVL162-1
 7463 06fc 0100     		.2byte	0x1
 7464 06fe 50       		.byte	0x50
 7465 06ff 07000000 		.4byte	.LVL162-1
 7466 0703 12000000 		.4byte	.LVL164
 7467 0707 0100     		.2byte	0x1
 7468 0709 54       		.byte	0x54
 7469 070a 12000000 		.4byte	.LVL164
 7470 070e 18000000 		.4byte	.LFE55
 7471 0712 0400     		.2byte	0x4
 7472 0714 F3       		.byte	0xf3
 7473 0715 01       		.uleb128 0x1
 7474 0716 50       		.byte	0x50
 7475 0717 9F       		.byte	0x9f
 7476 0718 00000000 		.4byte	0
 7477 071c 00000000 		.4byte	0
 7478              	.LLST58:
 7479 0720 08000000 		.4byte	.LVL162
 7480 0724 0F000000 		.4byte	.LVL163-1
 7481 0728 0100     		.2byte	0x1
 7482 072a 50       		.byte	0x50
 7483 072b 00000000 		.4byte	0
 7484 072f 00000000 		.4byte	0
 7485              	.LLST59:
 7486 0733 06000000 		.4byte	.LVL165
 7487 0737 3B000000 		.4byte	.LVL166-1
 7488 073b 0100     		.2byte	0x1
ARM GAS  C:\Users\ingan\AppData\Local\Temp\ccwaQbAc.s 			page 188


 7489 073d 50       		.byte	0x50
 7490 073e 00000000 		.4byte	0
 7491 0742 00000000 		.4byte	0
 7492              	.LLST60:
 7493 0746 00000000 		.4byte	.LVL167
 7494 074a 0C000000 		.4byte	.LVL170
 7495 074e 0100     		.2byte	0x1
 7496 0750 50       		.byte	0x50
 7497 0751 0C000000 		.4byte	.LVL170
 7498 0755 18000000 		.4byte	.LFE57
 7499 0759 0400     		.2byte	0x4
 7500 075b F3       		.byte	0xf3
 7501 075c 01       		.uleb128 0x1
 7502 075d 50       		.byte	0x50
 7503 075e 9F       		.byte	0x9f
 7504 075f 00000000 		.4byte	0
 7505 0763 00000000 		.4byte	0
 7506              	.LLST61:
 7507 0767 00000000 		.4byte	.LVL167
 7508 076b 06000000 		.4byte	.LVL168
 7509 076f 0600     		.2byte	0x6
 7510 0771 11       		.byte	0x11
 7511 0772 88DA8380 		.sleb128 -536810232
 7511      7E
 7512 0777 06000000 		.4byte	.LVL168
 7513 077b 08000000 		.4byte	.LVL169
 7514 077f 0200     		.2byte	0x2
 7515 0781 73       		.byte	0x73
 7516 0782 00       		.sleb128 0
 7517 0783 08000000 		.4byte	.LVL169
 7518 0787 18000000 		.4byte	.LFE57
 7519 078b 0100     		.2byte	0x1
 7520 078d 53       		.byte	0x53
 7521 078e 00000000 		.4byte	0
 7522 0792 00000000 		.4byte	0
 7523              	.LLST62:
 7524 0796 00000000 		.4byte	.LVL171
 7525 079a 04000000 		.4byte	.LVL172
 7526 079e 0100     		.2byte	0x1
 7527 07a0 50       		.byte	0x50
 7528 07a1 04000000 		.4byte	.LVL172
 7529 07a5 14000000 		.4byte	.LFE58
 7530 07a9 0400     		.2byte	0x4
 7531 07ab F3       		.byte	0xf3
 7532 07ac 01       		.uleb128 0x1
 7533 07ad 50       		.byte	0x50
 7534 07ae 9F       		.byte	0x9f
 7535 07af 00000000 		.4byte	0
 7536 07b3 00000000 		.4byte	0
 7537              	.LLST63:
 7538 07b7 00000000 		.4byte	.LVL171
 7539 07bb 06000000 		.4byte	.LVL173
 7540 07bf 0600     		.2byte	0x6
 7541 07c1 11       		.byte	0x11
 7542 07c2 88DA8380 		.sleb128 -536810232
 7542      7E
 7543 07c7 06000000 		.4byte	.LVL173
ARM GAS  C:\Users\ingan\AppData\Local\Temp\ccwaQbAc.s 			page 189


 7544 07cb 08000000 		.4byte	.LVL174
 7545 07cf 0200     		.2byte	0x2
 7546 07d1 73       		.byte	0x73
 7547 07d2 00       		.sleb128 0
 7548 07d3 08000000 		.4byte	.LVL174
 7549 07d7 14000000 		.4byte	.LFE58
 7550 07db 0100     		.2byte	0x1
 7551 07dd 53       		.byte	0x53
 7552 07de 00000000 		.4byte	0
 7553 07e2 00000000 		.4byte	0
 7554              	.LLST64:
 7555 07e6 00000000 		.4byte	.LVL175
 7556 07ea 04000000 		.4byte	.LVL176
 7557 07ee 0100     		.2byte	0x1
 7558 07f0 50       		.byte	0x50
 7559 07f1 04000000 		.4byte	.LVL176
 7560 07f5 1C000000 		.4byte	.LFE59
 7561 07f9 0400     		.2byte	0x4
 7562 07fb F3       		.byte	0xf3
 7563 07fc 01       		.uleb128 0x1
 7564 07fd 50       		.byte	0x50
 7565 07fe 9F       		.byte	0x9f
 7566 07ff 00000000 		.4byte	0
 7567 0803 00000000 		.4byte	0
 7568              	.LLST65:
 7569 0807 00000000 		.4byte	.LVL175
 7570 080b 0A000000 		.4byte	.LVL177
 7571 080f 0600     		.2byte	0x6
 7572 0811 11       		.byte	0x11
 7573 0812 88DA8380 		.sleb128 -536810232
 7573      7E
 7574 0817 0A000000 		.4byte	.LVL177
 7575 081b 0C000000 		.4byte	.LVL178
 7576 081f 0200     		.2byte	0x2
 7577 0821 72       		.byte	0x72
 7578 0822 00       		.sleb128 0
 7579 0823 0C000000 		.4byte	.LVL178
 7580 0827 1C000000 		.4byte	.LFE59
 7581 082b 0100     		.2byte	0x1
 7582 082d 52       		.byte	0x52
 7583 082e 00000000 		.4byte	0
 7584 0832 00000000 		.4byte	0
 7585              	.LLST66:
 7586 0836 00000000 		.4byte	.LVL180
 7587 083a 04000000 		.4byte	.LVL181
 7588 083e 0100     		.2byte	0x1
 7589 0840 50       		.byte	0x50
 7590 0841 04000000 		.4byte	.LVL181
 7591 0845 14000000 		.4byte	.LFE60
 7592 0849 0400     		.2byte	0x4
 7593 084b F3       		.byte	0xf3
 7594 084c 01       		.uleb128 0x1
 7595 084d 50       		.byte	0x50
 7596 084e 9F       		.byte	0x9f
 7597 084f 00000000 		.4byte	0
 7598 0853 00000000 		.4byte	0
 7599              	.LLST67:
ARM GAS  C:\Users\ingan\AppData\Local\Temp\ccwaQbAc.s 			page 190


 7600 0857 00000000 		.4byte	.LVL180
 7601 085b 08000000 		.4byte	.LVL182
 7602 085f 0600     		.2byte	0x6
 7603 0861 11       		.byte	0x11
 7604 0862 88DA8380 		.sleb128 -536810232
 7604      7E
 7605 0867 08000000 		.4byte	.LVL182
 7606 086b 0A000000 		.4byte	.LVL183
 7607 086f 0200     		.2byte	0x2
 7608 0871 73       		.byte	0x73
 7609 0872 00       		.sleb128 0
 7610 0873 0A000000 		.4byte	.LVL183
 7611 0877 14000000 		.4byte	.LFE60
 7612 087b 0100     		.2byte	0x1
 7613 087d 53       		.byte	0x53
 7614 087e 00000000 		.4byte	0
 7615 0882 00000000 		.4byte	0
 7616              	.LLST68:
 7617 0886 00000000 		.4byte	.LVL184
 7618 088a 04000000 		.4byte	.LVL185
 7619 088e 0100     		.2byte	0x1
 7620 0890 50       		.byte	0x50
 7621 0891 04000000 		.4byte	.LVL185
 7622 0895 14000000 		.4byte	.LFE61
 7623 0899 0400     		.2byte	0x4
 7624 089b F3       		.byte	0xf3
 7625 089c 01       		.uleb128 0x1
 7626 089d 50       		.byte	0x50
 7627 089e 9F       		.byte	0x9f
 7628 089f 00000000 		.4byte	0
 7629 08a3 00000000 		.4byte	0
 7630              	.LLST69:
 7631 08a7 00000000 		.4byte	.LVL184
 7632 08ab 0E000000 		.4byte	.LVL186
 7633 08af 0100     		.2byte	0x1
 7634 08b1 51       		.byte	0x51
 7635 08b2 0E000000 		.4byte	.LVL186
 7636 08b6 14000000 		.4byte	.LFE61
 7637 08ba 0400     		.2byte	0x4
 7638 08bc F3       		.byte	0xf3
 7639 08bd 01       		.uleb128 0x1
 7640 08be 51       		.byte	0x51
 7641 08bf 9F       		.byte	0x9f
 7642 08c0 00000000 		.4byte	0
 7643 08c4 00000000 		.4byte	0
 7644              	.LLST70:
 7645 08c8 00000000 		.4byte	.LVL187
 7646 08cc 04000000 		.4byte	.LVL188
 7647 08d0 0100     		.2byte	0x1
 7648 08d2 50       		.byte	0x50
 7649 08d3 04000000 		.4byte	.LVL188
 7650 08d7 12000000 		.4byte	.LFE62
 7651 08db 0400     		.2byte	0x4
 7652 08dd F3       		.byte	0xf3
 7653 08de 01       		.uleb128 0x1
 7654 08df 50       		.byte	0x50
 7655 08e0 9F       		.byte	0x9f
ARM GAS  C:\Users\ingan\AppData\Local\Temp\ccwaQbAc.s 			page 191


 7656 08e1 00000000 		.4byte	0
 7657 08e5 00000000 		.4byte	0
 7658              	.LLST71:
 7659 08e9 0E000000 		.4byte	.LVL189
 7660 08ed 10000000 		.4byte	.LVL190
 7661 08f1 0500     		.2byte	0x5
 7662 08f3 70       		.byte	0x70
 7663 08f4 00       		.sleb128 0
 7664 08f5 35       		.byte	0x35
 7665 08f6 25       		.byte	0x25
 7666 08f7 9F       		.byte	0x9f
 7667 08f8 00000000 		.4byte	0
 7668 08fc 00000000 		.4byte	0
 7669              	.LLST72:
 7670 0900 00000000 		.4byte	.LVL191
 7671 0904 08000000 		.4byte	.LVL192
 7672 0908 0100     		.2byte	0x1
 7673 090a 50       		.byte	0x50
 7674 090b 08000000 		.4byte	.LVL192
 7675 090f 18000000 		.4byte	.LFE63
 7676 0913 0400     		.2byte	0x4
 7677 0915 F3       		.byte	0xf3
 7678 0916 01       		.uleb128 0x1
 7679 0917 50       		.byte	0x50
 7680 0918 9F       		.byte	0x9f
 7681 0919 00000000 		.4byte	0
 7682 091d 00000000 		.4byte	0
 7683              	.LLST73:
 7684 0921 00000000 		.4byte	.LVL194
 7685 0925 04000000 		.4byte	.LVL195
 7686 0929 0100     		.2byte	0x1
 7687 092b 50       		.byte	0x50
 7688 092c 04000000 		.4byte	.LVL195
 7689 0930 10000000 		.4byte	.LFE70
 7690 0934 0400     		.2byte	0x4
 7691 0936 F3       		.byte	0xf3
 7692 0937 01       		.uleb128 0x1
 7693 0938 50       		.byte	0x50
 7694 0939 9F       		.byte	0x9f
 7695 093a 00000000 		.4byte	0
 7696 093e 00000000 		.4byte	0
 7697              	.LLST74:
 7698 0942 02000000 		.4byte	.LVL197
 7699 0946 08000000 		.4byte	.LVL198
 7700 094a 0200     		.2byte	0x2
 7701 094c 30       		.byte	0x30
 7702 094d 9F       		.byte	0x9f
 7703 094e 08000000 		.4byte	.LVL198
 7704 0952 0A000000 		.4byte	.LVL199
 7705 0956 0200     		.2byte	0x2
 7706 0958 31       		.byte	0x31
 7707 0959 9F       		.byte	0x9f
 7708 095a 0A000000 		.4byte	.LVL199
 7709 095e 0C000000 		.4byte	.LVL200
 7710 0962 0200     		.2byte	0x2
 7711 0964 32       		.byte	0x32
 7712 0965 9F       		.byte	0x9f
ARM GAS  C:\Users\ingan\AppData\Local\Temp\ccwaQbAc.s 			page 192


 7713 0966 0C000000 		.4byte	.LVL200
 7714 096a 0E000000 		.4byte	.LVL201
 7715 096e 0200     		.2byte	0x2
 7716 0970 33       		.byte	0x33
 7717 0971 9F       		.byte	0x9f
 7718 0972 0E000000 		.4byte	.LVL201
 7719 0976 10000000 		.4byte	.LVL202
 7720 097a 0200     		.2byte	0x2
 7721 097c 34       		.byte	0x34
 7722 097d 9F       		.byte	0x9f
 7723 097e 10000000 		.4byte	.LVL202
 7724 0982 54000000 		.4byte	.LFE65
 7725 0986 0200     		.2byte	0x2
 7726 0988 35       		.byte	0x35
 7727 0989 9F       		.byte	0x9f
 7728 098a 00000000 		.4byte	0
 7729 098e 00000000 		.4byte	0
 7730              	.LLST75:
 7731 0992 1E000000 		.4byte	.LVL204
 7732 0996 2E000000 		.4byte	.LVL205
 7733 099a 1100     		.2byte	0x11
 7734 099c 03       		.byte	0x3
 7735 099d 00000000 		.4byte	cydelay_freq_hz
 7736 09a1 06       		.byte	0x6
 7737 09a2 F7       		.byte	0xf7
 7738 09a3 25       		.uleb128 0x25
 7739 09a4 0A       		.byte	0xa
 7740 09a5 E803     		.2byte	0x3e8
 7741 09a7 F7       		.byte	0xf7
 7742 09a8 25       		.uleb128 0x25
 7743 09a9 1B       		.byte	0x1b
 7744 09aa F7       		.byte	0xf7
 7745 09ab 00       		.uleb128 0
 7746 09ac 9F       		.byte	0x9f
 7747 09ad 00000000 		.4byte	0
 7748 09b1 00000000 		.4byte	0
 7749              	.LLST76:
 7750 09b5 00000000 		.4byte	.LVL210
 7751 09b9 08000000 		.4byte	.LVL211
 7752 09bd 0100     		.2byte	0x1
 7753 09bf 50       		.byte	0x50
 7754 09c0 08000000 		.4byte	.LVL211
 7755 09c4 10000000 		.4byte	.LFE77
 7756 09c8 0400     		.2byte	0x4
 7757 09ca F3       		.byte	0xf3
 7758 09cb 01       		.uleb128 0x1
 7759 09cc 50       		.byte	0x50
 7760 09cd 9F       		.byte	0x9f
 7761 09ce 00000000 		.4byte	0
 7762 09d2 00000000 		.4byte	0
 7763              	.LLST77:
 7764 09d6 00000000 		.4byte	.LVL212
 7765 09da 06000000 		.4byte	.LVL213
 7766 09de 0100     		.2byte	0x1
 7767 09e0 50       		.byte	0x50
 7768 09e1 06000000 		.4byte	.LVL213
 7769 09e5 10000000 		.4byte	.LFE78
ARM GAS  C:\Users\ingan\AppData\Local\Temp\ccwaQbAc.s 			page 193


 7770 09e9 0400     		.2byte	0x4
 7771 09eb F3       		.byte	0xf3
 7772 09ec 01       		.uleb128 0x1
 7773 09ed 50       		.byte	0x50
 7774 09ee 9F       		.byte	0x9f
 7775 09ef 00000000 		.4byte	0
 7776 09f3 00000000 		.4byte	0
 7777              		.section	.debug_aranges,"",%progbits
 7778 0000 94020000 		.4byte	0x294
 7779 0004 0200     		.2byte	0x2
 7780 0006 00000000 		.4byte	.Ldebug_info0
 7781 000a 04       		.byte	0x4
 7782 000b 00       		.byte	0
 7783 000c 0000     		.2byte	0
 7784 000e 0000     		.2byte	0
 7785 0010 00000000 		.4byte	.LFB7
 7786 0014 F4000000 		.4byte	.LFE7-.LFB7
 7787 0018 00000000 		.4byte	.LFB14
 7788 001c 48000000 		.4byte	.LFE14-.LFB14
 7789 0020 00000000 		.4byte	.LFB1
 7790 0024 10000000 		.4byte	.LFE1-.LFB1
 7791 0028 00000000 		.4byte	.LFB2
 7792 002c 38000000 		.4byte	.LFE2-.LFB2
 7793 0030 00000000 		.4byte	.LFB3
 7794 0034 14000000 		.4byte	.LFE3-.LFB3
 7795 0038 00000000 		.4byte	.LFB5
 7796 003c 1C000000 		.4byte	.LFE5-.LFB5
 7797 0040 00000000 		.4byte	.LFB9
 7798 0044 50000000 		.4byte	.LFE9-.LFB9
 7799 0048 00000000 		.4byte	.LFB10
 7800 004c 10000000 		.4byte	.LFE10-.LFB10
 7801 0050 00000000 		.4byte	.LFB11
 7802 0054 10000000 		.4byte	.LFE11-.LFB11
 7803 0058 00000000 		.4byte	.LFB8
 7804 005c E0000000 		.4byte	.LFE8-.LFB8
 7805 0060 00000000 		.4byte	.LFB12
 7806 0064 18000000 		.4byte	.LFE12-.LFB12
 7807 0068 00000000 		.4byte	.LFB13
 7808 006c 0C000000 		.4byte	.LFE13-.LFB13
 7809 0070 00000000 		.4byte	.LFB15
 7810 0074 90000000 		.4byte	.LFE15-.LFB15
 7811 0078 00000000 		.4byte	.LFB16
 7812 007c 18000000 		.4byte	.LFE16-.LFB16
 7813 0080 00000000 		.4byte	.LFB17
 7814 0084 10000000 		.4byte	.LFE17-.LFB17
 7815 0088 00000000 		.4byte	.LFB18
 7816 008c 10000000 		.4byte	.LFE18-.LFB18
 7817 0090 00000000 		.4byte	.LFB19
 7818 0094 10000000 		.4byte	.LFE19-.LFB19
 7819 0098 00000000 		.4byte	.LFB20
 7820 009c 10000000 		.4byte	.LFE20-.LFB20
 7821 00a0 00000000 		.4byte	.LFB0
 7822 00a4 84000000 		.4byte	.LFE0-.LFB0
 7823 00a8 00000000 		.4byte	.LFB4
 7824 00ac 60000000 		.4byte	.LFE4-.LFB4
 7825 00b0 00000000 		.4byte	.LFB21
 7826 00b4 10000000 		.4byte	.LFE21-.LFB21
ARM GAS  C:\Users\ingan\AppData\Local\Temp\ccwaQbAc.s 			page 194


 7827 00b8 00000000 		.4byte	.LFB22
 7828 00bc 10000000 		.4byte	.LFE22-.LFB22
 7829 00c0 00000000 		.4byte	.LFB23
 7830 00c4 16000000 		.4byte	.LFE23-.LFB23
 7831 00c8 00000000 		.4byte	.LFB24
 7832 00cc 24000000 		.4byte	.LFE24-.LFB24
 7833 00d0 00000000 		.4byte	.LFB26
 7834 00d4 30000000 		.4byte	.LFE26-.LFB26
 7835 00d8 00000000 		.4byte	.LFB27
 7836 00dc 10000000 		.4byte	.LFE27-.LFB27
 7837 00e0 00000000 		.4byte	.LFB29
 7838 00e4 C8000000 		.4byte	.LFE29-.LFB29
 7839 00e8 00000000 		.4byte	.LFB30
 7840 00ec 10000000 		.4byte	.LFE30-.LFB30
 7841 00f0 00000000 		.4byte	.LFB31
 7842 00f4 10000000 		.4byte	.LFE31-.LFB31
 7843 00f8 00000000 		.4byte	.LFB32
 7844 00fc 10000000 		.4byte	.LFE32-.LFB32
 7845 0100 00000000 		.4byte	.LFB33
 7846 0104 0C000000 		.4byte	.LFE33-.LFB33
 7847 0108 00000000 		.4byte	.LFB34
 7848 010c 10000000 		.4byte	.LFE34-.LFB34
 7849 0110 00000000 		.4byte	.LFB35
 7850 0114 10000000 		.4byte	.LFE35-.LFB35
 7851 0118 00000000 		.4byte	.LFB36
 7852 011c 18000000 		.4byte	.LFE36-.LFB36
 7853 0120 00000000 		.4byte	.LFB37
 7854 0124 18000000 		.4byte	.LFE37-.LFB37
 7855 0128 00000000 		.4byte	.LFB38
 7856 012c 18000000 		.4byte	.LFE38-.LFB38
 7857 0130 00000000 		.4byte	.LFB39
 7858 0134 04000000 		.4byte	.LFE39-.LFB39
 7859 0138 00000000 		.4byte	.LFB40
 7860 013c 10000000 		.4byte	.LFE40-.LFB40
 7861 0140 00000000 		.4byte	.LFB41
 7862 0144 44000000 		.4byte	.LFE41-.LFB41
 7863 0148 00000000 		.4byte	.LFB42
 7864 014c 14000000 		.4byte	.LFE42-.LFB42
 7865 0150 00000000 		.4byte	.LFB28
 7866 0154 78000000 		.4byte	.LFE28-.LFB28
 7867 0158 00000000 		.4byte	.LFB25
 7868 015c 80000000 		.4byte	.LFE25-.LFB25
 7869 0160 00000000 		.4byte	.LFB43
 7870 0164 48000000 		.4byte	.LFE43-.LFB43
 7871 0168 00000000 		.4byte	.LFB44
 7872 016c 40000000 		.4byte	.LFE44-.LFB44
 7873 0170 00000000 		.4byte	.LFB45
 7874 0174 0C000000 		.4byte	.LFE45-.LFB45
 7875 0178 00000000 		.4byte	.LFB52
 7876 017c 2C000000 		.4byte	.LFE52-.LFB52
 7877 0180 00000000 		.4byte	.LFB46
 7878 0184 84000000 		.4byte	.LFE46-.LFB46
 7879 0188 00000000 		.4byte	.LFB47
 7880 018c 84000000 		.4byte	.LFE47-.LFB47
 7881 0190 00000000 		.4byte	.LFB48
 7882 0194 30000000 		.4byte	.LFE48-.LFB48
 7883 0198 00000000 		.4byte	.LFB49
ARM GAS  C:\Users\ingan\AppData\Local\Temp\ccwaQbAc.s 			page 195


 7884 019c 2C000000 		.4byte	.LFE49-.LFB49
 7885 01a0 00000000 		.4byte	.LFB50
 7886 01a4 54000000 		.4byte	.LFE50-.LFB50
 7887 01a8 00000000 		.4byte	.LFB51
 7888 01ac 20000000 		.4byte	.LFE51-.LFB51
 7889 01b0 00000000 		.4byte	.LFB53
 7890 01b4 1C000000 		.4byte	.LFE53-.LFB53
 7891 01b8 00000000 		.4byte	.LFB54
 7892 01bc 1C000000 		.4byte	.LFE54-.LFB54
 7893 01c0 00000000 		.4byte	.LFB55
 7894 01c4 18000000 		.4byte	.LFE55-.LFB55
 7895 01c8 00000000 		.4byte	.LFB56
 7896 01cc 44000000 		.4byte	.LFE56-.LFB56
 7897 01d0 00000000 		.4byte	.LFB57
 7898 01d4 18000000 		.4byte	.LFE57-.LFB57
 7899 01d8 00000000 		.4byte	.LFB58
 7900 01dc 14000000 		.4byte	.LFE58-.LFB58
 7901 01e0 00000000 		.4byte	.LFB59
 7902 01e4 1C000000 		.4byte	.LFE59-.LFB59
 7903 01e8 00000000 		.4byte	.LFB60
 7904 01ec 14000000 		.4byte	.LFE60-.LFB60
 7905 01f0 00000000 		.4byte	.LFB61
 7906 01f4 14000000 		.4byte	.LFE61-.LFB61
 7907 01f8 00000000 		.4byte	.LFB62
 7908 01fc 12000000 		.4byte	.LFE62-.LFB62
 7909 0200 00000000 		.4byte	.LFB63
 7910 0204 18000000 		.4byte	.LFE63-.LFB63
 7911 0208 00000000 		.4byte	.LFB67
 7912 020c 10000000 		.4byte	.LFE67-.LFB67
 7913 0210 00000000 		.4byte	.LFB68
 7914 0214 10000000 		.4byte	.LFE68-.LFB68
 7915 0218 00000000 		.4byte	.LFB66
 7916 021c 18000000 		.4byte	.LFE66-.LFB66
 7917 0220 00000000 		.4byte	.LFB69
 7918 0224 10000000 		.4byte	.LFE69-.LFB69
 7919 0228 00000000 		.4byte	.LFB70
 7920 022c 10000000 		.4byte	.LFE70-.LFB70
 7921 0230 00000000 		.4byte	.LFB71
 7922 0234 10000000 		.4byte	.LFE71-.LFB71
 7923 0238 00000000 		.4byte	.LFB72
 7924 023c 10000000 		.4byte	.LFE72-.LFB72
 7925 0240 00000000 		.4byte	.LFB73
 7926 0244 18000000 		.4byte	.LFE73-.LFB73
 7927 0248 00000000 		.4byte	.LFB65
 7928 024c 54000000 		.4byte	.LFE65-.LFB65
 7929 0250 00000000 		.4byte	.LFB64
 7930 0254 1C000000 		.4byte	.LFE64-.LFB64
 7931 0258 00000000 		.4byte	.LFB74
 7932 025c 10000000 		.4byte	.LFE74-.LFB74
 7933 0260 00000000 		.4byte	.LFB75
 7934 0264 10000000 		.4byte	.LFE75-.LFB75
 7935 0268 00000000 		.4byte	.LFB79
 7936 026c 24000000 		.4byte	.LFE79-.LFB79
 7937 0270 00000000 		.4byte	.LFB76
 7938 0274 0C000000 		.4byte	.LFE76-.LFB76
 7939 0278 00000000 		.4byte	.LFB77
 7940 027c 10000000 		.4byte	.LFE77-.LFB77
ARM GAS  C:\Users\ingan\AppData\Local\Temp\ccwaQbAc.s 			page 196


 7941 0280 00000000 		.4byte	.LFB78
 7942 0284 10000000 		.4byte	.LFE78-.LFB78
 7943 0288 00000000 		.4byte	.LFB80
 7944 028c 70000000 		.4byte	.LFE80-.LFB80
 7945 0290 00000000 		.4byte	0
 7946 0294 00000000 		.4byte	0
 7947              		.section	.debug_ranges,"",%progbits
 7948              	.Ldebug_ranges0:
 7949 0000 3A000000 		.4byte	.LBB16
 7950 0004 3C000000 		.4byte	.LBE16
 7951 0008 44000000 		.4byte	.LBB19
 7952 000c 4A000000 		.4byte	.LBE19
 7953 0010 00000000 		.4byte	0
 7954 0014 00000000 		.4byte	0
 7955 0018 00000000 		.4byte	.LFB7
 7956 001c F4000000 		.4byte	.LFE7
 7957 0020 00000000 		.4byte	.LFB14
 7958 0024 48000000 		.4byte	.LFE14
 7959 0028 00000000 		.4byte	.LFB1
 7960 002c 10000000 		.4byte	.LFE1
 7961 0030 00000000 		.4byte	.LFB2
 7962 0034 38000000 		.4byte	.LFE2
 7963 0038 00000000 		.4byte	.LFB3
 7964 003c 14000000 		.4byte	.LFE3
 7965 0040 00000000 		.4byte	.LFB5
 7966 0044 1C000000 		.4byte	.LFE5
 7967 0048 00000000 		.4byte	.LFB9
 7968 004c 50000000 		.4byte	.LFE9
 7969 0050 00000000 		.4byte	.LFB10
 7970 0054 10000000 		.4byte	.LFE10
 7971 0058 00000000 		.4byte	.LFB11
 7972 005c 10000000 		.4byte	.LFE11
 7973 0060 00000000 		.4byte	.LFB8
 7974 0064 E0000000 		.4byte	.LFE8
 7975 0068 00000000 		.4byte	.LFB12
 7976 006c 18000000 		.4byte	.LFE12
 7977 0070 00000000 		.4byte	.LFB13
 7978 0074 0C000000 		.4byte	.LFE13
 7979 0078 00000000 		.4byte	.LFB15
 7980 007c 90000000 		.4byte	.LFE15
 7981 0080 00000000 		.4byte	.LFB16
 7982 0084 18000000 		.4byte	.LFE16
 7983 0088 00000000 		.4byte	.LFB17
 7984 008c 10000000 		.4byte	.LFE17
 7985 0090 00000000 		.4byte	.LFB18
 7986 0094 10000000 		.4byte	.LFE18
 7987 0098 00000000 		.4byte	.LFB19
 7988 009c 10000000 		.4byte	.LFE19
 7989 00a0 00000000 		.4byte	.LFB20
 7990 00a4 10000000 		.4byte	.LFE20
 7991 00a8 00000000 		.4byte	.LFB0
 7992 00ac 84000000 		.4byte	.LFE0
 7993 00b0 00000000 		.4byte	.LFB4
 7994 00b4 60000000 		.4byte	.LFE4
 7995 00b8 00000000 		.4byte	.LFB21
 7996 00bc 10000000 		.4byte	.LFE21
 7997 00c0 00000000 		.4byte	.LFB22
ARM GAS  C:\Users\ingan\AppData\Local\Temp\ccwaQbAc.s 			page 197


 7998 00c4 10000000 		.4byte	.LFE22
 7999 00c8 00000000 		.4byte	.LFB23
 8000 00cc 16000000 		.4byte	.LFE23
 8001 00d0 00000000 		.4byte	.LFB24
 8002 00d4 24000000 		.4byte	.LFE24
 8003 00d8 00000000 		.4byte	.LFB26
 8004 00dc 30000000 		.4byte	.LFE26
 8005 00e0 00000000 		.4byte	.LFB27
 8006 00e4 10000000 		.4byte	.LFE27
 8007 00e8 00000000 		.4byte	.LFB29
 8008 00ec C8000000 		.4byte	.LFE29
 8009 00f0 00000000 		.4byte	.LFB30
 8010 00f4 10000000 		.4byte	.LFE30
 8011 00f8 00000000 		.4byte	.LFB31
 8012 00fc 10000000 		.4byte	.LFE31
 8013 0100 00000000 		.4byte	.LFB32
 8014 0104 10000000 		.4byte	.LFE32
 8015 0108 00000000 		.4byte	.LFB33
 8016 010c 0C000000 		.4byte	.LFE33
 8017 0110 00000000 		.4byte	.LFB34
 8018 0114 10000000 		.4byte	.LFE34
 8019 0118 00000000 		.4byte	.LFB35
 8020 011c 10000000 		.4byte	.LFE35
 8021 0120 00000000 		.4byte	.LFB36
 8022 0124 18000000 		.4byte	.LFE36
 8023 0128 00000000 		.4byte	.LFB37
 8024 012c 18000000 		.4byte	.LFE37
 8025 0130 00000000 		.4byte	.LFB38
 8026 0134 18000000 		.4byte	.LFE38
 8027 0138 00000000 		.4byte	.LFB39
 8028 013c 04000000 		.4byte	.LFE39
 8029 0140 00000000 		.4byte	.LFB40
 8030 0144 10000000 		.4byte	.LFE40
 8031 0148 00000000 		.4byte	.LFB41
 8032 014c 44000000 		.4byte	.LFE41
 8033 0150 00000000 		.4byte	.LFB42
 8034 0154 14000000 		.4byte	.LFE42
 8035 0158 00000000 		.4byte	.LFB28
 8036 015c 78000000 		.4byte	.LFE28
 8037 0160 00000000 		.4byte	.LFB25
 8038 0164 80000000 		.4byte	.LFE25
 8039 0168 00000000 		.4byte	.LFB43
 8040 016c 48000000 		.4byte	.LFE43
 8041 0170 00000000 		.4byte	.LFB44
 8042 0174 40000000 		.4byte	.LFE44
 8043 0178 00000000 		.4byte	.LFB45
 8044 017c 0C000000 		.4byte	.LFE45
 8045 0180 00000000 		.4byte	.LFB52
 8046 0184 2C000000 		.4byte	.LFE52
 8047 0188 00000000 		.4byte	.LFB46
 8048 018c 84000000 		.4byte	.LFE46
 8049 0190 00000000 		.4byte	.LFB47
 8050 0194 84000000 		.4byte	.LFE47
 8051 0198 00000000 		.4byte	.LFB48
 8052 019c 30000000 		.4byte	.LFE48
 8053 01a0 00000000 		.4byte	.LFB49
 8054 01a4 2C000000 		.4byte	.LFE49
ARM GAS  C:\Users\ingan\AppData\Local\Temp\ccwaQbAc.s 			page 198


 8055 01a8 00000000 		.4byte	.LFB50
 8056 01ac 54000000 		.4byte	.LFE50
 8057 01b0 00000000 		.4byte	.LFB51
 8058 01b4 20000000 		.4byte	.LFE51
 8059 01b8 00000000 		.4byte	.LFB53
 8060 01bc 1C000000 		.4byte	.LFE53
 8061 01c0 00000000 		.4byte	.LFB54
 8062 01c4 1C000000 		.4byte	.LFE54
 8063 01c8 00000000 		.4byte	.LFB55
 8064 01cc 18000000 		.4byte	.LFE55
 8065 01d0 00000000 		.4byte	.LFB56
 8066 01d4 44000000 		.4byte	.LFE56
 8067 01d8 00000000 		.4byte	.LFB57
 8068 01dc 18000000 		.4byte	.LFE57
 8069 01e0 00000000 		.4byte	.LFB58
 8070 01e4 14000000 		.4byte	.LFE58
 8071 01e8 00000000 		.4byte	.LFB59
 8072 01ec 1C000000 		.4byte	.LFE59
 8073 01f0 00000000 		.4byte	.LFB60
 8074 01f4 14000000 		.4byte	.LFE60
 8075 01f8 00000000 		.4byte	.LFB61
 8076 01fc 14000000 		.4byte	.LFE61
 8077 0200 00000000 		.4byte	.LFB62
 8078 0204 12000000 		.4byte	.LFE62
 8079 0208 00000000 		.4byte	.LFB63
 8080 020c 18000000 		.4byte	.LFE63
 8081 0210 00000000 		.4byte	.LFB67
 8082 0214 10000000 		.4byte	.LFE67
 8083 0218 00000000 		.4byte	.LFB68
 8084 021c 10000000 		.4byte	.LFE68
 8085 0220 00000000 		.4byte	.LFB66
 8086 0224 18000000 		.4byte	.LFE66
 8087 0228 00000000 		.4byte	.LFB69
 8088 022c 10000000 		.4byte	.LFE69
 8089 0230 00000000 		.4byte	.LFB70
 8090 0234 10000000 		.4byte	.LFE70
 8091 0238 00000000 		.4byte	.LFB71
 8092 023c 10000000 		.4byte	.LFE71
 8093 0240 00000000 		.4byte	.LFB72
 8094 0244 10000000 		.4byte	.LFE72
 8095 0248 00000000 		.4byte	.LFB73
 8096 024c 18000000 		.4byte	.LFE73
 8097 0250 00000000 		.4byte	.LFB65
 8098 0254 54000000 		.4byte	.LFE65
 8099 0258 00000000 		.4byte	.LFB64
 8100 025c 1C000000 		.4byte	.LFE64
 8101 0260 00000000 		.4byte	.LFB74
 8102 0264 10000000 		.4byte	.LFE74
 8103 0268 00000000 		.4byte	.LFB75
 8104 026c 10000000 		.4byte	.LFE75
 8105 0270 00000000 		.4byte	.LFB79
 8106 0274 24000000 		.4byte	.LFE79
 8107 0278 00000000 		.4byte	.LFB76
 8108 027c 0C000000 		.4byte	.LFE76
 8109 0280 00000000 		.4byte	.LFB77
 8110 0284 10000000 		.4byte	.LFE77
 8111 0288 00000000 		.4byte	.LFB78
ARM GAS  C:\Users\ingan\AppData\Local\Temp\ccwaQbAc.s 			page 199


 8112 028c 10000000 		.4byte	.LFE78
 8113 0290 00000000 		.4byte	.LFB80
 8114 0294 70000000 		.4byte	.LFE80
 8115 0298 00000000 		.4byte	0
 8116 029c 00000000 		.4byte	0
 8117              		.section	.debug_line,"",%progbits
 8118              	.Ldebug_line0:
 8119 0000 7B070000 		.section	.debug_str,"MS",%progbits,1
 8119      02005700 
 8119      00000201 
 8119      FB0E0D00 
 8119      01010101 
 8120              	.LASF123:
 8121 0000 4379496E 		.ascii	"CyIntGetVector\000"
 8121      74476574 
 8121      56656374 
 8121      6F7200
 8122              	.LASF170:
 8123 000f 43795379 		.ascii	"CySysTickClear\000"
 8123      73546963 
 8123      6B436C65 
 8123      617200
 8124              	.LASF86:
 8125 001e 43794465 		.ascii	"CyDelay\000"
 8125      6C617900 
 8126              	.LASF124:
 8127 0026 4379496E 		.ascii	"CyIntSetPriority\000"
 8127      74536574 
 8127      5072696F 
 8127      72697479 
 8127      00
 8128              	.LASF23:
 8129 0037 4379494D 		.ascii	"CyIMO_SetTrimValue\000"
 8129      4F5F5365 
 8129      74547269 
 8129      6D56616C 
 8129      756500
 8130              	.LASF136:
 8131 004a 43795854 		.ascii	"CyXTAL_ReadStatus\000"
 8131      414C5F52 
 8131      65616453 
 8131      74617475 
 8131      7300
 8132              	.LASF126:
 8133 005c 4379496E 		.ascii	"CyIntGetPriority\000"
 8133      74476574 
 8133      5072696F 
 8133      72697479 
 8133      00
 8134              	.LASF96:
 8135 006d 43795764 		.ascii	"CyWdtClear\000"
 8135      74436C65 
 8135      617200
 8136              	.LASF166:
 8137 0078 47656E65 		.ascii	"Generated_Source\\PSoC5\\CyLib.c\000"
 8137      72617465 
 8137      645F536F 
ARM GAS  C:\Users\ingan\AppData\Local\Temp\ccwaQbAc.s 			page 200


 8137      75726365 
 8137      5C50536F 
 8138              	.LASF157:
 8139 0097 63796465 		.ascii	"cydelay_freq_mhz\000"
 8139      6C61795F 
 8139      66726571 
 8139      5F6D687A 
 8139      00
 8140              	.LASF87:
 8141 00a8 6D696C6C 		.ascii	"milliseconds\000"
 8141      69736563 
 8141      6F6E6473 
 8141      00
 8142              	.LASF62:
 8143 00b5 4379494C 		.ascii	"CyILO_Disable33K\000"
 8143      4F5F4469 
 8143      7361626C 
 8143      6533334B 
 8143      00
 8144              	.LASF30:
 8145 00c6 4379504C 		.ascii	"CyPLL_OUT_SetPQ\000"
 8145      4C5F4F55 
 8145      545F5365 
 8145      74505100 
 8146              	.LASF72:
 8147 00d6 706D5477 		.ascii	"pmTwCfg0Tmp\000"
 8147      43666730 
 8147      546D7000 
 8148              	.LASF161:
 8149 00e2 43794578 		.ascii	"CyExitCriticalSection\000"
 8149      69744372 
 8149      69746963 
 8149      616C5365 
 8149      6374696F 
 8150              	.LASF37:
 8151 00f8 4379494D 		.ascii	"CyIMO_DisableDoubler\000"
 8151      4F5F4469 
 8151      7361626C 
 8151      65446F75 
 8151      626C6572 
 8152              	.LASF0:
 8153 010d 756E7369 		.ascii	"unsigned int\000"
 8153      676E6564 
 8153      20696E74 
 8153      00
 8154              	.LASF44:
 8155 011a 6D617374 		.ascii	"masterClkDiv\000"
 8155      6572436C 
 8155      6B446976 
 8155      00
 8156              	.LASF76:
 8157 0127 43795854 		.ascii	"CyXTAL_DisableErrStatus\000"
 8157      414C5F44 
 8157      69736162 
 8157      6C654572 
 8157      72537461 
 8158              	.LASF98:
ARM GAS  C:\Users\ingan\AppData\Local\Temp\ccwaQbAc.s 			page 201


 8159 013f 6D61736B 		.ascii	"mask\000"
 8159      00
 8160              	.LASF95:
 8161 0144 6C704D6F 		.ascii	"lpMode\000"
 8161      646500
 8162              	.LASF83:
 8163 014b 43794861 		.ascii	"CyHalt\000"
 8163      6C7400
 8164              	.LASF46:
 8165 0152 696E7465 		.ascii	"interruptState\000"
 8165      72727570 
 8165      74537461 
 8165      746500
 8166              	.LASF18:
 8167 0161 72656738 		.ascii	"reg8\000"
 8167      00
 8168              	.LASF94:
 8169 0166 7469636B 		.ascii	"ticks\000"
 8169      7300
 8170              	.LASF79:
 8171 016c 43795854 		.ascii	"CyXTAL_SetStartup\000"
 8171      414C5F53 
 8171      65745374 
 8171      61727475 
 8171      7000
 8172              	.LASF49:
 8173 017e 4379494C 		.ascii	"CyILO_Stop1K\000"
 8173      4F5F5374 
 8173      6F70314B 
 8173      00
 8174              	.LASF162:
 8175 018b 4379506D 		.ascii	"CyPmFtwSetInterval\000"
 8175      46747753 
 8175      6574496E 
 8175      74657276 
 8175      616C00
 8176              	.LASF66:
 8177 019e 6D6F6465 		.ascii	"mode\000"
 8177      00
 8178              	.LASF159:
 8179 01a3 43795379 		.ascii	"CySysTickInitVar\000"
 8179      73546963 
 8179      6B496E69 
 8179      74566172 
 8179      00
 8180              	.LASF36:
 8181 01b4 4379494D 		.ascii	"CyIMO_EnableDoubler\000"
 8181      4F5F456E 
 8181      61626C65 
 8181      446F7562 
 8181      6C657200 
 8182              	.LASF27:
 8183 01c8 70446976 		.ascii	"pDiv\000"
 8183      00
 8184              	.LASF147:
 8185 01cd 43795379 		.ascii	"CySysTickSetCallback\000"
 8185      73546963 
ARM GAS  C:\Users\ingan\AppData\Local\Temp\ccwaQbAc.s 			page 202


 8185      6B536574 
 8185      43616C6C 
 8185      6261636B 
 8186              	.LASF106:
 8187 01e2 43795664 		.ascii	"CyVdLvDigitDisable\000"
 8187      4C764469 
 8187      67697444 
 8187      69736162 
 8187      6C6500
 8188              	.LASF74:
 8189 01f5 43795854 		.ascii	"CyXTAL_Stop\000"
 8189      414C5F53 
 8189      746F7000 
 8190              	.LASF114:
 8191 0201 4379456E 		.ascii	"CyEnableInts\000"
 8191      61626C65 
 8191      496E7473 
 8191      00
 8192              	.LASF78:
 8193 020e 43795854 		.ascii	"CyXTAL_DisableFaultRecovery\000"
 8193      414C5F44 
 8193      69736162 
 8193      6C654661 
 8193      756C7452 
 8194              	.LASF104:
 8195 022a 696E7452 		.ascii	"intRegTmp\000"
 8195      6567546D 
 8195      7000
 8196              	.LASF38:
 8197 0234 4379494D 		.ascii	"CyIMO_SetFreq\000"
 8197      4F5F5365 
 8197      74467265 
 8197      7100
 8198              	.LASF80:
 8199 0242 73657474 		.ascii	"setting\000"
 8199      696E6700 
 8200              	.LASF73:
 8201 024a 706D5477 		.ascii	"pmTwCfg2Tmp\000"
 8201      43666732 
 8201      546D7000 
 8202              	.LASF15:
 8203 0256 666C6F61 		.ascii	"float\000"
 8203      7400
 8204              	.LASF133:
 8205 025c 43794D61 		.ascii	"CyMasterClk_SetDivider\000"
 8205      73746572 
 8205      436C6B5F 
 8205      53657444 
 8205      69766964 
 8206              	.LASF33:
 8207 0273 4379504C 		.ascii	"CyPLL_OUT_Stop\000"
 8207      4C5F4F55 
 8207      545F5374 
 8207      6F7000
 8208              	.LASF137:
 8209 0282 43795379 		.ascii	"CySysTickGetReload\000"
 8209      73546963 
ARM GAS  C:\Users\ingan\AppData\Local\Temp\ccwaQbAc.s 			page 203


 8209      6B476574 
 8209      52656C6F 
 8209      616400
 8210              	.LASF41:
 8211 0295 6E657874 		.ascii	"nextFreq\000"
 8211      46726571 
 8211      00
 8212              	.LASF156:
 8213 029e 63796465 		.ascii	"cydelay_freq_khz\000"
 8213      6C61795F 
 8213      66726571 
 8213      5F6B687A 
 8213      00
 8214              	.LASF88:
 8215 02af 43794465 		.ascii	"CyDelayUs\000"
 8215      6C617955 
 8215      7300
 8216              	.LASF9:
 8217 02b9 6C6F6E67 		.ascii	"long long unsigned int\000"
 8217      206C6F6E 
 8217      6720756E 
 8217      7369676E 
 8217      65642069 
 8218              	.LASF84:
 8219 02d0 72656173 		.ascii	"reason\000"
 8219      6F6E00
 8220              	.LASF91:
 8221 02d7 43795854 		.ascii	"CyXTAL_32KHZ_Start\000"
 8221      414C5F33 
 8221      324B485A 
 8221      5F537461 
 8221      727400
 8222              	.LASF69:
 8223 02ea 43795854 		.ascii	"CyXTAL_Start\000"
 8223      414C5F53 
 8223      74617274 
 8223      00
 8224              	.LASF90:
 8225 02f7 43795854 		.ascii	"CyXTAL_32KHZ_SetPowerMode\000"
 8225      414C5F33 
 8225      324B485A 
 8225      5F536574 
 8225      506F7765 
 8226              	.LASF130:
 8227 0311 43795379 		.ascii	"CySysTickEnableInterrupt\000"
 8227      73546963 
 8227      6B456E61 
 8227      626C6549 
 8227      6E746572 
 8228              	.LASF24:
 8229 032a 43794275 		.ascii	"CyBusClk_Internal_SetDivider\000"
 8229      73436C6B 
 8229      5F496E74 
 8229      65726E61 
 8229      6C5F5365 
 8230              	.LASF129:
 8231 0347 43795379 		.ascii	"CySysTickStop\000"
ARM GAS  C:\Users\ingan\AppData\Local\Temp\ccwaQbAc.s 			page 204


 8231      73546963 
 8231      6B53746F 
 8231      7000
 8232              	.LASF127:
 8233 0355 4379496E 		.ascii	"CyIntGetState\000"
 8233      74476574 
 8233      53746174 
 8233      6500
 8234              	.LASF34:
 8235 0363 4379494D 		.ascii	"CyIMO_Stop\000"
 8235      4F5F5374 
 8235      6F7000
 8236              	.LASF150:
 8237 036e 43795379 		.ascii	"CySysTickGetCallback\000"
 8237      73546963 
 8237      6B476574 
 8237      43616C6C 
 8237      6261636B 
 8238              	.LASF105:
 8239 0383 43795664 		.ascii	"CyVdLvAnalogEnable\000"
 8239      4C76416E 
 8239      616C6F67 
 8239      456E6162 
 8239      6C6500
 8240              	.LASF119:
 8241 0396 6F6C6449 		.ascii	"oldIsr\000"
 8241      737200
 8242              	.LASF45:
 8243 039d 62757343 		.ascii	"busClkDiv\000"
 8243      6C6B4469 
 8243      7600
 8244              	.LASF40:
 8245 03a7 63757272 		.ascii	"currentFreq\000"
 8245      656E7446 
 8245      72657100 
 8246              	.LASF111:
 8247 03b3 7664466C 		.ascii	"vdFlagsState\000"
 8247      61677353 
 8247      74617465 
 8247      00
 8248              	.LASF48:
 8249 03c0 4379494C 		.ascii	"CyILO_Start1K\000"
 8249      4F5F5374 
 8249      61727431 
 8249      4B00
 8250              	.LASF25:
 8251 03ce 66726571 		.ascii	"freq\000"
 8251      00
 8252              	.LASF168:
 8253 03d3 43795553 		.ascii	"CyUSB_PowerOnCheck\000"
 8253      425F506F 
 8253      7765724F 
 8253      6E436865 
 8253      636B00
 8254              	.LASF99:
 8255 03e6 696E7465 		.ascii	"interruptStatus\000"
 8255      72727570 
ARM GAS  C:\Users\ingan\AppData\Local\Temp\ccwaQbAc.s 			page 205


 8255      74537461 
 8255      74757300 
 8256              	.LASF158:
 8257 03f6 63796465 		.ascii	"cydelay_32k_ms\000"
 8257      6C61795F 
 8257      33326B5F 
 8257      6D7300
 8258              	.LASF71:
 8259 0405 636F756E 		.ascii	"count\000"
 8259      7400
 8260              	.LASF22:
 8261 040b 63795379 		.ascii	"cySysTickCallback\000"
 8261      73546963 
 8261      6B43616C 
 8261      6C626163 
 8261      6B00
 8262              	.LASF11:
 8263 041d 63686172 		.ascii	"char\000"
 8263      00
 8264              	.LASF144:
 8265 0422 43795379 		.ascii	"CySysTickGetCountFlag\000"
 8265      73546963 
 8265      6B476574 
 8265      436F756E 
 8265      74466C61 
 8266              	.LASF164:
 8267 0438 43794465 		.ascii	"CyDelayCycles\000"
 8267      6C617943 
 8267      79636C65 
 8267      7300
 8268              	.LASF64:
 8269 0446 4379504C 		.ascii	"CyPLL_OUT_Start\000"
 8269      4C5F4F55 
 8269      545F5374 
 8269      61727400 
 8270              	.LASF163:
 8271 0456 4379506D 		.ascii	"CyPmReadStatus\000"
 8271      52656164 
 8271      53746174 
 8271      757300
 8272              	.LASF113:
 8273 0465 696E7453 		.ascii	"intState\000"
 8273      74617465 
 8273      00
 8274              	.LASF13:
 8275 046e 75696E74 		.ascii	"uint16\000"
 8275      313600
 8276              	.LASF146:
 8277 0475 706F7765 		.ascii	"poweredOn\000"
 8277      7265644F 
 8277      6E00
 8278              	.LASF122:
 8279 047f 4379496E 		.ascii	"CyIntSetVector\000"
 8279      74536574 
 8279      56656374 
 8279      6F7200
 8280              	.LASF53:
ARM GAS  C:\Users\ingan\AppData\Local\Temp\ccwaQbAc.s 			page 206


 8281 048e 73746174 		.ascii	"status\000"
 8281      757300
 8282              	.LASF101:
 8283 0495 43795664 		.ascii	"CyVdLvDigitEnable\000"
 8283      4C764469 
 8283      67697445 
 8283      6E61626C 
 8283      6500
 8284              	.LASF155:
 8285 04a7 63796465 		.ascii	"cydelay_freq_hz\000"
 8285      6C61795F 
 8285      66726571 
 8285      5F687A00 
 8286              	.LASF108:
 8287 04b7 43795664 		.ascii	"CyVdHvAnalogEnable\000"
 8287      4876416E 
 8287      616C6F67 
 8287      456E6162 
 8287      6C6500
 8288              	.LASF63:
 8289 04ca 4379494C 		.ascii	"CyILO_SetSource\000"
 8289      4F5F5365 
 8289      74536F75 
 8289      72636500 
 8290              	.LASF1:
 8291 04da 6C6F6E67 		.ascii	"long long int\000"
 8291      206C6F6E 
 8291      6720696E 
 8291      7400
 8292              	.LASF19:
 8293 04e8 72656731 		.ascii	"reg16\000"
 8293      3600
 8294              	.LASF131:
 8295 04ee 43795379 		.ascii	"CySysTickEnable\000"
 8295      73546963 
 8295      6B456E61 
 8295      626C6500 
 8296              	.LASF82:
 8297 04fe 43795854 		.ascii	"CyXTAL_SetWdVoltage\000"
 8297      414C5F53 
 8297      65745764 
 8297      566F6C74 
 8297      61676500 
 8298              	.LASF57:
 8299 0512 4379494D 		.ascii	"CyIMO_Start\000"
 8299      4F5F5374 
 8299      61727400 
 8300              	.LASF65:
 8301 051e 4379494C 		.ascii	"CyILO_SetPowerMode\000"
 8301      4F5F5365 
 8301      74506F77 
 8301      65724D6F 
 8301      646500
 8302              	.LASF121:
 8303 0531 4379496E 		.ascii	"CyIntGetSysVector\000"
 8303      74476574 
 8303      53797356 
ARM GAS  C:\Users\ingan\AppData\Local\Temp\ccwaQbAc.s 			page 207


 8303      6563746F 
 8303      7200
 8304              	.LASF153:
 8305 0543 43795379 		.ascii	"CySysTickCallbacks\000"
 8305      73546963 
 8305      6B43616C 
 8305      6C626163 
 8305      6B7300
 8306              	.LASF55:
 8307 0556 706D5477 		.ascii	"pmTwCfg0State\000"
 8307      43666730 
 8307      53746174 
 8307      6500
 8308              	.LASF21:
 8309 0564 63796973 		.ascii	"cyisraddress\000"
 8309      72616464 
 8309      72657373 
 8309      00
 8310              	.LASF75:
 8311 0571 43795854 		.ascii	"CyXTAL_EnableErrStatus\000"
 8311      414C5F45 
 8311      6E61626C 
 8311      65457272 
 8311      53746174 
 8312              	.LASF14:
 8313 0588 75696E74 		.ascii	"uint32\000"
 8313      333200
 8314              	.LASF138:
 8315 058f 43795379 		.ascii	"CySysTickGetValue\000"
 8315      73546963 
 8315      6B476574 
 8315      56616C75 
 8315      6500
 8316              	.LASF142:
 8317 05a1 43795379 		.ascii	"CySysTickStart\000"
 8317      73546963 
 8317      6B537461 
 8317      727400
 8318              	.LASF145:
 8319 05b0 43795379 		.ascii	"CySysTickServiceCallbacks\000"
 8319      73546963 
 8319      6B536572 
 8319      76696365 
 8319      43616C6C 
 8320              	.LASF169:
 8321 05ca 43795854 		.ascii	"CyXTAL_32KHZ_ReadStatus\000"
 8321      414C5F33 
 8321      324B485A 
 8321      5F526561 
 8321      64537461 
 8322              	.LASF139:
 8323 05e2 43795379 		.ascii	"CySysTickSetClockSource\000"
 8323      73546963 
 8323      6B536574 
 8323      436C6F63 
 8323      6B536F75 
 8324              	.LASF93:
ARM GAS  C:\Users\ingan\AppData\Local\Temp\ccwaQbAc.s 			page 208


 8325 05fa 43795764 		.ascii	"CyWdtStart\000"
 8325      74537461 
 8325      727400
 8326              	.LASF52:
 8327 0605 77616974 		.ascii	"wait\000"
 8327      00
 8328              	.LASF68:
 8329 060a 43795854 		.ascii	"CyXTAL_32KHZ_Stop\000"
 8329      414C5F33 
 8329      324B485A 
 8329      5F53746F 
 8329      7000
 8330              	.LASF42:
 8331 061c 43794D61 		.ascii	"CyMasterClk_SetSource\000"
 8331      73746572 
 8331      436C6B5F 
 8331      53657453 
 8331      6F757263 
 8332              	.LASF50:
 8333 0632 4379494C 		.ascii	"CyILO_Start100K\000"
 8333      4F5F5374 
 8333      61727431 
 8333      30304B00 
 8334              	.LASF2:
 8335 0642 6C6F6E67 		.ascii	"long double\000"
 8335      20646F75 
 8335      626C6500 
 8336              	.LASF115:
 8337 064e 4379466C 		.ascii	"CyFlushCache\000"
 8337      75736843 
 8337      61636865 
 8337      00
 8338              	.LASF112:
 8339 065b 43794469 		.ascii	"CyDisableInts\000"
 8339      7361626C 
 8339      65496E74 
 8339      7300
 8340              	.LASF20:
 8341 0669 72656733 		.ascii	"reg32\000"
 8341      3200
 8342              	.LASF140:
 8343 066f 636C6F63 		.ascii	"clockSource\000"
 8343      6B536F75 
 8343      72636500 
 8344              	.LASF39:
 8345 067b 75736250 		.ascii	"usbPowerOn\000"
 8345      6F776572 
 8345      4F6E00
 8346              	.LASF31:
 8347 0686 4379504C 		.ascii	"CyPLL_OUT_SetSource\000"
 8347      4C5F4F55 
 8347      545F5365 
 8347      74536F75 
 8347      72636500 
 8348              	.LASF134:
 8349 069a 43795379 		.ascii	"CySysTickSetReload\000"
 8349      73546963 
ARM GAS  C:\Users\ingan\AppData\Local\Temp\ccwaQbAc.s 			page 209


 8349      6B536574 
 8349      52656C6F 
 8349      616400
 8350              	.LASF5:
 8351 06ad 73686F72 		.ascii	"short int\000"
 8351      7420696E 
 8351      7400
 8352              	.LASF26:
 8353 06b7 64697669 		.ascii	"divider\000"
 8353      64657200 
 8354              	.LASF7:
 8355 06bf 6C6F6E67 		.ascii	"long int\000"
 8355      20696E74 
 8355      00
 8356              	.LASF92:
 8357 06c8 43794465 		.ascii	"CyDelayFreq\000"
 8357      6C617946 
 8357      72657100 
 8358              	.LASF128:
 8359 06d4 73746174 		.ascii	"stateReg\000"
 8359      65526567 
 8359      00
 8360              	.LASF116:
 8361 06dd 4379496E 		.ascii	"CyIntSetSysVector\000"
 8361      74536574 
 8361      53797356 
 8361      6563746F 
 8361      7200
 8362              	.LASF125:
 8363 06ef 7072696F 		.ascii	"priority\000"
 8363      72697479 
 8363      00
 8364              	.LASF154:
 8365 06f8 43795265 		.ascii	"CyResetStatus\000"
 8365      73657453 
 8365      74617475 
 8365      7300
 8366              	.LASF132:
 8367 0706 43795379 		.ascii	"CySysTickDisableInterrupt\000"
 8367      73546963 
 8367      6B446973 
 8367      61626C65 
 8367      496E7465 
 8368              	.LASF56:
 8369 0720 706D5477 		.ascii	"pmTwCfg2State\000"
 8369      43666732 
 8369      53746174 
 8369      6500
 8370              	.LASF107:
 8371 072e 43795664 		.ascii	"CyVdLvAnalogDisable\000"
 8371      4C76416E 
 8371      616C6F67 
 8371      44697361 
 8371      626C6500 
 8372              	.LASF28:
 8373 0742 71446976 		.ascii	"qDiv\000"
 8373      00
ARM GAS  C:\Users\ingan\AppData\Local\Temp\ccwaQbAc.s 			page 210


 8374              	.LASF102:
 8375 0747 72657365 		.ascii	"reset\000"
 8375      7400
 8376              	.LASF32:
 8377 074d 736F7572 		.ascii	"source\000"
 8377      636500
 8378              	.LASF117:
 8379 0754 6E756D62 		.ascii	"number\000"
 8379      657200
 8380              	.LASF141:
 8381 075b 43795379 		.ascii	"CySysTickInit\000"
 8381      73546963 
 8381      6B496E69 
 8381      7400
 8382              	.LASF10:
 8383 0769 73697A65 		.ascii	"sizetype\000"
 8383      74797065 
 8383      00
 8384              	.LASF8:
 8385 0772 6C6F6E67 		.ascii	"long unsigned int\000"
 8385      20756E73 
 8385      69676E65 
 8385      6420696E 
 8385      7400
 8386              	.LASF149:
 8387 0784 72657456 		.ascii	"retVal\000"
 8387      616C00
 8388              	.LASF118:
 8389 078b 61646472 		.ascii	"address\000"
 8389      65737300 
 8390              	.LASF97:
 8391 0793 43795664 		.ascii	"CyVdStickyStatus\000"
 8391      53746963 
 8391      6B795374 
 8391      61747573 
 8391      00
 8392              	.LASF60:
 8393 07a4 696C6F31 		.ascii	"ilo100KhzEnable\000"
 8393      30304B68 
 8393      7A456E61 
 8393      626C6500 
 8394              	.LASF143:
 8395 07b4 43795379 		.ascii	"CySysTickGetClockSource\000"
 8395      73546963 
 8395      6B476574 
 8395      436C6F63 
 8395      6B536F75 
 8396              	.LASF85:
 8397 07cc 4379536F 		.ascii	"CySoftwareReset\000"
 8397      66747761 
 8397      72655265 
 8397      73657400 
 8398              	.LASF17:
 8399 07dc 63797374 		.ascii	"cystatus\000"
 8399      61747573 
 8399      00
 8400              	.LASF43:
ARM GAS  C:\Users\ingan\AppData\Local\Temp\ccwaQbAc.s 			page 211


 8401 07e5 43794275 		.ascii	"CyBusClk_SetDivider\000"
 8401      73436C6B 
 8401      5F536574 
 8401      44697669 
 8401      64657200 
 8402              	.LASF4:
 8403 07f9 756E7369 		.ascii	"unsigned char\000"
 8403      676E6564 
 8403      20636861 
 8403      7200
 8404              	.LASF120:
 8405 0807 72616D56 		.ascii	"ramVectorTable\000"
 8405      6563746F 
 8405      72546162 
 8405      6C6500
 8406              	.LASF151:
 8407 0816 43794765 		.ascii	"CyGetUniqueId\000"
 8407      74556E69 
 8407      71756549 
 8407      6400
 8408              	.LASF148:
 8409 0824 66756E63 		.ascii	"function\000"
 8409      74696F6E 
 8409      00
 8410              	.LASF70:
 8411 082d 74696D65 		.ascii	"timeout\000"
 8411      6F757400 
 8412              	.LASF89:
 8413 0835 6D696372 		.ascii	"microseconds\000"
 8413      6F736563 
 8413      6F6E6473 
 8413      00
 8414              	.LASF165:
 8415 0842 474E5520 		.ascii	"GNU C11 5.4.1 20160609 (release) [ARM/embedded-5-br"
 8415      43313120 
 8415      352E342E 
 8415      31203230 
 8415      31363036 
 8416 0875 616E6368 		.ascii	"anch revision 237715] -mcpu=cortex-m3 -mthumb -g -O"
 8416      20726576 
 8416      6973696F 
 8416      6E203233 
 8416      37373135 
 8417 08a8 31202D66 		.ascii	"1 -ffunction-sections -ffat-lto-objects\000"
 8417      66756E63 
 8417      74696F6E 
 8417      2D736563 
 8417      74696F6E 
 8418              	.LASF47:
 8419 08d0 43795573 		.ascii	"CyUsbClk_SetSource\000"
 8419      62436C6B 
 8419      5F536574 
 8419      536F7572 
 8419      636500
 8420              	.LASF67:
 8421 08e3 73746174 		.ascii	"state\000"
 8421      6500
ARM GAS  C:\Users\ingan\AppData\Local\Temp\ccwaQbAc.s 			page 212


 8422              	.LASF110:
 8423 08e9 43795664 		.ascii	"CyVdRealTimeStatus\000"
 8423      5265616C 
 8423      54696D65 
 8423      53746174 
 8423      757300
 8424              	.LASF100:
 8425 08fc 746D7053 		.ascii	"tmpStatus\000"
 8425      74617475 
 8425      7300
 8426              	.LASF51:
 8427 0906 4379494C 		.ascii	"CyILO_Stop100K\000"
 8427      4F5F5374 
 8427      6F703130 
 8427      304B00
 8428              	.LASF77:
 8429 0915 43795854 		.ascii	"CyXTAL_EnableFaultRecovery\000"
 8429      414C5F45 
 8429      6E61626C 
 8429      65466175 
 8429      6C745265 
 8430              	.LASF81:
 8431 0930 43795854 		.ascii	"CyXTAL_SetFbVoltage\000"
 8431      414C5F53 
 8431      65744662 
 8431      566F6C74 
 8431      61676500 
 8432              	.LASF103:
 8433 0944 74687265 		.ascii	"threshold\000"
 8433      73686F6C 
 8433      6400
 8434              	.LASF160:
 8435 094e 4379456E 		.ascii	"CyEnterCriticalSection\000"
 8435      74657243 
 8435      72697469 
 8435      63616C53 
 8435      65637469 
 8436              	.LASF3:
 8437 0965 7369676E 		.ascii	"signed char\000"
 8437      65642063 
 8437      68617200 
 8438              	.LASF6:
 8439 0971 73686F72 		.ascii	"short unsigned int\000"
 8439      7420756E 
 8439      7369676E 
 8439      65642069 
 8439      6E7400
 8440              	.LASF59:
 8441 0984 706D4674 		.ascii	"pmFtwCfg0Reg\000"
 8441      77436667 
 8441      30526567 
 8441      00
 8442              	.LASF167:
 8443 0991 433A5C55 		.ascii	"C:\\Users\\ingan\\Documents\\PSoC Creator\\MegaDriv"
 8443      73657273 
 8443      5C696E67 
 8443      616E5C44 
ARM GAS  C:\Users\ingan\AppData\Local\Temp\ccwaQbAc.s 			page 213


 8443      6F63756D 
 8444 09bf 655F706C 		.ascii	"e_player\\VGMPlayer_v0.7.cydsn\000"
 8444      61796572 
 8444      5C56474D 
 8444      506C6179 
 8444      65725F76 
 8445              	.LASF35:
 8446 09dd 4379494D 		.ascii	"CyIMO_SetSource\000"
 8446      4F5F5365 
 8446      74536F75 
 8446      72636500 
 8447              	.LASF152:
 8448 09ed 756E6971 		.ascii	"uniqueId\000"
 8448      75654964 
 8448      00
 8449              	.LASF29:
 8450 09f6 63757272 		.ascii	"current\000"
 8450      656E7400 
 8451              	.LASF61:
 8452 09fe 4379494C 		.ascii	"CyILO_Enable33K\000"
 8452      4F5F456E 
 8452      61626C65 
 8452      33334B00 
 8453              	.LASF12:
 8454 0a0e 75696E74 		.ascii	"uint8\000"
 8454      3800
 8455              	.LASF16:
 8456 0a14 646F7562 		.ascii	"double\000"
 8456      6C6500
 8457              	.LASF54:
 8458 0a1b 696C6F45 		.ascii	"iloEnableState\000"
 8458      6E61626C 
 8458      65537461 
 8458      746500
 8459              	.LASF135:
 8460 0a2a 76616C75 		.ascii	"value\000"
 8460      6500
 8461              	.LASF109:
 8462 0a30 43795664 		.ascii	"CyVdHvAnalogDisable\000"
 8462      4876416E 
 8462      616C6F67 
 8462      44697361 
 8462      626C6500 
 8463              	.LASF58:
 8464 0a44 706D4674 		.ascii	"pmFtwCfg2Reg\000"
 8464      77436667 
 8464      32526567 
 8464      00
 8465              		.ident	"GCC: (GNU Tools for ARM Embedded Processors) 5.4.1 20160609 (release) [ARM/embedded-5-bran
