ARM GAS  C:\Users\ingan\AppData\Local\Temp\ccwaQbAc.s 			page 1


   1              		.syntax unified
   2              		.cpu cortex-m3
   3              		.fpu softvfp
   4              		.eabi_attribute 20, 1
   5              		.eabi_attribute 21, 1
   6              		.eabi_attribute 23, 3
   7              		.eabi_attribute 24, 1
   8              		.eabi_attribute 25, 1
   9              		.eabi_attribute 26, 1
  10              		.eabi_attribute 30, 1
  11              		.eabi_attribute 34, 1
  12              		.eabi_attribute 18, 4
  13              		.thumb
  14              		.syntax unified
  15              		.file	"CyLib.c"
  16              		.text
  17              	.Ltext0:
  18              		.cfi_sections	.debug_frame
  19              		.section	.text.CyIMO_SetTrimValue,"ax",%progbits
  20              		.align	2
  21              		.thumb
  22              		.thumb_func
  23              		.type	CyIMO_SetTrimValue, %function
  24              	CyIMO_SetTrimValue:
  25              	.LFB7:
  26              		.file 1 "Generated_Source\\PSoC5\\CyLib.c"
   1:Generated_Source\PSoC5/CyLib.c **** /***************************************************************************//**
   2:Generated_Source\PSoC5/CyLib.c **** * \file CyLib.c
   3:Generated_Source\PSoC5/CyLib.c **** * \version 5.70
   4:Generated_Source\PSoC5/CyLib.c **** *
   5:Generated_Source\PSoC5/CyLib.c **** * \brief Provides a system API for the clocking, interrupts and watchdog timer.
   6:Generated_Source\PSoC5/CyLib.c **** *
   7:Generated_Source\PSoC5/CyLib.c **** * \note Documentation of the API's in this file is located in the System
   8:Generated_Source\PSoC5/CyLib.c **** * Reference Guide provided with PSoC Creator.
   9:Generated_Source\PSoC5/CyLib.c **** *
  10:Generated_Source\PSoC5/CyLib.c **** ********************************************************************************
  11:Generated_Source\PSoC5/CyLib.c **** * \copyright
  12:Generated_Source\PSoC5/CyLib.c **** * Copyright 2008-2018, Cypress Semiconductor Corporation.  All rights reserved.
  13:Generated_Source\PSoC5/CyLib.c **** * You may use this file only in accordance with the license, terms, conditions,
  14:Generated_Source\PSoC5/CyLib.c **** * disclaimers, and limitations in the end user license agreement accompanying
  15:Generated_Source\PSoC5/CyLib.c **** * the software package with which this file was provided.
  16:Generated_Source\PSoC5/CyLib.c **** *******************************************************************************/
  17:Generated_Source\PSoC5/CyLib.c **** 
  18:Generated_Source\PSoC5/CyLib.c **** #include "CyLib.h"
  19:Generated_Source\PSoC5/CyLib.c **** 
  20:Generated_Source\PSoC5/CyLib.c **** 
  21:Generated_Source\PSoC5/CyLib.c **** /*******************************************************************************
  22:Generated_Source\PSoC5/CyLib.c **** * The CyResetStatus variable is used to obtain value of RESET_SR0 register after
  23:Generated_Source\PSoC5/CyLib.c **** * a device reset. It is set from initialize_psoc() at the early initialization
  24:Generated_Source\PSoC5/CyLib.c **** * stage. In case of IAR EW IDE, initialize_psoc() is executed before the data
  25:Generated_Source\PSoC5/CyLib.c **** * sections are initialized. To avoid zeroing, CyResetStatus should be placed
  26:Generated_Source\PSoC5/CyLib.c **** * to the .noinit section.
  27:Generated_Source\PSoC5/CyLib.c **** *******************************************************************************/
  28:Generated_Source\PSoC5/CyLib.c **** CY_NOINIT uint8 CYXDATA CyResetStatus;
  29:Generated_Source\PSoC5/CyLib.c **** 
  30:Generated_Source\PSoC5/CyLib.c **** 
  31:Generated_Source\PSoC5/CyLib.c **** /* Variable Vdda */
ARM GAS  C:\Users\ingan\AppData\Local\Temp\ccwaQbAc.s 			page 2


  32:Generated_Source\PSoC5/CyLib.c **** #if(CYDEV_VARIABLE_VDDA == 1)
  33:Generated_Source\PSoC5/CyLib.c **** 
  34:Generated_Source\PSoC5/CyLib.c ****     uint8 CyScPumpEnabled = (uint8)(CYDEV_VDDA_MV < 2700);
  35:Generated_Source\PSoC5/CyLib.c **** 
  36:Generated_Source\PSoC5/CyLib.c **** #endif  /* (CYDEV_VARIABLE_VDDA == 1) */
  37:Generated_Source\PSoC5/CyLib.c **** 
  38:Generated_Source\PSoC5/CyLib.c **** 
  39:Generated_Source\PSoC5/CyLib.c **** /* Do not use these definitions directly in your application */
  40:Generated_Source\PSoC5/CyLib.c **** uint32 cydelay_freq_hz  = BCLK__BUS_CLK__HZ;
  41:Generated_Source\PSoC5/CyLib.c **** uint32 cydelay_freq_khz = (BCLK__BUS_CLK__HZ + 999u) / 1000u;
  42:Generated_Source\PSoC5/CyLib.c **** uint8  cydelay_freq_mhz = (uint8)((BCLK__BUS_CLK__HZ + 999999u) / 1000000u);
  43:Generated_Source\PSoC5/CyLib.c **** uint32 cydelay_32k_ms   = 32768u * ((BCLK__BUS_CLK__HZ + 999u) / 1000u);
  44:Generated_Source\PSoC5/CyLib.c **** 
  45:Generated_Source\PSoC5/CyLib.c **** 
  46:Generated_Source\PSoC5/CyLib.c **** /* Function Prototypes */
  47:Generated_Source\PSoC5/CyLib.c **** static uint8 CyUSB_PowerOnCheck(void)  ;
  48:Generated_Source\PSoC5/CyLib.c **** static void CyIMO_SetTrimValue(uint8 freq) ;
  49:Generated_Source\PSoC5/CyLib.c **** static void CyBusClk_Internal_SetDivider(uint16 divider);
  50:Generated_Source\PSoC5/CyLib.c **** 
  51:Generated_Source\PSoC5/CyLib.c **** #if(CY_PSOC5)
  52:Generated_Source\PSoC5/CyLib.c ****     static cySysTickCallback CySysTickCallbacks[CY_SYS_SYST_NUM_OF_CALLBACKS];
  53:Generated_Source\PSoC5/CyLib.c ****     static void CySysTickServiceCallbacks(void);
  54:Generated_Source\PSoC5/CyLib.c ****     uint32 CySysTickInitVar = 0u;
  55:Generated_Source\PSoC5/CyLib.c **** #endif  /* (CY_PSOC5) */
  56:Generated_Source\PSoC5/CyLib.c **** 
  57:Generated_Source\PSoC5/CyLib.c **** 
  58:Generated_Source\PSoC5/CyLib.c **** #if(CY_PSOC3)
  59:Generated_Source\PSoC5/CyLib.c ****     CY_ISR_PROTO(IntDefaultHandler);
  60:Generated_Source\PSoC5/CyLib.c **** #endif /* (CY_PSOC3) */
  61:Generated_Source\PSoC5/CyLib.c **** 
  62:Generated_Source\PSoC5/CyLib.c **** 
  63:Generated_Source\PSoC5/CyLib.c **** /*******************************************************************************
  64:Generated_Source\PSoC5/CyLib.c **** * Function Name: CyPLL_OUT_Start
  65:Generated_Source\PSoC5/CyLib.c **** ****************************************************************************//**
  66:Generated_Source\PSoC5/CyLib.c **** *
  67:Generated_Source\PSoC5/CyLib.c **** *   Enables the PLL.  Optionally waits for it to become stable.
  68:Generated_Source\PSoC5/CyLib.c **** *   Waits at least 250 us or until it is detected that the PLL is stable.
  69:Generated_Source\PSoC5/CyLib.c **** *
  70:Generated_Source\PSoC5/CyLib.c **** *   \param wait:
  71:Generated_Source\PSoC5/CyLib.c **** *    \param 0: Return immediately after configuration
  72:Generated_Source\PSoC5/CyLib.c **** *    \param 1: Wait for PLL lock or timeout.
  73:Generated_Source\PSoC5/CyLib.c **** *
  74:Generated_Source\PSoC5/CyLib.c **** * \return
  75:Generated_Source\PSoC5/CyLib.c **** *   Status
  76:Generated_Source\PSoC5/CyLib.c **** *    CYRET_SUCCESS - Completed successfully
  77:Generated_Source\PSoC5/CyLib.c **** *    CYRET_TIMEOUT - Timeout occurred without detecting a stable clock.
  78:Generated_Source\PSoC5/CyLib.c **** *     If the input source of the clock is jittery, then the lock indication
  79:Generated_Source\PSoC5/CyLib.c **** *     may not occur.  However, after the timeout has expired the generated PLL
  80:Generated_Source\PSoC5/CyLib.c **** *     clock can still be used.
  81:Generated_Source\PSoC5/CyLib.c **** *
  82:Generated_Source\PSoC5/CyLib.c **** * \sideeffect
  83:Generated_Source\PSoC5/CyLib.c **** *  If wait is enabled: This function uses the Fast Time Wheel to time the wait.
  84:Generated_Source\PSoC5/CyLib.c **** *  Any other use of the Fast Time Wheel will be stopped during the period of
  85:Generated_Source\PSoC5/CyLib.c **** *  this function and then restored. This function also uses the 100 KHz ILO.
  86:Generated_Source\PSoC5/CyLib.c **** *  If not enabled, this function will enable the 100 KHz ILO for the period of
  87:Generated_Source\PSoC5/CyLib.c **** *  this function.
  88:Generated_Source\PSoC5/CyLib.c **** *
ARM GAS  C:\Users\ingan\AppData\Local\Temp\ccwaQbAc.s 			page 3


  89:Generated_Source\PSoC5/CyLib.c **** *  No changes to the setup of the ILO, Fast Time Wheel, Central Time Wheel or
  90:Generated_Source\PSoC5/CyLib.c **** *  Once Per Second interrupt may be made by interrupt routines during the period
  91:Generated_Source\PSoC5/CyLib.c **** *  of this function execution. The current operation of the ILO, Central Time
  92:Generated_Source\PSoC5/CyLib.c **** *  Wheel and Once Per Second interrupt are maintained during the operation of
  93:Generated_Source\PSoC5/CyLib.c **** *  this function provided the reading of the Power Manager Interrupt Status
  94:Generated_Source\PSoC5/CyLib.c **** *  Register is only done using the CyPmReadStatus() function.
  95:Generated_Source\PSoC5/CyLib.c **** *
  96:Generated_Source\PSoC5/CyLib.c **** *******************************************************************************/
  97:Generated_Source\PSoC5/CyLib.c **** cystatus CyPLL_OUT_Start(uint8 wait) 
  98:Generated_Source\PSoC5/CyLib.c **** {
  99:Generated_Source\PSoC5/CyLib.c ****     cystatus status = CYRET_SUCCESS;
 100:Generated_Source\PSoC5/CyLib.c **** 
 101:Generated_Source\PSoC5/CyLib.c ****     uint8 iloEnableState;
 102:Generated_Source\PSoC5/CyLib.c ****     uint8 pmTwCfg0State;
 103:Generated_Source\PSoC5/CyLib.c ****     uint8 pmTwCfg2State;
 104:Generated_Source\PSoC5/CyLib.c **** 
 105:Generated_Source\PSoC5/CyLib.c **** 
 106:Generated_Source\PSoC5/CyLib.c ****     /* Enables PLL circuit  */
 107:Generated_Source\PSoC5/CyLib.c ****     CY_CLK_PLL_CFG0_REG |= CY_CLK_PLL_ENABLE;
 108:Generated_Source\PSoC5/CyLib.c **** 
 109:Generated_Source\PSoC5/CyLib.c ****     if(wait != 0u)
 110:Generated_Source\PSoC5/CyLib.c ****     {
 111:Generated_Source\PSoC5/CyLib.c ****         /* Save 100 KHz ILO, FTW interval, enable and interrupt enable */
 112:Generated_Source\PSoC5/CyLib.c ****         iloEnableState = CY_LIB_SLOWCLK_ILO_CR0_REG & CY_LIB_SLOWCLK_ILO_CR0_EN_100KHZ;
 113:Generated_Source\PSoC5/CyLib.c ****         pmTwCfg0State = CY_LIB_PM_TW_CFG0_REG;
 114:Generated_Source\PSoC5/CyLib.c ****         pmTwCfg2State = CY_LIB_PM_TW_CFG2_REG;
 115:Generated_Source\PSoC5/CyLib.c **** 
 116:Generated_Source\PSoC5/CyLib.c ****         CyPmFtwSetInterval(CY_CLK_PLL_FTW_INTERVAL);
 117:Generated_Source\PSoC5/CyLib.c **** 
 118:Generated_Source\PSoC5/CyLib.c ****         status = CYRET_TIMEOUT;
 119:Generated_Source\PSoC5/CyLib.c **** 
 120:Generated_Source\PSoC5/CyLib.c ****         while(0u == (CY_PM_FTW_INT & CyPmReadStatus(CY_PM_FTW_INT)))
 121:Generated_Source\PSoC5/CyLib.c ****         {
 122:Generated_Source\PSoC5/CyLib.c ****             /* Wait for interrupt status */
 123:Generated_Source\PSoC5/CyLib.c ****             if(0u != (CY_CLK_PLL_SR_REG & CY_CLK_PLL_LOCK_STATUS))
 124:Generated_Source\PSoC5/CyLib.c ****             {
 125:Generated_Source\PSoC5/CyLib.c ****                 if(0u != (CY_CLK_PLL_SR_REG & CY_CLK_PLL_LOCK_STATUS))
 126:Generated_Source\PSoC5/CyLib.c ****                 {
 127:Generated_Source\PSoC5/CyLib.c ****                     status = CYRET_SUCCESS;
 128:Generated_Source\PSoC5/CyLib.c ****                     break;
 129:Generated_Source\PSoC5/CyLib.c ****                 }
 130:Generated_Source\PSoC5/CyLib.c ****             }
 131:Generated_Source\PSoC5/CyLib.c ****         }
 132:Generated_Source\PSoC5/CyLib.c **** 
 133:Generated_Source\PSoC5/CyLib.c ****         /* Restore 100 KHz ILO, FTW interval, enable and interrupt enable */
 134:Generated_Source\PSoC5/CyLib.c ****         if(0u == iloEnableState)
 135:Generated_Source\PSoC5/CyLib.c ****         {
 136:Generated_Source\PSoC5/CyLib.c ****             CyILO_Stop100K();
 137:Generated_Source\PSoC5/CyLib.c ****         }
 138:Generated_Source\PSoC5/CyLib.c **** 
 139:Generated_Source\PSoC5/CyLib.c ****         CY_LIB_PM_TW_CFG0_REG = pmTwCfg0State;
 140:Generated_Source\PSoC5/CyLib.c ****         CY_LIB_PM_TW_CFG2_REG = pmTwCfg2State;
 141:Generated_Source\PSoC5/CyLib.c ****     }
 142:Generated_Source\PSoC5/CyLib.c **** 
 143:Generated_Source\PSoC5/CyLib.c ****     return(status);
 144:Generated_Source\PSoC5/CyLib.c **** }
 145:Generated_Source\PSoC5/CyLib.c **** 
ARM GAS  C:\Users\ingan\AppData\Local\Temp\ccwaQbAc.s 			page 4


 146:Generated_Source\PSoC5/CyLib.c **** 
 147:Generated_Source\PSoC5/CyLib.c **** /*******************************************************************************
 148:Generated_Source\PSoC5/CyLib.c **** * Function Name: CyPLL_OUT_Stop
 149:Generated_Source\PSoC5/CyLib.c **** ****************************************************************************//**
 150:Generated_Source\PSoC5/CyLib.c **** *
 151:Generated_Source\PSoC5/CyLib.c **** *  Disables the PLL.
 152:Generated_Source\PSoC5/CyLib.c **** *
 153:Generated_Source\PSoC5/CyLib.c **** *******************************************************************************/
 154:Generated_Source\PSoC5/CyLib.c **** void CyPLL_OUT_Stop(void) 
 155:Generated_Source\PSoC5/CyLib.c **** {
 156:Generated_Source\PSoC5/CyLib.c ****     CY_CLK_PLL_CFG0_REG &= ((uint8)(~CY_CLK_PLL_ENABLE));
 157:Generated_Source\PSoC5/CyLib.c **** }
 158:Generated_Source\PSoC5/CyLib.c **** 
 159:Generated_Source\PSoC5/CyLib.c **** 
 160:Generated_Source\PSoC5/CyLib.c **** /*******************************************************************************
 161:Generated_Source\PSoC5/CyLib.c **** * Function Name: CyPLL_OUT_SetPQ
 162:Generated_Source\PSoC5/CyLib.c **** ****************************************************************************//**
 163:Generated_Source\PSoC5/CyLib.c **** *
 164:Generated_Source\PSoC5/CyLib.c **** *  Sets the P and Q dividers and the charge pump current.
 165:Generated_Source\PSoC5/CyLib.c **** *  The Frequency Out will be P/Q * Frequency In.
 166:Generated_Source\PSoC5/CyLib.c **** *  The PLL must be disabled before calling this function.
 167:Generated_Source\PSoC5/CyLib.c **** *
 168:Generated_Source\PSoC5/CyLib.c **** *  \param uint8 pDiv:
 169:Generated_Source\PSoC5/CyLib.c **** *   Valid range [8 - 255].
 170:Generated_Source\PSoC5/CyLib.c **** *
 171:Generated_Source\PSoC5/CyLib.c **** *  \param uint8 qDiv:
 172:Generated_Source\PSoC5/CyLib.c **** *   Valid range [1 - 16]. Input Frequency / Q must be in range of 1 to 3 MHz.
 173:Generated_Source\PSoC5/CyLib.c **** 
 174:Generated_Source\PSoC5/CyLib.c **** *  \param uint8 current:
 175:Generated_Source\PSoC5/CyLib.c **** *   Valid range [1 - 7]. Charge pump current in uA. Refer to the device TRM and
 176:Generated_Source\PSoC5/CyLib.c **** *   datasheet for more information.
 177:Generated_Source\PSoC5/CyLib.c **** *
 178:Generated_Source\PSoC5/CyLib.c **** * \sideeffect
 179:Generated_Source\PSoC5/CyLib.c **** *  If this function execution results in the CPU clock frequency increasing,
 180:Generated_Source\PSoC5/CyLib.c **** *  then the number of clock cycles the cache will wait before it samples data
 181:Generated_Source\PSoC5/CyLib.c **** *  coming back from the Flash must be adjusted by calling
 182:Generated_Source\PSoC5/CyLib.c **** *  CyFlash_SetWaitCycles() with an appropriate parameter. It can be optionally
 183:Generated_Source\PSoC5/CyLib.c **** *  called if the CPU clock frequency is lowered in order to improve the CPU
 184:Generated_Source\PSoC5/CyLib.c **** *  performance. See CyFlash_SetWaitCycles() description for more information.
 185:Generated_Source\PSoC5/CyLib.c **** *
 186:Generated_Source\PSoC5/CyLib.c **** *******************************************************************************/
 187:Generated_Source\PSoC5/CyLib.c **** void CyPLL_OUT_SetPQ(uint8 pDiv, uint8 qDiv, uint8 current) 
 188:Generated_Source\PSoC5/CyLib.c **** {
 189:Generated_Source\PSoC5/CyLib.c ****     /* Halt CPU in debug mode if PLL is enabled */
 190:Generated_Source\PSoC5/CyLib.c ****     CYASSERT(0u == (CY_CLK_PLL_CFG0_REG & CY_CLK_PLL_ENABLE));
 191:Generated_Source\PSoC5/CyLib.c **** 
 192:Generated_Source\PSoC5/CyLib.c ****     if((pDiv    >= CY_CLK_PLL_MIN_P_VALUE  ) &&
 193:Generated_Source\PSoC5/CyLib.c ****        (qDiv    <= CY_CLK_PLL_MAX_Q_VALUE  ) && (qDiv    >= CY_CLK_PLL_MIN_Q_VALUE  ) &&
 194:Generated_Source\PSoC5/CyLib.c ****        (current >= CY_CLK_PLL_MIN_CUR_VALUE) && (current <= CY_CLK_PLL_MAX_CUR_VALUE))
 195:Generated_Source\PSoC5/CyLib.c ****     {
 196:Generated_Source\PSoC5/CyLib.c ****         /* Set new values */
 197:Generated_Source\PSoC5/CyLib.c ****         CY_CLK_PLL_P_REG = pDiv;
 198:Generated_Source\PSoC5/CyLib.c ****         CY_CLK_PLL_Q_REG = ((uint8)(qDiv - 1u));
 199:Generated_Source\PSoC5/CyLib.c ****         CY_CLK_PLL_CFG1_REG = (CY_CLK_PLL_CFG1_REG & CY_CLK_PLL_CURRENT_MASK) |
 200:Generated_Source\PSoC5/CyLib.c ****                                 ((uint8)(((uint8)(current - 1u)) << CY_CLK_PLL_CURRENT_POSITION));
 201:Generated_Source\PSoC5/CyLib.c ****     }
 202:Generated_Source\PSoC5/CyLib.c ****     else
ARM GAS  C:\Users\ingan\AppData\Local\Temp\ccwaQbAc.s 			page 5


 203:Generated_Source\PSoC5/CyLib.c ****     {
 204:Generated_Source\PSoC5/CyLib.c ****         /***********************************************************************
 205:Generated_Source\PSoC5/CyLib.c ****         * Halt CPU in debug mode if:
 206:Generated_Source\PSoC5/CyLib.c ****         * - P divider is less than required
 207:Generated_Source\PSoC5/CyLib.c ****         * - Q divider is out of range
 208:Generated_Source\PSoC5/CyLib.c ****         * - pump current is out of range
 209:Generated_Source\PSoC5/CyLib.c ****         ***********************************************************************/
 210:Generated_Source\PSoC5/CyLib.c ****         CYASSERT(0u != 0u);
 211:Generated_Source\PSoC5/CyLib.c ****     }
 212:Generated_Source\PSoC5/CyLib.c **** 
 213:Generated_Source\PSoC5/CyLib.c **** }
 214:Generated_Source\PSoC5/CyLib.c **** 
 215:Generated_Source\PSoC5/CyLib.c **** 
 216:Generated_Source\PSoC5/CyLib.c **** /*******************************************************************************
 217:Generated_Source\PSoC5/CyLib.c **** * Function Name: CyPLL_OUT_SetSource
 218:Generated_Source\PSoC5/CyLib.c **** ****************************************************************************//**
 219:Generated_Source\PSoC5/CyLib.c **** *
 220:Generated_Source\PSoC5/CyLib.c **** *  Sets the input clock source to the PLL. The PLL must be disabled before
 221:Generated_Source\PSoC5/CyLib.c **** *  calling this function.
 222:Generated_Source\PSoC5/CyLib.c **** *
 223:Generated_Source\PSoC5/CyLib.c **** *   \param source: One of the three available PLL clock sources
 224:Generated_Source\PSoC5/CyLib.c **** *    \param CY_PLL_SOURCE_IMO  :   IMO
 225:Generated_Source\PSoC5/CyLib.c **** *    \param CY_PLL_SOURCE_XTAL :   MHz Crystal
 226:Generated_Source\PSoC5/CyLib.c **** *    \param CY_PLL_SOURCE_DSI  :   DSI
 227:Generated_Source\PSoC5/CyLib.c **** *
 228:Generated_Source\PSoC5/CyLib.c **** * \sideeffect
 229:Generated_Source\PSoC5/CyLib.c **** *  If this function execution results in the CPU clock frequency increasing,
 230:Generated_Source\PSoC5/CyLib.c **** *  then the number of clock cycles the cache will wait before it samples data
 231:Generated_Source\PSoC5/CyLib.c **** *  coming back from the3 Flash must be adjusted by calling
 232:Generated_Source\PSoC5/CyLib.c **** *  CyFlash_SetWaitCycles() with an appropriate parameter. It can be optionally
 233:Generated_Source\PSoC5/CyLib.c **** *  called if the CPU clock frequency is lowered in order to improve the CPU
 234:Generated_Source\PSoC5/CyLib.c **** *  performance. See CyFlash_SetWaitCycles() description for more information.
 235:Generated_Source\PSoC5/CyLib.c **** *
 236:Generated_Source\PSoC5/CyLib.c **** *******************************************************************************/
 237:Generated_Source\PSoC5/CyLib.c **** void CyPLL_OUT_SetSource(uint8 source) 
 238:Generated_Source\PSoC5/CyLib.c **** {
 239:Generated_Source\PSoC5/CyLib.c ****     /* Halt CPU in debug mode if PLL is enabled */
 240:Generated_Source\PSoC5/CyLib.c ****     CYASSERT(0u == (CY_CLK_PLL_CFG0_REG & CY_CLK_PLL_ENABLE));
 241:Generated_Source\PSoC5/CyLib.c **** 
 242:Generated_Source\PSoC5/CyLib.c ****     switch(source)
 243:Generated_Source\PSoC5/CyLib.c ****     {
 244:Generated_Source\PSoC5/CyLib.c ****         case CY_PLL_SOURCE_IMO:
 245:Generated_Source\PSoC5/CyLib.c ****         case CY_PLL_SOURCE_XTAL:
 246:Generated_Source\PSoC5/CyLib.c ****         case CY_PLL_SOURCE_DSI:
 247:Generated_Source\PSoC5/CyLib.c ****             CY_LIB_CLKDIST_CR_REG = ((CY_LIB_CLKDIST_CR_REG & CY_LIB_CLKDIST_CR_PLL_SCR_MASK) | sou
 248:Generated_Source\PSoC5/CyLib.c ****         break;
 249:Generated_Source\PSoC5/CyLib.c **** 
 250:Generated_Source\PSoC5/CyLib.c ****         default:
 251:Generated_Source\PSoC5/CyLib.c ****             CYASSERT(0u != 0u);
 252:Generated_Source\PSoC5/CyLib.c ****         break;
 253:Generated_Source\PSoC5/CyLib.c ****     }
 254:Generated_Source\PSoC5/CyLib.c **** }
 255:Generated_Source\PSoC5/CyLib.c **** 
 256:Generated_Source\PSoC5/CyLib.c **** 
 257:Generated_Source\PSoC5/CyLib.c **** /*******************************************************************************
 258:Generated_Source\PSoC5/CyLib.c **** * Function Name: CyIMO_Start
 259:Generated_Source\PSoC5/CyLib.c **** ****************************************************************************//**
ARM GAS  C:\Users\ingan\AppData\Local\Temp\ccwaQbAc.s 			page 6


 260:Generated_Source\PSoC5/CyLib.c **** *
 261:Generated_Source\PSoC5/CyLib.c **** *  Enables the IMO. Optionally waits at least 6 us for it to settle.
 262:Generated_Source\PSoC5/CyLib.c **** *
 263:Generated_Source\PSoC5/CyLib.c **** *  \param uint8 wait:
 264:Generated_Source\PSoC5/CyLib.c **** *   \param 0: Return immediately after configuration
 265:Generated_Source\PSoC5/CyLib.c **** *   \param 1: Wait for at least 6 us for the IMO to settle.
 266:Generated_Source\PSoC5/CyLib.c **** *
 267:Generated_Source\PSoC5/CyLib.c **** * \sideeffect
 268:Generated_Source\PSoC5/CyLib.c **** *  If wait is enabled: This function uses the Fast Time Wheel to time the wait.
 269:Generated_Source\PSoC5/CyLib.c **** *  Any other use of the Fast Time Wheel will be stopped during the period of
 270:Generated_Source\PSoC5/CyLib.c **** *  this function and then restored. This function also uses the 100 KHz ILO.
 271:Generated_Source\PSoC5/CyLib.c **** *  If not enabled, this function will enable the 100 KHz ILO for the period of
 272:Generated_Source\PSoC5/CyLib.c **** *  this function.
 273:Generated_Source\PSoC5/CyLib.c **** *
 274:Generated_Source\PSoC5/CyLib.c **** *  No changes to the setup of the ILO, Fast Time Wheel, Central Time Wheel or
 275:Generated_Source\PSoC5/CyLib.c **** *  Once Per Second interrupt may be made by interrupt routines during the period
 276:Generated_Source\PSoC5/CyLib.c **** *  of this function execution. The current operation of the ILO, Central Time
 277:Generated_Source\PSoC5/CyLib.c **** *  Wheel and Once Per Second interrupt are maintained during the operation of
 278:Generated_Source\PSoC5/CyLib.c **** *  this function provided the reading of the Power Manager Interrupt Status
 279:Generated_Source\PSoC5/CyLib.c **** *  Register is only done using the CyPmReadStatus() function.
 280:Generated_Source\PSoC5/CyLib.c **** *
 281:Generated_Source\PSoC5/CyLib.c **** *******************************************************************************/
 282:Generated_Source\PSoC5/CyLib.c **** void CyIMO_Start(uint8 wait) 
 283:Generated_Source\PSoC5/CyLib.c **** {
 284:Generated_Source\PSoC5/CyLib.c ****     uint8 pmFtwCfg2Reg;
 285:Generated_Source\PSoC5/CyLib.c ****     uint8 pmFtwCfg0Reg;
 286:Generated_Source\PSoC5/CyLib.c ****     uint8 ilo100KhzEnable;
 287:Generated_Source\PSoC5/CyLib.c **** 
 288:Generated_Source\PSoC5/CyLib.c **** 
 289:Generated_Source\PSoC5/CyLib.c ****     CY_LIB_PM_ACT_CFG0_REG  |= CY_LIB_PM_ACT_CFG0_IMO_EN;
 290:Generated_Source\PSoC5/CyLib.c ****     CY_LIB_PM_STBY_CFG0_REG |= CY_LIB_PM_STBY_CFG0_IMO_EN;
 291:Generated_Source\PSoC5/CyLib.c **** 
 292:Generated_Source\PSoC5/CyLib.c ****     if(0u != wait)
 293:Generated_Source\PSoC5/CyLib.c ****     {
 294:Generated_Source\PSoC5/CyLib.c ****         /* Need to turn on 100KHz ILO if it happens to not already be running.*/
 295:Generated_Source\PSoC5/CyLib.c ****         ilo100KhzEnable = CY_LIB_SLOWCLK_ILO_CR0_REG & CY_LIB_SLOWCLK_ILO_CR0_EN_100KHZ;
 296:Generated_Source\PSoC5/CyLib.c ****         pmFtwCfg0Reg = CY_LIB_PM_TW_CFG0_REG;
 297:Generated_Source\PSoC5/CyLib.c ****         pmFtwCfg2Reg = CY_LIB_PM_TW_CFG2_REG;
 298:Generated_Source\PSoC5/CyLib.c **** 
 299:Generated_Source\PSoC5/CyLib.c ****         CyPmFtwSetInterval(CY_LIB_CLK_IMO_FTW_TIMEOUT);
 300:Generated_Source\PSoC5/CyLib.c **** 
 301:Generated_Source\PSoC5/CyLib.c ****         while (0u == (CY_PM_FTW_INT & CyPmReadStatus(CY_PM_FTW_INT)))
 302:Generated_Source\PSoC5/CyLib.c ****         {
 303:Generated_Source\PSoC5/CyLib.c ****             /* Wait for interrupt status */
 304:Generated_Source\PSoC5/CyLib.c ****         }
 305:Generated_Source\PSoC5/CyLib.c **** 
 306:Generated_Source\PSoC5/CyLib.c ****         if(0u == ilo100KhzEnable)
 307:Generated_Source\PSoC5/CyLib.c ****         {
 308:Generated_Source\PSoC5/CyLib.c ****             CyILO_Stop100K();
 309:Generated_Source\PSoC5/CyLib.c ****         }
 310:Generated_Source\PSoC5/CyLib.c **** 
 311:Generated_Source\PSoC5/CyLib.c ****         CY_LIB_PM_TW_CFG0_REG = pmFtwCfg0Reg;
 312:Generated_Source\PSoC5/CyLib.c ****         CY_LIB_PM_TW_CFG2_REG = pmFtwCfg2Reg;
 313:Generated_Source\PSoC5/CyLib.c ****     }
 314:Generated_Source\PSoC5/CyLib.c **** }
 315:Generated_Source\PSoC5/CyLib.c **** 
 316:Generated_Source\PSoC5/CyLib.c **** 
ARM GAS  C:\Users\ingan\AppData\Local\Temp\ccwaQbAc.s 			page 7


 317:Generated_Source\PSoC5/CyLib.c **** /*******************************************************************************
 318:Generated_Source\PSoC5/CyLib.c **** * Function Name: CyIMO_Stop
 319:Generated_Source\PSoC5/CyLib.c **** ****************************************************************************//**
 320:Generated_Source\PSoC5/CyLib.c **** *
 321:Generated_Source\PSoC5/CyLib.c **** *   Disables the IMO.
 322:Generated_Source\PSoC5/CyLib.c **** *
 323:Generated_Source\PSoC5/CyLib.c **** *******************************************************************************/
 324:Generated_Source\PSoC5/CyLib.c **** void CyIMO_Stop(void) 
 325:Generated_Source\PSoC5/CyLib.c **** {
 326:Generated_Source\PSoC5/CyLib.c ****     CY_LIB_PM_ACT_CFG0_REG  &= ((uint8) (~CY_LIB_PM_ACT_CFG0_IMO_EN));
 327:Generated_Source\PSoC5/CyLib.c ****     CY_LIB_PM_STBY_CFG0_REG &= ((uint8) (~CY_LIB_PM_STBY_CFG0_IMO_EN));
 328:Generated_Source\PSoC5/CyLib.c **** }
 329:Generated_Source\PSoC5/CyLib.c **** 
 330:Generated_Source\PSoC5/CyLib.c **** 
 331:Generated_Source\PSoC5/CyLib.c **** /*******************************************************************************
 332:Generated_Source\PSoC5/CyLib.c **** * Function Name: CyUSB_PowerOnCheck
 333:Generated_Source\PSoC5/CyLib.c **** ****************************************************************************//**
 334:Generated_Source\PSoC5/CyLib.c **** *
 335:Generated_Source\PSoC5/CyLib.c **** *  Returns the USB power status value. A private function to cy_boot.
 336:Generated_Source\PSoC5/CyLib.c **** *
 337:Generated_Source\PSoC5/CyLib.c **** * \return
 338:Generated_Source\PSoC5/CyLib.c **** *   uint8: one if the USB is enabled, 0 if not enabled.
 339:Generated_Source\PSoC5/CyLib.c **** *
 340:Generated_Source\PSoC5/CyLib.c **** *******************************************************************************/
 341:Generated_Source\PSoC5/CyLib.c **** static uint8 CyUSB_PowerOnCheck(void)  
 342:Generated_Source\PSoC5/CyLib.c **** {
 343:Generated_Source\PSoC5/CyLib.c ****     uint8 poweredOn = 0u;
 344:Generated_Source\PSoC5/CyLib.c **** 
 345:Generated_Source\PSoC5/CyLib.c ****     /* Check whether device is in Active or AltActive and if USB is powered on */
 346:Generated_Source\PSoC5/CyLib.c ****     if((((CY_PM_MODE_CSR_REG & CY_PM_MODE_CSR_MASK) == CY_PM_MODE_CSR_ACTIVE ) &&
 347:Generated_Source\PSoC5/CyLib.c ****        (0u != (CY_LIB_PM_ACT_CFG5_REG & CY_ACT_USB_ENABLED     )))  ||
 348:Generated_Source\PSoC5/CyLib.c ****        (((CY_PM_MODE_CSR_REG & CY_PM_MODE_CSR_MASK) == CY_PM_MODE_CSR_ALT_ACT) &&
 349:Generated_Source\PSoC5/CyLib.c ****        (0u != (CY_LIB_PM_STBY_CFG5_REG & CY_ALT_ACT_USB_ENABLED))))
 350:Generated_Source\PSoC5/CyLib.c ****     {
 351:Generated_Source\PSoC5/CyLib.c ****         poweredOn = 1u;
 352:Generated_Source\PSoC5/CyLib.c ****     }
 353:Generated_Source\PSoC5/CyLib.c **** 
 354:Generated_Source\PSoC5/CyLib.c ****     return (poweredOn);
 355:Generated_Source\PSoC5/CyLib.c **** }
 356:Generated_Source\PSoC5/CyLib.c **** 
 357:Generated_Source\PSoC5/CyLib.c **** 
 358:Generated_Source\PSoC5/CyLib.c **** /*******************************************************************************
 359:Generated_Source\PSoC5/CyLib.c **** * Function Name: CyIMO_SetTrimValue
 360:Generated_Source\PSoC5/CyLib.c **** ****************************************************************************//**
 361:Generated_Source\PSoC5/CyLib.c **** *
 362:Generated_Source\PSoC5/CyLib.c **** *  Sets the IMO factory trim values.
 363:Generated_Source\PSoC5/CyLib.c **** *
 364:Generated_Source\PSoC5/CyLib.c **** *  uint8 freq - frequency for which trims must be set
 365:Generated_Source\PSoC5/CyLib.c **** *
 366:Generated_Source\PSoC5/CyLib.c **** *******************************************************************************/
 367:Generated_Source\PSoC5/CyLib.c **** static void CyIMO_SetTrimValue(uint8 freq) 
 368:Generated_Source\PSoC5/CyLib.c **** {
  27              		.loc 1 368 0
  28              		.cfi_startproc
  29              		@ args = 0, pretend = 0, frame = 0
  30              		@ frame_needed = 0, uses_anonymous_args = 0
  31              		@ link register save eliminated.
ARM GAS  C:\Users\ingan\AppData\Local\Temp\ccwaQbAc.s 			page 8


  32              	.LVL0:
  33              	.LBB4:
  34              	.LBB5:
 346:Generated_Source\PSoC5/CyLib.c ****        (0u != (CY_LIB_PM_ACT_CFG5_REG & CY_ACT_USB_ENABLED     )))  ||
  35              		.loc 1 346 0
  36 0000 2F4B     		ldr	r3, .L16
  37 0002 1B78     		ldrb	r3, [r3]	@ zero_extendqisi2
  38 0004 13F0070F 		tst	r3, #7
  39 0008 04D1     		bne	.L2
 347:Generated_Source\PSoC5/CyLib.c ****        (((CY_PM_MODE_CSR_REG & CY_PM_MODE_CSR_MASK) == CY_PM_MODE_CSR_ALT_ACT) &&
  40              		.loc 1 347 0
  41 000a 2E4B     		ldr	r3, .L16+4
  42 000c 1B78     		ldrb	r3, [r3]	@ zero_extendqisi2
 346:Generated_Source\PSoC5/CyLib.c ****        (0u != (CY_LIB_PM_ACT_CFG5_REG & CY_ACT_USB_ENABLED     )))  ||
  43              		.loc 1 346 0
  44 000e 13F0010F 		tst	r3, #1
  45 0012 4CD1     		bne	.L3
  46              	.L2:
 348:Generated_Source\PSoC5/CyLib.c ****        (0u != (CY_LIB_PM_STBY_CFG5_REG & CY_ALT_ACT_USB_ENABLED))))
  47              		.loc 1 348 0
  48 0014 2A4B     		ldr	r3, .L16
  49 0016 1B78     		ldrb	r3, [r3]	@ zero_extendqisi2
 347:Generated_Source\PSoC5/CyLib.c ****        (((CY_PM_MODE_CSR_REG & CY_PM_MODE_CSR_MASK) == CY_PM_MODE_CSR_ALT_ACT) &&
  50              		.loc 1 347 0
  51 0018 03F00703 		and	r3, r3, #7
  52 001c 012B     		cmp	r3, #1
  53 001e 06D1     		bne	.L15
 349:Generated_Source\PSoC5/CyLib.c ****     {
  54              		.loc 1 349 0
  55 0020 294B     		ldr	r3, .L16+8
  56 0022 1B78     		ldrb	r3, [r3]	@ zero_extendqisi2
 348:Generated_Source\PSoC5/CyLib.c ****        (0u != (CY_LIB_PM_STBY_CFG5_REG & CY_ALT_ACT_USB_ENABLED))))
  57              		.loc 1 348 0
  58 0024 13F0010F 		tst	r3, #1
  59 0028 41D1     		bne	.L3
  60 002a 0023     		movs	r3, #0
  61 002c 00E0     		b	.L4
  62              	.L15:
 347:Generated_Source\PSoC5/CyLib.c ****        (((CY_PM_MODE_CSR_REG & CY_PM_MODE_CSR_MASK) == CY_PM_MODE_CSR_ALT_ACT) &&
  63              		.loc 1 347 0
  64 002e 0023     		movs	r3, #0
  65              	.LVL1:
  66              	.L4:
  67              	.LBE5:
  68              	.LBE4:
 369:Generated_Source\PSoC5/CyLib.c ****     uint8 usbPowerOn = CyUSB_PowerOnCheck();
 370:Generated_Source\PSoC5/CyLib.c **** 
 371:Generated_Source\PSoC5/CyLib.c ****     /* If USB is powered */
 372:Generated_Source\PSoC5/CyLib.c ****     if(usbPowerOn == 1u)
 373:Generated_Source\PSoC5/CyLib.c ****     {
 374:Generated_Source\PSoC5/CyLib.c ****         /* Unlock USB write */
 375:Generated_Source\PSoC5/CyLib.c ****         CY_LIB_USB_CR1_REG &= ((uint8)(~CY_LIB_USB_CLK_EN));
 376:Generated_Source\PSoC5/CyLib.c ****     }
 377:Generated_Source\PSoC5/CyLib.c ****     switch(freq)
  69              		.loc 1 377 0
  70 0030 0828     		cmp	r0, #8
  71 0032 43D8     		bhi	.L1
ARM GAS  C:\Users\ingan\AppData\Local\Temp\ccwaQbAc.s 			page 9


  72 0034 DFE800F0 		tbb	[pc, r0]
  73              	.L7:
  74 0038 05       		.byte	(.L6-.L7)/2
  75 0039 0B       		.byte	(.L8-.L7)/2
  76 003a 11       		.byte	(.L9-.L7)/2
  77 003b 17       		.byte	(.L10-.L7)/2
  78 003c 1D       		.byte	(.L11-.L7)/2
  79 003d 23       		.byte	(.L12-.L7)/2
  80 003e 29       		.byte	(.L13-.L7)/2
  81 003f 42       		.byte	(.L1-.L7)/2
  82 0040 2F       		.byte	(.L14-.L7)/2
  83 0041 00       		.p2align 1
  84              	.L6:
 378:Generated_Source\PSoC5/CyLib.c ****     {
 379:Generated_Source\PSoC5/CyLib.c ****     case CY_IMO_FREQ_3MHZ:
 380:Generated_Source\PSoC5/CyLib.c ****         CY_LIB_IMO_TR1_REG = CY_GET_XTND_REG8(CY_LIB_TRIM_IMO_3MHZ_PTR);
  85              		.loc 1 380 0
  86 0042 224B     		ldr	r3, .L16+12
  87 0044 1B78     		ldrb	r3, [r3]	@ zero_extendqisi2
  88 0046 DBB2     		uxtb	r3, r3
  89 0048 214A     		ldr	r2, .L16+16
  90 004a 1370     		strb	r3, [r2]
 381:Generated_Source\PSoC5/CyLib.c ****         break;
  91              		.loc 1 381 0
  92 004c 7047     		bx	lr
  93              	.L8:
 382:Generated_Source\PSoC5/CyLib.c **** 
 383:Generated_Source\PSoC5/CyLib.c ****     case CY_IMO_FREQ_6MHZ:
 384:Generated_Source\PSoC5/CyLib.c ****         CY_LIB_IMO_TR1_REG = CY_GET_XTND_REG8(CY_LIB_TRIM_IMO_6MHZ_PTR);
  94              		.loc 1 384 0
  95 004e 214B     		ldr	r3, .L16+20
  96 0050 1B78     		ldrb	r3, [r3]	@ zero_extendqisi2
  97 0052 DBB2     		uxtb	r3, r3
  98 0054 1E4A     		ldr	r2, .L16+16
  99 0056 1370     		strb	r3, [r2]
 385:Generated_Source\PSoC5/CyLib.c ****         break;
 100              		.loc 1 385 0
 101 0058 7047     		bx	lr
 102              	.L9:
 386:Generated_Source\PSoC5/CyLib.c **** 
 387:Generated_Source\PSoC5/CyLib.c ****     case CY_IMO_FREQ_12MHZ:
 388:Generated_Source\PSoC5/CyLib.c ****         CY_LIB_IMO_TR1_REG = CY_GET_XTND_REG8(CY_LIB_TRIM_IMO_12MHZ_PTR);
 103              		.loc 1 388 0
 104 005a 1F4B     		ldr	r3, .L16+24
 105 005c 1B78     		ldrb	r3, [r3]	@ zero_extendqisi2
 106 005e DBB2     		uxtb	r3, r3
 107 0060 1B4A     		ldr	r2, .L16+16
 108 0062 1370     		strb	r3, [r2]
 389:Generated_Source\PSoC5/CyLib.c ****         break;
 109              		.loc 1 389 0
 110 0064 7047     		bx	lr
 111              	.L10:
 390:Generated_Source\PSoC5/CyLib.c **** 
 391:Generated_Source\PSoC5/CyLib.c ****     case CY_IMO_FREQ_24MHZ:
 392:Generated_Source\PSoC5/CyLib.c ****         CY_LIB_IMO_TR1_REG = CY_GET_XTND_REG8(CY_LIB_TRIM_IMO_24MHZ_PTR);
 112              		.loc 1 392 0
 113 0066 1D4B     		ldr	r3, .L16+28
ARM GAS  C:\Users\ingan\AppData\Local\Temp\ccwaQbAc.s 			page 10


 114 0068 1B78     		ldrb	r3, [r3]	@ zero_extendqisi2
 115 006a DBB2     		uxtb	r3, r3
 116 006c 184A     		ldr	r2, .L16+16
 117 006e 1370     		strb	r3, [r2]
 393:Generated_Source\PSoC5/CyLib.c ****         break;
 118              		.loc 1 393 0
 119 0070 7047     		bx	lr
 120              	.L11:
 394:Generated_Source\PSoC5/CyLib.c **** 
 395:Generated_Source\PSoC5/CyLib.c ****     case CY_IMO_FREQ_48MHZ:
 396:Generated_Source\PSoC5/CyLib.c ****         CY_LIB_IMO_TR1_REG = CY_GET_XTND_REG8(CY_LIB_TRIM_IMO_TR1_PTR);
 121              		.loc 1 396 0
 122 0072 1B4B     		ldr	r3, .L16+32
 123 0074 1B78     		ldrb	r3, [r3]	@ zero_extendqisi2
 124 0076 DBB2     		uxtb	r3, r3
 125 0078 154A     		ldr	r2, .L16+16
 126 007a 1370     		strb	r3, [r2]
 397:Generated_Source\PSoC5/CyLib.c ****         break;
 127              		.loc 1 397 0
 128 007c 7047     		bx	lr
 129              	.L12:
 398:Generated_Source\PSoC5/CyLib.c **** 
 399:Generated_Source\PSoC5/CyLib.c ****     case CY_IMO_FREQ_62MHZ:
 400:Generated_Source\PSoC5/CyLib.c ****         CY_LIB_IMO_TR1_REG = CY_GET_XTND_REG8(CY_LIB_TRIM_IMO_67MHZ_PTR);
 130              		.loc 1 400 0
 131 007e 194B     		ldr	r3, .L16+36
 132 0080 1B78     		ldrb	r3, [r3]	@ zero_extendqisi2
 133 0082 DBB2     		uxtb	r3, r3
 134 0084 124A     		ldr	r2, .L16+16
 135 0086 1370     		strb	r3, [r2]
 401:Generated_Source\PSoC5/CyLib.c ****         break;
 136              		.loc 1 401 0
 137 0088 7047     		bx	lr
 138              	.L13:
 402:Generated_Source\PSoC5/CyLib.c **** 
 403:Generated_Source\PSoC5/CyLib.c **** #if(CY_PSOC5)
 404:Generated_Source\PSoC5/CyLib.c ****     case CY_IMO_FREQ_74MHZ:
 405:Generated_Source\PSoC5/CyLib.c ****         CY_LIB_IMO_TR1_REG = CY_GET_XTND_REG8(CY_LIB_TRIM_IMO_80MHZ_PTR);
 139              		.loc 1 405 0
 140 008a 174B     		ldr	r3, .L16+40
 141 008c 1B78     		ldrb	r3, [r3]	@ zero_extendqisi2
 142 008e DBB2     		uxtb	r3, r3
 143 0090 0F4A     		ldr	r2, .L16+16
 144 0092 1370     		strb	r3, [r2]
 406:Generated_Source\PSoC5/CyLib.c ****         break;
 145              		.loc 1 406 0
 146 0094 7047     		bx	lr
 147              	.L14:
 407:Generated_Source\PSoC5/CyLib.c **** #endif  /* (CY_PSOC5) */
 408:Generated_Source\PSoC5/CyLib.c **** 
 409:Generated_Source\PSoC5/CyLib.c ****     case CY_IMO_FREQ_USB:
 410:Generated_Source\PSoC5/CyLib.c ****         CY_LIB_IMO_TR1_REG = CY_GET_XTND_REG8(CY_LIB_TRIM_IMO_USB_PTR);
 148              		.loc 1 410 0
 149 0096 154A     		ldr	r2, .L16+44
 150 0098 1278     		ldrb	r2, [r2]	@ zero_extendqisi2
 151 009a D2B2     		uxtb	r2, r2
 152 009c 0C49     		ldr	r1, .L16+16
ARM GAS  C:\Users\ingan\AppData\Local\Temp\ccwaQbAc.s 			page 11


 153 009e 0A70     		strb	r2, [r1]
 411:Generated_Source\PSoC5/CyLib.c **** 
 412:Generated_Source\PSoC5/CyLib.c ****         /* If USB is powered */
 413:Generated_Source\PSoC5/CyLib.c ****         if(usbPowerOn == 1u)
 154              		.loc 1 413 0
 155 00a0 63B1     		cbz	r3, .L1
 414:Generated_Source\PSoC5/CyLib.c ****         {
 415:Generated_Source\PSoC5/CyLib.c ****             /* Lock USB Oscillator */
 416:Generated_Source\PSoC5/CyLib.c ****             CY_LIB_USB_CR1_REG |= CY_LIB_USB_CLK_EN;
 156              		.loc 1 416 0
 157 00a2 134A     		ldr	r2, .L16+48
 158 00a4 1378     		ldrb	r3, [r2]	@ zero_extendqisi2
 159 00a6 43F00203 		orr	r3, r3, #2
 160 00aa 1370     		strb	r3, [r2]
 417:Generated_Source\PSoC5/CyLib.c ****         }
 418:Generated_Source\PSoC5/CyLib.c ****         break;
 419:Generated_Source\PSoC5/CyLib.c **** 
 420:Generated_Source\PSoC5/CyLib.c ****     default:
 421:Generated_Source\PSoC5/CyLib.c ****             CYASSERT(0u != 0u);
 422:Generated_Source\PSoC5/CyLib.c ****         break;
 423:Generated_Source\PSoC5/CyLib.c ****     }
 424:Generated_Source\PSoC5/CyLib.c **** 
 425:Generated_Source\PSoC5/CyLib.c **** }
 161              		.loc 1 425 0
 162 00ac 7047     		bx	lr
 163              	.LVL2:
 164              	.L3:
 375:Generated_Source\PSoC5/CyLib.c ****     }
 165              		.loc 1 375 0
 166 00ae 104A     		ldr	r2, .L16+48
 167 00b0 1378     		ldrb	r3, [r2]	@ zero_extendqisi2
 168 00b2 03F0FD03 		and	r3, r3, #253
 169 00b6 1370     		strb	r3, [r2]
 170 00b8 0123     		movs	r3, #1
 171 00ba B9E7     		b	.L4
 172              	.L1:
 173 00bc 7047     		bx	lr
 174              	.L17:
 175 00be 00BF     		.align	2
 176              	.L16:
 177 00c0 93430040 		.word	1073759123
 178 00c4 A5430040 		.word	1073759141
 179 00c8 B5430040 		.word	1073759157
 180 00cc 08010049 		.word	1224737032
 181 00d0 A1460040 		.word	1073759905
 182 00d4 09010049 		.word	1224737033
 183 00d8 0A010049 		.word	1224737034
 184 00dc 0B010049 		.word	1224737035
 185 00e0 89010049 		.word	1224737161
 186 00e4 0C010049 		.word	1224737036
 187 00e8 0D010049 		.word	1224737037
 188 00ec 0F010049 		.word	1224737039
 189 00f0 09600040 		.word	1073766409
 190              		.cfi_endproc
 191              	.LFE7:
 192              		.size	CyIMO_SetTrimValue, .-CyIMO_SetTrimValue
 193              		.section	.text.CyBusClk_Internal_SetDivider,"ax",%progbits
ARM GAS  C:\Users\ingan\AppData\Local\Temp\ccwaQbAc.s 			page 12


 194              		.align	2
 195              		.thumb
 196              		.thumb_func
 197              		.type	CyBusClk_Internal_SetDivider, %function
 198              	CyBusClk_Internal_SetDivider:
 199              	.LFB14:
 426:Generated_Source\PSoC5/CyLib.c **** 
 427:Generated_Source\PSoC5/CyLib.c **** 
 428:Generated_Source\PSoC5/CyLib.c **** /*******************************************************************************
 429:Generated_Source\PSoC5/CyLib.c **** * Function Name: CyIMO_SetFreq
 430:Generated_Source\PSoC5/CyLib.c **** ****************************************************************************//**
 431:Generated_Source\PSoC5/CyLib.c **** *
 432:Generated_Source\PSoC5/CyLib.c **** *  Sets the frequency of the IMO. Changes may be made while the IMO is running.
 433:Generated_Source\PSoC5/CyLib.c **** *
 434:Generated_Source\PSoC5/CyLib.c **** *  \param freq: Frequency of IMO operation
 435:Generated_Source\PSoC5/CyLib.c **** *       CY_IMO_FREQ_3MHZ  to set  3   MHz
 436:Generated_Source\PSoC5/CyLib.c **** *       CY_IMO_FREQ_6MHZ  to set  6   MHz
 437:Generated_Source\PSoC5/CyLib.c **** *       CY_IMO_FREQ_12MHZ to set 12   MHz
 438:Generated_Source\PSoC5/CyLib.c **** *       CY_IMO_FREQ_24MHZ to set 24   MHz
 439:Generated_Source\PSoC5/CyLib.c **** *       CY_IMO_FREQ_48MHZ to set 48   MHz
 440:Generated_Source\PSoC5/CyLib.c **** *       CY_IMO_FREQ_62MHZ to set 62.6 MHz
 441:Generated_Source\PSoC5/CyLib.c **** *       CY_IMO_FREQ_74MHZ to set 74.7 MHz (not applicable for PSoC 3)
 442:Generated_Source\PSoC5/CyLib.c **** *       CY_IMO_FREQ_USB   to set 24   MHz (Trimmed for USB operation)
 443:Generated_Source\PSoC5/CyLib.c **** *
 444:Generated_Source\PSoC5/CyLib.c **** * \sideeffect
 445:Generated_Source\PSoC5/CyLib.c **** *  If this function execution results in the CPU clock frequency increasing,
 446:Generated_Source\PSoC5/CyLib.c **** *  then the number of clock cycles the cache will wait before it samples data
 447:Generated_Source\PSoC5/CyLib.c **** *  coming back from the Flash must be adjusted by calling
 448:Generated_Source\PSoC5/CyLib.c **** *  CyFlash_SetWaitCycles() with an appropriate parameter. It can be optionally
 449:Generated_Source\PSoC5/CyLib.c **** *  called if the CPU clock frequency is lowered in order to improve the CPU
 450:Generated_Source\PSoC5/CyLib.c **** *  performance. See CyFlash_SetWaitCycles() description for more information.
 451:Generated_Source\PSoC5/CyLib.c **** *
 452:Generated_Source\PSoC5/CyLib.c **** *  When the USB setting is chosen, the USB clock locking circuit is enabled.
 453:Generated_Source\PSoC5/CyLib.c **** *  Otherwise this circuit is disabled. The USB block must be powered before
 454:Generated_Source\PSoC5/CyLib.c **** *  selecting the USB setting.
 455:Generated_Source\PSoC5/CyLib.c **** *
 456:Generated_Source\PSoC5/CyLib.c **** *******************************************************************************/
 457:Generated_Source\PSoC5/CyLib.c **** void CyIMO_SetFreq(uint8 freq) 
 458:Generated_Source\PSoC5/CyLib.c **** {
 459:Generated_Source\PSoC5/CyLib.c ****     uint8 currentFreq;
 460:Generated_Source\PSoC5/CyLib.c ****     uint8 nextFreq;
 461:Generated_Source\PSoC5/CyLib.c **** 
 462:Generated_Source\PSoC5/CyLib.c ****     /***************************************************************************
 463:Generated_Source\PSoC5/CyLib.c ****     * If the IMO frequency is changed,the Trim values must also be set
 464:Generated_Source\PSoC5/CyLib.c ****     * accordingly.This requires reading the current frequency. If the new
 465:Generated_Source\PSoC5/CyLib.c ****     * frequency is faster, then set a new trim and then change the frequency,
 466:Generated_Source\PSoC5/CyLib.c ****     * otherwise change the frequency and then set new trim values.
 467:Generated_Source\PSoC5/CyLib.c ****     ***************************************************************************/
 468:Generated_Source\PSoC5/CyLib.c **** 
 469:Generated_Source\PSoC5/CyLib.c ****     currentFreq = CY_LIB_FASTCLK_IMO_CR_REG & ((uint8)(~CY_LIB_FASTCLK_IMO_CR_RANGE_MASK));
 470:Generated_Source\PSoC5/CyLib.c **** 
 471:Generated_Source\PSoC5/CyLib.c ****     /* Check if requested frequency is USB. */
 472:Generated_Source\PSoC5/CyLib.c ****     nextFreq = (freq == CY_IMO_FREQ_USB) ? CY_IMO_FREQ_24MHZ : freq;
 473:Generated_Source\PSoC5/CyLib.c **** 
 474:Generated_Source\PSoC5/CyLib.c ****     switch (currentFreq)
 475:Generated_Source\PSoC5/CyLib.c ****     {
 476:Generated_Source\PSoC5/CyLib.c ****     case 0u:
ARM GAS  C:\Users\ingan\AppData\Local\Temp\ccwaQbAc.s 			page 13


 477:Generated_Source\PSoC5/CyLib.c ****         currentFreq = CY_IMO_FREQ_12MHZ;
 478:Generated_Source\PSoC5/CyLib.c ****         break;
 479:Generated_Source\PSoC5/CyLib.c **** 
 480:Generated_Source\PSoC5/CyLib.c ****     case 1u:
 481:Generated_Source\PSoC5/CyLib.c ****         currentFreq = CY_IMO_FREQ_6MHZ;
 482:Generated_Source\PSoC5/CyLib.c ****         break;
 483:Generated_Source\PSoC5/CyLib.c **** 
 484:Generated_Source\PSoC5/CyLib.c ****     case 2u:
 485:Generated_Source\PSoC5/CyLib.c ****         currentFreq = CY_IMO_FREQ_24MHZ;
 486:Generated_Source\PSoC5/CyLib.c ****         break;
 487:Generated_Source\PSoC5/CyLib.c **** 
 488:Generated_Source\PSoC5/CyLib.c ****     case 3u:
 489:Generated_Source\PSoC5/CyLib.c ****         currentFreq = CY_IMO_FREQ_3MHZ;
 490:Generated_Source\PSoC5/CyLib.c ****         break;
 491:Generated_Source\PSoC5/CyLib.c **** 
 492:Generated_Source\PSoC5/CyLib.c ****     case 4u:
 493:Generated_Source\PSoC5/CyLib.c ****         currentFreq = CY_IMO_FREQ_48MHZ;
 494:Generated_Source\PSoC5/CyLib.c ****         break;
 495:Generated_Source\PSoC5/CyLib.c **** 
 496:Generated_Source\PSoC5/CyLib.c ****     case 5u:
 497:Generated_Source\PSoC5/CyLib.c ****         currentFreq = CY_IMO_FREQ_62MHZ;
 498:Generated_Source\PSoC5/CyLib.c ****         break;
 499:Generated_Source\PSoC5/CyLib.c **** 
 500:Generated_Source\PSoC5/CyLib.c **** #if(CY_PSOC5)
 501:Generated_Source\PSoC5/CyLib.c ****     case 6u:
 502:Generated_Source\PSoC5/CyLib.c ****         currentFreq = CY_IMO_FREQ_74MHZ;
 503:Generated_Source\PSoC5/CyLib.c ****         break;
 504:Generated_Source\PSoC5/CyLib.c **** #endif  /* (CY_PSOC5) */
 505:Generated_Source\PSoC5/CyLib.c **** 
 506:Generated_Source\PSoC5/CyLib.c ****     default:
 507:Generated_Source\PSoC5/CyLib.c ****         CYASSERT(0u != 0u);
 508:Generated_Source\PSoC5/CyLib.c ****         break;
 509:Generated_Source\PSoC5/CyLib.c ****     }
 510:Generated_Source\PSoC5/CyLib.c **** 
 511:Generated_Source\PSoC5/CyLib.c ****     if (nextFreq >= currentFreq)
 512:Generated_Source\PSoC5/CyLib.c ****     {
 513:Generated_Source\PSoC5/CyLib.c ****         /* Set new trim first */
 514:Generated_Source\PSoC5/CyLib.c ****         CyIMO_SetTrimValue(freq);
 515:Generated_Source\PSoC5/CyLib.c ****     }
 516:Generated_Source\PSoC5/CyLib.c **** 
 517:Generated_Source\PSoC5/CyLib.c ****     /* Set usbclk_on bit when using CY_IMO_FREQ_USB, if not clear it */
 518:Generated_Source\PSoC5/CyLib.c ****     switch(freq)
 519:Generated_Source\PSoC5/CyLib.c ****     {
 520:Generated_Source\PSoC5/CyLib.c ****     case CY_IMO_FREQ_3MHZ:
 521:Generated_Source\PSoC5/CyLib.c ****         CY_LIB_FASTCLK_IMO_CR_REG = ((CY_LIB_FASTCLK_IMO_CR_REG & CY_LIB_FASTCLK_IMO_CR_RANGE_MASK)
 522:Generated_Source\PSoC5/CyLib.c ****             CY_LIB_IMO_3MHZ_VALUE) & ((uint8)(~CY_LIB_IMO_USBCLK_ON_SET));
 523:Generated_Source\PSoC5/CyLib.c ****         break;
 524:Generated_Source\PSoC5/CyLib.c **** 
 525:Generated_Source\PSoC5/CyLib.c ****     case CY_IMO_FREQ_6MHZ:
 526:Generated_Source\PSoC5/CyLib.c ****         CY_LIB_FASTCLK_IMO_CR_REG = ((CY_LIB_FASTCLK_IMO_CR_REG & CY_LIB_FASTCLK_IMO_CR_RANGE_MASK)
 527:Generated_Source\PSoC5/CyLib.c ****             CY_LIB_IMO_6MHZ_VALUE) & ((uint8)(~CY_LIB_IMO_USBCLK_ON_SET));
 528:Generated_Source\PSoC5/CyLib.c ****         break;
 529:Generated_Source\PSoC5/CyLib.c **** 
 530:Generated_Source\PSoC5/CyLib.c ****     case CY_IMO_FREQ_12MHZ:
 531:Generated_Source\PSoC5/CyLib.c ****         CY_LIB_FASTCLK_IMO_CR_REG = ((CY_LIB_FASTCLK_IMO_CR_REG & CY_LIB_FASTCLK_IMO_CR_RANGE_MASK)
 532:Generated_Source\PSoC5/CyLib.c ****             CY_LIB_IMO_12MHZ_VALUE) & ((uint8)(~CY_LIB_IMO_USBCLK_ON_SET));
 533:Generated_Source\PSoC5/CyLib.c ****         break;
ARM GAS  C:\Users\ingan\AppData\Local\Temp\ccwaQbAc.s 			page 14


 534:Generated_Source\PSoC5/CyLib.c **** 
 535:Generated_Source\PSoC5/CyLib.c ****     case CY_IMO_FREQ_24MHZ:
 536:Generated_Source\PSoC5/CyLib.c ****         CY_LIB_FASTCLK_IMO_CR_REG = ((CY_LIB_FASTCLK_IMO_CR_REG & CY_LIB_FASTCLK_IMO_CR_RANGE_MASK)
 537:Generated_Source\PSoC5/CyLib.c ****             CY_LIB_IMO_24MHZ_VALUE) & ((uint8)(~CY_LIB_IMO_USBCLK_ON_SET));
 538:Generated_Source\PSoC5/CyLib.c ****         break;
 539:Generated_Source\PSoC5/CyLib.c **** 
 540:Generated_Source\PSoC5/CyLib.c ****     case CY_IMO_FREQ_48MHZ:
 541:Generated_Source\PSoC5/CyLib.c ****         CY_LIB_FASTCLK_IMO_CR_REG = ((CY_LIB_FASTCLK_IMO_CR_REG & CY_LIB_FASTCLK_IMO_CR_RANGE_MASK)
 542:Generated_Source\PSoC5/CyLib.c ****             CY_LIB_IMO_48MHZ_VALUE) & ((uint8)(~CY_LIB_IMO_USBCLK_ON_SET));
 543:Generated_Source\PSoC5/CyLib.c ****         break;
 544:Generated_Source\PSoC5/CyLib.c **** 
 545:Generated_Source\PSoC5/CyLib.c ****     case CY_IMO_FREQ_62MHZ:
 546:Generated_Source\PSoC5/CyLib.c ****         CY_LIB_FASTCLK_IMO_CR_REG = ((CY_LIB_FASTCLK_IMO_CR_REG & CY_LIB_FASTCLK_IMO_CR_RANGE_MASK)
 547:Generated_Source\PSoC5/CyLib.c ****             CY_LIB_IMO_62MHZ_VALUE) & ((uint8)(~CY_LIB_IMO_USBCLK_ON_SET));
 548:Generated_Source\PSoC5/CyLib.c ****         break;
 549:Generated_Source\PSoC5/CyLib.c **** 
 550:Generated_Source\PSoC5/CyLib.c **** #if(CY_PSOC5)
 551:Generated_Source\PSoC5/CyLib.c ****     case CY_IMO_FREQ_74MHZ:
 552:Generated_Source\PSoC5/CyLib.c ****         CY_LIB_FASTCLK_IMO_CR_REG = ((CY_LIB_FASTCLK_IMO_CR_REG & CY_LIB_FASTCLK_IMO_CR_RANGE_MASK)
 553:Generated_Source\PSoC5/CyLib.c ****             CY_LIB_IMO_74MHZ_VALUE) & ((uint8)(~CY_LIB_IMO_USBCLK_ON_SET));
 554:Generated_Source\PSoC5/CyLib.c ****         break;
 555:Generated_Source\PSoC5/CyLib.c **** #endif  /* (CY_PSOC5) */
 556:Generated_Source\PSoC5/CyLib.c **** 
 557:Generated_Source\PSoC5/CyLib.c ****     case CY_IMO_FREQ_USB:
 558:Generated_Source\PSoC5/CyLib.c ****         CY_LIB_FASTCLK_IMO_CR_REG = ((CY_LIB_FASTCLK_IMO_CR_REG & CY_LIB_FASTCLK_IMO_CR_RANGE_MASK)
 559:Generated_Source\PSoC5/CyLib.c ****             CY_LIB_IMO_24MHZ_VALUE) | CY_LIB_IMO_USBCLK_ON_SET;
 560:Generated_Source\PSoC5/CyLib.c ****         break;
 561:Generated_Source\PSoC5/CyLib.c **** 
 562:Generated_Source\PSoC5/CyLib.c ****     default:
 563:Generated_Source\PSoC5/CyLib.c ****         CYASSERT(0u != 0u);
 564:Generated_Source\PSoC5/CyLib.c ****         break;
 565:Generated_Source\PSoC5/CyLib.c ****     }
 566:Generated_Source\PSoC5/CyLib.c **** 
 567:Generated_Source\PSoC5/CyLib.c ****     /* Tu rn onIMO Doubler, if switching to CY_IMO_FREQ_USB */
 568:Generated_Source\PSoC5/CyLib.c ****     if (freq == CY_IMO_FREQ_USB)
 569:Generated_Source\PSoC5/CyLib.c ****     {
 570:Generated_Source\PSoC5/CyLib.c ****         CyIMO_EnableDoubler();
 571:Generated_Source\PSoC5/CyLib.c ****     }
 572:Generated_Source\PSoC5/CyLib.c ****     else
 573:Generated_Source\PSoC5/CyLib.c ****     {
 574:Generated_Source\PSoC5/CyLib.c ****         CyIMO_DisableDoubler();
 575:Generated_Source\PSoC5/CyLib.c ****     }
 576:Generated_Source\PSoC5/CyLib.c **** 
 577:Generated_Source\PSoC5/CyLib.c ****     if (nextFreq < currentFreq)
 578:Generated_Source\PSoC5/CyLib.c ****     {
 579:Generated_Source\PSoC5/CyLib.c ****         /* Set the trim after setting frequency */
 580:Generated_Source\PSoC5/CyLib.c ****         CyIMO_SetTrimValue(freq);
 581:Generated_Source\PSoC5/CyLib.c ****     }
 582:Generated_Source\PSoC5/CyLib.c **** }
 583:Generated_Source\PSoC5/CyLib.c **** 
 584:Generated_Source\PSoC5/CyLib.c **** 
 585:Generated_Source\PSoC5/CyLib.c **** /*******************************************************************************
 586:Generated_Source\PSoC5/CyLib.c **** * Function Name: CyIMO_SetSource
 587:Generated_Source\PSoC5/CyLib.c **** ****************************************************************************//**
 588:Generated_Source\PSoC5/CyLib.c **** *
 589:Generated_Source\PSoC5/CyLib.c **** *  Sets the source of the clock output from the IMO block.
 590:Generated_Source\PSoC5/CyLib.c **** *
ARM GAS  C:\Users\ingan\AppData\Local\Temp\ccwaQbAc.s 			page 15


 591:Generated_Source\PSoC5/CyLib.c **** *  The output from the IMO is by default the IMO itself. Optionally the MHz
 592:Generated_Source\PSoC5/CyLib.c **** *  Crystal or DSI input can be the source of the IMO output instead.
 593:Generated_Source\PSoC5/CyLib.c **** *
 594:Generated_Source\PSoC5/CyLib.c **** *   \param source: CY_IMO_SOURCE_DSI to set the DSI as source.
 595:Generated_Source\PSoC5/CyLib.c **** *           CY_IMO_SOURCE_XTAL to set the MHz as source.
 596:Generated_Source\PSoC5/CyLib.c **** *           CY_IMO_SOURCE_IMO to set the IMO itself.
 597:Generated_Source\PSoC5/CyLib.c **** *
 598:Generated_Source\PSoC5/CyLib.c **** * \sideeffect
 599:Generated_Source\PSoC5/CyLib.c **** *  If this function execution resulted in the CPU clock frequency increasing,
 600:Generated_Source\PSoC5/CyLib.c **** *  then the number of clock cycles the cache will wait before it samples data
 601:Generated_Source\PSoC5/CyLib.c **** *  coming back from the Flash must be adjusted by calling
 602:Generated_Source\PSoC5/CyLib.c **** *  CyFlash_SetWaitCycles() with an appropriate parameter. It can be optionally
 603:Generated_Source\PSoC5/CyLib.c **** *  called if the CPU clock frequency is lowered in order to improve the CPU
 604:Generated_Source\PSoC5/CyLib.c **** *  performance. See CyFlash_SetWaitCycles() description for more information.
 605:Generated_Source\PSoC5/CyLib.c **** *
 606:Generated_Source\PSoC5/CyLib.c **** *******************************************************************************/
 607:Generated_Source\PSoC5/CyLib.c **** void CyIMO_SetSource(uint8 source) 
 608:Generated_Source\PSoC5/CyLib.c **** {
 609:Generated_Source\PSoC5/CyLib.c ****     switch(source)
 610:Generated_Source\PSoC5/CyLib.c ****     {
 611:Generated_Source\PSoC5/CyLib.c ****     case CY_IMO_SOURCE_DSI:
 612:Generated_Source\PSoC5/CyLib.c ****         CY_LIB_CLKDIST_CR_REG     &= ((uint8)(~CY_LIB_CLKDIST_CR_IMO2X));
 613:Generated_Source\PSoC5/CyLib.c ****         CY_LIB_FASTCLK_IMO_CR_REG |= CY_LIB_FASTCLK_IMO_IMO;
 614:Generated_Source\PSoC5/CyLib.c ****         break;
 615:Generated_Source\PSoC5/CyLib.c **** 
 616:Generated_Source\PSoC5/CyLib.c ****     case CY_IMO_SOURCE_XTAL:
 617:Generated_Source\PSoC5/CyLib.c ****         CY_LIB_CLKDIST_CR_REG     |= CY_LIB_CLKDIST_CR_IMO2X;
 618:Generated_Source\PSoC5/CyLib.c ****         CY_LIB_FASTCLK_IMO_CR_REG |= CY_LIB_FASTCLK_IMO_IMO;
 619:Generated_Source\PSoC5/CyLib.c ****         break;
 620:Generated_Source\PSoC5/CyLib.c **** 
 621:Generated_Source\PSoC5/CyLib.c ****     case CY_IMO_SOURCE_IMO:
 622:Generated_Source\PSoC5/CyLib.c ****         CY_LIB_FASTCLK_IMO_CR_REG &= ((uint8)(~CY_LIB_FASTCLK_IMO_IMO));
 623:Generated_Source\PSoC5/CyLib.c ****         break;
 624:Generated_Source\PSoC5/CyLib.c **** 
 625:Generated_Source\PSoC5/CyLib.c ****     default:
 626:Generated_Source\PSoC5/CyLib.c ****         /* Incorrect source value */
 627:Generated_Source\PSoC5/CyLib.c ****         CYASSERT(0u != 0u);
 628:Generated_Source\PSoC5/CyLib.c ****         break;
 629:Generated_Source\PSoC5/CyLib.c ****     }
 630:Generated_Source\PSoC5/CyLib.c **** }
 631:Generated_Source\PSoC5/CyLib.c **** 
 632:Generated_Source\PSoC5/CyLib.c **** 
 633:Generated_Source\PSoC5/CyLib.c **** /*******************************************************************************
 634:Generated_Source\PSoC5/CyLib.c **** * Function Name: CyIMO_EnableDoubler
 635:Generated_Source\PSoC5/CyLib.c **** ****************************************************************************//**
 636:Generated_Source\PSoC5/CyLib.c **** *
 637:Generated_Source\PSoC5/CyLib.c **** *  Enables the IMO doubler.  The 2x frequency clock is used to convert a 24 MHz
 638:Generated_Source\PSoC5/CyLib.c **** *  input to a 48 MHz output for use by the USB block.
 639:Generated_Source\PSoC5/CyLib.c **** *
 640:Generated_Source\PSoC5/CyLib.c **** *******************************************************************************/
 641:Generated_Source\PSoC5/CyLib.c **** void CyIMO_EnableDoubler(void) 
 642:Generated_Source\PSoC5/CyLib.c **** {
 643:Generated_Source\PSoC5/CyLib.c ****     /* Set FASTCLK_IMO_CR_PTR regigster's 4th bit */
 644:Generated_Source\PSoC5/CyLib.c ****     CY_LIB_FASTCLK_IMO_CR_REG |= CY_LIB_FASTCLK_IMO_DOUBLER;
 645:Generated_Source\PSoC5/CyLib.c **** }
 646:Generated_Source\PSoC5/CyLib.c **** 
 647:Generated_Source\PSoC5/CyLib.c **** 
ARM GAS  C:\Users\ingan\AppData\Local\Temp\ccwaQbAc.s 			page 16


 648:Generated_Source\PSoC5/CyLib.c **** /*******************************************************************************
 649:Generated_Source\PSoC5/CyLib.c **** * Function Name: CyIMO_DisableDoubler
 650:Generated_Source\PSoC5/CyLib.c **** ****************************************************************************//**
 651:Generated_Source\PSoC5/CyLib.c **** *
 652:Generated_Source\PSoC5/CyLib.c **** *   Disables the IMO doubler.
 653:Generated_Source\PSoC5/CyLib.c **** *
 654:Generated_Source\PSoC5/CyLib.c **** *******************************************************************************/
 655:Generated_Source\PSoC5/CyLib.c **** void CyIMO_DisableDoubler(void) 
 656:Generated_Source\PSoC5/CyLib.c **** {
 657:Generated_Source\PSoC5/CyLib.c ****     CY_LIB_FASTCLK_IMO_CR_REG &= ((uint8)(~CY_LIB_FASTCLK_IMO_DOUBLER));
 658:Generated_Source\PSoC5/CyLib.c **** }
 659:Generated_Source\PSoC5/CyLib.c **** 
 660:Generated_Source\PSoC5/CyLib.c **** 
 661:Generated_Source\PSoC5/CyLib.c **** /*******************************************************************************
 662:Generated_Source\PSoC5/CyLib.c **** * Function Name: CyMasterClk_SetSource
 663:Generated_Source\PSoC5/CyLib.c **** ****************************************************************************//**
 664:Generated_Source\PSoC5/CyLib.c **** *
 665:Generated_Source\PSoC5/CyLib.c **** *  Sets the source of the master clock.
 666:Generated_Source\PSoC5/CyLib.c **** *
 667:Generated_Source\PSoC5/CyLib.c **** *   \param source: One of the four available Master clock sources.
 668:Generated_Source\PSoC5/CyLib.c **** *     CY_MASTER_SOURCE_IMO
 669:Generated_Source\PSoC5/CyLib.c **** *     CY_MASTER_SOURCE_PLL
 670:Generated_Source\PSoC5/CyLib.c **** *     CY_MASTER_SOURCE_XTAL
 671:Generated_Source\PSoC5/CyLib.c **** *     CY_MASTER_SOURCE_DSI
 672:Generated_Source\PSoC5/CyLib.c **** *
 673:Generated_Source\PSoC5/CyLib.c **** * \sideeffect
 674:Generated_Source\PSoC5/CyLib.c **** *  The current source and the new source must both be running and stable before
 675:Generated_Source\PSoC5/CyLib.c **** *  calling this function.
 676:Generated_Source\PSoC5/CyLib.c **** *
 677:Generated_Source\PSoC5/CyLib.c **** *  If this function execution resulted in the CPU clock frequency increasing,
 678:Generated_Source\PSoC5/CyLib.c **** *  then the number of clock cycles the cache will wait before it samples data
 679:Generated_Source\PSoC5/CyLib.c **** *  coming back from the Flash must be adjusted by calling
 680:Generated_Source\PSoC5/CyLib.c **** *  CyFlash_SetWaitCycles() with an appropriate parameter. It can be optionally
 681:Generated_Source\PSoC5/CyLib.c **** *  called if the CPU clock frequency is lowered in order to improve the CPU
 682:Generated_Source\PSoC5/CyLib.c **** *  performance. See CyFlash_SetWaitCycles() description for more information.
 683:Generated_Source\PSoC5/CyLib.c **** *
 684:Generated_Source\PSoC5/CyLib.c **** *******************************************************************************/
 685:Generated_Source\PSoC5/CyLib.c **** void CyMasterClk_SetSource(uint8 source) 
 686:Generated_Source\PSoC5/CyLib.c **** {
 687:Generated_Source\PSoC5/CyLib.c ****     CY_LIB_CLKDIST_MSTR1_REG = (CY_LIB_CLKDIST_MSTR1_REG & MASTER_CLK_SRC_CLEAR) |
 688:Generated_Source\PSoC5/CyLib.c ****                                 (source & ((uint8)(~MASTER_CLK_SRC_CLEAR)));
 689:Generated_Source\PSoC5/CyLib.c **** }
 690:Generated_Source\PSoC5/CyLib.c **** 
 691:Generated_Source\PSoC5/CyLib.c **** 
 692:Generated_Source\PSoC5/CyLib.c **** /*******************************************************************************
 693:Generated_Source\PSoC5/CyLib.c **** * Function Name: CyMasterClk_SetDivider
 694:Generated_Source\PSoC5/CyLib.c **** ****************************************************************************//**
 695:Generated_Source\PSoC5/CyLib.c **** *
 696:Generated_Source\PSoC5/CyLib.c **** *  Sets the divider value used to generate Master Clock.
 697:Generated_Source\PSoC5/CyLib.c **** *
 698:Generated_Source\PSoC5/CyLib.c **** *  \param uint8 divider:
 699:Generated_Source\PSoC5/CyLib.c **** *   The valid range is [0-255]. The clock will be divided by this value + 1.
 700:Generated_Source\PSoC5/CyLib.c **** *   For example to divide this parameter by two should be set to 1.
 701:Generated_Source\PSoC5/CyLib.c **** *
 702:Generated_Source\PSoC5/CyLib.c **** * \sideeffect
 703:Generated_Source\PSoC5/CyLib.c **** *  If this function execution resulted in the CPU clock frequency increasing,
 704:Generated_Source\PSoC5/CyLib.c **** *  then the number of clock cycles the cache will wait before it samples data
ARM GAS  C:\Users\ingan\AppData\Local\Temp\ccwaQbAc.s 			page 17


 705:Generated_Source\PSoC5/CyLib.c **** *  coming back from the Flash must be adjusted by calling
 706:Generated_Source\PSoC5/CyLib.c **** *  CyFlash_SetWaitCycles() with an appropriate parameter. It can be optionally
 707:Generated_Source\PSoC5/CyLib.c **** *  called if the CPU clock frequency is lowered in order to improve the CPU
 708:Generated_Source\PSoC5/CyLib.c **** *  performance. See CyFlash_SetWaitCycles() description for more information.
 709:Generated_Source\PSoC5/CyLib.c **** *
 710:Generated_Source\PSoC5/CyLib.c **** *  When changing the Master or Bus clock divider value from div-by-n to div-by-1
 711:Generated_Source\PSoC5/CyLib.c **** *  the first clock cycle output after the div-by-1 can be up to 4 ns shorter
 712:Generated_Source\PSoC5/CyLib.c **** *  than the final/expected div-by-1 period.
 713:Generated_Source\PSoC5/CyLib.c **** *
 714:Generated_Source\PSoC5/CyLib.c **** *******************************************************************************/
 715:Generated_Source\PSoC5/CyLib.c **** void CyMasterClk_SetDivider(uint8 divider) 
 716:Generated_Source\PSoC5/CyLib.c **** {
 717:Generated_Source\PSoC5/CyLib.c ****     CY_LIB_CLKDIST_MSTR0_REG = divider;
 718:Generated_Source\PSoC5/CyLib.c **** }
 719:Generated_Source\PSoC5/CyLib.c **** 
 720:Generated_Source\PSoC5/CyLib.c **** 
 721:Generated_Source\PSoC5/CyLib.c **** /*******************************************************************************
 722:Generated_Source\PSoC5/CyLib.c **** * Function Name: CyBusClk_Internal_SetDivider
 723:Generated_Source\PSoC5/CyLib.c **** ****************************************************************************//**
 724:Generated_Source\PSoC5/CyLib.c **** *
 725:Generated_Source\PSoC5/CyLib.c **** *  The function used by CyBusClk_SetDivider(). For internal use only.
 726:Generated_Source\PSoC5/CyLib.c **** *
 727:Generated_Source\PSoC5/CyLib.c **** *   \param divider: Valid range [0-65535].
 728:Generated_Source\PSoC5/CyLib.c **** *   The clock will be divided by this value + 1.
 729:Generated_Source\PSoC5/CyLib.c **** *   For example, to divide this parameter by two should be set to 1.
 730:Generated_Source\PSoC5/CyLib.c **** *
 731:Generated_Source\PSoC5/CyLib.c **** *******************************************************************************/
 732:Generated_Source\PSoC5/CyLib.c **** static void CyBusClk_Internal_SetDivider(uint16 divider)
 733:Generated_Source\PSoC5/CyLib.c **** {
 200              		.loc 1 733 0
 201              		.cfi_startproc
 202              		@ args = 0, pretend = 0, frame = 0
 203              		@ frame_needed = 0, uses_anonymous_args = 0
 204              		@ link register save eliminated.
 205              	.LVL3:
 734:Generated_Source\PSoC5/CyLib.c ****     /* Mask bits to enable shadow loads  */
 735:Generated_Source\PSoC5/CyLib.c ****     CY_LIB_CLKDIST_AMASK_REG &= CY_LIB_CLKDIST_AMASK_MASK;
 206              		.loc 1 735 0
 207 0000 0C4A     		ldr	r2, .L19
 208 0002 1378     		ldrb	r3, [r2]	@ zero_extendqisi2
 209 0004 03F0F003 		and	r3, r3, #240
 210 0008 1370     		strb	r3, [r2]
 736:Generated_Source\PSoC5/CyLib.c ****     CY_LIB_CLKDIST_DMASK_REG  = CY_LIB_CLKDIST_DMASK_MASK;
 211              		.loc 1 736 0
 212 000a 0022     		movs	r2, #0
 213 000c 0A4B     		ldr	r3, .L19+4
 214 000e 1A70     		strb	r2, [r3]
 737:Generated_Source\PSoC5/CyLib.c **** 
 738:Generated_Source\PSoC5/CyLib.c ****     /* Enable mask bits to enable shadow loads */
 739:Generated_Source\PSoC5/CyLib.c ****     CY_LIB_CLKDIST_BCFG2_REG |= CY_LIB_CLKDIST_BCFG2_MASK;
 215              		.loc 1 739 0
 216 0010 0A4A     		ldr	r2, .L19+8
 217 0012 1378     		ldrb	r3, [r2]	@ zero_extendqisi2
 218 0014 43F08003 		orr	r3, r3, #128
 219 0018 1370     		strb	r3, [r2]
 740:Generated_Source\PSoC5/CyLib.c **** 
 741:Generated_Source\PSoC5/CyLib.c ****     /* Update Shadow Divider Value Register with new divider */
ARM GAS  C:\Users\ingan\AppData\Local\Temp\ccwaQbAc.s 			page 18


 742:Generated_Source\PSoC5/CyLib.c ****     CY_LIB_CLKDIST_WRK_LSB_REG = LO8(divider);
 220              		.loc 1 742 0
 221 001a C2B2     		uxtb	r2, r0
 222 001c 084B     		ldr	r3, .L19+12
 223 001e 1A70     		strb	r2, [r3]
 743:Generated_Source\PSoC5/CyLib.c ****     CY_LIB_CLKDIST_WRK_MSB_REG = HI8(divider);
 224              		.loc 1 743 0
 225 0020 000A     		lsrs	r0, r0, #8
 226              	.LVL4:
 227 0022 0133     		adds	r3, r3, #1
 228 0024 1870     		strb	r0, [r3]
 744:Generated_Source\PSoC5/CyLib.c **** 
 745:Generated_Source\PSoC5/CyLib.c **** 
 746:Generated_Source\PSoC5/CyLib.c ****     /***************************************************************************
 747:Generated_Source\PSoC5/CyLib.c ****     * Copy shadow value defined in Shadow Divider Value Register
 748:Generated_Source\PSoC5/CyLib.c ****     * (CY_LIB_CLKDIST_WRK_LSB_REG and CY_LIB_CLKDIST_WRK_MSB_REG) to all
 749:Generated_Source\PSoC5/CyLib.c ****     * dividers selected in Analog and Digital Clock Mask Registers
 750:Generated_Source\PSoC5/CyLib.c ****     * (CY_LIB_CLKDIST_AMASK_REG and CY_LIB_CLKDIST_DMASK_REG).
 751:Generated_Source\PSoC5/CyLib.c ****     ***************************************************************************/
 752:Generated_Source\PSoC5/CyLib.c ****     CY_LIB_CLKDIST_LD_REG |= CY_LIB_CLKDIST_LD_LOAD;
 229              		.loc 1 752 0
 230 0026 074A     		ldr	r2, .L19+16
 231 0028 1378     		ldrb	r3, [r2]	@ zero_extendqisi2
 232 002a 43F00103 		orr	r3, r3, #1
 233 002e 1370     		strb	r3, [r2]
 234 0030 7047     		bx	lr
 235              	.L20:
 236 0032 00BF     		.align	2
 237              	.L19:
 238 0034 14400040 		.word	1073758228
 239 0038 10400040 		.word	1073758224
 240 003c 08400040 		.word	1073758216
 241 0040 02400040 		.word	1073758210
 242 0044 01400040 		.word	1073758209
 243              		.cfi_endproc
 244              	.LFE14:
 245              		.size	CyBusClk_Internal_SetDivider, .-CyBusClk_Internal_SetDivider
 246              		.section	.text.CyPLL_OUT_Stop,"ax",%progbits
 247              		.align	2
 248              		.global	CyPLL_OUT_Stop
 249              		.thumb
 250              		.thumb_func
 251              		.type	CyPLL_OUT_Stop, %function
 252              	CyPLL_OUT_Stop:
 253              	.LFB1:
 155:Generated_Source\PSoC5/CyLib.c ****     CY_CLK_PLL_CFG0_REG &= ((uint8)(~CY_CLK_PLL_ENABLE));
 254              		.loc 1 155 0
 255              		.cfi_startproc
 256              		@ args = 0, pretend = 0, frame = 0
 257              		@ frame_needed = 0, uses_anonymous_args = 0
 258              		@ link register save eliminated.
 156:Generated_Source\PSoC5/CyLib.c **** }
 259              		.loc 1 156 0
 260 0000 024A     		ldr	r2, .L22
 261 0002 1378     		ldrb	r3, [r2]	@ zero_extendqisi2
 262 0004 03F0FE03 		and	r3, r3, #254
 263 0008 1370     		strb	r3, [r2]
ARM GAS  C:\Users\ingan\AppData\Local\Temp\ccwaQbAc.s 			page 19


 264 000a 7047     		bx	lr
 265              	.L23:
 266              		.align	2
 267              	.L22:
 268 000c 20420040 		.word	1073758752
 269              		.cfi_endproc
 270              	.LFE1:
 271              		.size	CyPLL_OUT_Stop, .-CyPLL_OUT_Stop
 272              		.section	.text.CyPLL_OUT_SetPQ,"ax",%progbits
 273              		.align	2
 274              		.global	CyPLL_OUT_SetPQ
 275              		.thumb
 276              		.thumb_func
 277              		.type	CyPLL_OUT_SetPQ, %function
 278              	CyPLL_OUT_SetPQ:
 279              	.LFB2:
 188:Generated_Source\PSoC5/CyLib.c ****     /* Halt CPU in debug mode if PLL is enabled */
 280              		.loc 1 188 0
 281              		.cfi_startproc
 282              		@ args = 0, pretend = 0, frame = 0
 283              		@ frame_needed = 0, uses_anonymous_args = 0
 284              		@ link register save eliminated.
 285              	.LVL5:
 192:Generated_Source\PSoC5/CyLib.c ****        (qDiv    <= CY_CLK_PLL_MAX_Q_VALUE  ) && (qDiv    >= CY_CLK_PLL_MIN_Q_VALUE  ) &&
 286              		.loc 1 192 0
 287 0000 0728     		cmp	r0, #7
 288 0002 13D9     		bls	.L24
 193:Generated_Source\PSoC5/CyLib.c ****        (current >= CY_CLK_PLL_MIN_CUR_VALUE) && (current <= CY_CLK_PLL_MAX_CUR_VALUE))
 289              		.loc 1 193 0
 290 0004 0139     		subs	r1, r1, #1
 291              	.LVL6:
 292 0006 C9B2     		uxtb	r1, r1
 293 0008 0F29     		cmp	r1, #15
 294 000a 0FD8     		bhi	.L24
 193:Generated_Source\PSoC5/CyLib.c ****        (current >= CY_CLK_PLL_MIN_CUR_VALUE) && (current <= CY_CLK_PLL_MAX_CUR_VALUE))
 295              		.loc 1 193 0 is_stmt 0 discriminator 1
 296 000c 013A     		subs	r2, r2, #1
 297              	.LVL7:
 298 000e D2B2     		uxtb	r2, r2
 299 0010 062A     		cmp	r2, #6
 300 0012 0BD8     		bhi	.L24
 197:Generated_Source\PSoC5/CyLib.c ****         CY_CLK_PLL_Q_REG = ((uint8)(qDiv - 1u));
 301              		.loc 1 197 0 is_stmt 1
 302 0014 064B     		ldr	r3, .L26
 303 0016 1870     		strb	r0, [r3]
 198:Generated_Source\PSoC5/CyLib.c ****         CY_CLK_PLL_CFG1_REG = (CY_CLK_PLL_CFG1_REG & CY_CLK_PLL_CURRENT_MASK) |
 304              		.loc 1 198 0
 305 0018 0133     		adds	r3, r3, #1
 306 001a 1970     		strb	r1, [r3]
 199:Generated_Source\PSoC5/CyLib.c ****                                 ((uint8)(((uint8)(current - 1u)) << CY_CLK_PLL_CURRENT_POSITION));
 307              		.loc 1 199 0
 308 001c 0549     		ldr	r1, .L26+4
 309 001e 0B78     		ldrb	r3, [r1]	@ zero_extendqisi2
 310 0020 03F08F03 		and	r3, r3, #143
 311 0024 43EA0212 		orr	r2, r3, r2, lsl #4
 312 0028 D2B2     		uxtb	r2, r2
 313 002a 0A70     		strb	r2, [r1]
ARM GAS  C:\Users\ingan\AppData\Local\Temp\ccwaQbAc.s 			page 20


 314              	.L24:
 315 002c 7047     		bx	lr
 316              	.L27:
 317 002e 00BF     		.align	2
 318              	.L26:
 319 0030 22420040 		.word	1073758754
 320 0034 21420040 		.word	1073758753
 321              		.cfi_endproc
 322              	.LFE2:
 323              		.size	CyPLL_OUT_SetPQ, .-CyPLL_OUT_SetPQ
 324              		.section	.text.CyPLL_OUT_SetSource,"ax",%progbits
 325              		.align	2
 326              		.global	CyPLL_OUT_SetSource
 327              		.thumb
 328              		.thumb_func
 329              		.type	CyPLL_OUT_SetSource, %function
 330              	CyPLL_OUT_SetSource:
 331              	.LFB3:
 238:Generated_Source\PSoC5/CyLib.c ****     /* Halt CPU in debug mode if PLL is enabled */
 332              		.loc 1 238 0
 333              		.cfi_startproc
 334              		@ args = 0, pretend = 0, frame = 0
 335              		@ frame_needed = 0, uses_anonymous_args = 0
 336              		@ link register save eliminated.
 337              	.LVL8:
 242:Generated_Source\PSoC5/CyLib.c ****     {
 338              		.loc 1 242 0
 339 0000 0228     		cmp	r0, #2
 340 0002 06D8     		bhi	.L28
 247:Generated_Source\PSoC5/CyLib.c ****         break;
 341              		.loc 1 247 0
 342 0004 4FF04022 		mov	r2, #1073758208
 343 0008 1378     		ldrb	r3, [r2]	@ zero_extendqisi2
 344 000a 03F0FC03 		and	r3, r3, #252
 345 000e 1843     		orrs	r0, r0, r3
 346              	.LVL9:
 347 0010 1070     		strb	r0, [r2]
 348              	.L28:
 349 0012 7047     		bx	lr
 350              		.cfi_endproc
 351              	.LFE3:
 352              		.size	CyPLL_OUT_SetSource, .-CyPLL_OUT_SetSource
 353              		.section	.text.CyIMO_Stop,"ax",%progbits
 354              		.align	2
 355              		.global	CyIMO_Stop
 356              		.thumb
 357              		.thumb_func
 358              		.type	CyIMO_Stop, %function
 359              	CyIMO_Stop:
 360              	.LFB5:
 325:Generated_Source\PSoC5/CyLib.c ****     CY_LIB_PM_ACT_CFG0_REG  &= ((uint8) (~CY_LIB_PM_ACT_CFG0_IMO_EN));
 361              		.loc 1 325 0
 362              		.cfi_startproc
 363              		@ args = 0, pretend = 0, frame = 0
 364              		@ frame_needed = 0, uses_anonymous_args = 0
 365              		@ link register save eliminated.
 326:Generated_Source\PSoC5/CyLib.c ****     CY_LIB_PM_STBY_CFG0_REG &= ((uint8) (~CY_LIB_PM_STBY_CFG0_IMO_EN));
ARM GAS  C:\Users\ingan\AppData\Local\Temp\ccwaQbAc.s 			page 21


 366              		.loc 1 326 0
 367 0000 054A     		ldr	r2, .L32
 368 0002 1378     		ldrb	r3, [r2]	@ zero_extendqisi2
 369 0004 03F0EF03 		and	r3, r3, #239
 370 0008 1370     		strb	r3, [r2]
 327:Generated_Source\PSoC5/CyLib.c **** }
 371              		.loc 1 327 0
 372 000a 1032     		adds	r2, r2, #16
 373 000c 1378     		ldrb	r3, [r2]	@ zero_extendqisi2
 374 000e 03F0EF03 		and	r3, r3, #239
 375 0012 1370     		strb	r3, [r2]
 376 0014 7047     		bx	lr
 377              	.L33:
 378 0016 00BF     		.align	2
 379              	.L32:
 380 0018 A0430040 		.word	1073759136
 381              		.cfi_endproc
 382              	.LFE5:
 383              		.size	CyIMO_Stop, .-CyIMO_Stop
 384              		.section	.text.CyIMO_SetSource,"ax",%progbits
 385              		.align	2
 386              		.global	CyIMO_SetSource
 387              		.thumb
 388              		.thumb_func
 389              		.type	CyIMO_SetSource, %function
 390              	CyIMO_SetSource:
 391              	.LFB9:
 608:Generated_Source\PSoC5/CyLib.c ****     switch(source)
 392              		.loc 1 608 0
 393              		.cfi_startproc
 394              		@ args = 0, pretend = 0, frame = 0
 395              		@ frame_needed = 0, uses_anonymous_args = 0
 396              		@ link register save eliminated.
 397              	.LVL10:
 609:Generated_Source\PSoC5/CyLib.c ****     {
 398              		.loc 1 609 0
 399 0000 0128     		cmp	r0, #1
 400 0002 0FD0     		beq	.L36
 401 0004 D8B1     		cbz	r0, .L37
 402 0006 0228     		cmp	r0, #2
 403 0008 1ED1     		bne	.L34
 612:Generated_Source\PSoC5/CyLib.c ****         CY_LIB_FASTCLK_IMO_CR_REG |= CY_LIB_FASTCLK_IMO_IMO;
 404              		.loc 1 612 0
 405 000a 4FF04022 		mov	r2, #1073758208
 406 000e 1378     		ldrb	r3, [r2]	@ zero_extendqisi2
 407 0010 03F0BF03 		and	r3, r3, #191
 408 0014 1370     		strb	r3, [r2]
 613:Generated_Source\PSoC5/CyLib.c ****         break;
 409              		.loc 1 613 0
 410 0016 02F50072 		add	r2, r2, #512
 411 001a 1378     		ldrb	r3, [r2]	@ zero_extendqisi2
 412 001c 43F02003 		orr	r3, r3, #32
 413 0020 1370     		strb	r3, [r2]
 614:Generated_Source\PSoC5/CyLib.c **** 
 414              		.loc 1 614 0
 415 0022 7047     		bx	lr
 416              	.L36:
ARM GAS  C:\Users\ingan\AppData\Local\Temp\ccwaQbAc.s 			page 22


 617:Generated_Source\PSoC5/CyLib.c ****         CY_LIB_FASTCLK_IMO_CR_REG |= CY_LIB_FASTCLK_IMO_IMO;
 417              		.loc 1 617 0
 418 0024 4FF04022 		mov	r2, #1073758208
 419 0028 1378     		ldrb	r3, [r2]	@ zero_extendqisi2
 420 002a 43F04003 		orr	r3, r3, #64
 421 002e 1370     		strb	r3, [r2]
 618:Generated_Source\PSoC5/CyLib.c ****         break;
 422              		.loc 1 618 0
 423 0030 02F50072 		add	r2, r2, #512
 424 0034 1378     		ldrb	r3, [r2]	@ zero_extendqisi2
 425 0036 43F02003 		orr	r3, r3, #32
 426 003a 1370     		strb	r3, [r2]
 619:Generated_Source\PSoC5/CyLib.c **** 
 427              		.loc 1 619 0
 428 003c 7047     		bx	lr
 429              	.L37:
 622:Generated_Source\PSoC5/CyLib.c ****         break;
 430              		.loc 1 622 0
 431 003e 034A     		ldr	r2, .L39
 432 0040 1378     		ldrb	r3, [r2]	@ zero_extendqisi2
 433 0042 03F0DF03 		and	r3, r3, #223
 434 0046 1370     		strb	r3, [r2]
 435              	.L34:
 436 0048 7047     		bx	lr
 437              	.L40:
 438 004a 00BF     		.align	2
 439              	.L39:
 440 004c 00420040 		.word	1073758720
 441              		.cfi_endproc
 442              	.LFE9:
 443              		.size	CyIMO_SetSource, .-CyIMO_SetSource
 444              		.section	.text.CyIMO_EnableDoubler,"ax",%progbits
 445              		.align	2
 446              		.global	CyIMO_EnableDoubler
 447              		.thumb
 448              		.thumb_func
 449              		.type	CyIMO_EnableDoubler, %function
 450              	CyIMO_EnableDoubler:
 451              	.LFB10:
 642:Generated_Source\PSoC5/CyLib.c ****     /* Set FASTCLK_IMO_CR_PTR regigster's 4th bit */
 452              		.loc 1 642 0
 453              		.cfi_startproc
 454              		@ args = 0, pretend = 0, frame = 0
 455              		@ frame_needed = 0, uses_anonymous_args = 0
 456              		@ link register save eliminated.
 644:Generated_Source\PSoC5/CyLib.c **** }
 457              		.loc 1 644 0
 458 0000 024A     		ldr	r2, .L42
 459 0002 1378     		ldrb	r3, [r2]	@ zero_extendqisi2
 460 0004 43F01003 		orr	r3, r3, #16
 461 0008 1370     		strb	r3, [r2]
 462 000a 7047     		bx	lr
 463              	.L43:
 464              		.align	2
 465              	.L42:
 466 000c 00420040 		.word	1073758720
 467              		.cfi_endproc
ARM GAS  C:\Users\ingan\AppData\Local\Temp\ccwaQbAc.s 			page 23


 468              	.LFE10:
 469              		.size	CyIMO_EnableDoubler, .-CyIMO_EnableDoubler
 470              		.section	.text.CyIMO_DisableDoubler,"ax",%progbits
 471              		.align	2
 472              		.global	CyIMO_DisableDoubler
 473              		.thumb
 474              		.thumb_func
 475              		.type	CyIMO_DisableDoubler, %function
 476              	CyIMO_DisableDoubler:
 477              	.LFB11:
 656:Generated_Source\PSoC5/CyLib.c ****     CY_LIB_FASTCLK_IMO_CR_REG &= ((uint8)(~CY_LIB_FASTCLK_IMO_DOUBLER));
 478              		.loc 1 656 0
 479              		.cfi_startproc
 480              		@ args = 0, pretend = 0, frame = 0
 481              		@ frame_needed = 0, uses_anonymous_args = 0
 482              		@ link register save eliminated.
 657:Generated_Source\PSoC5/CyLib.c **** }
 483              		.loc 1 657 0
 484 0000 024A     		ldr	r2, .L45
 485 0002 1378     		ldrb	r3, [r2]	@ zero_extendqisi2
 486 0004 03F0EF03 		and	r3, r3, #239
 487 0008 1370     		strb	r3, [r2]
 488 000a 7047     		bx	lr
 489              	.L46:
 490              		.align	2
 491              	.L45:
 492 000c 00420040 		.word	1073758720
 493              		.cfi_endproc
 494              	.LFE11:
 495              		.size	CyIMO_DisableDoubler, .-CyIMO_DisableDoubler
 496              		.section	.text.CyIMO_SetFreq,"ax",%progbits
 497              		.align	2
 498              		.global	CyIMO_SetFreq
 499              		.thumb
 500              		.thumb_func
 501              		.type	CyIMO_SetFreq, %function
 502              	CyIMO_SetFreq:
 503              	.LFB8:
 458:Generated_Source\PSoC5/CyLib.c ****     uint8 currentFreq;
 504              		.loc 1 458 0
 505              		.cfi_startproc
 506              		@ args = 0, pretend = 0, frame = 0
 507              		@ frame_needed = 0, uses_anonymous_args = 0
 508              	.LVL11:
 509 0000 70B5     		push	{r4, r5, r6, lr}
 510              		.cfi_def_cfa_offset 16
 511              		.cfi_offset 4, -16
 512              		.cfi_offset 5, -12
 513              		.cfi_offset 6, -8
 514              		.cfi_offset 14, -4
 515 0002 0546     		mov	r5, r0
 469:Generated_Source\PSoC5/CyLib.c **** 
 516              		.loc 1 469 0
 517 0004 354B     		ldr	r3, .L72
 518 0006 1C78     		ldrb	r4, [r3]	@ zero_extendqisi2
 519 0008 04F00704 		and	r4, r4, #7
 520              	.LVL12:
ARM GAS  C:\Users\ingan\AppData\Local\Temp\ccwaQbAc.s 			page 24


 472:Generated_Source\PSoC5/CyLib.c **** 
 521              		.loc 1 472 0
 522 000c 0828     		cmp	r0, #8
 523 000e 14BF     		ite	ne
 524 0010 0646     		movne	r6, r0
 525 0012 0326     		moveq	r6, #3
 526              	.LVL13:
 474:Generated_Source\PSoC5/CyLib.c ****     {
 527              		.loc 1 474 0
 528 0014 022C     		cmp	r4, #2
 529 0016 05D0     		beq	.L50
 474:Generated_Source\PSoC5/CyLib.c ****     {
 530              		.loc 1 474 0 is_stmt 0 discriminator 4
 531 0018 032C     		cmp	r4, #3
 532 001a 07D0     		beq	.L70
 477:Generated_Source\PSoC5/CyLib.c ****         break;
 533              		.loc 1 477 0 is_stmt 1 discriminator 4
 534 001c 002C     		cmp	r4, #0
 535 001e 08BF     		it	eq
 536 0020 0224     		moveq	r4, #2
 537              	.LVL14:
 538 0022 00E0     		b	.L49
 539              	.LVL15:
 540              	.L50:
 485:Generated_Source\PSoC5/CyLib.c ****         break;
 541              		.loc 1 485 0
 542 0024 0324     		movs	r4, #3
 543              	.LVL16:
 544              	.L49:
 511:Generated_Source\PSoC5/CyLib.c ****     {
 545              		.loc 1 511 0
 546 0026 B442     		cmp	r4, r6
 547 0028 04D8     		bhi	.L53
 548 002a 00E0     		b	.L51
 549              	.L70:
 489:Generated_Source\PSoC5/CyLib.c ****         break;
 550              		.loc 1 489 0
 551 002c 0024     		movs	r4, #0
 552              	.LVL17:
 553              	.L51:
 514:Generated_Source\PSoC5/CyLib.c ****     }
 554              		.loc 1 514 0
 555 002e 2846     		mov	r0, r5
 556              	.LVL18:
 557 0030 FFF7FEFF 		bl	CyIMO_SetTrimValue
 558              	.LVL19:
 559              	.L53:
 518:Generated_Source\PSoC5/CyLib.c ****     {
 560              		.loc 1 518 0
 561 0034 082D     		cmp	r5, #8
 562 0036 44D8     		bhi	.L54
 563 0038 DFE805F0 		tbb	[pc, r5]
 564              	.L56:
 565 003c 05       		.byte	(.L55-.L56)/2
 566 003d 0D       		.byte	(.L57-.L56)/2
 567 003e 15       		.byte	(.L58-.L56)/2
 568 003f 1B       		.byte	(.L59-.L56)/2
ARM GAS  C:\Users\ingan\AppData\Local\Temp\ccwaQbAc.s 			page 25


 569 0040 23       		.byte	(.L60-.L56)/2
 570 0041 2B       		.byte	(.L61-.L56)/2
 571 0042 33       		.byte	(.L62-.L56)/2
 572 0043 43       		.byte	(.L54-.L56)/2
 573 0044 3B       		.byte	(.L63-.L56)/2
 574 0045 00       		.p2align 1
 575              	.L55:
 521:Generated_Source\PSoC5/CyLib.c ****             CY_LIB_IMO_3MHZ_VALUE) & ((uint8)(~CY_LIB_IMO_USBCLK_ON_SET));
 576              		.loc 1 521 0
 577 0046 254A     		ldr	r2, .L72
 578 0048 1378     		ldrb	r3, [r2]	@ zero_extendqisi2
 579 004a 03F0B803 		and	r3, r3, #184
 580 004e 43F00303 		orr	r3, r3, #3
 581 0052 1370     		strb	r3, [r2]
 523:Generated_Source\PSoC5/CyLib.c **** 
 582              		.loc 1 523 0
 583 0054 3AE0     		b	.L66
 584              	.L57:
 526:Generated_Source\PSoC5/CyLib.c ****             CY_LIB_IMO_6MHZ_VALUE) & ((uint8)(~CY_LIB_IMO_USBCLK_ON_SET));
 585              		.loc 1 526 0
 586 0056 214A     		ldr	r2, .L72
 587 0058 1378     		ldrb	r3, [r2]	@ zero_extendqisi2
 588 005a 03F0B803 		and	r3, r3, #184
 589 005e 43F00103 		orr	r3, r3, #1
 590 0062 1370     		strb	r3, [r2]
 528:Generated_Source\PSoC5/CyLib.c **** 
 591              		.loc 1 528 0
 592 0064 32E0     		b	.L66
 593              	.L58:
 531:Generated_Source\PSoC5/CyLib.c ****             CY_LIB_IMO_12MHZ_VALUE) & ((uint8)(~CY_LIB_IMO_USBCLK_ON_SET));
 594              		.loc 1 531 0
 595 0066 1D4A     		ldr	r2, .L72
 596 0068 1378     		ldrb	r3, [r2]	@ zero_extendqisi2
 597 006a 03F0B803 		and	r3, r3, #184
 598 006e 1370     		strb	r3, [r2]
 533:Generated_Source\PSoC5/CyLib.c **** 
 599              		.loc 1 533 0
 600 0070 2CE0     		b	.L66
 601              	.L59:
 536:Generated_Source\PSoC5/CyLib.c ****             CY_LIB_IMO_24MHZ_VALUE) & ((uint8)(~CY_LIB_IMO_USBCLK_ON_SET));
 602              		.loc 1 536 0
 603 0072 1A4A     		ldr	r2, .L72
 604 0074 1378     		ldrb	r3, [r2]	@ zero_extendqisi2
 605 0076 03F0B803 		and	r3, r3, #184
 606 007a 43F00203 		orr	r3, r3, #2
 607 007e 1370     		strb	r3, [r2]
 538:Generated_Source\PSoC5/CyLib.c **** 
 608              		.loc 1 538 0
 609 0080 24E0     		b	.L66
 610              	.L60:
 541:Generated_Source\PSoC5/CyLib.c ****             CY_LIB_IMO_48MHZ_VALUE) & ((uint8)(~CY_LIB_IMO_USBCLK_ON_SET));
 611              		.loc 1 541 0
 612 0082 164A     		ldr	r2, .L72
 613 0084 1378     		ldrb	r3, [r2]	@ zero_extendqisi2
 614 0086 03F0B803 		and	r3, r3, #184
 615 008a 43F00403 		orr	r3, r3, #4
 616 008e 1370     		strb	r3, [r2]
ARM GAS  C:\Users\ingan\AppData\Local\Temp\ccwaQbAc.s 			page 26


 543:Generated_Source\PSoC5/CyLib.c **** 
 617              		.loc 1 543 0
 618 0090 1CE0     		b	.L66
 619              	.L61:
 546:Generated_Source\PSoC5/CyLib.c ****             CY_LIB_IMO_62MHZ_VALUE) & ((uint8)(~CY_LIB_IMO_USBCLK_ON_SET));
 620              		.loc 1 546 0
 621 0092 124A     		ldr	r2, .L72
 622 0094 1378     		ldrb	r3, [r2]	@ zero_extendqisi2
 623 0096 03F0B803 		and	r3, r3, #184
 624 009a 43F00503 		orr	r3, r3, #5
 625 009e 1370     		strb	r3, [r2]
 548:Generated_Source\PSoC5/CyLib.c **** 
 626              		.loc 1 548 0
 627 00a0 14E0     		b	.L66
 628              	.L62:
 552:Generated_Source\PSoC5/CyLib.c ****             CY_LIB_IMO_74MHZ_VALUE) & ((uint8)(~CY_LIB_IMO_USBCLK_ON_SET));
 629              		.loc 1 552 0
 630 00a2 0E4A     		ldr	r2, .L72
 631 00a4 1378     		ldrb	r3, [r2]	@ zero_extendqisi2
 632 00a6 03F0B803 		and	r3, r3, #184
 633 00aa 43F00603 		orr	r3, r3, #6
 634 00ae 1370     		strb	r3, [r2]
 554:Generated_Source\PSoC5/CyLib.c **** #endif  /* (CY_PSOC5) */
 635              		.loc 1 554 0
 636 00b0 0CE0     		b	.L66
 637              	.L63:
 558:Generated_Source\PSoC5/CyLib.c ****             CY_LIB_IMO_24MHZ_VALUE) | CY_LIB_IMO_USBCLK_ON_SET;
 638              		.loc 1 558 0
 639 00b2 0A4A     		ldr	r2, .L72
 640 00b4 1378     		ldrb	r3, [r2]	@ zero_extendqisi2
 641 00b6 03F0B803 		and	r3, r3, #184
 642 00ba 43F04203 		orr	r3, r3, #66
 643 00be 1370     		strb	r3, [r2]
 644 00c0 01E0     		b	.L65
 645              	.L54:
 568:Generated_Source\PSoC5/CyLib.c ****     {
 646              		.loc 1 568 0
 647 00c2 082D     		cmp	r5, #8
 648 00c4 02D1     		bne	.L66
 649              	.L65:
 570:Generated_Source\PSoC5/CyLib.c ****     }
 650              		.loc 1 570 0
 651 00c6 FFF7FEFF 		bl	CyIMO_EnableDoubler
 652              	.LVL20:
 653 00ca 01E0     		b	.L67
 654              	.L66:
 574:Generated_Source\PSoC5/CyLib.c ****     }
 655              		.loc 1 574 0
 656 00cc FFF7FEFF 		bl	CyIMO_DisableDoubler
 657              	.LVL21:
 658              	.L67:
 577:Generated_Source\PSoC5/CyLib.c ****     {
 659              		.loc 1 577 0
 660 00d0 A642     		cmp	r6, r4
 661 00d2 02D2     		bcs	.L47
 580:Generated_Source\PSoC5/CyLib.c ****     }
 662              		.loc 1 580 0
ARM GAS  C:\Users\ingan\AppData\Local\Temp\ccwaQbAc.s 			page 27


 663 00d4 2846     		mov	r0, r5
 664 00d6 FFF7FEFF 		bl	CyIMO_SetTrimValue
 665              	.LVL22:
 666              	.L47:
 667 00da 70BD     		pop	{r4, r5, r6, pc}
 668              	.LVL23:
 669              	.L73:
 670              		.align	2
 671              	.L72:
 672 00dc 00420040 		.word	1073758720
 673              		.cfi_endproc
 674              	.LFE8:
 675              		.size	CyIMO_SetFreq, .-CyIMO_SetFreq
 676              		.section	.text.CyMasterClk_SetSource,"ax",%progbits
 677              		.align	2
 678              		.global	CyMasterClk_SetSource
 679              		.thumb
 680              		.thumb_func
 681              		.type	CyMasterClk_SetSource, %function
 682              	CyMasterClk_SetSource:
 683              	.LFB12:
 686:Generated_Source\PSoC5/CyLib.c ****     CY_LIB_CLKDIST_MSTR1_REG = (CY_LIB_CLKDIST_MSTR1_REG & MASTER_CLK_SRC_CLEAR) |
 684              		.loc 1 686 0
 685              		.cfi_startproc
 686              		@ args = 0, pretend = 0, frame = 0
 687              		@ frame_needed = 0, uses_anonymous_args = 0
 688              		@ link register save eliminated.
 689              	.LVL24:
 687:Generated_Source\PSoC5/CyLib.c ****                                 (source & ((uint8)(~MASTER_CLK_SRC_CLEAR)));
 690              		.loc 1 687 0
 691 0000 044A     		ldr	r2, .L75
 692 0002 1378     		ldrb	r3, [r2]	@ zero_extendqisi2
 693 0004 03F0FC03 		and	r3, r3, #252
 694 0008 00F00300 		and	r0, r0, #3
 695              	.LVL25:
 696 000c 1843     		orrs	r0, r0, r3
 697 000e 1070     		strb	r0, [r2]
 698 0010 7047     		bx	lr
 699              	.L76:
 700 0012 00BF     		.align	2
 701              	.L75:
 702 0014 05400040 		.word	1073758213
 703              		.cfi_endproc
 704              	.LFE12:
 705              		.size	CyMasterClk_SetSource, .-CyMasterClk_SetSource
 706              		.section	.text.CyMasterClk_SetDivider,"ax",%progbits
 707              		.align	2
 708              		.global	CyMasterClk_SetDivider
 709              		.thumb
 710              		.thumb_func
 711              		.type	CyMasterClk_SetDivider, %function
 712              	CyMasterClk_SetDivider:
 713              	.LFB13:
 716:Generated_Source\PSoC5/CyLib.c ****     CY_LIB_CLKDIST_MSTR0_REG = divider;
 714              		.loc 1 716 0
 715              		.cfi_startproc
 716              		@ args = 0, pretend = 0, frame = 0
ARM GAS  C:\Users\ingan\AppData\Local\Temp\ccwaQbAc.s 			page 28


 717              		@ frame_needed = 0, uses_anonymous_args = 0
 718              		@ link register save eliminated.
 719              	.LVL26:
 717:Generated_Source\PSoC5/CyLib.c **** }
 720              		.loc 1 717 0
 721 0000 014B     		ldr	r3, .L78
 722 0002 1870     		strb	r0, [r3]
 723 0004 7047     		bx	lr
 724              	.L79:
 725 0006 00BF     		.align	2
 726              	.L78:
 727 0008 04400040 		.word	1073758212
 728              		.cfi_endproc
 729              	.LFE13:
 730              		.size	CyMasterClk_SetDivider, .-CyMasterClk_SetDivider
 731              		.section	.text.CyBusClk_SetDivider,"ax",%progbits
 732              		.align	2
 733              		.global	CyBusClk_SetDivider
 734              		.thumb
 735              		.thumb_func
 736              		.type	CyBusClk_SetDivider, %function
 737              	CyBusClk_SetDivider:
 738              	.LFB15:
 753:Generated_Source\PSoC5/CyLib.c **** }
 754:Generated_Source\PSoC5/CyLib.c **** 
 755:Generated_Source\PSoC5/CyLib.c **** 
 756:Generated_Source\PSoC5/CyLib.c **** /*******************************************************************************
 757:Generated_Source\PSoC5/CyLib.c **** * Function Name: CyBusClk_SetDivider
 758:Generated_Source\PSoC5/CyLib.c **** ****************************************************************************//**
 759:Generated_Source\PSoC5/CyLib.c **** *
 760:Generated_Source\PSoC5/CyLib.c **** *  Sets the divider value used to generate the Bus Clock.
 761:Generated_Source\PSoC5/CyLib.c **** *
 762:Generated_Source\PSoC5/CyLib.c **** *  \param divider: Valid range [0-65535]. The clock will be divided by this value + 1.
 763:Generated_Source\PSoC5/CyLib.c **** *  For example, to divide this parameter by two should be set to 1.
 764:Generated_Source\PSoC5/CyLib.c **** *
 765:Generated_Source\PSoC5/CyLib.c **** * \sideeffect
 766:Generated_Source\PSoC5/CyLib.c **** *  If this function execution resulted in the CPU clock frequency increasing,
 767:Generated_Source\PSoC5/CyLib.c **** *  then the number of clock cycles the cache will wait before it samples data
 768:Generated_Source\PSoC5/CyLib.c **** *  coming back from the Flash must be adjusted by calling
 769:Generated_Source\PSoC5/CyLib.c **** *  CyFlash_SetWaitCycles() with an appropriate parameter. It can be optionally
 770:Generated_Source\PSoC5/CyLib.c **** *  called if the CPU clock frequency is lowered in order to improve the CPU
 771:Generated_Source\PSoC5/CyLib.c **** *  performance. See CyFlash_SetWaitCycles() description for more information.
 772:Generated_Source\PSoC5/CyLib.c **** *
 773:Generated_Source\PSoC5/CyLib.c **** *******************************************************************************/
 774:Generated_Source\PSoC5/CyLib.c **** void CyBusClk_SetDivider(uint16 divider) 
 775:Generated_Source\PSoC5/CyLib.c **** {
 739              		.loc 1 775 0
 740              		.cfi_startproc
 741              		@ args = 0, pretend = 0, frame = 0
 742              		@ frame_needed = 0, uses_anonymous_args = 0
 743              	.LVL27:
 744 0000 70B5     		push	{r4, r5, r6, lr}
 745              		.cfi_def_cfa_offset 16
 746              		.cfi_offset 4, -16
 747              		.cfi_offset 5, -12
 748              		.cfi_offset 6, -8
 749              		.cfi_offset 14, -4
ARM GAS  C:\Users\ingan\AppData\Local\Temp\ccwaQbAc.s 			page 29


 750 0002 0546     		mov	r5, r0
 776:Generated_Source\PSoC5/CyLib.c ****     uint8  masterClkDiv;
 777:Generated_Source\PSoC5/CyLib.c ****     uint16 busClkDiv;
 778:Generated_Source\PSoC5/CyLib.c ****     uint8 interruptState;
 779:Generated_Source\PSoC5/CyLib.c **** 
 780:Generated_Source\PSoC5/CyLib.c ****     interruptState = CyEnterCriticalSection();
 751              		.loc 1 780 0
 752 0004 FFF7FEFF 		bl	CyEnterCriticalSection
 753              	.LVL28:
 754 0008 0646     		mov	r6, r0
 755              	.LVL29:
 781:Generated_Source\PSoC5/CyLib.c **** 
 782:Generated_Source\PSoC5/CyLib.c ****     /* Work around to set bus clock divider value */
 783:Generated_Source\PSoC5/CyLib.c ****     busClkDiv = (uint16)((uint16)CY_LIB_CLKDIST_BCFG_MSB_REG << 8u);
 756              		.loc 1 783 0
 757 000a 1D4B     		ldr	r3, .L93
 758 000c 1B78     		ldrb	r3, [r3]	@ zero_extendqisi2
 759 000e DAB2     		uxtb	r2, r3
 760              	.LVL30:
 784:Generated_Source\PSoC5/CyLib.c ****     busClkDiv |= CY_LIB_CLKDIST_BCFG_LSB_REG;
 761              		.loc 1 784 0
 762 0010 1C4B     		ldr	r3, .L93+4
 763 0012 1B78     		ldrb	r3, [r3]	@ zero_extendqisi2
 764              	.LVL31:
 785:Generated_Source\PSoC5/CyLib.c **** 
 786:Generated_Source\PSoC5/CyLib.c ****     if ((divider == 0u) || (busClkDiv == 0u))
 765              		.loc 1 786 0
 766 0014 FDB1     		cbz	r5, .L81
 767 0016 DBB2     		uxtb	r3, r3
 768              		.loc 1 786 0 is_stmt 0 discriminator 1
 769 0018 53EA0223 		orrs	r3, r3, r2, lsl #8
 770              	.LVL32:
 771 001c 21D0     		beq	.L82
 772 001e 13E0     		b	.L90
 773              	.LVL33:
 774              	.L87:
 787:Generated_Source\PSoC5/CyLib.c ****     {
 788:Generated_Source\PSoC5/CyLib.c ****         /* Save away master clock divider value */
 789:Generated_Source\PSoC5/CyLib.c ****         masterClkDiv = CY_LIB_CLKDIST_MSTR0_REG;
 790:Generated_Source\PSoC5/CyLib.c **** 
 791:Generated_Source\PSoC5/CyLib.c ****         if (masterClkDiv < CY_LIB_CLKDIST_MASTERCLK_DIV)
 792:Generated_Source\PSoC5/CyLib.c ****         {
 793:Generated_Source\PSoC5/CyLib.c ****             /* Set master clock divider to 7 */
 794:Generated_Source\PSoC5/CyLib.c ****             CyMasterClk_SetDivider(CY_LIB_CLKDIST_MASTERCLK_DIV);
 795:Generated_Source\PSoC5/CyLib.c ****         }
 796:Generated_Source\PSoC5/CyLib.c **** 
 797:Generated_Source\PSoC5/CyLib.c ****         if (divider == 0u)
 798:Generated_Source\PSoC5/CyLib.c ****         {
 799:Generated_Source\PSoC5/CyLib.c ****             /* Set SSS bit and divider register desired value */
 800:Generated_Source\PSoC5/CyLib.c ****             CY_LIB_CLKDIST_BCFG2_REG |= CY_LIB_CLKDIST_BCFG2_SSS;
 775              		.loc 1 800 0 is_stmt 1
 776 0020 194A     		ldr	r2, .L93+8
 777 0022 1378     		ldrb	r3, [r2]	@ zero_extendqisi2
 778 0024 43F04003 		orr	r3, r3, #64
 779 0028 1370     		strb	r3, [r2]
 801:Generated_Source\PSoC5/CyLib.c ****             CyBusClk_Internal_SetDivider(divider);
 780              		.loc 1 801 0
ARM GAS  C:\Users\ingan\AppData\Local\Temp\ccwaQbAc.s 			page 30


 781 002a 0020     		movs	r0, #0
 782 002c FFF7FEFF 		bl	CyBusClk_Internal_SetDivider
 783              	.LVL34:
 784 0030 07E0     		b	.L84
 785              	.L89:
 802:Generated_Source\PSoC5/CyLib.c ****         }
 803:Generated_Source\PSoC5/CyLib.c ****         else
 804:Generated_Source\PSoC5/CyLib.c ****         {
 805:Generated_Source\PSoC5/CyLib.c ****             CyBusClk_Internal_SetDivider(divider);
 786              		.loc 1 805 0
 787 0032 2846     		mov	r0, r5
 788 0034 FFF7FEFF 		bl	CyBusClk_Internal_SetDivider
 789              	.LVL35:
 806:Generated_Source\PSoC5/CyLib.c ****             CY_LIB_CLKDIST_BCFG2_REG &= ((uint8)(~CY_LIB_CLKDIST_BCFG2_SSS));
 790              		.loc 1 806 0
 791 0038 134A     		ldr	r2, .L93+8
 792 003a 1378     		ldrb	r3, [r2]	@ zero_extendqisi2
 793 003c 03F0BF03 		and	r3, r3, #191
 794 0040 1370     		strb	r3, [r2]
 795              	.L84:
 796              	.LVL36:
 797              	.LBB10:
 798              	.LBB11:
 717:Generated_Source\PSoC5/CyLib.c **** }
 799              		.loc 1 717 0
 800 0042 124B     		ldr	r3, .L93+12
 801 0044 1C70     		strb	r4, [r3]
 802 0046 02E0     		b	.L85
 803              	.LVL37:
 804              	.L90:
 805              	.LBE11:
 806              	.LBE10:
 807:Generated_Source\PSoC5/CyLib.c ****         }
 808:Generated_Source\PSoC5/CyLib.c **** 
 809:Generated_Source\PSoC5/CyLib.c ****         /* Restore master clock */
 810:Generated_Source\PSoC5/CyLib.c ****         CyMasterClk_SetDivider(masterClkDiv);
 811:Generated_Source\PSoC5/CyLib.c ****     }
 812:Generated_Source\PSoC5/CyLib.c ****     else
 813:Generated_Source\PSoC5/CyLib.c ****     {
 814:Generated_Source\PSoC5/CyLib.c ****         CyBusClk_Internal_SetDivider(divider);
 807              		.loc 1 814 0
 808 0048 2846     		mov	r0, r5
 809 004a FFF7FEFF 		bl	CyBusClk_Internal_SetDivider
 810              	.LVL38:
 811              	.L85:
 815:Generated_Source\PSoC5/CyLib.c ****     }
 816:Generated_Source\PSoC5/CyLib.c **** 
 817:Generated_Source\PSoC5/CyLib.c ****     CyExitCriticalSection(interruptState);
 812              		.loc 1 817 0
 813 004e 3046     		mov	r0, r6
 814 0050 FFF7FEFF 		bl	CyExitCriticalSection
 815              	.LVL39:
 818:Generated_Source\PSoC5/CyLib.c **** }
 816              		.loc 1 818 0
 817 0054 70BD     		pop	{r4, r5, r6, pc}
 818              	.LVL40:
 819              	.L81:
ARM GAS  C:\Users\ingan\AppData\Local\Temp\ccwaQbAc.s 			page 31


 789:Generated_Source\PSoC5/CyLib.c **** 
 820              		.loc 1 789 0
 821 0056 0D4B     		ldr	r3, .L93+12
 822              	.LVL41:
 823 0058 1C78     		ldrb	r4, [r3]	@ zero_extendqisi2
 824 005a E4B2     		uxtb	r4, r4
 825              	.LVL42:
 791:Generated_Source\PSoC5/CyLib.c ****         {
 826              		.loc 1 791 0
 827 005c 062C     		cmp	r4, #6
 828 005e DFD8     		bhi	.L87
 829 0060 05E0     		b	.L86
 830              	.LVL43:
 831              	.L82:
 789:Generated_Source\PSoC5/CyLib.c **** 
 832              		.loc 1 789 0
 833 0062 0A4B     		ldr	r3, .L93+12
 834 0064 1C78     		ldrb	r4, [r3]	@ zero_extendqisi2
 835 0066 E4B2     		uxtb	r4, r4
 836              	.LVL44:
 791:Generated_Source\PSoC5/CyLib.c ****         {
 837              		.loc 1 791 0
 838 0068 062C     		cmp	r4, #6
 839 006a E2D8     		bhi	.L89
 840 006c 03E0     		b	.L88
 841              	.L86:
 842              	.LVL45:
 843              	.LBB12:
 844              	.LBB13:
 717:Generated_Source\PSoC5/CyLib.c **** }
 845              		.loc 1 717 0
 846 006e 0722     		movs	r2, #7
 847 0070 064B     		ldr	r3, .L93+12
 848 0072 1A70     		strb	r2, [r3]
 849 0074 D4E7     		b	.L87
 850              	.LVL46:
 851              	.L88:
 852 0076 0722     		movs	r2, #7
 853 0078 044B     		ldr	r3, .L93+12
 854 007a 1A70     		strb	r2, [r3]
 855 007c D9E7     		b	.L89
 856              	.L94:
 857 007e 00BF     		.align	2
 858              	.L93:
 859 0080 07400040 		.word	1073758215
 860 0084 06400040 		.word	1073758214
 861 0088 08400040 		.word	1073758216
 862 008c 04400040 		.word	1073758212
 863              	.LBE13:
 864              	.LBE12:
 865              		.cfi_endproc
 866              	.LFE15:
 867              		.size	CyBusClk_SetDivider, .-CyBusClk_SetDivider
 868              		.section	.text.CyUsbClk_SetSource,"ax",%progbits
 869              		.align	2
 870              		.global	CyUsbClk_SetSource
 871              		.thumb
ARM GAS  C:\Users\ingan\AppData\Local\Temp\ccwaQbAc.s 			page 32


 872              		.thumb_func
 873              		.type	CyUsbClk_SetSource, %function
 874              	CyUsbClk_SetSource:
 875              	.LFB16:
 819:Generated_Source\PSoC5/CyLib.c **** 
 820:Generated_Source\PSoC5/CyLib.c **** 
 821:Generated_Source\PSoC5/CyLib.c **** #if(CY_PSOC3)
 822:Generated_Source\PSoC5/CyLib.c **** 
 823:Generated_Source\PSoC5/CyLib.c ****     /*******************************************************************************
 824:Generated_Source\PSoC5/CyLib.c ****     * Function Name: CyCpuClk_SetDivider
 825:Generated_Source\PSoC5/CyLib.c ****     ****************************************************************************//**
 826:Generated_Source\PSoC5/CyLib.c ****     *
 827:Generated_Source\PSoC5/CyLib.c ****     *  Sets the divider value used to generate the CPU Clock. Only applicable for
 828:Generated_Source\PSoC5/CyLib.c ****     *  PSoC 3 parts.
 829:Generated_Source\PSoC5/CyLib.c ****     *
 830:Generated_Source\PSoC5/CyLib.c ****     *  \param divider: Valid range [0-15]. The clock will be divided by this value + 1.
 831:Generated_Source\PSoC5/CyLib.c ****     *  For example, to divide this parameter by two should be set to 1.
 832:Generated_Source\PSoC5/CyLib.c ****     *
 833:Generated_Source\PSoC5/CyLib.c ****     * \sideeffect
 834:Generated_Source\PSoC5/CyLib.c ****     *  If this function execution resulted in the CPU clock frequency increasing,
 835:Generated_Source\PSoC5/CyLib.c ****     *  then the number of clock cycles the cache will wait before it samples data
 836:Generated_Source\PSoC5/CyLib.c ****     *  coming back from the Flash must be adjusted by calling
 837:Generated_Source\PSoC5/CyLib.c ****     *  CyFlash_SetWaitCycles() with an appropriate parameter. It can be optionally
 838:Generated_Source\PSoC5/CyLib.c ****     *  called if the CPU clock frequency is lowered in order to improve the CPU
 839:Generated_Source\PSoC5/CyLib.c ****     *  performance. See CyFlash_SetWaitCycles() description for more information.
 840:Generated_Source\PSoC5/CyLib.c ****     *
 841:Generated_Source\PSoC5/CyLib.c ****     *******************************************************************************/
 842:Generated_Source\PSoC5/CyLib.c ****     void CyCpuClk_SetDivider(uint8 divider) 
 843:Generated_Source\PSoC5/CyLib.c ****     {
 844:Generated_Source\PSoC5/CyLib.c ****             CY_LIB_CLKDIST_MSTR1_REG = (CY_LIB_CLKDIST_MSTR1_REG & CY_LIB_CLKDIST_MSTR1_DIV_MASK) |
 845:Generated_Source\PSoC5/CyLib.c ****                                 ((uint8)(divider << CY_LIB_CLKDIST_DIV_POSITION));
 846:Generated_Source\PSoC5/CyLib.c ****     }
 847:Generated_Source\PSoC5/CyLib.c **** 
 848:Generated_Source\PSoC5/CyLib.c **** #endif /* (CY_PSOC3) */
 849:Generated_Source\PSoC5/CyLib.c **** 
 850:Generated_Source\PSoC5/CyLib.c **** 
 851:Generated_Source\PSoC5/CyLib.c **** /*******************************************************************************
 852:Generated_Source\PSoC5/CyLib.c **** * Function Name: CyUsbClk_SetSource
 853:Generated_Source\PSoC5/CyLib.c **** ****************************************************************************//**
 854:Generated_Source\PSoC5/CyLib.c **** *
 855:Generated_Source\PSoC5/CyLib.c **** *  Sets the source of the USB clock.
 856:Generated_Source\PSoC5/CyLib.c **** *
 857:Generated_Source\PSoC5/CyLib.c **** *  \param source: One of the four available USB clock sources
 858:Generated_Source\PSoC5/CyLib.c **** *    CY_LIB_USB_CLK_IMO2X     - IMO 2x
 859:Generated_Source\PSoC5/CyLib.c **** *    CY_LIB_USB_CLK_IMO       - IMO
 860:Generated_Source\PSoC5/CyLib.c **** *    CY_LIB_USB_CLK_PLL       - PLL
 861:Generated_Source\PSoC5/CyLib.c **** *    CY_LIB_USB_CLK_DSI       - DSI
 862:Generated_Source\PSoC5/CyLib.c **** *
 863:Generated_Source\PSoC5/CyLib.c **** *******************************************************************************/
 864:Generated_Source\PSoC5/CyLib.c **** void CyUsbClk_SetSource(uint8 source) 
 865:Generated_Source\PSoC5/CyLib.c **** {
 876              		.loc 1 865 0
 877              		.cfi_startproc
 878              		@ args = 0, pretend = 0, frame = 0
 879              		@ frame_needed = 0, uses_anonymous_args = 0
 880              		@ link register save eliminated.
 881              	.LVL47:
ARM GAS  C:\Users\ingan\AppData\Local\Temp\ccwaQbAc.s 			page 33


 866:Generated_Source\PSoC5/CyLib.c ****     CY_LIB_CLKDIST_UCFG_REG = (CY_LIB_CLKDIST_UCFG_REG & ((uint8)(~CY_LIB_CLKDIST_UCFG_SRC_SEL_MASK
 882              		.loc 1 866 0
 883 0000 044A     		ldr	r2, .L96
 884 0002 1378     		ldrb	r3, [r2]	@ zero_extendqisi2
 885 0004 03F0FC03 		and	r3, r3, #252
 886 0008 00F00300 		and	r0, r0, #3
 887              	.LVL48:
 888 000c 1843     		orrs	r0, r0, r3
 889 000e 1070     		strb	r0, [r2]
 890 0010 7047     		bx	lr
 891              	.L97:
 892 0012 00BF     		.align	2
 893              	.L96:
 894 0014 09400040 		.word	1073758217
 895              		.cfi_endproc
 896              	.LFE16:
 897              		.size	CyUsbClk_SetSource, .-CyUsbClk_SetSource
 898              		.section	.text.CyILO_Start1K,"ax",%progbits
 899              		.align	2
 900              		.global	CyILO_Start1K
 901              		.thumb
 902              		.thumb_func
 903              		.type	CyILO_Start1K, %function
 904              	CyILO_Start1K:
 905              	.LFB17:
 867:Generated_Source\PSoC5/CyLib.c ****                         (CY_LIB_CLKDIST_UCFG_SRC_SEL_MASK & source);
 868:Generated_Source\PSoC5/CyLib.c **** }
 869:Generated_Source\PSoC5/CyLib.c **** 
 870:Generated_Source\PSoC5/CyLib.c **** 
 871:Generated_Source\PSoC5/CyLib.c **** /*******************************************************************************
 872:Generated_Source\PSoC5/CyLib.c **** * Function Name: CyILO_Start1K
 873:Generated_Source\PSoC5/CyLib.c **** ****************************************************************************//**
 874:Generated_Source\PSoC5/CyLib.c **** *
 875:Generated_Source\PSoC5/CyLib.c **** *  Enables the ILO 1 KHz oscillator.
 876:Generated_Source\PSoC5/CyLib.c **** *
 877:Generated_Source\PSoC5/CyLib.c **** *  Note The ILO 1 KHz oscillator is always enabled by default, regardless of the
 878:Generated_Source\PSoC5/CyLib.c **** *  selection in the Clock Editor. Therefore, this API is only needed if the
 879:Generated_Source\PSoC5/CyLib.c **** *  oscillator was turned off manually.
 880:Generated_Source\PSoC5/CyLib.c **** *
 881:Generated_Source\PSoC5/CyLib.c **** *******************************************************************************/
 882:Generated_Source\PSoC5/CyLib.c **** void CyILO_Start1K(void) 
 883:Generated_Source\PSoC5/CyLib.c **** {
 906              		.loc 1 883 0
 907              		.cfi_startproc
 908              		@ args = 0, pretend = 0, frame = 0
 909              		@ frame_needed = 0, uses_anonymous_args = 0
 910              		@ link register save eliminated.
 884:Generated_Source\PSoC5/CyLib.c ****     /* Set bit 1 of ILO RS */
 885:Generated_Source\PSoC5/CyLib.c ****     CY_LIB_SLOWCLK_ILO_CR0_REG |= CY_LIB_SLOWCLK_ILO_CR0_EN_1KHZ;
 911              		.loc 1 885 0
 912 0000 024A     		ldr	r2, .L99
 913 0002 1378     		ldrb	r3, [r2]	@ zero_extendqisi2
 914 0004 43F00203 		orr	r3, r3, #2
 915 0008 1370     		strb	r3, [r2]
 916 000a 7047     		bx	lr
 917              	.L100:
 918              		.align	2
ARM GAS  C:\Users\ingan\AppData\Local\Temp\ccwaQbAc.s 			page 34


 919              	.L99:
 920 000c 00430040 		.word	1073758976
 921              		.cfi_endproc
 922              	.LFE17:
 923              		.size	CyILO_Start1K, .-CyILO_Start1K
 924              		.section	.text.CyILO_Stop1K,"ax",%progbits
 925              		.align	2
 926              		.global	CyILO_Stop1K
 927              		.thumb
 928              		.thumb_func
 929              		.type	CyILO_Stop1K, %function
 930              	CyILO_Stop1K:
 931              	.LFB18:
 886:Generated_Source\PSoC5/CyLib.c **** }
 887:Generated_Source\PSoC5/CyLib.c **** 
 888:Generated_Source\PSoC5/CyLib.c **** 
 889:Generated_Source\PSoC5/CyLib.c **** /*******************************************************************************
 890:Generated_Source\PSoC5/CyLib.c **** * Function Name: CyILO_Stop1K
 891:Generated_Source\PSoC5/CyLib.c **** ****************************************************************************//**
 892:Generated_Source\PSoC5/CyLib.c **** *
 893:Generated_Source\PSoC5/CyLib.c **** *  Disables the ILO 1 KHz oscillator.
 894:Generated_Source\PSoC5/CyLib.c **** *
 895:Generated_Source\PSoC5/CyLib.c **** *  Note The ILO 1 KHz oscillator must be enabled if the Sleep or Hibernate low
 896:Generated_Source\PSoC5/CyLib.c **** *  power mode APIs are expected to be used. For more information, refer to the
 897:Generated_Source\PSoC5/CyLib.c **** *  Power Management section of this document.
 898:Generated_Source\PSoC5/CyLib.c **** *
 899:Generated_Source\PSoC5/CyLib.c **** * \sideeffect
 900:Generated_Source\PSoC5/CyLib.c **** *  PSoC5: Stopping the ILO 1 kHz could break the active WDT functionality.
 901:Generated_Source\PSoC5/CyLib.c **** *
 902:Generated_Source\PSoC5/CyLib.c **** *******************************************************************************/
 903:Generated_Source\PSoC5/CyLib.c **** void CyILO_Stop1K(void) 
 904:Generated_Source\PSoC5/CyLib.c **** {
 932              		.loc 1 904 0
 933              		.cfi_startproc
 934              		@ args = 0, pretend = 0, frame = 0
 935              		@ frame_needed = 0, uses_anonymous_args = 0
 936              		@ link register save eliminated.
 905:Generated_Source\PSoC5/CyLib.c ****     /* Clear bit 1 of ILO RS */
 906:Generated_Source\PSoC5/CyLib.c ****     CY_LIB_SLOWCLK_ILO_CR0_REG &= ((uint8)(~CY_LIB_SLOWCLK_ILO_CR0_EN_1KHZ));
 937              		.loc 1 906 0
 938 0000 024A     		ldr	r2, .L102
 939 0002 1378     		ldrb	r3, [r2]	@ zero_extendqisi2
 940 0004 03F0FD03 		and	r3, r3, #253
 941 0008 1370     		strb	r3, [r2]
 942 000a 7047     		bx	lr
 943              	.L103:
 944              		.align	2
 945              	.L102:
 946 000c 00430040 		.word	1073758976
 947              		.cfi_endproc
 948              	.LFE18:
 949              		.size	CyILO_Stop1K, .-CyILO_Stop1K
 950              		.section	.text.CyILO_Start100K,"ax",%progbits
 951              		.align	2
 952              		.global	CyILO_Start100K
 953              		.thumb
 954              		.thumb_func
ARM GAS  C:\Users\ingan\AppData\Local\Temp\ccwaQbAc.s 			page 35


 955              		.type	CyILO_Start100K, %function
 956              	CyILO_Start100K:
 957              	.LFB19:
 907:Generated_Source\PSoC5/CyLib.c **** }
 908:Generated_Source\PSoC5/CyLib.c **** 
 909:Generated_Source\PSoC5/CyLib.c **** 
 910:Generated_Source\PSoC5/CyLib.c **** /*******************************************************************************
 911:Generated_Source\PSoC5/CyLib.c **** * Function Name: CyILO_Start100K
 912:Generated_Source\PSoC5/CyLib.c **** ****************************************************************************//**
 913:Generated_Source\PSoC5/CyLib.c **** *
 914:Generated_Source\PSoC5/CyLib.c **** *  Enables the ILO 100 KHz oscillator.
 915:Generated_Source\PSoC5/CyLib.c **** *
 916:Generated_Source\PSoC5/CyLib.c **** *******************************************************************************/
 917:Generated_Source\PSoC5/CyLib.c **** void CyILO_Start100K(void) 
 918:Generated_Source\PSoC5/CyLib.c **** {
 958              		.loc 1 918 0
 959              		.cfi_startproc
 960              		@ args = 0, pretend = 0, frame = 0
 961              		@ frame_needed = 0, uses_anonymous_args = 0
 962              		@ link register save eliminated.
 919:Generated_Source\PSoC5/CyLib.c ****     CY_LIB_SLOWCLK_ILO_CR0_REG |= CY_LIB_SLOWCLK_ILO_CR0_EN_100KHZ;
 963              		.loc 1 919 0
 964 0000 024A     		ldr	r2, .L105
 965 0002 1378     		ldrb	r3, [r2]	@ zero_extendqisi2
 966 0004 43F00403 		orr	r3, r3, #4
 967 0008 1370     		strb	r3, [r2]
 968 000a 7047     		bx	lr
 969              	.L106:
 970              		.align	2
 971              	.L105:
 972 000c 00430040 		.word	1073758976
 973              		.cfi_endproc
 974              	.LFE19:
 975              		.size	CyILO_Start100K, .-CyILO_Start100K
 976              		.section	.text.CyILO_Stop100K,"ax",%progbits
 977              		.align	2
 978              		.global	CyILO_Stop100K
 979              		.thumb
 980              		.thumb_func
 981              		.type	CyILO_Stop100K, %function
 982              	CyILO_Stop100K:
 983              	.LFB20:
 920:Generated_Source\PSoC5/CyLib.c **** }
 921:Generated_Source\PSoC5/CyLib.c **** 
 922:Generated_Source\PSoC5/CyLib.c **** 
 923:Generated_Source\PSoC5/CyLib.c **** /*******************************************************************************
 924:Generated_Source\PSoC5/CyLib.c **** * Function Name: CyILO_Stop100K
 925:Generated_Source\PSoC5/CyLib.c **** ****************************************************************************//**
 926:Generated_Source\PSoC5/CyLib.c **** *
 927:Generated_Source\PSoC5/CyLib.c **** *  Disables the ILO 100 KHz oscillator.
 928:Generated_Source\PSoC5/CyLib.c **** *
 929:Generated_Source\PSoC5/CyLib.c **** *******************************************************************************/
 930:Generated_Source\PSoC5/CyLib.c **** void CyILO_Stop100K(void) 
 931:Generated_Source\PSoC5/CyLib.c **** {
 984              		.loc 1 931 0
 985              		.cfi_startproc
 986              		@ args = 0, pretend = 0, frame = 0
ARM GAS  C:\Users\ingan\AppData\Local\Temp\ccwaQbAc.s 			page 36


 987              		@ frame_needed = 0, uses_anonymous_args = 0
 988              		@ link register save eliminated.
 932:Generated_Source\PSoC5/CyLib.c ****     CY_LIB_SLOWCLK_ILO_CR0_REG &= ((uint8)(~CY_LIB_SLOWCLK_ILO_CR0_EN_100KHZ));
 989              		.loc 1 932 0
 990 0000 024A     		ldr	r2, .L108
 991 0002 1378     		ldrb	r3, [r2]	@ zero_extendqisi2
 992 0004 03F0FB03 		and	r3, r3, #251
 993 0008 1370     		strb	r3, [r2]
 994 000a 7047     		bx	lr
 995              	.L109:
 996              		.align	2
 997              	.L108:
 998 000c 00430040 		.word	1073758976
 999              		.cfi_endproc
 1000              	.LFE20:
 1001              		.size	CyILO_Stop100K, .-CyILO_Stop100K
 1002              		.section	.text.CyPLL_OUT_Start,"ax",%progbits
 1003              		.align	2
 1004              		.global	CyPLL_OUT_Start
 1005              		.thumb
 1006              		.thumb_func
 1007              		.type	CyPLL_OUT_Start, %function
 1008              	CyPLL_OUT_Start:
 1009              	.LFB0:
  98:Generated_Source\PSoC5/CyLib.c ****     cystatus status = CYRET_SUCCESS;
 1010              		.loc 1 98 0
 1011              		.cfi_startproc
 1012              		@ args = 0, pretend = 0, frame = 0
 1013              		@ frame_needed = 0, uses_anonymous_args = 0
 1014              	.LVL49:
 1015 0000 2DE9F041 		push	{r4, r5, r6, r7, r8, lr}
 1016              		.cfi_def_cfa_offset 24
 1017              		.cfi_offset 4, -24
 1018              		.cfi_offset 5, -20
 1019              		.cfi_offset 6, -16
 1020              		.cfi_offset 7, -12
 1021              		.cfi_offset 8, -8
 1022              		.cfi_offset 14, -4
 1023              	.LVL50:
 107:Generated_Source\PSoC5/CyLib.c **** 
 1024              		.loc 1 107 0
 1025 0004 1B4A     		ldr	r2, .L120
 1026 0006 1378     		ldrb	r3, [r2]	@ zero_extendqisi2
 1027 0008 43F00103 		orr	r3, r3, #1
 1028 000c 1370     		strb	r3, [r2]
 109:Generated_Source\PSoC5/CyLib.c ****     {
 1029              		.loc 1 109 0
 1030 000e 60B3     		cbz	r0, .L116
 112:Generated_Source\PSoC5/CyLib.c ****         pmTwCfg0State = CY_LIB_PM_TW_CFG0_REG;
 1031              		.loc 1 112 0
 1032 0010 194B     		ldr	r3, .L120+4
 1033 0012 1E78     		ldrb	r6, [r3]	@ zero_extendqisi2
 1034 0014 06F00406 		and	r6, r6, #4
 1035 0018 F6B2     		uxtb	r6, r6
 1036              	.LVL51:
 113:Generated_Source\PSoC5/CyLib.c ****         pmTwCfg2State = CY_LIB_PM_TW_CFG2_REG;
 1037              		.loc 1 113 0
ARM GAS  C:\Users\ingan\AppData\Local\Temp\ccwaQbAc.s 			page 37


 1038 001a 8033     		adds	r3, r3, #128
 1039 001c 93F80080 		ldrb	r8, [r3]	@ zero_extendqisi2
 1040 0020 5FFA88F8 		uxtb	r8, r8
 1041              	.LVL52:
 114:Generated_Source\PSoC5/CyLib.c **** 
 1042              		.loc 1 114 0
 1043 0024 0233     		adds	r3, r3, #2
 1044 0026 1F78     		ldrb	r7, [r3]	@ zero_extendqisi2
 1045 0028 FFB2     		uxtb	r7, r7
 1046              	.LVL53:
 116:Generated_Source\PSoC5/CyLib.c **** 
 1047              		.loc 1 116 0
 1048 002a 1820     		movs	r0, #24
 1049              	.LVL54:
 1050 002c FFF7FEFF 		bl	CyPmFtwSetInterval
 1051              	.LVL55:
 120:Generated_Source\PSoC5/CyLib.c ****         {
 1052              		.loc 1 120 0
 1053 0030 0125     		movs	r5, #1
 123:Generated_Source\PSoC5/CyLib.c ****             {
 1054              		.loc 1 123 0
 1055 0032 124C     		ldr	r4, .L120+8
 120:Generated_Source\PSoC5/CyLib.c ****         {
 1056              		.loc 1 120 0
 1057 0034 07E0     		b	.L118
 1058              	.L114:
 123:Generated_Source\PSoC5/CyLib.c ****             {
 1059              		.loc 1 123 0
 1060 0036 2378     		ldrb	r3, [r4]	@ zero_extendqisi2
 1061 0038 13F0010F 		tst	r3, #1
 1062 003c 03D0     		beq	.L118
 125:Generated_Source\PSoC5/CyLib.c ****                 {
 1063              		.loc 1 125 0
 1064 003e 2378     		ldrb	r3, [r4]	@ zero_extendqisi2
 1065 0040 13F0010F 		tst	r3, #1
 1066 0044 07D1     		bne	.L117
 1067              	.L118:
 120:Generated_Source\PSoC5/CyLib.c ****         {
 1068              		.loc 1 120 0
 1069 0046 2846     		mov	r0, r5
 1070 0048 FFF7FEFF 		bl	CyPmReadStatus
 1071              	.LVL56:
 1072 004c 10F0010F 		tst	r0, #1
 1073 0050 F1D0     		beq	.L114
 118:Generated_Source\PSoC5/CyLib.c **** 
 1074              		.loc 1 118 0
 1075 0052 1024     		movs	r4, #16
 1076 0054 00E0     		b	.L113
 1077              	.L117:
 127:Generated_Source\PSoC5/CyLib.c ****                     break;
 1078              		.loc 1 127 0
 1079 0056 0024     		movs	r4, #0
 1080              	.L113:
 1081              	.LVL57:
 134:Generated_Source\PSoC5/CyLib.c ****         {
 1082              		.loc 1 134 0
 1083 0058 0EB9     		cbnz	r6, .L115
ARM GAS  C:\Users\ingan\AppData\Local\Temp\ccwaQbAc.s 			page 38


 136:Generated_Source\PSoC5/CyLib.c ****         }
 1084              		.loc 1 136 0
 1085 005a FFF7FEFF 		bl	CyILO_Stop100K
 1086              	.LVL58:
 1087              	.L115:
 139:Generated_Source\PSoC5/CyLib.c ****         CY_LIB_PM_TW_CFG2_REG = pmTwCfg2State;
 1088              		.loc 1 139 0
 1089 005e 084B     		ldr	r3, .L120+12
 1090 0060 83F80080 		strb	r8, [r3]
 140:Generated_Source\PSoC5/CyLib.c ****     }
 1091              		.loc 1 140 0
 1092 0064 0233     		adds	r3, r3, #2
 1093 0066 1F70     		strb	r7, [r3]
 1094 0068 00E0     		b	.L111
 1095              	.LVL59:
 1096              	.L116:
  99:Generated_Source\PSoC5/CyLib.c **** 
 1097              		.loc 1 99 0
 1098 006a 0024     		movs	r4, #0
 1099              	.LVL60:
 1100              	.L111:
 144:Generated_Source\PSoC5/CyLib.c **** 
 1101              		.loc 1 144 0
 1102 006c 2046     		mov	r0, r4
 1103 006e BDE8F081 		pop	{r4, r5, r6, r7, r8, pc}
 1104              	.LVL61:
 1105              	.L121:
 1106 0072 00BF     		.align	2
 1107              	.L120:
 1108 0074 20420040 		.word	1073758752
 1109 0078 00430040 		.word	1073758976
 1110 007c 25420040 		.word	1073758757
 1111 0080 80430040 		.word	1073759104
 1112              		.cfi_endproc
 1113              	.LFE0:
 1114              		.size	CyPLL_OUT_Start, .-CyPLL_OUT_Start
 1115              		.section	.text.CyIMO_Start,"ax",%progbits
 1116              		.align	2
 1117              		.global	CyIMO_Start
 1118              		.thumb
 1119              		.thumb_func
 1120              		.type	CyIMO_Start, %function
 1121              	CyIMO_Start:
 1122              	.LFB4:
 283:Generated_Source\PSoC5/CyLib.c ****     uint8 pmFtwCfg2Reg;
 1123              		.loc 1 283 0
 1124              		.cfi_startproc
 1125              		@ args = 0, pretend = 0, frame = 0
 1126              		@ frame_needed = 0, uses_anonymous_args = 0
 1127              	.LVL62:
 1128 0000 F8B5     		push	{r3, r4, r5, r6, r7, lr}
 1129              		.cfi_def_cfa_offset 24
 1130              		.cfi_offset 3, -24
 1131              		.cfi_offset 4, -20
 1132              		.cfi_offset 5, -16
 1133              		.cfi_offset 6, -12
 1134              		.cfi_offset 7, -8
ARM GAS  C:\Users\ingan\AppData\Local\Temp\ccwaQbAc.s 			page 39


 1135              		.cfi_offset 14, -4
 289:Generated_Source\PSoC5/CyLib.c ****     CY_LIB_PM_STBY_CFG0_REG |= CY_LIB_PM_STBY_CFG0_IMO_EN;
 1136              		.loc 1 289 0
 1137 0002 144A     		ldr	r2, .L128
 1138 0004 1378     		ldrb	r3, [r2]	@ zero_extendqisi2
 1139 0006 43F01003 		orr	r3, r3, #16
 1140 000a 1370     		strb	r3, [r2]
 290:Generated_Source\PSoC5/CyLib.c **** 
 1141              		.loc 1 290 0
 1142 000c 1032     		adds	r2, r2, #16
 1143 000e 1378     		ldrb	r3, [r2]	@ zero_extendqisi2
 1144 0010 43F01003 		orr	r3, r3, #16
 1145 0014 1370     		strb	r3, [r2]
 292:Generated_Source\PSoC5/CyLib.c ****     {
 1146              		.loc 1 292 0
 1147 0016 D8B1     		cbz	r0, .L122
 295:Generated_Source\PSoC5/CyLib.c ****         pmFtwCfg0Reg = CY_LIB_PM_TW_CFG0_REG;
 1148              		.loc 1 295 0
 1149 0018 0F4B     		ldr	r3, .L128+4
 1150 001a 1D78     		ldrb	r5, [r3]	@ zero_extendqisi2
 1151 001c 05F00405 		and	r5, r5, #4
 1152 0020 EDB2     		uxtb	r5, r5
 1153              	.LVL63:
 296:Generated_Source\PSoC5/CyLib.c ****         pmFtwCfg2Reg = CY_LIB_PM_TW_CFG2_REG;
 1154              		.loc 1 296 0
 1155 0022 8033     		adds	r3, r3, #128
 1156 0024 1F78     		ldrb	r7, [r3]	@ zero_extendqisi2
 1157 0026 FFB2     		uxtb	r7, r7
 1158              	.LVL64:
 297:Generated_Source\PSoC5/CyLib.c **** 
 1159              		.loc 1 297 0
 1160 0028 0233     		adds	r3, r3, #2
 1161 002a 1E78     		ldrb	r6, [r3]	@ zero_extendqisi2
 1162 002c F6B2     		uxtb	r6, r6
 1163              	.LVL65:
 299:Generated_Source\PSoC5/CyLib.c **** 
 1164              		.loc 1 299 0
 1165 002e 0020     		movs	r0, #0
 1166              	.LVL66:
 1167 0030 FFF7FEFF 		bl	CyPmFtwSetInterval
 1168              	.LVL67:
 301:Generated_Source\PSoC5/CyLib.c ****         {
 1169              		.loc 1 301 0
 1170 0034 0124     		movs	r4, #1
 1171              	.L124:
 301:Generated_Source\PSoC5/CyLib.c ****         {
 1172              		.loc 1 301 0 is_stmt 0 discriminator 1
 1173 0036 2046     		mov	r0, r4
 1174 0038 FFF7FEFF 		bl	CyPmReadStatus
 1175              	.LVL68:
 1176 003c 10F0010F 		tst	r0, #1
 1177 0040 F9D0     		beq	.L124
 306:Generated_Source\PSoC5/CyLib.c ****         {
 1178              		.loc 1 306 0 is_stmt 1
 1179 0042 0DB9     		cbnz	r5, .L125
 308:Generated_Source\PSoC5/CyLib.c ****         }
 1180              		.loc 1 308 0
ARM GAS  C:\Users\ingan\AppData\Local\Temp\ccwaQbAc.s 			page 40


 1181 0044 FFF7FEFF 		bl	CyILO_Stop100K
 1182              	.LVL69:
 1183              	.L125:
 311:Generated_Source\PSoC5/CyLib.c ****         CY_LIB_PM_TW_CFG2_REG = pmFtwCfg2Reg;
 1184              		.loc 1 311 0
 1185 0048 044B     		ldr	r3, .L128+8
 1186 004a 1F70     		strb	r7, [r3]
 312:Generated_Source\PSoC5/CyLib.c ****     }
 1187              		.loc 1 312 0
 1188 004c 0233     		adds	r3, r3, #2
 1189 004e 1E70     		strb	r6, [r3]
 1190              	.LVL70:
 1191              	.L122:
 1192 0050 F8BD     		pop	{r3, r4, r5, r6, r7, pc}
 1193              	.L129:
 1194 0052 00BF     		.align	2
 1195              	.L128:
 1196 0054 A0430040 		.word	1073759136
 1197 0058 00430040 		.word	1073758976
 1198 005c 80430040 		.word	1073759104
 1199              		.cfi_endproc
 1200              	.LFE4:
 1201              		.size	CyIMO_Start, .-CyIMO_Start
 1202              		.section	.text.CyILO_Enable33K,"ax",%progbits
 1203              		.align	2
 1204              		.global	CyILO_Enable33K
 1205              		.thumb
 1206              		.thumb_func
 1207              		.type	CyILO_Enable33K, %function
 1208              	CyILO_Enable33K:
 1209              	.LFB21:
 933:Generated_Source\PSoC5/CyLib.c **** }
 934:Generated_Source\PSoC5/CyLib.c **** 
 935:Generated_Source\PSoC5/CyLib.c **** 
 936:Generated_Source\PSoC5/CyLib.c **** /*******************************************************************************
 937:Generated_Source\PSoC5/CyLib.c **** * Function Name: CyILO_Enable33K
 938:Generated_Source\PSoC5/CyLib.c **** ****************************************************************************//**
 939:Generated_Source\PSoC5/CyLib.c **** *
 940:Generated_Source\PSoC5/CyLib.c **** *  Enables the ILO 33 KHz divider.
 941:Generated_Source\PSoC5/CyLib.c **** *
 942:Generated_Source\PSoC5/CyLib.c **** *  Note that the 33 KHz clock is generated from the 100 KHz oscillator,
 943:Generated_Source\PSoC5/CyLib.c **** *  so it must also be running in order to generate the 33 KHz output.
 944:Generated_Source\PSoC5/CyLib.c **** *
 945:Generated_Source\PSoC5/CyLib.c **** *******************************************************************************/
 946:Generated_Source\PSoC5/CyLib.c **** void CyILO_Enable33K(void) 
 947:Generated_Source\PSoC5/CyLib.c **** {
 1210              		.loc 1 947 0
 1211              		.cfi_startproc
 1212              		@ args = 0, pretend = 0, frame = 0
 1213              		@ frame_needed = 0, uses_anonymous_args = 0
 1214              		@ link register save eliminated.
 948:Generated_Source\PSoC5/CyLib.c ****     /* Set bit 5 of ILO RS */
 949:Generated_Source\PSoC5/CyLib.c ****     CY_LIB_SLOWCLK_ILO_CR0_REG |= CY_LIB_SLOWCLK_ILO_CR0_EN_33KHZ;
 1215              		.loc 1 949 0
 1216 0000 024A     		ldr	r2, .L131
 1217 0002 1378     		ldrb	r3, [r2]	@ zero_extendqisi2
 1218 0004 43F02003 		orr	r3, r3, #32
ARM GAS  C:\Users\ingan\AppData\Local\Temp\ccwaQbAc.s 			page 41


 1219 0008 1370     		strb	r3, [r2]
 1220 000a 7047     		bx	lr
 1221              	.L132:
 1222              		.align	2
 1223              	.L131:
 1224 000c 00430040 		.word	1073758976
 1225              		.cfi_endproc
 1226              	.LFE21:
 1227              		.size	CyILO_Enable33K, .-CyILO_Enable33K
 1228              		.section	.text.CyILO_Disable33K,"ax",%progbits
 1229              		.align	2
 1230              		.global	CyILO_Disable33K
 1231              		.thumb
 1232              		.thumb_func
 1233              		.type	CyILO_Disable33K, %function
 1234              	CyILO_Disable33K:
 1235              	.LFB22:
 950:Generated_Source\PSoC5/CyLib.c **** }
 951:Generated_Source\PSoC5/CyLib.c **** 
 952:Generated_Source\PSoC5/CyLib.c **** 
 953:Generated_Source\PSoC5/CyLib.c **** /*******************************************************************************
 954:Generated_Source\PSoC5/CyLib.c **** * Function Name: CyILO_Disable33K
 955:Generated_Source\PSoC5/CyLib.c **** ****************************************************************************//**
 956:Generated_Source\PSoC5/CyLib.c **** *
 957:Generated_Source\PSoC5/CyLib.c **** *  Disables the ILO 33 KHz divider.
 958:Generated_Source\PSoC5/CyLib.c **** *
 959:Generated_Source\PSoC5/CyLib.c **** *  Note that the 33 KHz clock is generated from the 100 KHz oscillator, but this
 960:Generated_Source\PSoC5/CyLib.c **** *  API does not disable the 100 KHz clock.
 961:Generated_Source\PSoC5/CyLib.c **** *
 962:Generated_Source\PSoC5/CyLib.c **** *******************************************************************************/
 963:Generated_Source\PSoC5/CyLib.c **** void CyILO_Disable33K(void) 
 964:Generated_Source\PSoC5/CyLib.c **** {
 1236              		.loc 1 964 0
 1237              		.cfi_startproc
 1238              		@ args = 0, pretend = 0, frame = 0
 1239              		@ frame_needed = 0, uses_anonymous_args = 0
 1240              		@ link register save eliminated.
 965:Generated_Source\PSoC5/CyLib.c ****     CY_LIB_SLOWCLK_ILO_CR0_REG &= ((uint8)(~CY_LIB_SLOWCLK_ILO_CR0_EN_33KHZ));
 1241              		.loc 1 965 0
 1242 0000 024A     		ldr	r2, .L134
 1243 0002 1378     		ldrb	r3, [r2]	@ zero_extendqisi2
 1244 0004 03F0DF03 		and	r3, r3, #223
 1245 0008 1370     		strb	r3, [r2]
 1246 000a 7047     		bx	lr
 1247              	.L135:
 1248              		.align	2
 1249              	.L134:
 1250 000c 00430040 		.word	1073758976
 1251              		.cfi_endproc
 1252              	.LFE22:
 1253              		.size	CyILO_Disable33K, .-CyILO_Disable33K
 1254              		.section	.text.CyILO_SetSource,"ax",%progbits
 1255              		.align	2
 1256              		.global	CyILO_SetSource
 1257              		.thumb
 1258              		.thumb_func
 1259              		.type	CyILO_SetSource, %function
ARM GAS  C:\Users\ingan\AppData\Local\Temp\ccwaQbAc.s 			page 42


 1260              	CyILO_SetSource:
 1261              	.LFB23:
 966:Generated_Source\PSoC5/CyLib.c **** }
 967:Generated_Source\PSoC5/CyLib.c **** 
 968:Generated_Source\PSoC5/CyLib.c **** 
 969:Generated_Source\PSoC5/CyLib.c **** /*******************************************************************************
 970:Generated_Source\PSoC5/CyLib.c **** * Function Name: CyILO_SetSource
 971:Generated_Source\PSoC5/CyLib.c **** ****************************************************************************//**
 972:Generated_Source\PSoC5/CyLib.c **** *
 973:Generated_Source\PSoC5/CyLib.c **** *  Sets the source of the clock output from the ILO block.
 974:Generated_Source\PSoC5/CyLib.c **** *
 975:Generated_Source\PSoC5/CyLib.c **** *  \param source: One of the three available ILO output sources
 976:Generated_Source\PSoC5/CyLib.c **** *       Value        Define                Source
 977:Generated_Source\PSoC5/CyLib.c **** *       0            CY_ILO_SOURCE_100K    ILO 100 KHz
 978:Generated_Source\PSoC5/CyLib.c **** *       1            CY_ILO_SOURCE_33K     ILO 33 KHz
 979:Generated_Source\PSoC5/CyLib.c **** *       2            CY_ILO_SOURCE_1K      ILO 1 KHz
 980:Generated_Source\PSoC5/CyLib.c **** *
 981:Generated_Source\PSoC5/CyLib.c **** *******************************************************************************/
 982:Generated_Source\PSoC5/CyLib.c **** void CyILO_SetSource(uint8 source) 
 983:Generated_Source\PSoC5/CyLib.c **** {
 1262              		.loc 1 983 0
 1263              		.cfi_startproc
 1264              		@ args = 0, pretend = 0, frame = 0
 1265              		@ frame_needed = 0, uses_anonymous_args = 0
 1266              		@ link register save eliminated.
 1267              	.LVL71:
 984:Generated_Source\PSoC5/CyLib.c ****     CY_LIB_CLKDIST_CR_REG = (CY_LIB_CLKDIST_CR_REG & CY_ILO_SOURCE_BITS_CLEAR) |
 1268              		.loc 1 984 0
 1269 0000 4FF04022 		mov	r2, #1073758208
 1270 0004 1378     		ldrb	r3, [r2]	@ zero_extendqisi2
 1271 0006 8000     		lsls	r0, r0, #2
 1272              	.LVL72:
 1273 0008 00F00C00 		and	r0, r0, #12
 1274 000c 03F0F303 		and	r3, r3, #243
 1275 0010 0343     		orrs	r3, r3, r0
 1276 0012 1370     		strb	r3, [r2]
 1277 0014 7047     		bx	lr
 1278              		.cfi_endproc
 1279              	.LFE23:
 1280              		.size	CyILO_SetSource, .-CyILO_SetSource
 1281 0016 00BF     		.section	.text.CyILO_SetPowerMode,"ax",%progbits
 1282              		.align	2
 1283              		.global	CyILO_SetPowerMode
 1284              		.thumb
 1285              		.thumb_func
 1286              		.type	CyILO_SetPowerMode, %function
 1287              	CyILO_SetPowerMode:
 1288              	.LFB24:
 985:Generated_Source\PSoC5/CyLib.c ****                     (((uint8) (source << 2u)) & ((uint8)(~CY_ILO_SOURCE_BITS_CLEAR)));
 986:Generated_Source\PSoC5/CyLib.c **** }
 987:Generated_Source\PSoC5/CyLib.c **** 
 988:Generated_Source\PSoC5/CyLib.c **** 
 989:Generated_Source\PSoC5/CyLib.c **** /*******************************************************************************
 990:Generated_Source\PSoC5/CyLib.c **** * Function Name: CyILO_SetPowerMode
 991:Generated_Source\PSoC5/CyLib.c **** ****************************************************************************//**
 992:Generated_Source\PSoC5/CyLib.c **** *
 993:Generated_Source\PSoC5/CyLib.c **** * Sets the power mode used by the ILO during power down. Allows for lower power
ARM GAS  C:\Users\ingan\AppData\Local\Temp\ccwaQbAc.s 			page 43


 994:Generated_Source\PSoC5/CyLib.c **** * down power usage resulting in a slower startup time.
 995:Generated_Source\PSoC5/CyLib.c **** *
 996:Generated_Source\PSoC5/CyLib.c **** * \param mode
 997:Generated_Source\PSoC5/CyLib.c **** * CY_ILO_FAST_START - Faster start-up, internal bias left on when powered down
 998:Generated_Source\PSoC5/CyLib.c **** * CY_ILO_SLOW_START - Slower start-up, internal bias off when powered down
 999:Generated_Source\PSoC5/CyLib.c **** *
1000:Generated_Source\PSoC5/CyLib.c **** * \return Prevous power mode state.
1001:Generated_Source\PSoC5/CyLib.c **** *
1002:Generated_Source\PSoC5/CyLib.c **** *******************************************************************************/
1003:Generated_Source\PSoC5/CyLib.c **** uint8 CyILO_SetPowerMode(uint8 mode) 
1004:Generated_Source\PSoC5/CyLib.c **** {
 1289              		.loc 1 1004 0
 1290              		.cfi_startproc
 1291              		@ args = 0, pretend = 0, frame = 0
 1292              		@ frame_needed = 0, uses_anonymous_args = 0
 1293              		@ link register save eliminated.
 1294              	.LVL73:
1005:Generated_Source\PSoC5/CyLib.c ****     uint8 state;
1006:Generated_Source\PSoC5/CyLib.c **** 
1007:Generated_Source\PSoC5/CyLib.c ****     /* Get current state. */
1008:Generated_Source\PSoC5/CyLib.c ****     state = CY_LIB_SLOWCLK_ILO_CR0_REG;
 1295              		.loc 1 1008 0
 1296 0000 074B     		ldr	r3, .L140
 1297 0002 1B78     		ldrb	r3, [r3]	@ zero_extendqisi2
 1298 0004 DBB2     		uxtb	r3, r3
 1299              	.LVL74:
1009:Generated_Source\PSoC5/CyLib.c **** 
1010:Generated_Source\PSoC5/CyLib.c ****     /* Set the oscillator power mode. */
1011:Generated_Source\PSoC5/CyLib.c ****     if(mode != CY_ILO_FAST_START)
 1300              		.loc 1 1011 0
 1301 0006 20B1     		cbz	r0, .L138
1012:Generated_Source\PSoC5/CyLib.c ****     {
1013:Generated_Source\PSoC5/CyLib.c ****         CY_LIB_SLOWCLK_ILO_CR0_REG = (state | CY_ILO_CONTROL_PD_MODE);
 1302              		.loc 1 1013 0
 1303 0008 43F01002 		orr	r2, r3, #16
 1304 000c 0449     		ldr	r1, .L140
 1305 000e 0A70     		strb	r2, [r1]
 1306 0010 03E0     		b	.L139
 1307              	.L138:
1014:Generated_Source\PSoC5/CyLib.c ****     }
1015:Generated_Source\PSoC5/CyLib.c ****     else
1016:Generated_Source\PSoC5/CyLib.c ****     {
1017:Generated_Source\PSoC5/CyLib.c ****         CY_LIB_SLOWCLK_ILO_CR0_REG = (state & ((uint8)(~CY_ILO_CONTROL_PD_MODE)));
 1308              		.loc 1 1017 0
 1309 0012 03F0EF02 		and	r2, r3, #239
 1310 0016 0249     		ldr	r1, .L140
 1311 0018 0A70     		strb	r2, [r1]
 1312              	.L139:
1018:Generated_Source\PSoC5/CyLib.c ****     }
1019:Generated_Source\PSoC5/CyLib.c **** 
1020:Generated_Source\PSoC5/CyLib.c ****     /* Return old mode. */
1021:Generated_Source\PSoC5/CyLib.c ****     return ((state & CY_ILO_CONTROL_PD_MODE) >> CY_ILO_CONTROL_PD_POSITION);
1022:Generated_Source\PSoC5/CyLib.c **** }
 1313              		.loc 1 1022 0
 1314 001a C3F30010 		ubfx	r0, r3, #4, #1
 1315              	.LVL75:
 1316 001e 7047     		bx	lr
ARM GAS  C:\Users\ingan\AppData\Local\Temp\ccwaQbAc.s 			page 44


 1317              	.L141:
 1318              		.align	2
 1319              	.L140:
 1320 0020 00430040 		.word	1073758976
 1321              		.cfi_endproc
 1322              	.LFE24:
 1323              		.size	CyILO_SetPowerMode, .-CyILO_SetPowerMode
 1324              		.section	.text.CyXTAL_32KHZ_Stop,"ax",%progbits
 1325              		.align	2
 1326              		.global	CyXTAL_32KHZ_Stop
 1327              		.thumb
 1328              		.thumb_func
 1329              		.type	CyXTAL_32KHZ_Stop, %function
 1330              	CyXTAL_32KHZ_Stop:
 1331              	.LFB26:
1023:Generated_Source\PSoC5/CyLib.c **** 
1024:Generated_Source\PSoC5/CyLib.c **** 
1025:Generated_Source\PSoC5/CyLib.c **** /*******************************************************************************
1026:Generated_Source\PSoC5/CyLib.c **** * Function Name: CyXTAL_32KHZ_Start
1027:Generated_Source\PSoC5/CyLib.c **** ****************************************************************************//**
1028:Generated_Source\PSoC5/CyLib.c **** *
1029:Generated_Source\PSoC5/CyLib.c **** *  Enables the 32 KHz Crystal Oscillator.
1030:Generated_Source\PSoC5/CyLib.c **** *
1031:Generated_Source\PSoC5/CyLib.c **** *******************************************************************************/
1032:Generated_Source\PSoC5/CyLib.c **** void CyXTAL_32KHZ_Start(void) 
1033:Generated_Source\PSoC5/CyLib.c **** {
1034:Generated_Source\PSoC5/CyLib.c ****     volatile uint16 i;
1035:Generated_Source\PSoC5/CyLib.c **** 
1036:Generated_Source\PSoC5/CyLib.c ****     CY_CLK_XTAL32_TST_REG = CY_CLK_XTAL32_TST_DEFAULT;
1037:Generated_Source\PSoC5/CyLib.c ****     CY_CLK_XTAL32_TR_REG  = CY_CLK_XTAL32_TR_STARTUP;
1038:Generated_Source\PSoC5/CyLib.c ****     CY_CLK_XTAL32_CFG_REG = (CY_CLK_XTAL32_CFG_REG & ((uint8)(~CY_CLK_XTAL32_CFG_LP_MASK))) |
1039:Generated_Source\PSoC5/CyLib.c ****                                 CY_CLK_XTAL32_CFG_LP_DEFAULT;
1040:Generated_Source\PSoC5/CyLib.c **** 
1041:Generated_Source\PSoC5/CyLib.c ****     #if(CY_PSOC3)
1042:Generated_Source\PSoC5/CyLib.c ****         CY_CLK_XTAL32_CR_REG |= CY_CLK_XTAL32_CR_PDBEN;
1043:Generated_Source\PSoC5/CyLib.c ****     #endif  /* (CY_PSOC3) */
1044:Generated_Source\PSoC5/CyLib.c **** 
1045:Generated_Source\PSoC5/CyLib.c ****     /* Enable operation of 32K Crystal Oscillator */
1046:Generated_Source\PSoC5/CyLib.c ****     CY_CLK_XTAL32_CR_REG |= CY_CLK_XTAL32_CR_EN;
1047:Generated_Source\PSoC5/CyLib.c **** 
1048:Generated_Source\PSoC5/CyLib.c ****     for (i = 1000u; i > 0u; i--)
1049:Generated_Source\PSoC5/CyLib.c ****     {
1050:Generated_Source\PSoC5/CyLib.c ****         if(0u != (CyXTAL_32KHZ_ReadStatus() & CY_XTAL32K_ANA_STAT))
1051:Generated_Source\PSoC5/CyLib.c ****         {
1052:Generated_Source\PSoC5/CyLib.c ****             /* Ready - switch to high power mode */
1053:Generated_Source\PSoC5/CyLib.c ****             (void) CyXTAL_32KHZ_SetPowerMode(0u);
1054:Generated_Source\PSoC5/CyLib.c **** 
1055:Generated_Source\PSoC5/CyLib.c ****             break;
1056:Generated_Source\PSoC5/CyLib.c ****         }
1057:Generated_Source\PSoC5/CyLib.c ****         CyDelayUs(1u);
1058:Generated_Source\PSoC5/CyLib.c ****     }
1059:Generated_Source\PSoC5/CyLib.c **** }
1060:Generated_Source\PSoC5/CyLib.c **** 
1061:Generated_Source\PSoC5/CyLib.c **** 
1062:Generated_Source\PSoC5/CyLib.c **** /*******************************************************************************
1063:Generated_Source\PSoC5/CyLib.c **** * Function Name: CyXTAL_32KHZ_Stop
1064:Generated_Source\PSoC5/CyLib.c **** ****************************************************************************//**
ARM GAS  C:\Users\ingan\AppData\Local\Temp\ccwaQbAc.s 			page 45


1065:Generated_Source\PSoC5/CyLib.c **** *
1066:Generated_Source\PSoC5/CyLib.c **** *  Disables the 32KHz Crystal Oscillator.
1067:Generated_Source\PSoC5/CyLib.c **** *
1068:Generated_Source\PSoC5/CyLib.c **** *******************************************************************************/
1069:Generated_Source\PSoC5/CyLib.c **** void CyXTAL_32KHZ_Stop(void) 
1070:Generated_Source\PSoC5/CyLib.c **** {
 1332              		.loc 1 1070 0
 1333              		.cfi_startproc
 1334              		@ args = 0, pretend = 0, frame = 0
 1335              		@ frame_needed = 0, uses_anonymous_args = 0
 1336              		@ link register save eliminated.
1071:Generated_Source\PSoC5/CyLib.c ****     CY_CLK_XTAL32_TST_REG  = CY_CLK_XTAL32_TST_DEFAULT;
 1337              		.loc 1 1071 0
 1338 0000 F322     		movs	r2, #243
 1339 0002 094B     		ldr	r3, .L143
 1340 0004 1A70     		strb	r2, [r3]
1072:Generated_Source\PSoC5/CyLib.c ****     CY_CLK_XTAL32_TR_REG   = CY_CLK_XTAL32_TR_POWERDOWN;
 1341              		.loc 1 1072 0
 1342 0006 0022     		movs	r2, #0
 1343 0008 03F28E33 		addw	r3, r3, #910
 1344 000c 1A70     		strb	r2, [r3]
1073:Generated_Source\PSoC5/CyLib.c ****     CY_CLK_XTAL32_CFG_REG = (CY_CLK_XTAL32_CFG_REG & ((uint8)(~CY_CLK_XTAL32_CFG_LP_MASK))) |
 1345              		.loc 1 1073 0
 1346 000e 074A     		ldr	r2, .L143+4
 1347 0010 1378     		ldrb	r3, [r2]	@ zero_extendqisi2
 1348 0012 03F0F303 		and	r3, r3, #243
 1349 0016 43F00403 		orr	r3, r3, #4
 1350 001a 1370     		strb	r3, [r2]
1074:Generated_Source\PSoC5/CyLib.c ****                              CY_CLK_XTAL32_CFG_LP_DEFAULT;
1075:Generated_Source\PSoC5/CyLib.c ****     CY_CLK_XTAL32_CR_REG &= ((uint8)(~(CY_CLK_XTAL32_CR_EN | CY_CLK_XTAL32_CR_LPM)));
 1351              		.loc 1 1075 0
 1352 001c 013A     		subs	r2, r2, #1
 1353 001e 1378     		ldrb	r3, [r2]	@ zero_extendqisi2
 1354 0020 03F0FC03 		and	r3, r3, #252
 1355 0024 1370     		strb	r3, [r2]
 1356 0026 7047     		bx	lr
 1357              	.L144:
 1358              		.align	2
 1359              	.L143:
 1360 0028 0A430040 		.word	1073758986
 1361 002c 09430040 		.word	1073758985
 1362              		.cfi_endproc
 1363              	.LFE26:
 1364              		.size	CyXTAL_32KHZ_Stop, .-CyXTAL_32KHZ_Stop
 1365              		.section	.text.CyXTAL_32KHZ_ReadStatus,"ax",%progbits
 1366              		.align	2
 1367              		.global	CyXTAL_32KHZ_ReadStatus
 1368              		.thumb
 1369              		.thumb_func
 1370              		.type	CyXTAL_32KHZ_ReadStatus, %function
 1371              	CyXTAL_32KHZ_ReadStatus:
 1372              	.LFB27:
1076:Generated_Source\PSoC5/CyLib.c **** 
1077:Generated_Source\PSoC5/CyLib.c ****     #if(CY_PSOC3)
1078:Generated_Source\PSoC5/CyLib.c ****         CY_CLK_XTAL32_CR_REG &= ((uint8)(~CY_CLK_XTAL32_CR_PDBEN));
1079:Generated_Source\PSoC5/CyLib.c ****     #endif  /* (CY_PSOC3) */
1080:Generated_Source\PSoC5/CyLib.c **** }
ARM GAS  C:\Users\ingan\AppData\Local\Temp\ccwaQbAc.s 			page 46


1081:Generated_Source\PSoC5/CyLib.c **** 
1082:Generated_Source\PSoC5/CyLib.c **** 
1083:Generated_Source\PSoC5/CyLib.c **** /*******************************************************************************
1084:Generated_Source\PSoC5/CyLib.c **** * Function Name: CyXTAL_32KHZ_ReadStatus
1085:Generated_Source\PSoC5/CyLib.c **** ****************************************************************************//**
1086:Generated_Source\PSoC5/CyLib.c **** *
1087:Generated_Source\PSoC5/CyLib.c **** *  Returns status of the 32 KHz oscillator.
1088:Generated_Source\PSoC5/CyLib.c **** *
1089:Generated_Source\PSoC5/CyLib.c **** * \return
1090:Generated_Source\PSoC5/CyLib.c **** *  Value     Define                    Source
1091:Generated_Source\PSoC5/CyLib.c **** *  20        CY_XTAL32K_ANA_STAT       Analog measurement
1092:Generated_Source\PSoC5/CyLib.c **** *                                       1: Stable
1093:Generated_Source\PSoC5/CyLib.c **** *                                       0: Not stable
1094:Generated_Source\PSoC5/CyLib.c **** *
1095:Generated_Source\PSoC5/CyLib.c **** *******************************************************************************/
1096:Generated_Source\PSoC5/CyLib.c **** uint8 CyXTAL_32KHZ_ReadStatus(void) 
1097:Generated_Source\PSoC5/CyLib.c **** {
 1373              		.loc 1 1097 0
 1374              		.cfi_startproc
 1375              		@ args = 0, pretend = 0, frame = 0
 1376              		@ frame_needed = 0, uses_anonymous_args = 0
 1377              		@ link register save eliminated.
1098:Generated_Source\PSoC5/CyLib.c ****     return(CY_CLK_XTAL32_CR_REG & CY_XTAL32K_ANA_STAT);
 1378              		.loc 1 1098 0
 1379 0000 024B     		ldr	r3, .L146
 1380 0002 1878     		ldrb	r0, [r3]	@ zero_extendqisi2
1099:Generated_Source\PSoC5/CyLib.c **** }
 1381              		.loc 1 1099 0
 1382 0004 00F02000 		and	r0, r0, #32
 1383 0008 7047     		bx	lr
 1384              	.L147:
 1385 000a 00BF     		.align	2
 1386              	.L146:
 1387 000c 08430040 		.word	1073758984
 1388              		.cfi_endproc
 1389              	.LFE27:
 1390              		.size	CyXTAL_32KHZ_ReadStatus, .-CyXTAL_32KHZ_ReadStatus
 1391              		.section	.text.CyXTAL_Start,"ax",%progbits
 1392              		.align	2
 1393              		.global	CyXTAL_Start
 1394              		.thumb
 1395              		.thumb_func
 1396              		.type	CyXTAL_Start, %function
 1397              	CyXTAL_Start:
 1398              	.LFB29:
1100:Generated_Source\PSoC5/CyLib.c **** 
1101:Generated_Source\PSoC5/CyLib.c **** 
1102:Generated_Source\PSoC5/CyLib.c **** /*******************************************************************************
1103:Generated_Source\PSoC5/CyLib.c **** * Function Name: CyXTAL_32KHZ_SetPowerMode
1104:Generated_Source\PSoC5/CyLib.c **** ****************************************************************************//**
1105:Generated_Source\PSoC5/CyLib.c **** *
1106:Generated_Source\PSoC5/CyLib.c **** *  Sets the power mode for the 32 KHz oscillator used during the sleep mode.
1107:Generated_Source\PSoC5/CyLib.c **** *  Allows for lower power during sleep when there are fewer sources of noise.
1108:Generated_Source\PSoC5/CyLib.c **** *  During the active mode the oscillator is always run in the high power mode.
1109:Generated_Source\PSoC5/CyLib.c **** *
1110:Generated_Source\PSoC5/CyLib.c **** *  uint8 mode
1111:Generated_Source\PSoC5/CyLib.c **** *       \param 0: High power mode
ARM GAS  C:\Users\ingan\AppData\Local\Temp\ccwaQbAc.s 			page 47


1112:Generated_Source\PSoC5/CyLib.c **** *       \param 1: Low power mode during sleep
1113:Generated_Source\PSoC5/CyLib.c **** *
1114:Generated_Source\PSoC5/CyLib.c **** * \return
1115:Generated_Source\PSoC5/CyLib.c **** *  Previous power mode.
1116:Generated_Source\PSoC5/CyLib.c **** *
1117:Generated_Source\PSoC5/CyLib.c **** *******************************************************************************/
1118:Generated_Source\PSoC5/CyLib.c **** uint8 CyXTAL_32KHZ_SetPowerMode(uint8 mode) 
1119:Generated_Source\PSoC5/CyLib.c **** {
1120:Generated_Source\PSoC5/CyLib.c ****     uint8 state = (0u != (CY_CLK_XTAL32_CR_REG & CY_CLK_XTAL32_CR_LPM)) ? 1u : 0u;
1121:Generated_Source\PSoC5/CyLib.c **** 
1122:Generated_Source\PSoC5/CyLib.c ****     CY_CLK_XTAL32_TST_REG = CY_CLK_XTAL32_TST_DEFAULT;
1123:Generated_Source\PSoC5/CyLib.c **** 
1124:Generated_Source\PSoC5/CyLib.c ****     if(1u == mode)
1125:Generated_Source\PSoC5/CyLib.c ****     {
1126:Generated_Source\PSoC5/CyLib.c ****         /* Low power mode during Sleep */
1127:Generated_Source\PSoC5/CyLib.c ****         CY_CLK_XTAL32_TR_REG  = CY_CLK_XTAL32_TR_LOW_POWER;
1128:Generated_Source\PSoC5/CyLib.c ****         CyDelayUs(10u);
1129:Generated_Source\PSoC5/CyLib.c ****         CY_CLK_XTAL32_CFG_REG = (CY_CLK_XTAL32_CFG_REG & ((uint8)(~CY_CLK_XTAL32_CFG_LP_MASK))) |
1130:Generated_Source\PSoC5/CyLib.c ****                                 CY_CLK_XTAL32_CFG_LP_LOWPOWER;
1131:Generated_Source\PSoC5/CyLib.c ****         CyDelayUs(20u);
1132:Generated_Source\PSoC5/CyLib.c ****         CY_CLK_XTAL32_CR_REG |= CY_CLK_XTAL32_CR_LPM;
1133:Generated_Source\PSoC5/CyLib.c ****     }
1134:Generated_Source\PSoC5/CyLib.c ****     else
1135:Generated_Source\PSoC5/CyLib.c ****     {
1136:Generated_Source\PSoC5/CyLib.c ****         /* High power mode */
1137:Generated_Source\PSoC5/CyLib.c ****         CY_CLK_XTAL32_TR_REG  = CY_CLK_XTAL32_TR_HIGH_POWER;
1138:Generated_Source\PSoC5/CyLib.c ****         CyDelayUs(10u);
1139:Generated_Source\PSoC5/CyLib.c ****         CY_CLK_XTAL32_CFG_REG = (CY_CLK_XTAL32_CFG_REG & ((uint8)(~CY_CLK_XTAL32_CFG_LP_MASK))) |
1140:Generated_Source\PSoC5/CyLib.c ****                                 CY_CLK_XTAL32_CFG_LP_DEFAULT;
1141:Generated_Source\PSoC5/CyLib.c ****         CY_CLK_XTAL32_CR_REG &= ((uint8)(~CY_CLK_XTAL32_CR_LPM));
1142:Generated_Source\PSoC5/CyLib.c ****     }
1143:Generated_Source\PSoC5/CyLib.c **** 
1144:Generated_Source\PSoC5/CyLib.c ****     return(state);
1145:Generated_Source\PSoC5/CyLib.c **** }
1146:Generated_Source\PSoC5/CyLib.c **** 
1147:Generated_Source\PSoC5/CyLib.c **** 
1148:Generated_Source\PSoC5/CyLib.c **** /*******************************************************************************
1149:Generated_Source\PSoC5/CyLib.c **** * Function Name: CyXTAL_Start
1150:Generated_Source\PSoC5/CyLib.c **** ****************************************************************************//**
1151:Generated_Source\PSoC5/CyLib.c **** *
1152:Generated_Source\PSoC5/CyLib.c **** *  Enables the megahertz crystal.
1153:Generated_Source\PSoC5/CyLib.c **** *
1154:Generated_Source\PSoC5/CyLib.c **** *  PSoC 3:
1155:Generated_Source\PSoC5/CyLib.c **** *  Waits until the XERR bit is low (no error) for a millisecond or until the
1156:Generated_Source\PSoC5/CyLib.c **** *  number of milliseconds specified by the wait parameter has expired.
1157:Generated_Source\PSoC5/CyLib.c **** *
1158:Generated_Source\PSoC5/CyLib.c **** *   \param wait: Valid range [0-255].
1159:Generated_Source\PSoC5/CyLib.c **** *   This is the timeout value in milliseconds.
1160:Generated_Source\PSoC5/CyLib.c **** *   The appropriate value is crystal specific.
1161:Generated_Source\PSoC5/CyLib.c **** *
1162:Generated_Source\PSoC5/CyLib.c **** * \return
1163:Generated_Source\PSoC5/CyLib.c **** *   CYRET_SUCCESS - Completed successfully
1164:Generated_Source\PSoC5/CyLib.c **** *   CYRET_TIMEOUT - Timeout occurred without detecting a low value on XERR.
1165:Generated_Source\PSoC5/CyLib.c **** *
1166:Generated_Source\PSoC5/CyLib.c **** * Side Effects and Restrictions:
1167:Generated_Source\PSoC5/CyLib.c **** *  If wait is enabled (non-zero wait). Uses the Fast Timewheel to time the wait.
1168:Generated_Source\PSoC5/CyLib.c **** *  Any other use of the Fast Timewheel (FTW) will be stopped during the period
ARM GAS  C:\Users\ingan\AppData\Local\Temp\ccwaQbAc.s 			page 48


1169:Generated_Source\PSoC5/CyLib.c **** *  of this function and then restored.
1170:Generated_Source\PSoC5/CyLib.c **** *
1171:Generated_Source\PSoC5/CyLib.c **** *  Uses the 100KHz ILO.  If not enabled, this function will enable the 100KHz
1172:Generated_Source\PSoC5/CyLib.c **** *  ILO for the period of this function. No changes to the setup of the ILO,
1173:Generated_Source\PSoC5/CyLib.c **** *  Fast Timewheel, Central Timewheel or Once Per Second interrupt may be made
1174:Generated_Source\PSoC5/CyLib.c **** *  by interrupt routines during the period of this function.
1175:Generated_Source\PSoC5/CyLib.c **** *
1176:Generated_Source\PSoC5/CyLib.c **** *  The current operation of the ILO, Central Timewheel and Once Per Second
1177:Generated_Source\PSoC5/CyLib.c **** *  interrupt are maintained during the operation of this function provided the
1178:Generated_Source\PSoC5/CyLib.c **** *  reading of the Power Manager Interrupt Status Register is only done using the
1179:Generated_Source\PSoC5/CyLib.c **** *  CyPmReadStatus() function.
1180:Generated_Source\PSoC5/CyLib.c **** *
1181:Generated_Source\PSoC5/CyLib.c **** *******************************************************************************/
1182:Generated_Source\PSoC5/CyLib.c **** cystatus CyXTAL_Start(uint8 wait) 
1183:Generated_Source\PSoC5/CyLib.c **** {
 1399              		.loc 1 1183 0
 1400              		.cfi_startproc
 1401              		@ args = 0, pretend = 0, frame = 8
 1402              		@ frame_needed = 0, uses_anonymous_args = 0
 1403              	.LVL76:
 1404 0000 2DE9F041 		push	{r4, r5, r6, r7, r8, lr}
 1405              		.cfi_def_cfa_offset 24
 1406              		.cfi_offset 4, -24
 1407              		.cfi_offset 5, -20
 1408              		.cfi_offset 6, -16
 1409              		.cfi_offset 7, -12
 1410              		.cfi_offset 8, -8
 1411              		.cfi_offset 14, -4
 1412 0004 82B0     		sub	sp, sp, #8
 1413              		.cfi_def_cfa_offset 32
 1414              	.LVL77:
1184:Generated_Source\PSoC5/CyLib.c ****     cystatus status = CYRET_SUCCESS;
1185:Generated_Source\PSoC5/CyLib.c ****     volatile uint8  timeout = wait;
 1415              		.loc 1 1185 0
 1416 0006 8DF80700 		strb	r0, [sp, #7]
1186:Generated_Source\PSoC5/CyLib.c ****     volatile uint8 count;
1187:Generated_Source\PSoC5/CyLib.c ****     uint8 iloEnableState;
1188:Generated_Source\PSoC5/CyLib.c ****     uint8 pmTwCfg0Tmp;
1189:Generated_Source\PSoC5/CyLib.c ****     uint8 pmTwCfg2Tmp;
1190:Generated_Source\PSoC5/CyLib.c **** 
1191:Generated_Source\PSoC5/CyLib.c **** 
1192:Generated_Source\PSoC5/CyLib.c ****     /* Enables MHz crystal oscillator circuit  */
1193:Generated_Source\PSoC5/CyLib.c ****     CY_CLK_XMHZ_CSR_REG |= CY_CLK_XMHZ_CSR_ENABLE;
 1417              		.loc 1 1193 0
 1418 000a 2C4A     		ldr	r2, .L164
 1419 000c 1378     		ldrb	r3, [r2]	@ zero_extendqisi2
 1420 000e 43F00103 		orr	r3, r3, #1
 1421 0012 1370     		strb	r3, [r2]
1194:Generated_Source\PSoC5/CyLib.c **** 
1195:Generated_Source\PSoC5/CyLib.c **** 
1196:Generated_Source\PSoC5/CyLib.c ****     if(wait > 0u)
 1422              		.loc 1 1196 0
 1423 0014 0028     		cmp	r0, #0
 1424 0016 4CD0     		beq	.L156
1197:Generated_Source\PSoC5/CyLib.c ****     {
1198:Generated_Source\PSoC5/CyLib.c ****         /* Save 100 KHz ILO, FTW interval, enable and interrupt enable */
1199:Generated_Source\PSoC5/CyLib.c ****         iloEnableState = CY_LIB_SLOWCLK_ILO_CR0_REG;
ARM GAS  C:\Users\ingan\AppData\Local\Temp\ccwaQbAc.s 			page 49


 1425              		.loc 1 1199 0
 1426 0018 294B     		ldr	r3, .L164+4
 1427 001a 93F80080 		ldrb	r8, [r3]	@ zero_extendqisi2
 1428 001e 5FFA88F8 		uxtb	r8, r8
 1429              	.LVL78:
1200:Generated_Source\PSoC5/CyLib.c ****         pmTwCfg0Tmp = CY_LIB_PM_TW_CFG0_REG;
 1430              		.loc 1 1200 0
 1431 0022 8033     		adds	r3, r3, #128
 1432 0024 1F78     		ldrb	r7, [r3]	@ zero_extendqisi2
 1433 0026 FFB2     		uxtb	r7, r7
 1434              	.LVL79:
1201:Generated_Source\PSoC5/CyLib.c ****         pmTwCfg2Tmp = CY_LIB_PM_TW_CFG2_REG;
 1435              		.loc 1 1201 0
 1436 0028 0233     		adds	r3, r3, #2
 1437 002a 1E78     		ldrb	r6, [r3]	@ zero_extendqisi2
 1438 002c F6B2     		uxtb	r6, r6
 1439              	.LVL80:
1202:Generated_Source\PSoC5/CyLib.c **** 
1203:Generated_Source\PSoC5/CyLib.c ****         /* Set 250 us interval */
1204:Generated_Source\PSoC5/CyLib.c ****         CyPmFtwSetInterval(CY_CLK_XMHZ_FTW_INTERVAL);
 1440              		.loc 1 1204 0
 1441 002e 1820     		movs	r0, #24
 1442              	.LVL81:
 1443 0030 FFF7FEFF 		bl	CyPmFtwSetInterval
 1444              	.LVL82:
1205:Generated_Source\PSoC5/CyLib.c ****         status = CYRET_TIMEOUT;
1206:Generated_Source\PSoC5/CyLib.c **** 
1207:Generated_Source\PSoC5/CyLib.c **** 
1208:Generated_Source\PSoC5/CyLib.c ****         for( ; timeout > 0u; timeout--)
 1445              		.loc 1 1208 0
 1446 0034 9DF80730 		ldrb	r3, [sp, #7]	@ zero_extendqisi2
 1447 0038 13F0FF0F 		tst	r3, #255
 1448 003c 2CD0     		beq	.L157
1209:Generated_Source\PSoC5/CyLib.c ****         {
1210:Generated_Source\PSoC5/CyLib.c ****             /* Read XERR bit to clear it */
1211:Generated_Source\PSoC5/CyLib.c ****             (void) CY_CLK_XMHZ_CSR_REG;
 1449              		.loc 1 1211 0
 1450 003e 1F4D     		ldr	r5, .L164
1212:Generated_Source\PSoC5/CyLib.c **** 
1213:Generated_Source\PSoC5/CyLib.c ****             /* Wait for 1 millisecond - 4 x 250 us */
1214:Generated_Source\PSoC5/CyLib.c ****             for(count = 4u; count > 0u; count--)
1215:Generated_Source\PSoC5/CyLib.c ****             {
1216:Generated_Source\PSoC5/CyLib.c ****                 while(0u == (CY_PM_FTW_INT & CyPmReadStatus(CY_PM_FTW_INT)))
 1451              		.loc 1 1216 0
 1452 0040 0124     		movs	r4, #1
 1453              	.L159:
1211:Generated_Source\PSoC5/CyLib.c **** 
 1454              		.loc 1 1211 0
 1455 0042 2B78     		ldrb	r3, [r5]	@ zero_extendqisi2
1214:Generated_Source\PSoC5/CyLib.c ****             {
 1456              		.loc 1 1214 0
 1457 0044 0423     		movs	r3, #4
 1458 0046 8DF80630 		strb	r3, [sp, #6]
 1459 004a 9DF80630 		ldrb	r3, [sp, #6]	@ zero_extendqisi2
 1460 004e 13F0FF0F 		tst	r3, #255
 1461 0052 10D0     		beq	.L152
 1462              	.L153:
ARM GAS  C:\Users\ingan\AppData\Local\Temp\ccwaQbAc.s 			page 50


 1463              		.loc 1 1216 0 discriminator 1
 1464 0054 2046     		mov	r0, r4
 1465 0056 FFF7FEFF 		bl	CyPmReadStatus
 1466              	.LVL83:
 1467 005a 10F0010F 		tst	r0, #1
 1468 005e F9D0     		beq	.L153
1214:Generated_Source\PSoC5/CyLib.c ****             {
 1469              		.loc 1 1214 0 discriminator 2
 1470 0060 9DF80630 		ldrb	r3, [sp, #6]	@ zero_extendqisi2
 1471 0064 013B     		subs	r3, r3, #1
 1472 0066 DBB2     		uxtb	r3, r3
 1473 0068 8DF80630 		strb	r3, [sp, #6]
 1474 006c 9DF80630 		ldrb	r3, [sp, #6]	@ zero_extendqisi2
 1475 0070 13F0FF0F 		tst	r3, #255
 1476 0074 EED1     		bne	.L153
 1477              	.L152:
1217:Generated_Source\PSoC5/CyLib.c ****                 {
1218:Generated_Source\PSoC5/CyLib.c ****                     /* Wait for FTW interrupt event */
1219:Generated_Source\PSoC5/CyLib.c ****                 }
1220:Generated_Source\PSoC5/CyLib.c ****             }
1221:Generated_Source\PSoC5/CyLib.c **** 
1222:Generated_Source\PSoC5/CyLib.c **** 
1223:Generated_Source\PSoC5/CyLib.c ****             /*******************************************************************
1224:Generated_Source\PSoC5/CyLib.c ****             * High output indicates an oscillator failure.
1225:Generated_Source\PSoC5/CyLib.c ****             * Only can be used after a start-up interval (1 ms) is completed.
1226:Generated_Source\PSoC5/CyLib.c ****             *******************************************************************/
1227:Generated_Source\PSoC5/CyLib.c ****             if(0u == (CY_CLK_XMHZ_CSR_REG & CY_CLK_XMHZ_CSR_XERR))
 1478              		.loc 1 1227 0
 1479 0076 2B78     		ldrb	r3, [r5]	@ zero_extendqisi2
 1480 0078 13F0800F 		tst	r3, #128
 1481 007c 0ED0     		beq	.L158
1208:Generated_Source\PSoC5/CyLib.c ****         {
 1482              		.loc 1 1208 0
 1483 007e 9DF80730 		ldrb	r3, [sp, #7]	@ zero_extendqisi2
 1484 0082 013B     		subs	r3, r3, #1
 1485 0084 DBB2     		uxtb	r3, r3
 1486 0086 8DF80730 		strb	r3, [sp, #7]
 1487 008a 9DF80730 		ldrb	r3, [sp, #7]	@ zero_extendqisi2
 1488 008e 13F0FF0F 		tst	r3, #255
 1489 0092 D6D1     		bne	.L159
1205:Generated_Source\PSoC5/CyLib.c **** 
 1490              		.loc 1 1205 0
 1491 0094 1024     		movs	r4, #16
 1492 0096 02E0     		b	.L150
 1493              	.L157:
 1494 0098 1024     		movs	r4, #16
 1495 009a 00E0     		b	.L150
 1496              	.L158:
1228:Generated_Source\PSoC5/CyLib.c ****             {
1229:Generated_Source\PSoC5/CyLib.c ****                 status = CYRET_SUCCESS;
 1497              		.loc 1 1229 0
 1498 009c 0024     		movs	r4, #0
 1499              	.L150:
 1500              	.LVL84:
1230:Generated_Source\PSoC5/CyLib.c ****                 break;
1231:Generated_Source\PSoC5/CyLib.c ****             }
1232:Generated_Source\PSoC5/CyLib.c ****         }
ARM GAS  C:\Users\ingan\AppData\Local\Temp\ccwaQbAc.s 			page 51


1233:Generated_Source\PSoC5/CyLib.c **** 
1234:Generated_Source\PSoC5/CyLib.c **** 
1235:Generated_Source\PSoC5/CyLib.c ****         /* Restore 100 KHz ILO, FTW interval, enable and interrupt enable */
1236:Generated_Source\PSoC5/CyLib.c ****         if(0u == (iloEnableState & CY_LIB_SLOWCLK_ILO_CR0_EN_100KHZ))
 1501              		.loc 1 1236 0
 1502 009e 18F0040F 		tst	r8, #4
 1503 00a2 01D1     		bne	.L155
1237:Generated_Source\PSoC5/CyLib.c ****         {
1238:Generated_Source\PSoC5/CyLib.c ****             CyILO_Stop100K();
 1504              		.loc 1 1238 0
 1505 00a4 FFF7FEFF 		bl	CyILO_Stop100K
 1506              	.LVL85:
 1507              	.L155:
1239:Generated_Source\PSoC5/CyLib.c ****         }
1240:Generated_Source\PSoC5/CyLib.c ****         CY_LIB_PM_TW_CFG0_REG = pmTwCfg0Tmp;
 1508              		.loc 1 1240 0
 1509 00a8 064B     		ldr	r3, .L164+8
 1510 00aa 1F70     		strb	r7, [r3]
1241:Generated_Source\PSoC5/CyLib.c ****         CY_LIB_PM_TW_CFG2_REG = pmTwCfg2Tmp;
 1511              		.loc 1 1241 0
 1512 00ac 0233     		adds	r3, r3, #2
 1513 00ae 1E70     		strb	r6, [r3]
 1514 00b0 00E0     		b	.L149
 1515              	.LVL86:
 1516              	.L156:
1184:Generated_Source\PSoC5/CyLib.c ****     volatile uint8  timeout = wait;
 1517              		.loc 1 1184 0
 1518 00b2 0024     		movs	r4, #0
 1519              	.LVL87:
 1520              	.L149:
1242:Generated_Source\PSoC5/CyLib.c ****     }
1243:Generated_Source\PSoC5/CyLib.c **** 
1244:Generated_Source\PSoC5/CyLib.c ****     return(status);
1245:Generated_Source\PSoC5/CyLib.c **** }
 1521              		.loc 1 1245 0
 1522 00b4 2046     		mov	r0, r4
 1523 00b6 02B0     		add	sp, sp, #8
 1524              		.cfi_def_cfa_offset 24
 1525              		@ sp needed
 1526 00b8 BDE8F081 		pop	{r4, r5, r6, r7, r8, pc}
 1527              	.LVL88:
 1528              	.L165:
 1529              		.align	2
 1530              	.L164:
 1531 00bc 10420040 		.word	1073758736
 1532 00c0 00430040 		.word	1073758976
 1533 00c4 80430040 		.word	1073759104
 1534              		.cfi_endproc
 1535              	.LFE29:
 1536              		.size	CyXTAL_Start, .-CyXTAL_Start
 1537              		.section	.text.CyXTAL_Stop,"ax",%progbits
 1538              		.align	2
 1539              		.global	CyXTAL_Stop
 1540              		.thumb
 1541              		.thumb_func
 1542              		.type	CyXTAL_Stop, %function
 1543              	CyXTAL_Stop:
ARM GAS  C:\Users\ingan\AppData\Local\Temp\ccwaQbAc.s 			page 52


 1544              	.LFB30:
1246:Generated_Source\PSoC5/CyLib.c **** 
1247:Generated_Source\PSoC5/CyLib.c **** 
1248:Generated_Source\PSoC5/CyLib.c **** /*******************************************************************************
1249:Generated_Source\PSoC5/CyLib.c **** * Function Name: CyXTAL_Stop
1250:Generated_Source\PSoC5/CyLib.c **** ****************************************************************************//**
1251:Generated_Source\PSoC5/CyLib.c **** *
1252:Generated_Source\PSoC5/CyLib.c **** *  Disables the megahertz crystal oscillator.
1253:Generated_Source\PSoC5/CyLib.c **** *
1254:Generated_Source\PSoC5/CyLib.c **** *******************************************************************************/
1255:Generated_Source\PSoC5/CyLib.c **** void CyXTAL_Stop(void) 
1256:Generated_Source\PSoC5/CyLib.c **** {
 1545              		.loc 1 1256 0
 1546              		.cfi_startproc
 1547              		@ args = 0, pretend = 0, frame = 0
 1548              		@ frame_needed = 0, uses_anonymous_args = 0
 1549              		@ link register save eliminated.
1257:Generated_Source\PSoC5/CyLib.c ****     /* Disable oscillator. */
1258:Generated_Source\PSoC5/CyLib.c ****     FASTCLK_XMHZ_CSR &= ((uint8)(~XMHZ_CONTROL_ENABLE));
 1550              		.loc 1 1258 0
 1551 0000 024A     		ldr	r2, .L167
 1552 0002 1378     		ldrb	r3, [r2]	@ zero_extendqisi2
 1553 0004 03F0FE03 		and	r3, r3, #254
 1554 0008 1370     		strb	r3, [r2]
 1555 000a 7047     		bx	lr
 1556              	.L168:
 1557              		.align	2
 1558              	.L167:
 1559 000c 10420040 		.word	1073758736
 1560              		.cfi_endproc
 1561              	.LFE30:
 1562              		.size	CyXTAL_Stop, .-CyXTAL_Stop
 1563              		.section	.text.CyXTAL_EnableErrStatus,"ax",%progbits
 1564              		.align	2
 1565              		.global	CyXTAL_EnableErrStatus
 1566              		.thumb
 1567              		.thumb_func
 1568              		.type	CyXTAL_EnableErrStatus, %function
 1569              	CyXTAL_EnableErrStatus:
 1570              	.LFB31:
1259:Generated_Source\PSoC5/CyLib.c **** }
1260:Generated_Source\PSoC5/CyLib.c **** 
1261:Generated_Source\PSoC5/CyLib.c **** 
1262:Generated_Source\PSoC5/CyLib.c **** /*******************************************************************************
1263:Generated_Source\PSoC5/CyLib.c **** * Function Name: CyXTAL_EnableErrStatus
1264:Generated_Source\PSoC5/CyLib.c **** ****************************************************************************//**
1265:Generated_Source\PSoC5/CyLib.c **** *
1266:Generated_Source\PSoC5/CyLib.c **** *  Enables the generation of the XERR status bit for the megahertz crystal.
1267:Generated_Source\PSoC5/CyLib.c **** *  This function is not available for PSoC5.
1268:Generated_Source\PSoC5/CyLib.c **** *
1269:Generated_Source\PSoC5/CyLib.c **** *******************************************************************************/
1270:Generated_Source\PSoC5/CyLib.c **** void CyXTAL_EnableErrStatus(void) 
1271:Generated_Source\PSoC5/CyLib.c **** {
 1571              		.loc 1 1271 0
 1572              		.cfi_startproc
 1573              		@ args = 0, pretend = 0, frame = 0
 1574              		@ frame_needed = 0, uses_anonymous_args = 0
ARM GAS  C:\Users\ingan\AppData\Local\Temp\ccwaQbAc.s 			page 53


 1575              		@ link register save eliminated.
1272:Generated_Source\PSoC5/CyLib.c ****     /* If oscillator has insufficient amplitude, XERR bit will be high. */
1273:Generated_Source\PSoC5/CyLib.c ****     CY_CLK_XMHZ_CSR_REG &= ((uint8)(~CY_CLK_XMHZ_CSR_XFB));
 1576              		.loc 1 1273 0
 1577 0000 024A     		ldr	r2, .L170
 1578 0002 1378     		ldrb	r3, [r2]	@ zero_extendqisi2
 1579 0004 03F0FB03 		and	r3, r3, #251
 1580 0008 1370     		strb	r3, [r2]
 1581 000a 7047     		bx	lr
 1582              	.L171:
 1583              		.align	2
 1584              	.L170:
 1585 000c 10420040 		.word	1073758736
 1586              		.cfi_endproc
 1587              	.LFE31:
 1588              		.size	CyXTAL_EnableErrStatus, .-CyXTAL_EnableErrStatus
 1589              		.section	.text.CyXTAL_DisableErrStatus,"ax",%progbits
 1590              		.align	2
 1591              		.global	CyXTAL_DisableErrStatus
 1592              		.thumb
 1593              		.thumb_func
 1594              		.type	CyXTAL_DisableErrStatus, %function
 1595              	CyXTAL_DisableErrStatus:
 1596              	.LFB32:
1274:Generated_Source\PSoC5/CyLib.c **** }
1275:Generated_Source\PSoC5/CyLib.c **** 
1276:Generated_Source\PSoC5/CyLib.c **** 
1277:Generated_Source\PSoC5/CyLib.c **** /*******************************************************************************
1278:Generated_Source\PSoC5/CyLib.c **** * Function Name: CyXTAL_DisableErrStatus
1279:Generated_Source\PSoC5/CyLib.c **** ****************************************************************************//**
1280:Generated_Source\PSoC5/CyLib.c **** *
1281:Generated_Source\PSoC5/CyLib.c **** *  Disables the generation of the XERR status bit for the megahertz crystal.
1282:Generated_Source\PSoC5/CyLib.c **** *  This function is not available for PSoC5.
1283:Generated_Source\PSoC5/CyLib.c **** *
1284:Generated_Source\PSoC5/CyLib.c **** *******************************************************************************/
1285:Generated_Source\PSoC5/CyLib.c **** void CyXTAL_DisableErrStatus(void) 
1286:Generated_Source\PSoC5/CyLib.c **** {
 1597              		.loc 1 1286 0
 1598              		.cfi_startproc
 1599              		@ args = 0, pretend = 0, frame = 0
 1600              		@ frame_needed = 0, uses_anonymous_args = 0
 1601              		@ link register save eliminated.
1287:Generated_Source\PSoC5/CyLib.c ****     /* If oscillator has insufficient amplitude, XERR bit will be high. */
1288:Generated_Source\PSoC5/CyLib.c ****     CY_CLK_XMHZ_CSR_REG |= CY_CLK_XMHZ_CSR_XFB;
 1602              		.loc 1 1288 0
 1603 0000 024A     		ldr	r2, .L173
 1604 0002 1378     		ldrb	r3, [r2]	@ zero_extendqisi2
 1605 0004 43F00403 		orr	r3, r3, #4
 1606 0008 1370     		strb	r3, [r2]
 1607 000a 7047     		bx	lr
 1608              	.L174:
 1609              		.align	2
 1610              	.L173:
 1611 000c 10420040 		.word	1073758736
 1612              		.cfi_endproc
 1613              	.LFE32:
 1614              		.size	CyXTAL_DisableErrStatus, .-CyXTAL_DisableErrStatus
ARM GAS  C:\Users\ingan\AppData\Local\Temp\ccwaQbAc.s 			page 54


 1615              		.section	.text.CyXTAL_ReadStatus,"ax",%progbits
 1616              		.align	2
 1617              		.global	CyXTAL_ReadStatus
 1618              		.thumb
 1619              		.thumb_func
 1620              		.type	CyXTAL_ReadStatus, %function
 1621              	CyXTAL_ReadStatus:
 1622              	.LFB33:
1289:Generated_Source\PSoC5/CyLib.c **** }
1290:Generated_Source\PSoC5/CyLib.c **** 
1291:Generated_Source\PSoC5/CyLib.c **** 
1292:Generated_Source\PSoC5/CyLib.c **** /*******************************************************************************
1293:Generated_Source\PSoC5/CyLib.c **** * Function Name: CyXTAL_ReadStatus
1294:Generated_Source\PSoC5/CyLib.c **** ****************************************************************************//**
1295:Generated_Source\PSoC5/CyLib.c **** *
1296:Generated_Source\PSoC5/CyLib.c **** *  Reads the XERR status bit for the megahertz crystal. This status bit is a
1297:Generated_Source\PSoC5/CyLib.c **** *  sticky, clear on read. This function is not available for PSoC5.
1298:Generated_Source\PSoC5/CyLib.c **** *
1299:Generated_Source\PSoC5/CyLib.c **** * \return
1300:Generated_Source\PSoC5/CyLib.c **** *   Status
1301:Generated_Source\PSoC5/CyLib.c **** *    0: No error
1302:Generated_Source\PSoC5/CyLib.c **** *    1: Error
1303:Generated_Source\PSoC5/CyLib.c **** *
1304:Generated_Source\PSoC5/CyLib.c **** *******************************************************************************/
1305:Generated_Source\PSoC5/CyLib.c **** uint8 CyXTAL_ReadStatus(void) 
1306:Generated_Source\PSoC5/CyLib.c **** {
 1623              		.loc 1 1306 0
 1624              		.cfi_startproc
 1625              		@ args = 0, pretend = 0, frame = 0
 1626              		@ frame_needed = 0, uses_anonymous_args = 0
 1627              		@ link register save eliminated.
1307:Generated_Source\PSoC5/CyLib.c ****     /***************************************************************************
1308:Generated_Source\PSoC5/CyLib.c ****     * High output indicates an oscillator failure. Only use this after a start-up
1309:Generated_Source\PSoC5/CyLib.c ****     * interval is completed. This can be used for the status and failure recovery.
1310:Generated_Source\PSoC5/CyLib.c ****     ***************************************************************************/
1311:Generated_Source\PSoC5/CyLib.c ****     return((0u != (CY_CLK_XMHZ_CSR_REG & CY_CLK_XMHZ_CSR_XERR)) ? 1u : 0u);
 1628              		.loc 1 1311 0
 1629 0000 014B     		ldr	r3, .L176
 1630 0002 1878     		ldrb	r0, [r3]	@ zero_extendqisi2
1312:Generated_Source\PSoC5/CyLib.c **** }
 1631              		.loc 1 1312 0
 1632 0004 C009     		lsrs	r0, r0, #7
 1633 0006 7047     		bx	lr
 1634              	.L177:
 1635              		.align	2
 1636              	.L176:
 1637 0008 10420040 		.word	1073758736
 1638              		.cfi_endproc
 1639              	.LFE33:
 1640              		.size	CyXTAL_ReadStatus, .-CyXTAL_ReadStatus
 1641              		.section	.text.CyXTAL_EnableFaultRecovery,"ax",%progbits
 1642              		.align	2
 1643              		.global	CyXTAL_EnableFaultRecovery
 1644              		.thumb
 1645              		.thumb_func
 1646              		.type	CyXTAL_EnableFaultRecovery, %function
 1647              	CyXTAL_EnableFaultRecovery:
ARM GAS  C:\Users\ingan\AppData\Local\Temp\ccwaQbAc.s 			page 55


 1648              	.LFB34:
1313:Generated_Source\PSoC5/CyLib.c **** 
1314:Generated_Source\PSoC5/CyLib.c **** 
1315:Generated_Source\PSoC5/CyLib.c **** /*******************************************************************************
1316:Generated_Source\PSoC5/CyLib.c **** * Function Name: CyXTAL_EnableFaultRecovery
1317:Generated_Source\PSoC5/CyLib.c **** ****************************************************************************//**
1318:Generated_Source\PSoC5/CyLib.c **** *
1319:Generated_Source\PSoC5/CyLib.c **** *  Enables the fault recovery circuit which will switch to the IMO in the case
1320:Generated_Source\PSoC5/CyLib.c **** *  of a fault in the megahertz crystal circuit. The crystal must be up and
1321:Generated_Source\PSoC5/CyLib.c **** *  running with the XERR bit at 0, before calling this function to prevent
1322:Generated_Source\PSoC5/CyLib.c **** *  an immediate fault switchover. This function is not available for PSoC5.
1323:Generated_Source\PSoC5/CyLib.c **** *
1324:Generated_Source\PSoC5/CyLib.c **** *******************************************************************************/
1325:Generated_Source\PSoC5/CyLib.c **** void CyXTAL_EnableFaultRecovery(void) 
1326:Generated_Source\PSoC5/CyLib.c **** {
 1649              		.loc 1 1326 0
 1650              		.cfi_startproc
 1651              		@ args = 0, pretend = 0, frame = 0
 1652              		@ frame_needed = 0, uses_anonymous_args = 0
 1653              		@ link register save eliminated.
1327:Generated_Source\PSoC5/CyLib.c ****     CY_CLK_XMHZ_CSR_REG |= CY_CLK_XMHZ_CSR_XPROT;
 1654              		.loc 1 1327 0
 1655 0000 024A     		ldr	r2, .L179
 1656 0002 1378     		ldrb	r3, [r2]	@ zero_extendqisi2
 1657 0004 43F04003 		orr	r3, r3, #64
 1658 0008 1370     		strb	r3, [r2]
 1659 000a 7047     		bx	lr
 1660              	.L180:
 1661              		.align	2
 1662              	.L179:
 1663 000c 10420040 		.word	1073758736
 1664              		.cfi_endproc
 1665              	.LFE34:
 1666              		.size	CyXTAL_EnableFaultRecovery, .-CyXTAL_EnableFaultRecovery
 1667              		.section	.text.CyXTAL_DisableFaultRecovery,"ax",%progbits
 1668              		.align	2
 1669              		.global	CyXTAL_DisableFaultRecovery
 1670              		.thumb
 1671              		.thumb_func
 1672              		.type	CyXTAL_DisableFaultRecovery, %function
 1673              	CyXTAL_DisableFaultRecovery:
 1674              	.LFB35:
1328:Generated_Source\PSoC5/CyLib.c **** }
1329:Generated_Source\PSoC5/CyLib.c **** 
1330:Generated_Source\PSoC5/CyLib.c **** 
1331:Generated_Source\PSoC5/CyLib.c **** /*******************************************************************************
1332:Generated_Source\PSoC5/CyLib.c **** * Function Name: CyXTAL_DisableFaultRecovery
1333:Generated_Source\PSoC5/CyLib.c **** ****************************************************************************//**
1334:Generated_Source\PSoC5/CyLib.c **** *
1335:Generated_Source\PSoC5/CyLib.c **** *  Disables the fault recovery circuit which will switch to the IMO in the case
1336:Generated_Source\PSoC5/CyLib.c **** *  of a fault in the megahertz crystal circuit. This function is not available
1337:Generated_Source\PSoC5/CyLib.c **** *  for PSoC5.
1338:Generated_Source\PSoC5/CyLib.c **** *
1339:Generated_Source\PSoC5/CyLib.c **** *******************************************************************************/
1340:Generated_Source\PSoC5/CyLib.c **** void CyXTAL_DisableFaultRecovery(void) 
1341:Generated_Source\PSoC5/CyLib.c **** {
 1675              		.loc 1 1341 0
ARM GAS  C:\Users\ingan\AppData\Local\Temp\ccwaQbAc.s 			page 56


 1676              		.cfi_startproc
 1677              		@ args = 0, pretend = 0, frame = 0
 1678              		@ frame_needed = 0, uses_anonymous_args = 0
 1679              		@ link register save eliminated.
1342:Generated_Source\PSoC5/CyLib.c ****     CY_CLK_XMHZ_CSR_REG &= ((uint8)(~CY_CLK_XMHZ_CSR_XPROT));
 1680              		.loc 1 1342 0
 1681 0000 024A     		ldr	r2, .L182
 1682 0002 1378     		ldrb	r3, [r2]	@ zero_extendqisi2
 1683 0004 03F0BF03 		and	r3, r3, #191
 1684 0008 1370     		strb	r3, [r2]
 1685 000a 7047     		bx	lr
 1686              	.L183:
 1687              		.align	2
 1688              	.L182:
 1689 000c 10420040 		.word	1073758736
 1690              		.cfi_endproc
 1691              	.LFE35:
 1692              		.size	CyXTAL_DisableFaultRecovery, .-CyXTAL_DisableFaultRecovery
 1693              		.section	.text.CyXTAL_SetStartup,"ax",%progbits
 1694              		.align	2
 1695              		.global	CyXTAL_SetStartup
 1696              		.thumb
 1697              		.thumb_func
 1698              		.type	CyXTAL_SetStartup, %function
 1699              	CyXTAL_SetStartup:
 1700              	.LFB36:
1343:Generated_Source\PSoC5/CyLib.c **** }
1344:Generated_Source\PSoC5/CyLib.c **** 
1345:Generated_Source\PSoC5/CyLib.c **** 
1346:Generated_Source\PSoC5/CyLib.c **** /*******************************************************************************
1347:Generated_Source\PSoC5/CyLib.c **** * Function Name: CyXTAL_SetStartup
1348:Generated_Source\PSoC5/CyLib.c **** ****************************************************************************//**
1349:Generated_Source\PSoC5/CyLib.c **** *
1350:Generated_Source\PSoC5/CyLib.c **** *  Sets the startup settings for the crystal. The logic model outputs a
1351:Generated_Source\PSoC5/CyLib.c **** *  frequency (setting + 4) MHz when enabled.
1352:Generated_Source\PSoC5/CyLib.c **** *
1353:Generated_Source\PSoC5/CyLib.c **** *  This is artificial as the actual frequency is determined by an attached
1354:Generated_Source\PSoC5/CyLib.c **** *  external crystal.
1355:Generated_Source\PSoC5/CyLib.c **** *
1356:Generated_Source\PSoC5/CyLib.c **** *  \param setting: Valid range [0-31].
1357:Generated_Source\PSoC5/CyLib.c **** *   The value is dependent on the frequency and quality of the crystal being
1358:Generated_Source\PSoC5/CyLib.c **** *   used. Refer to the device TRM and datasheet for more information.
1359:Generated_Source\PSoC5/CyLib.c **** *
1360:Generated_Source\PSoC5/CyLib.c **** *******************************************************************************/
1361:Generated_Source\PSoC5/CyLib.c **** void CyXTAL_SetStartup(uint8 setting) 
1362:Generated_Source\PSoC5/CyLib.c **** {
 1701              		.loc 1 1362 0
 1702              		.cfi_startproc
 1703              		@ args = 0, pretend = 0, frame = 0
 1704              		@ frame_needed = 0, uses_anonymous_args = 0
 1705              		@ link register save eliminated.
 1706              	.LVL89:
1363:Generated_Source\PSoC5/CyLib.c ****     CY_CLK_XMHZ_CFG0_REG = (CY_CLK_XMHZ_CFG0_REG & ((uint8)(~CY_CLK_XMHZ_CFG0_XCFG_MASK))) |
 1707              		.loc 1 1363 0
 1708 0000 044A     		ldr	r2, .L185
 1709 0002 1378     		ldrb	r3, [r2]	@ zero_extendqisi2
 1710 0004 03F0E003 		and	r3, r3, #224
ARM GAS  C:\Users\ingan\AppData\Local\Temp\ccwaQbAc.s 			page 57


 1711 0008 00F01F00 		and	r0, r0, #31
 1712              	.LVL90:
 1713 000c 1843     		orrs	r0, r0, r3
 1714 000e 1070     		strb	r0, [r2]
 1715 0010 7047     		bx	lr
 1716              	.L186:
 1717 0012 00BF     		.align	2
 1718              	.L185:
 1719 0014 12420040 		.word	1073758738
 1720              		.cfi_endproc
 1721              	.LFE36:
 1722              		.size	CyXTAL_SetStartup, .-CyXTAL_SetStartup
 1723              		.section	.text.CyXTAL_SetFbVoltage,"ax",%progbits
 1724              		.align	2
 1725              		.global	CyXTAL_SetFbVoltage
 1726              		.thumb
 1727              		.thumb_func
 1728              		.type	CyXTAL_SetFbVoltage, %function
 1729              	CyXTAL_SetFbVoltage:
 1730              	.LFB37:
1364:Generated_Source\PSoC5/CyLib.c ****                            (setting & CY_CLK_XMHZ_CFG0_XCFG_MASK);
1365:Generated_Source\PSoC5/CyLib.c **** }
1366:Generated_Source\PSoC5/CyLib.c **** 
1367:Generated_Source\PSoC5/CyLib.c **** 
1368:Generated_Source\PSoC5/CyLib.c **** 
1369:Generated_Source\PSoC5/CyLib.c **** /*******************************************************************************
1370:Generated_Source\PSoC5/CyLib.c **** * Function Name: CyXTAL_SetFbVoltage
1371:Generated_Source\PSoC5/CyLib.c **** ****************************************************************************//**
1372:Generated_Source\PSoC5/CyLib.c **** *
1373:Generated_Source\PSoC5/CyLib.c **** *  Sets the feedback reference voltage to use for the crystal circuit.
1374:Generated_Source\PSoC5/CyLib.c **** *  This function is only available for PSoC3 and PSoC 5LP.
1375:Generated_Source\PSoC5/CyLib.c **** *
1376:Generated_Source\PSoC5/CyLib.c **** *  \param setting: Valid range [0-15].
1377:Generated_Source\PSoC5/CyLib.c **** *  Refer to the device TRM and datasheet for more information.
1378:Generated_Source\PSoC5/CyLib.c **** *
1379:Generated_Source\PSoC5/CyLib.c **** *******************************************************************************/
1380:Generated_Source\PSoC5/CyLib.c **** void CyXTAL_SetFbVoltage(uint8 setting) 
1381:Generated_Source\PSoC5/CyLib.c **** {
 1731              		.loc 1 1381 0
 1732              		.cfi_startproc
 1733              		@ args = 0, pretend = 0, frame = 0
 1734              		@ frame_needed = 0, uses_anonymous_args = 0
 1735              		@ link register save eliminated.
 1736              	.LVL91:
1382:Generated_Source\PSoC5/CyLib.c ****     CY_CLK_XMHZ_CFG1_REG = ((CY_CLK_XMHZ_CFG1_REG & ((uint8)(~CY_CLK_XMHZ_CFG1_VREF_FB_MASK))) |
 1737              		.loc 1 1382 0
 1738 0000 044A     		ldr	r2, .L188
 1739 0002 1378     		ldrb	r3, [r2]	@ zero_extendqisi2
 1740 0004 03F0F003 		and	r3, r3, #240
 1741 0008 00F00F00 		and	r0, r0, #15
 1742              	.LVL92:
 1743 000c 1843     		orrs	r0, r0, r3
 1744 000e 1070     		strb	r0, [r2]
 1745 0010 7047     		bx	lr
 1746              	.L189:
 1747 0012 00BF     		.align	2
 1748              	.L188:
ARM GAS  C:\Users\ingan\AppData\Local\Temp\ccwaQbAc.s 			page 58


 1749 0014 13420040 		.word	1073758739
 1750              		.cfi_endproc
 1751              	.LFE37:
 1752              		.size	CyXTAL_SetFbVoltage, .-CyXTAL_SetFbVoltage
 1753              		.section	.text.CyXTAL_SetWdVoltage,"ax",%progbits
 1754              		.align	2
 1755              		.global	CyXTAL_SetWdVoltage
 1756              		.thumb
 1757              		.thumb_func
 1758              		.type	CyXTAL_SetWdVoltage, %function
 1759              	CyXTAL_SetWdVoltage:
 1760              	.LFB38:
1383:Generated_Source\PSoC5/CyLib.c ****                             (setting & CY_CLK_XMHZ_CFG1_VREF_FB_MASK));
1384:Generated_Source\PSoC5/CyLib.c **** }
1385:Generated_Source\PSoC5/CyLib.c **** 
1386:Generated_Source\PSoC5/CyLib.c **** 
1387:Generated_Source\PSoC5/CyLib.c **** /*******************************************************************************
1388:Generated_Source\PSoC5/CyLib.c **** * Function Name: CyXTAL_SetWdVoltage
1389:Generated_Source\PSoC5/CyLib.c **** ****************************************************************************//**
1390:Generated_Source\PSoC5/CyLib.c **** *
1391:Generated_Source\PSoC5/CyLib.c **** *  Sets the reference voltage used by the watchdog to detect a failure in the
1392:Generated_Source\PSoC5/CyLib.c **** *  crystal circuit. This function is only available for PSoC3 and PSoC 5LP.
1393:Generated_Source\PSoC5/CyLib.c **** *
1394:Generated_Source\PSoC5/CyLib.c **** *  \param setting: Valid range [0-7].
1395:Generated_Source\PSoC5/CyLib.c **** *  Refer to the device TRM and datasheet for more information.
1396:Generated_Source\PSoC5/CyLib.c **** *
1397:Generated_Source\PSoC5/CyLib.c **** *******************************************************************************/
1398:Generated_Source\PSoC5/CyLib.c **** void CyXTAL_SetWdVoltage(uint8 setting) 
1399:Generated_Source\PSoC5/CyLib.c **** {
 1761              		.loc 1 1399 0
 1762              		.cfi_startproc
 1763              		@ args = 0, pretend = 0, frame = 0
 1764              		@ frame_needed = 0, uses_anonymous_args = 0
 1765              		@ link register save eliminated.
 1766              	.LVL93:
1400:Generated_Source\PSoC5/CyLib.c ****     CY_CLK_XMHZ_CFG1_REG = ((CY_CLK_XMHZ_CFG1_REG & ((uint8)(~CY_CLK_XMHZ_CFG1_VREF_WD_MASK))) |
 1767              		.loc 1 1400 0
 1768 0000 044A     		ldr	r2, .L191
 1769 0002 1378     		ldrb	r3, [r2]	@ zero_extendqisi2
 1770 0004 0001     		lsls	r0, r0, #4
 1771              	.LVL94:
 1772 0006 00F07000 		and	r0, r0, #112
 1773 000a 03F08F03 		and	r3, r3, #143
 1774 000e 0343     		orrs	r3, r3, r0
 1775 0010 1370     		strb	r3, [r2]
 1776 0012 7047     		bx	lr
 1777              	.L192:
 1778              		.align	2
 1779              	.L191:
 1780 0014 13420040 		.word	1073758739
 1781              		.cfi_endproc
 1782              	.LFE38:
 1783              		.size	CyXTAL_SetWdVoltage, .-CyXTAL_SetWdVoltage
 1784              		.section	.text.CyHalt,"ax",%progbits
 1785              		.align	2
 1786              		.global	CyHalt
 1787              		.thumb
ARM GAS  C:\Users\ingan\AppData\Local\Temp\ccwaQbAc.s 			page 59


 1788              		.thumb_func
 1789              		.type	CyHalt, %function
 1790              	CyHalt:
 1791              	.LFB39:
1401:Generated_Source\PSoC5/CyLib.c ****                             (((uint8)(setting << 4u)) & CY_CLK_XMHZ_CFG1_VREF_WD_MASK));
1402:Generated_Source\PSoC5/CyLib.c **** }
1403:Generated_Source\PSoC5/CyLib.c **** 
1404:Generated_Source\PSoC5/CyLib.c **** 
1405:Generated_Source\PSoC5/CyLib.c **** /*******************************************************************************
1406:Generated_Source\PSoC5/CyLib.c **** * Function Name: CyHalt
1407:Generated_Source\PSoC5/CyLib.c **** ****************************************************************************//**
1408:Generated_Source\PSoC5/CyLib.c **** *
1409:Generated_Source\PSoC5/CyLib.c **** *  Halts the CPU.
1410:Generated_Source\PSoC5/CyLib.c **** *
1411:Generated_Source\PSoC5/CyLib.c **** *  \param uint8 reason: Value to be used during debugging.
1412:Generated_Source\PSoC5/CyLib.c **** *
1413:Generated_Source\PSoC5/CyLib.c **** *******************************************************************************/
1414:Generated_Source\PSoC5/CyLib.c **** void CyHalt(uint8 reason) CYREENTRANT
1415:Generated_Source\PSoC5/CyLib.c **** {
 1792              		.loc 1 1415 0
 1793              		.cfi_startproc
 1794              		@ args = 0, pretend = 0, frame = 0
 1795              		@ frame_needed = 0, uses_anonymous_args = 0
 1796              		@ link register save eliminated.
 1797              	.LVL95:
1416:Generated_Source\PSoC5/CyLib.c ****     if(0u != reason)
1417:Generated_Source\PSoC5/CyLib.c ****     {
1418:Generated_Source\PSoC5/CyLib.c ****         /* To remove unreferenced local variable warning */
1419:Generated_Source\PSoC5/CyLib.c ****     }
1420:Generated_Source\PSoC5/CyLib.c **** 
1421:Generated_Source\PSoC5/CyLib.c ****     #if defined (__ARMCC_VERSION)
1422:Generated_Source\PSoC5/CyLib.c ****         __breakpoint(0x0);
1423:Generated_Source\PSoC5/CyLib.c ****     #elif defined(__GNUC__) || defined (__ICCARM__)
1424:Generated_Source\PSoC5/CyLib.c ****         __asm("    bkpt    1");
 1798              		.loc 1 1424 0
 1799              		.syntax unified
 1800              	@ 1424 "Generated_Source\PSoC5\CyLib.c" 1
 1801 0000 01BE     		    bkpt    1
 1802              	@ 0 "" 2
 1803              		.thumb
 1804              		.syntax unified
 1805 0002 7047     		bx	lr
 1806              		.cfi_endproc
 1807              	.LFE39:
 1808              		.size	CyHalt, .-CyHalt
 1809              		.section	.text.CySoftwareReset,"ax",%progbits
 1810              		.align	2
 1811              		.global	CySoftwareReset
 1812              		.thumb
 1813              		.thumb_func
 1814              		.type	CySoftwareReset, %function
 1815              	CySoftwareReset:
 1816              	.LFB40:
1425:Generated_Source\PSoC5/CyLib.c ****     #elif defined(__C51__)
1426:Generated_Source\PSoC5/CyLib.c ****         CYDEV_HALT_CPU;
1427:Generated_Source\PSoC5/CyLib.c ****     #endif  /* (__ARMCC_VERSION) */
1428:Generated_Source\PSoC5/CyLib.c **** }
ARM GAS  C:\Users\ingan\AppData\Local\Temp\ccwaQbAc.s 			page 60


1429:Generated_Source\PSoC5/CyLib.c **** 
1430:Generated_Source\PSoC5/CyLib.c **** 
1431:Generated_Source\PSoC5/CyLib.c **** /*******************************************************************************
1432:Generated_Source\PSoC5/CyLib.c **** * Function Name: CySoftwareReset
1433:Generated_Source\PSoC5/CyLib.c **** ****************************************************************************//**
1434:Generated_Source\PSoC5/CyLib.c **** *
1435:Generated_Source\PSoC5/CyLib.c **** *  Forces a device software reset.
1436:Generated_Source\PSoC5/CyLib.c **** *
1437:Generated_Source\PSoC5/CyLib.c **** *******************************************************************************/
1438:Generated_Source\PSoC5/CyLib.c **** void CySoftwareReset(void) 
1439:Generated_Source\PSoC5/CyLib.c **** {
 1817              		.loc 1 1439 0
 1818              		.cfi_startproc
 1819              		@ args = 0, pretend = 0, frame = 0
 1820              		@ frame_needed = 0, uses_anonymous_args = 0
 1821              		@ link register save eliminated.
1440:Generated_Source\PSoC5/CyLib.c ****     CY_LIB_RESET_CR2_REG |= CY_LIB_RESET_CR2_RESET;
 1822              		.loc 1 1440 0
 1823 0000 024A     		ldr	r2, .L195
 1824 0002 1378     		ldrb	r3, [r2]	@ zero_extendqisi2
 1825 0004 43F00103 		orr	r3, r3, #1
 1826 0008 1370     		strb	r3, [r2]
 1827 000a 7047     		bx	lr
 1828              	.L196:
 1829              		.align	2
 1830              	.L195:
 1831 000c F6460040 		.word	1073759990
 1832              		.cfi_endproc
 1833              	.LFE40:
 1834              		.size	CySoftwareReset, .-CySoftwareReset
 1835              		.section	.text.CyDelay,"ax",%progbits
 1836              		.align	2
 1837              		.global	CyDelay
 1838              		.thumb
 1839              		.thumb_func
 1840              		.type	CyDelay, %function
 1841              	CyDelay:
 1842              	.LFB41:
1441:Generated_Source\PSoC5/CyLib.c **** }
1442:Generated_Source\PSoC5/CyLib.c **** 
1443:Generated_Source\PSoC5/CyLib.c **** 
1444:Generated_Source\PSoC5/CyLib.c **** /*******************************************************************************
1445:Generated_Source\PSoC5/CyLib.c **** * Function Name: CyDelay
1446:Generated_Source\PSoC5/CyLib.c **** ****************************************************************************//**
1447:Generated_Source\PSoC5/CyLib.c **** *
1448:Generated_Source\PSoC5/CyLib.c **** *  Blocks for milliseconds.
1449:Generated_Source\PSoC5/CyLib.c **** *
1450:Generated_Source\PSoC5/CyLib.c **** *  Note:
1451:Generated_Source\PSoC5/CyLib.c **** *  CyDelay has been implemented with the instruction cache assumed enabled. When
1452:Generated_Source\PSoC5/CyLib.c **** *  the instruction cache is disabled on PSoC5, CyDelay will be two times larger.
1453:Generated_Source\PSoC5/CyLib.c **** *  For example, with instruction cache disabled CyDelay(100) would result in
1454:Generated_Source\PSoC5/CyLib.c **** *  about 200 ms delay instead of 100 ms.
1455:Generated_Source\PSoC5/CyLib.c **** *
1456:Generated_Source\PSoC5/CyLib.c **** *  \param milliseconds: number of milliseconds to delay.
1457:Generated_Source\PSoC5/CyLib.c **** *
1458:Generated_Source\PSoC5/CyLib.c **** *******************************************************************************/
1459:Generated_Source\PSoC5/CyLib.c **** void CyDelay(uint32 milliseconds) CYREENTRANT
ARM GAS  C:\Users\ingan\AppData\Local\Temp\ccwaQbAc.s 			page 61


1460:Generated_Source\PSoC5/CyLib.c **** {
 1843              		.loc 1 1460 0
 1844              		.cfi_startproc
 1845              		@ args = 0, pretend = 0, frame = 0
 1846              		@ frame_needed = 0, uses_anonymous_args = 0
 1847              	.LVL96:
 1848 0000 70B5     		push	{r4, r5, r6, lr}
 1849              		.cfi_def_cfa_offset 16
 1850              		.cfi_offset 4, -16
 1851              		.cfi_offset 5, -12
 1852              		.cfi_offset 6, -8
 1853              		.cfi_offset 14, -4
 1854 0002 0646     		mov	r6, r0
1461:Generated_Source\PSoC5/CyLib.c ****     while (milliseconds > 32768u)
 1855              		.loc 1 1461 0
 1856 0004 B0F5004F 		cmp	r0, #32768
 1857 0008 13D9     		bls	.L198
 1858 000a 0446     		mov	r4, r0
1462:Generated_Source\PSoC5/CyLib.c ****     {
1463:Generated_Source\PSoC5/CyLib.c ****         /***********************************************************************
1464:Generated_Source\PSoC5/CyLib.c ****         * This loop prevents overflow.At 100MHz, milliseconds * delay_freq_khz
1465:Generated_Source\PSoC5/CyLib.c ****         * overflows at about 42 seconds.
1466:Generated_Source\PSoC5/CyLib.c ****         ***********************************************************************/
1467:Generated_Source\PSoC5/CyLib.c ****         CyDelayCycles(cydelay_32k_ms);
 1859              		.loc 1 1467 0
 1860 000c 0C4D     		ldr	r5, .L202
 1861              	.LVL97:
 1862              	.L199:
 1863 000e 2868     		ldr	r0, [r5]
 1864 0010 FFF7FEFF 		bl	CyDelayCycles
 1865              	.LVL98:
1468:Generated_Source\PSoC5/CyLib.c ****         milliseconds = ((uint32)(milliseconds - 32768u));
 1866              		.loc 1 1468 0
 1867 0014 A4F50044 		sub	r4, r4, #32768
 1868              	.LVL99:
1461:Generated_Source\PSoC5/CyLib.c ****     while (milliseconds > 32768u)
 1869              		.loc 1 1461 0
 1870 0018 B4F5004F 		cmp	r4, #32768
 1871 001c F7D8     		bhi	.L199
 1872 001e A6F50043 		sub	r3, r6, #32768
 1873 0022 013B     		subs	r3, r3, #1
 1874 0024 23F4FF43 		bic	r3, r3, #32640
 1875 0028 23F07F03 		bic	r3, r3, #127
 1876 002c A6F50046 		sub	r6, r6, #32768
 1877 0030 F61A     		subs	r6, r6, r3
 1878              	.LVL100:
 1879              	.L198:
1469:Generated_Source\PSoC5/CyLib.c ****     }
1470:Generated_Source\PSoC5/CyLib.c **** 
1471:Generated_Source\PSoC5/CyLib.c ****     CyDelayCycles(milliseconds * cydelay_freq_khz);
 1880              		.loc 1 1471 0
 1881 0032 034B     		ldr	r3, .L202
 1882 0034 5868     		ldr	r0, [r3, #4]
 1883 0036 00FB06F0 		mul	r0, r0, r6
 1884 003a FFF7FEFF 		bl	CyDelayCycles
 1885              	.LVL101:
 1886 003e 70BD     		pop	{r4, r5, r6, pc}
ARM GAS  C:\Users\ingan\AppData\Local\Temp\ccwaQbAc.s 			page 62


 1887              	.L203:
 1888              		.align	2
 1889              	.L202:
 1890 0040 00000000 		.word	.LANCHOR0
 1891              		.cfi_endproc
 1892              	.LFE41:
 1893              		.size	CyDelay, .-CyDelay
 1894              		.section	.text.CyDelayUs,"ax",%progbits
 1895              		.align	2
 1896              		.global	CyDelayUs
 1897              		.thumb
 1898              		.thumb_func
 1899              		.type	CyDelayUs, %function
 1900              	CyDelayUs:
 1901              	.LFB42:
1472:Generated_Source\PSoC5/CyLib.c **** }
1473:Generated_Source\PSoC5/CyLib.c **** 
1474:Generated_Source\PSoC5/CyLib.c **** 
1475:Generated_Source\PSoC5/CyLib.c **** #if(!CY_PSOC3)
1476:Generated_Source\PSoC5/CyLib.c **** 
1477:Generated_Source\PSoC5/CyLib.c ****     /* For PSoC3 devices function is defined in CyBootAsmKeil.a51 file */
1478:Generated_Source\PSoC5/CyLib.c **** 
1479:Generated_Source\PSoC5/CyLib.c ****     /*******************************************************************************
1480:Generated_Source\PSoC5/CyLib.c ****     * Function Name: CyDelayUs
1481:Generated_Source\PSoC5/CyLib.c ****     ****************************************************************************//**
1482:Generated_Source\PSoC5/CyLib.c ****     *
1483:Generated_Source\PSoC5/CyLib.c ****     *  Blocks for microseconds.
1484:Generated_Source\PSoC5/CyLib.c ****     *
1485:Generated_Source\PSoC5/CyLib.c ****     *  Note:
1486:Generated_Source\PSoC5/CyLib.c ****     *   CyDelay has been implemented with the instruction cache assumed enabled.
1487:Generated_Source\PSoC5/CyLib.c ****     *   When instruction cache is disabled on PSoC5, CyDelayUs will be two times
1488:Generated_Source\PSoC5/CyLib.c ****     *   larger. Ex: With instruction cache disabled CyDelayUs(100) would result
1489:Generated_Source\PSoC5/CyLib.c ****     *   in about 200us delay instead of 100us.
1490:Generated_Source\PSoC5/CyLib.c ****     *
1491:Generated_Source\PSoC5/CyLib.c ****     *  \param uint16 microseconds: number of microseconds to delay.
1492:Generated_Source\PSoC5/CyLib.c ****     *
1493:Generated_Source\PSoC5/CyLib.c ****     * \sideeffect
1494:Generated_Source\PSoC5/CyLib.c ****     *  CyDelayUS has been implemented with the instruction cache assumed enabled.
1495:Generated_Source\PSoC5/CyLib.c ****     *  When the instruction cache is disabled on PSoC 5, CyDelayUs will be two times
1496:Generated_Source\PSoC5/CyLib.c ****     *  larger. For example, with the instruction cache disabled CyDelayUs(100) would
1497:Generated_Source\PSoC5/CyLib.c ****     *  result in about 200 us delay instead of 100 us.
1498:Generated_Source\PSoC5/CyLib.c ****     *
1499:Generated_Source\PSoC5/CyLib.c ****     *  If the bus clock frequency is a small non-integer number, the actual delay
1500:Generated_Source\PSoC5/CyLib.c ****     *  can be up to twice as long as the nominal value. The actual delay cannot be
1501:Generated_Source\PSoC5/CyLib.c ****     *  shorter than the nominal one.
1502:Generated_Source\PSoC5/CyLib.c ****     *******************************************************************************/
1503:Generated_Source\PSoC5/CyLib.c ****     void CyDelayUs(uint16 microseconds) CYREENTRANT
1504:Generated_Source\PSoC5/CyLib.c ****     {
 1902              		.loc 1 1504 0
 1903              		.cfi_startproc
 1904              		@ args = 0, pretend = 0, frame = 0
 1905              		@ frame_needed = 0, uses_anonymous_args = 0
 1906              	.LVL102:
 1907 0000 08B5     		push	{r3, lr}
 1908              		.cfi_def_cfa_offset 8
 1909              		.cfi_offset 3, -8
 1910              		.cfi_offset 14, -4
ARM GAS  C:\Users\ingan\AppData\Local\Temp\ccwaQbAc.s 			page 63


1505:Generated_Source\PSoC5/CyLib.c ****         CyDelayCycles((uint32)microseconds * cydelay_freq_mhz);
 1911              		.loc 1 1505 0
 1912 0002 034B     		ldr	r3, .L206
 1913 0004 1B7A     		ldrb	r3, [r3, #8]	@ zero_extendqisi2
 1914 0006 00FB03F0 		mul	r0, r0, r3
 1915              	.LVL103:
 1916 000a FFF7FEFF 		bl	CyDelayCycles
 1917              	.LVL104:
 1918 000e 08BD     		pop	{r3, pc}
 1919              	.L207:
 1920              		.align	2
 1921              	.L206:
 1922 0010 00000000 		.word	.LANCHOR0
 1923              		.cfi_endproc
 1924              	.LFE42:
 1925              		.size	CyDelayUs, .-CyDelayUs
 1926              		.section	.text.CyXTAL_32KHZ_SetPowerMode,"ax",%progbits
 1927              		.align	2
 1928              		.global	CyXTAL_32KHZ_SetPowerMode
 1929              		.thumb
 1930              		.thumb_func
 1931              		.type	CyXTAL_32KHZ_SetPowerMode, %function
 1932              	CyXTAL_32KHZ_SetPowerMode:
 1933              	.LFB28:
1119:Generated_Source\PSoC5/CyLib.c ****     uint8 state = (0u != (CY_CLK_XTAL32_CR_REG & CY_CLK_XTAL32_CR_LPM)) ? 1u : 0u;
 1934              		.loc 1 1119 0
 1935              		.cfi_startproc
 1936              		@ args = 0, pretend = 0, frame = 0
 1937              		@ frame_needed = 0, uses_anonymous_args = 0
 1938              	.LVL105:
 1939 0000 10B5     		push	{r4, lr}
 1940              		.cfi_def_cfa_offset 8
 1941              		.cfi_offset 4, -8
 1942              		.cfi_offset 14, -4
1120:Generated_Source\PSoC5/CyLib.c **** 
 1943              		.loc 1 1120 0
 1944 0002 1A4B     		ldr	r3, .L212
 1945 0004 1C78     		ldrb	r4, [r3]	@ zero_extendqisi2
 1946 0006 C4F34004 		ubfx	r4, r4, #1, #1
 1947              	.LVL106:
1122:Generated_Source\PSoC5/CyLib.c **** 
 1948              		.loc 1 1122 0
 1949 000a F322     		movs	r2, #243
 1950 000c 0233     		adds	r3, r3, #2
 1951 000e 1A70     		strb	r2, [r3]
1124:Generated_Source\PSoC5/CyLib.c ****     {
 1952              		.loc 1 1124 0
 1953 0010 0128     		cmp	r0, #1
 1954 0012 16D1     		bne	.L209
1127:Generated_Source\PSoC5/CyLib.c ****         CyDelayUs(10u);
 1955              		.loc 1 1127 0
 1956 0014 0122     		movs	r2, #1
 1957 0016 03F28E33 		addw	r3, r3, #910
 1958 001a 1A70     		strb	r2, [r3]
1128:Generated_Source\PSoC5/CyLib.c ****         CY_CLK_XTAL32_CFG_REG = (CY_CLK_XTAL32_CFG_REG & ((uint8)(~CY_CLK_XTAL32_CFG_LP_MASK))) |
 1959              		.loc 1 1128 0
 1960 001c 0A20     		movs	r0, #10
ARM GAS  C:\Users\ingan\AppData\Local\Temp\ccwaQbAc.s 			page 64


 1961              	.LVL107:
 1962 001e FFF7FEFF 		bl	CyDelayUs
 1963              	.LVL108:
1129:Generated_Source\PSoC5/CyLib.c ****                                 CY_CLK_XTAL32_CFG_LP_LOWPOWER;
 1964              		.loc 1 1129 0
 1965 0022 134A     		ldr	r2, .L212+4
 1966 0024 1378     		ldrb	r3, [r2]	@ zero_extendqisi2
 1967 0026 03F0F303 		and	r3, r3, #243
 1968 002a 43F00803 		orr	r3, r3, #8
 1969 002e 1370     		strb	r3, [r2]
1131:Generated_Source\PSoC5/CyLib.c ****         CY_CLK_XTAL32_CR_REG |= CY_CLK_XTAL32_CR_LPM;
 1970              		.loc 1 1131 0
 1971 0030 1420     		movs	r0, #20
 1972 0032 FFF7FEFF 		bl	CyDelayUs
 1973              	.LVL109:
1132:Generated_Source\PSoC5/CyLib.c ****     }
 1974              		.loc 1 1132 0
 1975 0036 0D4A     		ldr	r2, .L212
 1976 0038 1378     		ldrb	r3, [r2]	@ zero_extendqisi2
 1977 003a 43F00203 		orr	r3, r3, #2
 1978 003e 1370     		strb	r3, [r2]
 1979 0040 11E0     		b	.L210
 1980              	.LVL110:
 1981              	.L209:
1137:Generated_Source\PSoC5/CyLib.c ****         CyDelayUs(10u);
 1982              		.loc 1 1137 0
 1983 0042 0622     		movs	r2, #6
 1984 0044 0B4B     		ldr	r3, .L212+8
 1985 0046 1A70     		strb	r2, [r3]
1138:Generated_Source\PSoC5/CyLib.c ****         CY_CLK_XTAL32_CFG_REG = (CY_CLK_XTAL32_CFG_REG & ((uint8)(~CY_CLK_XTAL32_CFG_LP_MASK))) |
 1986              		.loc 1 1138 0
 1987 0048 0A20     		movs	r0, #10
 1988              	.LVL111:
 1989 004a FFF7FEFF 		bl	CyDelayUs
 1990              	.LVL112:
1139:Generated_Source\PSoC5/CyLib.c ****                                 CY_CLK_XTAL32_CFG_LP_DEFAULT;
 1991              		.loc 1 1139 0
 1992 004e 084A     		ldr	r2, .L212+4
 1993 0050 1378     		ldrb	r3, [r2]	@ zero_extendqisi2
 1994 0052 03F0F303 		and	r3, r3, #243
 1995 0056 43F00403 		orr	r3, r3, #4
 1996 005a 1370     		strb	r3, [r2]
1141:Generated_Source\PSoC5/CyLib.c ****     }
 1997              		.loc 1 1141 0
 1998 005c 013A     		subs	r2, r2, #1
 1999 005e 1378     		ldrb	r3, [r2]	@ zero_extendqisi2
 2000 0060 03F0FD03 		and	r3, r3, #253
 2001 0064 1370     		strb	r3, [r2]
 2002              	.L210:
1145:Generated_Source\PSoC5/CyLib.c **** 
 2003              		.loc 1 1145 0
 2004 0066 2046     		mov	r0, r4
 2005 0068 10BD     		pop	{r4, pc}
 2006              	.LVL113:
 2007              	.L213:
 2008 006a 00BF     		.align	2
 2009              	.L212:
ARM GAS  C:\Users\ingan\AppData\Local\Temp\ccwaQbAc.s 			page 65


 2010 006c 08430040 		.word	1073758984
 2011 0070 09430040 		.word	1073758985
 2012 0074 98460040 		.word	1073759896
 2013              		.cfi_endproc
 2014              	.LFE28:
 2015              		.size	CyXTAL_32KHZ_SetPowerMode, .-CyXTAL_32KHZ_SetPowerMode
 2016              		.section	.text.CyXTAL_32KHZ_Start,"ax",%progbits
 2017              		.align	2
 2018              		.global	CyXTAL_32KHZ_Start
 2019              		.thumb
 2020              		.thumb_func
 2021              		.type	CyXTAL_32KHZ_Start, %function
 2022              	CyXTAL_32KHZ_Start:
 2023              	.LFB25:
1033:Generated_Source\PSoC5/CyLib.c ****     volatile uint16 i;
 2024              		.loc 1 1033 0
 2025              		.cfi_startproc
 2026              		@ args = 0, pretend = 0, frame = 8
 2027              		@ frame_needed = 0, uses_anonymous_args = 0
 2028 0000 30B5     		push	{r4, r5, lr}
 2029              		.cfi_def_cfa_offset 12
 2030              		.cfi_offset 4, -12
 2031              		.cfi_offset 5, -8
 2032              		.cfi_offset 14, -4
 2033 0002 83B0     		sub	sp, sp, #12
 2034              		.cfi_def_cfa_offset 24
1036:Generated_Source\PSoC5/CyLib.c ****     CY_CLK_XTAL32_TR_REG  = CY_CLK_XTAL32_TR_STARTUP;
 2035              		.loc 1 1036 0
 2036 0004 F322     		movs	r2, #243
 2037 0006 1C4B     		ldr	r3, .L221
 2038 0008 1A70     		strb	r2, [r3]
1037:Generated_Source\PSoC5/CyLib.c ****     CY_CLK_XTAL32_CFG_REG = (CY_CLK_XTAL32_CFG_REG & ((uint8)(~CY_CLK_XTAL32_CFG_LP_MASK))) |
 2039              		.loc 1 1037 0
 2040 000a 0322     		movs	r2, #3
 2041 000c 03F28E33 		addw	r3, r3, #910
 2042 0010 1A70     		strb	r2, [r3]
1038:Generated_Source\PSoC5/CyLib.c ****                                 CY_CLK_XTAL32_CFG_LP_DEFAULT;
 2043              		.loc 1 1038 0
 2044 0012 1A4A     		ldr	r2, .L221+4
 2045 0014 1378     		ldrb	r3, [r2]	@ zero_extendqisi2
 2046 0016 03F0F303 		and	r3, r3, #243
 2047 001a 43F00403 		orr	r3, r3, #4
 2048 001e 1370     		strb	r3, [r2]
1046:Generated_Source\PSoC5/CyLib.c **** 
 2049              		.loc 1 1046 0
 2050 0020 013A     		subs	r2, r2, #1
 2051 0022 1378     		ldrb	r3, [r2]	@ zero_extendqisi2
 2052 0024 43F00103 		orr	r3, r3, #1
 2053 0028 1370     		strb	r3, [r2]
1048:Generated_Source\PSoC5/CyLib.c ****     {
 2054              		.loc 1 1048 0
 2055 002a 4FF47A73 		mov	r3, #1000
 2056 002e ADF80630 		strh	r3, [sp, #6]	@ movhi
 2057 0032 BDF80630 		ldrh	r3, [sp, #6]
 2058 0036 9BB2     		uxth	r3, r3
 2059 0038 E3B1     		cbz	r3, .L214
 2060              	.LBB16:
ARM GAS  C:\Users\ingan\AppData\Local\Temp\ccwaQbAc.s 			page 66


 2061              	.LBB17:
1098:Generated_Source\PSoC5/CyLib.c **** }
 2062              		.loc 1 1098 0
 2063 003a 1378     		ldrb	r3, [r2]	@ zero_extendqisi2
 2064              	.LBE17:
 2065              	.LBE16:
1050:Generated_Source\PSoC5/CyLib.c ****         {
 2066              		.loc 1 1050 0
 2067 003c 13F0200F 		tst	r3, #32
 2068 0040 06D1     		bne	.L216
1057:Generated_Source\PSoC5/CyLib.c ****     }
 2069              		.loc 1 1057 0
 2070 0042 0124     		movs	r4, #1
 2071              	.LBB19:
 2072              	.LBB18:
1098:Generated_Source\PSoC5/CyLib.c **** }
 2073              		.loc 1 1098 0
 2074 0044 1546     		mov	r5, r2
 2075 0046 07E0     		b	.L217
 2076              	.L218:
 2077 0048 2B78     		ldrb	r3, [r5]	@ zero_extendqisi2
 2078              	.LBE18:
 2079              	.LBE19:
1050:Generated_Source\PSoC5/CyLib.c ****         {
 2080              		.loc 1 1050 0
 2081 004a 13F0200F 		tst	r3, #32
 2082 004e 03D0     		beq	.L217
 2083              	.L216:
1053:Generated_Source\PSoC5/CyLib.c **** 
 2084              		.loc 1 1053 0
 2085 0050 0020     		movs	r0, #0
 2086 0052 FFF7FEFF 		bl	CyXTAL_32KHZ_SetPowerMode
 2087              	.LVL114:
1055:Generated_Source\PSoC5/CyLib.c ****         }
 2088              		.loc 1 1055 0
 2089 0056 0DE0     		b	.L214
 2090              	.L217:
1057:Generated_Source\PSoC5/CyLib.c ****     }
 2091              		.loc 1 1057 0 discriminator 2
 2092 0058 2046     		mov	r0, r4
 2093 005a FFF7FEFF 		bl	CyDelayUs
 2094              	.LVL115:
1048:Generated_Source\PSoC5/CyLib.c ****     {
 2095              		.loc 1 1048 0 discriminator 2
 2096 005e BDF80630 		ldrh	r3, [sp, #6]
 2097 0062 013B     		subs	r3, r3, #1
 2098 0064 9BB2     		uxth	r3, r3
 2099 0066 ADF80630 		strh	r3, [sp, #6]	@ movhi
 2100 006a BDF80630 		ldrh	r3, [sp, #6]
 2101 006e 9BB2     		uxth	r3, r3
 2102 0070 002B     		cmp	r3, #0
 2103 0072 E9D1     		bne	.L218
 2104              	.L214:
1059:Generated_Source\PSoC5/CyLib.c **** 
 2105              		.loc 1 1059 0
 2106 0074 03B0     		add	sp, sp, #12
 2107              		.cfi_def_cfa_offset 12
ARM GAS  C:\Users\ingan\AppData\Local\Temp\ccwaQbAc.s 			page 67


 2108              		@ sp needed
 2109 0076 30BD     		pop	{r4, r5, pc}
 2110              	.L222:
 2111              		.align	2
 2112              	.L221:
 2113 0078 0A430040 		.word	1073758986
 2114 007c 09430040 		.word	1073758985
 2115              		.cfi_endproc
 2116              	.LFE25:
 2117              		.size	CyXTAL_32KHZ_Start, .-CyXTAL_32KHZ_Start
 2118              		.section	.text.CyDelayFreq,"ax",%progbits
 2119              		.align	2
 2120              		.global	CyDelayFreq
 2121              		.thumb
 2122              		.thumb_func
 2123              		.type	CyDelayFreq, %function
 2124              	CyDelayFreq:
 2125              	.LFB43:
1506:Generated_Source\PSoC5/CyLib.c ****     }
1507:Generated_Source\PSoC5/CyLib.c **** 
1508:Generated_Source\PSoC5/CyLib.c **** #endif  /* (!CY_PSOC3) */
1509:Generated_Source\PSoC5/CyLib.c **** 
1510:Generated_Source\PSoC5/CyLib.c **** 
1511:Generated_Source\PSoC5/CyLib.c **** /*******************************************************************************
1512:Generated_Source\PSoC5/CyLib.c **** * Function Name: CyDelayFreq
1513:Generated_Source\PSoC5/CyLib.c **** ****************************************************************************//**
1514:Generated_Source\PSoC5/CyLib.c **** *
1515:Generated_Source\PSoC5/CyLib.c **** *  Sets the clock frequency for CyDelay.
1516:Generated_Source\PSoC5/CyLib.c **** *
1517:Generated_Source\PSoC5/CyLib.c **** *  \param freq: The frequency of the bus clock in Hertz.
1518:Generated_Source\PSoC5/CyLib.c **** *
1519:Generated_Source\PSoC5/CyLib.c **** *******************************************************************************/
1520:Generated_Source\PSoC5/CyLib.c **** void CyDelayFreq(uint32 freq) CYREENTRANT
1521:Generated_Source\PSoC5/CyLib.c **** {
 2126              		.loc 1 1521 0
 2127              		.cfi_startproc
 2128              		@ args = 0, pretend = 0, frame = 0
 2129              		@ frame_needed = 0, uses_anonymous_args = 0
 2130              		@ link register save eliminated.
 2131              	.LVL116:
1522:Generated_Source\PSoC5/CyLib.c ****     if (freq != 0u)
 2132              		.loc 1 1522 0
 2133 0000 10B1     		cbz	r0, .L224
1523:Generated_Source\PSoC5/CyLib.c ****     {
1524:Generated_Source\PSoC5/CyLib.c ****         cydelay_freq_hz = freq;
 2134              		.loc 1 1524 0
 2135 0002 0D4A     		ldr	r2, .L226
 2136 0004 D060     		str	r0, [r2, #12]
 2137 0006 02E0     		b	.L225
 2138              	.L224:
1525:Generated_Source\PSoC5/CyLib.c ****     }
1526:Generated_Source\PSoC5/CyLib.c ****     else
1527:Generated_Source\PSoC5/CyLib.c ****     {
1528:Generated_Source\PSoC5/CyLib.c ****         cydelay_freq_hz = BCLK__BUS_CLK__HZ;
 2139              		.loc 1 1528 0
 2140 0008 0C4A     		ldr	r2, .L226+4
 2141 000a 0B4B     		ldr	r3, .L226
ARM GAS  C:\Users\ingan\AppData\Local\Temp\ccwaQbAc.s 			page 68


 2142 000c DA60     		str	r2, [r3, #12]
 2143              	.L225:
1529:Generated_Source\PSoC5/CyLib.c ****     }
1530:Generated_Source\PSoC5/CyLib.c **** 
1531:Generated_Source\PSoC5/CyLib.c ****     cydelay_freq_mhz = (uint8)((cydelay_freq_hz + 999999u) / 1000000u);
 2144              		.loc 1 1531 0
 2145 000e 0A49     		ldr	r1, .L226
 2146 0010 CB68     		ldr	r3, [r1, #12]
 2147 0012 03F57422 		add	r2, r3, #999424
 2148 0016 02F23F22 		addw	r2, r2, #575
 2149 001a 0948     		ldr	r0, .L226+8
 2150              	.LVL117:
 2151 001c A0FB0202 		umull	r0, r2, r0, r2
 2152 0020 920C     		lsrs	r2, r2, #18
 2153 0022 0A72     		strb	r2, [r1, #8]
1532:Generated_Source\PSoC5/CyLib.c ****     cydelay_freq_khz = (cydelay_freq_hz + 999u) / 1000u;
 2154              		.loc 1 1532 0
 2155 0024 03F2E733 		addw	r3, r3, #999
 2156 0028 064A     		ldr	r2, .L226+12
 2157 002a A2FB0323 		umull	r2, r3, r2, r3
 2158 002e 9B09     		lsrs	r3, r3, #6
 2159 0030 4B60     		str	r3, [r1, #4]
1533:Generated_Source\PSoC5/CyLib.c ****     cydelay_32k_ms   = 32768u * cydelay_freq_khz;
 2160              		.loc 1 1533 0
 2161 0032 DB03     		lsls	r3, r3, #15
 2162 0034 0B60     		str	r3, [r1]
 2163 0036 7047     		bx	lr
 2164              	.L227:
 2165              		.align	2
 2166              	.L226:
 2167 0038 00000000 		.word	.LANCHOR0
 2168 003c 80E7BD02 		.word	46000000
 2169 0040 83DE1B43 		.word	1125899907
 2170 0044 D34D6210 		.word	274877907
 2171              		.cfi_endproc
 2172              	.LFE43:
 2173              		.size	CyDelayFreq, .-CyDelayFreq
 2174              		.section	.text.CyWdtStart,"ax",%progbits
 2175              		.align	2
 2176              		.global	CyWdtStart
 2177              		.thumb
 2178              		.thumb_func
 2179              		.type	CyWdtStart, %function
 2180              	CyWdtStart:
 2181              	.LFB44:
1534:Generated_Source\PSoC5/CyLib.c **** }
1535:Generated_Source\PSoC5/CyLib.c **** 
1536:Generated_Source\PSoC5/CyLib.c **** 
1537:Generated_Source\PSoC5/CyLib.c **** /*******************************************************************************
1538:Generated_Source\PSoC5/CyLib.c **** * Function Name: CyWdtStart
1539:Generated_Source\PSoC5/CyLib.c **** ****************************************************************************//**
1540:Generated_Source\PSoC5/CyLib.c **** *
1541:Generated_Source\PSoC5/CyLib.c **** *  Enables the watchdog timer.
1542:Generated_Source\PSoC5/CyLib.c **** *
1543:Generated_Source\PSoC5/CyLib.c **** *  The timer is configured for the specified count interval, the central
1544:Generated_Source\PSoC5/CyLib.c **** *  timewheel is cleared, the setting for the low power mode is configured and
1545:Generated_Source\PSoC5/CyLib.c **** *  the watchdog timer is enabled.
ARM GAS  C:\Users\ingan\AppData\Local\Temp\ccwaQbAc.s 			page 69


1546:Generated_Source\PSoC5/CyLib.c **** *
1547:Generated_Source\PSoC5/CyLib.c **** *  Once enabled the watchdog cannot be disabled. The watchdog counts each time
1548:Generated_Source\PSoC5/CyLib.c **** *  the Central Time Wheel (CTW) reaches the period specified. The watchdog must
1549:Generated_Source\PSoC5/CyLib.c **** *  be cleared using the CyWdtClear() function before three ticks of the watchdog
1550:Generated_Source\PSoC5/CyLib.c **** *  timer occur. The CTW is free running, so this will occur after between 2 and
1551:Generated_Source\PSoC5/CyLib.c **** *  3 timer periods elapse.
1552:Generated_Source\PSoC5/CyLib.c **** *
1553:Generated_Source\PSoC5/CyLib.c **** *  PSoC5: The watchdog timer should not be used during sleep modes. Since the
1554:Generated_Source\PSoC5/CyLib.c **** *  WDT cannot be disabled after it is enabled, the WDT timeout period can be
1555:Generated_Source\PSoC5/CyLib.c **** *  set to be greater than the sleep wakeup period, then feed the dog on each
1556:Generated_Source\PSoC5/CyLib.c **** *  wakeup from Sleep.
1557:Generated_Source\PSoC5/CyLib.c **** *
1558:Generated_Source\PSoC5/CyLib.c **** *  \param ticks: One of the four available timer periods. Once WDT enabled, the
1559:Generated_Source\PSoC5/CyLib.c ****    interval cannot be changed.
1560:Generated_Source\PSoC5/CyLib.c **** *         CYWDT_2_TICKS     -     4 - 6     ms
1561:Generated_Source\PSoC5/CyLib.c **** *         CYWDT_16_TICKS    -    32 - 48    ms
1562:Generated_Source\PSoC5/CyLib.c **** *         CYWDT_128_TICKS   -   256 - 384   ms
1563:Generated_Source\PSoC5/CyLib.c **** *         CYWDT_1024_TICKS  - 2.048 - 3.072 s
1564:Generated_Source\PSoC5/CyLib.c **** *
1565:Generated_Source\PSoC5/CyLib.c **** *  \param lpMode: Low power mode configuration. This parameter is ignored for PSoC 5.
1566:Generated_Source\PSoC5/CyLib.c **** *          The WDT always acts as if CYWDT_LPMODE_NOCHANGE is passed.
1567:Generated_Source\PSoC5/CyLib.c **** *
1568:Generated_Source\PSoC5/CyLib.c **** *          CYWDT_LPMODE_NOCHANGE - No Change
1569:Generated_Source\PSoC5/CyLib.c **** *          CYWDT_LPMODE_MAXINTER - Switch to longest timer mode during low power
1570:Generated_Source\PSoC5/CyLib.c **** *                                 mode
1571:Generated_Source\PSoC5/CyLib.c **** *          CYWDT_LPMODE_DISABLED - Disable WDT during low power mode
1572:Generated_Source\PSoC5/CyLib.c **** *
1573:Generated_Source\PSoC5/CyLib.c **** * \sideeffect
1574:Generated_Source\PSoC5/CyLib.c **** *  PSoC5: The ILO 1 KHz must be enabled for proper WDT operation. Stopping the
1575:Generated_Source\PSoC5/CyLib.c **** *  ILO 1 kHz could break the active WDT functionality.
1576:Generated_Source\PSoC5/CyLib.c **** *
1577:Generated_Source\PSoC5/CyLib.c **** *******************************************************************************/
1578:Generated_Source\PSoC5/CyLib.c **** void CyWdtStart(uint8 ticks, uint8 lpMode) 
1579:Generated_Source\PSoC5/CyLib.c **** {
 2182              		.loc 1 1579 0
 2183              		.cfi_startproc
 2184              		@ args = 0, pretend = 0, frame = 0
 2185              		@ frame_needed = 0, uses_anonymous_args = 0
 2186              		@ link register save eliminated.
 2187              	.LVL118:
1580:Generated_Source\PSoC5/CyLib.c ****     /* Set WDT interval */
1581:Generated_Source\PSoC5/CyLib.c ****     CY_WDT_CFG_REG = (CY_WDT_CFG_REG & ((uint8)(~CY_WDT_CFG_INTERVAL_MASK))) | (ticks & CY_WDT_CFG_
 2188              		.loc 1 1581 0
 2189 0000 0E4B     		ldr	r3, .L229
 2190 0002 1A78     		ldrb	r2, [r3]	@ zero_extendqisi2
 2191 0004 02F0FC02 		and	r2, r2, #252
 2192 0008 00F00300 		and	r0, r0, #3
 2193              	.LVL119:
 2194 000c 1043     		orrs	r0, r0, r2
 2195 000e 1870     		strb	r0, [r3]
1582:Generated_Source\PSoC5/CyLib.c **** 
1583:Generated_Source\PSoC5/CyLib.c ****     /* Reset CTW to ensure that first watchdog period is full */
1584:Generated_Source\PSoC5/CyLib.c ****     CY_WDT_CFG_REG |= CY_WDT_CFG_CTW_RESET;
 2196              		.loc 1 1584 0
 2197 0010 1A78     		ldrb	r2, [r3]	@ zero_extendqisi2
 2198 0012 42F08002 		orr	r2, r2, #128
 2199 0016 1A70     		strb	r2, [r3]
ARM GAS  C:\Users\ingan\AppData\Local\Temp\ccwaQbAc.s 			page 70


1585:Generated_Source\PSoC5/CyLib.c ****     CY_WDT_CFG_REG &= ((uint8)(~CY_WDT_CFG_CTW_RESET));
 2200              		.loc 1 1585 0
 2201 0018 1A78     		ldrb	r2, [r3]	@ zero_extendqisi2
 2202 001a 02F07F02 		and	r2, r2, #127
 2203 001e 1A70     		strb	r2, [r3]
1586:Generated_Source\PSoC5/CyLib.c **** 
1587:Generated_Source\PSoC5/CyLib.c ****     /* Setting low power mode */
1588:Generated_Source\PSoC5/CyLib.c ****     CY_WDT_CFG_REG = (((uint8)(lpMode << CY_WDT_CFG_LPMODE_SHIFT)) & CY_WDT_CFG_LPMODE_MASK) |
1589:Generated_Source\PSoC5/CyLib.c ****                        (CY_WDT_CFG_REG & ((uint8)(~CY_WDT_CFG_LPMODE_MASK)));
 2204              		.loc 1 1589 0
 2205 0020 1A78     		ldrb	r2, [r3]	@ zero_extendqisi2
1588:Generated_Source\PSoC5/CyLib.c ****                        (CY_WDT_CFG_REG & ((uint8)(~CY_WDT_CFG_LPMODE_MASK)));
 2206              		.loc 1 1588 0
 2207 0022 4901     		lsls	r1, r1, #5
 2208              	.LVL120:
 2209 0024 01F06001 		and	r1, r1, #96
 2210 0028 02F09F02 		and	r2, r2, #159
 2211 002c 0A43     		orrs	r2, r2, r1
 2212 002e 1A70     		strb	r2, [r3]
1590:Generated_Source\PSoC5/CyLib.c **** 
1591:Generated_Source\PSoC5/CyLib.c ****     /* Enables watchdog reset */
1592:Generated_Source\PSoC5/CyLib.c ****     CY_WDT_CFG_REG |= CY_WDT_CFG_WDR_EN;
 2213              		.loc 1 1592 0
 2214 0030 1A78     		ldrb	r2, [r3]	@ zero_extendqisi2
 2215 0032 42F01002 		orr	r2, r2, #16
 2216 0036 1A70     		strb	r2, [r3]
 2217 0038 7047     		bx	lr
 2218              	.L230:
 2219 003a 00BF     		.align	2
 2220              	.L229:
 2221 003c 83430040 		.word	1073759107
 2222              		.cfi_endproc
 2223              	.LFE44:
 2224              		.size	CyWdtStart, .-CyWdtStart
 2225              		.section	.text.CyWdtClear,"ax",%progbits
 2226              		.align	2
 2227              		.global	CyWdtClear
 2228              		.thumb
 2229              		.thumb_func
 2230              		.type	CyWdtClear, %function
 2231              	CyWdtClear:
 2232              	.LFB45:
1593:Generated_Source\PSoC5/CyLib.c **** }
1594:Generated_Source\PSoC5/CyLib.c **** 
1595:Generated_Source\PSoC5/CyLib.c **** 
1596:Generated_Source\PSoC5/CyLib.c **** /*******************************************************************************
1597:Generated_Source\PSoC5/CyLib.c **** * Function Name: CyWdtClear
1598:Generated_Source\PSoC5/CyLib.c **** ****************************************************************************//**
1599:Generated_Source\PSoC5/CyLib.c **** *
1600:Generated_Source\PSoC5/CyLib.c **** *  Clears (feeds) the watchdog timer.
1601:Generated_Source\PSoC5/CyLib.c **** *
1602:Generated_Source\PSoC5/CyLib.c **** *******************************************************************************/
1603:Generated_Source\PSoC5/CyLib.c **** void CyWdtClear(void) 
1604:Generated_Source\PSoC5/CyLib.c **** {
 2233              		.loc 1 1604 0
 2234              		.cfi_startproc
 2235              		@ args = 0, pretend = 0, frame = 0
ARM GAS  C:\Users\ingan\AppData\Local\Temp\ccwaQbAc.s 			page 71


 2236              		@ frame_needed = 0, uses_anonymous_args = 0
 2237              		@ link register save eliminated.
1605:Generated_Source\PSoC5/CyLib.c ****     CY_WDT_CR_REG = CY_WDT_CR_FEED;
 2238              		.loc 1 1605 0
 2239 0000 0122     		movs	r2, #1
 2240 0002 014B     		ldr	r3, .L232
 2241 0004 1A70     		strb	r2, [r3]
 2242 0006 7047     		bx	lr
 2243              	.L233:
 2244              		.align	2
 2245              	.L232:
 2246 0008 84430040 		.word	1073759108
 2247              		.cfi_endproc
 2248              	.LFE45:
 2249              		.size	CyWdtClear, .-CyWdtClear
 2250              		.section	.text.CyVdStickyStatus,"ax",%progbits
 2251              		.align	2
 2252              		.global	CyVdStickyStatus
 2253              		.thumb
 2254              		.thumb_func
 2255              		.type	CyVdStickyStatus, %function
 2256              	CyVdStickyStatus:
 2257              	.LFB52:
1606:Generated_Source\PSoC5/CyLib.c **** }
1607:Generated_Source\PSoC5/CyLib.c **** 
1608:Generated_Source\PSoC5/CyLib.c **** 
1609:Generated_Source\PSoC5/CyLib.c **** 
1610:Generated_Source\PSoC5/CyLib.c **** /*******************************************************************************
1611:Generated_Source\PSoC5/CyLib.c **** * Function Name: CyVdLvDigitEnable
1612:Generated_Source\PSoC5/CyLib.c **** ****************************************************************************//**
1613:Generated_Source\PSoC5/CyLib.c **** *
1614:Generated_Source\PSoC5/CyLib.c **** *  Sets the voltage trip level, enables the output of the digital low-voltage
1615:Generated_Source\PSoC5/CyLib.c **** *  monitor, and optionally configures voltage monitor to reset device upon the
1616:Generated_Source\PSoC5/CyLib.c **** *  low-voltage event instead of generating an interrupt.
1617:Generated_Source\PSoC5/CyLib.c **** *
1618:Generated_Source\PSoC5/CyLib.c **** *  Note The associated interrupt enable/disable state is not changed by the
1619:Generated_Source\PSoC5/CyLib.c **** *  function. The Interrupt component API should be used to register the
1620:Generated_Source\PSoC5/CyLib.c **** *  interrupt service routine and to enable/disable associated interrupt.
1621:Generated_Source\PSoC5/CyLib.c **** *
1622:Generated_Source\PSoC5/CyLib.c **** *  \param reset: Enables device reset on digital low-voltage event:
1623:Generated_Source\PSoC5/CyLib.c **** *   Zero - Interrupt on digital low-voltage event
1624:Generated_Source\PSoC5/CyLib.c **** *   Non-zero - Reset on digital low-voltage event
1625:Generated_Source\PSoC5/CyLib.c **** *
1626:Generated_Source\PSoC5/CyLib.c **** *  \param threshold: Sets the trip point of the digital low-voltage monitoring circuit
1627:Generated_Source\PSoC5/CyLib.c **** *   in steps of approximately 250 mV in range from 1.70 V (0x00) to 5.45 V
1628:Generated_Source\PSoC5/CyLib.c **** *   (0x0F). For example, the trip point is set to 1.80 V when the threshold
1629:Generated_Source\PSoC5/CyLib.c **** *   parameter value is 0x04. Refer to the device TRM for the exact trip voltage
1630:Generated_Source\PSoC5/CyLib.c **** *   values.
1631:Generated_Source\PSoC5/CyLib.c **** *
1632:Generated_Source\PSoC5/CyLib.c **** * Side Effects and Restrictions:
1633:Generated_Source\PSoC5/CyLib.c **** *  The voltage resets are momentary. When a voltage reset (analog/digital
1634:Generated_Source\PSoC5/CyLib.c **** *  low-voltage and analog high-voltage) occurs, the RESET_CR1 and RESET_CR3
1635:Generated_Source\PSoC5/CyLib.c **** *  registers are restored to their default values. This means that the voltage
1636:Generated_Source\PSoC5/CyLib.c **** *  monitor circuit is no longer enabled and the device exits reset. If the
1637:Generated_Source\PSoC5/CyLib.c **** *  supply is below the trip level and firmware enables the voltage reset
1638:Generated_Source\PSoC5/CyLib.c **** *  functionality, the device will reset again. This will continue as long as the
1639:Generated_Source\PSoC5/CyLib.c **** *  supply is below the trip level or as long as the user enables the reset
ARM GAS  C:\Users\ingan\AppData\Local\Temp\ccwaQbAc.s 			page 72


1640:Generated_Source\PSoC5/CyLib.c **** *  functionality of the voltage monitor functionality.
1641:Generated_Source\PSoC5/CyLib.c **** *
1642:Generated_Source\PSoC5/CyLib.c **** *  When any voltage reset occurs, the RESET_SR0 and RESET_SR2 status registers
1643:Generated_Source\PSoC5/CyLib.c **** *  are cleared. This means that analog low-voltage, digital low-voltage and
1644:Generated_Source\PSoC5/CyLib.c **** *  analog high-voltage status bits are not persistent across any voltage reset.
1645:Generated_Source\PSoC5/CyLib.c **** *
1646:Generated_Source\PSoC5/CyLib.c **** *******************************************************************************/
1647:Generated_Source\PSoC5/CyLib.c **** void CyVdLvDigitEnable(uint8 reset, uint8 threshold) 
1648:Generated_Source\PSoC5/CyLib.c **** {
1649:Generated_Source\PSoC5/CyLib.c ****     uint32 intRegTmp;
1650:Generated_Source\PSoC5/CyLib.c ****     uint8 interruptState;
1651:Generated_Source\PSoC5/CyLib.c **** 
1652:Generated_Source\PSoC5/CyLib.c ****     interruptState = CyEnterCriticalSection();
1653:Generated_Source\PSoC5/CyLib.c **** 
1654:Generated_Source\PSoC5/CyLib.c ****     /* Store interrupt enable state */
1655:Generated_Source\PSoC5/CyLib.c ****     intRegTmp = CY_INT_ENABLE_REG & CY_VD_INT_MASK;
1656:Generated_Source\PSoC5/CyLib.c **** 
1657:Generated_Source\PSoC5/CyLib.c ****     /* Disable VD interrupt (write 1) to protect against glitches */
1658:Generated_Source\PSoC5/CyLib.c ****     CY_INT_CLEAR_REG = CY_VD_INT_MASK;
1659:Generated_Source\PSoC5/CyLib.c **** 
1660:Generated_Source\PSoC5/CyLib.c ****     CY_VD_PRES_CONTROL_REG &= ((uint8)(~CY_VD_PRESD_EN));
1661:Generated_Source\PSoC5/CyLib.c **** 
1662:Generated_Source\PSoC5/CyLib.c ****     CY_VD_LVI_TRIP_REG = (threshold & CY_VD_LVI_TRIP_LVID_MASK) |
1663:Generated_Source\PSoC5/CyLib.c ****                             (CY_VD_LVI_TRIP_REG & ((uint8)(~CY_VD_LVI_TRIP_LVID_MASK)));
1664:Generated_Source\PSoC5/CyLib.c ****     CY_VD_LVI_HVI_CONTROL_REG |= CY_VD_LVID_EN;
1665:Generated_Source\PSoC5/CyLib.c **** 
1666:Generated_Source\PSoC5/CyLib.c ****     /* Timeout to eliminate glitches on LVI/HVI when enabling (ID # 127412) */
1667:Generated_Source\PSoC5/CyLib.c ****     CyDelayUs(1u);
1668:Generated_Source\PSoC5/CyLib.c **** 
1669:Generated_Source\PSoC5/CyLib.c ****     (void) CyVdStickyStatus(CY_VD_LVID);
1670:Generated_Source\PSoC5/CyLib.c **** 
1671:Generated_Source\PSoC5/CyLib.c ****     if(0u != reset)
1672:Generated_Source\PSoC5/CyLib.c ****     {
1673:Generated_Source\PSoC5/CyLib.c ****         CY_VD_PRES_CONTROL_REG |= CY_VD_PRESD_EN;
1674:Generated_Source\PSoC5/CyLib.c ****     }
1675:Generated_Source\PSoC5/CyLib.c ****     else
1676:Generated_Source\PSoC5/CyLib.c ****     {
1677:Generated_Source\PSoC5/CyLib.c ****         CY_VD_PRES_CONTROL_REG &= ((uint8)(~CY_VD_PRESD_EN));
1678:Generated_Source\PSoC5/CyLib.c ****     }
1679:Generated_Source\PSoC5/CyLib.c **** 
1680:Generated_Source\PSoC5/CyLib.c ****     /* Clear pending interrupt */
1681:Generated_Source\PSoC5/CyLib.c ****     CY_INT_CLR_PEND_REG = CY_VD_INT_MASK;
1682:Generated_Source\PSoC5/CyLib.c **** 
1683:Generated_Source\PSoC5/CyLib.c ****     /* Restore interrupt enable state */
1684:Generated_Source\PSoC5/CyLib.c ****     CY_INT_ENABLE_REG = intRegTmp;
1685:Generated_Source\PSoC5/CyLib.c **** 
1686:Generated_Source\PSoC5/CyLib.c ****     CyExitCriticalSection(interruptState);
1687:Generated_Source\PSoC5/CyLib.c **** }
1688:Generated_Source\PSoC5/CyLib.c **** 
1689:Generated_Source\PSoC5/CyLib.c **** 
1690:Generated_Source\PSoC5/CyLib.c **** /*******************************************************************************
1691:Generated_Source\PSoC5/CyLib.c **** * Function Name: CyVdLvAnalogEnable
1692:Generated_Source\PSoC5/CyLib.c **** ****************************************************************************//**
1693:Generated_Source\PSoC5/CyLib.c **** *
1694:Generated_Source\PSoC5/CyLib.c **** *  Sets the voltage trip level, enables the output of the analog low-voltage
1695:Generated_Source\PSoC5/CyLib.c **** *  monitor, and optionally configures voltage monitor to reset device upon the
1696:Generated_Source\PSoC5/CyLib.c **** *  low-voltage event instead of generating an interrupt.
ARM GAS  C:\Users\ingan\AppData\Local\Temp\ccwaQbAc.s 			page 73


1697:Generated_Source\PSoC5/CyLib.c **** *
1698:Generated_Source\PSoC5/CyLib.c **** *  Note The associated interrupt enable/disable state is not changed by the
1699:Generated_Source\PSoC5/CyLib.c **** *  function. The Interrupt component API should be used to register the
1700:Generated_Source\PSoC5/CyLib.c **** *  interrupt service routine and to enable/disable associated interrupt.
1701:Generated_Source\PSoC5/CyLib.c **** *
1702:Generated_Source\PSoC5/CyLib.c **** *  \param reset: Enables device reset on analog low-voltage event:
1703:Generated_Source\PSoC5/CyLib.c **** *  Zero - Interrupt on analog low-voltage event
1704:Generated_Source\PSoC5/CyLib.c **** *  Non-zero - Reset on analog low-voltage event
1705:Generated_Source\PSoC5/CyLib.c **** *
1706:Generated_Source\PSoC5/CyLib.c **** *  \param threshold: Sets the trip point of the analog low-voltage monitoring circuit
1707:Generated_Source\PSoC5/CyLib.c **** *  in steps of approximately 250 mV in range from 1.70 V (0x00) to 5.45 V
1708:Generated_Source\PSoC5/CyLib.c **** *  (0x0F). For example, the trip point is set to 1.80 V when value of the
1709:Generated_Source\PSoC5/CyLib.c **** *  threshold parameter is 0x04. Please refer to the device TRM for the exact
1710:Generated_Source\PSoC5/CyLib.c **** *  trip voltage values.
1711:Generated_Source\PSoC5/CyLib.c **** *
1712:Generated_Source\PSoC5/CyLib.c **** * Side Effects and Restrictions:
1713:Generated_Source\PSoC5/CyLib.c **** *  The voltage resets are momentary. When a voltage reset (analog/digital
1714:Generated_Source\PSoC5/CyLib.c **** *  low-voltage and analog high-voltage) occurs, the RESET_CR1 and RESET_CR3
1715:Generated_Source\PSoC5/CyLib.c **** *  registers are restored to their default values. This means that the voltage
1716:Generated_Source\PSoC5/CyLib.c **** *  monitor circuit is no longer enabled and the device exits reset. If the
1717:Generated_Source\PSoC5/CyLib.c **** *  supply is below the trip level and firmware enables the voltage reset
1718:Generated_Source\PSoC5/CyLib.c **** *  functionality, the device will reset again. This will continue as long as
1719:Generated_Source\PSoC5/CyLib.c **** *  the supply is below the trip level or as long as the user enables the reset
1720:Generated_Source\PSoC5/CyLib.c **** *  functionality of the voltage monitor functionality.
1721:Generated_Source\PSoC5/CyLib.c **** *
1722:Generated_Source\PSoC5/CyLib.c **** *  When any voltage reset occurs, the RESET_SR0 and RESET_SR2 status registers
1723:Generated_Source\PSoC5/CyLib.c **** *  are cleared. This means that analog low-voltage, digital low-voltage and
1724:Generated_Source\PSoC5/CyLib.c **** *  analog high-voltage status bits are not persistent across any voltage reset.
1725:Generated_Source\PSoC5/CyLib.c **** *
1726:Generated_Source\PSoC5/CyLib.c **** *******************************************************************************/
1727:Generated_Source\PSoC5/CyLib.c **** void CyVdLvAnalogEnable(uint8 reset, uint8 threshold) 
1728:Generated_Source\PSoC5/CyLib.c **** {
1729:Generated_Source\PSoC5/CyLib.c ****     uint32 intRegTmp;
1730:Generated_Source\PSoC5/CyLib.c ****     uint8 interruptState;
1731:Generated_Source\PSoC5/CyLib.c **** 
1732:Generated_Source\PSoC5/CyLib.c ****     interruptState = CyEnterCriticalSection();
1733:Generated_Source\PSoC5/CyLib.c **** 
1734:Generated_Source\PSoC5/CyLib.c ****     /* Store interrupt enable state */
1735:Generated_Source\PSoC5/CyLib.c ****     intRegTmp = CY_INT_ENABLE_REG & CY_VD_INT_MASK;
1736:Generated_Source\PSoC5/CyLib.c **** 
1737:Generated_Source\PSoC5/CyLib.c ****     /* Disable VD interrupt (write 1) to protect against glitches */
1738:Generated_Source\PSoC5/CyLib.c ****     CY_INT_CLEAR_REG = CY_VD_INT_MASK;
1739:Generated_Source\PSoC5/CyLib.c **** 
1740:Generated_Source\PSoC5/CyLib.c ****     CY_VD_PRES_CONTROL_REG &= ((uint8)(~CY_VD_PRESA_EN));
1741:Generated_Source\PSoC5/CyLib.c **** 
1742:Generated_Source\PSoC5/CyLib.c ****     CY_VD_LVI_TRIP_REG = ((uint8)(threshold << 4u)) | (CY_VD_LVI_TRIP_REG & 0x0Fu);
1743:Generated_Source\PSoC5/CyLib.c ****     CY_VD_LVI_HVI_CONTROL_REG |= CY_VD_LVIA_EN;
1744:Generated_Source\PSoC5/CyLib.c **** 
1745:Generated_Source\PSoC5/CyLib.c ****     /* Timeout to eliminate glitches on LVI/HVI when enabling (ID # 127412) */
1746:Generated_Source\PSoC5/CyLib.c ****     CyDelayUs(1u);
1747:Generated_Source\PSoC5/CyLib.c **** 
1748:Generated_Source\PSoC5/CyLib.c ****     (void) CyVdStickyStatus(CY_VD_LVIA);
1749:Generated_Source\PSoC5/CyLib.c **** 
1750:Generated_Source\PSoC5/CyLib.c ****     if(0u != reset)
1751:Generated_Source\PSoC5/CyLib.c ****     {
1752:Generated_Source\PSoC5/CyLib.c ****         CY_VD_PRES_CONTROL_REG |= CY_VD_PRESA_EN;
1753:Generated_Source\PSoC5/CyLib.c ****     }
ARM GAS  C:\Users\ingan\AppData\Local\Temp\ccwaQbAc.s 			page 74


1754:Generated_Source\PSoC5/CyLib.c ****     else
1755:Generated_Source\PSoC5/CyLib.c ****     {
1756:Generated_Source\PSoC5/CyLib.c ****         CY_VD_PRES_CONTROL_REG &= ((uint8)(~CY_VD_PRESA_EN));
1757:Generated_Source\PSoC5/CyLib.c ****     }
1758:Generated_Source\PSoC5/CyLib.c **** 
1759:Generated_Source\PSoC5/CyLib.c ****     /* Clear pending interrupt */
1760:Generated_Source\PSoC5/CyLib.c ****     CY_INT_CLR_PEND_REG = CY_VD_INT_MASK;
1761:Generated_Source\PSoC5/CyLib.c **** 
1762:Generated_Source\PSoC5/CyLib.c ****     /* Restore interrupt enable state */
1763:Generated_Source\PSoC5/CyLib.c ****     CY_INT_ENABLE_REG = intRegTmp;
1764:Generated_Source\PSoC5/CyLib.c **** 
1765:Generated_Source\PSoC5/CyLib.c ****     CyExitCriticalSection(interruptState);
1766:Generated_Source\PSoC5/CyLib.c **** }
1767:Generated_Source\PSoC5/CyLib.c **** 
1768:Generated_Source\PSoC5/CyLib.c **** 
1769:Generated_Source\PSoC5/CyLib.c **** /*******************************************************************************
1770:Generated_Source\PSoC5/CyLib.c **** * Function Name: CyVdLvDigitDisable
1771:Generated_Source\PSoC5/CyLib.c **** ****************************************************************************//**
1772:Generated_Source\PSoC5/CyLib.c **** *
1773:Generated_Source\PSoC5/CyLib.c **** *  Disables the digital low-voltage monitor, turns off device reset upon the
1774:Generated_Source\PSoC5/CyLib.c **** *  digital low-voltage event, and clears the associated persistent status bit.
1775:Generated_Source\PSoC5/CyLib.c **** *
1776:Generated_Source\PSoC5/CyLib.c **** *  Note The associated interrupt enable/disable state is not changed by the
1777:Generated_Source\PSoC5/CyLib.c **** *  function. The pending interrupt status is not cleared. The Interrupt
1778:Generated_Source\PSoC5/CyLib.c **** *  component API should be used to manipulate with the associated interrupts.
1779:Generated_Source\PSoC5/CyLib.c **** *
1780:Generated_Source\PSoC5/CyLib.c **** *******************************************************************************/
1781:Generated_Source\PSoC5/CyLib.c **** void CyVdLvDigitDisable(void) 
1782:Generated_Source\PSoC5/CyLib.c **** {
1783:Generated_Source\PSoC5/CyLib.c ****     CY_VD_LVI_HVI_CONTROL_REG &= ((uint8)(~CY_VD_LVID_EN));
1784:Generated_Source\PSoC5/CyLib.c ****     CY_VD_PRES_CONTROL_REG &= ((uint8)(~CY_VD_PRESD_EN));
1785:Generated_Source\PSoC5/CyLib.c ****     (void) CyVdStickyStatus(CY_VD_LVID);
1786:Generated_Source\PSoC5/CyLib.c **** 
1787:Generated_Source\PSoC5/CyLib.c ****     while(0u != (CyVdStickyStatus(CY_VD_LVID) & CY_VD_LVID))
1788:Generated_Source\PSoC5/CyLib.c ****     {
1789:Generated_Source\PSoC5/CyLib.c **** 
1790:Generated_Source\PSoC5/CyLib.c ****     }
1791:Generated_Source\PSoC5/CyLib.c **** }
1792:Generated_Source\PSoC5/CyLib.c **** 
1793:Generated_Source\PSoC5/CyLib.c **** 
1794:Generated_Source\PSoC5/CyLib.c **** /*******************************************************************************
1795:Generated_Source\PSoC5/CyLib.c **** * Function Name: CyVdLvAnalogDisable
1796:Generated_Source\PSoC5/CyLib.c **** ****************************************************************************//**
1797:Generated_Source\PSoC5/CyLib.c **** *
1798:Generated_Source\PSoC5/CyLib.c **** *  Disables the analog low-voltage monitor, turns off device reset upon the
1799:Generated_Source\PSoC5/CyLib.c **** *  analog low-voltage event, and clears the associated persistent status bit.
1800:Generated_Source\PSoC5/CyLib.c **** *
1801:Generated_Source\PSoC5/CyLib.c **** *  Note The associated interrupt enable/disable state is not changed by the
1802:Generated_Source\PSoC5/CyLib.c **** *  function. The pending interrupt status is not cleared. The Interrupt
1803:Generated_Source\PSoC5/CyLib.c **** *  component API should be used to manipulate with the associated interrupts.
1804:Generated_Source\PSoC5/CyLib.c **** *
1805:Generated_Source\PSoC5/CyLib.c **** *******************************************************************************/
1806:Generated_Source\PSoC5/CyLib.c **** void CyVdLvAnalogDisable(void) 
1807:Generated_Source\PSoC5/CyLib.c **** {
1808:Generated_Source\PSoC5/CyLib.c ****     CY_VD_LVI_HVI_CONTROL_REG &= ((uint8)(~CY_VD_LVIA_EN));
1809:Generated_Source\PSoC5/CyLib.c ****     CY_VD_PRES_CONTROL_REG &= ((uint8)(~CY_VD_PRESA_EN));
1810:Generated_Source\PSoC5/CyLib.c ****     while(0u != (CyVdStickyStatus(CY_VD_LVIA) & CY_VD_LVIA))
ARM GAS  C:\Users\ingan\AppData\Local\Temp\ccwaQbAc.s 			page 75


1811:Generated_Source\PSoC5/CyLib.c ****     {
1812:Generated_Source\PSoC5/CyLib.c **** 
1813:Generated_Source\PSoC5/CyLib.c ****     }
1814:Generated_Source\PSoC5/CyLib.c **** }
1815:Generated_Source\PSoC5/CyLib.c **** 
1816:Generated_Source\PSoC5/CyLib.c **** 
1817:Generated_Source\PSoC5/CyLib.c **** /*******************************************************************************
1818:Generated_Source\PSoC5/CyLib.c **** * Function Name: CyVdHvAnalogEnable
1819:Generated_Source\PSoC5/CyLib.c **** ****************************************************************************//**
1820:Generated_Source\PSoC5/CyLib.c **** *
1821:Generated_Source\PSoC5/CyLib.c **** *  Enables the output of the analog high-voltage monitor and sets 5.75 V
1822:Generated_Source\PSoC5/CyLib.c **** *  threshold detection for Vdda.
1823:Generated_Source\PSoC5/CyLib.c **** *
1824:Generated_Source\PSoC5/CyLib.c **** *  Note The associated interrupt enable/disable state is not changed by the
1825:Generated_Source\PSoC5/CyLib.c **** *  function. The Interrupt component API should be used to register the
1826:Generated_Source\PSoC5/CyLib.c **** *  interrupt service routine and to enable/disable associated interrupt.
1827:Generated_Source\PSoC5/CyLib.c **** *
1828:Generated_Source\PSoC5/CyLib.c **** *******************************************************************************/
1829:Generated_Source\PSoC5/CyLib.c **** void CyVdHvAnalogEnable(void) 
1830:Generated_Source\PSoC5/CyLib.c **** {
1831:Generated_Source\PSoC5/CyLib.c ****     uint32 intRegTmp;
1832:Generated_Source\PSoC5/CyLib.c ****     uint8 interruptState;
1833:Generated_Source\PSoC5/CyLib.c **** 
1834:Generated_Source\PSoC5/CyLib.c ****     interruptState = CyEnterCriticalSection();
1835:Generated_Source\PSoC5/CyLib.c **** 
1836:Generated_Source\PSoC5/CyLib.c ****     /* Store interrupt enable state */
1837:Generated_Source\PSoC5/CyLib.c ****     intRegTmp = CY_INT_ENABLE_REG & CY_VD_INT_MASK;
1838:Generated_Source\PSoC5/CyLib.c **** 
1839:Generated_Source\PSoC5/CyLib.c ****     /* Disable VD interrupt (write 1) to protect against glitches */
1840:Generated_Source\PSoC5/CyLib.c ****     CY_INT_CLEAR_REG = CY_VD_INT_MASK;
1841:Generated_Source\PSoC5/CyLib.c **** 
1842:Generated_Source\PSoC5/CyLib.c ****     CY_VD_PRES_CONTROL_REG &= ((uint8)(~CY_VD_PRESA_EN));
1843:Generated_Source\PSoC5/CyLib.c **** 
1844:Generated_Source\PSoC5/CyLib.c ****     CY_VD_LVI_HVI_CONTROL_REG |= CY_VD_HVIA_EN;
1845:Generated_Source\PSoC5/CyLib.c **** 
1846:Generated_Source\PSoC5/CyLib.c ****     /* Timeout to eliminate glitches on the LVI/HVI when enabling (ID # 127412)  */
1847:Generated_Source\PSoC5/CyLib.c ****     CyDelayUs(1u);
1848:Generated_Source\PSoC5/CyLib.c **** 
1849:Generated_Source\PSoC5/CyLib.c ****     (void) CyVdStickyStatus(CY_VD_HVIA);
1850:Generated_Source\PSoC5/CyLib.c **** 
1851:Generated_Source\PSoC5/CyLib.c ****     /* Clear pending interrupt */
1852:Generated_Source\PSoC5/CyLib.c ****     CY_INT_CLR_PEND_REG = CY_VD_INT_MASK;
1853:Generated_Source\PSoC5/CyLib.c **** 
1854:Generated_Source\PSoC5/CyLib.c ****     /* Restore interrupt enable state */
1855:Generated_Source\PSoC5/CyLib.c ****     CY_INT_ENABLE_REG = intRegTmp;
1856:Generated_Source\PSoC5/CyLib.c **** 
1857:Generated_Source\PSoC5/CyLib.c ****     CyExitCriticalSection(interruptState);
1858:Generated_Source\PSoC5/CyLib.c **** }
1859:Generated_Source\PSoC5/CyLib.c **** 
1860:Generated_Source\PSoC5/CyLib.c **** 
1861:Generated_Source\PSoC5/CyLib.c **** /*******************************************************************************
1862:Generated_Source\PSoC5/CyLib.c **** * Function Name: CyVdHvAnalogDisable
1863:Generated_Source\PSoC5/CyLib.c **** ****************************************************************************//**
1864:Generated_Source\PSoC5/CyLib.c **** *
1865:Generated_Source\PSoC5/CyLib.c **** *  Disables the analog high-voltage monitor and clears the associated persistent
1866:Generated_Source\PSoC5/CyLib.c **** *  status bit.
1867:Generated_Source\PSoC5/CyLib.c **** *
ARM GAS  C:\Users\ingan\AppData\Local\Temp\ccwaQbAc.s 			page 76


1868:Generated_Source\PSoC5/CyLib.c **** *  Note The associated interrupt enable/disable state is not changed by the
1869:Generated_Source\PSoC5/CyLib.c **** *  function. The pending interrupt status is not cleared. The Interrupt
1870:Generated_Source\PSoC5/CyLib.c **** *  component API should be used to manipulate with the associated interrupts.
1871:Generated_Source\PSoC5/CyLib.c **** *
1872:Generated_Source\PSoC5/CyLib.c **** *******************************************************************************/
1873:Generated_Source\PSoC5/CyLib.c **** void CyVdHvAnalogDisable(void) 
1874:Generated_Source\PSoC5/CyLib.c **** {
1875:Generated_Source\PSoC5/CyLib.c ****     CY_VD_LVI_HVI_CONTROL_REG &= ((uint8)(~CY_VD_HVIA_EN));
1876:Generated_Source\PSoC5/CyLib.c ****     while(0u != (CyVdStickyStatus(CY_VD_HVIA) & CY_VD_HVIA))
1877:Generated_Source\PSoC5/CyLib.c ****     {
1878:Generated_Source\PSoC5/CyLib.c **** 
1879:Generated_Source\PSoC5/CyLib.c ****     }
1880:Generated_Source\PSoC5/CyLib.c **** }
1881:Generated_Source\PSoC5/CyLib.c **** 
1882:Generated_Source\PSoC5/CyLib.c **** 
1883:Generated_Source\PSoC5/CyLib.c **** /*******************************************************************************
1884:Generated_Source\PSoC5/CyLib.c **** * Function Name: CyVdStickyStatus
1885:Generated_Source\PSoC5/CyLib.c **** ****************************************************************************//**
1886:Generated_Source\PSoC5/CyLib.c **** *
1887:Generated_Source\PSoC5/CyLib.c **** *  Reads and clears the voltage detection status bits in the RESET_SR0 register.
1888:Generated_Source\PSoC5/CyLib.c **** *  The bits are set to 1 by the voltage monitor circuit when the supply is
1889:Generated_Source\PSoC5/CyLib.c **** *  outside the detector trip point. They stay set to 1 until they are read or
1890:Generated_Source\PSoC5/CyLib.c **** *  a POR / LVI / PRES reset occurs. This function uses a shadow register, so
1891:Generated_Source\PSoC5/CyLib.c **** *  only the bits passed in the parameter will be cleared in the shadow register.
1892:Generated_Source\PSoC5/CyLib.c **** *
1893:Generated_Source\PSoC5/CyLib.c **** *  \param mask: Bits in the RESET_SR0 shadow register to clear and return.
1894:Generated_Source\PSoC5/CyLib.c **** *   Define                  Definition
1895:Generated_Source\PSoC5/CyLib.c **** *   CY_VD_LVID            Persistent status of digital LVI.
1896:Generated_Source\PSoC5/CyLib.c **** *   CY_VD_LVIA            Persistent status of analog LVI.
1897:Generated_Source\PSoC5/CyLib.c **** *   CY_VD_HVIA            Persistent status of analog HVI.
1898:Generated_Source\PSoC5/CyLib.c **** *
1899:Generated_Source\PSoC5/CyLib.c **** * \return
1900:Generated_Source\PSoC5/CyLib.c **** *  Status. Same enumerated bit values as used for the mask parameter. A zero is
1901:Generated_Source\PSoC5/CyLib.c **** *  returned for bits not used in the mask parameter.
1902:Generated_Source\PSoC5/CyLib.c **** *
1903:Generated_Source\PSoC5/CyLib.c **** * Side Effects and Restrictions:
1904:Generated_Source\PSoC5/CyLib.c **** *  When an LVI reset occurs, the RESET_SR0 status registers are cleared. This
1905:Generated_Source\PSoC5/CyLib.c **** *  means that the voltage detection status bits are not persistent across an LVI
1906:Generated_Source\PSoC5/CyLib.c **** *  reset and cannot be used to determine a reset source.
1907:Generated_Source\PSoC5/CyLib.c **** *
1908:Generated_Source\PSoC5/CyLib.c **** *******************************************************************************/
1909:Generated_Source\PSoC5/CyLib.c **** uint8 CyVdStickyStatus(uint8 mask) 
1910:Generated_Source\PSoC5/CyLib.c **** {
 2258              		.loc 1 1910 0
 2259              		.cfi_startproc
 2260              		@ args = 0, pretend = 0, frame = 0
 2261              		@ frame_needed = 0, uses_anonymous_args = 0
 2262              	.LVL121:
 2263 0000 38B5     		push	{r3, r4, r5, lr}
 2264              		.cfi_def_cfa_offset 16
 2265              		.cfi_offset 3, -16
 2266              		.cfi_offset 4, -12
 2267              		.cfi_offset 5, -8
 2268              		.cfi_offset 14, -4
 2269 0002 0546     		mov	r5, r0
1911:Generated_Source\PSoC5/CyLib.c ****     static uint8 interruptStatus;
1912:Generated_Source\PSoC5/CyLib.c ****     uint8 interruptState;
ARM GAS  C:\Users\ingan\AppData\Local\Temp\ccwaQbAc.s 			page 77


1913:Generated_Source\PSoC5/CyLib.c ****     uint8 tmpStatus;
1914:Generated_Source\PSoC5/CyLib.c **** 
1915:Generated_Source\PSoC5/CyLib.c ****     interruptState = CyEnterCriticalSection();
 2270              		.loc 1 1915 0
 2271 0004 FFF7FEFF 		bl	CyEnterCriticalSection
 2272              	.LVL122:
1916:Generated_Source\PSoC5/CyLib.c **** 
1917:Generated_Source\PSoC5/CyLib.c ****     interruptStatus |= CY_VD_PERSISTENT_STATUS_REG;
 2273              		.loc 1 1917 0
 2274 0008 064B     		ldr	r3, .L236
 2275 000a 1C78     		ldrb	r4, [r3]	@ zero_extendqisi2
 2276 000c 064A     		ldr	r2, .L236+4
