ARM GAS  C:\Users\ingan\AppData\Local\Temp\ccpQ09y0.s 			page 1


   1              		.syntax unified
   2              		.cpu cortex-m3
   3              		.fpu softvfp
   4              		.eabi_attribute 20, 1
   5              		.eabi_attribute 21, 1
   6              		.eabi_attribute 23, 3
   7              		.eabi_attribute 24, 1
   8              		.eabi_attribute 25, 1
   9              		.eabi_attribute 26, 1
  10              		.eabi_attribute 30, 1
  11              		.eabi_attribute 34, 1
  12              		.eabi_attribute 18, 4
  13              		.thumb
  14              		.syntax unified
  15              		.file	"CySpc.c"
  16              		.text
  17              	.Ltext0:
  18              		.cfi_sections	.debug_frame
  19              		.section	.text.CySpcStart,"ax",%progbits
  20              		.align	2
  21              		.global	CySpcStart
  22              		.thumb
  23              		.thumb_func
  24              		.type	CySpcStart, %function
  25              	CySpcStart:
  26              	.LFB0:
  27              		.file 1 "Generated_Source\\PSoC5\\CySpc.c"
   1:Generated_Source\PSoC5/CySpc.c **** /***************************************************************************//**
   2:Generated_Source\PSoC5/CySpc.c **** * \file CySpc.c
   3:Generated_Source\PSoC5/CySpc.c **** * \version 5.70
   4:Generated_Source\PSoC5/CySpc.c **** *
   5:Generated_Source\PSoC5/CySpc.c **** * \brief Provides an API for the System Performance Component.
   6:Generated_Source\PSoC5/CySpc.c **** * The SPC functions are not meant to be called directly by the user
   7:Generated_Source\PSoC5/CySpc.c **** * application.
   8:Generated_Source\PSoC5/CySpc.c **** *
   9:Generated_Source\PSoC5/CySpc.c **** ********************************************************************************
  10:Generated_Source\PSoC5/CySpc.c **** * \copyright
  11:Generated_Source\PSoC5/CySpc.c **** * Copyright 2008-2018, Cypress Semiconductor Corporation.  All rights reserved.
  12:Generated_Source\PSoC5/CySpc.c **** * You may use this file only in accordance with the license, terms, conditions,
  13:Generated_Source\PSoC5/CySpc.c **** * disclaimers, and limitations in the end user license agreement accompanying
  14:Generated_Source\PSoC5/CySpc.c **** * the software package with which this file was provided.
  15:Generated_Source\PSoC5/CySpc.c **** *******************************************************************************/
  16:Generated_Source\PSoC5/CySpc.c **** 
  17:Generated_Source\PSoC5/CySpc.c **** #include "CySpc.h"
  18:Generated_Source\PSoC5/CySpc.c **** 
  19:Generated_Source\PSoC5/CySpc.c **** #define CY_SPC_KEY_ONE                      (0xB6u)
  20:Generated_Source\PSoC5/CySpc.c **** #define CY_SPC_KEY_TWO(x)                   ((uint8) (((uint16) 0xD3u) + ((uint16) (x))))
  21:Generated_Source\PSoC5/CySpc.c **** 
  22:Generated_Source\PSoC5/CySpc.c **** /* Command Codes */
  23:Generated_Source\PSoC5/CySpc.c **** #define CY_SPC_CMD_LD_BYTE                  (0x00u)
  24:Generated_Source\PSoC5/CySpc.c **** #define CY_SPC_CMD_LD_MULTI_BYTE            (0x01u)
  25:Generated_Source\PSoC5/CySpc.c **** #define CY_SPC_CMD_LD_ROW                   (0x02u)
  26:Generated_Source\PSoC5/CySpc.c **** #define CY_SPC_CMD_RD_BYTE                  (0x03u)
  27:Generated_Source\PSoC5/CySpc.c **** #define CY_SPC_CMD_RD_MULTI_BYTE            (0x04u)
  28:Generated_Source\PSoC5/CySpc.c **** #define CY_SPC_CMD_WR_ROW                   (0x05u)
  29:Generated_Source\PSoC5/CySpc.c **** #define CY_SPC_CMD_WR_USER_NVL              (0x06u)
  30:Generated_Source\PSoC5/CySpc.c **** #define CY_SPC_CMD_PRG_ROW                  (0x07u)
ARM GAS  C:\Users\ingan\AppData\Local\Temp\ccpQ09y0.s 			page 2


  31:Generated_Source\PSoC5/CySpc.c **** #define CY_SPC_CMD_ER_SECTOR                (0x08u)
  32:Generated_Source\PSoC5/CySpc.c **** #define CY_SPC_CMD_ER_ALL                   (0x09u)
  33:Generated_Source\PSoC5/CySpc.c **** #define CY_SPC_CMD_RD_HIDDEN                (0x0Au)
  34:Generated_Source\PSoC5/CySpc.c **** #define CY_SPC_CMD_PRG_PROTECT              (0x0Bu)
  35:Generated_Source\PSoC5/CySpc.c **** #define CY_SPC_CMD_CHECKSUM                 (0x0Cu)
  36:Generated_Source\PSoC5/CySpc.c **** #define CY_SPC_CMD_DWNLD_ALGORITHM          (0x0Du)
  37:Generated_Source\PSoC5/CySpc.c **** #define CY_SPC_CMD_GET_TEMP                 (0x0Eu)
  38:Generated_Source\PSoC5/CySpc.c **** #define CY_SPC_CMD_GET_ADC                  (0x0Fu)
  39:Generated_Source\PSoC5/CySpc.c **** #define CY_SPC_CMD_RD_NVL_VOLATILE          (0x10u)
  40:Generated_Source\PSoC5/CySpc.c **** #define CY_SPC_CMD_SETUP_TS                 (0x11u)
  41:Generated_Source\PSoC5/CySpc.c **** #define CY_SPC_CMD_DISABLE_TS               (0x12u)
  42:Generated_Source\PSoC5/CySpc.c **** #define CY_SPC_CMD_ER_ROW                   (0x13u)
  43:Generated_Source\PSoC5/CySpc.c **** 
  44:Generated_Source\PSoC5/CySpc.c **** /* Enable bit in Active and Alternate Active mode templates */
  45:Generated_Source\PSoC5/CySpc.c **** #define PM_SPC_PM_EN                        (0x08u)
  46:Generated_Source\PSoC5/CySpc.c **** 
  47:Generated_Source\PSoC5/CySpc.c **** /* Gate calls to the SPC. */
  48:Generated_Source\PSoC5/CySpc.c **** uint8 SpcLockState = CY_SPC_UNLOCKED;
  49:Generated_Source\PSoC5/CySpc.c **** 
  50:Generated_Source\PSoC5/CySpc.c **** 
  51:Generated_Source\PSoC5/CySpc.c **** #if(CY_PSOC5)
  52:Generated_Source\PSoC5/CySpc.c **** 
  53:Generated_Source\PSoC5/CySpc.c ****     /***************************************************************************
  54:Generated_Source\PSoC5/CySpc.c ****     * The wait-state pipeline must be enabled prior to accessing the SPC
  55:Generated_Source\PSoC5/CySpc.c ****     * register interface regardless of CPU frequency. The CySpcLock() saves
  56:Generated_Source\PSoC5/CySpc.c ****     * current wait-state pipeline state and enables it. The CySpcUnlock()
  57:Generated_Source\PSoC5/CySpc.c ****     * function, which must be called after SPC transaction, restores original
  58:Generated_Source\PSoC5/CySpc.c ****     * state.
  59:Generated_Source\PSoC5/CySpc.c ****     ***************************************************************************/
  60:Generated_Source\PSoC5/CySpc.c ****     static uint32 spcWaitPipeBypass = 0u;
  61:Generated_Source\PSoC5/CySpc.c **** 
  62:Generated_Source\PSoC5/CySpc.c **** #endif  /* (CY_PSOC5) */
  63:Generated_Source\PSoC5/CySpc.c **** 
  64:Generated_Source\PSoC5/CySpc.c **** 
  65:Generated_Source\PSoC5/CySpc.c **** /*******************************************************************************
  66:Generated_Source\PSoC5/CySpc.c **** * Function Name: CySpcStart
  67:Generated_Source\PSoC5/CySpc.c **** ****************************************************************************//**
  68:Generated_Source\PSoC5/CySpc.c **** *  Starts the SPC.
  69:Generated_Source\PSoC5/CySpc.c **** *
  70:Generated_Source\PSoC5/CySpc.c **** *******************************************************************************/
  71:Generated_Source\PSoC5/CySpc.c **** void CySpcStart(void) 
  72:Generated_Source\PSoC5/CySpc.c **** {
  28              		.loc 1 72 0
  29              		.cfi_startproc
  30              		@ args = 0, pretend = 0, frame = 0
  31              		@ frame_needed = 0, uses_anonymous_args = 0
  32 0000 08B5     		push	{r3, lr}
  33              		.cfi_def_cfa_offset 8
  34              		.cfi_offset 3, -8
  35              		.cfi_offset 14, -4
  73:Generated_Source\PSoC5/CySpc.c ****     /* Save current global interrupt enable and disable it */
  74:Generated_Source\PSoC5/CySpc.c ****     uint8 interruptState = CyEnterCriticalSection();
  36              		.loc 1 74 0
  37 0002 FFF7FEFF 		bl	CyEnterCriticalSection
  38              	.LVL0:
  75:Generated_Source\PSoC5/CySpc.c **** 
  76:Generated_Source\PSoC5/CySpc.c ****     CY_SPC_PM_ACT_REG  |= PM_SPC_PM_EN;
ARM GAS  C:\Users\ingan\AppData\Local\Temp\ccpQ09y0.s 			page 3


  39              		.loc 1 76 0
  40 0006 064A     		ldr	r2, .L3
  41 0008 1378     		ldrb	r3, [r2]	@ zero_extendqisi2
  42 000a 43F00803 		orr	r3, r3, #8
  43 000e 1370     		strb	r3, [r2]
  77:Generated_Source\PSoC5/CySpc.c ****     CY_SPC_PM_STBY_REG |= PM_SPC_PM_EN;
  44              		.loc 1 77 0
  45 0010 1032     		adds	r2, r2, #16
  46 0012 1378     		ldrb	r3, [r2]	@ zero_extendqisi2
  47 0014 43F00803 		orr	r3, r3, #8
  48 0018 1370     		strb	r3, [r2]
  78:Generated_Source\PSoC5/CySpc.c **** 
  79:Generated_Source\PSoC5/CySpc.c ****     /* Restore global interrupt enable state */
  80:Generated_Source\PSoC5/CySpc.c ****     CyExitCriticalSection(interruptState);
  49              		.loc 1 80 0
  50 001a FFF7FEFF 		bl	CyExitCriticalSection
  51              	.LVL1:
  52 001e 08BD     		pop	{r3, pc}
  53              	.L4:
  54              		.align	2
  55              	.L3:
  56 0020 A0430040 		.word	1073759136
  57              		.cfi_endproc
  58              	.LFE0:
  59              		.size	CySpcStart, .-CySpcStart
  60              		.section	.text.CySpcStop,"ax",%progbits
  61              		.align	2
  62              		.global	CySpcStop
  63              		.thumb
  64              		.thumb_func
  65              		.type	CySpcStop, %function
  66              	CySpcStop:
  67              	.LFB1:
  81:Generated_Source\PSoC5/CySpc.c **** }
  82:Generated_Source\PSoC5/CySpc.c **** 
  83:Generated_Source\PSoC5/CySpc.c **** 
  84:Generated_Source\PSoC5/CySpc.c **** /*******************************************************************************
  85:Generated_Source\PSoC5/CySpc.c **** * Function Name: CySpcStop
  86:Generated_Source\PSoC5/CySpc.c **** ****************************************************************************//**
  87:Generated_Source\PSoC5/CySpc.c **** *  Stops the SPC.
  88:Generated_Source\PSoC5/CySpc.c **** *
  89:Generated_Source\PSoC5/CySpc.c **** *******************************************************************************/
  90:Generated_Source\PSoC5/CySpc.c **** void CySpcStop(void) 
  91:Generated_Source\PSoC5/CySpc.c **** {
  68              		.loc 1 91 0
  69              		.cfi_startproc
  70              		@ args = 0, pretend = 0, frame = 0
  71              		@ frame_needed = 0, uses_anonymous_args = 0
  72 0000 08B5     		push	{r3, lr}
  73              		.cfi_def_cfa_offset 8
  74              		.cfi_offset 3, -8
  75              		.cfi_offset 14, -4
  92:Generated_Source\PSoC5/CySpc.c ****     /* Save current global interrupt enable and disable it */
  93:Generated_Source\PSoC5/CySpc.c ****     uint8 interruptState = CyEnterCriticalSection();
  76              		.loc 1 93 0
  77 0002 FFF7FEFF 		bl	CyEnterCriticalSection
  78              	.LVL2:
ARM GAS  C:\Users\ingan\AppData\Local\Temp\ccpQ09y0.s 			page 4


  94:Generated_Source\PSoC5/CySpc.c **** 
  95:Generated_Source\PSoC5/CySpc.c ****     CY_SPC_PM_ACT_REG  &= ((uint8)(~PM_SPC_PM_EN));
  79              		.loc 1 95 0
  80 0006 064A     		ldr	r2, .L7
  81 0008 1378     		ldrb	r3, [r2]	@ zero_extendqisi2
  82 000a 03F0F703 		and	r3, r3, #247
  83 000e 1370     		strb	r3, [r2]
  96:Generated_Source\PSoC5/CySpc.c ****     CY_SPC_PM_STBY_REG &= ((uint8)(~PM_SPC_PM_EN));
  84              		.loc 1 96 0
  85 0010 1032     		adds	r2, r2, #16
  86 0012 1378     		ldrb	r3, [r2]	@ zero_extendqisi2
  87 0014 03F0F703 		and	r3, r3, #247
  88 0018 1370     		strb	r3, [r2]
  97:Generated_Source\PSoC5/CySpc.c **** 
  98:Generated_Source\PSoC5/CySpc.c ****     /* Restore global interrupt enable state */
  99:Generated_Source\PSoC5/CySpc.c ****     CyExitCriticalSection(interruptState);
  89              		.loc 1 99 0
  90 001a FFF7FEFF 		bl	CyExitCriticalSection
  91              	.LVL3:
  92 001e 08BD     		pop	{r3, pc}
  93              	.L8:
  94              		.align	2
  95              	.L7:
  96 0020 A0430040 		.word	1073759136
  97              		.cfi_endproc
  98              	.LFE1:
  99              		.size	CySpcStop, .-CySpcStop
 100              		.section	.text.CySpcReadData,"ax",%progbits
 101              		.align	2
 102              		.global	CySpcReadData
 103              		.thumb
 104              		.thumb_func
 105              		.type	CySpcReadData, %function
 106              	CySpcReadData:
 107              	.LFB2:
 100:Generated_Source\PSoC5/CySpc.c **** }
 101:Generated_Source\PSoC5/CySpc.c **** 
 102:Generated_Source\PSoC5/CySpc.c **** 
 103:Generated_Source\PSoC5/CySpc.c **** /*******************************************************************************
 104:Generated_Source\PSoC5/CySpc.c **** * Function Name: CySpcReadData
 105:Generated_Source\PSoC5/CySpc.c **** ****************************************************************************//**
 106:Generated_Source\PSoC5/CySpc.c **** *  Reads data from the SPC.
 107:Generated_Source\PSoC5/CySpc.c **** *
 108:Generated_Source\PSoC5/CySpc.c **** *  \param uint8 buffer:
 109:Generated_Source\PSoC5/CySpc.c **** *   Address to store data read.
 110:Generated_Source\PSoC5/CySpc.c **** *
 111:Generated_Source\PSoC5/CySpc.c **** *  \param uint8 size:
 112:Generated_Source\PSoC5/CySpc.c **** *   Number of bytes to read from the SPC.
 113:Generated_Source\PSoC5/CySpc.c **** *
 114:Generated_Source\PSoC5/CySpc.c **** * \return
 115:Generated_Source\PSoC5/CySpc.c **** *  uint8:
 116:Generated_Source\PSoC5/CySpc.c **** *   The number of bytes read from the SPC.
 117:Generated_Source\PSoC5/CySpc.c **** *
 118:Generated_Source\PSoC5/CySpc.c **** *******************************************************************************/
 119:Generated_Source\PSoC5/CySpc.c **** uint8 CySpcReadData(uint8 buffer[], uint8 size) 
 120:Generated_Source\PSoC5/CySpc.c **** {
 108              		.loc 1 120 0
ARM GAS  C:\Users\ingan\AppData\Local\Temp\ccpQ09y0.s 			page 5


 109              		.cfi_startproc
 110              		@ args = 0, pretend = 0, frame = 0
 111              		@ frame_needed = 0, uses_anonymous_args = 0
 112              	.LVL4:
 113 0000 2DE9F843 		push	{r3, r4, r5, r6, r7, r8, r9, lr}
 114              		.cfi_def_cfa_offset 32
 115              		.cfi_offset 3, -32
 116              		.cfi_offset 4, -28
 117              		.cfi_offset 5, -24
 118              		.cfi_offset 6, -20
 119              		.cfi_offset 7, -16
 120              		.cfi_offset 8, -12
 121              		.cfi_offset 9, -8
 122              		.cfi_offset 14, -4
 123              	.LVL5:
 121:Generated_Source\PSoC5/CySpc.c ****     uint8 i;
 122:Generated_Source\PSoC5/CySpc.c **** 
 123:Generated_Source\PSoC5/CySpc.c ****     for(i = 0u; i < size; i++)
 124              		.loc 1 123 0
 125 0004 8946     		mov	r9, r1
 126 0006 D9B1     		cbz	r1, .L10
 127 0008 461E     		subs	r6, r0, #1
 128 000a 4B1E     		subs	r3, r1, #1
 129 000c DBB2     		uxtb	r3, r3
 130 000e C718     		adds	r7, r0, r3
 124:Generated_Source\PSoC5/CySpc.c ****     {
 125:Generated_Source\PSoC5/CySpc.c ****         while(!CY_SPC_DATA_READY)
 131              		.loc 1 125 0
 132 0010 0D4C     		ldr	r4, .L17
 126:Generated_Source\PSoC5/CySpc.c ****         {
 127:Generated_Source\PSoC5/CySpc.c ****             CyDelayUs(1u);
 128:Generated_Source\PSoC5/CySpc.c ****         }
 129:Generated_Source\PSoC5/CySpc.c ****         buffer[i] = CY_SPC_CPU_DATA_REG;
 133              		.loc 1 129 0
 134 0012 DFF83880 		ldr	r8, .L17+4
 135 0016 0CE0     		b	.L11
 136              	.LVL6:
 137              	.L14:
 127:Generated_Source\PSoC5/CySpc.c ****         }
 138              		.loc 1 127 0
 139 0018 2846     		mov	r0, r5
 140 001a FFF7FEFF 		bl	CyDelayUs
 141              	.LVL7:
 125:Generated_Source\PSoC5/CySpc.c ****         {
 142              		.loc 1 125 0
 143 001e 2378     		ldrb	r3, [r4]	@ zero_extendqisi2
 144 0020 13F0010F 		tst	r3, #1
 145 0024 F8D0     		beq	.L14
 146              	.L13:
 147              		.loc 1 129 0 discriminator 2
 148 0026 98F80030 		ldrb	r3, [r8]	@ zero_extendqisi2
 149 002a 06F8013F 		strb	r3, [r6, #1]!
 150              	.LVL8:
 123:Generated_Source\PSoC5/CySpc.c ****     {
 151              		.loc 1 123 0 discriminator 2
 152 002e BE42     		cmp	r6, r7
 153 0030 06D0     		beq	.L10
ARM GAS  C:\Users\ingan\AppData\Local\Temp\ccpQ09y0.s 			page 6


 154              	.LVL9:
 155              	.L11:
 125:Generated_Source\PSoC5/CySpc.c ****         {
 156              		.loc 1 125 0
 157 0032 2378     		ldrb	r3, [r4]	@ zero_extendqisi2
 158 0034 13F0010F 		tst	r3, #1
 127:Generated_Source\PSoC5/CySpc.c ****         }
 159              		.loc 1 127 0
 160 0038 08BF     		it	eq
 161 003a 0125     		moveq	r5, #1
 125:Generated_Source\PSoC5/CySpc.c ****         {
 162              		.loc 1 125 0
 163 003c ECD0     		beq	.L14
 164 003e F2E7     		b	.L13
 165              	.LVL10:
 166              	.L10:
 130:Generated_Source\PSoC5/CySpc.c ****     }
 131:Generated_Source\PSoC5/CySpc.c **** 
 132:Generated_Source\PSoC5/CySpc.c ****     return(i);
 133:Generated_Source\PSoC5/CySpc.c **** }
 167              		.loc 1 133 0
 168 0040 4846     		mov	r0, r9
 169 0042 BDE8F883 		pop	{r3, r4, r5, r6, r7, r8, r9, pc}
 170              	.L18:
 171 0046 00BF     		.align	2
 172              	.L17:
 173 0048 22470040 		.word	1073760034
 174 004c 20470040 		.word	1073760032
 175              		.cfi_endproc
 176              	.LFE2:
 177              		.size	CySpcReadData, .-CySpcReadData
 178              		.section	.text.CySpcLoadMultiByte,"ax",%progbits
 179              		.align	2
 180              		.global	CySpcLoadMultiByte
 181              		.thumb
 182              		.thumb_func
 183              		.type	CySpcLoadMultiByte, %function
 184              	CySpcLoadMultiByte:
 185              	.LFB3:
 134:Generated_Source\PSoC5/CySpc.c **** 
 135:Generated_Source\PSoC5/CySpc.c **** 
 136:Generated_Source\PSoC5/CySpc.c **** /*******************************************************************************
 137:Generated_Source\PSoC5/CySpc.c **** * Function Name: CySpcLoadMultiByte
 138:Generated_Source\PSoC5/CySpc.c **** ****************************************************************************//**
 139:Generated_Source\PSoC5/CySpc.c **** *  Loads 1 to 32 bytes of data into the row latch of a Flash/EEPROM array.
 140:Generated_Source\PSoC5/CySpc.c **** *
 141:Generated_Source\PSoC5/CySpc.c **** *  \param uint8 array:
 142:Generated_Source\PSoC5/CySpc.c **** *   Id of the array.
 143:Generated_Source\PSoC5/CySpc.c **** *
 144:Generated_Source\PSoC5/CySpc.c **** *  \param uint16 address:
 145:Generated_Source\PSoC5/CySpc.c **** *   Flash/eeprom addrress
 146:Generated_Source\PSoC5/CySpc.c **** *
 147:Generated_Source\PSoC5/CySpc.c **** *  \param uint8* buffer:
 148:Generated_Source\PSoC5/CySpc.c **** *   Data to load to the row latch
 149:Generated_Source\PSoC5/CySpc.c **** *
 150:Generated_Source\PSoC5/CySpc.c **** *  \param uint16 number:
 151:Generated_Source\PSoC5/CySpc.c **** *   Number bytes to load.
ARM GAS  C:\Users\ingan\AppData\Local\Temp\ccpQ09y0.s 			page 7


 152:Generated_Source\PSoC5/CySpc.c **** *
 153:Generated_Source\PSoC5/CySpc.c **** * \return
 154:Generated_Source\PSoC5/CySpc.c **** *  CYRET_STARTED
 155:Generated_Source\PSoC5/CySpc.c **** *  CYRET_CANCELED
 156:Generated_Source\PSoC5/CySpc.c **** *  CYRET_LOCKED
 157:Generated_Source\PSoC5/CySpc.c **** *  CYRET_BAD_PARAM
 158:Generated_Source\PSoC5/CySpc.c **** *
 159:Generated_Source\PSoC5/CySpc.c **** *******************************************************************************/
 160:Generated_Source\PSoC5/CySpc.c **** cystatus CySpcLoadMultiByte(uint8 array, uint16 address, const uint8 buffer[], uint8 size)\
 161:Generated_Source\PSoC5/CySpc.c **** 
 162:Generated_Source\PSoC5/CySpc.c **** {
 186              		.loc 1 162 0
 187              		.cfi_startproc
 188              		@ args = 0, pretend = 0, frame = 0
 189              		@ frame_needed = 0, uses_anonymous_args = 0
 190              		@ link register save eliminated.
 191              	.LVL11:
 192 0000 30B4     		push	{r4, r5}
 193              		.cfi_def_cfa_offset 8
 194              		.cfi_offset 4, -8
 195              		.cfi_offset 5, -4
 196              	.LVL12:
 163:Generated_Source\PSoC5/CySpc.c ****     cystatus status = CYRET_STARTED;
 164:Generated_Source\PSoC5/CySpc.c ****     uint8 i;
 165:Generated_Source\PSoC5/CySpc.c **** 
 166:Generated_Source\PSoC5/CySpc.c ****     /***************************************************************************
 167:Generated_Source\PSoC5/CySpc.c ****     * Check if number is correct for array. Number must be less than
 168:Generated_Source\PSoC5/CySpc.c ****     * 32 for Flash or less than 16 for EEPROM.
 169:Generated_Source\PSoC5/CySpc.c ****     ***************************************************************************/
 170:Generated_Source\PSoC5/CySpc.c ****     if(((array < CY_SPC_LAST_FLASH_ARRAYID) && (size < 32u)) ||
 197              		.loc 1 170 0
 198 0002 3E28     		cmp	r0, #62
 199 0004 01D8     		bhi	.L20
 200              		.loc 1 170 0 is_stmt 0 discriminator 1
 201 0006 1F2B     		cmp	r3, #31
 202 0008 03D9     		bls	.L21
 203              	.L20:
 204              		.loc 1 170 0 discriminator 3
 205 000a 3F28     		cmp	r0, #63
 206 000c 27D9     		bls	.L24
 171:Generated_Source\PSoC5/CySpc.c ****        ((array > CY_SPC_LAST_FLASH_ARRAYID) && (size < 16u)))
 207              		.loc 1 171 0 is_stmt 1
 208 000e 0F2B     		cmp	r3, #15
 209 0010 27D8     		bhi	.L25
 210              	.L21:
 172:Generated_Source\PSoC5/CySpc.c ****     {
 173:Generated_Source\PSoC5/CySpc.c ****         if(CY_SPC_IDLE)
 211              		.loc 1 173 0
 212 0012 184C     		ldr	r4, .L31
 213 0014 2478     		ldrb	r4, [r4]	@ zero_extendqisi2
 214 0016 14F0020F 		tst	r4, #2
 215 001a 24D0     		beq	.L26
 174:Generated_Source\PSoC5/CySpc.c ****         {
 175:Generated_Source\PSoC5/CySpc.c ****             CY_SPC_CPU_DATA_REG = CY_SPC_KEY_ONE;
 216              		.loc 1 175 0
 217 001c 164C     		ldr	r4, .L31+4
 218 001e B625     		movs	r5, #182
ARM GAS  C:\Users\ingan\AppData\Local\Temp\ccpQ09y0.s 			page 8


 219 0020 2570     		strb	r5, [r4]
 176:Generated_Source\PSoC5/CySpc.c ****             CY_SPC_CPU_DATA_REG = CY_SPC_KEY_TWO(CY_SPC_CMD_LD_MULTI_BYTE);
 220              		.loc 1 176 0
 221 0022 D425     		movs	r5, #212
 222 0024 2570     		strb	r5, [r4]
 177:Generated_Source\PSoC5/CySpc.c ****             CY_SPC_CPU_DATA_REG = CY_SPC_CMD_LD_MULTI_BYTE;
 223              		.loc 1 177 0
 224 0026 0125     		movs	r5, #1
 225 0028 2570     		strb	r5, [r4]
 178:Generated_Source\PSoC5/CySpc.c **** 
 179:Generated_Source\PSoC5/CySpc.c ****             if(CY_SPC_BUSY)
 226              		.loc 1 179 0
 227 002a 0234     		adds	r4, r4, #2
 228 002c 2478     		ldrb	r4, [r4]	@ zero_extendqisi2
 229 002e 14F0020F 		tst	r4, #2
 230 0032 1AD1     		bne	.L27
 180:Generated_Source\PSoC5/CySpc.c ****             {
 181:Generated_Source\PSoC5/CySpc.c ****                 CY_SPC_CPU_DATA_REG = array;
 231              		.loc 1 181 0
 232 0034 104C     		ldr	r4, .L31+4
 233 0036 2070     		strb	r0, [r4]
 182:Generated_Source\PSoC5/CySpc.c ****                 CY_SPC_CPU_DATA_REG = 1u & HI8(address);
 234              		.loc 1 182 0
 235 0038 C1F30020 		ubfx	r0, r1, #8, #1
 236              	.LVL13:
 237 003c 2070     		strb	r0, [r4]
 238              	.LVL14:
 183:Generated_Source\PSoC5/CySpc.c ****                 CY_SPC_CPU_DATA_REG = LO8(address);
 239              		.loc 1 183 0
 240 003e C9B2     		uxtb	r1, r1
 241              	.LVL15:
 242 0040 2170     		strb	r1, [r4]
 184:Generated_Source\PSoC5/CySpc.c ****                 CY_SPC_CPU_DATA_REG = ((uint8)(size - 1u));
 243              		.loc 1 184 0
 244 0042 591E     		subs	r1, r3, #1
 245 0044 C9B2     		uxtb	r1, r1
 246 0046 2170     		strb	r1, [r4]
 247              	.LVL16:
 185:Generated_Source\PSoC5/CySpc.c **** 
 186:Generated_Source\PSoC5/CySpc.c ****                 for(i = 0u; i < size; i++)
 248              		.loc 1 186 0
 249 0048 8BB1     		cbz	r3, .L28
 250 004a 531E     		subs	r3, r2, #1
 251              	.LVL17:
 252 004c 0A44     		add	r2, r2, r1
 253              	.LVL18:
 187:Generated_Source\PSoC5/CySpc.c ****                 {
 188:Generated_Source\PSoC5/CySpc.c ****                     CY_SPC_CPU_DATA_REG = buffer[i];
 254              		.loc 1 188 0
 255 004e 2046     		mov	r0, r4
 256              	.LVL19:
 257              	.L23:
 258              		.loc 1 188 0 is_stmt 0 discriminator 3
 259 0050 13F8011F 		ldrb	r1, [r3, #1]!	@ zero_extendqisi2
 260              	.LVL20:
 261 0054 0170     		strb	r1, [r0]
 262              	.LVL21:
ARM GAS  C:\Users\ingan\AppData\Local\Temp\ccpQ09y0.s 			page 9


 186:Generated_Source\PSoC5/CySpc.c ****                 {
 263              		.loc 1 186 0 is_stmt 1 discriminator 3
 264 0056 9342     		cmp	r3, r2
 265 0058 FAD1     		bne	.L23
 163:Generated_Source\PSoC5/CySpc.c ****     uint8 i;
 266              		.loc 1 163 0
 267 005a 0720     		movs	r0, #7
 268 005c 08E0     		b	.L22
 269              	.LVL22:
 270              	.L24:
 189:Generated_Source\PSoC5/CySpc.c ****                 }
 190:Generated_Source\PSoC5/CySpc.c ****             }
 191:Generated_Source\PSoC5/CySpc.c ****             else
 192:Generated_Source\PSoC5/CySpc.c ****             {
 193:Generated_Source\PSoC5/CySpc.c ****                 status = CYRET_CANCELED;
 194:Generated_Source\PSoC5/CySpc.c ****             }
 195:Generated_Source\PSoC5/CySpc.c ****         }
 196:Generated_Source\PSoC5/CySpc.c ****         else
 197:Generated_Source\PSoC5/CySpc.c ****         {
 198:Generated_Source\PSoC5/CySpc.c ****             status = CYRET_LOCKED;
 199:Generated_Source\PSoC5/CySpc.c ****         }
 200:Generated_Source\PSoC5/CySpc.c ****     }
 201:Generated_Source\PSoC5/CySpc.c ****     else
 202:Generated_Source\PSoC5/CySpc.c ****     {
 203:Generated_Source\PSoC5/CySpc.c ****         status = CYRET_BAD_PARAM;
 271              		.loc 1 203 0
 272 005e 0120     		movs	r0, #1
 273              	.LVL23:
 274 0060 06E0     		b	.L22
 275              	.LVL24:
 276              	.L25:
 277 0062 0120     		movs	r0, #1
 278              	.LVL25:
 279 0064 04E0     		b	.L22
 280              	.LVL26:
 281              	.L26:
 198:Generated_Source\PSoC5/CySpc.c ****         }
 282              		.loc 1 198 0
 283 0066 0420     		movs	r0, #4
 284              	.LVL27:
 285 0068 02E0     		b	.L22
 286              	.LVL28:
 287              	.L27:
 193:Generated_Source\PSoC5/CySpc.c ****             }
 288              		.loc 1 193 0
 289 006a 0920     		movs	r0, #9
 290              	.LVL29:
 291 006c 00E0     		b	.L22
 292              	.LVL30:
 293              	.L28:
 163:Generated_Source\PSoC5/CySpc.c ****     uint8 i;
 294              		.loc 1 163 0
 295 006e 0720     		movs	r0, #7
 296              	.LVL31:
 297              	.L22:
 204:Generated_Source\PSoC5/CySpc.c ****     }
 205:Generated_Source\PSoC5/CySpc.c **** 
ARM GAS  C:\Users\ingan\AppData\Local\Temp\ccpQ09y0.s 			page 10


 206:Generated_Source\PSoC5/CySpc.c ****     return(status);
 207:Generated_Source\PSoC5/CySpc.c **** }
 298              		.loc 1 207 0
 299 0070 30BC     		pop	{r4, r5}
 300              		.cfi_restore 5
 301              		.cfi_restore 4
 302              		.cfi_def_cfa_offset 0
 303 0072 7047     		bx	lr
 304              	.L32:
 305              		.align	2
 306              	.L31:
 307 0074 22470040 		.word	1073760034
 308 0078 20470040 		.word	1073760032
 309              		.cfi_endproc
 310              	.LFE3:
 311              		.size	CySpcLoadMultiByte, .-CySpcLoadMultiByte
 312              		.section	.text.CySpcLoadRow,"ax",%progbits
 313              		.align	2
 314              		.global	CySpcLoadRow
 315              		.thumb
 316              		.thumb_func
 317              		.type	CySpcLoadRow, %function
 318              	CySpcLoadRow:
 319              	.LFB4:
 208:Generated_Source\PSoC5/CySpc.c **** 
 209:Generated_Source\PSoC5/CySpc.c **** 
 210:Generated_Source\PSoC5/CySpc.c **** /*******************************************************************************
 211:Generated_Source\PSoC5/CySpc.c **** * Function Name: CySpcLoadRow
 212:Generated_Source\PSoC5/CySpc.c **** ****************************************************************************//**
 213:Generated_Source\PSoC5/CySpc.c **** *  Loads a row of data into the row latch of a Flash/EEPROM array.
 214:Generated_Source\PSoC5/CySpc.c **** *
 215:Generated_Source\PSoC5/CySpc.c **** *  The buffer pointer should point to the data that should be written to the
 216:Generated_Source\PSoC5/CySpc.c **** *  flash row directly (no data in ECC/flash will be preserved). It is Flash API
 217:Generated_Source\PSoC5/CySpc.c **** *  responsibility to prepare data: the preserved data are copied from flash into
 218:Generated_Source\PSoC5/CySpc.c **** *  array with the modified data.
 219:Generated_Source\PSoC5/CySpc.c **** *
 220:Generated_Source\PSoC5/CySpc.c **** *  \param uint8 array:
 221:Generated_Source\PSoC5/CySpc.c **** *   Id of the array.
 222:Generated_Source\PSoC5/CySpc.c **** *
 223:Generated_Source\PSoC5/CySpc.c **** *  \param uint8* buffer:
 224:Generated_Source\PSoC5/CySpc.c **** *   Data to be loaded to the row latch
 225:Generated_Source\PSoC5/CySpc.c **** *
 226:Generated_Source\PSoC5/CySpc.c **** *  \param uint8 size:
 227:Generated_Source\PSoC5/CySpc.c **** *   The number of data bytes that the SPC expects to be written. Depends on the
 228:Generated_Source\PSoC5/CySpc.c **** *   type of the array and, if the array is Flash, whether ECC is being enabled
 229:Generated_Source\PSoC5/CySpc.c **** *   or not. There are following values: flash row latch size with ECC enabled,
 230:Generated_Source\PSoC5/CySpc.c **** *   flash row latch size with ECC disabled and EEPROM row latch size.
 231:Generated_Source\PSoC5/CySpc.c **** *
 232:Generated_Source\PSoC5/CySpc.c **** * \return
 233:Generated_Source\PSoC5/CySpc.c **** *  CYRET_STARTED
 234:Generated_Source\PSoC5/CySpc.c **** *  CYRET_CANCELED
 235:Generated_Source\PSoC5/CySpc.c **** *  CYRET_LOCKED
 236:Generated_Source\PSoC5/CySpc.c **** *
 237:Generated_Source\PSoC5/CySpc.c **** *******************************************************************************/
 238:Generated_Source\PSoC5/CySpc.c **** cystatus CySpcLoadRow(uint8 array, const uint8 buffer[], uint16 size)
 239:Generated_Source\PSoC5/CySpc.c **** {
 320              		.loc 1 239 0
ARM GAS  C:\Users\ingan\AppData\Local\Temp\ccpQ09y0.s 			page 11


 321              		.cfi_startproc
 322              		@ args = 0, pretend = 0, frame = 0
 323              		@ frame_needed = 0, uses_anonymous_args = 0
 324              		@ link register save eliminated.
 325              	.LVL32:
 240:Generated_Source\PSoC5/CySpc.c ****     cystatus status = CYRET_STARTED;
 241:Generated_Source\PSoC5/CySpc.c ****     uint16 i;
 242:Generated_Source\PSoC5/CySpc.c **** 
 243:Generated_Source\PSoC5/CySpc.c ****     /* Make sure the SPC is ready to accept command */
 244:Generated_Source\PSoC5/CySpc.c ****     if(CY_SPC_IDLE)
 326              		.loc 1 244 0
 327 0000 134B     		ldr	r3, .L41
 328 0002 1B78     		ldrb	r3, [r3]	@ zero_extendqisi2
 329 0004 13F0020F 		tst	r3, #2
 330 0008 1BD0     		beq	.L36
 239:Generated_Source\PSoC5/CySpc.c ****     cystatus status = CYRET_STARTED;
 331              		.loc 1 239 0
 332 000a 10B4     		push	{r4}
 333              		.cfi_def_cfa_offset 4
 334              		.cfi_offset 4, -4
 245:Generated_Source\PSoC5/CySpc.c ****     {
 246:Generated_Source\PSoC5/CySpc.c ****         CY_SPC_CPU_DATA_REG = CY_SPC_KEY_ONE;
 335              		.loc 1 246 0
 336 000c 114B     		ldr	r3, .L41+4
 337 000e B624     		movs	r4, #182
 338 0010 1C70     		strb	r4, [r3]
 247:Generated_Source\PSoC5/CySpc.c ****         CY_SPC_CPU_DATA_REG = CY_SPC_KEY_TWO(CY_SPC_CMD_LD_ROW);
 339              		.loc 1 247 0
 340 0012 D524     		movs	r4, #213
 341 0014 1C70     		strb	r4, [r3]
 248:Generated_Source\PSoC5/CySpc.c ****         CY_SPC_CPU_DATA_REG = CY_SPC_CMD_LD_ROW;
 342              		.loc 1 248 0
 343 0016 0224     		movs	r4, #2
 344 0018 1C70     		strb	r4, [r3]
 249:Generated_Source\PSoC5/CySpc.c **** 
 250:Generated_Source\PSoC5/CySpc.c ****         /* Make sure the command was accepted */
 251:Generated_Source\PSoC5/CySpc.c ****         if(CY_SPC_BUSY)
 345              		.loc 1 251 0
 346 001a 0233     		adds	r3, r3, #2
 347 001c 1B78     		ldrb	r3, [r3]	@ zero_extendqisi2
 348 001e 13F0020F 		tst	r3, #2
 349 0022 10D1     		bne	.L37
 252:Generated_Source\PSoC5/CySpc.c ****         {
 253:Generated_Source\PSoC5/CySpc.c ****             CY_SPC_CPU_DATA_REG = array;
 350              		.loc 1 253 0
 351 0024 0B4B     		ldr	r3, .L41+4
 352 0026 1870     		strb	r0, [r3]
 353              	.LVL33:
 254:Generated_Source\PSoC5/CySpc.c **** 
 255:Generated_Source\PSoC5/CySpc.c ****             for(i = 0u; i < size; i++)
 354              		.loc 1 255 0
 355 0028 7AB1     		cbz	r2, .L38
 356 002a 4B1E     		subs	r3, r1, #1
 357 002c 013A     		subs	r2, r2, #1
 358              	.LVL34:
 359 002e 92B2     		uxth	r2, r2
 360 0030 1144     		add	r1, r1, r2
ARM GAS  C:\Users\ingan\AppData\Local\Temp\ccpQ09y0.s 			page 12


 361              	.LVL35:
 256:Generated_Source\PSoC5/CySpc.c ****             {
 257:Generated_Source\PSoC5/CySpc.c ****                 CY_SPC_CPU_DATA_REG = buffer[i];
 362              		.loc 1 257 0
 363 0032 0848     		ldr	r0, .L41+4
 364              	.LVL36:
 365              	.L35:
 366              		.loc 1 257 0 is_stmt 0 discriminator 3
 367 0034 13F8012F 		ldrb	r2, [r3, #1]!	@ zero_extendqisi2
 368              	.LVL37:
 369 0038 0270     		strb	r2, [r0]
 370              	.LVL38:
 255:Generated_Source\PSoC5/CySpc.c ****             {
 371              		.loc 1 255 0 is_stmt 1 discriminator 3
 372 003a 8B42     		cmp	r3, r1
 373 003c FAD1     		bne	.L35
 240:Generated_Source\PSoC5/CySpc.c ****     uint16 i;
 374              		.loc 1 240 0
 375 003e 0720     		movs	r0, #7
 376 0040 04E0     		b	.L34
 377              	.LVL39:
 378              	.L36:
 379              		.cfi_def_cfa_offset 0
 380              		.cfi_restore 4
 258:Generated_Source\PSoC5/CySpc.c ****             }
 259:Generated_Source\PSoC5/CySpc.c ****         }
 260:Generated_Source\PSoC5/CySpc.c ****         else
 261:Generated_Source\PSoC5/CySpc.c ****         {
 262:Generated_Source\PSoC5/CySpc.c ****             status = CYRET_CANCELED;
 263:Generated_Source\PSoC5/CySpc.c ****         }
 264:Generated_Source\PSoC5/CySpc.c ****     }
 265:Generated_Source\PSoC5/CySpc.c ****     else
 266:Generated_Source\PSoC5/CySpc.c ****     {
 267:Generated_Source\PSoC5/CySpc.c ****         status = CYRET_LOCKED;
 381              		.loc 1 267 0
 382 0042 0420     		movs	r0, #4
 383              	.LVL40:
 268:Generated_Source\PSoC5/CySpc.c ****     }
 269:Generated_Source\PSoC5/CySpc.c **** 
 270:Generated_Source\PSoC5/CySpc.c ****     return(status);
 271:Generated_Source\PSoC5/CySpc.c **** }
 384              		.loc 1 271 0
 385 0044 7047     		bx	lr
 386              	.LVL41:
 387              	.L37:
 388              		.cfi_def_cfa_offset 4
 389              		.cfi_offset 4, -4
 262:Generated_Source\PSoC5/CySpc.c ****         }
 390              		.loc 1 262 0
 391 0046 0920     		movs	r0, #9
 392              	.LVL42:
 393 0048 00E0     		b	.L34
 394              	.LVL43:
 395              	.L38:
 240:Generated_Source\PSoC5/CySpc.c ****     uint16 i;
 396              		.loc 1 240 0
 397 004a 0720     		movs	r0, #7
ARM GAS  C:\Users\ingan\AppData\Local\Temp\ccpQ09y0.s 			page 13


 398              	.LVL44:
 399              	.L34:
 400              		.loc 1 271 0
 401 004c 10BC     		pop	{r4}
 402              		.cfi_restore 4
 403              		.cfi_def_cfa_offset 0
 404 004e 7047     		bx	lr
 405              	.L42:
 406              		.align	2
 407              	.L41:
 408 0050 22470040 		.word	1073760034
 409 0054 20470040 		.word	1073760032
 410              		.cfi_endproc
 411              	.LFE4:
 412              		.size	CySpcLoadRow, .-CySpcLoadRow
 413              		.section	.text.CySpcLoadRowFull,"ax",%progbits
 414              		.align	2
 415              		.global	CySpcLoadRowFull
 416              		.thumb
 417              		.thumb_func
 418              		.type	CySpcLoadRowFull, %function
 419              	CySpcLoadRowFull:
 420              	.LFB5:
 272:Generated_Source\PSoC5/CySpc.c **** 
 273:Generated_Source\PSoC5/CySpc.c **** 
 274:Generated_Source\PSoC5/CySpc.c **** /*******************************************************************************
 275:Generated_Source\PSoC5/CySpc.c **** * Function Name: CySpcLoadRowFull
 276:Generated_Source\PSoC5/CySpc.c **** ****************************************************************************//**
 277:Generated_Source\PSoC5/CySpc.c **** *  Loads a row of data into the row latch of a Flash/EEPROM array.
 278:Generated_Source\PSoC5/CySpc.c **** *
 279:Generated_Source\PSoC5/CySpc.c **** *  The only data that are going to be changed should be passed. The function
 280:Generated_Source\PSoC5/CySpc.c **** *  will handle unmodified data preservation based on DWR settings and input
 281:Generated_Source\PSoC5/CySpc.c **** *  parameters.
 282:Generated_Source\PSoC5/CySpc.c **** *
 283:Generated_Source\PSoC5/CySpc.c **** *  \param uint8 array:
 284:Generated_Source\PSoC5/CySpc.c **** *   Id of the array.
 285:Generated_Source\PSoC5/CySpc.c **** *
 286:Generated_Source\PSoC5/CySpc.c **** *  \param uint16 row:
 287:Generated_Source\PSoC5/CySpc.c **** *   Flash row number to be loaded.
 288:Generated_Source\PSoC5/CySpc.c **** *
 289:Generated_Source\PSoC5/CySpc.c **** *  \param uint8* buffer:
 290:Generated_Source\PSoC5/CySpc.c **** *   Data to be loaded to the row latch
 291:Generated_Source\PSoC5/CySpc.c **** *
 292:Generated_Source\PSoC5/CySpc.c **** *  \param uint8 size:
 293:Generated_Source\PSoC5/CySpc.c **** *   The number of data bytes that the SPC expects to be written. Depends on the
 294:Generated_Source\PSoC5/CySpc.c **** *   type of the array and, if the array is Flash, whether ECC is being enabled
 295:Generated_Source\PSoC5/CySpc.c **** *   or not. There are following values: flash row latch size with ECC enabled,
 296:Generated_Source\PSoC5/CySpc.c **** *   flash row latch size with ECC disabled and EEPROM row latch size.
 297:Generated_Source\PSoC5/CySpc.c **** *
 298:Generated_Source\PSoC5/CySpc.c **** * \return
 299:Generated_Source\PSoC5/CySpc.c **** *  CYRET_STARTED
 300:Generated_Source\PSoC5/CySpc.c **** *  CYRET_CANCELED
 301:Generated_Source\PSoC5/CySpc.c **** *  CYRET_LOCKED
 302:Generated_Source\PSoC5/CySpc.c **** *
 303:Generated_Source\PSoC5/CySpc.c **** *******************************************************************************/
 304:Generated_Source\PSoC5/CySpc.c **** cystatus CySpcLoadRowFull(uint8 array, uint16 row, const uint8 buffer[], uint16 size)\
 305:Generated_Source\PSoC5/CySpc.c **** 
ARM GAS  C:\Users\ingan\AppData\Local\Temp\ccpQ09y0.s 			page 14


 306:Generated_Source\PSoC5/CySpc.c **** {
 421              		.loc 1 306 0
 422              		.cfi_startproc
 423              		@ args = 0, pretend = 0, frame = 0
 424              		@ frame_needed = 0, uses_anonymous_args = 0
 425              		@ link register save eliminated.
 426              	.LVL45:
 427 0000 70B4     		push	{r4, r5, r6}
 428              		.cfi_def_cfa_offset 12
 429              		.cfi_offset 4, -12
 430              		.cfi_offset 5, -8
 431              		.cfi_offset 6, -4
 432              	.LVL46:
 307:Generated_Source\PSoC5/CySpc.c ****     cystatus status = CYRET_STARTED;
 308:Generated_Source\PSoC5/CySpc.c ****     uint16 i;
 309:Generated_Source\PSoC5/CySpc.c **** 
 310:Generated_Source\PSoC5/CySpc.c ****     #if (CYDEV_ECC_ENABLE == 0)
 311:Generated_Source\PSoC5/CySpc.c ****         uint32 offset;
 312:Generated_Source\PSoC5/CySpc.c ****     #endif /* (CYDEV_ECC_ENABLE == 0) */
 313:Generated_Source\PSoC5/CySpc.c **** 
 314:Generated_Source\PSoC5/CySpc.c ****     /* Make sure the SPC is ready to accept command */
 315:Generated_Source\PSoC5/CySpc.c ****     if(CY_SPC_IDLE)
 433              		.loc 1 315 0
 434 0002 1F4C     		ldr	r4, .L55
 435 0004 2478     		ldrb	r4, [r4]	@ zero_extendqisi2
 436 0006 14F0020F 		tst	r4, #2
 437 000a 2DD0     		beq	.L47
 316:Generated_Source\PSoC5/CySpc.c ****     {
 317:Generated_Source\PSoC5/CySpc.c ****         CY_SPC_CPU_DATA_REG = CY_SPC_KEY_ONE;
 438              		.loc 1 317 0
 439 000c 1D4C     		ldr	r4, .L55+4
 440 000e B625     		movs	r5, #182
 441 0010 2570     		strb	r5, [r4]
 318:Generated_Source\PSoC5/CySpc.c ****         CY_SPC_CPU_DATA_REG = CY_SPC_KEY_TWO(CY_SPC_CMD_LD_ROW);
 442              		.loc 1 318 0
 443 0012 D525     		movs	r5, #213
 444 0014 2570     		strb	r5, [r4]
 319:Generated_Source\PSoC5/CySpc.c ****         CY_SPC_CPU_DATA_REG = CY_SPC_CMD_LD_ROW;
 445              		.loc 1 319 0
 446 0016 0225     		movs	r5, #2
 447 0018 2570     		strb	r5, [r4]
 320:Generated_Source\PSoC5/CySpc.c **** 
 321:Generated_Source\PSoC5/CySpc.c ****         /* Make sure the command was accepted */
 322:Generated_Source\PSoC5/CySpc.c ****         if(CY_SPC_BUSY)
 448              		.loc 1 322 0
 449 001a 0234     		adds	r4, r4, #2
 450 001c 2478     		ldrb	r4, [r4]	@ zero_extendqisi2
 451 001e 14F0020F 		tst	r4, #2
 452 0022 23D1     		bne	.L48
 323:Generated_Source\PSoC5/CySpc.c ****         {
 324:Generated_Source\PSoC5/CySpc.c ****             CY_SPC_CPU_DATA_REG = array;
 453              		.loc 1 324 0
 454 0024 174C     		ldr	r4, .L55+4
 455 0026 2070     		strb	r0, [r4]
 456              	.LVL47:
 325:Generated_Source\PSoC5/CySpc.c **** 
 326:Generated_Source\PSoC5/CySpc.c ****             /*******************************************************************
ARM GAS  C:\Users\ingan\AppData\Local\Temp\ccpQ09y0.s 			page 15


 327:Generated_Source\PSoC5/CySpc.c ****             * If "Enable Error Correcting Code (ECC)" and "Store Configuration
 328:Generated_Source\PSoC5/CySpc.c ****             * Data in ECC" DWR options are disabled, ECC section is available
 329:Generated_Source\PSoC5/CySpc.c ****             * for user data.
 330:Generated_Source\PSoC5/CySpc.c ****             *******************************************************************/
 331:Generated_Source\PSoC5/CySpc.c ****             #if ((CYDEV_ECC_ENABLE == 0u) && (CYDEV_CONFIGURATION_ECC == 0u))
 332:Generated_Source\PSoC5/CySpc.c **** 
 333:Generated_Source\PSoC5/CySpc.c ****                 /*******************************************************************
 334:Generated_Source\PSoC5/CySpc.c ****                 * If size parameter equals size of the ECC row and selected array
 335:Generated_Source\PSoC5/CySpc.c ****                 * identification corresponds to the flash array (but not to EEPROM
 336:Generated_Source\PSoC5/CySpc.c ****                 * array) then data are going to be written to the ECC section.
 337:Generated_Source\PSoC5/CySpc.c ****                 * In this case flash data must be preserved. The flash data copied
 338:Generated_Source\PSoC5/CySpc.c ****                 * from flash data section to the SPC data register.
 339:Generated_Source\PSoC5/CySpc.c ****                 *******************************************************************/
 340:Generated_Source\PSoC5/CySpc.c ****                 if ((size == CYDEV_ECC_ROW_SIZE) && (array <= CY_SPC_LAST_FLASH_ARRAYID))
 341:Generated_Source\PSoC5/CySpc.c ****                 {
 342:Generated_Source\PSoC5/CySpc.c ****                     offset = CYDEV_FLS_BASE +
 343:Generated_Source\PSoC5/CySpc.c ****                              ((uint32) array * CYDEV_FLS_SECTOR_SIZE) +
 344:Generated_Source\PSoC5/CySpc.c ****                              ((uint32)   row * CYDEV_FLS_ROW_SIZE   );
 345:Generated_Source\PSoC5/CySpc.c **** 
 346:Generated_Source\PSoC5/CySpc.c ****                     for (i = 0u; i < CYDEV_FLS_ROW_SIZE; i++)
 347:Generated_Source\PSoC5/CySpc.c ****                     {
 348:Generated_Source\PSoC5/CySpc.c ****                         CY_SPC_CPU_DATA_REG = CY_GET_XTND_REG8((void CYFAR *)(offset + i));
 349:Generated_Source\PSoC5/CySpc.c ****                     }
 350:Generated_Source\PSoC5/CySpc.c ****                 }
 351:Generated_Source\PSoC5/CySpc.c **** 
 352:Generated_Source\PSoC5/CySpc.c ****             #endif /* ((CYDEV_ECC_ENABLE == 0u) && (CYDEV_CONFIGURATION_ECC == 0u)) */
 353:Generated_Source\PSoC5/CySpc.c **** 
 354:Generated_Source\PSoC5/CySpc.c **** 
 355:Generated_Source\PSoC5/CySpc.c ****             for(i = 0u; i < size; i++)
 457              		.loc 1 355 0
 458 0028 13B3     		cbz	r3, .L49
 459 002a 541E     		subs	r4, r2, #1
 460 002c 5D1E     		subs	r5, r3, #1
 461 002e ADB2     		uxth	r5, r5
 462 0030 2A44     		add	r2, r2, r5
 463              	.LVL48:
 356:Generated_Source\PSoC5/CySpc.c ****             {
 357:Generated_Source\PSoC5/CySpc.c ****                 CY_SPC_CPU_DATA_REG = buffer[i];
 464              		.loc 1 357 0
 465 0032 144E     		ldr	r6, .L55+4
 466              	.LVL49:
 467              	.L45:
 468              		.loc 1 357 0 is_stmt 0 discriminator 3
 469 0034 14F8015F 		ldrb	r5, [r4, #1]!	@ zero_extendqisi2
 470              	.LVL50:
 471 0038 3570     		strb	r5, [r6]
 472              	.LVL51:
 355:Generated_Source\PSoC5/CySpc.c ****             {
 473              		.loc 1 355 0 is_stmt 1 discriminator 3
 474 003a 9442     		cmp	r4, r2
 475 003c FAD1     		bne	.L45
 358:Generated_Source\PSoC5/CySpc.c ****             }
 359:Generated_Source\PSoC5/CySpc.c **** 
 360:Generated_Source\PSoC5/CySpc.c **** 
 361:Generated_Source\PSoC5/CySpc.c ****             /*******************************************************************
 362:Generated_Source\PSoC5/CySpc.c ****             * If "Enable Error Correcting Code (ECC)" DWR option is disabled,
 363:Generated_Source\PSoC5/CySpc.c ****             * ECC section can be used for storing device configuration data
ARM GAS  C:\Users\ingan\AppData\Local\Temp\ccpQ09y0.s 			page 16


 364:Generated_Source\PSoC5/CySpc.c ****             * ("Store Configuration Data in ECC" DWR option is enabled) or for
 365:Generated_Source\PSoC5/CySpc.c ****             * storing user data in the ECC section ("Store Configuration Data in
 366:Generated_Source\PSoC5/CySpc.c ****             * ECC" DWR option is enabled). In both cases, the data in the ECC
 367:Generated_Source\PSoC5/CySpc.c ****             * section must be preserved if flash data is written.
 368:Generated_Source\PSoC5/CySpc.c ****             *******************************************************************/
 369:Generated_Source\PSoC5/CySpc.c ****             #if (CYDEV_ECC_ENABLE == 0)
 370:Generated_Source\PSoC5/CySpc.c **** 
 371:Generated_Source\PSoC5/CySpc.c **** 
 372:Generated_Source\PSoC5/CySpc.c ****                 /*******************************************************************
 373:Generated_Source\PSoC5/CySpc.c ****                 * If size parameter equals size of the flash row and selected array
 374:Generated_Source\PSoC5/CySpc.c ****                 * identification corresponds to the flash array (but not to EEPROM
 375:Generated_Source\PSoC5/CySpc.c ****                 * array) then data are going to be written to the flash data
 376:Generated_Source\PSoC5/CySpc.c ****                 * section. In this case, ECC section data must be preserved.
 377:Generated_Source\PSoC5/CySpc.c ****                 * The ECC section data copied from ECC section to the SPC data
 378:Generated_Source\PSoC5/CySpc.c ****                 * register.
 379:Generated_Source\PSoC5/CySpc.c ****                 *******************************************************************/
 380:Generated_Source\PSoC5/CySpc.c ****                 if ((size == CYDEV_FLS_ROW_SIZE) && (array <= CY_SPC_LAST_FLASH_ARRAYID))
 476              		.loc 1 380 0
 477 003e B3F5807F 		cmp	r3, #256
 478 0042 17D1     		bne	.L50
 479              		.loc 1 380 0 is_stmt 0 discriminator 1
 480 0044 3F28     		cmp	r0, #63
 481 0046 17D8     		bhi	.L51
 381:Generated_Source\PSoC5/CySpc.c ****                 {
 382:Generated_Source\PSoC5/CySpc.c ****                     offset = CYDEV_ECC_BASE +
 482              		.loc 1 382 0 is_stmt 1
 483 0048 00F51032 		add	r2, r0, #147456
 484 004c 01EB0222 		add	r2, r1, r2, lsl #8
 485 0050 5201     		lsls	r2, r2, #5
 486              	.LVL52:
 487 0052 02F12000 		add	r0, r2, #32
 488              	.LVL53:
 383:Generated_Source\PSoC5/CySpc.c ****                             ((uint32) array * CYDEV_ECC_SECTOR_SIZE) +
 384:Generated_Source\PSoC5/CySpc.c ****                             ((uint32) row   * CYDEV_ECC_ROW_SIZE   );
 385:Generated_Source\PSoC5/CySpc.c **** 
 386:Generated_Source\PSoC5/CySpc.c ****                     for (i = 0u; i < CYDEV_ECC_ROW_SIZE; i++)
 387:Generated_Source\PSoC5/CySpc.c ****                     {
 388:Generated_Source\PSoC5/CySpc.c ****                         CY_SPC_CPU_DATA_REG = CY_GET_XTND_REG8((void CYFAR *)(offset + i));
 489              		.loc 1 388 0
 490 0056 0B49     		ldr	r1, .L55+4
 491              	.LVL54:
 492              	.L46:
 493              		.loc 1 388 0 is_stmt 0 discriminator 3
 494 0058 12F8013B 		ldrb	r3, [r2], #1	@ zero_extendqisi2
 495              	.LVL55:
 496 005c DBB2     		uxtb	r3, r3
 497 005e 0B70     		strb	r3, [r1]
 498              	.LVL56:
 386:Generated_Source\PSoC5/CySpc.c ****                     {
 499              		.loc 1 386 0 is_stmt 1 discriminator 3
 500 0060 9042     		cmp	r0, r2
 501 0062 F9D1     		bne	.L46
 307:Generated_Source\PSoC5/CySpc.c ****     uint16 i;
 502              		.loc 1 307 0
 503 0064 0720     		movs	r0, #7
 504              	.LVL57:
 505 0066 08E0     		b	.L44
ARM GAS  C:\Users\ingan\AppData\Local\Temp\ccpQ09y0.s 			page 17


 506              	.LVL58:
 507              	.L47:
 389:Generated_Source\PSoC5/CySpc.c ****                     }
 390:Generated_Source\PSoC5/CySpc.c ****                 }
 391:Generated_Source\PSoC5/CySpc.c **** 
 392:Generated_Source\PSoC5/CySpc.c ****             #else
 393:Generated_Source\PSoC5/CySpc.c **** 
 394:Generated_Source\PSoC5/CySpc.c ****                 if(0u != row)
 395:Generated_Source\PSoC5/CySpc.c ****                 {
 396:Generated_Source\PSoC5/CySpc.c ****                     /* To remove unreferenced local variable warning */
 397:Generated_Source\PSoC5/CySpc.c ****                 }
 398:Generated_Source\PSoC5/CySpc.c **** 
 399:Generated_Source\PSoC5/CySpc.c ****             #endif /* (CYDEV_ECC_ENABLE == 0) */
 400:Generated_Source\PSoC5/CySpc.c ****         }
 401:Generated_Source\PSoC5/CySpc.c ****         else
 402:Generated_Source\PSoC5/CySpc.c ****         {
 403:Generated_Source\PSoC5/CySpc.c ****             status = CYRET_CANCELED;
 404:Generated_Source\PSoC5/CySpc.c ****         }
 405:Generated_Source\PSoC5/CySpc.c ****     }
 406:Generated_Source\PSoC5/CySpc.c ****     else
 407:Generated_Source\PSoC5/CySpc.c ****     {
 408:Generated_Source\PSoC5/CySpc.c ****         status = CYRET_LOCKED;
 508              		.loc 1 408 0
 509 0068 0420     		movs	r0, #4
 510              	.LVL59:
 511 006a 06E0     		b	.L44
 512              	.LVL60:
 513              	.L48:
 403:Generated_Source\PSoC5/CySpc.c ****         }
 514              		.loc 1 403 0
 515 006c 0920     		movs	r0, #9
 516              	.LVL61:
 517 006e 04E0     		b	.L44
 518              	.LVL62:
 519              	.L49:
 307:Generated_Source\PSoC5/CySpc.c ****     uint16 i;
 520              		.loc 1 307 0
 521 0070 0720     		movs	r0, #7
 522              	.LVL63:
 523 0072 02E0     		b	.L44
 524              	.LVL64:
 525              	.L50:
 526 0074 0720     		movs	r0, #7
 527              	.LVL65:
 528 0076 00E0     		b	.L44
 529              	.LVL66:
 530              	.L51:
 531 0078 0720     		movs	r0, #7
 532              	.LVL67:
 533              	.L44:
 409:Generated_Source\PSoC5/CySpc.c ****     }
 410:Generated_Source\PSoC5/CySpc.c **** 
 411:Generated_Source\PSoC5/CySpc.c ****     return(status);
 412:Generated_Source\PSoC5/CySpc.c **** }
 534              		.loc 1 412 0
 535 007a 70BC     		pop	{r4, r5, r6}
 536              		.cfi_restore 6
ARM GAS  C:\Users\ingan\AppData\Local\Temp\ccpQ09y0.s 			page 18


 537              		.cfi_restore 5
 538              		.cfi_restore 4
 539              		.cfi_def_cfa_offset 0
 540 007c 7047     		bx	lr
 541              	.L56:
 542 007e 00BF     		.align	2
 543              	.L55:
 544 0080 22470040 		.word	1073760034
 545 0084 20470040 		.word	1073760032
 546              		.cfi_endproc
 547              	.LFE5:
 548              		.size	CySpcLoadRowFull, .-CySpcLoadRowFull
 549              		.section	.text.CySpcWriteRow,"ax",%progbits
 550              		.align	2
 551              		.global	CySpcWriteRow
 552              		.thumb
 553              		.thumb_func
 554              		.type	CySpcWriteRow, %function
 555              	CySpcWriteRow:
 556              	.LFB6:
 413:Generated_Source\PSoC5/CySpc.c **** 
 414:Generated_Source\PSoC5/CySpc.c **** 
 415:Generated_Source\PSoC5/CySpc.c **** /*******************************************************************************
 416:Generated_Source\PSoC5/CySpc.c **** * Function Name: CySpcWriteRow
 417:Generated_Source\PSoC5/CySpc.c **** ****************************************************************************//**
 418:Generated_Source\PSoC5/CySpc.c **** *  Erases then programs a row in Flash/EEPROM with data in row latch.
 419:Generated_Source\PSoC5/CySpc.c **** *
 420:Generated_Source\PSoC5/CySpc.c **** *  \param uint8 array:
 421:Generated_Source\PSoC5/CySpc.c **** *   Id of the array.
 422:Generated_Source\PSoC5/CySpc.c **** *
 423:Generated_Source\PSoC5/CySpc.c **** *  \param uint16 address:
 424:Generated_Source\PSoC5/CySpc.c **** *   flash/eeprom addrress
 425:Generated_Source\PSoC5/CySpc.c **** *
 426:Generated_Source\PSoC5/CySpc.c **** *  \param uint8 tempPolarity:
 427:Generated_Source\PSoC5/CySpc.c **** *   temperature polarity.
 428:Generated_Source\PSoC5/CySpc.c **** *   \param 1: the Temp Magnitude is interpreted as a positive value
 429:Generated_Source\PSoC5/CySpc.c **** *   \param 0: the Temp Magnitude is interpreted as a negative value
 430:Generated_Source\PSoC5/CySpc.c **** *
 431:Generated_Source\PSoC5/CySpc.c **** *  \param uint8 tempMagnitude:
 432:Generated_Source\PSoC5/CySpc.c **** *   temperature magnitude.
 433:Generated_Source\PSoC5/CySpc.c **** *
 434:Generated_Source\PSoC5/CySpc.c **** * \return
 435:Generated_Source\PSoC5/CySpc.c **** *  CYRET_STARTED
 436:Generated_Source\PSoC5/CySpc.c **** *  CYRET_CANCELED
 437:Generated_Source\PSoC5/CySpc.c **** *  CYRET_LOCKED
 438:Generated_Source\PSoC5/CySpc.c **** *
 439:Generated_Source\PSoC5/CySpc.c **** *******************************************************************************/
 440:Generated_Source\PSoC5/CySpc.c **** cystatus CySpcWriteRow(uint8 array, uint16 address, uint8 tempPolarity, uint8 tempMagnitude)\
 441:Generated_Source\PSoC5/CySpc.c **** 
 442:Generated_Source\PSoC5/CySpc.c **** {
 557              		.loc 1 442 0
 558              		.cfi_startproc
 559              		@ args = 0, pretend = 0, frame = 0
 560              		@ frame_needed = 0, uses_anonymous_args = 0
 561              		@ link register save eliminated.
 562              	.LVL68:
 563 0000 30B4     		push	{r4, r5}
ARM GAS  C:\Users\ingan\AppData\Local\Temp\ccpQ09y0.s 			page 19


 564              		.cfi_def_cfa_offset 8
 565              		.cfi_offset 4, -8
 566              		.cfi_offset 5, -4
 567              	.LVL69:
 443:Generated_Source\PSoC5/CySpc.c ****     cystatus status = CYRET_STARTED;
 444:Generated_Source\PSoC5/CySpc.c **** 
 445:Generated_Source\PSoC5/CySpc.c ****     /* Make sure the SPC is ready to accept command */
 446:Generated_Source\PSoC5/CySpc.c ****     if(CY_SPC_IDLE)
 568              		.loc 1 446 0
 569 0002 104C     		ldr	r4, .L62
 570 0004 2478     		ldrb	r4, [r4]	@ zero_extendqisi2
 571 0006 14F0020F 		tst	r4, #2
 572 000a 15D0     		beq	.L59
 447:Generated_Source\PSoC5/CySpc.c ****     {
 448:Generated_Source\PSoC5/CySpc.c ****         CY_SPC_CPU_DATA_REG = CY_SPC_KEY_ONE;
 573              		.loc 1 448 0
 574 000c 0E4C     		ldr	r4, .L62+4
 575 000e B625     		movs	r5, #182
 576 0010 2570     		strb	r5, [r4]
 449:Generated_Source\PSoC5/CySpc.c ****         CY_SPC_CPU_DATA_REG = CY_SPC_KEY_TWO(CY_SPC_CMD_WR_ROW);
 577              		.loc 1 449 0
 578 0012 D825     		movs	r5, #216
 579 0014 2570     		strb	r5, [r4]
 450:Generated_Source\PSoC5/CySpc.c ****         CY_SPC_CPU_DATA_REG = CY_SPC_CMD_WR_ROW;
 580              		.loc 1 450 0
 581 0016 0525     		movs	r5, #5
 582 0018 2570     		strb	r5, [r4]
 451:Generated_Source\PSoC5/CySpc.c **** 
 452:Generated_Source\PSoC5/CySpc.c ****         /* Make sure the command was accepted */
 453:Generated_Source\PSoC5/CySpc.c ****         if(CY_SPC_BUSY)
 583              		.loc 1 453 0
 584 001a 0234     		adds	r4, r4, #2
 585 001c 2478     		ldrb	r4, [r4]	@ zero_extendqisi2
 586 001e 14F0020F 		tst	r4, #2
 587 0022 0BD1     		bne	.L60
 454:Generated_Source\PSoC5/CySpc.c ****         {
 455:Generated_Source\PSoC5/CySpc.c ****             CY_SPC_CPU_DATA_REG = array;
 588              		.loc 1 455 0
 589 0024 084C     		ldr	r4, .L62+4
 590 0026 2070     		strb	r0, [r4]
 456:Generated_Source\PSoC5/CySpc.c ****             CY_SPC_CPU_DATA_REG = HI8(address);
 591              		.loc 1 456 0
 592 0028 080A     		lsrs	r0, r1, #8
 593              	.LVL70:
 594 002a 2070     		strb	r0, [r4]
 595              	.LVL71:
 457:Generated_Source\PSoC5/CySpc.c ****             CY_SPC_CPU_DATA_REG = LO8(address);
 596              		.loc 1 457 0
 597 002c C9B2     		uxtb	r1, r1
 598              	.LVL72:
 599 002e 2170     		strb	r1, [r4]
 458:Generated_Source\PSoC5/CySpc.c ****             CY_SPC_CPU_DATA_REG = tempPolarity;
 600              		.loc 1 458 0
 601 0030 2270     		strb	r2, [r4]
 459:Generated_Source\PSoC5/CySpc.c ****             CY_SPC_CPU_DATA_REG = tempMagnitude;
 602              		.loc 1 459 0
 603 0032 2370     		strb	r3, [r4]
ARM GAS  C:\Users\ingan\AppData\Local\Temp\ccpQ09y0.s 			page 20


 443:Generated_Source\PSoC5/CySpc.c **** 
 604              		.loc 1 443 0
 605 0034 0720     		movs	r0, #7
 606 0036 02E0     		b	.L58
 607              	.LVL73:
 608              	.L59:
 460:Generated_Source\PSoC5/CySpc.c ****         }
 461:Generated_Source\PSoC5/CySpc.c ****         else
 462:Generated_Source\PSoC5/CySpc.c ****         {
 463:Generated_Source\PSoC5/CySpc.c ****             status = CYRET_CANCELED;
 464:Generated_Source\PSoC5/CySpc.c ****         }
 465:Generated_Source\PSoC5/CySpc.c ****     }
 466:Generated_Source\PSoC5/CySpc.c ****     else
 467:Generated_Source\PSoC5/CySpc.c ****     {
 468:Generated_Source\PSoC5/CySpc.c ****         status = CYRET_LOCKED;
 609              		.loc 1 468 0
 610 0038 0420     		movs	r0, #4
 611              	.LVL74:
 612 003a 00E0     		b	.L58
 613              	.LVL75:
 614              	.L60:
 463:Generated_Source\PSoC5/CySpc.c ****         }
 615              		.loc 1 463 0
 616 003c 0920     		movs	r0, #9
 617              	.LVL76:
 618              	.L58:
 469:Generated_Source\PSoC5/CySpc.c ****     }
 470:Generated_Source\PSoC5/CySpc.c **** 
 471:Generated_Source\PSoC5/CySpc.c ****     return(status);
 472:Generated_Source\PSoC5/CySpc.c **** }
 619              		.loc 1 472 0
 620 003e 30BC     		pop	{r4, r5}
 621              		.cfi_restore 5
 622              		.cfi_restore 4
 623              		.cfi_def_cfa_offset 0
 624 0040 7047     		bx	lr
 625              	.L63:
 626 0042 00BF     		.align	2
 627              	.L62:
 628 0044 22470040 		.word	1073760034
 629 0048 20470040 		.word	1073760032
 630              		.cfi_endproc
 631              	.LFE6:
 632              		.size	CySpcWriteRow, .-CySpcWriteRow
 633              		.section	.text.CySpcEraseSector,"ax",%progbits
 634              		.align	2
 635              		.global	CySpcEraseSector
 636              		.thumb
 637              		.thumb_func
 638              		.type	CySpcEraseSector, %function
 639              	CySpcEraseSector:
 640              	.LFB7:
 473:Generated_Source\PSoC5/CySpc.c **** 
 474:Generated_Source\PSoC5/CySpc.c **** 
 475:Generated_Source\PSoC5/CySpc.c **** /*******************************************************************************
 476:Generated_Source\PSoC5/CySpc.c **** * Function Name: CySpcEraseSector
 477:Generated_Source\PSoC5/CySpc.c **** ****************************************************************************//**
ARM GAS  C:\Users\ingan\AppData\Local\Temp\ccpQ09y0.s 			page 21


 478:Generated_Source\PSoC5/CySpc.c **** *  Erases all data in the addressed sector (block of 64 rows).
 479:Generated_Source\PSoC5/CySpc.c **** *
 480:Generated_Source\PSoC5/CySpc.c **** *  \param uint8 array:
 481:Generated_Source\PSoC5/CySpc.c **** *   Id of the array.
 482:Generated_Source\PSoC5/CySpc.c **** *
 483:Generated_Source\PSoC5/CySpc.c **** *  \param uint8 sectorNumber:
 484:Generated_Source\PSoC5/CySpc.c **** *   Zero based sector number within Flash/EEPROM array
 485:Generated_Source\PSoC5/CySpc.c **** *
 486:Generated_Source\PSoC5/CySpc.c **** * \return
 487:Generated_Source\PSoC5/CySpc.c **** *  CYRET_STARTED
 488:Generated_Source\PSoC5/CySpc.c **** *  CYRET_CANCELED
 489:Generated_Source\PSoC5/CySpc.c **** *  CYRET_LOCKED
 490:Generated_Source\PSoC5/CySpc.c **** *
 491:Generated_Source\PSoC5/CySpc.c **** *******************************************************************************/
 492:Generated_Source\PSoC5/CySpc.c **** cystatus CySpcEraseSector(uint8 array, uint8 sectorNumber)
 493:Generated_Source\PSoC5/CySpc.c **** {
 641              		.loc 1 493 0
 642              		.cfi_startproc
 643              		@ args = 0, pretend = 0, frame = 0
 644              		@ frame_needed = 0, uses_anonymous_args = 0
 645              		@ link register save eliminated.
 646              	.LVL77:
 494:Generated_Source\PSoC5/CySpc.c ****     cystatus status = CYRET_STARTED;
 495:Generated_Source\PSoC5/CySpc.c **** 
 496:Generated_Source\PSoC5/CySpc.c ****     /* Make sure the SPC is ready to accept command */
 497:Generated_Source\PSoC5/CySpc.c ****     if(CY_SPC_IDLE)
 647              		.loc 1 497 0
 648 0000 0C4B     		ldr	r3, .L68
 649 0002 1B78     		ldrb	r3, [r3]	@ zero_extendqisi2
 650 0004 13F0020F 		tst	r3, #2
 651 0008 10D0     		beq	.L66
 498:Generated_Source\PSoC5/CySpc.c ****     {
 499:Generated_Source\PSoC5/CySpc.c ****         CY_SPC_CPU_DATA_REG = CY_SPC_KEY_ONE;
 652              		.loc 1 499 0
 653 000a 0B4B     		ldr	r3, .L68+4
 654 000c B622     		movs	r2, #182
 655 000e 1A70     		strb	r2, [r3]
 500:Generated_Source\PSoC5/CySpc.c ****         CY_SPC_CPU_DATA_REG = CY_SPC_KEY_TWO(CY_SPC_CMD_ER_SECTOR);
 656              		.loc 1 500 0
 657 0010 DB22     		movs	r2, #219
 658 0012 1A70     		strb	r2, [r3]
 501:Generated_Source\PSoC5/CySpc.c ****         CY_SPC_CPU_DATA_REG = CY_SPC_CMD_ER_SECTOR;
 659              		.loc 1 501 0
 660 0014 0822     		movs	r2, #8
 661 0016 1A70     		strb	r2, [r3]
 502:Generated_Source\PSoC5/CySpc.c **** 
 503:Generated_Source\PSoC5/CySpc.c ****         /* Make sure the command was accepted */
 504:Generated_Source\PSoC5/CySpc.c ****         if(CY_SPC_BUSY)
 662              		.loc 1 504 0
 663 0018 0233     		adds	r3, r3, #2
 664 001a 1B78     		ldrb	r3, [r3]	@ zero_extendqisi2
 665 001c 13F0020F 		tst	r3, #2
 666 0020 06D1     		bne	.L67
 505:Generated_Source\PSoC5/CySpc.c ****         {
 506:Generated_Source\PSoC5/CySpc.c ****             CY_SPC_CPU_DATA_REG = array;
 667              		.loc 1 506 0
 668 0022 054B     		ldr	r3, .L68+4
ARM GAS  C:\Users\ingan\AppData\Local\Temp\ccpQ09y0.s 			page 22


 669 0024 1870     		strb	r0, [r3]
 507:Generated_Source\PSoC5/CySpc.c ****             CY_SPC_CPU_DATA_REG = sectorNumber;
 670              		.loc 1 507 0
 671 0026 1970     		strb	r1, [r3]
 494:Generated_Source\PSoC5/CySpc.c **** 
 672              		.loc 1 494 0
 673 0028 0720     		movs	r0, #7
 674              	.LVL78:
 675 002a 7047     		bx	lr
 676              	.LVL79:
 677              	.L66:
 508:Generated_Source\PSoC5/CySpc.c ****         }
 509:Generated_Source\PSoC5/CySpc.c ****         else
 510:Generated_Source\PSoC5/CySpc.c ****         {
 511:Generated_Source\PSoC5/CySpc.c ****             status = CYRET_CANCELED;
 512:Generated_Source\PSoC5/CySpc.c ****         }
 513:Generated_Source\PSoC5/CySpc.c ****     }
 514:Generated_Source\PSoC5/CySpc.c ****     else
 515:Generated_Source\PSoC5/CySpc.c ****     {
 516:Generated_Source\PSoC5/CySpc.c ****         status = CYRET_LOCKED;
 678              		.loc 1 516 0
 679 002c 0420     		movs	r0, #4
 680              	.LVL80:
 681 002e 7047     		bx	lr
 682              	.LVL81:
 683              	.L67:
 511:Generated_Source\PSoC5/CySpc.c ****         }
 684              		.loc 1 511 0
 685 0030 0920     		movs	r0, #9
 686              	.LVL82:
 517:Generated_Source\PSoC5/CySpc.c ****     }
 518:Generated_Source\PSoC5/CySpc.c **** 
 519:Generated_Source\PSoC5/CySpc.c ****     return(status);
 520:Generated_Source\PSoC5/CySpc.c **** }
 687              		.loc 1 520 0
 688 0032 7047     		bx	lr
 689              	.L69:
 690              		.align	2
 691              	.L68:
 692 0034 22470040 		.word	1073760034
 693 0038 20470040 		.word	1073760032
 694              		.cfi_endproc
 695              	.LFE7:
 696              		.size	CySpcEraseSector, .-CySpcEraseSector
 697              		.section	.text.CySpcEraseRow,"ax",%progbits
 698              		.align	2
 699              		.global	CySpcEraseRow
 700              		.thumb
 701              		.thumb_func
 702              		.type	CySpcEraseRow, %function
 703              	CySpcEraseRow:
 704              	.LFB8:
 521:Generated_Source\PSoC5/CySpc.c **** 
 522:Generated_Source\PSoC5/CySpc.c **** 
 523:Generated_Source\PSoC5/CySpc.c **** /*******************************************************************************
 524:Generated_Source\PSoC5/CySpc.c **** * Function Name: CySpcEraseRow
 525:Generated_Source\PSoC5/CySpc.c **** ****************************************************************************//**
ARM GAS  C:\Users\ingan\AppData\Local\Temp\ccpQ09y0.s 			page 23


 526:Generated_Source\PSoC5/CySpc.c **** *  Erases a row in Flash.
 527:Generated_Source\PSoC5/CySpc.c **** *
 528:Generated_Source\PSoC5/CySpc.c **** *  \param uint8 array:
 529:Generated_Source\PSoC5/CySpc.c **** *   Id of the array.
 530:Generated_Source\PSoC5/CySpc.c **** *
 531:Generated_Source\PSoC5/CySpc.c **** *  \param uint16 address:
 532:Generated_Source\PSoC5/CySpc.c **** *   Flash address
 533:Generated_Source\PSoC5/CySpc.c **** *
 534:Generated_Source\PSoC5/CySpc.c **** *  \param uint8 tempPolarity:
 535:Generated_Source\PSoC5/CySpc.c **** *   temperature polarity.
 536:Generated_Source\PSoC5/CySpc.c **** *   \param 1: the Temp Magnitude is interpreted as a positive value
 537:Generated_Source\PSoC5/CySpc.c **** *   \param 0: the Temp Magnitude is interpreted as a negative value
 538:Generated_Source\PSoC5/CySpc.c **** *
 539:Generated_Source\PSoC5/CySpc.c **** *  \param uint8 tempMagnitude:
 540:Generated_Source\PSoC5/CySpc.c **** *   temperature magnitude.
 541:Generated_Source\PSoC5/CySpc.c **** *
 542:Generated_Source\PSoC5/CySpc.c **** * \return
 543:Generated_Source\PSoC5/CySpc.c **** *  CYRET_STARTED
 544:Generated_Source\PSoC5/CySpc.c **** *  CYRET_CANCELED
 545:Generated_Source\PSoC5/CySpc.c **** *  CYRET_LOCKED
 546:Generated_Source\PSoC5/CySpc.c **** *
 547:Generated_Source\PSoC5/CySpc.c **** *******************************************************************************/
 548:Generated_Source\PSoC5/CySpc.c **** cystatus CySpcEraseRow(uint8 array, uint16 address, uint8 tempPolarity, uint8 tempMagnitude)\
 549:Generated_Source\PSoC5/CySpc.c **** 
 550:Generated_Source\PSoC5/CySpc.c **** {
 705              		.loc 1 550 0
 706              		.cfi_startproc
 707              		@ args = 0, pretend = 0, frame = 0
 708              		@ frame_needed = 0, uses_anonymous_args = 0
 709              		@ link register save eliminated.
 710              	.LVL83:
 711 0000 30B4     		push	{r4, r5}
 712              		.cfi_def_cfa_offset 8
 713              		.cfi_offset 4, -8
 714              		.cfi_offset 5, -4
 715              	.LVL84:
 551:Generated_Source\PSoC5/CySpc.c ****     cystatus status = CYRET_STARTED;
 552:Generated_Source\PSoC5/CySpc.c **** 
 553:Generated_Source\PSoC5/CySpc.c ****     /* Make sure the SPC is ready to accept command */
 554:Generated_Source\PSoC5/CySpc.c ****     if(CY_SPC_IDLE)
 716              		.loc 1 554 0
 717 0002 104C     		ldr	r4, .L75
 718 0004 2478     		ldrb	r4, [r4]	@ zero_extendqisi2
 719 0006 14F0020F 		tst	r4, #2
 720 000a 15D0     		beq	.L72
 555:Generated_Source\PSoC5/CySpc.c ****     {
 556:Generated_Source\PSoC5/CySpc.c ****         CY_SPC_CPU_DATA_REG = CY_SPC_KEY_ONE;
 721              		.loc 1 556 0
 722 000c 0E4C     		ldr	r4, .L75+4
 723 000e B625     		movs	r5, #182
 724 0010 2570     		strb	r5, [r4]
 557:Generated_Source\PSoC5/CySpc.c ****         CY_SPC_CPU_DATA_REG = CY_SPC_KEY_TWO(CY_SPC_CMD_ER_ROW);
 725              		.loc 1 557 0
 726 0012 E625     		movs	r5, #230
 727 0014 2570     		strb	r5, [r4]
 558:Generated_Source\PSoC5/CySpc.c ****         CY_SPC_CPU_DATA_REG = CY_SPC_CMD_ER_ROW;
 728              		.loc 1 558 0
ARM GAS  C:\Users\ingan\AppData\Local\Temp\ccpQ09y0.s 			page 24


 729 0016 1325     		movs	r5, #19
 730 0018 2570     		strb	r5, [r4]
 559:Generated_Source\PSoC5/CySpc.c **** 
 560:Generated_Source\PSoC5/CySpc.c ****         /* Make sure the command was accepted */
 561:Generated_Source\PSoC5/CySpc.c ****         if(CY_SPC_BUSY)
 731              		.loc 1 561 0
 732 001a 0234     		adds	r4, r4, #2
 733 001c 2478     		ldrb	r4, [r4]	@ zero_extendqisi2
 734 001e 14F0020F 		tst	r4, #2
 735 0022 0BD1     		bne	.L73
 562:Generated_Source\PSoC5/CySpc.c ****         {
 563:Generated_Source\PSoC5/CySpc.c ****             CY_SPC_CPU_DATA_REG = array;
 736              		.loc 1 563 0
 737 0024 084C     		ldr	r4, .L75+4
 738 0026 2070     		strb	r0, [r4]
 564:Generated_Source\PSoC5/CySpc.c ****             CY_SPC_CPU_DATA_REG = HI8(address);
 739              		.loc 1 564 0
 740 0028 080A     		lsrs	r0, r1, #8
 741              	.LVL85:
 742 002a 2070     		strb	r0, [r4]
 743              	.LVL86:
 565:Generated_Source\PSoC5/CySpc.c ****             CY_SPC_CPU_DATA_REG = LO8(address);
 744              		.loc 1 565 0
 745 002c C9B2     		uxtb	r1, r1
 746              	.LVL87:
 747 002e 2170     		strb	r1, [r4]
 566:Generated_Source\PSoC5/CySpc.c ****             CY_SPC_CPU_DATA_REG = tempPolarity;
 748              		.loc 1 566 0
 749 0030 2270     		strb	r2, [r4]
 567:Generated_Source\PSoC5/CySpc.c ****             CY_SPC_CPU_DATA_REG = tempMagnitude;
 750              		.loc 1 567 0
 751 0032 2370     		strb	r3, [r4]
 551:Generated_Source\PSoC5/CySpc.c **** 
 752              		.loc 1 551 0
 753 0034 0720     		movs	r0, #7
 754 0036 02E0     		b	.L71
 755              	.LVL88:
 756              	.L72:
 568:Generated_Source\PSoC5/CySpc.c ****         }
 569:Generated_Source\PSoC5/CySpc.c ****         else
 570:Generated_Source\PSoC5/CySpc.c ****         {
 571:Generated_Source\PSoC5/CySpc.c ****             status = CYRET_CANCELED;
 572:Generated_Source\PSoC5/CySpc.c ****         }
 573:Generated_Source\PSoC5/CySpc.c ****     }
 574:Generated_Source\PSoC5/CySpc.c ****     else
 575:Generated_Source\PSoC5/CySpc.c ****     {
 576:Generated_Source\PSoC5/CySpc.c ****         status = CYRET_LOCKED;
 757              		.loc 1 576 0
 758 0038 0420     		movs	r0, #4
 759              	.LVL89:
 760 003a 00E0     		b	.L71
 761              	.LVL90:
 762              	.L73:
 571:Generated_Source\PSoC5/CySpc.c ****         }
 763              		.loc 1 571 0
 764 003c 0920     		movs	r0, #9
 765              	.LVL91:
ARM GAS  C:\Users\ingan\AppData\Local\Temp\ccpQ09y0.s 			page 25


 766              	.L71:
 577:Generated_Source\PSoC5/CySpc.c ****     }
 578:Generated_Source\PSoC5/CySpc.c **** 
 579:Generated_Source\PSoC5/CySpc.c ****     return(status);
 580:Generated_Source\PSoC5/CySpc.c **** }
 767              		.loc 1 580 0
 768 003e 30BC     		pop	{r4, r5}
 769              		.cfi_restore 5
 770              		.cfi_restore 4
 771              		.cfi_def_cfa_offset 0
 772 0040 7047     		bx	lr
 773              	.L76:
 774 0042 00BF     		.align	2
 775              	.L75:
 776 0044 22470040 		.word	1073760034
 777 0048 20470040 		.word	1073760032
 778              		.cfi_endproc
 779              	.LFE8:
 780              		.size	CySpcEraseRow, .-CySpcEraseRow
 781              		.section	.text.CySpcGetTemp,"ax",%progbits
 782              		.align	2
 783              		.global	CySpcGetTemp
 784              		.thumb
 785              		.thumb_func
 786              		.type	CySpcGetTemp, %function
 787              	CySpcGetTemp:
 788              	.LFB9:
 581:Generated_Source\PSoC5/CySpc.c **** 
 582:Generated_Source\PSoC5/CySpc.c **** 
 583:Generated_Source\PSoC5/CySpc.c **** /*******************************************************************************
 584:Generated_Source\PSoC5/CySpc.c **** * Function Name: CySpcGetTemp
 585:Generated_Source\PSoC5/CySpc.c **** ****************************************************************************//**
 586:Generated_Source\PSoC5/CySpc.c **** *  Returns the internal die temperature
 587:Generated_Source\PSoC5/CySpc.c **** *
 588:Generated_Source\PSoC5/CySpc.c **** *  \param uint8 numSamples:
 589:Generated_Source\PSoC5/CySpc.c **** *   Number of samples. Valid values are 1-5, resulting in 2 - 32 samples
 590:Generated_Source\PSoC5/CySpc.c **** *   respectively.
 591:Generated_Source\PSoC5/CySpc.c **** *
 592:Generated_Source\PSoC5/CySpc.c **** * \param uint16 timerPeriod:
 593:Generated_Source\PSoC5/CySpc.c **** *   Number of ADC ACLK cycles. A valid 14 bit value is accepted, higher 2 bits
 594:Generated_Source\PSoC5/CySpc.c **** *   of 16 bit values are ignored.
 595:Generated_Source\PSoC5/CySpc.c **** *
 596:Generated_Source\PSoC5/CySpc.c **** * \param uint8 clkDivSelect:
 597:Generated_Source\PSoC5/CySpc.c **** *   ADC ACLK clock divide value. Valid values are 2 - 225.
 598:Generated_Source\PSoC5/CySpc.c **** *
 599:Generated_Source\PSoC5/CySpc.c **** * \return
 600:Generated_Source\PSoC5/CySpc.c **** *  CYRET_STARTED
 601:Generated_Source\PSoC5/CySpc.c **** *  CYRET_CANCELED
 602:Generated_Source\PSoC5/CySpc.c **** *  CYRET_LOCKED
 603:Generated_Source\PSoC5/CySpc.c **** *
 604:Generated_Source\PSoC5/CySpc.c **** *******************************************************************************/
 605:Generated_Source\PSoC5/CySpc.c **** cystatus CySpcGetTemp(uint8 numSamples)
 606:Generated_Source\PSoC5/CySpc.c **** {
 789              		.loc 1 606 0
 790              		.cfi_startproc
 791              		@ args = 0, pretend = 0, frame = 0
 792              		@ frame_needed = 0, uses_anonymous_args = 0
ARM GAS  C:\Users\ingan\AppData\Local\Temp\ccpQ09y0.s 			page 26


 793              		@ link register save eliminated.
 794              	.LVL92:
 607:Generated_Source\PSoC5/CySpc.c ****     cystatus status = CYRET_STARTED;
 608:Generated_Source\PSoC5/CySpc.c **** 
 609:Generated_Source\PSoC5/CySpc.c ****     /* Make sure the SPC is ready to accept command */
 610:Generated_Source\PSoC5/CySpc.c ****     if(CY_SPC_IDLE)
 795              		.loc 1 610 0
 796 0000 0C4B     		ldr	r3, .L81
 797 0002 1B78     		ldrb	r3, [r3]	@ zero_extendqisi2
 798 0004 13F0020F 		tst	r3, #2
 799 0008 0FD0     		beq	.L79
 611:Generated_Source\PSoC5/CySpc.c ****     {
 612:Generated_Source\PSoC5/CySpc.c ****         CY_SPC_CPU_DATA_REG = CY_SPC_KEY_ONE;
 800              		.loc 1 612 0
 801 000a 0B4B     		ldr	r3, .L81+4
 802 000c B622     		movs	r2, #182
 803 000e 1A70     		strb	r2, [r3]
 613:Generated_Source\PSoC5/CySpc.c ****         CY_SPC_CPU_DATA_REG = CY_SPC_KEY_TWO(CY_SPC_CMD_GET_TEMP);
 804              		.loc 1 613 0
 805 0010 E122     		movs	r2, #225
 806 0012 1A70     		strb	r2, [r3]
 614:Generated_Source\PSoC5/CySpc.c ****         CY_SPC_CPU_DATA_REG = CY_SPC_CMD_GET_TEMP;
 807              		.loc 1 614 0
 808 0014 0E22     		movs	r2, #14
 809 0016 1A70     		strb	r2, [r3]
 615:Generated_Source\PSoC5/CySpc.c **** 
 616:Generated_Source\PSoC5/CySpc.c ****         /* Make sure the command was accepted */
 617:Generated_Source\PSoC5/CySpc.c ****         if(CY_SPC_BUSY)
 810              		.loc 1 617 0
 811 0018 0233     		adds	r3, r3, #2
 812 001a 1B78     		ldrb	r3, [r3]	@ zero_extendqisi2
 813 001c 13F0020F 		tst	r3, #2
 814 0020 05D1     		bne	.L80
 618:Generated_Source\PSoC5/CySpc.c ****         {
 619:Generated_Source\PSoC5/CySpc.c ****             CY_SPC_CPU_DATA_REG = numSamples;
 815              		.loc 1 619 0
 816 0022 054B     		ldr	r3, .L81+4
 817 0024 1870     		strb	r0, [r3]
 607:Generated_Source\PSoC5/CySpc.c **** 
 818              		.loc 1 607 0
 819 0026 0720     		movs	r0, #7
 820              	.LVL93:
 821 0028 7047     		bx	lr
 822              	.LVL94:
 823              	.L79:
 620:Generated_Source\PSoC5/CySpc.c ****         }
 621:Generated_Source\PSoC5/CySpc.c ****         else
 622:Generated_Source\PSoC5/CySpc.c ****         {
 623:Generated_Source\PSoC5/CySpc.c ****             status = CYRET_CANCELED;
 624:Generated_Source\PSoC5/CySpc.c ****         }
 625:Generated_Source\PSoC5/CySpc.c ****     }
 626:Generated_Source\PSoC5/CySpc.c ****     else
 627:Generated_Source\PSoC5/CySpc.c ****     {
 628:Generated_Source\PSoC5/CySpc.c ****         status = CYRET_LOCKED;
 824              		.loc 1 628 0
 825 002a 0420     		movs	r0, #4
 826              	.LVL95:
ARM GAS  C:\Users\ingan\AppData\Local\Temp\ccpQ09y0.s 			page 27


 827 002c 7047     		bx	lr
 828              	.LVL96:
 829              	.L80:
 623:Generated_Source\PSoC5/CySpc.c ****         }
 830              		.loc 1 623 0
 831 002e 0920     		movs	r0, #9
 832              	.LVL97:
 629:Generated_Source\PSoC5/CySpc.c ****     }
 630:Generated_Source\PSoC5/CySpc.c **** 
 631:Generated_Source\PSoC5/CySpc.c ****     return(status);
 632:Generated_Source\PSoC5/CySpc.c **** }
 833              		.loc 1 632 0
 834 0030 7047     		bx	lr
 835              	.L82:
 836 0032 00BF     		.align	2
 837              	.L81:
 838 0034 22470040 		.word	1073760034
 839 0038 20470040 		.word	1073760032
 840              		.cfi_endproc
 841              	.LFE9:
 842              		.size	CySpcGetTemp, .-CySpcGetTemp
 843              		.section	.text.CySpcLock,"ax",%progbits
 844              		.align	2
 845              		.global	CySpcLock
 846              		.thumb
 847              		.thumb_func
 848              		.type	CySpcLock, %function
 849              	CySpcLock:
 850              	.LFB10:
 633:Generated_Source\PSoC5/CySpc.c **** 
 634:Generated_Source\PSoC5/CySpc.c **** 
 635:Generated_Source\PSoC5/CySpc.c **** /*******************************************************************************
 636:Generated_Source\PSoC5/CySpc.c **** * Function Name: CySpcLock
 637:Generated_Source\PSoC5/CySpc.c **** ****************************************************************************//**
 638:Generated_Source\PSoC5/CySpc.c **** *  Locks the SPC so it can not be used by someone else:
 639:Generated_Source\PSoC5/CySpc.c **** *   - Saves wait-pipeline enable state and enable pipeline (PSoC5)
 640:Generated_Source\PSoC5/CySpc.c **** *
 641:Generated_Source\PSoC5/CySpc.c **** * \return
 642:Generated_Source\PSoC5/CySpc.c **** *  CYRET_SUCCESS - if the resource was free.
 643:Generated_Source\PSoC5/CySpc.c **** *  CYRET_LOCKED  - if the SPC is in use.
 644:Generated_Source\PSoC5/CySpc.c **** *
 645:Generated_Source\PSoC5/CySpc.c **** *******************************************************************************/
 646:Generated_Source\PSoC5/CySpc.c **** cystatus CySpcLock(void)
 647:Generated_Source\PSoC5/CySpc.c **** {
 851              		.loc 1 647 0
 852              		.cfi_startproc
 853              		@ args = 0, pretend = 0, frame = 0
 854              		@ frame_needed = 0, uses_anonymous_args = 0
 855 0000 10B5     		push	{r4, lr}
 856              		.cfi_def_cfa_offset 8
 857              		.cfi_offset 4, -8
 858              		.cfi_offset 14, -4
 859              	.LVL98:
 648:Generated_Source\PSoC5/CySpc.c ****     cystatus status = CYRET_LOCKED;
 649:Generated_Source\PSoC5/CySpc.c ****     uint8 interruptState;
 650:Generated_Source\PSoC5/CySpc.c **** 
 651:Generated_Source\PSoC5/CySpc.c ****     /* Enter critical section */
ARM GAS  C:\Users\ingan\AppData\Local\Temp\ccpQ09y0.s 			page 28


 652:Generated_Source\PSoC5/CySpc.c ****     interruptState = CyEnterCriticalSection();
 860              		.loc 1 652 0
 861 0002 FFF7FEFF 		bl	CyEnterCriticalSection
 862              	.LVL99:
 653:Generated_Source\PSoC5/CySpc.c **** 
 654:Generated_Source\PSoC5/CySpc.c ****     if(CY_SPC_UNLOCKED == SpcLockState)
 863              		.loc 1 654 0
 864 0006 0F4B     		ldr	r3, .L88
 865 0008 1B78     		ldrb	r3, [r3]	@ zero_extendqisi2
 866 000a A3B9     		cbnz	r3, .L85
 655:Generated_Source\PSoC5/CySpc.c ****     {
 656:Generated_Source\PSoC5/CySpc.c ****         SpcLockState = CY_SPC_LOCKED;
 867              		.loc 1 656 0
 868 000c 0122     		movs	r2, #1
 869 000e 0D4B     		ldr	r3, .L88
 870 0010 1A70     		strb	r2, [r3]
 871              	.LVL100:
 657:Generated_Source\PSoC5/CySpc.c ****         status = CYRET_SUCCESS;
 658:Generated_Source\PSoC5/CySpc.c **** 
 659:Generated_Source\PSoC5/CySpc.c ****         #if(CY_PSOC5)
 660:Generated_Source\PSoC5/CySpc.c **** 
 661:Generated_Source\PSoC5/CySpc.c ****             if(0u != (CY_SPC_CPU_WAITPIPE_REG & CY_SPC_CPU_WAITPIPE_BYPASS))
 872              		.loc 1 661 0
 873 0012 0D4B     		ldr	r3, .L88+4
 874 0014 1B68     		ldr	r3, [r3]
 875 0016 13F0010F 		tst	r3, #1
 876 001a 0ED0     		beq	.L86
 662:Generated_Source\PSoC5/CySpc.c ****             {
 663:Generated_Source\PSoC5/CySpc.c ****                 /* Enable pipeline registers */
 664:Generated_Source\PSoC5/CySpc.c ****                 CY_SPC_CPU_WAITPIPE_REG &= ((uint32)(~CY_SPC_CPU_WAITPIPE_BYPASS));
 877              		.loc 1 664 0
 878 001c 0A4A     		ldr	r2, .L88+4
 879 001e 1368     		ldr	r3, [r2]
 880 0020 23F00103 		bic	r3, r3, #1
 881 0024 1360     		str	r3, [r2]
 665:Generated_Source\PSoC5/CySpc.c **** 
 666:Generated_Source\PSoC5/CySpc.c ****                 /* At least 2 NOP instructions are recommended */
 667:Generated_Source\PSoC5/CySpc.c ****                 CY_NOP;
 882              		.loc 1 667 0
 883              		.syntax unified
 884              	@ 667 "Generated_Source\PSoC5\CySpc.c" 1
 885 0026 00BF     		NOP
 886              	
 887              	@ 0 "" 2
 668:Generated_Source\PSoC5/CySpc.c ****                 CY_NOP;
 888              		.loc 1 668 0
 889              	@ 668 "Generated_Source\PSoC5\CySpc.c" 1
 890 0028 00BF     		NOP
 891              	
 892              	@ 0 "" 2
 669:Generated_Source\PSoC5/CySpc.c ****                 CY_NOP;
 893              		.loc 1 669 0
 894              	@ 669 "Generated_Source\PSoC5\CySpc.c" 1
 895 002a 00BF     		NOP
 896              	
 897              	@ 0 "" 2
 670:Generated_Source\PSoC5/CySpc.c **** 
ARM GAS  C:\Users\ingan\AppData\Local\Temp\ccpQ09y0.s 			page 29


 671:Generated_Source\PSoC5/CySpc.c ****                 spcWaitPipeBypass = CY_SPC_CPU_WAITPIPE_BYPASS;
 898              		.loc 1 671 0
 899              		.thumb
 900              		.syntax unified
 901 002c 0122     		movs	r2, #1
 902 002e 054B     		ldr	r3, .L88
 903 0030 5A60     		str	r2, [r3, #4]
 657:Generated_Source\PSoC5/CySpc.c **** 
 904              		.loc 1 657 0
 905 0032 0024     		movs	r4, #0
 906 0034 02E0     		b	.L84
 907              	.LVL101:
 908              	.L85:
 648:Generated_Source\PSoC5/CySpc.c ****     uint8 interruptState;
 909              		.loc 1 648 0
 910 0036 0424     		movs	r4, #4
 911 0038 00E0     		b	.L84
 912              	.LVL102:
 913              	.L86:
 657:Generated_Source\PSoC5/CySpc.c **** 
 914              		.loc 1 657 0
 915 003a 0024     		movs	r4, #0
 916              	.LVL103:
 917              	.L84:
 672:Generated_Source\PSoC5/CySpc.c ****             }
 673:Generated_Source\PSoC5/CySpc.c **** 
 674:Generated_Source\PSoC5/CySpc.c ****         #endif  /* (CY_PSOC5) */
 675:Generated_Source\PSoC5/CySpc.c ****     }
 676:Generated_Source\PSoC5/CySpc.c **** 
 677:Generated_Source\PSoC5/CySpc.c ****     /* Exit critical section */
 678:Generated_Source\PSoC5/CySpc.c ****     CyExitCriticalSection(interruptState);
 918              		.loc 1 678 0
 919 003c FFF7FEFF 		bl	CyExitCriticalSection
 920              	.LVL104:
 679:Generated_Source\PSoC5/CySpc.c **** 
 680:Generated_Source\PSoC5/CySpc.c ****     return(status);
 681:Generated_Source\PSoC5/CySpc.c **** }
 921              		.loc 1 681 0
 922 0040 2046     		mov	r0, r4
 923 0042 10BD     		pop	{r4, pc}
 924              	.LVL105:
 925              	.L89:
 926              		.align	2
 927              	.L88:
 928 0044 00000000 		.word	.LANCHOR0
 929 0048 04000840 		.word	1074266116
 930              		.cfi_endproc
 931              	.LFE10:
 932              		.size	CySpcLock, .-CySpcLock
 933              		.section	.text.CySpcUnlock,"ax",%progbits
 934              		.align	2
 935              		.global	CySpcUnlock
 936              		.thumb
 937              		.thumb_func
 938              		.type	CySpcUnlock, %function
 939              	CySpcUnlock:
 940              	.LFB11:
ARM GAS  C:\Users\ingan\AppData\Local\Temp\ccpQ09y0.s 			page 30


 682:Generated_Source\PSoC5/CySpc.c **** 
 683:Generated_Source\PSoC5/CySpc.c **** 
 684:Generated_Source\PSoC5/CySpc.c **** /*******************************************************************************
 685:Generated_Source\PSoC5/CySpc.c **** * Function Name: CySpcUnlock
 686:Generated_Source\PSoC5/CySpc.c **** ****************************************************************************//**
 687:Generated_Source\PSoC5/CySpc.c **** *  Unlocks the SPC so it can be used by someone else:
 688:Generated_Source\PSoC5/CySpc.c **** *   - Restores wait-pipeline enable state (PSoC5)
 689:Generated_Source\PSoC5/CySpc.c **** *
 690:Generated_Source\PSoC5/CySpc.c **** *******************************************************************************/
 691:Generated_Source\PSoC5/CySpc.c **** void CySpcUnlock(void)
 692:Generated_Source\PSoC5/CySpc.c **** {
 941              		.loc 1 692 0
 942              		.cfi_startproc
 943              		@ args = 0, pretend = 0, frame = 0
 944              		@ frame_needed = 0, uses_anonymous_args = 0
 945 0000 08B5     		push	{r3, lr}
 946              		.cfi_def_cfa_offset 8
 947              		.cfi_offset 3, -8
 948              		.cfi_offset 14, -4
 693:Generated_Source\PSoC5/CySpc.c ****     uint8 interruptState;
 694:Generated_Source\PSoC5/CySpc.c **** 
 695:Generated_Source\PSoC5/CySpc.c ****     /* Enter critical section */
 696:Generated_Source\PSoC5/CySpc.c ****     interruptState = CyEnterCriticalSection();
 949              		.loc 1 696 0
 950 0002 FFF7FEFF 		bl	CyEnterCriticalSection
 951              	.LVL106:
 697:Generated_Source\PSoC5/CySpc.c **** 
 698:Generated_Source\PSoC5/CySpc.c ****     /* Release the SPC object */
 699:Generated_Source\PSoC5/CySpc.c ****     SpcLockState = CY_SPC_UNLOCKED;
 952              		.loc 1 699 0
 953 0006 0A4B     		ldr	r3, .L93
 954 0008 0022     		movs	r2, #0
 955 000a 1A70     		strb	r2, [r3]
 700:Generated_Source\PSoC5/CySpc.c **** 
 701:Generated_Source\PSoC5/CySpc.c ****     #if(CY_PSOC5)
 702:Generated_Source\PSoC5/CySpc.c **** 
 703:Generated_Source\PSoC5/CySpc.c ****         if(CY_SPC_CPU_WAITPIPE_BYPASS == spcWaitPipeBypass)
 956              		.loc 1 703 0
 957 000c 5B68     		ldr	r3, [r3, #4]
 958 000e 012B     		cmp	r3, #1
 959 0010 0AD1     		bne	.L91
 704:Generated_Source\PSoC5/CySpc.c ****         {
 705:Generated_Source\PSoC5/CySpc.c ****             /* Force to bypass pipeline registers */
 706:Generated_Source\PSoC5/CySpc.c ****             CY_SPC_CPU_WAITPIPE_REG |= CY_SPC_CPU_WAITPIPE_BYPASS;
 960              		.loc 1 706 0
 961 0012 084A     		ldr	r2, .L93+4
 962 0014 1368     		ldr	r3, [r2]
 963 0016 43F00103 		orr	r3, r3, #1
 964 001a 1360     		str	r3, [r2]
 707:Generated_Source\PSoC5/CySpc.c **** 
 708:Generated_Source\PSoC5/CySpc.c ****             /* At least 2 NOP instructions are recommended */
 709:Generated_Source\PSoC5/CySpc.c ****             CY_NOP;
 965              		.loc 1 709 0
 966              		.syntax unified
 967              	@ 709 "Generated_Source\PSoC5\CySpc.c" 1
 968 001c 00BF     		NOP
 969              	
ARM GAS  C:\Users\ingan\AppData\Local\Temp\ccpQ09y0.s 			page 31


 970              	@ 0 "" 2
 710:Generated_Source\PSoC5/CySpc.c ****             CY_NOP;
 971              		.loc 1 710 0
 972              	@ 710 "Generated_Source\PSoC5\CySpc.c" 1
 973 001e 00BF     		NOP
 974              	
 975              	@ 0 "" 2
 711:Generated_Source\PSoC5/CySpc.c ****             CY_NOP;
 976              		.loc 1 711 0
 977              	@ 711 "Generated_Source\PSoC5\CySpc.c" 1
 978 0020 00BF     		NOP
 979              	
 980              	@ 0 "" 2
 712:Generated_Source\PSoC5/CySpc.c **** 
 713:Generated_Source\PSoC5/CySpc.c ****             spcWaitPipeBypass = 0u;
 981              		.loc 1 713 0
 982              		.thumb
 983              		.syntax unified
 984 0022 0022     		movs	r2, #0
 985 0024 024B     		ldr	r3, .L93
 986 0026 5A60     		str	r2, [r3, #4]
 987              	.L91:
 714:Generated_Source\PSoC5/CySpc.c ****         }
 715:Generated_Source\PSoC5/CySpc.c **** 
 716:Generated_Source\PSoC5/CySpc.c ****     #endif  /* (CY_PSOC5) */
 717:Generated_Source\PSoC5/CySpc.c **** 
 718:Generated_Source\PSoC5/CySpc.c ****     /* Exit critical section */
 719:Generated_Source\PSoC5/CySpc.c ****     CyExitCriticalSection(interruptState);
 988              		.loc 1 719 0
 989 0028 FFF7FEFF 		bl	CyExitCriticalSection
 990              	.LVL107:
 991 002c 08BD     		pop	{r3, pc}
 992              	.L94:
 993 002e 00BF     		.align	2
 994              	.L93:
 995 0030 00000000 		.word	.LANCHOR0
 996 0034 04000840 		.word	1074266116
 997              		.cfi_endproc
 998              	.LFE11:
 999              		.size	CySpcUnlock, .-CySpcUnlock
 1000              		.section	.text.CySpcGetAlgorithm,"ax",%progbits
 1001              		.align	2
 1002              		.global	CySpcGetAlgorithm
 1003              		.thumb
 1004              		.thumb_func
 1005              		.type	CySpcGetAlgorithm, %function
 1006              	CySpcGetAlgorithm:
 1007              	.LFB12:
 720:Generated_Source\PSoC5/CySpc.c **** }
 721:Generated_Source\PSoC5/CySpc.c **** 
 722:Generated_Source\PSoC5/CySpc.c **** 
 723:Generated_Source\PSoC5/CySpc.c **** /*******************************************************************************
 724:Generated_Source\PSoC5/CySpc.c **** * Function Name: CySpcGetAlgorithm
 725:Generated_Source\PSoC5/CySpc.c **** ****************************************************************************//**
 726:Generated_Source\PSoC5/CySpc.c **** *  Downloads SPC algorithm from SPC SROM into SRAM.
 727:Generated_Source\PSoC5/CySpc.c **** *
 728:Generated_Source\PSoC5/CySpc.c **** * \return
ARM GAS  C:\Users\ingan\AppData\Local\Temp\ccpQ09y0.s 			page 32


 729:Generated_Source\PSoC5/CySpc.c **** *  CYRET_STARTED
 730:Generated_Source\PSoC5/CySpc.c **** *  CYRET_LOCKED
 731:Generated_Source\PSoC5/CySpc.c **** *
 732:Generated_Source\PSoC5/CySpc.c **** *******************************************************************************/
 733:Generated_Source\PSoC5/CySpc.c **** cystatus CySpcGetAlgorithm(void)
 734:Generated_Source\PSoC5/CySpc.c **** {
 1008              		.loc 1 734 0
 1009              		.cfi_startproc
 1010              		@ args = 0, pretend = 0, frame = 0
 1011              		@ frame_needed = 0, uses_anonymous_args = 0
 1012              		@ link register save eliminated.
 1013              	.LVL108:
 735:Generated_Source\PSoC5/CySpc.c ****     cystatus status = CYRET_STARTED;
 736:Generated_Source\PSoC5/CySpc.c **** 
 737:Generated_Source\PSoC5/CySpc.c ****     /* Make sure the SPC is ready to accept command */
 738:Generated_Source\PSoC5/CySpc.c ****     if(CY_SPC_IDLE)
 1014              		.loc 1 738 0
 1015 0000 074B     		ldr	r3, .L98
 1016 0002 1B78     		ldrb	r3, [r3]	@ zero_extendqisi2
 1017 0004 13F0020F 		tst	r3, #2
 1018 0008 08D0     		beq	.L97
 739:Generated_Source\PSoC5/CySpc.c ****     {
 740:Generated_Source\PSoC5/CySpc.c ****         CY_SPC_CPU_DATA_REG = CY_SPC_KEY_ONE;
 1019              		.loc 1 740 0
 1020 000a 064B     		ldr	r3, .L98+4
 1021 000c B622     		movs	r2, #182
 1022 000e 1A70     		strb	r2, [r3]
 741:Generated_Source\PSoC5/CySpc.c ****         CY_SPC_CPU_DATA_REG = CY_SPC_KEY_TWO(CY_SPC_CMD_DWNLD_ALGORITHM);
 1023              		.loc 1 741 0
 1024 0010 E022     		movs	r2, #224
 1025 0012 1A70     		strb	r2, [r3]
 742:Generated_Source\PSoC5/CySpc.c ****         CY_SPC_CPU_DATA_REG = CY_SPC_CMD_DWNLD_ALGORITHM;
 1026              		.loc 1 742 0
 1027 0014 0D22     		movs	r2, #13
 1028 0016 1A70     		strb	r2, [r3]
 735:Generated_Source\PSoC5/CySpc.c **** 
 1029              		.loc 1 735 0
 1030 0018 0720     		movs	r0, #7
 1031 001a 7047     		bx	lr
 1032              	.L97:
 743:Generated_Source\PSoC5/CySpc.c ****     }
 744:Generated_Source\PSoC5/CySpc.c ****     else
 745:Generated_Source\PSoC5/CySpc.c ****     {
 746:Generated_Source\PSoC5/CySpc.c ****         status = CYRET_LOCKED;
 1033              		.loc 1 746 0
 1034 001c 0420     		movs	r0, #4
 1035              	.LVL109:
 747:Generated_Source\PSoC5/CySpc.c ****     }
 748:Generated_Source\PSoC5/CySpc.c **** 
 749:Generated_Source\PSoC5/CySpc.c ****     return(status);
 750:Generated_Source\PSoC5/CySpc.c **** }
 1036              		.loc 1 750 0
 1037 001e 7047     		bx	lr
 1038              	.L99:
 1039              		.align	2
 1040              	.L98:
 1041 0020 22470040 		.word	1073760034
ARM GAS  C:\Users\ingan\AppData\Local\Temp\ccpQ09y0.s 			page 33


 1042 0024 20470040 		.word	1073760032
 1043              		.cfi_endproc
 1044              	.LFE12:
 1045              		.size	CySpcGetAlgorithm, .-CySpcGetAlgorithm
 1046              		.global	SpcLockState
 1047              		.bss
 1048              		.align	2
 1049              		.set	.LANCHOR0,. + 0
 1050              		.type	SpcLockState, %object
 1051              		.size	SpcLockState, 1
 1052              	SpcLockState:
 1053 0000 00       		.space	1
 1054 0001 000000   		.space	3
 1055              		.type	spcWaitPipeBypass, %object
 1056              		.size	spcWaitPipeBypass, 4
 1057              	spcWaitPipeBypass:
 1058 0004 00000000 		.space	4
 1059              		.text
 1060              	.Letext0:
 1061              		.file 2 "Generated_Source\\PSoC5\\cytypes.h"
 1062              		.file 3 "Generated_Source\\PSoC5\\CyLib.h"