ARM GAS  C:\Users\ingan\AppData\Local\Temp\ccbznQ46.s 			page 1


   1              		.syntax unified
   2              		.cpu cortex-m3
   3              		.fpu softvfp
   4              		.eabi_attribute 20, 1
   5              		.eabi_attribute 21, 1
   6              		.eabi_attribute 23, 3
   7              		.eabi_attribute 24, 1
   8              		.eabi_attribute 25, 1
   9              		.eabi_attribute 26, 1
  10              		.eabi_attribute 30, 1
  11              		.eabi_attribute 34, 1
  12              		.eabi_attribute 18, 4
  13              		.thumb
  14              		.syntax unified
  15              		.file	"func_list.c"
  16              		.text
  17              	.Ltext0:
  18              		.cfi_sections	.debug_frame
  19              		.section	.text.get_func,"ax",%progbits
  20              		.align	2
  21              		.global	get_func
  22              		.thumb
  23              		.thumb_func
  24              		.type	get_func, %function
  25              	get_func:
  26              	.LFB64:
  27              		.file 1 "func_list.c"
   1:func_list.c   **** #include "project.h"
   2:func_list.c   **** #include "stdio.h"
   3:func_list.c   **** #include "tty_utils.h"
   4:func_list.c   **** #include "func_list.h"
   5:func_list.c   **** 
   6:func_list.c   **** func_ptr get_func(f_list_type *list, char *str)
   7:func_list.c   **** {
  28              		.loc 1 7 0
  29              		.cfi_startproc
  30              		@ args = 0, pretend = 0, frame = 24
  31              		@ frame_needed = 0, uses_anonymous_args = 0
  32              	.LVL0:
  33 0000 10B5     		push	{r4, lr}
  34              		.cfi_def_cfa_offset 8
  35              		.cfi_offset 4, -8
  36              		.cfi_offset 14, -4
  37 0002 86B0     		sub	sp, sp, #24
  38              		.cfi_def_cfa_offset 32
  39 0004 0446     		mov	r4, r0
  40 0006 0846     		mov	r0, r1
  41              	.LVL1:
   8:func_list.c   ****     int      i ;
   9:func_list.c   ****     func_ptr ptr = 0 ;
  10:func_list.c   ****     char cmd[CMD_LENGTH+1] ;
  11:func_list.c   ****     
  12:func_list.c   ****     sscanf(str, "%s", cmd) ;
  42              		.loc 1 12 0
  43 0008 01AA     		add	r2, sp, #4
  44 000a 0849     		ldr	r1, .L7
  45              	.LVL2:
ARM GAS  C:\Users\ingan\AppData\Local\Temp\ccbznQ46.s 			page 2


  46 000c FFF7FEFF 		bl	sscanf
  47              	.LVL3:
  13:func_list.c   ****     for (i = 0 ; list[i].name ; i++ ) {
  48              		.loc 1 13 0
  49 0010 2068     		ldr	r0, [r4]
  50 0012 38B1     		cbz	r0, .L2
  51              	.LVL4:
  52              	.L3:
  14:func_list.c   ****         if (strcmp(list[i].name, cmd) == 0) {
  53              		.loc 1 14 0
  54 0014 01A9     		add	r1, sp, #4
  55 0016 FFF7FEFF 		bl	strcmp
  56              	.LVL5:
  57 001a 18B1     		cbz	r0, .L2
  13:func_list.c   ****     for (i = 0 ; list[i].name ; i++ ) {
  58              		.loc 1 13 0 discriminator 2
  59 001c 54F80C0F 		ldr	r0, [r4, #12]!
  60 0020 0028     		cmp	r0, #0
  61 0022 F7D1     		bne	.L3
  62              	.L2:
  63              	.LVL6:
  15:func_list.c   ****             break ;
  16:func_list.c   ****         }
  17:func_list.c   ****     }
  18:func_list.c   ****     ptr = list[i].func ;
  19:func_list.c   ****     
  20:func_list.c   ****     return( ptr ) ;
  21:func_list.c   **** }
  64              		.loc 1 21 0
  65 0024 6068     		ldr	r0, [r4, #4]
  66 0026 06B0     		add	sp, sp, #24
  67              		.cfi_def_cfa_offset 8
  68              		@ sp needed
  69 0028 10BD     		pop	{r4, pc}
  70              	.LVL7:
  71              	.L8:
  72 002a 00BF     		.align	2
  73              	.L7:
  74 002c 00000000 		.word	.LC0
  75              		.cfi_endproc
  76              	.LFE64:
  77              		.size	get_func, .-get_func
  78              		.section	.text.show_help,"ax",%progbits
  79              		.align	2
  80              		.global	show_help
  81              		.thumb
  82              		.thumb_func
  83              		.type	show_help, %function
  84              	show_help:
  85              	.LFB65:
  22:func_list.c   **** 
  23:func_list.c   **** void show_help(f_list_type *list)
  24:func_list.c   **** {
  86              		.loc 1 24 0
  87              		.cfi_startproc
  88              		@ args = 0, pretend = 0, frame = 0
  89              		@ frame_needed = 0, uses_anonymous_args = 0
ARM GAS  C:\Users\ingan\AppData\Local\Temp\ccbznQ46.s 			page 3


  90              	.LVL8:
  91 0000 70B5     		push	{r4, r5, r6, lr}
  92              		.cfi_def_cfa_offset 16
  93              		.cfi_offset 4, -16
  94              		.cfi_offset 5, -12
  95              		.cfi_offset 6, -8
  96              		.cfi_offset 14, -4
  97 0002 0446     		mov	r4, r0
  25:func_list.c   ****     int i ;
  26:func_list.c   ****     
  27:func_list.c   ****     print("=== command ===\n\r") ;
  98              		.loc 1 27 0
  99 0004 0C48     		ldr	r0, .L14
 100              	.LVL9:
 101 0006 FFF7FEFF 		bl	print
 102              	.LVL10:
  28:func_list.c   ****     for (i = 0 ; list[i].name ; i++ ) {
 103              		.loc 1 28 0
 104 000a 2068     		ldr	r0, [r4]
 105 000c 80B1     		cbz	r0, .L10
  29:func_list.c   ****         print(list[i].name) ;
  30:func_list.c   ****         print(" : ") ;
 106              		.loc 1 30 0
 107 000e 0B4E     		ldr	r6, .L14+4
  31:func_list.c   ****         print(list[i].description) ;
  32:func_list.c   ****         print("\n\r") ;
 108              		.loc 1 32 0
 109 0010 0B4D     		ldr	r5, .L14+8
 110              	.LVL11:
 111              	.L11:
  29:func_list.c   ****         print(list[i].name) ;
 112              		.loc 1 29 0 discriminator 3
 113 0012 FFF7FEFF 		bl	print
 114              	.LVL12:
  30:func_list.c   ****         print(list[i].description) ;
 115              		.loc 1 30 0 discriminator 3
 116 0016 3046     		mov	r0, r6
 117 0018 FFF7FEFF 		bl	print
 118              	.LVL13:
  31:func_list.c   ****         print(list[i].description) ;
 119              		.loc 1 31 0 discriminator 3
 120 001c A068     		ldr	r0, [r4, #8]
 121 001e FFF7FEFF 		bl	print
 122              	.LVL14:
 123              		.loc 1 32 0 discriminator 3
 124 0022 2846     		mov	r0, r5
 125 0024 FFF7FEFF 		bl	print
 126              	.LVL15:
  28:func_list.c   ****         print(list[i].name) ;
 127              		.loc 1 28 0 discriminator 3
 128 0028 54F80C0F 		ldr	r0, [r4, #12]!
 129 002c 0028     		cmp	r0, #0
 130 002e F0D1     		bne	.L11
 131              	.L10:
  33:func_list.c   ****     }
  34:func_list.c   ****     print("===============\n\r") ;    
 132              		.loc 1 34 0
ARM GAS  C:\Users\ingan\AppData\Local\Temp\ccbznQ46.s 			page 4


 133 0030 0448     		ldr	r0, .L14+12
 134 0032 FFF7FEFF 		bl	print
 135              	.LVL16:
 136 0036 70BD     		pop	{r4, r5, r6, pc}
 137              	.L15:
 138              		.align	2
 139              	.L14:
 140 0038 04000000 		.word	.LC1
 141 003c 18000000 		.word	.LC2
 142 0040 1C000000 		.word	.LC3
 143 0044 20000000 		.word	.LC4
 144              		.cfi_endproc
 145              	.LFE65:
 146              		.size	show_help, .-show_help
 147              		.section	.rodata.str1.4,"aMS",%progbits,1
 148              		.align	2
 149              	.LC0:
 150 0000 257300   		.ascii	"%s\000"
 151 0003 00       		.space	1
 152              	.LC1:
 153 0004 3D3D3D20 		.ascii	"=== command ===\012\015\000"
 153      636F6D6D 
 153      616E6420 
 153      3D3D3D0A 
 153      0D00
 154 0016 0000     		.space	2
 155              	.LC2:
 156 0018 203A2000 		.ascii	" : \000"
 157              	.LC3:
 158 001c 0A0D00   		.ascii	"\012\015\000"
 159 001f 00       		.space	1
 160              	.LC4:
 161 0020 3D3D3D3D 		.ascii	"===============\012\015\000"
 161      3D3D3D3D 
 161      3D3D3D3D 
 161      3D3D3D0A 
 161      0D00
 162              		.text
 163              	.Letext0:
 164              		.file 2 "c:\\program files (x86)\\cypress\\psoc creator\\4.2\\psoc creator\\import\\gnu\\arm\\5.4.
 165              		.file 3 "c:\\program files (x86)\\cypress\\psoc creator\\4.2\\psoc creator\\import\\gnu\\arm\\5.4.
 166              		.file 4 "func_list.h"
 167              		.file 5 "c:\\program files (x86)\\cypress\\psoc creator\\4.2\\psoc creator\\import\\gnu\\arm\\5.4.
 168              		.file 6 "c:\\program files (x86)\\cypress\\psoc creator\\4.2\\psoc creator\\import\\gnu\\arm\\5.4.
 169              		.file 7 "tty_utils.h"
 170              		.file 8 "Generated_Source\\PSoC5/core_cm3.h"