ARM GAS  C:\Users\ingan\AppData\Local\Temp\ccl4K6ei.s 			page 1


   1              		.syntax unified
   2              		.cpu cortex-m3
   3              		.fpu softvfp
   4              		.eabi_attribute 20, 1
   5              		.eabi_attribute 21, 1
   6              		.eabi_attribute 23, 3
   7              		.eabi_attribute 24, 1
   8              		.eabi_attribute 25, 1
   9              		.eabi_attribute 26, 1
  10              		.eabi_attribute 30, 1
  11              		.eabi_attribute 34, 1
  12              		.eabi_attribute 18, 4
  13              		.thumb
  14              		.syntax unified
  15              		.file	"main.c"
  16              		.text
  17              	.Ltext0:
  18              		.cfi_sections	.debug_frame
  19              		.section	.text.sampleRateIRQ,"ax",%progbits
  20              		.align	2
  21              		.global	sampleRateIRQ
  22              		.thumb
  23              		.thumb_func
  24              		.type	sampleRateIRQ, %function
  25              	sampleRateIRQ:
  26              	.LFB64:
  27              		.file 1 "main.c"
   1:main.c        **** /* ========================================
   2:main.c        ****  *
   3:main.c        ****  * Copyright YOUR COMPANY, THE YEAR
   4:main.c        ****  * All Rights Reserved
   5:main.c        ****  * UNPUBLISHED, LICENSED SOFTWARE.
   6:main.c        ****  *
   7:main.c        ****  * CONFIDENTIAL AND PROPRIETARY INFORMATION
   8:main.c        ****  * WHICH IS THE PROPERTY OF your company.
   9:main.c        ****  *
  10:main.c        ****  * ========================================
  11:main.c        **** */
  12:main.c        **** #include "project.h"
  13:main.c        **** #include "stdio.h"
  14:main.c        **** #include "tty_utils.h"
  15:main.c        **** #include "utils.h"
  16:main.c        **** #include "usb_uart.h"
  17:main.c        **** 
  18:main.c        **** #define BUF_CMDS    2
  19:main.c        **** //#define SYSTICK_MAXVAL 0x00FFFFFF //max allowed SysTick counter value for 24bit
  20:main.c        **** #define GET16(x) *x + (*(x+1) << 8);
  21:main.c        **** #define GPIO_CLEAR(pin) pin##_DR &= ~pin##_MASK; \
  22:main.c        ****     volatile_reg_val_0 = pin##_DR
  23:main.c        **** #define GPIO_SET(pin) pin##_DR |= pin##_MASK; \
  24:main.c        ****     volatile_reg_val_1 = pin##_DR;
  25:main.c        **** #define FILL_CURRENT_BUF(i) bufPtr = buffer[i]; \
  26:main.c        ****     while (!rx_flag); \
  27:main.c        ****     count_incoming = USBUART_GetAll(bufPtr); \
  28:main.c        ****     count_vgm = count_incoming; \
  29:main.c        ****     rx_flag = 0
  30:main.c        **** 
ARM GAS  C:\Users\ingan\AppData\Local\Temp\ccl4K6ei.s 			page 2


  31:main.c        **** extern uint8_t rx_flag;
  32:main.c        **** //extern uint16_t count;
  33:main.c        **** //extern uint8_t goFlag;
  34:main.c        **** uint8_t buffer[BUF_CMDS][USBUART_BUFFER_SIZE];
  35:main.c        **** uint8_t isrFlag = 0;
  36:main.c        **** 
  37:main.c        **** volatile uint32 volatile_reg_val_1;
  38:main.c        **** volatile uint32 volatile_reg_val_0;
  39:main.c        **** 
  40:main.c        **** void ym2612_write_step (uint8_t data);
  41:main.c        **** void ym2612_write(uint8_t reg, uint8_t data, uint8_t port);
  42:main.c        **** void sn76489_write(uint8_t data);
  43:main.c        **** void ym2612_reset();
  44:main.c        **** void ym2612_init (void);
  45:main.c        **** void SilenceAllChannels();
  46:main.c        **** void init_hardware(void);
  47:main.c        **** 
  48:main.c        **** CY_ISR(sampleRateIRQ){
  28              		.loc 1 48 0
  29              		.cfi_startproc
  30              		@ args = 0, pretend = 0, frame = 0
  31              		@ frame_needed = 0, uses_anonymous_args = 0
  32              		@ link register save eliminated.
  49:main.c        ****     isrFlag = 1;
  33              		.loc 1 49 0
  34 0000 0122     		movs	r2, #1
  35 0002 014B     		ldr	r3, .L2
  36 0004 1A70     		strb	r2, [r3]
  37 0006 7047     		bx	lr
  38              	.L3:
  39              		.align	2
  40              	.L2:
  41 0008 00000000 		.word	.LANCHOR0
  42              		.cfi_endproc
  43              	.LFE64:
  44              		.size	sampleRateIRQ, .-sampleRateIRQ
  45              		.section	.text.ym2612_write_step,"ax",%progbits
  46              		.align	2
  47              		.global	ym2612_write_step
  48              		.thumb
  49              		.thumb_func
  50              		.type	ym2612_write_step, %function
  51              	ym2612_write_step:
  52              	.LFB67:
  50:main.c        **** }
  51:main.c        **** 
  52:main.c        **** int main(void) {
  53:main.c        **** 
  54:main.c        ****     uint8_t* bufPtr;
  55:main.c        ****     uint8_t* VGMPtr;
  56:main.c        ****     uint8_t i = 0, j = 0, k = 0;
  57:main.c        ****     uint16_t WaitTime = 0;
  58:main.c        ****     //uint32_t test = 0;
  59:main.c        ****     uint8_t noWait = 0;
  60:main.c        ****     //uint8_t count_vgm[BUF_CMDS];
  61:main.c        ****     uint8_t count_incoming[BUF_CMDS];
  62:main.c        ****     uint8_t incomingFlag = 0;
ARM GAS  C:\Users\ingan\AppData\Local\Temp\ccl4K6ei.s 			page 3


  63:main.c        ****     //uint32 SysCntVal; // The value of SysTick counter
  64:main.c        ****     
  65:main.c        ****     init_hardware();
  66:main.c        ****     isr_1_StartEx(sampleRateIRQ);
  67:main.c        ****     //splash("USBFS-UART demo") ;
  68:main.c        ****     //cls();
  69:main.c        ****     //print("\033c") ; /* reset */
  70:main.c        ****     //CyDelay(20) ;
  71:main.c        ****     while (0u == USBUART_CDCIsReady())
  72:main.c        ****     {
  73:main.c        ****     }
  74:main.c        ****     USBUART_PutString("\0");
  75:main.c        ****     // fill buffers
  76:main.c        ****     for (k = 0; k < BUF_CMDS; k++)
  77:main.c        ****     {
  78:main.c        ****         bufPtr = buffer[k];
  79:main.c        ****         while (!rx_flag);
  80:main.c        ****         count_incoming[k] = USBUART_GetAll(bufPtr);
  81:main.c        ****         //count_vgm = count_incoming;
  82:main.c        ****         rx_flag = 0;
  83:main.c        ****     }
  84:main.c        **** 
  85:main.c        ****     i = 0; // start playback from 1st buffer
  86:main.c        ****     bufPtr = buffer[0];
  87:main.c        ****     VGMPtr = buffer[0];
  88:main.c        ****     
  89:main.c        ****     for(;;)
  90:main.c        ****     { 
  91:main.c        ****         if (isrFlag == 1)
  92:main.c        ****         {
  93:main.c        ****             if (WaitTime != 0)
  94:main.c        ****             {
  95:main.c        ****                 WaitTime--;
  96:main.c        ****                 isrFlag = 0;
  97:main.c        ****                 continue;
  98:main.c        ****             }
  99:main.c        ****             
 100:main.c        ****             switch (VGMPtr[j]) // VGM commands parsing
 101:main.c        ****             {
 102:main.c        ****             case 0x4F:
 103:main.c        ****                 j += 2;
 104:main.c        ****                 break;
 105:main.c        **** 
 106:main.c        ****             case 0x50:
 107:main.c        ****                 sn76489_write(VGMPtr[j + 1]);
 108:main.c        ****                 j += 2;            
 109:main.c        ****                 WaitTime = 0;
 110:main.c        ****                 break;
 111:main.c        **** 
 112:main.c        ****             case 0x52:
 113:main.c        ****             case 0x53:
 114:main.c        ****                 ym2612_write(VGMPtr[j + 1], VGMPtr[j + 2], VGMPtr[j] & 0x01);
 115:main.c        ****                 j += 3;
 116:main.c        ****                 WaitTime = 0;
 117:main.c        ****                 break;
 118:main.c        **** 
 119:main.c        ****             case 0x61:
ARM GAS  C:\Users\ingan\AppData\Local\Temp\ccl4K6ei.s 			page 4


 120:main.c        ****                 WaitTime = GET16(&VGMPtr[j + 1]);
 121:main.c        ****                 j += 3;
 122:main.c        ****                 if (WaitTime == 0)
 123:main.c        ****                 {
 124:main.c        ****                     noWait = 1;
 125:main.c        ****                 }
 126:main.c        ****                 else
 127:main.c        ****                 {
 128:main.c        ****                     WaitTime--;    
 129:main.c        ****                 }
 130:main.c        ****                 break;
 131:main.c        ****             
 132:main.c        ****             case 0x62:
 133:main.c        ****                 j++;
 134:main.c        ****                 WaitTime = 735 - 1;
 135:main.c        ****                 break;
 136:main.c        **** 
 137:main.c        ****             case 0x63:
 138:main.c        ****                 j++;
 139:main.c        ****                 WaitTime = 882 - 1;
 140:main.c        ****                 break;
 141:main.c        **** 
 142:main.c        ****             case 0x70:
 143:main.c        ****             case 0x71:
 144:main.c        ****             case 0x72:
 145:main.c        ****             case 0x73:
 146:main.c        ****             case 0x74:
 147:main.c        ****             case 0x75:
 148:main.c        ****             case 0x76:
 149:main.c        ****             case 0x77:
 150:main.c        ****             case 0x78:
 151:main.c        ****             case 0x79:
 152:main.c        ****             case 0x7A:
 153:main.c        ****             case 0x7B:
 154:main.c        ****             case 0x7C:
 155:main.c        ****             case 0x7D:
 156:main.c        ****             case 0x7E:
 157:main.c        ****             case 0x7F:
 158:main.c        ****                 WaitTime = (VGMPtr[j] & 0x0F);
 159:main.c        ****                 j++;
 160:main.c        ****                 break;
 161:main.c        ****             
 162:main.c        ****             case 0x80:
 163:main.c        ****             case 0x81:
 164:main.c        ****             case 0x82:
 165:main.c        ****             case 0x83:
 166:main.c        ****             case 0x84:
 167:main.c        ****             case 0x85:
 168:main.c        ****             case 0x86:
 169:main.c        ****             case 0x87:
 170:main.c        ****             case 0x88:
 171:main.c        ****             case 0x89:
 172:main.c        ****             case 0x8A:
 173:main.c        ****             case 0x8B:
 174:main.c        ****             case 0x8C:
 175:main.c        ****             case 0x8D:
 176:main.c        ****             case 0x8E:
ARM GAS  C:\Users\ingan\AppData\Local\Temp\ccl4K6ei.s 			page 5


 177:main.c        ****             case 0x8F:
 178:main.c        ****                 //SysTick_Config(SYSTICK_MAXVAL); //reset counter set to max value, 1-time, will no
 179:main.c        ****                 ym2612_write(0x2a, VGMPtr[j + 1], 0x00);
 180:main.c        ****                 //SysCntVal = SYSTICK_MAXVAL - (SysTick->VAL); //get elapsed ticks (min offset 3 ti
 181:main.c        ****                 WaitTime = VGMPtr[j] & 0x0F;
 182:main.c        ****                 j += 2;
 183:main.c        ****                 if (WaitTime == 0)
 184:main.c        ****                 {
 185:main.c        ****                     noWait = 1;
 186:main.c        ****                 }
 187:main.c        ****                 else
 188:main.c        ****                 {
 189:main.c        ****                     WaitTime--;    
 190:main.c        ****                 }
 191:main.c        ****                 break;
 192:main.c        **** 
 193:main.c        ****             default:
 194:main.c        ****                 break;
 195:main.c        ****             }
 196:main.c        ****             
 197:main.c        ****             if (incomingFlag == 1)
 198:main.c        ****             {
 199:main.c        ****                 if (USBUART_OUT_BUFFER_FULL != USBUART_GetEPState(3))
 200:main.c        ****                 {
 201:main.c        ****                     USBUART_EnableOutEP(3);
 202:main.c        ****                     incomingFlag = 0;
 203:main.c        ****                 }
 204:main.c        ****             }
 205:main.c        ****             
 206:main.c        ****             // buffer end
 207:main.c        ****             if (j >= count_incoming[i] - 1)
 208:main.c        ****             {   
 209:main.c        ****                 VGMPtr = buffer[(i + 1) % BUF_CMDS]; // change buffer and...
 210:main.c        ****                 // ... get incoming data from USB
 211:main.c        ****                 while (!rx_flag);
 212:main.c        ****                 //count_vgm = count_incoming;
 213:main.c        ****                 //count_incoming = USBUART_GetAll(bufPtr);
 214:main.c        ****                 count_incoming[i] = USBUART_ReadOutEP(3, bufPtr, 64);
 215:main.c        ****                 incomingFlag = 1;
 216:main.c        ****                 rx_flag = 0;
 217:main.c        ****                 bufPtr = VGMPtr;
 218:main.c        ****                 i = (i + 1) % BUF_CMDS;
 219:main.c        ****                 j = 0;
 220:main.c        ****                 /*
 221:main.c        ****                 VGMPtr = buffer[(i + 1) % 2]; // change buffer and...
 222:main.c        ****                 // ... get incoming data from USB
 223:main.c        ****                 while (!rx_flag);
 224:main.c        ****                 count_vgm = count_incoming;
 225:main.c        ****                 count_incoming = USBUART_GetAll(bufPtr);
 226:main.c        ****                 rx_flag = 0;
 227:main.c        ****                 i = (i + 1) % 2;
 228:main.c        ****                 bufPtr = buffer[i];
 229:main.c        ****                 j = 0;
 230:main.c        ****                 */
 231:main.c        ****             }
 232:main.c        ****             
 233:main.c        ****             if (noWait == 1)
ARM GAS  C:\Users\ingan\AppData\Local\Temp\ccl4K6ei.s 			page 6


 234:main.c        ****             {
 235:main.c        ****                 noWait = 0;
 236:main.c        ****             }
 237:main.c        ****             else
 238:main.c        ****             {
 239:main.c        ****                 isrFlag = 0;
 240:main.c        ****             }
 241:main.c        ****         }
 242:main.c        ****     }  
 243:main.c        **** }
 244:main.c        **** 
 245:main.c        **** void init_hardware(void) 
 246:main.c        **** {
 247:main.c        ****     SilenceAllChannels();
 248:main.c        ****     CyGlobalIntEnable; /* Enable global interrupts. */
 249:main.c        **** 
 250:main.c        ****     tty_init() ;
 251:main.c        **** }
 252:main.c        **** 
 253:main.c        **** /*
 254:main.c        **** void ym2612_write_step (uint8_t data)
 255:main.c        **** {
 256:main.c        ****   // CS Pin low
 257:main.c        ****   YM_CS_Write(0);
 258:main.c        ****   // DATA to bus
 259:main.c        ****   YM_Data_Write(data);
 260:main.c        ****   // WR data
 261:main.c        ****   YM_WR_Write(0);
 262:main.c        ****   YM_RD_Write(1);
 263:main.c        ****   //CyDelayCycles(1);
 264:main.c        ****   CyDelayUs(1);
 265:main.c        ****   YM_WR_Write(1);
 266:main.c        ****   YM_RD_Write(0);
 267:main.c        ****   // CS Pin high
 268:main.c        ****   YM_CS_Write(1);
 269:main.c        ****   CyDelayUs(1);
 270:main.c        ****   //CyDelayCycles(1);
 271:main.c        **** }*/
 272:main.c        **** 
 273:main.c        **** void ym2612_write_step(uint8_t data)
 274:main.c        **** {
  53              		.loc 1 274 0
  54              		.cfi_startproc
  55              		@ args = 0, pretend = 0, frame = 0
  56              		@ frame_needed = 0, uses_anonymous_args = 0
  57              	.LVL0:
  58 0000 F8B5     		push	{r3, r4, r5, r6, r7, lr}
  59              		.cfi_def_cfa_offset 24
  60              		.cfi_offset 3, -24
  61              		.cfi_offset 4, -20
  62              		.cfi_offset 5, -16
  63              		.cfi_offset 6, -12
  64              		.cfi_offset 7, -8
  65              		.cfi_offset 14, -4
 275:main.c        ****   // CS Pin low
 276:main.c        ****   GPIO_CLEAR(YM_CS);
  66              		.loc 1 276 0
ARM GAS  C:\Users\ingan\AppData\Local\Temp\ccl4K6ei.s 			page 7


  67 0002 1B4C     		ldr	r4, .L6
  68 0004 2378     		ldrb	r3, [r4]	@ zero_extendqisi2
  69 0006 03F0F703 		and	r3, r3, #247
  70 000a 2370     		strb	r3, [r4]
  71 000c 2378     		ldrb	r3, [r4]	@ zero_extendqisi2
  72 000e DBB2     		uxtb	r3, r3
  73 0010 184F     		ldr	r7, .L6+4
  74 0012 3B60     		str	r3, [r7]
 277:main.c        ****   // DATA to bus
 278:main.c        ****   //YM_Data_Write(data);
 279:main.c        ****   YM_Data_DR = data;
  75              		.loc 1 279 0
  76 0014 184B     		ldr	r3, .L6+8
  77 0016 1870     		strb	r0, [r3]
 280:main.c        ****   // WR data
 281:main.c        ****   GPIO_CLEAR(YM_WR);
  78              		.loc 1 281 0
  79 0018 2378     		ldrb	r3, [r4]	@ zero_extendqisi2
  80 001a 03F0FB03 		and	r3, r3, #251
  81 001e 2370     		strb	r3, [r4]
  82 0020 2378     		ldrb	r3, [r4]	@ zero_extendqisi2
  83 0022 DBB2     		uxtb	r3, r3
  84 0024 3B60     		str	r3, [r7]
 282:main.c        ****   GPIO_SET(YM_RD);
  85              		.loc 1 282 0
  86 0026 154D     		ldr	r5, .L6+12
  87 0028 2B78     		ldrb	r3, [r5]	@ zero_extendqisi2
  88 002a 43F00203 		orr	r3, r3, #2
  89 002e 2B70     		strb	r3, [r5]
  90 0030 2B78     		ldrb	r3, [r5]	@ zero_extendqisi2
  91 0032 DBB2     		uxtb	r3, r3
  92 0034 124E     		ldr	r6, .L6+16
  93 0036 3360     		str	r3, [r6]
 283:main.c        ****   //CyDelayCycles(1);
 284:main.c        ****   CyDelayUs(1);
  94              		.loc 1 284 0
  95 0038 0120     		movs	r0, #1
  96              	.LVL1:
  97 003a FFF7FEFF 		bl	CyDelayUs
  98              	.LVL2:
 285:main.c        ****   GPIO_SET(YM_WR);
  99              		.loc 1 285 0
 100 003e 2378     		ldrb	r3, [r4]	@ zero_extendqisi2
 101 0040 43F00403 		orr	r3, r3, #4
 102 0044 2370     		strb	r3, [r4]
 103 0046 2378     		ldrb	r3, [r4]	@ zero_extendqisi2
 104 0048 DBB2     		uxtb	r3, r3
 105 004a 3360     		str	r3, [r6]
 286:main.c        ****   GPIO_CLEAR(YM_RD);
 106              		.loc 1 286 0
 107 004c 2B78     		ldrb	r3, [r5]	@ zero_extendqisi2
 108 004e 03F0FD03 		and	r3, r3, #253
 109 0052 2B70     		strb	r3, [r5]
 110 0054 2B78     		ldrb	r3, [r5]	@ zero_extendqisi2
 111 0056 DBB2     		uxtb	r3, r3
 112 0058 3B60     		str	r3, [r7]
 287:main.c        ****   // CS Pin high
ARM GAS  C:\Users\ingan\AppData\Local\Temp\ccl4K6ei.s 			page 8


 288:main.c        ****   GPIO_SET(YM_CS);
 113              		.loc 1 288 0
 114 005a 2378     		ldrb	r3, [r4]	@ zero_extendqisi2
 115 005c 43F00803 		orr	r3, r3, #8
 116 0060 2370     		strb	r3, [r4]
 117 0062 2378     		ldrb	r3, [r4]	@ zero_extendqisi2
 118 0064 DBB2     		uxtb	r3, r3
 119 0066 3360     		str	r3, [r6]
 289:main.c        ****   CyDelayUs(1);
 120              		.loc 1 289 0
 121 0068 0120     		movs	r0, #1
 122 006a FFF7FEFF 		bl	CyDelayUs
 123              	.LVL3:
 124 006e F8BD     		pop	{r3, r4, r5, r6, r7, pc}
 125              	.L7:
 126              		.align	2
 127              	.L6:
 128 0070 C0510040 		.word	1073762752
 129 0074 00000000 		.word	volatile_reg_val_0
 130 0078 20510040 		.word	1073762592
 131 007c F0510040 		.word	1073762800
 132 0080 00000000 		.word	volatile_reg_val_1
 133              		.cfi_endproc
 134              	.LFE67:
 135              		.size	ym2612_write_step, .-ym2612_write_step
 136              		.section	.text.ym2612_write,"ax",%progbits
 137              		.align	2
 138              		.global	ym2612_write
 139              		.thumb
 140              		.thumb_func
 141              		.type	ym2612_write, %function
 142              	ym2612_write:
 143              	.LFB68:
 290:main.c        ****   //CyDelayCycles(1);
 291:main.c        ****     
 292:main.c        **** }
 293:main.c        **** 
 294:main.c        **** /*void ym2612_write(uint8_t reg, uint8_t data, uint8_t port)
 295:main.c        **** {
 296:main.c        ****   // A1 selects part0 (channels 1-3) or part1 (channels 1-6)
 297:main.c        ****   YM_A1_Write(port);
 298:main.c        ****   YM_A0_Write(0);
 299:main.c        ****   // write register selection
 300:main.c        ****   ym2612_write_step(reg);
 301:main.c        ****   // data part 0 (channels 1-3)
 302:main.c        ****   // A1 low, A0 high
 303:main.c        ****   YM_A0_Write(1);
 304:main.c        ****   ym2612_write_step(data);
 305:main.c        **** }*/
 306:main.c        **** 
 307:main.c        **** void ym2612_write(uint8_t reg, uint8_t data, uint8_t port)
 308:main.c        **** {
 144              		.loc 1 308 0
 145              		.cfi_startproc
 146              		@ args = 0, pretend = 0, frame = 0
 147              		@ frame_needed = 0, uses_anonymous_args = 0
 148              	.LVL4:
ARM GAS  C:\Users\ingan\AppData\Local\Temp\ccl4K6ei.s 			page 9


 149 0000 2DE9F843 		push	{r3, r4, r5, r6, r7, r8, r9, lr}
 150              		.cfi_def_cfa_offset 32
 151              		.cfi_offset 3, -32
 152              		.cfi_offset 4, -28
 153              		.cfi_offset 5, -24
 154              		.cfi_offset 6, -20
 155              		.cfi_offset 7, -16
 156              		.cfi_offset 8, -12
 157              		.cfi_offset 9, -8
 158              		.cfi_offset 14, -4
 159 0004 8946     		mov	r9, r1
 309:main.c        ****   // A1 selects part0 (channels 1-3) or part1 (channels 1-6)
 310:main.c        ****   if (port == 1)
 160              		.loc 1 310 0
 161 0006 012A     		cmp	r2, #1
 162 0008 09D1     		bne	.L9
 311:main.c        ****   {
 312:main.c        ****     GPIO_SET(YM_A1);
 163              		.loc 1 312 0
 164 000a 464B     		ldr	r3, .L12
 165 000c 1A78     		ldrb	r2, [r3]	@ zero_extendqisi2
 166              	.LVL5:
 167 000e 42F00102 		orr	r2, r2, #1
 168 0012 1A70     		strb	r2, [r3]
 169 0014 1B78     		ldrb	r3, [r3]	@ zero_extendqisi2
 170 0016 DBB2     		uxtb	r3, r3
 171 0018 434A     		ldr	r2, .L12+4
 172 001a 1360     		str	r3, [r2]
 173 001c 08E0     		b	.L10
 174              	.LVL6:
 175              	.L9:
 313:main.c        ****   }
 314:main.c        ****   else
 315:main.c        ****   {
 316:main.c        ****     GPIO_CLEAR(YM_A1);
 176              		.loc 1 316 0
 177 001e 414B     		ldr	r3, .L12
 178 0020 1A78     		ldrb	r2, [r3]	@ zero_extendqisi2
 179              	.LVL7:
 180 0022 02F0FE02 		and	r2, r2, #254
 181 0026 1A70     		strb	r2, [r3]
 182 0028 1B78     		ldrb	r3, [r3]	@ zero_extendqisi2
 183 002a DBB2     		uxtb	r3, r3
 184 002c 3F4A     		ldr	r2, .L12+8
 185 002e 1360     		str	r3, [r2]
 186              	.L10:
 317:main.c        ****   }
 318:main.c        ****   GPIO_CLEAR(YM_A0);
 187              		.loc 1 318 0
 188 0030 3F4C     		ldr	r4, .L12+12
 189 0032 2378     		ldrb	r3, [r4]	@ zero_extendqisi2
 190 0034 03F0FE03 		and	r3, r3, #254
 191 0038 2370     		strb	r3, [r4]
 192 003a 2378     		ldrb	r3, [r4]	@ zero_extendqisi2
 193 003c DBB2     		uxtb	r3, r3
 194 003e 3B4F     		ldr	r7, .L12+8
 195 0040 3B60     		str	r3, [r7]
ARM GAS  C:\Users\ingan\AppData\Local\Temp\ccl4K6ei.s 			page 10


 319:main.c        ****   // ****** write register begin ******
 320:main.c        ****   //ym2612_write_step(reg);
 321:main.c        ****     // CS Pin low
 322:main.c        ****   GPIO_CLEAR(YM_CS);
 196              		.loc 1 322 0
 197 0042 2378     		ldrb	r3, [r4]	@ zero_extendqisi2
 198 0044 03F0F703 		and	r3, r3, #247
 199 0048 2370     		strb	r3, [r4]
 200 004a 2378     		ldrb	r3, [r4]	@ zero_extendqisi2
 201 004c DBB2     		uxtb	r3, r3
 202 004e 3B60     		str	r3, [r7]
 323:main.c        ****   // DATA to bus
 324:main.c        ****   //YM_Data_Write(data);
 325:main.c        ****   YM_Data_DR = reg;
 203              		.loc 1 325 0
 204 0050 DFF8E080 		ldr	r8, .L12+16
 205 0054 88F80000 		strb	r0, [r8]
 326:main.c        ****   // WR data
 327:main.c        ****   GPIO_CLEAR(YM_WR);
 206              		.loc 1 327 0
 207 0058 2378     		ldrb	r3, [r4]	@ zero_extendqisi2
 208 005a 03F0FB03 		and	r3, r3, #251
 209 005e 2370     		strb	r3, [r4]
 210 0060 2378     		ldrb	r3, [r4]	@ zero_extendqisi2
 211 0062 DBB2     		uxtb	r3, r3
 212 0064 3B60     		str	r3, [r7]
 328:main.c        ****   GPIO_SET(YM_RD);
 213              		.loc 1 328 0
 214 0066 2F4D     		ldr	r5, .L12
 215 0068 2B78     		ldrb	r3, [r5]	@ zero_extendqisi2
 216 006a 43F00203 		orr	r3, r3, #2
 217 006e 2B70     		strb	r3, [r5]
 218 0070 2B78     		ldrb	r3, [r5]	@ zero_extendqisi2
 219 0072 DBB2     		uxtb	r3, r3
 220 0074 2C4E     		ldr	r6, .L12+4
 221 0076 3360     		str	r3, [r6]
 329:main.c        ****   CyDelayCycles(1);
 222              		.loc 1 329 0
 223 0078 0120     		movs	r0, #1
 224              	.LVL8:
 225 007a FFF7FEFF 		bl	CyDelayCycles
 226              	.LVL9:
 330:main.c        ****   //CyDelayUs(1);
 331:main.c        ****   GPIO_SET(YM_WR);
 227              		.loc 1 331 0
 228 007e 2378     		ldrb	r3, [r4]	@ zero_extendqisi2
 229 0080 43F00403 		orr	r3, r3, #4
 230 0084 2370     		strb	r3, [r4]
 231 0086 2378     		ldrb	r3, [r4]	@ zero_extendqisi2
 232 0088 DBB2     		uxtb	r3, r3
 233 008a 3360     		str	r3, [r6]
 332:main.c        ****   GPIO_CLEAR(YM_RD);
 234              		.loc 1 332 0
 235 008c 2B78     		ldrb	r3, [r5]	@ zero_extendqisi2
 236 008e 03F0FD03 		and	r3, r3, #253
 237 0092 2B70     		strb	r3, [r5]
 238 0094 2B78     		ldrb	r3, [r5]	@ zero_extendqisi2
ARM GAS  C:\Users\ingan\AppData\Local\Temp\ccl4K6ei.s 			page 11


 239 0096 DBB2     		uxtb	r3, r3
 240 0098 3B60     		str	r3, [r7]
 333:main.c        ****   // CS Pin high
 334:main.c        ****   GPIO_SET(YM_CS);
 241              		.loc 1 334 0
 242 009a 2378     		ldrb	r3, [r4]	@ zero_extendqisi2
 243 009c 43F00803 		orr	r3, r3, #8
 244 00a0 2370     		strb	r3, [r4]
 245 00a2 2378     		ldrb	r3, [r4]	@ zero_extendqisi2
 246 00a4 DBB2     		uxtb	r3, r3
 247 00a6 3360     		str	r3, [r6]
 335:main.c        ****   //CyDelayUs(1);
 336:main.c        ****   CyDelayCycles(1);
 248              		.loc 1 336 0
 249 00a8 0120     		movs	r0, #1
 250 00aa FFF7FEFF 		bl	CyDelayCycles
 251              	.LVL10:
 337:main.c        ****   // ****** write register end ******
 338:main.c        ****   // data part 0 (channels 1-3)
 339:main.c        ****   // A1 low, A0 high
 340:main.c        ****   GPIO_SET(YM_A0);
 252              		.loc 1 340 0
 253 00ae 2378     		ldrb	r3, [r4]	@ zero_extendqisi2
 254 00b0 43F00103 		orr	r3, r3, #1
 255 00b4 2370     		strb	r3, [r4]
 256 00b6 2378     		ldrb	r3, [r4]	@ zero_extendqisi2
 257 00b8 DBB2     		uxtb	r3, r3
 258 00ba 3360     		str	r3, [r6]
 341:main.c        ****   // ****** write register begin ******
 342:main.c        ****   //ym2612_write_step(data);
 343:main.c        ****     // CS Pin low
 344:main.c        ****   GPIO_CLEAR(YM_CS);
 259              		.loc 1 344 0
 260 00bc 2378     		ldrb	r3, [r4]	@ zero_extendqisi2
 261 00be 03F0F703 		and	r3, r3, #247
 262 00c2 2370     		strb	r3, [r4]
 263 00c4 2378     		ldrb	r3, [r4]	@ zero_extendqisi2
 264 00c6 DBB2     		uxtb	r3, r3
 265 00c8 3B60     		str	r3, [r7]
 345:main.c        ****   // DATA to bus
 346:main.c        ****   //YM_Data_Write(data);
 347:main.c        ****   YM_Data_DR = data;
 266              		.loc 1 347 0
 267 00ca 88F80090 		strb	r9, [r8]
 348:main.c        ****   // WR data
 349:main.c        ****   GPIO_CLEAR(YM_WR);
 268              		.loc 1 349 0
 269 00ce 2378     		ldrb	r3, [r4]	@ zero_extendqisi2
 270 00d0 03F0FB03 		and	r3, r3, #251
 271 00d4 2370     		strb	r3, [r4]
 272 00d6 2378     		ldrb	r3, [r4]	@ zero_extendqisi2
 273 00d8 DBB2     		uxtb	r3, r3
 274 00da 3B60     		str	r3, [r7]
 350:main.c        ****   GPIO_SET(YM_RD);
 275              		.loc 1 350 0
 276 00dc 2B78     		ldrb	r3, [r5]	@ zero_extendqisi2
 277 00de 43F00203 		orr	r3, r3, #2
ARM GAS  C:\Users\ingan\AppData\Local\Temp\ccl4K6ei.s 			page 12


 278 00e2 2B70     		strb	r3, [r5]
 279 00e4 2B78     		ldrb	r3, [r5]	@ zero_extendqisi2
 280 00e6 DBB2     		uxtb	r3, r3
 281 00e8 3360     		str	r3, [r6]
 351:main.c        ****   CyDelayCycles(1);
 282              		.loc 1 351 0
 283 00ea 0120     		movs	r0, #1
 284 00ec FFF7FEFF 		bl	CyDelayCycles
 285              	.LVL11:
 352:main.c        ****   //CyDelayUs(1);
 353:main.c        ****   GPIO_SET(YM_WR);
 286              		.loc 1 353 0
 287 00f0 2378     		ldrb	r3, [r4]	@ zero_extendqisi2
 288 00f2 43F00403 		orr	r3, r3, #4
 289 00f6 2370     		strb	r3, [r4]
 290 00f8 2378     		ldrb	r3, [r4]	@ zero_extendqisi2
 291 00fa DBB2     		uxtb	r3, r3
 292 00fc 3360     		str	r3, [r6]
 354:main.c        ****   GPIO_CLEAR(YM_RD);
 293              		.loc 1 354 0
 294 00fe 2B78     		ldrb	r3, [r5]	@ zero_extendqisi2
 295 0100 03F0FD03 		and	r3, r3, #253
 296 0104 2B70     		strb	r3, [r5]
 297 0106 2B78     		ldrb	r3, [r5]	@ zero_extendqisi2
 298 0108 DBB2     		uxtb	r3, r3
 299 010a 3B60     		str	r3, [r7]
 355:main.c        ****   // CS Pin high
 356:main.c        ****   GPIO_SET(YM_CS);
 300              		.loc 1 356 0
 301 010c 2378     		ldrb	r3, [r4]	@ zero_extendqisi2
 302 010e 43F00803 		orr	r3, r3, #8
 303 0112 2370     		strb	r3, [r4]
 304 0114 2378     		ldrb	r3, [r4]	@ zero_extendqisi2
 305 0116 DBB2     		uxtb	r3, r3
 306 0118 3360     		str	r3, [r6]
 357:main.c        ****   //CyDelayUs(1);
 358:main.c        ****   CyDelayCycles(1);
 307              		.loc 1 358 0
 308 011a 0120     		movs	r0, #1
 309 011c FFF7FEFF 		bl	CyDelayCycles
 310              	.LVL12:
 311 0120 BDE8F883 		pop	{r3, r4, r5, r6, r7, r8, r9, pc}
 312              	.L13:
 313              		.align	2
 314              	.L12:
 315 0124 F0510040 		.word	1073762800
 316 0128 00000000 		.word	volatile_reg_val_1
 317 012c 00000000 		.word	volatile_reg_val_0
 318 0130 C0510040 		.word	1073762752
 319 0134 20510040 		.word	1073762592
 320              		.cfi_endproc
 321              	.LFE68:
 322              		.size	ym2612_write, .-ym2612_write
 323              		.section	.text.sn76489_write,"ax",%progbits
 324              		.align	2
 325              		.global	sn76489_write
 326              		.thumb
ARM GAS  C:\Users\ingan\AppData\Local\Temp\ccl4K6ei.s 			page 13


 327              		.thumb_func
 328              		.type	sn76489_write, %function
 329              	sn76489_write:
 330              	.LFB69:
 359:main.c        ****   // ****** write register end ******
 360:main.c        **** }
 361:main.c        **** 
 362:main.c        **** /*
 363:main.c        **** void sn76489_write(uint8_t data)
 364:main.c        **** {
 365:main.c        ****   //data = flip_byte(data);  
 366:main.c        ****   SN_WE_Write(1);
 367:main.c        ****   YM_Data_Write(data);
 368:main.c        ****   SN_WE_Write(0);
 369:main.c        ****   //CyDelayCycles(1);
 370:main.c        ****   CyDelayUs(10);
 371:main.c        ****   SN_WE_Write(1);
 372:main.c        **** }
 373:main.c        **** */
 374:main.c        **** 
 375:main.c        **** void sn76489_write(uint8_t data)
 376:main.c        **** {
 331              		.loc 1 376 0
 332              		.cfi_startproc
 333              		@ args = 0, pretend = 0, frame = 0
 334              		@ frame_needed = 0, uses_anonymous_args = 0
 335              	.LVL13:
 336 0000 38B5     		push	{r3, r4, r5, lr}
 337              		.cfi_def_cfa_offset 16
 338              		.cfi_offset 3, -16
 339              		.cfi_offset 4, -12
 340              		.cfi_offset 5, -8
 341              		.cfi_offset 14, -4
 377:main.c        ****   //data = flip_byte(data);  
 378:main.c        ****   GPIO_SET(SN_WE);
 342              		.loc 1 378 0
 343 0002 0F4C     		ldr	r4, .L16
 344 0004 2378     		ldrb	r3, [r4]	@ zero_extendqisi2
 345 0006 43F08003 		orr	r3, r3, #128
 346 000a 2370     		strb	r3, [r4]
 347 000c 2378     		ldrb	r3, [r4]	@ zero_extendqisi2
 348 000e DBB2     		uxtb	r3, r3
 349 0010 0C4D     		ldr	r5, .L16+4
 350 0012 2B60     		str	r3, [r5]
 379:main.c        ****   YM_Data_DR = data;
 351              		.loc 1 379 0
 352 0014 0C4B     		ldr	r3, .L16+8
 353 0016 1870     		strb	r0, [r3]
 380:main.c        ****   GPIO_CLEAR(SN_WE);
 354              		.loc 1 380 0
 355 0018 2378     		ldrb	r3, [r4]	@ zero_extendqisi2
 356 001a 03F07F03 		and	r3, r3, #127
 357 001e 2370     		strb	r3, [r4]
 358 0020 2378     		ldrb	r3, [r4]	@ zero_extendqisi2
 359 0022 DBB2     		uxtb	r3, r3
 360 0024 094A     		ldr	r2, .L16+12
 361 0026 1360     		str	r3, [r2]
ARM GAS  C:\Users\ingan\AppData\Local\Temp\ccl4K6ei.s 			page 14


 381:main.c        ****   //CyDelayCycles(1);
 382:main.c        ****   CyDelayUs(10);
 362              		.loc 1 382 0
 363 0028 0A20     		movs	r0, #10
 364              	.LVL14:
 365 002a FFF7FEFF 		bl	CyDelayUs
 366              	.LVL15:
 383:main.c        ****   GPIO_SET(SN_WE);
 367              		.loc 1 383 0
 368 002e 2378     		ldrb	r3, [r4]	@ zero_extendqisi2
 369 0030 43F08003 		orr	r3, r3, #128
 370 0034 2370     		strb	r3, [r4]
 371 0036 2378     		ldrb	r3, [r4]	@ zero_extendqisi2
 372 0038 DBB2     		uxtb	r3, r3
 373 003a 2B60     		str	r3, [r5]
 374 003c 38BD     		pop	{r3, r4, r5, pc}
 375              	.L17:
 376 003e 00BF     		.align	2
 377              	.L16:
 378 0040 00510040 		.word	1073762560
 379 0044 00000000 		.word	volatile_reg_val_1
 380 0048 20510040 		.word	1073762592
 381 004c 00000000 		.word	volatile_reg_val_0
 382              		.cfi_endproc
 383              	.LFE69:
 384              		.size	sn76489_write, .-sn76489_write
 385              		.section	.text.ym2612_reset,"ax",%progbits
 386              		.align	2
 387              		.global	ym2612_reset
 388              		.thumb
 389              		.thumb_func
 390              		.type	ym2612_reset, %function
 391              	ym2612_reset:
 392              	.LFB70:
 384:main.c        **** }
 385:main.c        **** 
 386:main.c        **** void ym2612_reset()
 387:main.c        **** {
 393              		.loc 1 387 0
 394              		.cfi_startproc
 395              		@ args = 0, pretend = 0, frame = 0
 396              		@ frame_needed = 0, uses_anonymous_args = 0
 397 0000 08B5     		push	{r3, lr}
 398              		.cfi_def_cfa_offset 8
 399              		.cfi_offset 3, -8
 400              		.cfi_offset 14, -4
 388:main.c        ****   //YM_IC_Write(0);
 389:main.c        ****   //CyDelayUs(1);
 390:main.c        ****   //YM_IC_Write(1);
 391:main.c        ****   YM_IC_Write(0);
 401              		.loc 1 391 0
 402 0002 0020     		movs	r0, #0
 403 0004 FFF7FEFF 		bl	YM_IC_Write
 404              	.LVL16:
 392:main.c        ****   CyDelay(10);
 405              		.loc 1 392 0
 406 0008 0A20     		movs	r0, #10
ARM GAS  C:\Users\ingan\AppData\Local\Temp\ccl4K6ei.s 			page 15


 407 000a FFF7FEFF 		bl	CyDelay
 408              	.LVL17:
 393:main.c        ****   YM_IC_Write(1);
 409              		.loc 1 393 0
 410 000e 0120     		movs	r0, #1
 411 0010 FFF7FEFF 		bl	YM_IC_Write
 412              	.LVL18:
 394:main.c        ****   CyDelay(10);  
 413              		.loc 1 394 0
 414 0014 0A20     		movs	r0, #10
 415 0016 FFF7FEFF 		bl	CyDelay
 416              	.LVL19:
 417 001a 08BD     		pop	{r3, pc}
 418              		.cfi_endproc
 419              	.LFE70:
 420              		.size	ym2612_reset, .-ym2612_reset
 421              		.section	.text.ym2612_init,"ax",%progbits
 422              		.align	2
 423              		.global	ym2612_init
 424              		.thumb
 425              		.thumb_func
 426              		.type	ym2612_init, %function
 427              	ym2612_init:
 428              	.LFB71:
 395:main.c        ****   // Silence channel-0 to channel-6
 396:main.c        ****   //for (uint8_t ch = 0; ch <= 6; ++ch)
 397:main.c        ****   //  ym2612_write(0x28, ch, 0);
 398:main.c        **** }
 399:main.c        **** 
 400:main.c        **** void ym2612_init (void)
 401:main.c        **** {
 429              		.loc 1 401 0
 430              		.cfi_startproc
 431              		@ args = 0, pretend = 0, frame = 0
 432              		@ frame_needed = 0, uses_anonymous_args = 0
 433 0000 08B5     		push	{r3, lr}
 434              		.cfi_def_cfa_offset 8
 435              		.cfi_offset 3, -8
 436              		.cfi_offset 14, -4
 402:main.c        ****   YM_CS_Write(1);
 437              		.loc 1 402 0
 438 0002 0120     		movs	r0, #1
 439 0004 FFF7FEFF 		bl	YM_CS_Write
 440              	.LVL20:
 403:main.c        ****   YM_WR_Write(1);
 441              		.loc 1 403 0
 442 0008 0120     		movs	r0, #1
 443 000a FFF7FEFF 		bl	YM_WR_Write
 444              	.LVL21:
 404:main.c        ****   YM_RD_Write(1);
 445              		.loc 1 404 0
 446 000e 0120     		movs	r0, #1
 447 0010 FFF7FEFF 		bl	YM_RD_Write
 448              	.LVL22:
 405:main.c        ****   YM_IC_Write(1);
 449              		.loc 1 405 0
 450 0014 0120     		movs	r0, #1
ARM GAS  C:\Users\ingan\AppData\Local\Temp\ccl4K6ei.s 			page 16


 451 0016 FFF7FEFF 		bl	YM_IC_Write
 452              	.LVL23:
 406:main.c        ****   YM_A0_Write(0);
 453              		.loc 1 406 0
 454 001a 0020     		movs	r0, #0
 455 001c FFF7FEFF 		bl	YM_A0_Write
 456              	.LVL24:
 407:main.c        ****   YM_A1_Write(0);
 457              		.loc 1 407 0
 458 0020 0020     		movs	r0, #0
 459 0022 FFF7FEFF 		bl	YM_A1_Write
 460              	.LVL25:
 408:main.c        ****   YM_Data_Write(0xff);
 461              		.loc 1 408 0
 462 0026 FF20     		movs	r0, #255
 463 0028 FFF7FEFF 		bl	YM_Data_Write
 464              	.LVL26:
 465 002c 08BD     		pop	{r3, pc}
 466              		.cfi_endproc
 467              	.LFE71:
 468              		.size	ym2612_init, .-ym2612_init
 469 002e 00BF     		.section	.text.SilenceAllChannels,"ax",%progbits
 470              		.align	2
 471              		.global	SilenceAllChannels
 472              		.thumb
 473              		.thumb_func
 474              		.type	SilenceAllChannels, %function
 475              	SilenceAllChannels:
 476              	.LFB72:
 409:main.c        **** }
 410:main.c        **** 
 411:main.c        **** void SilenceAllChannels()
 412:main.c        **** {  
 477              		.loc 1 412 0
 478              		.cfi_startproc
 479              		@ args = 0, pretend = 0, frame = 0
 480              		@ frame_needed = 0, uses_anonymous_args = 0
 481 0000 08B5     		push	{r3, lr}
 482              		.cfi_def_cfa_offset 8
 483              		.cfi_offset 3, -8
 484              		.cfi_offset 14, -4
 413:main.c        ****   sn76489_write(0x9f);
 485              		.loc 1 413 0
 486 0002 9F20     		movs	r0, #159
 487 0004 FFF7FEFF 		bl	sn76489_write
 488              	.LVL27:
 414:main.c        ****   sn76489_write(0xbf);
 489              		.loc 1 414 0
 490 0008 BF20     		movs	r0, #191
 491 000a FFF7FEFF 		bl	sn76489_write
 492              	.LVL28:
 415:main.c        ****   sn76489_write(0xdf);
 493              		.loc 1 415 0
 494 000e DF20     		movs	r0, #223
 495 0010 FFF7FEFF 		bl	sn76489_write
 496              	.LVL29:
 416:main.c        ****   sn76489_write(0xff);
ARM GAS  C:\Users\ingan\AppData\Local\Temp\ccl4K6ei.s 			page 17


 497              		.loc 1 416 0
 498 0014 FF20     		movs	r0, #255
 499 0016 FFF7FEFF 		bl	sn76489_write
 500              	.LVL30:
 417:main.c        **** 
 418:main.c        ****   ym2612_init();
 501              		.loc 1 418 0
 502 001a FFF7FEFF 		bl	ym2612_init
 503              	.LVL31:
 419:main.c        ****   ym2612_reset();
 504              		.loc 1 419 0
 505 001e FFF7FEFF 		bl	ym2612_reset
 506              	.LVL32:
 507 0022 08BD     		pop	{r3, pc}
 508              		.cfi_endproc
 509              	.LFE72:
 510              		.size	SilenceAllChannels, .-SilenceAllChannels
 511              		.section	.text.init_hardware,"ax",%progbits
 512              		.align	2
 513              		.global	init_hardware
 514              		.thumb
 515              		.thumb_func
 516              		.type	init_hardware, %function
 517              	init_hardware:
 518              	.LFB66:
 246:main.c        ****     SilenceAllChannels();
 519              		.loc 1 246 0
 520              		.cfi_startproc
 521              		@ args = 0, pretend = 0, frame = 0
 522              		@ frame_needed = 0, uses_anonymous_args = 0
 523 0000 08B5     		push	{r3, lr}
 524              		.cfi_def_cfa_offset 8
 525              		.cfi_offset 3, -8
 526              		.cfi_offset 14, -4
 247:main.c        ****     CyGlobalIntEnable; /* Enable global interrupts. */
 527              		.loc 1 247 0
 528 0002 FFF7FEFF 		bl	SilenceAllChannels
 529              	.LVL33:
 248:main.c        **** 
 530              		.loc 1 248 0
 531              		.syntax unified
 532              	@ 248 "main.c" 1
 533 0006 62B6     		CPSIE   i
 534              	@ 0 "" 2
 250:main.c        **** }
 535              		.loc 1 250 0
 536              		.thumb
 537              		.syntax unified
 538 0008 FFF7FEFF 		bl	tty_init
 539              	.LVL34:
 540 000c 08BD     		pop	{r3, pc}
 541              		.cfi_endproc
 542              	.LFE66:
 543              		.size	init_hardware, .-init_hardware
 544 000e 00BF     		.section	.text.main,"ax",%progbits
 545              		.align	2
 546              		.global	main
ARM GAS  C:\Users\ingan\AppData\Local\Temp\ccl4K6ei.s 			page 18


 547              		.thumb
 548              		.thumb_func
 549              		.type	main, %function
 550              	main:
 551              	.LFB65:
  52:main.c        **** 
 552              		.loc 1 52 0
 553              		.cfi_startproc
 554              		@ args = 0, pretend = 0, frame = 0
 555              		@ frame_needed = 0, uses_anonymous_args = 0
 556 0000 08B5     		push	{r3, lr}
 557              		.cfi_def_cfa_offset 8
 558              		.cfi_offset 3, -8
 559              		.cfi_offset 14, -4
 560              	.LVL35:
  65:main.c        ****     isr_1_StartEx(sampleRateIRQ);
 561              		.loc 1 65 0
 562 0002 FFF7FEFF 		bl	init_hardware
 563              	.LVL36:
  66:main.c        ****     //splash("USBFS-UART demo") ;
 564              		.loc 1 66 0
 565 0006 0A48     		ldr	r0, .L33
 566 0008 FFF7FEFF 		bl	isr_1_StartEx
 567              	.LVL37:
 568              	.L27:
  71:main.c        ****     {
 569              		.loc 1 71 0 discriminator 1
 570 000c FFF7FEFF 		bl	USBUART_CDCIsReady
 571              	.LVL38:
 572 0010 0028     		cmp	r0, #0
 573 0012 FBD0     		beq	.L27
  74:main.c        ****     // fill buffers
 574              		.loc 1 74 0
 575 0014 0748     		ldr	r0, .L33+4
 576 0016 FFF7FEFF 		bl	USBUART_PutString
 577              	.LVL39:
  79:main.c        ****         count_incoming[k] = USBUART_GetAll(bufPtr);
 578              		.loc 1 79 0
 579 001a 074B     		ldr	r3, .L33+8
 580 001c 1B78     		ldrb	r3, [r3]	@ zero_extendqisi2
 581              	.L28:
 582 001e 002B     		cmp	r3, #0
 583 0020 FDD0     		beq	.L28
  80:main.c        ****         //count_vgm = count_incoming;
 584              		.loc 1 80 0
 585 0022 0648     		ldr	r0, .L33+12
 586 0024 FFF7FEFF 		bl	USBUART_GetAll
 587              	.LVL40:
  82:main.c        ****     }
 588              		.loc 1 82 0
 589 0028 0022     		movs	r2, #0
 590 002a 034B     		ldr	r3, .L33+8
 591 002c 1A70     		strb	r2, [r3]
 592              	.LVL41:
 593              	.L29:
 594 002e FEE7     		b	.L29
 595              	.L34:
ARM GAS  C:\Users\ingan\AppData\Local\Temp\ccl4K6ei.s 			page 19


 596              		.align	2
 597              	.L33:
 598 0030 00000000 		.word	sampleRateIRQ
 599 0034 00000000 		.word	.LANCHOR1
 600 0038 00000000 		.word	rx_flag
 601 003c 00000000 		.word	buffer
 602              		.cfi_endproc
 603              	.LFE65:
 604              		.size	main, .-main
 605              		.comm	volatile_reg_val_0,4,4
 606              		.comm	volatile_reg_val_1,4,4
 607              		.global	isrFlag
 608              		.comm	buffer,128,4
 609              		.section	.rodata
 610              		.align	2
 611              		.set	.LANCHOR1,. + 0
 612              	.LC0:
 613 0000 0000     		.ascii	"\000\000"
 614              		.bss
 615              		.set	.LANCHOR0,. + 0
 616              		.type	isrFlag, %object
 617              		.size	isrFlag, 1
 618              	isrFlag:
 619 0000 00       		.space	1
 620              		.text
 621              	.Letext0:
 622              		.file 2 "c:\\program files (x86)\\cypress\\psoc creator\\4.2\\psoc creator\\import\\gnu\\arm\\5.4.
 623              		.file 3 "c:\\program files (x86)\\cypress\\psoc creator\\4.2\\psoc creator\\import\\gnu\\arm\\5.4.
 624              		.file 4 "Generated_Source\\PSoC5/cytypes.h"
 625              		.file 5 "Generated_Source\\PSoC5/core_cm3.h"
 626              		.file 6 "Generated_Source\\PSoC5/CyLib.h"
 627              		.file 7 "Generated_Source\\PSoC5/YM_IC.h"
 628              		.file 8 "Generated_Source\\PSoC5/YM_CS.h"
 629              		.file 9 "Generated_Source\\PSoC5/YM_WR.h"
 630              		.file 10 "Generated_Source\\PSoC5/YM_RD.h"
 631              		.file 11 "Generated_Source\\PSoC5/YM_A0.h"
 632              		.file 12 "Generated_Source\\PSoC5/YM_A1.h"
 633              		.file 13 "Generated_Source\\PSoC5/YM_Data.h"
 634              		.file 14 "tty_utils.h"
 635              		.file 15 "Generated_Source\\PSoC5/isr_1.h"
 636              		.file 16 "Generated_Source\\PSoC5/USBUART_cdc.h"