ARM GAS  C:\Users\ingan\AppData\Local\Temp\cc1nwdM1.s 			page 1


   1              		.syntax unified
   2              		.cpu cortex-m3
   3              		.fpu softvfp
   4              		.eabi_attribute 20, 1
   5              		.eabi_attribute 21, 1
   6              		.eabi_attribute 23, 3
   7              		.eabi_attribute 24, 1
   8              		.eabi_attribute 25, 1
   9              		.eabi_attribute 26, 1
  10              		.eabi_attribute 30, 1
  11              		.eabi_attribute 34, 1
  12              		.eabi_attribute 18, 4
  13              		.thumb
  14              		.syntax unified
  15              		.file	"utils.c"
  16              		.text
  17              	.Ltext0:
  18              		.cfi_sections	.debug_frame
  19              		.section	.text.do_return,"ax",%progbits
  20              		.align	2
  21              		.global	do_return
  22              		.thumb
  23              		.thumb_func
  24              		.type	do_return, %function
  25              	do_return:
  26              	.LFB66:
  27              		.file 1 "utils.c"
   1:utils.c       **** #include "project.h"
   2:utils.c       **** #include "stdio.h"
   3:utils.c       **** #include "stdlib.h"
   4:utils.c       **** #include "tty_utils.h"
   5:utils.c       **** #include "utils.h"
   6:utils.c       **** 
   7:utils.c       **** static int      keep_on  = 1 ;
   8:utils.c       **** static uint16_t loop     = 1 ;
   9:utils.c       **** static uint16_t interval = 100 ; /* 100 ms */
  10:utils.c       **** static int      sAddress = 0x08 ; 
  11:utils.c       **** static int      delay    = 30 ; /* default 30ms */
  12:utils.c       **** uint16_t        timeoutms = 500 ;
  13:utils.c       **** 
  14:utils.c       **** f_list_type i2c_func_list[] = {
  15:utils.c       ****     { "help",        do_help,       "show help message" },
  16:utils.c       ****     { "loop",        do_loop,       "set loop counts"},
  17:utils.c       ****     { "interval",    do_interval,   "set interval time (ms)"},
  18:utils.c       ****     { "address",     do_address,    "set address" },
  19:utils.c       ****     { "delay",       do_delay,      "set delay between address and command" },
  20:utils.c       ****     { "status",      do_status,     "print config status" },
  21:utils.c       ****     { "return",      do_return,     "return to the previous mode" },
  22:utils.c       ****     { "reset",       do_soft_reset,  "software rest" },
  23:utils.c       ****     { 0,             0,             0} /* list terminator */
  24:utils.c       **** } ;
  25:utils.c       **** 
  26:utils.c       **** void do_demo(void)
  27:utils.c       **** {
  28:utils.c       ****     func_ptr func ;
  29:utils.c       ****     keep_on = 1 ;
  30:utils.c       ****     
ARM GAS  C:\Users\ingan\AppData\Local\Temp\cc1nwdM1.s 			page 2


  31:utils.c       ****     
  32:utils.c       ****     do_help() ;
  33:utils.c       ****     
  34:utils.c       ****     prompt("Demo> ") ;
  35:utils.c       ****     
  36:utils.c       ****     while(keep_on) {
  37:utils.c       ****         if (get_line()) {
  38:utils.c       ****             func = get_func(i2c_func_list, str) ;
  39:utils.c       ****             if (func) {
  40:utils.c       ****                 func() ;
  41:utils.c       ****             } else {
  42:utils.c       ****                 print("Unknown Command: ") ;
  43:utils.c       ****                 print(str) ;
  44:utils.c       ****                 print("\n\r") ;
  45:utils.c       ****                 do_help() ;
  46:utils.c       ****             }
  47:utils.c       ****             if (keep_on) {
  48:utils.c       ****                 prompt("Demo> ") ;
  49:utils.c       ****             }
  50:utils.c       ****         }
  51:utils.c       ****     }
  52:utils.c       **** }
  53:utils.c       **** 
  54:utils.c       **** void do_help(void) 
  55:utils.c       **** {
  56:utils.c       ****     show_help(i2c_func_list) ;    
  57:utils.c       **** }
  58:utils.c       **** 
  59:utils.c       **** void do_return(void) 
  60:utils.c       **** {
  28              		.loc 1 60 0
  29              		.cfi_startproc
  30              		@ args = 0, pretend = 0, frame = 0
  31              		@ frame_needed = 0, uses_anonymous_args = 0
  32              		@ link register save eliminated.
  61:utils.c       ****     keep_on = 0 ;
  33              		.loc 1 61 0
  34 0000 0022     		movs	r2, #0
  35 0002 014B     		ldr	r3, .L2
  36 0004 1A60     		str	r2, [r3]
  37 0006 7047     		bx	lr
  38              	.L3:
  39              		.align	2
  40              	.L2:
  41 0008 00000000 		.word	.LANCHOR0
  42              		.cfi_endproc
  43              	.LFE66:
  44              		.size	do_return, .-do_return
  45              		.section	.text.do_help,"ax",%progbits
  46              		.align	2
  47              		.global	do_help
  48              		.thumb
  49              		.thumb_func
  50              		.type	do_help, %function
  51              	do_help:
  52              	.LFB65:
  55:utils.c       ****     show_help(i2c_func_list) ;    
ARM GAS  C:\Users\ingan\AppData\Local\Temp\cc1nwdM1.s 			page 3


  53              		.loc 1 55 0
  54              		.cfi_startproc
  55              		@ args = 0, pretend = 0, frame = 0
  56              		@ frame_needed = 0, uses_anonymous_args = 0
  57 0000 08B5     		push	{r3, lr}
  58              		.cfi_def_cfa_offset 8
  59              		.cfi_offset 3, -8
  60              		.cfi_offset 14, -4
  56:utils.c       **** }
  61              		.loc 1 56 0
  62 0002 0248     		ldr	r0, .L6
  63 0004 FFF7FEFF 		bl	show_help
  64              	.LVL0:
  65 0008 08BD     		pop	{r3, pc}
  66              	.L7:
  67 000a 00BF     		.align	2
  68              	.L6:
  69 000c 04000000 		.word	.LANCHOR0+4
  70              		.cfi_endproc
  71              	.LFE65:
  72              		.size	do_help, .-do_help
  73              		.section	.text.do_soft_reset,"ax",%progbits
  74              		.align	2
  75              		.global	do_soft_reset
  76              		.thumb
  77              		.thumb_func
  78              		.type	do_soft_reset, %function
  79              	do_soft_reset:
  80              	.LFB67:
  62:utils.c       **** }
  63:utils.c       **** 
  64:utils.c       **** void do_soft_reset(void)
  65:utils.c       **** {
  81              		.loc 1 65 0
  82              		.cfi_startproc
  83              		@ args = 0, pretend = 0, frame = 0
  84              		@ frame_needed = 0, uses_anonymous_args = 0
  85 0000 08B5     		push	{r3, lr}
  86              		.cfi_def_cfa_offset 8
  87              		.cfi_offset 3, -8
  88              		.cfi_offset 14, -4
  66:utils.c       ****     CySoftwareReset();
  89              		.loc 1 66 0
  90 0002 FFF7FEFF 		bl	CySoftwareReset
  91              	.LVL1:
  92 0006 08BD     		pop	{r3, pc}
  93              		.cfi_endproc
  94              	.LFE67:
  95              		.size	do_soft_reset, .-do_soft_reset
  96              		.section	.text.do_loop,"ax",%progbits
  97              		.align	2
  98              		.global	do_loop
  99              		.thumb
 100              		.thumb_func
 101              		.type	do_loop, %function
 102              	do_loop:
 103              	.LFB68:
ARM GAS  C:\Users\ingan\AppData\Local\Temp\cc1nwdM1.s 			page 4


  67:utils.c       **** }
  68:utils.c       **** 
  69:utils.c       **** void do_loop(void) 
  70:utils.c       **** {
 104              		.loc 1 70 0
 105              		.cfi_startproc
 106              		@ args = 0, pretend = 0, frame = 0
 107              		@ frame_needed = 0, uses_anonymous_args = 0
 108 0000 08B5     		push	{r3, lr}
 109              		.cfi_def_cfa_offset 8
 110              		.cfi_offset 3, -8
 111              		.cfi_offset 14, -4
  71:utils.c       ****     sscanf(str, "%*s %hd", &loop) ;
 112              		.loc 1 71 0
 113 0002 034A     		ldr	r2, .L12
 114 0004 0349     		ldr	r1, .L12+4
 115 0006 0448     		ldr	r0, .L12+8
 116 0008 FFF7FEFF 		bl	sscanf
 117              	.LVL2:
 118 000c 08BD     		pop	{r3, pc}
 119              	.L13:
 120 000e 00BF     		.align	2
 121              	.L12:
 122 0010 70000000 		.word	.LANCHOR0+112
 123 0014 00000000 		.word	.LC0
 124 0018 00000000 		.word	str
 125              		.cfi_endproc
 126              	.LFE68:
 127              		.size	do_loop, .-do_loop
 128              		.section	.text.do_interval,"ax",%progbits
 129              		.align	2
 130              		.global	do_interval
 131              		.thumb
 132              		.thumb_func
 133              		.type	do_interval, %function
 134              	do_interval:
 135              	.LFB69:
  72:utils.c       **** }
  73:utils.c       **** 
  74:utils.c       **** void do_interval(void) 
  75:utils.c       **** {
 136              		.loc 1 75 0
 137              		.cfi_startproc
 138              		@ args = 0, pretend = 0, frame = 0
 139              		@ frame_needed = 0, uses_anonymous_args = 0
 140 0000 08B5     		push	{r3, lr}
 141              		.cfi_def_cfa_offset 8
 142              		.cfi_offset 3, -8
 143              		.cfi_offset 14, -4
  76:utils.c       ****     sscanf(str, "%*s %hd", &interval) ;
 144              		.loc 1 76 0
 145 0002 034A     		ldr	r2, .L16
 146 0004 0349     		ldr	r1, .L16+4
 147 0006 0448     		ldr	r0, .L16+8
 148 0008 FFF7FEFF 		bl	sscanf
 149              	.LVL3:
 150 000c 08BD     		pop	{r3, pc}
ARM GAS  C:\Users\ingan\AppData\Local\Temp\cc1nwdM1.s 			page 5


 151              	.L17:
 152 000e 00BF     		.align	2
 153              	.L16:
 154 0010 72000000 		.word	.LANCHOR0+114
 155 0014 00000000 		.word	.LC0
 156 0018 00000000 		.word	str
 157              		.cfi_endproc
 158              	.LFE69:
 159              		.size	do_interval, .-do_interval
 160              		.section	.text.do_delay,"ax",%progbits
 161              		.align	2
 162              		.global	do_delay
 163              		.thumb
 164              		.thumb_func
 165              		.type	do_delay, %function
 166              	do_delay:
 167              	.LFB70:
  77:utils.c       **** }
  78:utils.c       **** 
  79:utils.c       **** void do_delay(void)
  80:utils.c       **** {
 168              		.loc 1 80 0
 169              		.cfi_startproc
 170              		@ args = 0, pretend = 0, frame = 0
 171              		@ frame_needed = 0, uses_anonymous_args = 0
 172 0000 08B5     		push	{r3, lr}
 173              		.cfi_def_cfa_offset 8
 174              		.cfi_offset 3, -8
 175              		.cfi_offset 14, -4
  81:utils.c       ****     sscanf(str, "%*s %d", &delay) ;
 176              		.loc 1 81 0
 177 0002 034A     		ldr	r2, .L20
 178 0004 0349     		ldr	r1, .L20+4
 179 0006 0448     		ldr	r0, .L20+8
 180 0008 FFF7FEFF 		bl	sscanf
 181              	.LVL4:
 182 000c 08BD     		pop	{r3, pc}
 183              	.L21:
 184 000e 00BF     		.align	2
 185              	.L20:
 186 0010 74000000 		.word	.LANCHOR0+116
 187 0014 08000000 		.word	.LC1
 188 0018 00000000 		.word	str
 189              		.cfi_endproc
 190              	.LFE70:
 191              		.size	do_delay, .-do_delay
 192              		.section	.text.do_address,"ax",%progbits
 193              		.align	2
 194              		.global	do_address
 195              		.thumb
 196              		.thumb_func
 197              		.type	do_address, %function
 198              	do_address:
 199              	.LFB72:
  82:utils.c       **** }
  83:utils.c       **** 
  84:utils.c       **** void do_status(void) 
ARM GAS  C:\Users\ingan\AppData\Local\Temp\cc1nwdM1.s 			page 6


  85:utils.c       **** {
  86:utils.c       ****     snprintf(str, STR_BUF_LEN, "Config: address: 0x%02X (%d)\n\r",
  87:utils.c       ****         sAddress, sAddress) ;
  88:utils.c       ****     print(str) ;
  89:utils.c       **** }
  90:utils.c       **** 
  91:utils.c       **** 
  92:utils.c       **** void do_address(void) 
  93:utils.c       **** {
 200              		.loc 1 93 0
 201              		.cfi_startproc
 202              		@ args = 0, pretend = 0, frame = 0
 203              		@ frame_needed = 0, uses_anonymous_args = 0
 204 0000 08B5     		push	{r3, lr}
 205              		.cfi_def_cfa_offset 8
 206              		.cfi_offset 3, -8
 207              		.cfi_offset 14, -4
  94:utils.c       ****     sscanf(str, "%*s %d", &sAddress) ;
 208              		.loc 1 94 0
 209 0002 034A     		ldr	r2, .L24
 210 0004 0349     		ldr	r1, .L24+4
 211 0006 0448     		ldr	r0, .L24+8
 212 0008 FFF7FEFF 		bl	sscanf
 213              	.LVL5:
 214 000c 08BD     		pop	{r3, pc}
 215              	.L25:
 216 000e 00BF     		.align	2
 217              	.L24:
 218 0010 78000000 		.word	.LANCHOR0+120
 219 0014 08000000 		.word	.LC1
 220 0018 00000000 		.word	str
 221              		.cfi_endproc
 222              	.LFE72:
 223              		.size	do_address, .-do_address
 224              		.section	.text.do_status,"ax",%progbits
 225              		.align	2
 226              		.global	do_status
 227              		.thumb
 228              		.thumb_func
 229              		.type	do_status, %function
 230              	do_status:
 231              	.LFB71:
  85:utils.c       ****     snprintf(str, STR_BUF_LEN, "Config: address: 0x%02X (%d)\n\r",
 232              		.loc 1 85 0
 233              		.cfi_startproc
 234              		@ args = 0, pretend = 0, frame = 0
 235              		@ frame_needed = 0, uses_anonymous_args = 0
 236 0000 10B5     		push	{r4, lr}
 237              		.cfi_def_cfa_offset 8
 238              		.cfi_offset 4, -8
 239              		.cfi_offset 14, -4
 240 0002 82B0     		sub	sp, sp, #8
 241              		.cfi_def_cfa_offset 16
  86:utils.c       ****         sAddress, sAddress) ;
 242              		.loc 1 86 0
 243 0004 064B     		ldr	r3, .L28
 244 0006 9B6F     		ldr	r3, [r3, #120]
ARM GAS  C:\Users\ingan\AppData\Local\Temp\cc1nwdM1.s 			page 7


 245 0008 064C     		ldr	r4, .L28+4
 246 000a 0093     		str	r3, [sp]
 247 000c 064A     		ldr	r2, .L28+8
 248 000e 4021     		movs	r1, #64
 249 0010 2046     		mov	r0, r4
 250 0012 FFF7FEFF 		bl	snprintf
 251              	.LVL6:
  88:utils.c       **** }
 252              		.loc 1 88 0
 253 0016 2046     		mov	r0, r4
 254 0018 FFF7FEFF 		bl	print
 255              	.LVL7:
  89:utils.c       **** 
 256              		.loc 1 89 0
 257 001c 02B0     		add	sp, sp, #8
 258              		.cfi_def_cfa_offset 8
 259              		@ sp needed
 260 001e 10BD     		pop	{r4, pc}
 261              	.L29:
 262              		.align	2
 263              	.L28:
 264 0020 00000000 		.word	.LANCHOR0
 265 0024 00000000 		.word	str
 266 0028 10000000 		.word	.LC2
 267              		.cfi_endproc
 268              	.LFE71:
 269              		.size	do_status, .-do_status
 270              		.section	.text.do_demo,"ax",%progbits
 271              		.align	2
 272              		.global	do_demo
 273              		.thumb
 274              		.thumb_func
 275              		.type	do_demo, %function
 276              	do_demo:
 277              	.LFB64:
  27:utils.c       ****     func_ptr func ;
 278              		.loc 1 27 0
 279              		.cfi_startproc
 280              		@ args = 0, pretend = 0, frame = 0
 281              		@ frame_needed = 0, uses_anonymous_args = 0
 282 0000 38B5     		push	{r3, r4, r5, lr}
 283              		.cfi_def_cfa_offset 16
 284              		.cfi_offset 3, -16
 285              		.cfi_offset 4, -12
 286              		.cfi_offset 5, -8
 287              		.cfi_offset 14, -4
  29:utils.c       ****     
 288              		.loc 1 29 0
 289 0002 0122     		movs	r2, #1
 290 0004 134B     		ldr	r3, .L40
 291 0006 1A60     		str	r2, [r3]
  32:utils.c       ****     
 292              		.loc 1 32 0
 293 0008 FFF7FEFF 		bl	do_help
 294              	.LVL8:
  34:utils.c       ****     
 295              		.loc 1 34 0
ARM GAS  C:\Users\ingan\AppData\Local\Temp\cc1nwdM1.s 			page 8


 296 000c 1248     		ldr	r0, .L40+4
 297 000e FFF7FEFF 		bl	prompt
 298              	.LVL9:
  36:utils.c       ****         if (get_line()) {
 299              		.loc 1 36 0
 300 0012 104C     		ldr	r4, .L40
  38:utils.c       ****             if (func) {
 301              		.loc 1 38 0
 302 0014 114D     		ldr	r5, .L40+8
  36:utils.c       ****         if (get_line()) {
 303              		.loc 1 36 0
 304 0016 19E0     		b	.L32
 305              	.L36:
  37:utils.c       ****             func = get_func(i2c_func_list, str) ;
 306              		.loc 1 37 0
 307 0018 FFF7FEFF 		bl	get_line
 308              	.LVL10:
 309 001c B0B1     		cbz	r0, .L32
  38:utils.c       ****             if (func) {
 310              		.loc 1 38 0
 311 001e 2946     		mov	r1, r5
 312 0020 201D     		adds	r0, r4, #4
 313 0022 FFF7FEFF 		bl	get_func
 314              	.LVL11:
  39:utils.c       ****                 func() ;
 315              		.loc 1 39 0
 316 0026 08B1     		cbz	r0, .L33
  40:utils.c       ****             } else {
 317              		.loc 1 40 0
 318 0028 8047     		blx	r0
 319              	.LVL12:
 320 002a 0AE0     		b	.L34
 321              	.LVL13:
 322              	.L33:
  42:utils.c       ****                 print(str) ;
 323              		.loc 1 42 0
 324 002c 0C48     		ldr	r0, .L40+12
 325              	.LVL14:
 326 002e FFF7FEFF 		bl	print
 327              	.LVL15:
  43:utils.c       ****                 print("\n\r") ;
 328              		.loc 1 43 0
 329 0032 2846     		mov	r0, r5
 330 0034 FFF7FEFF 		bl	print
 331              	.LVL16:
  44:utils.c       ****                 do_help() ;
 332              		.loc 1 44 0
 333 0038 0A48     		ldr	r0, .L40+16
 334 003a FFF7FEFF 		bl	print
 335              	.LVL17:
  45:utils.c       ****             }
 336              		.loc 1 45 0
 337 003e FFF7FEFF 		bl	do_help
 338              	.LVL18:
 339              	.L34:
  47:utils.c       ****                 prompt("Demo> ") ;
 340              		.loc 1 47 0
ARM GAS  C:\Users\ingan\AppData\Local\Temp\cc1nwdM1.s 			page 9


 341 0042 2368     		ldr	r3, [r4]
 342 0044 13B1     		cbz	r3, .L32
  48:utils.c       ****             }
 343              		.loc 1 48 0
 344 0046 0448     		ldr	r0, .L40+4
 345 0048 FFF7FEFF 		bl	prompt
 346              	.LVL19:
 347              	.L32:
  36:utils.c       ****         if (get_line()) {
 348              		.loc 1 36 0
 349 004c 2368     		ldr	r3, [r4]
 350 004e 002B     		cmp	r3, #0
 351 0050 E2D1     		bne	.L36
  52:utils.c       **** 
 352              		.loc 1 52 0
 353 0052 38BD     		pop	{r3, r4, r5, pc}
 354              	.L41:
 355              		.align	2
 356              	.L40:
 357 0054 00000000 		.word	.LANCHOR0
 358 0058 30000000 		.word	.LC3
 359 005c 00000000 		.word	str
 360 0060 38000000 		.word	.LC4
 361 0064 4C000000 		.word	.LC5
 362              		.cfi_endproc
 363              	.LFE64:
 364              		.size	do_demo, .-do_demo
 365              		.global	i2c_func_list
 366              		.global	timeoutms
 367              		.data
 368              		.align	2
 369              		.set	.LANCHOR0,. + 0
 370              		.type	keep_on, %object
 371              		.size	keep_on, 4
 372              	keep_on:
 373 0000 01000000 		.word	1
 374              		.type	i2c_func_list, %object
 375              		.size	i2c_func_list, 108
 376              	i2c_func_list:
 377 0004 50000000 		.word	.LC6
 378 0008 00000000 		.word	do_help
 379 000c 58000000 		.word	.LC7
 380 0010 6C000000 		.word	.LC8
 381 0014 00000000 		.word	do_loop
 382 0018 74000000 		.word	.LC9
 383 001c 84000000 		.word	.LC10
 384 0020 00000000 		.word	do_interval
 385 0024 90000000 		.word	.LC11
 386 0028 A8000000 		.word	.LC12
 387 002c 00000000 		.word	do_address
 388 0030 B0000000 		.word	.LC13
 389 0034 BC000000 		.word	.LC14
 390 0038 00000000 		.word	do_delay
 391 003c C4000000 		.word	.LC15
 392 0040 EC000000 		.word	.LC16
 393 0044 00000000 		.word	do_status
 394 0048 F4000000 		.word	.LC17
ARM GAS  C:\Users\ingan\AppData\Local\Temp\cc1nwdM1.s 			page 10


 395 004c 08010000 		.word	.LC18
 396 0050 00000000 		.word	do_return
 397 0054 10010000 		.word	.LC19
 398 0058 2C010000 		.word	.LC20
 399 005c 00000000 		.word	do_soft_reset
 400 0060 34010000 		.word	.LC21
 401 0064 00000000 		.word	0
 402 0068 00000000 		.word	0
 403 006c 00000000 		.word	0
 404              		.type	loop, %object
 405              		.size	loop, 2
 406              	loop:
 407 0070 0100     		.short	1
 408              		.type	interval, %object
 409              		.size	interval, 2
 410              	interval:
 411 0072 6400     		.short	100
 412              		.type	delay, %object
 413              		.size	delay, 4
 414              	delay:
 415 0074 1E000000 		.word	30
 416              		.type	sAddress, %object
 417              		.size	sAddress, 4
 418              	sAddress:
 419 0078 08000000 		.word	8
 420              		.type	timeoutms, %object
 421              		.size	timeoutms, 2
 422              	timeoutms:
 423 007c F401     		.short	500
 424              		.section	.rodata.str1.4,"aMS",%progbits,1
 425              		.align	2
 426              	.LC0:
 427 0000 252A7320 		.ascii	"%*s %hd\000"
 427      25686400 
 428              	.LC1:
 429 0008 252A7320 		.ascii	"%*s %d\000"
 429      256400
 430 000f 00       		.space	1
 431              	.LC2:
 432 0010 436F6E66 		.ascii	"Config: address: 0x%02X (%d)\012\015\000"
 432      69673A20 
 432      61646472 
 432      6573733A 
 432      20307825 
 433 002f 00       		.space	1
 434              	.LC3:
 435 0030 44656D6F 		.ascii	"Demo> \000"
 435      3E2000
 436 0037 00       		.space	1
 437              	.LC4:
 438 0038 556E6B6E 		.ascii	"Unknown Command: \000"
 438      6F776E20 
 438      436F6D6D 
 438      616E643A 
 438      2000
 439 004a 0000     		.space	2
 440              	.LC5:
ARM GAS  C:\Users\ingan\AppData\Local\Temp\cc1nwdM1.s 			page 11


 441 004c 0A0D00   		.ascii	"\012\015\000"
 442 004f 00       		.space	1
 443              	.LC6:
 444 0050 68656C70 		.ascii	"help\000"
 444      00
 445 0055 000000   		.space	3
 446              	.LC7:
 447 0058 73686F77 		.ascii	"show help message\000"
 447      2068656C 
 447      70206D65 
 447      73736167 
 447      6500
 448 006a 0000     		.space	2
 449              	.LC8:
 450 006c 6C6F6F70 		.ascii	"loop\000"
 450      00
 451 0071 000000   		.space	3
 452              	.LC9:
 453 0074 73657420 		.ascii	"set loop counts\000"
 453      6C6F6F70 
 453      20636F75 
 453      6E747300 
 454              	.LC10:
 455 0084 696E7465 		.ascii	"interval\000"
 455      7276616C 
 455      00
 456 008d 000000   		.space	3
 457              	.LC11:
 458 0090 73657420 		.ascii	"set interval time (ms)\000"
 458      696E7465 
 458      7276616C 
 458      2074696D 
 458      6520286D 
 459 00a7 00       		.space	1
 460              	.LC12:
 461 00a8 61646472 		.ascii	"address\000"
 461      65737300 
 462              	.LC13:
 463 00b0 73657420 		.ascii	"set address\000"
 463      61646472 
 463      65737300 
 464              	.LC14:
 465 00bc 64656C61 		.ascii	"delay\000"
 465      7900
 466 00c2 0000     		.space	2
 467              	.LC15:
 468 00c4 73657420 		.ascii	"set delay between address and command\000"
 468      64656C61 
 468      79206265 
 468      74776565 
 468      6E206164 
 469 00ea 0000     		.space	2
 470              	.LC16:
 471 00ec 73746174 		.ascii	"status\000"
 471      757300
 472 00f3 00       		.space	1
 473              	.LC17:
ARM GAS  C:\Users\ingan\AppData\Local\Temp\cc1nwdM1.s 			page 12


 474 00f4 7072696E 		.ascii	"print config status\000"
 474      7420636F 
 474      6E666967 
 474      20737461 
 474      74757300 
 475              	.LC18:
 476 0108 72657475 		.ascii	"return\000"
 476      726E00
 477 010f 00       		.space	1
 478              	.LC19:
 479 0110 72657475 		.ascii	"return to the previous mode\000"
 479      726E2074 
 479      6F207468 
 479      65207072 
 479      6576696F 
 480              	.LC20:
 481 012c 72657365 		.ascii	"reset\000"
 481      7400
 482 0132 0000     		.space	2
 483              	.LC21:
 484 0134 736F6674 		.ascii	"software rest\000"
 484      77617265 
 484      20726573 
 484      7400
 485              		.text
 486              	.Letext0:
 487              		.file 2 "c:\\program files (x86)\\cypress\\psoc creator\\4.2\\psoc creator\\import\\gnu\\arm\\5.4.
 488              		.file 3 "c:\\program files (x86)\\cypress\\psoc creator\\4.2\\psoc creator\\import\\gnu\\arm\\5.4.
 489              		.file 4 "func_list.h"
 490              		.file 5 "Generated_Source\\PSoC5/core_cm3.h"
 491              		.file 6 "Generated_Source\\PSoC5/CyLib.h"
 492              		.file 7 "c:\\program files (x86)\\cypress\\psoc creator\\4.2\\psoc creator\\import\\gnu\\arm\\5.4.
 493              		.file 8 "tty_utils.h"