ARM GAS  C:\Users\ingan\AppData\Local\Temp\cckGFdli.s 			page 1


   1              		.syntax unified
   2              		.cpu cortex-m3
   3              		.fpu softvfp
   4              		.eabi_attribute 20, 1
   5              		.eabi_attribute 21, 1
   6              		.eabi_attribute 23, 3
   7              		.eabi_attribute 24, 1
   8              		.eabi_attribute 25, 1
   9              		.eabi_attribute 26, 1
  10              		.eabi_attribute 30, 6
  11              		.eabi_attribute 34, 1
  12              		.eabi_attribute 18, 4
  13              		.thumb
  14              		.syntax unified
  15              		.file	"main.c"
  16              		.text
  17              	.Ltext0:
  18              		.cfi_sections	.debug_frame
  19              		.syntax unified
  20              		.global _printf_float
  21              		.thumb
  22              		.syntax unified
  23              		.global	parity
  24              		.section	.rodata
  25              		.align	2
  26              	.LC0:
  27 0000 4E6F6E65 		.ascii	"None\000"
  27      00
  28 0005 000000   		.align	2
  29              	.LC1:
  30 0008 4F646400 		.ascii	"Odd\000"
  31              		.align	2
  32              	.LC2:
  33 000c 4576656E 		.ascii	"Even\000"
  33      00
  34 0011 000000   		.align	2
  35              	.LC3:
  36 0014 4D61726B 		.ascii	"Mark\000"
  36      00
  37 0019 000000   		.align	2
  38              	.LC4:
  39 001c 53706163 		.ascii	"Space\000"
  39      6500
  40              		.data
  41              		.align	2
  42              		.type	parity, %object
  43              		.size	parity, 20
  44              	parity:
  45 0000 00000000 		.word	.LC0
  46 0004 08000000 		.word	.LC1
  47 0008 0C000000 		.word	.LC2
  48 000c 14000000 		.word	.LC3
  49 0010 1C000000 		.word	.LC4
  50              		.global	stop
  51              		.section	.rodata
  52 0022 0000     		.align	2
  53              	.LC5:
ARM GAS  C:\Users\ingan\AppData\Local\Temp\cckGFdli.s 			page 2


  54 0024 3100     		.ascii	"1\000"
  55 0026 0000     		.align	2
  56              	.LC6:
  57 0028 312E3500 		.ascii	"1.5\000"
  58              		.align	2
  59              	.LC7:
  60 002c 3200     		.ascii	"2\000"
  61              		.data
  62              		.align	2
  63              		.type	stop, %object
  64              		.size	stop, 12
  65              	stop:
  66 0014 24000000 		.word	.LC5
  67 0018 28000000 		.word	.LC6
  68 001c 2C000000 		.word	.LC7
  69              		.section	.text.ym2612_write_step,"ax",%progbits
  70              		.align	2
  71              		.global	ym2612_write_step
  72              		.thumb
  73              		.thumb_func
  74              		.type	ym2612_write_step, %function
  75              	ym2612_write_step:
  76              	.LFB64:
  77              		.file 1 "main.c"
   1:main.c        **** /*******************************************************************************
   2:main.c        **** * File Name: main.c
   3:main.c        **** *
   4:main.c        **** * Version: 2.0
   5:main.c        **** *
   6:main.c        **** * Description:
   7:main.c        **** *   The component is enumerated as a Virtual Com port. Receives data from the 
   8:main.c        **** *   hyper terminal, then sends back the received data.
   9:main.c        **** *   For PSoC3/PSoC5LP, the LCD shows the line settings.
  10:main.c        **** *
  11:main.c        **** * Related Document:
  12:main.c        **** *  Universal Serial Bus Specification Revision 2.0
  13:main.c        **** *  Universal Serial Bus Class Definitions for Communications Devices
  14:main.c        **** *  Revision 1.2
  15:main.c        **** *
  16:main.c        **** ********************************************************************************
  17:main.c        **** * Copyright 2015, Cypress Semiconductor Corporation. All rights reserved.
  18:main.c        **** * This software is owned by Cypress Semiconductor Corporation and is protected
  19:main.c        **** * by and subject to worldwide patent and copyright laws and treaties.
  20:main.c        **** * Therefore, you may use this software only as provided in the license agreement
  21:main.c        **** * accompanying the software package from which you obtained this software.
  22:main.c        **** * CYPRESS AND ITS SUPPLIERS MAKE NO WARRANTY OF ANY KIND, EXPRESS OR IMPLIED,
  23:main.c        **** * WITH REGARD TO THIS SOFTWARE, INCLUDING, BUT NOT LIMITED TO, NONINFRINGEMENT,
  24:main.c        **** * IMPLIED WARRANTIES OF MERCHANTABILITY AND FITNESS FOR A PARTICULAR PURPOSE.
  25:main.c        **** *******************************************************************************/
  26:main.c        **** 
  27:main.c        **** #include <project.h>
  28:main.c        **** #include "stdio.h"
  29:main.c        **** 
  30:main.c        **** #if defined (__GNUC__)
  31:main.c        ****     /* Add an explicit reference to the floating point printf library */
  32:main.c        ****     /* to allow usage of the floating point conversion specifiers. */
  33:main.c        ****     /* This is not linked in by default with the newlib-nano library. */
ARM GAS  C:\Users\ingan\AppData\Local\Temp\cckGFdli.s 			page 3


  34:main.c        ****     asm (".global _printf_float");
  35:main.c        **** #endif
  36:main.c        **** 
  37:main.c        **** #define USBFS_DEVICE    (0u)
  38:main.c        **** 
  39:main.c        **** /* The buffer size is equal to the maximum packet size of the IN and OUT bulk
  40:main.c        **** * endpoints.
  41:main.c        **** */
  42:main.c        **** #define USBUART_BUFFER_SIZE (64u)
  43:main.c        **** #define LINE_STR_LENGTH     (20u)
  44:main.c        **** 
  45:main.c        **** char8* parity[] = {"None", "Odd", "Even", "Mark", "Space"};
  46:main.c        **** char8* stop[]   = {"1", "1.5", "2"};
  47:main.c        **** 
  48:main.c        **** void ym2612_write_step (uint8_t data)
  49:main.c        **** {
  78              		.loc 1 49 0
  79              		.cfi_startproc
  80              		@ args = 0, pretend = 0, frame = 8
  81              		@ frame_needed = 1, uses_anonymous_args = 0
  82 0000 80B5     		push	{r7, lr}
  83              		.cfi_def_cfa_offset 8
  84              		.cfi_offset 7, -8
  85              		.cfi_offset 14, -4
  86 0002 82B0     		sub	sp, sp, #8
  87              		.cfi_def_cfa_offset 16
  88 0004 00AF     		add	r7, sp, #0
  89              		.cfi_def_cfa_register 7
  90 0006 0346     		mov	r3, r0
  91 0008 FB71     		strb	r3, [r7, #7]
  50:main.c        ****   // CS Pin low
  51:main.c        ****   YM_CS_Write(0);
  92              		.loc 1 51 0
  93 000a 0020     		movs	r0, #0
  94 000c FFF7FEFF 		bl	YM_CS_Write
  52:main.c        ****   // DATA to bus
  53:main.c        ****   YM_Data_Write(data);
  95              		.loc 1 53 0
  96 0010 FB79     		ldrb	r3, [r7, #7]	@ zero_extendqisi2
  97 0012 1846     		mov	r0, r3
  98 0014 FFF7FEFF 		bl	YM_Data_Write
  54:main.c        ****   // WR data
  55:main.c        ****   YM_WR_Write(0);
  99              		.loc 1 55 0
 100 0018 0020     		movs	r0, #0
 101 001a FFF7FEFF 		bl	YM_WR_Write
  56:main.c        ****   YM_RD_Write(1);
 102              		.loc 1 56 0
 103 001e 0120     		movs	r0, #1
 104 0020 FFF7FEFF 		bl	YM_RD_Write
  57:main.c        ****   //CyDelayCycles(1);
  58:main.c        ****   CyDelayUs(1);
 105              		.loc 1 58 0
 106 0024 0120     		movs	r0, #1
 107 0026 FFF7FEFF 		bl	CyDelayUs
  59:main.c        ****   YM_WR_Write(1);
 108              		.loc 1 59 0
ARM GAS  C:\Users\ingan\AppData\Local\Temp\cckGFdli.s 			page 4


 109 002a 0120     		movs	r0, #1
 110 002c FFF7FEFF 		bl	YM_WR_Write
  60:main.c        ****   YM_RD_Write(0);
 111              		.loc 1 60 0
 112 0030 0020     		movs	r0, #0
 113 0032 FFF7FEFF 		bl	YM_RD_Write
  61:main.c        ****   // CS Pin high
  62:main.c        ****   YM_CS_Write(1);
 114              		.loc 1 62 0
 115 0036 0120     		movs	r0, #1
 116 0038 FFF7FEFF 		bl	YM_CS_Write
  63:main.c        ****   CyDelayUs(1);
 117              		.loc 1 63 0
 118 003c 0120     		movs	r0, #1
 119 003e FFF7FEFF 		bl	CyDelayUs
  64:main.c        ****   //CyDelayCycles(1);
  65:main.c        **** }
 120              		.loc 1 65 0
 121 0042 00BF     		nop
 122 0044 0837     		adds	r7, r7, #8
 123              		.cfi_def_cfa_offset 8
 124 0046 BD46     		mov	sp, r7
 125              		.cfi_def_cfa_register 13
 126              		@ sp needed
 127 0048 80BD     		pop	{r7, pc}
 128              		.cfi_endproc
 129              	.LFE64:
 130              		.size	ym2612_write_step, .-ym2612_write_step
 131 004a 00BF     		.section	.text.ym2612_write,"ax",%progbits
 132              		.align	2
 133              		.global	ym2612_write
 134              		.thumb
 135              		.thumb_func
 136              		.type	ym2612_write, %function
 137              	ym2612_write:
 138              	.LFB65:
  66:main.c        **** 
  67:main.c        **** void ym2612_write(uint8_t reg, uint8_t data, uint8_t port)
  68:main.c        **** {
 139              		.loc 1 68 0
 140              		.cfi_startproc
 141              		@ args = 0, pretend = 0, frame = 8
 142              		@ frame_needed = 1, uses_anonymous_args = 0
 143 0000 80B5     		push	{r7, lr}
 144              		.cfi_def_cfa_offset 8
 145              		.cfi_offset 7, -8
 146              		.cfi_offset 14, -4
 147 0002 82B0     		sub	sp, sp, #8
 148              		.cfi_def_cfa_offset 16
 149 0004 00AF     		add	r7, sp, #0
 150              		.cfi_def_cfa_register 7
 151 0006 0346     		mov	r3, r0
 152 0008 FB71     		strb	r3, [r7, #7]
 153 000a 0B46     		mov	r3, r1
 154 000c BB71     		strb	r3, [r7, #6]
 155 000e 1346     		mov	r3, r2
 156 0010 7B71     		strb	r3, [r7, #5]
ARM GAS  C:\Users\ingan\AppData\Local\Temp\cckGFdli.s 			page 5


  69:main.c        ****   // A1 selects part0 (channels 1-3) or part1 (channels 1-6)
  70:main.c        ****   YM_A1_Write(port);
 157              		.loc 1 70 0
 158 0012 7B79     		ldrb	r3, [r7, #5]	@ zero_extendqisi2
 159 0014 1846     		mov	r0, r3
 160 0016 FFF7FEFF 		bl	YM_A1_Write
  71:main.c        ****   YM_A0_Write(0);
 161              		.loc 1 71 0
 162 001a 0020     		movs	r0, #0
 163 001c FFF7FEFF 		bl	YM_A0_Write
  72:main.c        ****   // write register selection
  73:main.c        ****   ym2612_write_step(reg);
 164              		.loc 1 73 0
 165 0020 FB79     		ldrb	r3, [r7, #7]	@ zero_extendqisi2
 166 0022 1846     		mov	r0, r3
 167 0024 FFF7FEFF 		bl	ym2612_write_step
  74:main.c        ****   // data part 0 (channels 1-3)
  75:main.c        ****   // A1 low, A0 high
  76:main.c        ****   YM_A0_Write(1);
 168              		.loc 1 76 0
 169 0028 0120     		movs	r0, #1
 170 002a FFF7FEFF 		bl	YM_A0_Write
  77:main.c        ****   ym2612_write_step(data);
 171              		.loc 1 77 0
 172 002e BB79     		ldrb	r3, [r7, #6]	@ zero_extendqisi2
 173 0030 1846     		mov	r0, r3
 174 0032 FFF7FEFF 		bl	ym2612_write_step
  78:main.c        **** }
 175              		.loc 1 78 0
 176 0036 00BF     		nop
 177 0038 0837     		adds	r7, r7, #8
 178              		.cfi_def_cfa_offset 8
 179 003a BD46     		mov	sp, r7
 180              		.cfi_def_cfa_register 13
 181              		@ sp needed
 182 003c 80BD     		pop	{r7, pc}
 183              		.cfi_endproc
 184              	.LFE65:
 185              		.size	ym2612_write, .-ym2612_write
 186 003e 00BF     		.section	.text.sn76489_write,"ax",%progbits
 187              		.align	2
 188              		.global	sn76489_write
 189              		.thumb
 190              		.thumb_func
 191              		.type	sn76489_write, %function
 192              	sn76489_write:
 193              	.LFB66:
  79:main.c        **** 
  80:main.c        **** void sn76489_write(uint8_t data)
  81:main.c        **** {
 194              		.loc 1 81 0
 195              		.cfi_startproc
 196              		@ args = 0, pretend = 0, frame = 8
 197              		@ frame_needed = 1, uses_anonymous_args = 0
 198 0000 80B5     		push	{r7, lr}
 199              		.cfi_def_cfa_offset 8
 200              		.cfi_offset 7, -8
ARM GAS  C:\Users\ingan\AppData\Local\Temp\cckGFdli.s 			page 6


 201              		.cfi_offset 14, -4
 202 0002 82B0     		sub	sp, sp, #8
 203              		.cfi_def_cfa_offset 16
 204 0004 00AF     		add	r7, sp, #0
 205              		.cfi_def_cfa_register 7
 206 0006 0346     		mov	r3, r0
 207 0008 FB71     		strb	r3, [r7, #7]
  82:main.c        ****   //data = flip_byte(data);  
  83:main.c        ****   SN_WE_Write(1);
 208              		.loc 1 83 0
 209 000a 0120     		movs	r0, #1
 210 000c FFF7FEFF 		bl	SN_WE_Write
  84:main.c        ****   YM_Data_Write(data);
 211              		.loc 1 84 0
 212 0010 FB79     		ldrb	r3, [r7, #7]	@ zero_extendqisi2
 213 0012 1846     		mov	r0, r3
 214 0014 FFF7FEFF 		bl	YM_Data_Write
  85:main.c        ****   SN_WE_Write(0);
 215              		.loc 1 85 0
 216 0018 0020     		movs	r0, #0
 217 001a FFF7FEFF 		bl	SN_WE_Write
  86:main.c        ****   //CyDelayCycles(1);
  87:main.c        ****   CyDelayUs(18);
 218              		.loc 1 87 0
 219 001e 1220     		movs	r0, #18
 220 0020 FFF7FEFF 		bl	CyDelayUs
  88:main.c        ****   SN_WE_Write(1);
 221              		.loc 1 88 0
 222 0024 0120     		movs	r0, #1
 223 0026 FFF7FEFF 		bl	SN_WE_Write
  89:main.c        **** }
 224              		.loc 1 89 0
 225 002a 00BF     		nop
 226 002c 0837     		adds	r7, r7, #8
 227              		.cfi_def_cfa_offset 8
 228 002e BD46     		mov	sp, r7
 229              		.cfi_def_cfa_register 13
 230              		@ sp needed
 231 0030 80BD     		pop	{r7, pc}
 232              		.cfi_endproc
 233              	.LFE66:
 234              		.size	sn76489_write, .-sn76489_write
 235 0032 00BF     		.section	.text.ym2612_reset,"ax",%progbits
 236              		.align	2
 237              		.global	ym2612_reset
 238              		.thumb
 239              		.thumb_func
 240              		.type	ym2612_reset, %function
 241              	ym2612_reset:
 242              	.LFB67:
  90:main.c        **** 
  91:main.c        **** void ym2612_reset()
  92:main.c        **** {
 243              		.loc 1 92 0
 244              		.cfi_startproc
 245              		@ args = 0, pretend = 0, frame = 0
 246              		@ frame_needed = 1, uses_anonymous_args = 0
ARM GAS  C:\Users\ingan\AppData\Local\Temp\cckGFdli.s 			page 7


 247 0000 80B5     		push	{r7, lr}
 248              		.cfi_def_cfa_offset 8
 249              		.cfi_offset 7, -8
 250              		.cfi_offset 14, -4
 251 0002 00AF     		add	r7, sp, #0
 252              		.cfi_def_cfa_register 7
  93:main.c        ****   //YM_IC_Write(0);
  94:main.c        ****   //CyDelayUs(1);
  95:main.c        ****   //YM_IC_Write(1);
  96:main.c        ****   YM_IC_Write(0);
 253              		.loc 1 96 0
 254 0004 0020     		movs	r0, #0
 255 0006 FFF7FEFF 		bl	YM_IC_Write
  97:main.c        ****   CyDelay(10);
 256              		.loc 1 97 0
 257 000a 0A20     		movs	r0, #10
 258 000c FFF7FEFF 		bl	CyDelay
  98:main.c        ****   YM_IC_Write(1);
 259              		.loc 1 98 0
 260 0010 0120     		movs	r0, #1
 261 0012 FFF7FEFF 		bl	YM_IC_Write
  99:main.c        ****   CyDelay(10);  
 262              		.loc 1 99 0
 263 0016 0A20     		movs	r0, #10
 264 0018 FFF7FEFF 		bl	CyDelay
 100:main.c        ****   // Silence channel-0 to channel-6
 101:main.c        ****   //for (uint8_t ch = 0; ch <= 6; ++ch)
 102:main.c        ****   //  ym2612_write(0x28, ch, 0);
 103:main.c        **** }
 265              		.loc 1 103 0
 266 001c 00BF     		nop
 267 001e 80BD     		pop	{r7, pc}
 268              		.cfi_endproc
 269              	.LFE67:
 270              		.size	ym2612_reset, .-ym2612_reset
 271              		.section	.text.ym2612_init,"ax",%progbits
 272              		.align	2
 273              		.global	ym2612_init
 274              		.thumb
 275              		.thumb_func
 276              		.type	ym2612_init, %function
 277              	ym2612_init:
 278              	.LFB68:
 104:main.c        **** 
 105:main.c        **** void ym2612_init (void)
 106:main.c        **** {
 279              		.loc 1 106 0
 280              		.cfi_startproc
 281              		@ args = 0, pretend = 0, frame = 0
 282              		@ frame_needed = 1, uses_anonymous_args = 0
 283 0000 80B5     		push	{r7, lr}
 284              		.cfi_def_cfa_offset 8
 285              		.cfi_offset 7, -8
 286              		.cfi_offset 14, -4
 287 0002 00AF     		add	r7, sp, #0
 288              		.cfi_def_cfa_register 7
 107:main.c        ****   YM_CS_Write(1);
ARM GAS  C:\Users\ingan\AppData\Local\Temp\cckGFdli.s 			page 8


 289              		.loc 1 107 0
 290 0004 0120     		movs	r0, #1
 291 0006 FFF7FEFF 		bl	YM_CS_Write
 108:main.c        ****   YM_WR_Write(1);
 292              		.loc 1 108 0
 293 000a 0120     		movs	r0, #1
 294 000c FFF7FEFF 		bl	YM_WR_Write
 109:main.c        ****   YM_RD_Write(1);
 295              		.loc 1 109 0
 296 0010 0120     		movs	r0, #1
 297 0012 FFF7FEFF 		bl	YM_RD_Write
 110:main.c        ****   YM_IC_Write(1);
 298              		.loc 1 110 0
 299 0016 0120     		movs	r0, #1
 300 0018 FFF7FEFF 		bl	YM_IC_Write
 111:main.c        ****   YM_A0_Write(0);
 301              		.loc 1 111 0
 302 001c 0020     		movs	r0, #0
 303 001e FFF7FEFF 		bl	YM_A0_Write
 112:main.c        ****   YM_A1_Write(0);
 304              		.loc 1 112 0
 305 0022 0020     		movs	r0, #0
 306 0024 FFF7FEFF 		bl	YM_A1_Write
 113:main.c        ****   YM_Data_Write(0xff);
 307              		.loc 1 113 0
 308 0028 FF20     		movs	r0, #255
 309 002a FFF7FEFF 		bl	YM_Data_Write
 114:main.c        **** }
 310              		.loc 1 114 0
 311 002e 00BF     		nop
 312 0030 80BD     		pop	{r7, pc}
 313              		.cfi_endproc
 314              	.LFE68:
 315              		.size	ym2612_init, .-ym2612_init
 316 0032 00BF     		.section	.text.SilenceAllChannels,"ax",%progbits
 317              		.align	2
 318              		.global	SilenceAllChannels
 319              		.thumb
 320              		.thumb_func
 321              		.type	SilenceAllChannels, %function
 322              	SilenceAllChannels:
 323              	.LFB69:
 115:main.c        **** 
 116:main.c        **** void SilenceAllChannels()
 117:main.c        **** {  
 324              		.loc 1 117 0
 325              		.cfi_startproc
 326              		@ args = 0, pretend = 0, frame = 0
 327              		@ frame_needed = 1, uses_anonymous_args = 0
 328 0000 80B5     		push	{r7, lr}
 329              		.cfi_def_cfa_offset 8
 330              		.cfi_offset 7, -8
 331              		.cfi_offset 14, -4
 332 0002 00AF     		add	r7, sp, #0
 333              		.cfi_def_cfa_register 7
 118:main.c        ****   sn76489_write(0x9f);
 334              		.loc 1 118 0
ARM GAS  C:\Users\ingan\AppData\Local\Temp\cckGFdli.s 			page 9


 335 0004 9F20     		movs	r0, #159
 336 0006 FFF7FEFF 		bl	sn76489_write
 119:main.c        ****   sn76489_write(0xbf);
 337              		.loc 1 119 0
 338 000a BF20     		movs	r0, #191
 339 000c FFF7FEFF 		bl	sn76489_write
 120:main.c        ****   sn76489_write(0xdf);
 340              		.loc 1 120 0
 341 0010 DF20     		movs	r0, #223
 342 0012 FFF7FEFF 		bl	sn76489_write
 121:main.c        ****   sn76489_write(0xff);
 343              		.loc 1 121 0
 344 0016 FF20     		movs	r0, #255
 345 0018 FFF7FEFF 		bl	sn76489_write
 122:main.c        **** 
 123:main.c        ****   ym2612_init();
 346              		.loc 1 123 0
 347 001c FFF7FEFF 		bl	ym2612_init
 124:main.c        ****   ym2612_reset();
 348              		.loc 1 124 0
 349 0020 FFF7FEFF 		bl	ym2612_reset
 125:main.c        **** }
 350              		.loc 1 125 0
 351 0024 00BF     		nop
 352 0026 80BD     		pop	{r7, pc}
 353              		.cfi_endproc
 354              	.LFE69:
 355              		.size	SilenceAllChannels, .-SilenceAllChannels
 356              		.section	.text.main,"ax",%progbits
 357              		.align	2
 358              		.global	main
 359              		.thumb
 360              		.thumb_func
 361              		.type	main, %function
 362              	main:
 363              	.LFB70:
 126:main.c        **** 
 127:main.c        **** /*******************************************************************************
 128:main.c        **** * Function Name: main
 129:main.c        **** ********************************************************************************
 130:main.c        **** *
 131:main.c        **** * Summary:
 132:main.c        **** *  The main function performs the following actions:
 133:main.c        **** *   1. Waits until VBUS becomes valid and starts the USBFS component which is
 134:main.c        **** *      enumerated as virtual Com port.
 135:main.c        **** *   2. Waits until the device is enumerated by the host.
 136:main.c        **** *   3. Waits for data coming from the hyper terminal and sends it back.
 137:main.c        **** *   4. PSoC3/PSoC5LP: the LCD shows the line settings.
 138:main.c        **** *
 139:main.c        **** * Parameters:
 140:main.c        **** *  None.
 141:main.c        **** *
 142:main.c        **** * Return:
 143:main.c        **** *  None.
 144:main.c        **** *
 145:main.c        **** *******************************************************************************/
 146:main.c        **** int main()
ARM GAS  C:\Users\ingan\AppData\Local\Temp\cckGFdli.s 			page 10


 147:main.c        **** {
 364              		.loc 1 147 0
 365              		.cfi_startproc
 366              		@ args = 0, pretend = 0, frame = 10072
 367              		@ frame_needed = 1, uses_anonymous_args = 0
 368 0000 80B5     		push	{r7, lr}
 369              		.cfi_def_cfa_offset 8
 370              		.cfi_offset 7, -8
 371              		.cfi_offset 14, -4
 372 0002 ADF51D5D 		sub	sp, sp, #10048
 373              		.cfi_def_cfa_offset 10056
 374 0006 86B0     		sub	sp, sp, #24
 375              		.cfi_def_cfa_offset 10080
 376 0008 00AF     		add	r7, sp, #0
 377              		.cfi_def_cfa_register 7
 148:main.c        ****     uint16 count;
 149:main.c        ****     uint8 buffer[USBUART_BUFFER_SIZE];
 150:main.c        ****     uint8_t command = 0;
 378              		.loc 1 150 0
 379 000a 0023     		movs	r3, #0
 380 000c 07F51D52 		add	r2, r7, #10048
 381 0010 02F11702 		add	r2, r2, #23
 382 0014 1370     		strb	r3, [r2]
 151:main.c        ****     uint8_t reg = 0;
 383              		.loc 1 151 0
 384 0016 0023     		movs	r3, #0
 385 0018 07F51D52 		add	r2, r7, #10048
 386 001c 02F11602 		add	r2, r2, #22
 387 0020 1370     		strb	r3, [r2]
 152:main.c        ****     uint8_t data = 0;
 388              		.loc 1 152 0
 389 0022 0023     		movs	r3, #0
 390 0024 07F51D52 		add	r2, r7, #10048
 391 0028 02F11502 		add	r2, r2, #21
 392 002c 1370     		strb	r3, [r2]
 153:main.c        ****     uint8_t test[10000];
 154:main.c        ****     uint16_t idx = 0;
 393              		.loc 1 154 0
 394 002e 0023     		movs	r3, #0
 395 0030 07F51D52 		add	r2, r7, #10048
 396 0034 02F11202 		add	r2, r2, #18
 397 0038 1380     		strh	r3, [r2]	@ movhi
 155:main.c        ****     //uint16_t waitData = 0;
 156:main.c        ****     
 157:main.c        **** //#if (CY_PSOC3 || CY_PSOC5LP)
 158:main.c        **** //    uint8 state;
 159:main.c        **** //    char8 lineStr[LINE_STR_LENGTH];
 160:main.c        **** //    
 161:main.c        **** //    LCD_Start();
 162:main.c        **** //#endif /* (CY_PSOC3 || CY_PSOC5LP) */
 163:main.c        ****     
 164:main.c        ****     SilenceAllChannels();
 398              		.loc 1 164 0
 399 003a FFF7FEFF 		bl	SilenceAllChannels
 165:main.c        ****     CyGlobalIntEnable;
 400              		.loc 1 165 0
 401              		.syntax unified
ARM GAS  C:\Users\ingan\AppData\Local\Temp\cckGFdli.s 			page 11


 402              	@ 165 "main.c" 1
 403 003e 62B6     		CPSIE   i
 404              	@ 0 "" 2
 166:main.c        **** 
 167:main.c        ****     /* Start USBFS operation with 5-V operation. */
 168:main.c        ****     USBUART_Start(USBFS_DEVICE, USBUART_5V_OPERATION);
 405              		.loc 1 168 0
 406              		.thumb
 407              		.syntax unified
 408 0040 0121     		movs	r1, #1
 409 0042 0020     		movs	r0, #0
 410 0044 FFF7FEFF 		bl	USBUART_Start
 411              	.L13:
 169:main.c        ****     
 170:main.c        ****     for(;;)
 171:main.c        ****     {
 172:main.c        ****         /* Host can send double SET_INTERFACE request. */
 173:main.c        ****         if (0u != USBUART_IsConfigurationChanged())
 412              		.loc 1 173 0
 413 0048 FFF7FEFF 		bl	USBUART_IsConfigurationChanged
 414 004c 0346     		mov	r3, r0
 415 004e 002B     		cmp	r3, #0
 416 0050 06D0     		beq	.L8
 174:main.c        ****         {
 175:main.c        ****             /* Initialize IN endpoints when device is configured. */
 176:main.c        ****             if (0u != USBUART_GetConfiguration())
 417              		.loc 1 176 0
 418 0052 FFF7FEFF 		bl	USBUART_GetConfiguration
 419 0056 0346     		mov	r3, r0
 420 0058 002B     		cmp	r3, #0
 421 005a 01D0     		beq	.L8
 177:main.c        ****             {
 178:main.c        ****                 /* Enumeration is done, enable OUT endpoint to receive data 
 179:main.c        ****                  * from host. */
 180:main.c        ****                 USBUART_CDC_Init();
 422              		.loc 1 180 0
 423 005c FFF7FEFF 		bl	USBUART_CDC_Init
 424              	.L8:
 181:main.c        ****             }
 182:main.c        ****         }
 183:main.c        **** 
 184:main.c        ****         /* Service USB CDC when device is configured. */
 185:main.c        ****         if (0u != USBUART_GetConfiguration())
 425              		.loc 1 185 0
 426 0060 FFF7FEFF 		bl	USBUART_GetConfiguration
 427 0064 0346     		mov	r3, r0
 428 0066 002B     		cmp	r3, #0
 429 0068 EED0     		beq	.L13
 186:main.c        ****         {
 187:main.c        ****             /* Check for input data from host. */
 188:main.c        ****             if (0u != USBUART_DataIsReady())
 430              		.loc 1 188 0
 431 006a FFF7FEFF 		bl	USBUART_DataIsReady
 432 006e 0346     		mov	r3, r0
 433 0070 002B     		cmp	r3, #0
 434 0072 E9D0     		beq	.L13
 189:main.c        ****             {
ARM GAS  C:\Users\ingan\AppData\Local\Temp\cckGFdli.s 			page 12


 190:main.c        ****                 /* Read received data and re-enable OUT endpoint. */
 191:main.c        ****                 count = USBUART_GetAll(buffer);
 435              		.loc 1 191 0
 436 0074 07F51C53 		add	r3, r7, #9984
 437 0078 03F11003 		add	r3, r3, #16
 438 007c 1846     		mov	r0, r3
 439 007e FFF7FEFF 		bl	USBUART_GetAll
 440 0082 0346     		mov	r3, r0
 441 0084 07F51D52 		add	r2, r7, #10048
 442 0088 02F11002 		add	r2, r2, #16
 443 008c 1380     		strh	r3, [r2]	@ movhi
 192:main.c        ****                 //USBUART_PutData(buffer, count);
 193:main.c        ****                 
 194:main.c        ****                 command = buffer[0];
 444              		.loc 1 194 0
 445 008e 07F51C53 		add	r3, r7, #9984
 446 0092 03F11003 		add	r3, r3, #16
 447 0096 1B78     		ldrb	r3, [r3]
 448 0098 07F51D52 		add	r2, r7, #10048
 449 009c 02F11702 		add	r2, r2, #23
 450 00a0 1370     		strb	r3, [r2]
 195:main.c        ****                 
 196:main.c        ****                 // check for seek command
 197:main.c        ****                 //if (command == 0xe0) // 0xE0 	dddddddd 	Seek to offset dddddddd (Intel byte order
 198:main.c        ****                 //{
 199:main.c        ****                 //    pcm_index = pcm_offset + get_vgm_ui32();
 200:main.c        ****                 //}
 201:main.c        ****                         
 202:main.c        ****                 switch (buffer[0]) {
 451              		.loc 1 202 0
 452 00a2 07F51C53 		add	r3, r7, #9984
 453 00a6 03F11003 		add	r3, r3, #16
 454 00aa 1B78     		ldrb	r3, [r3]	@ zero_extendqisi2
 455 00ac 502B     		cmp	r3, #80
 456 00ae 05D0     		beq	.L11
 457 00b0 502B     		cmp	r3, #80
 458 00b2 22DB     		blt	.L15
 459 00b4 523B     		subs	r3, r3, #82
 460 00b6 012B     		cmp	r3, #1
 461 00b8 1FD8     		bhi	.L15
 462 00ba 08E0     		b	.L14
 463              	.L11:
 203:main.c        ****                     
 204:main.c        **** //                    case 0x4f: // Game Gear stereo PSG (skip)
 205:main.c        **** //                        //get_vgm_ui16();
 206:main.c        **** //                        break;
 207:main.c        ****                     
 208:main.c        ****                     case 0x50: // 0x50 	dd 	PSG (SN76489/SN76496) write value dd
 209:main.c        ****                         
 210:main.c        ****                         sn76489_write(buffer[1]);
 464              		.loc 1 210 0
 465 00bc 07F51C53 		add	r3, r7, #9984
 466 00c0 03F11103 		add	r3, r3, #17
 467 00c4 1B78     		ldrb	r3, [r3]	@ zero_extendqisi2
 468 00c6 1846     		mov	r0, r3
 469 00c8 FFF7FEFF 		bl	sn76489_write
 211:main.c        ****                         break;
ARM GAS  C:\Users\ingan\AppData\Local\Temp\cckGFdli.s 			page 13


 470              		.loc 1 211 0
 471 00cc 16E0     		b	.L9
 472              	.L14:
 212:main.c        ****                     
 213:main.c        ****                     case 0x52: // 0x52 	aa dd  YM2612 port 0, write value dd to register aa
 214:main.c        ****                     case 0x53: // 0x53 	aa dd  YM2612 port 1, write value dd to register aa
 215:main.c        ****                         //reg = buffer[1];
 216:main.c        ****                         //data = buffer[2];
 217:main.c        ****                         ym2612_write(buffer[1], buffer[2], buffer[0] & 0x01);
 473              		.loc 1 217 0
 474 00ce 07F51C53 		add	r3, r7, #9984
 475 00d2 03F11103 		add	r3, r3, #17
 476 00d6 1878     		ldrb	r0, [r3]	@ zero_extendqisi2
 477 00d8 07F51C53 		add	r3, r7, #9984
 478 00dc 03F11203 		add	r3, r3, #18
 479 00e0 1978     		ldrb	r1, [r3]	@ zero_extendqisi2
 480 00e2 07F51C53 		add	r3, r7, #9984
 481 00e6 03F11003 		add	r3, r3, #16
 482 00ea 1B78     		ldrb	r3, [r3]	@ zero_extendqisi2
 483 00ec 03F00103 		and	r3, r3, #1
 484 00f0 DBB2     		uxtb	r3, r3
 485 00f2 1A46     		mov	r2, r3
 486 00f4 FFF7FEFF 		bl	ym2612_write
 218:main.c        ****                         break;
 487              		.loc 1 218 0
 488 00f8 00E0     		b	.L9
 489              	.L15:
 219:main.c        ****                     
 220:main.c        **** //                    case 0x61: // 0x61 	nn nn 	Wait n samples, n can range from 0 to 65535 (appro
 221:main.c        **** //                        waitData = buffer[1] + (buffer[2] << 8);
 222:main.c        **** ////                        if (waitData == 0)
 223:main.c        **** ////                        {
 224:main.c        **** ////                            noWait = 1;
 225:main.c        **** ////                        }
 226:main.c        **** ////                        else
 227:main.c        **** ////                        {
 228:main.c        **** ////                            waitData--;
 229:main.c        **** ////                        }
 230:main.c        **** //                        break;
 231:main.c        **** //                    
 232:main.c        **** //                    case 0x62: // wait 735 samples (60th of a second), a shortcut for 0x61 0xdf 0
 233:main.c        **** //                        waitData = 735 - 1;
 234:main.c        **** //                        break;
 235:main.c        **** //                    
 236:main.c        **** //                    case 0x63: // wait 882 samples (50th of a second), a shortcut for 0x61 0x72 0
 237:main.c        **** //                        waitData = 882 - 1;
 238:main.c        **** //                        break;
 239:main.c        **** //                      
 240:main.c        **** //                    case 0x67: // data block   0x67 0x66 tt ss ss ss ss (data)
 241:main.c        **** //                        get_vgm_ui8();              // skip 0x66
 242:main.c        **** //                        get_vgm_ui8();              // skip type
 243:main.c        **** //                        pcm_size = get_vgm_ui32();  // read size (4 byte)
 244:main.c        **** //                        pcm_offset = vgm_pos;        // store start position
 245:main.c        **** //                        pcm_index = pcm_offset;
 246:main.c        **** //                        vgm_pos += pcm_size;        // seek by "pcm_size" bytes
 247:main.c        **** //                        break;
 248:main.c        **** //                        
ARM GAS  C:\Users\ingan\AppData\Local\Temp\cckGFdli.s 			page 14


 249:main.c        **** //                    case  0x70:
 250:main.c        **** //                    case  0x71:
 251:main.c        **** //                    case  0x72:
 252:main.c        **** //                    case  0x73:
 253:main.c        **** //                    case  0x74:
 254:main.c        **** //                    case  0x75:
 255:main.c        **** //                    case  0x76:
 256:main.c        **** //                    case  0x77:
 257:main.c        **** //                    case  0x78:
 258:main.c        **** //                    case  0x79:
 259:main.c        **** //                    case  0x7A:
 260:main.c        **** //                    case  0x7B:   
 261:main.c        **** //                    case  0x7C:
 262:main.c        **** //                    case  0x7D:
 263:main.c        **** //                    case  0x7E:
 264:main.c        **** //                    case  0x7F: // 0x7n 	wait n+1 samples, n can range from 0 to 15.             
 265:main.c        **** //                        waitData = command & 0x0f; // this is actually (n+1)
 266:main.c        **** //                        break;
 267:main.c        **** //                    
 268:main.c        **** //                    case 0x80:
 269:main.c        **** //                    case 0x81:
 270:main.c        **** //                    case 0x82:
 271:main.c        **** //                    case 0x83:
 272:main.c        **** //                    case 0x84:
 273:main.c        **** //                    case 0x85:
 274:main.c        **** //                    case 0x86:
 275:main.c        **** //                    case 0x87:
 276:main.c        **** //                    case 0x88:
 277:main.c        **** //                    case 0x89:
 278:main.c        **** //                    case 0x8a:
 279:main.c        **** //                    case 0x8b:
 280:main.c        **** //                    case 0x8c:
 281:main.c        **** //                    case 0x8d:
 282:main.c        **** //                    case 0x8e:
 283:main.c        **** //                    case 0x8f: // 0x8n      YM2612 port 0 address 2A write from the data bank, th
 284:main.c        **** //                        data = rawData[pcm_offset + pcm_index++];
 285:main.c        **** //                        ym2612_write(0x2a, data, 0x00);
 286:main.c        **** //                        waitData = (command & 0x0f);
 287:main.c        **** //                        if (waitData == 0)
 288:main.c        **** //                        {
 289:main.c        **** //                            noWait = 1; // if 0x80, don't wait for the next ISR (repeat parser lo
 290:main.c        **** //                        }
 291:main.c        **** //                        else
 292:main.c        **** //                        {
 293:main.c        **** //                            waitData--; // else wait n samples
 294:main.c        **** //                        }
 295:main.c        **** //                        break;
 296:main.c        **** //                        
 297:main.c        **** //                    case 0x90:    
 298:main.c        **** //                    case 0x91:
 299:main.c        **** //                        // TO DO
 300:main.c        **** //                        get_vgm_ui32();
 301:main.c        **** //                        break;
 302:main.c        **** //                        
 303:main.c        **** //                    case 0x92:
 304:main.c        **** //                        // TO DO
 305:main.c        **** //                        get_vgm_ui8();
ARM GAS  C:\Users\ingan\AppData\Local\Temp\cckGFdli.s 			page 15


 306:main.c        **** //                        get_vgm_ui32();
 307:main.c        **** //                        break;
 308:main.c        **** //                        
 309:main.c        **** //                    case 0x93:
 310:main.c        **** //                        // TO DO
 311:main.c        **** //                        get_vgm_ui8();
 312:main.c        **** //                        get_vgm_ui32();
 313:main.c        **** //                        get_vgm_ui8();
 314:main.c        **** //                        get_vgm_ui32();
 315:main.c        **** //                        break;
 316:main.c        **** //                        
 317:main.c        **** //                    case 0xe0:
 318:main.c        **** //                        pcm_index = pcm_offset + get_vgm_ui32();
 319:main.c        **** //                        noWait = 1;
 320:main.c        **** //                        break;
 321:main.c        **** //                    
 322:main.c        **** //                    case 0x66: // EOF
 323:main.c        **** //                        while(1);
 324:main.c        **** //                        break;
 325:main.c        ****                         
 326:main.c        ****                     default: break;
 490              		.loc 1 326 0
 491 00fa 00BF     		nop
 492              	.L9:
 327:main.c        ****                 }
 328:main.c        **** //                if (0u != count)
 329:main.c        **** //                {
 330:main.c        **** //                    /* Wait until component is ready to send data to host. */
 331:main.c        **** //                    while (0u == USBUART_CDCIsReady())
 332:main.c        **** //                    {
 333:main.c        **** //                    }
 334:main.c        **** //
 335:main.c        **** //                    /* Send data back to host. */
 336:main.c        **** //                    USBUART_PutData(buffer, count);
 337:main.c        **** //
 338:main.c        **** //                    /* If the last sent packet is exactly the maximum packet 
 339:main.c        **** //                    *  size, it is followed by a zero-length packet to assure
 340:main.c        **** //                    *  that the end of the segment is properly identified by 
 341:main.c        **** //                    *  the terminal.
 342:main.c        **** //                    */
 343:main.c        **** //                    if (USBUART_BUFFER_SIZE == count)
 344:main.c        **** //                    {
 345:main.c        **** //                        /* Wait until component is ready to send data to PC. */
 346:main.c        **** //                        while (0u == USBUART_CDCIsReady())
 347:main.c        **** //                        {
 348:main.c        **** //                        }
 349:main.c        **** //
 350:main.c        **** //                        /* Send zero-length packet to PC. */
 351:main.c        **** //                        USBUART_PutData(NULL, 0u);
 352:main.c        **** //                    }
 353:main.c        **** //                }
 354:main.c        ****             }
 355:main.c        **** 
 356:main.c        **** 
 357:main.c        **** //        #if (CY_PSOC3 || CY_PSOC5LP)
 358:main.c        **** //            /* Check for Line settings change. */
 359:main.c        **** //            state = USBUART_IsLineChanged();
ARM GAS  C:\Users\ingan\AppData\Local\Temp\cckGFdli.s 			page 16


 360:main.c        **** //            if (0u != state)
 361:main.c        **** //            {
 362:main.c        **** //                /* Output on LCD Line Coding settings. */
 363:main.c        **** //                if (0u != (state & USBUART_LINE_CODING_CHANGED))
 364:main.c        **** //                {                  
 365:main.c        **** //                    /* Get string to output. */
 366:main.c        **** //                    sprintf(lineStr,"BR:%4ld %d%c%s", USBUART_GetDTERate(),\
 367:main.c        **** //                                   (uint16) USBUART_GetDataBits(),\
 368:main.c        **** //                                   parity[(uint16) USBUART_GetParityType()][0],\
 369:main.c        **** //                                   stop[(uint16) USBUART_GetCharFormat()]);
 370:main.c        **** //
 371:main.c        **** //                    /* Clear LCD line. */
 372:main.c        **** //                    LCD_Position(0u, 0u);
 373:main.c        **** //                    LCD_PrintString("                    ");
 374:main.c        **** //
 375:main.c        **** //                    /* Output string on LCD. */
 376:main.c        **** //                    LCD_Position(0u, 0u);
 377:main.c        **** //                    LCD_PrintString(lineStr);
 378:main.c        **** //                }
 379:main.c        **** //
 380:main.c        **** //                /* Output on LCD Line Control settings. */
 381:main.c        **** ////                if (0u != (state & USBUART_LINE_CONTROL_CHANGED))
 382:main.c        **** ////                {                   
 383:main.c        **** ////                    /* Get string to output. */
 384:main.c        **** ////                    state = USBUART_GetLineControl();
 385:main.c        **** ////                    sprintf(lineStr,"DTR:%s,RTS:%s",  (0u != (state & USBUART_LINE_CONTROL_DTR)
 386:main.c        **** ////                                                      (0u != (state & USBUART_LINE_CONTROL_RTS)
 387:main.c        **** ////
 388:main.c        **** ////                    /* Clear LCD line. */
 389:main.c        **** ////                    LCD_Position(1u, 0u);
 390:main.c        **** ////                    LCD_PrintString("                    ");
 391:main.c        **** ////
 392:main.c        **** ////                    /* Output string on LCD. */
 393:main.c        **** ////                    LCD_Position(1u, 0u);
 394:main.c        **** ////                    LCD_PrintString(lineStr);
 395:main.c        **** ////                }
 396:main.c        **** //            }
 397:main.c        **** //        #endif /* (CY_PSOC3 || CY_PSOC5LP) */
 398:main.c        ****         }
 399:main.c        ****     }
 493              		.loc 1 399 0 discriminator 1
 494 00fc A4E7     		b	.L13
 495              		.cfi_endproc
 496              	.LFE70:
 497              		.size	main, .-main
 498 00fe 00BF     		.text
 499              	.Letext0:
 500              		.file 2 "c:\\program files (x86)\\cypress\\psoc creator\\4.2\\psoc creator\\import\\gnu\\arm\\5.4.
 501              		.file 3 "c:\\program files (x86)\\cypress\\psoc creator\\4.2\\psoc creator\\import\\gnu\\arm\\5.4.
 502              		.file 4 "Generated_Source\\PSoC5/cytypes.h"
 503              		.file 5 "Generated_Source\\PSoC5/core_cm3.h"