ARM GAS  C:\Users\ingan\AppData\Local\Temp\ccjkf419.s 			page 1


   1              		.syntax unified
   2              		.cpu cortex-m3
   3              		.fpu softvfp
   4              		.eabi_attribute 20, 1
   5              		.eabi_attribute 21, 1
   6              		.eabi_attribute 23, 3
   7              		.eabi_attribute 24, 1
   8              		.eabi_attribute 25, 1
   9              		.eabi_attribute 26, 1
  10              		.eabi_attribute 30, 6
  11              		.eabi_attribute 34, 1
  12              		.eabi_attribute 18, 4
  13              		.thumb
  14              		.syntax unified
  15              		.file	"YM_Data.c"
  16              		.text
  17              	.Ltext0:
  18              		.cfi_sections	.debug_frame
  19              		.section	.text.YM_Data_Write,"ax",%progbits
  20              		.align	2
  21              		.global	YM_Data_Write
  22              		.thumb
  23              		.thumb_func
  24              		.type	YM_Data_Write, %function
  25              	YM_Data_Write:
  26              	.LFB0:
  27              		.file 1 "Generated_Source\\PSoC5\\YM_Data.c"
   1:Generated_Source\PSoC5/YM_Data.c **** /*******************************************************************************
   2:Generated_Source\PSoC5/YM_Data.c **** * File Name: YM_Data.c  
   3:Generated_Source\PSoC5/YM_Data.c **** * Version 2.20
   4:Generated_Source\PSoC5/YM_Data.c **** *
   5:Generated_Source\PSoC5/YM_Data.c **** * Description:
   6:Generated_Source\PSoC5/YM_Data.c **** *  This file contains API to enable firmware control of a Pins component.
   7:Generated_Source\PSoC5/YM_Data.c **** *
   8:Generated_Source\PSoC5/YM_Data.c **** * Note:
   9:Generated_Source\PSoC5/YM_Data.c **** *
  10:Generated_Source\PSoC5/YM_Data.c **** ********************************************************************************
  11:Generated_Source\PSoC5/YM_Data.c **** * Copyright 2008-2015, Cypress Semiconductor Corporation.  All rights reserved.
  12:Generated_Source\PSoC5/YM_Data.c **** * You may use this file only in accordance with the license, terms, conditions, 
  13:Generated_Source\PSoC5/YM_Data.c **** * disclaimers, and limitations in the end user license agreement accompanying 
  14:Generated_Source\PSoC5/YM_Data.c **** * the software package with which this file was provided.
  15:Generated_Source\PSoC5/YM_Data.c **** *******************************************************************************/
  16:Generated_Source\PSoC5/YM_Data.c **** 
  17:Generated_Source\PSoC5/YM_Data.c **** #include "cytypes.h"
  18:Generated_Source\PSoC5/YM_Data.c **** #include "YM_Data.h"
  19:Generated_Source\PSoC5/YM_Data.c **** 
  20:Generated_Source\PSoC5/YM_Data.c **** /* APIs are not generated for P15[7:6] on PSoC 5 */
  21:Generated_Source\PSoC5/YM_Data.c **** #if !(CY_PSOC5A &&\
  22:Generated_Source\PSoC5/YM_Data.c **** 	 YM_Data__PORT == 15 && ((YM_Data__MASK & 0xC0) != 0))
  23:Generated_Source\PSoC5/YM_Data.c **** 
  24:Generated_Source\PSoC5/YM_Data.c **** 
  25:Generated_Source\PSoC5/YM_Data.c **** /*******************************************************************************
  26:Generated_Source\PSoC5/YM_Data.c **** * Function Name: YM_Data_Write
  27:Generated_Source\PSoC5/YM_Data.c **** ****************************************************************************//**
  28:Generated_Source\PSoC5/YM_Data.c **** *
  29:Generated_Source\PSoC5/YM_Data.c **** * \brief Writes the value to the physical port (data output register), masking
  30:Generated_Source\PSoC5/YM_Data.c **** *  and shifting the bits appropriately. 
ARM GAS  C:\Users\ingan\AppData\Local\Temp\ccjkf419.s 			page 2


  31:Generated_Source\PSoC5/YM_Data.c **** *
  32:Generated_Source\PSoC5/YM_Data.c **** * The data output register controls the signal applied to the physical pin in 
  33:Generated_Source\PSoC5/YM_Data.c **** * conjunction with the drive mode parameter. This function avoids changing 
  34:Generated_Source\PSoC5/YM_Data.c **** * other bits in the port by using the appropriate method (read-modify-write or
  35:Generated_Source\PSoC5/YM_Data.c **** * bit banding).
  36:Generated_Source\PSoC5/YM_Data.c **** *
  37:Generated_Source\PSoC5/YM_Data.c **** * <b>Note</b> This function should not be used on a hardware digital output pin 
  38:Generated_Source\PSoC5/YM_Data.c **** * as it is driven by the hardware signal attached to it.
  39:Generated_Source\PSoC5/YM_Data.c **** *
  40:Generated_Source\PSoC5/YM_Data.c **** * \param value
  41:Generated_Source\PSoC5/YM_Data.c **** *  Value to write to the component instance.
  42:Generated_Source\PSoC5/YM_Data.c **** *
  43:Generated_Source\PSoC5/YM_Data.c **** * \return 
  44:Generated_Source\PSoC5/YM_Data.c **** *  None 
  45:Generated_Source\PSoC5/YM_Data.c **** *
  46:Generated_Source\PSoC5/YM_Data.c **** * \sideeffect
  47:Generated_Source\PSoC5/YM_Data.c **** *  If you use read-modify-write operations that are not atomic; the Interrupt 
  48:Generated_Source\PSoC5/YM_Data.c **** *  Service Routines (ISR) can cause corruption of this function. An ISR that 
  49:Generated_Source\PSoC5/YM_Data.c **** *  interrupts this function and performs writes to the Pins component data 
  50:Generated_Source\PSoC5/YM_Data.c **** *  register can cause corrupted port data. To avoid this issue, you should 
  51:Generated_Source\PSoC5/YM_Data.c **** *  either use the Per-Pin APIs (primary method) or disable interrupts around 
  52:Generated_Source\PSoC5/YM_Data.c **** *  this function.
  53:Generated_Source\PSoC5/YM_Data.c **** *
  54:Generated_Source\PSoC5/YM_Data.c **** * \funcusage
  55:Generated_Source\PSoC5/YM_Data.c **** *  \snippet YM_Data_SUT.c usage_YM_Data_Write
  56:Generated_Source\PSoC5/YM_Data.c **** *******************************************************************************/
  57:Generated_Source\PSoC5/YM_Data.c **** void YM_Data_Write(uint8 value)
  58:Generated_Source\PSoC5/YM_Data.c **** {
  28              		.loc 1 58 0
  29              		.cfi_startproc
  30              		@ args = 0, pretend = 0, frame = 16
  31              		@ frame_needed = 1, uses_anonymous_args = 0
  32              		@ link register save eliminated.
  33 0000 80B4     		push	{r7}
  34              		.cfi_def_cfa_offset 4
  35              		.cfi_offset 7, -4
  36 0002 85B0     		sub	sp, sp, #20
  37              		.cfi_def_cfa_offset 24
  38 0004 00AF     		add	r7, sp, #0
  39              		.cfi_def_cfa_register 7
  40 0006 0346     		mov	r3, r0
  41 0008 FB71     		strb	r3, [r7, #7]
  59:Generated_Source\PSoC5/YM_Data.c ****     uint8 staticBits = (YM_Data_DR & (uint8)(~YM_Data_MASK));
  42              		.loc 1 59 0
  43 000a 074B     		ldr	r3, .L2
  44 000c 1B78     		ldrb	r3, [r3]
  45 000e 0023     		movs	r3, #0
  46 0010 FB73     		strb	r3, [r7, #15]
  60:Generated_Source\PSoC5/YM_Data.c ****     YM_Data_DR = staticBits | ((uint8)(value << YM_Data_SHIFT) & YM_Data_MASK);
  47              		.loc 1 60 0
  48 0012 0549     		ldr	r1, .L2
  49 0014 FA7B     		ldrb	r2, [r7, #15]
  50 0016 FB79     		ldrb	r3, [r7, #7]
  51 0018 1343     		orrs	r3, r3, r2
  52 001a DBB2     		uxtb	r3, r3
  53 001c 0B70     		strb	r3, [r1]
  61:Generated_Source\PSoC5/YM_Data.c **** }
ARM GAS  C:\Users\ingan\AppData\Local\Temp\ccjkf419.s 			page 3


  54              		.loc 1 61 0
  55 001e 00BF     		nop
  56 0020 1437     		adds	r7, r7, #20
  57              		.cfi_def_cfa_offset 4
  58 0022 BD46     		mov	sp, r7
  59              		.cfi_def_cfa_register 13
  60              		@ sp needed
  61 0024 80BC     		pop	{r7}
  62              		.cfi_restore 7
  63              		.cfi_def_cfa_offset 0
  64 0026 7047     		bx	lr
  65              	.L3:
  66              		.align	2
  67              	.L2:
  68 0028 C0510040 		.word	1073762752
  69              		.cfi_endproc
  70              	.LFE0:
  71              		.size	YM_Data_Write, .-YM_Data_Write
  72              		.section	.text.YM_Data_SetDriveMode,"ax",%progbits
  73              		.align	2
  74              		.global	YM_Data_SetDriveMode
  75              		.thumb
  76              		.thumb_func
  77              		.type	YM_Data_SetDriveMode, %function
  78              	YM_Data_SetDriveMode:
  79              	.LFB1:
  62:Generated_Source\PSoC5/YM_Data.c **** 
  63:Generated_Source\PSoC5/YM_Data.c **** 
  64:Generated_Source\PSoC5/YM_Data.c **** /*******************************************************************************
  65:Generated_Source\PSoC5/YM_Data.c **** * Function Name: YM_Data_SetDriveMode
  66:Generated_Source\PSoC5/YM_Data.c **** ****************************************************************************//**
  67:Generated_Source\PSoC5/YM_Data.c **** *
  68:Generated_Source\PSoC5/YM_Data.c **** * \brief Sets the drive mode for each of the Pins component's pins.
  69:Generated_Source\PSoC5/YM_Data.c **** * 
  70:Generated_Source\PSoC5/YM_Data.c **** * <b>Note</b> This affects all pins in the Pins component instance. Use the
  71:Generated_Source\PSoC5/YM_Data.c **** * Per-Pin APIs if you wish to control individual pin's drive modes.
  72:Generated_Source\PSoC5/YM_Data.c **** *
  73:Generated_Source\PSoC5/YM_Data.c **** * \param mode
  74:Generated_Source\PSoC5/YM_Data.c **** *  Mode for the selected signals. Valid options are documented in 
  75:Generated_Source\PSoC5/YM_Data.c **** *  \ref driveMode.
  76:Generated_Source\PSoC5/YM_Data.c **** *
  77:Generated_Source\PSoC5/YM_Data.c **** * \return
  78:Generated_Source\PSoC5/YM_Data.c **** *  None
  79:Generated_Source\PSoC5/YM_Data.c **** *
  80:Generated_Source\PSoC5/YM_Data.c **** * \sideeffect
  81:Generated_Source\PSoC5/YM_Data.c **** *  If you use read-modify-write operations that are not atomic, the ISR can
  82:Generated_Source\PSoC5/YM_Data.c **** *  cause corruption of this function. An ISR that interrupts this function 
  83:Generated_Source\PSoC5/YM_Data.c **** *  and performs writes to the Pins component Drive Mode registers can cause 
  84:Generated_Source\PSoC5/YM_Data.c **** *  corrupted port data. To avoid this issue, you should either use the Per-Pin
  85:Generated_Source\PSoC5/YM_Data.c **** *  APIs (primary method) or disable interrupts around this function.
  86:Generated_Source\PSoC5/YM_Data.c **** *
  87:Generated_Source\PSoC5/YM_Data.c **** * \funcusage
  88:Generated_Source\PSoC5/YM_Data.c **** *  \snippet YM_Data_SUT.c usage_YM_Data_SetDriveMode
  89:Generated_Source\PSoC5/YM_Data.c **** *******************************************************************************/
  90:Generated_Source\PSoC5/YM_Data.c **** void YM_Data_SetDriveMode(uint8 mode)
  91:Generated_Source\PSoC5/YM_Data.c **** {
  80              		.loc 1 91 0
ARM GAS  C:\Users\ingan\AppData\Local\Temp\ccjkf419.s 			page 4


  81              		.cfi_startproc
  82              		@ args = 0, pretend = 0, frame = 8
  83              		@ frame_needed = 1, uses_anonymous_args = 0
  84              		@ link register save eliminated.
  85 0000 80B4     		push	{r7}
  86              		.cfi_def_cfa_offset 4
  87              		.cfi_offset 7, -4
  88 0002 83B0     		sub	sp, sp, #12
  89              		.cfi_def_cfa_offset 16
  90 0004 00AF     		add	r7, sp, #0
  91              		.cfi_def_cfa_register 7
  92 0006 0346     		mov	r3, r0
  93 0008 FB71     		strb	r3, [r7, #7]
  92:Generated_Source\PSoC5/YM_Data.c **** 	CyPins_SetPinDriveMode(YM_Data_0, mode);
  94              		.loc 1 92 0
  95 000a 4649     		ldr	r1, .L5
  96 000c 454B     		ldr	r3, .L5
  97 000e 1B78     		ldrb	r3, [r3]
  98 0010 DBB2     		uxtb	r3, r3
  99 0012 5BB2     		sxtb	r3, r3
 100 0014 23F00E03 		bic	r3, r3, #14
 101 0018 5AB2     		sxtb	r2, r3
 102 001a 97F90730 		ldrsb	r3, [r7, #7]
 103 001e 03F00E03 		and	r3, r3, #14
 104 0022 5BB2     		sxtb	r3, r3
 105 0024 1343     		orrs	r3, r3, r2
 106 0026 5BB2     		sxtb	r3, r3
 107 0028 DBB2     		uxtb	r3, r3
 108 002a 0B70     		strb	r3, [r1]
  93:Generated_Source\PSoC5/YM_Data.c **** 	CyPins_SetPinDriveMode(YM_Data_1, mode);
 109              		.loc 1 93 0
 110 002c 3E49     		ldr	r1, .L5+4
 111 002e 3E4B     		ldr	r3, .L5+4
 112 0030 1B78     		ldrb	r3, [r3]
 113 0032 DBB2     		uxtb	r3, r3
 114 0034 5BB2     		sxtb	r3, r3
 115 0036 23F00E03 		bic	r3, r3, #14
 116 003a 5AB2     		sxtb	r2, r3
 117 003c 97F90730 		ldrsb	r3, [r7, #7]
 118 0040 03F00E03 		and	r3, r3, #14
 119 0044 5BB2     		sxtb	r3, r3
 120 0046 1343     		orrs	r3, r3, r2
 121 0048 5BB2     		sxtb	r3, r3
 122 004a DBB2     		uxtb	r3, r3
 123 004c 0B70     		strb	r3, [r1]
  94:Generated_Source\PSoC5/YM_Data.c **** 	CyPins_SetPinDriveMode(YM_Data_2, mode);
 124              		.loc 1 94 0
 125 004e 3749     		ldr	r1, .L5+8
 126 0050 364B     		ldr	r3, .L5+8
 127 0052 1B78     		ldrb	r3, [r3]
 128 0054 DBB2     		uxtb	r3, r3
 129 0056 5BB2     		sxtb	r3, r3
 130 0058 23F00E03 		bic	r3, r3, #14
 131 005c 5AB2     		sxtb	r2, r3
 132 005e 97F90730 		ldrsb	r3, [r7, #7]
 133 0062 03F00E03 		and	r3, r3, #14
 134 0066 5BB2     		sxtb	r3, r3
ARM GAS  C:\Users\ingan\AppData\Local\Temp\ccjkf419.s 			page 5


 135 0068 1343     		orrs	r3, r3, r2
 136 006a 5BB2     		sxtb	r3, r3
 137 006c DBB2     		uxtb	r3, r3
 138 006e 0B70     		strb	r3, [r1]
  95:Generated_Source\PSoC5/YM_Data.c **** 	CyPins_SetPinDriveMode(YM_Data_3, mode);
 139              		.loc 1 95 0
 140 0070 2F49     		ldr	r1, .L5+12
 141 0072 2F4B     		ldr	r3, .L5+12
 142 0074 1B78     		ldrb	r3, [r3]
 143 0076 DBB2     		uxtb	r3, r3
 144 0078 5BB2     		sxtb	r3, r3
 145 007a 23F00E03 		bic	r3, r3, #14
 146 007e 5AB2     		sxtb	r2, r3
 147 0080 97F90730 		ldrsb	r3, [r7, #7]
 148 0084 03F00E03 		and	r3, r3, #14
 149 0088 5BB2     		sxtb	r3, r3
 150 008a 1343     		orrs	r3, r3, r2
 151 008c 5BB2     		sxtb	r3, r3
 152 008e DBB2     		uxtb	r3, r3
 153 0090 0B70     		strb	r3, [r1]
  96:Generated_Source\PSoC5/YM_Data.c **** 	CyPins_SetPinDriveMode(YM_Data_4, mode);
 154              		.loc 1 96 0
 155 0092 2849     		ldr	r1, .L5+16
 156 0094 274B     		ldr	r3, .L5+16
 157 0096 1B78     		ldrb	r3, [r3]
 158 0098 DBB2     		uxtb	r3, r3
 159 009a 5BB2     		sxtb	r3, r3
 160 009c 23F00E03 		bic	r3, r3, #14
 161 00a0 5AB2     		sxtb	r2, r3
 162 00a2 97F90730 		ldrsb	r3, [r7, #7]
 163 00a6 03F00E03 		and	r3, r3, #14
 164 00aa 5BB2     		sxtb	r3, r3
 165 00ac 1343     		orrs	r3, r3, r2
 166 00ae 5BB2     		sxtb	r3, r3
 167 00b0 DBB2     		uxtb	r3, r3
 168 00b2 0B70     		strb	r3, [r1]
  97:Generated_Source\PSoC5/YM_Data.c **** 	CyPins_SetPinDriveMode(YM_Data_5, mode);
 169              		.loc 1 97 0
 170 00b4 2049     		ldr	r1, .L5+20
 171 00b6 204B     		ldr	r3, .L5+20
 172 00b8 1B78     		ldrb	r3, [r3]
 173 00ba DBB2     		uxtb	r3, r3
 174 00bc 5BB2     		sxtb	r3, r3
 175 00be 23F00E03 		bic	r3, r3, #14
 176 00c2 5AB2     		sxtb	r2, r3
 177 00c4 97F90730 		ldrsb	r3, [r7, #7]
 178 00c8 03F00E03 		and	r3, r3, #14
 179 00cc 5BB2     		sxtb	r3, r3
 180 00ce 1343     		orrs	r3, r3, r2
 181 00d0 5BB2     		sxtb	r3, r3
 182 00d2 DBB2     		uxtb	r3, r3
 183 00d4 0B70     		strb	r3, [r1]
  98:Generated_Source\PSoC5/YM_Data.c **** 	CyPins_SetPinDriveMode(YM_Data_6, mode);
 184              		.loc 1 98 0
 185 00d6 1949     		ldr	r1, .L5+24
 186 00d8 184B     		ldr	r3, .L5+24
 187 00da 1B78     		ldrb	r3, [r3]
ARM GAS  C:\Users\ingan\AppData\Local\Temp\ccjkf419.s 			page 6


 188 00dc DBB2     		uxtb	r3, r3
 189 00de 5BB2     		sxtb	r3, r3
 190 00e0 23F00E03 		bic	r3, r3, #14
 191 00e4 5AB2     		sxtb	r2, r3
 192 00e6 97F90730 		ldrsb	r3, [r7, #7]
 193 00ea 03F00E03 		and	r3, r3, #14
 194 00ee 5BB2     		sxtb	r3, r3
 195 00f0 1343     		orrs	r3, r3, r2
 196 00f2 5BB2     		sxtb	r3, r3
 197 00f4 DBB2     		uxtb	r3, r3
 198 00f6 0B70     		strb	r3, [r1]
  99:Generated_Source\PSoC5/YM_Data.c **** 	CyPins_SetPinDriveMode(YM_Data_7, mode);
 199              		.loc 1 99 0
 200 00f8 1149     		ldr	r1, .L5+28
 201 00fa 114B     		ldr	r3, .L5+28
 202 00fc 1B78     		ldrb	r3, [r3]
 203 00fe DBB2     		uxtb	r3, r3
 204 0100 5BB2     		sxtb	r3, r3
 205 0102 23F00E03 		bic	r3, r3, #14
 206 0106 5AB2     		sxtb	r2, r3
 207 0108 97F90730 		ldrsb	r3, [r7, #7]
 208 010c 03F00E03 		and	r3, r3, #14
 209 0110 5BB2     		sxtb	r3, r3
 210 0112 1343     		orrs	r3, r3, r2
 211 0114 5BB2     		sxtb	r3, r3
 212 0116 DBB2     		uxtb	r3, r3
 213 0118 0B70     		strb	r3, [r1]
 100:Generated_Source\PSoC5/YM_Data.c **** }
 214              		.loc 1 100 0
 215 011a 00BF     		nop
 216 011c 0C37     		adds	r7, r7, #12
 217              		.cfi_def_cfa_offset 4
 218 011e BD46     		mov	sp, r7
 219              		.cfi_def_cfa_register 13
 220              		@ sp needed
 221 0120 80BC     		pop	{r7}
 222              		.cfi_restore 7
 223              		.cfi_def_cfa_offset 0
 224 0122 7047     		bx	lr
 225              	.L6:
 226              		.align	2
 227              	.L5:
 228 0124 60500040 		.word	1073762400
 229 0128 61500040 		.word	1073762401
 230 012c 62500040 		.word	1073762402
 231 0130 63500040 		.word	1073762403
 232 0134 64500040 		.word	1073762404
 233 0138 65500040 		.word	1073762405
 234 013c 66500040 		.word	1073762406
 235 0140 67500040 		.word	1073762407
 236              		.cfi_endproc
 237              	.LFE1:
 238              		.size	YM_Data_SetDriveMode, .-YM_Data_SetDriveMode
 239              		.section	.text.YM_Data_Read,"ax",%progbits
 240              		.align	2
 241              		.global	YM_Data_Read
 242              		.thumb
ARM GAS  C:\Users\ingan\AppData\Local\Temp\ccjkf419.s 			page 7


 243              		.thumb_func
 244              		.type	YM_Data_Read, %function
 245              	YM_Data_Read:
 246              	.LFB2:
 101:Generated_Source\PSoC5/YM_Data.c **** 
 102:Generated_Source\PSoC5/YM_Data.c **** 
 103:Generated_Source\PSoC5/YM_Data.c **** /*******************************************************************************
 104:Generated_Source\PSoC5/YM_Data.c **** * Function Name: YM_Data_Read
 105:Generated_Source\PSoC5/YM_Data.c **** ****************************************************************************//**
 106:Generated_Source\PSoC5/YM_Data.c **** *
 107:Generated_Source\PSoC5/YM_Data.c **** * \brief Reads the associated physical port (pin status register) and masks 
 108:Generated_Source\PSoC5/YM_Data.c **** *  the required bits according to the width and bit position of the component
 109:Generated_Source\PSoC5/YM_Data.c **** *  instance. 
 110:Generated_Source\PSoC5/YM_Data.c **** *
 111:Generated_Source\PSoC5/YM_Data.c **** * The pin's status register returns the current logic level present on the 
 112:Generated_Source\PSoC5/YM_Data.c **** * physical pin.
 113:Generated_Source\PSoC5/YM_Data.c **** *
 114:Generated_Source\PSoC5/YM_Data.c **** * \return 
 115:Generated_Source\PSoC5/YM_Data.c **** *  The current value for the pins in the component as a right justified number.
 116:Generated_Source\PSoC5/YM_Data.c **** *
 117:Generated_Source\PSoC5/YM_Data.c **** * \funcusage
 118:Generated_Source\PSoC5/YM_Data.c **** *  \snippet YM_Data_SUT.c usage_YM_Data_Read  
 119:Generated_Source\PSoC5/YM_Data.c **** *******************************************************************************/
 120:Generated_Source\PSoC5/YM_Data.c **** uint8 YM_Data_Read(void)
 121:Generated_Source\PSoC5/YM_Data.c **** {
 247              		.loc 1 121 0
 248              		.cfi_startproc
 249              		@ args = 0, pretend = 0, frame = 0
 250              		@ frame_needed = 1, uses_anonymous_args = 0
 251              		@ link register save eliminated.
 252 0000 80B4     		push	{r7}
 253              		.cfi_def_cfa_offset 4
 254              		.cfi_offset 7, -4
 255 0002 00AF     		add	r7, sp, #0
 256              		.cfi_def_cfa_register 7
 122:Generated_Source\PSoC5/YM_Data.c ****     return (YM_Data_PS & YM_Data_MASK) >> YM_Data_SHIFT;
 257              		.loc 1 122 0
 258 0004 034B     		ldr	r3, .L9
 259 0006 1B78     		ldrb	r3, [r3]
 260 0008 DBB2     		uxtb	r3, r3
 123:Generated_Source\PSoC5/YM_Data.c **** }
 261              		.loc 1 123 0
 262 000a 1846     		mov	r0, r3
 263 000c BD46     		mov	sp, r7
 264              		.cfi_def_cfa_register 13
 265              		@ sp needed
 266 000e 80BC     		pop	{r7}
 267              		.cfi_restore 7
 268              		.cfi_def_cfa_offset 0
 269 0010 7047     		bx	lr
 270              	.L10:
 271 0012 00BF     		.align	2
 272              	.L9:
 273 0014 C1510040 		.word	1073762753
 274              		.cfi_endproc
 275              	.LFE2:
 276              		.size	YM_Data_Read, .-YM_Data_Read
ARM GAS  C:\Users\ingan\AppData\Local\Temp\ccjkf419.s 			page 8


 277              		.section	.text.YM_Data_ReadDataReg,"ax",%progbits
 278              		.align	2
 279              		.global	YM_Data_ReadDataReg
 280              		.thumb
 281              		.thumb_func
 282              		.type	YM_Data_ReadDataReg, %function
 283              	YM_Data_ReadDataReg:
 284              	.LFB3:
 124:Generated_Source\PSoC5/YM_Data.c **** 
 125:Generated_Source\PSoC5/YM_Data.c **** 
 126:Generated_Source\PSoC5/YM_Data.c **** /*******************************************************************************
 127:Generated_Source\PSoC5/YM_Data.c **** * Function Name: YM_Data_ReadDataReg
 128:Generated_Source\PSoC5/YM_Data.c **** ****************************************************************************//**
 129:Generated_Source\PSoC5/YM_Data.c **** *
 130:Generated_Source\PSoC5/YM_Data.c **** * \brief Reads the associated physical port's data output register and masks 
 131:Generated_Source\PSoC5/YM_Data.c **** *  the correct bits according to the width and bit position of the component 
 132:Generated_Source\PSoC5/YM_Data.c **** *  instance. 
 133:Generated_Source\PSoC5/YM_Data.c **** *
 134:Generated_Source\PSoC5/YM_Data.c **** * The data output register controls the signal applied to the physical pin in 
 135:Generated_Source\PSoC5/YM_Data.c **** * conjunction with the drive mode parameter. This is not the same as the 
 136:Generated_Source\PSoC5/YM_Data.c **** * preferred YM_Data_Read() API because the 
 137:Generated_Source\PSoC5/YM_Data.c **** * YM_Data_ReadDataReg() reads the data register instead of the status 
 138:Generated_Source\PSoC5/YM_Data.c **** * register. For output pins this is a useful function to determine the value 
 139:Generated_Source\PSoC5/YM_Data.c **** * just written to the pin.
 140:Generated_Source\PSoC5/YM_Data.c **** *
 141:Generated_Source\PSoC5/YM_Data.c **** * \return 
 142:Generated_Source\PSoC5/YM_Data.c **** *  The current value of the data register masked and shifted into a right 
 143:Generated_Source\PSoC5/YM_Data.c **** *  justified number for the component instance.
 144:Generated_Source\PSoC5/YM_Data.c **** *
 145:Generated_Source\PSoC5/YM_Data.c **** * \funcusage
 146:Generated_Source\PSoC5/YM_Data.c **** *  \snippet YM_Data_SUT.c usage_YM_Data_ReadDataReg 
 147:Generated_Source\PSoC5/YM_Data.c **** *******************************************************************************/
 148:Generated_Source\PSoC5/YM_Data.c **** uint8 YM_Data_ReadDataReg(void)
 149:Generated_Source\PSoC5/YM_Data.c **** {
 285              		.loc 1 149 0
 286              		.cfi_startproc
 287              		@ args = 0, pretend = 0, frame = 0
 288              		@ frame_needed = 1, uses_anonymous_args = 0
 289              		@ link register save eliminated.
 290 0000 80B4     		push	{r7}
 291              		.cfi_def_cfa_offset 4
 292              		.cfi_offset 7, -4
 293 0002 00AF     		add	r7, sp, #0
 294              		.cfi_def_cfa_register 7
 150:Generated_Source\PSoC5/YM_Data.c ****     return (YM_Data_DR & YM_Data_MASK) >> YM_Data_SHIFT;
 295              		.loc 1 150 0
 296 0004 034B     		ldr	r3, .L13
 297 0006 1B78     		ldrb	r3, [r3]
 298 0008 DBB2     		uxtb	r3, r3
 151:Generated_Source\PSoC5/YM_Data.c **** }
 299              		.loc 1 151 0
 300 000a 1846     		mov	r0, r3
 301 000c BD46     		mov	sp, r7
 302              		.cfi_def_cfa_register 13
 303              		@ sp needed
 304 000e 80BC     		pop	{r7}
 305              		.cfi_restore 7
ARM GAS  C:\Users\ingan\AppData\Local\Temp\ccjkf419.s 			page 9


 306              		.cfi_def_cfa_offset 0
 307 0010 7047     		bx	lr
 308              	.L14:
 309 0012 00BF     		.align	2
 310              	.L13:
 311 0014 C0510040 		.word	1073762752
 312              		.cfi_endproc
 313              	.LFE3:
 314              		.size	YM_Data_ReadDataReg, .-YM_Data_ReadDataReg
 315              		.text
 316              	.Letext0:
 317              		.file 2 "Generated_Source\\PSoC5\\cytypes.h"